ARM GAS  C:\Users\Thomas\AppData\Local\Temp\ccYVaFFQ.s 			page 1


   1              		.syntax unified
   2              		.cpu cortex-m3
   3              		.fpu softvfp
   4              		.eabi_attribute 20, 1
   5              		.eabi_attribute 21, 1
   6              		.eabi_attribute 23, 3
   7              		.eabi_attribute 24, 1
   8              		.eabi_attribute 25, 1
   9              		.eabi_attribute 26, 1
  10              		.eabi_attribute 30, 2
  11              		.eabi_attribute 34, 1
  12              		.eabi_attribute 18, 4
  13              		.thumb
  14              		.file	"Bootloadable_1.c"
  15              		.text
  16              	.Ltext0:
  17              		.section	.gnu.lto_.profile.be1003bb,"",%progbits
  18 0000 789C6366 		.ascii	"x\234cf```a\200\000F\006#Q\000\000\355\000P"
  18      60606061 
  18      80004606 
  18      23510000 
  18      ED0050
  19              		.text
  20              		.section	.gnu.lto_.jmpfuncs.be1003bb,"",%progbits
  21 0000 789C6366 		.ascii	"x\234cf\300\016D\2414\023\210`dbdd\256\257g`\206\012"
  21      C00E44A1 
  21      34138860 
  21      64626464 
  21      AEAF6760 
  22 0016 02000E4F 		.ascii	"\002\000\016O\001$"
  22      0124
  23              		.text
  24              		.section	.gnu.lto_.inline.be1003bb,"",%progbits
  25 0000 789C6366 		.ascii	"x\234cf\300\016<\2414\023\003\003+/#\003\023\323\005"
  25      C00E3CA1 
  25      34130303 
  25      2B2F2303 
  25      13D305
  26 0013 7E06B605 		.ascii	"~\006\266\005\362L 1F.\020\321\300$\362\231\205\221"
  26      F24C2031 
  26      462E10D1 
  26      C024F299 
  26      8591
  27 0025 91819181 		.ascii	"\221\201\221\201\201\231o\302\007\017\2104\327\004?"
  27      81996FC2 
  27      070F8834 
  27      D7043F
  28 0034 16A02C0B 		.ascii	"\026\240,\013D\021\013/Pr\202\337\004?\006\006\000A"
  28      44110B2F 
  28      507282DF 
  28      043F0606 
  28      0041
  29 0046 DF0913   		.ascii	"\337\011\023"
  30              		.text
  31              		.section	.gnu.lto_.pureconst.be1003bb,"",%progbits
  32 0000 789C6366 		.ascii	"x\234cf```e\200\000&\006)FI\000\000\370\000?"
  32      60606065 
ARM GAS  C:\Users\Thomas\AppData\Local\Temp\ccYVaFFQ.s 			page 2


  32      80002606 
  32      29464900 
  32      00F8003F 
  33              		.text
  34              		.section	.gnu.lto_Bootloadable_1_Load.be1003bb,"",%progbits
  35 0000 789C658F 		.ascii	"x\234e\217\277KBQ\024\307\317\367\274\247(\022D\243"
  35      BF4B4251 
  35      14C7CFF7 
  35      BCA72812 
  35      44A3
  36 0012 FF801021 		.ascii	"\377\200\020!4\264G\015\255\202\253 \246o\223\036\210"
  36      34B4470D 
  36      AD82AB20 
  36      A66F931E 
  36      88
  37 0023 8DE27DE4 		.ascii	"\215\342}\344\320RHS\021\266\204d\231\366\223&\251W"
  37      D0524853 
  37      11B68464 
  37      99F69326 
  37      A957
  38 0035 6B504443 		.ascii	"kPDC\020Q\213En\232\323+\302\316\325\261\013\227s\357"
  38      10518B45 
  38      6E9AD32B 
  38      C2CED5B1 
  38      0B9773EF 
  39 0049 FD7ECFE7 		.ascii	"\375~\317\347~\217A\377WX\266\001\242)\2510\010\\\276"
  39      7E8F41FF 
  39      5758B601 
  39      A229A930 
  39      085CBE
  40 005c 2372020C 		.ascii	"#r\002\014\350\003\201\212\214\":\334c\224\335\372f"
  40      E803818A 
  40      8C223ADC 
  40      6394DDFA 
  40      66
  41 006d 2852554A 		.ascii	"(RUJu7n\235\230\013\217\211\372<\342`\017\021\022S\257"
  41      75376E9D 
  41      980B8F89 
  41      FA3CE260 
  41      0F111253 
  42 0082 F4FB14F2 		.ascii	"\364\373\024\362\227\3044>\322P\203_\370t4\341\252\301"
  42      97C4343E 
  42      D250835F 
  42      F87434E1 
  42      AAC1
  43 0094 E0AC717D 		.ascii	"\340\254q}\011\223\250-\222\376\340\235YW\343\0317\335"
  43      0993A82D 
  43      92FEE09D 
  43      5957E319 
  43      37DD
  44 00a6 E3A64F9B 		.ascii	"\343\246O\233\005\262\365Q\353\214}\262\307\370^s\224"
  44      05B2F551 
  44      EB8C7DB2 
  44      C7F85E73 
  44      94
  45 00b7 A9B96FED 		.ascii	"\251\271o\355\373\207\300\360\211\364\365\244\365u\036"
  45      FB87C0F0 
ARM GAS  C:\Users\Thomas\AppData\Local\Temp\ccYVaFFQ.s 			page 3


  45      89F4F5A4 
  45      F5751E
  46 00c6 AC60DB29 		.ascii	"\254`\333)I\012\306>\3028\200\314\202:*\020\375t\267"
  46      490AC63E 
  46      C23880CC 
  46      823A2A10 
  46      FD74B7
  47 00d9 7A11D476 		.ascii	"z\021\324vc\226p(\312\013V\334\0264_\267\357<\2567\271"
  47      63967028 
  47      CA0B56DC 
  47      16345FB7 
  47      EF3CAE37 
  48 00ee F0A35655 		.ascii	"\360\243VU\300c\263\257\241h\240@\036\373\350\025\216"
  48      C063B3AF 
  48      A168A040 
  48      1EFBE815 
  48      8E
  49 00ff 7B354CA2 		.ascii	"{5L\242\347j\213&\001%\356d4\261`-Y\271T\336\312$\343"
  49      E76A8B26 
  49      0125EE64 
  49      34B1602D 
  49      59B954DE 
  50 0116 F6722E6D 		.ascii	"\366r.m%bq{~&1g\333\371\254\235\312\244\026\263Vr:\232"
  50      2562717B 
  50      7E263167 
  50      DBF9AC9D 
  50      CAA416B3 
  51 012e A63FDAA7 		.ascii	"\246?\332\247m\033"
  51      6D1B
  52              		.text
  53              		.section	.gnu.lto_Bootloadable_1_SetFlashByte.be1003bb,"",%progbits
  54 0000 789C7554 		.ascii	"x\234uTkL\\E\024\2363s_\313.\317&J\210\211FBPc\333\370"
  54      6B4C5C45 
  54      149E3373 
  54      5FCB2ECF 
  54      264A8889 
  55 001a A38D7F4C 		.ascii	"\243\215\177L\352+\306\030Mc\365\217!i\266\3355\230"
  55      EA2BC618 
  55      4D63F58F 
  55      2169B6DD 
  55      3598
  56 002c 206B1688 		.ascii	" k\026\210\366\007\351\224\245,6\261 \306\026\251\330"
  56      F607E994 
  56      A52C36B1 
  56      20C616A9 
  56      D8
  57 003d 5663CBF6 		.ascii	"Vc\313\366\001Z\240-P`Y)Py4m--\204\000V@\024j$`\341"
  57      015AA02D 
  57      50605929 
  57      5079346D 
  57      2D2D8400 
  58 0058 6AED7A66 		.ascii	"j\355zf\006\310j\345&s\367\316\331\363}\347;g\316\031"
  58      06C86AE5 
  58      2673F7CE 
  58      D9F37DE7 
  58      3B67CE19 
  59 006c 46EE7F5E 		.ascii	"F\356\177^\301u\320 $\033\177\301 @\313\007\010\331"
ARM GAS  C:\Users\Thomas\AppData\Local\Temp\ccYVaFFQ.s 			page 4


  59      C175D020 
  59      241B7FC1 
  59      2040CB07 
  59      08D9
  60 007e 6351D0D4 		.ascii	"cQ\320\324\007S\037\035\226F\331\251~Bx\234>\201o\227"
  60      07531F1D 
  60      9646D9A9 
  60      7E42789C 
  60      3E816F97 
  61 0092 0E20EC04 		.ascii	"\016 \354\004\310n\3124\035vS\215\000\247r\341\363\013"
  61      C86ECA34 
  61      1D76538D 
  61      00A772E1 
  61      F30B
  62 00a4 9DA3501E 		.ascii	"\235\243P\036>Y\351\314\374\232s\376{\304N\335\233j"
  62      3E59E9CC 
  62      FC9A73FE 
  62      7BC44EDD 
  62      9B6A
  63 00b6 E35FF354 		.ascii	"\343_\363T\305\205\343\220)\\f\206\312\\l=\020\374n"
  63      C585E390 
  63      295C6686 
  63      CA5C6C3D 
  63      10FC6E
  64 00c9 AA5DE877 		.ascii	"\252]\350wNS\233\302#b\333\\\321Si\210-2\343\366\327"
  64      4E539BC2 
  64      2362DB5C 
  64      D1536988 
  64      2D32E3F6 
  65 00de 0FAF4758 		.ascii	"\017\257GX\306W\234\027\205\207\316\360-\232M\031\324"
  65      C6579C17 
  65      8587CEF0 
  65      2D9A4D19 
  65      D4
  66 00ef 00433E08 		.ascii	"\000C>\010A\032\234\2004\202&\002'!\003\275?-\357\272"
  66      411A9C80 
  66      34822602 
  66      272103BD 
  66      3F2DEFBA 
  67 0103 A5B14D92 		.ascii	"\245\261M\222\367\207\306\363ST!\227j\371\026\260\251"
  67      F787C6F3 
  67      53542197 
  67      6AF916B0 
  67      A9
  68 0114 06A714F2 		.ascii	"\006\247\024\362\3114x\\\340P\373i\310\020\316\307\317"
  68      C934785C 
  68      E050FB69 
  68      C810CEC7 
  68      CF
  69 0125 FD16B0D8 		.ascii	"\375\026\260\3303\022\370SO\3443g\372Q\004\216\017\004"
  69      3312F853 
  69      4FE43367 
  69      FA51048E 
  69      0F04
  70 0137 BB5DBC87 		.ascii	"\273]\274\207\027\217G\243\017\213\310\265\377\216\254"
  70      178F47A3 
  70      0F8BC8B5 
ARM GAS  C:\Users\Thomas\AppData\Local\Temp\ccYVaFFQ.s 			page 5


  70      FF8EAC
  71 0146 1E840C75 		.ascii	"\036\204\014u\354\253\322\331\213\022>\336\334w\330"
  71      ECABD2D9 
  71      8B123EDE 
  71      DC77D8
  72 0155 92F9F024 		.ascii	"\222\371\360$\261o\351\013\325Q\231\020\326\010\367"
  72      B16FE90B 
  72      D5519910 
  72      D608F7
  73 0164 B3AD2742 		.ascii	"\263\255'B\011H\037\346G.g\256r\353\360\215\342\376"
  73      09481FE6 
  73      472E67AE 
  73      72EBF08D 
  73      E2FE
  74 0176 16B9CFC4 		.ascii	"\026\271\317\304r\217\\\353\316f\257J\352?/\315\345"
  74      728F5CEB 
  74      CE66AF4A 
  74      EA3F2FCD 
  74      E5
  75 0187 2A61C33F 		.ascii	"*a\303?w;y\345\012X\203\206\330\304V\241\013\221\251"
  75      773B79E5 
  75      0A588386 
  75      D8C456A1 
  75      0B91A9
  76 019a 31606F4A 		.ascii	"1`oJl\357\255\245y\227\224%UU\335\230\\`R\225\024\325"
  76      6CEFADA5 
  76      79979425 
  76      5555DD98 
  76      5C605295 
  77 01b0 33DD374B 		.ascii	"3\3357K\025\365tp\237\213\327\254P\033pVQ\237C]\347"
  77      15F57470 
  77      9F8BD7AC 
  77      501B7056 
  77      519F435D 
  78 01c5 6375DD99 		.ascii	"cu\335\231\353z\224eI\356PSp/(\364\314\177*\326\274"
  78      EB7A9465 
  78      49EE5053 
  78      702F28F4 
  78      CC7F2AD6 
  79 01da 46C51A43 		.ascii	"F\305\032C\307>\242\314\253*\326Y7kJ\370\221\331\240"
  79      C73EA2CC 
  79      AB2AD659 
  79      376B4AF8 
  79      91D9A0
  80 01ed 1113FAC2 		.ascii	"\021\023\372\302\032\241\347\212\377\276\3414\212\261"
  80      1AA1E78A 
  80      FFBEE134 
  80      8AB1
  81 01fb C392A00E 		.ascii	"\303\222\240\016\322\241\036W#\256&\\-\270Z!]u\034\264"
  81      D2A11E57 
  81      23AE265C 
  81      2DB85A21 
  81      5D751CB4 
  82 020f 810184E8 		.ascii	"\201\001\204\350\377\347Q\227\022\346\321\350\374\324"
  82      FFE75197 
  82      12E6D1E8 
  82      FCD4
ARM GAS  C:\Users\Thomas\AppData\Local\Temp\ccYVaFFQ.s 			page 6


  83 021d 27A5995A 		.ascii	"'\245\231Z*\020ab \372H\303\3160u\"\374\015\361i\212"
  83      2A106162 
  83      20FA48C3 
  83      CE307522 
  83      FC0DF169 
  84 0232 974504D6 		.ascii	"\227E\004\326A\004\332\211\006\313%\254\361\342\225"
  84      4104DA89 
  84      06CB25AC 
  84      F1E295
  85 0241 802F4722 		.ascii	"\200/G\"\276\342\222%K\2120\256\003\331Zd\002e\340\344"
  85      BEE29225 
  85      4B8A30AE 
  85      03D95A64 
  85      0265E0E4 
  86 0255 4C629927 		.ascii	"Lb\231'\010\033\204\242puY\202\224\205\302\027\261s"
  86      081B84A2 
  86      70755982 
  86      9485C217 
  86      B173
  87 0267 8721F079 		.ascii	"\207!\360y\311`\353Y\020\306E\252\241\0153<\360GMHN"
  87      C960EB59 
  87      10C645AA 
  87      A10D333C 
  87      F0474D48 
  88 027c 81C93976 		.ascii	"\201\3119vi;f?\014E7\203w\227\335t\364$\203@%S\243`"
  88      693B663F 
  88      0C453783 
  88      7797DD74 
  88      F4248340 
  89 0294 D205D352 		.ascii	"\322\005\323RIW[\363\262\213\241\230\016\316,5\310v"
  89      49575BF3 
  89      B28BA198 
  89      0ECE2C35 
  89      C876
  90 02a6 34A3519C 		.ascii	"4\243Q\234\223\260d\302\220\013\251\312\315D\317\330"
  90      93B064C2 
  90      900BA9CA 
  90      CD44CFD8 
  91 02b6 2E35C534 		.ascii	".5\3054w\254\304\353\244\312\313B\307\325xM\"\236\245"
  91      77ACC4EB 
  91      A4CACB42 
  91      C7D5784D 
  91      229EA5
  92 02c9 E28DB63D 		.ascii	"\342\215\266=\255<\034*\334\355\006~aY\370\275h4\221"
  92      AD3C1C2A 
  92      DCED067E 
  92      6159F8BD 
  92      683491
  93 02dc 4004A956 		.ascii	"@\004\251V\200-\002\350 \242\012ce\211\322\204\365B"
  93      802D02E8 
  93      20A20A63 
  93      6589D284 
  93      F542
  94 02ee D4D8C4E5 		.ascii	"\324\330\304\345+R$^I\360\235<\352I\254\015\336<\014"
  94      2B52245E 
  94      49F09D3C 
  94      EA49AC0D 
ARM GAS  C:\Users\Thomas\AppData\Local\Temp\ccYVaFFQ.s 			page 7


  94      DE3C0C
  95 0301 658C0607 		.ascii	"e\214\006\007\332\267\252(\316E\012D\232:\231\262\270"
  95      DAB7AA28 
  95      CE450A44 
  95      9A3A99B2 
  95      B8
  96 0312 94255061 		.ascii	"\224%Pa\250}\27449\244|S\231\022\320*\366w\342\324>"
  96      A87DBC34 
  96      39A47C53 
  96      9912D02A 
  96      F677E2D4 
  97 0327 3136A243 		.ascii	"16\242C\265\343\322\341\333\361\325pH\334\022\010\200"
  97      B5E3D2E1 
  97      DBF1D570 
  97      48DC1208 
  97      80
  98 0338 4EA1012E 		.ascii	"N\241\001.B\265\214Vq\364A\201D?\373\313\376f\266\361"
  98      42B58C56 
  98      71F44181 
  98      443FFBCB 
  98      FE66B6F1 
  99 034c 34765EF8 		.ascii	"4v^\37011w\365\"#\247\274\331\272`#RK)%\367\332\256"
  99      313177F5 
  99      2223A7BC 
  99      D9BA6023 
  99      524B2925 
 100 0363 2E9F4232 		.ascii	".\237B2\312C\334\225\252c\201D\231 vZwLIZ\005A\262\314"
 100      CA43DC95 
 100      AA638144 
 100      9920765A 
 100      774C495A 
 101 037b 572378B5 		.ascii	"W#x\265\212\026I\"\312\014\344:\024\367\007\036PL\202"
 101      8A164922 
 101      CA0CE43A 
 101      14F7071E 
 101      504C82
 102 038e A6F290DD 		.ascii	"\246\362\220\335fJ\232(\362\364\250\231\230\002\020"
 102      664A9A28 
 102      F2F4A899 
 102      980210
 103 039d 35A3D30C 		.ascii	"5\243\323\014\231Xe<R\351\242\331\324\371\264\277\245"
 103      9958653C 
 103      52E9A2D9 
 103      D4F9B4BF 
 103      A5
 104 03ae E029EA7C 		.ascii	"\340)\352|\366\367Vu0\325\016\310pI\235\363\201\037"
 104      F6F75675 
 104      30D50EC8 
 104      70499DF3 
 104      811F
 105 03c0 D7DF9FDF 		.ascii	"\327\337\237\337C\253\371\245\310\374\276\027\371\255"
 105      43ABF9A5 
 105      C8FCBE17 
 105      F9AD
 106 03ce 23235012 		.ascii	"##P\022\376\370\252K\370\213\302}qm\177--\374\213\227"
 106      FEF8AA4B 
 106      F88BC27D 
ARM GAS  C:\Users\Thomas\AppData\Local\Temp\ccYVaFFQ.s 			page 8


 106      716D7F2D 
 106      2DFC8B97 
 107 03e2 72CBA6CE 		.ascii	"r\313\246\316y\324L\240\027\012\211lQK\334;w/\266\273"
 107      79D44CA0 
 107      170A896C 
 107      514BDC3B 
 107      772FB6BB 
 108 03f6 D00119B3 		.ascii	"\320\001\031\263m\352\222\223(\260\320\007\2056\236"
 108      6DEA9293 
 108      28B0D007 
 108      85369E
 109 0405 CB0804C2 		.ascii	"\313\010\004\302\215k\360%\314\343\330\020\350G>[\226"
 109      8D6BF025 
 109      CCE3D810 
 109      E8473E5B 
 109      96
 110 0416 36725397 		.ascii	"6rS\227U\253\227]\303;\206\026\215\315\015\274\024O"
 110      55AB975D 
 110      C33B8616 
 110      8DCD0DBC 
 110      144F
 111 0428 0DE77500 		.ascii	"\015\347u\0006\223Q\330\023nz]\222\0211|\200\205@\212"
 111      369351D8 
 111      136E7A5D 
 111      9211317C 
 111      8085408A 
 112 043c 273664BD 		.ascii	"'6d\275\344\315\365\372\335\371^\317\366m\276\002\377"
 112      E4CDF5FA 
 112      DDF95ECF 
 112      F66DBE02 
 112      FF
 113 044d 4E6FD6D6 		.ascii	"No\326\326m\276\3477e=\347\363\345\347\370\334\036\367"
 113      6DBEE737 
 113      653DE7F3 
 113      E5E7F8DC 
 113      1EF7
 114 045f 8E1CEFF6 		.ascii	"\216\034\357\366\2476\354$\246\333\343\361{\363\362"
 114      A736EC24 
 114      A6DBE3F1 
 114      7BF3F2
 115 046e 4C7F41EE 		.ascii	"L\177A\356\033\273\336\363\232o\347\344=\213&\323\357"
 115      1BBBDEF3 
 115      9A6FE7E4 
 115      3D8B26D3 
 115      EF
 116 047f 7BFF0577 		.ascii	"{\377\005w\276\333t\373\375\356]/{\014\334\277V\360"
 116      BEDB74FB 
 116      FDEE5D2F 
 116      7B0CDCBF 
 116      56F0
 117 0491 AEB5C39D 		.ascii	"\256\265\303\235\347\025\377\263w<\037\374\003\326\027"
 117      E715FFB3 
 117      773C1FFC 
 117      03D617
 118 04a0 6C98     		.ascii	"l\230"
 119              		.text
 120              		.section	.gnu.lto_.symbol_nodes.be1003bb,"",%progbits
ARM GAS  C:\Users\Thomas\AppData\Local\Temp\ccYVaFFQ.s 			page 9


 121 0000 789C6366 		.ascii	"x\234cf``Hg\200\002&\206z\006\206\011\347\030\030\352"
 121      60604867 
 121      80022686 
 121      7A068609 
 121      E71818EA 
 122 0014 EB19E62D 		.ascii	"\353\031\346-\340``b\254gD\34632\3253A\370\014\015\015"
 122      E0606062 
 122      AC6744E6 
 122      3332D533 
 122      41F80C0D 
 123 0029 402E4B3D 		.ascii	"@.K=32\227\271\236\005\211\313\0144\356\310\203\177"
 123      333297B9 
 123      9E0589CB 
 123      0C34EEC8 
 123      837F
 124 003b 8CCC8C2C 		.ascii	"\214\314\214,\014K\372\336\3103323\034\001\322\014\000"
 124      0C4BFADE 
 124      C8333332 
 124      331C01D2 
 124      0C00
 125 004d 36C51A45 		.ascii	"6\305\032E"
 126              		.text
 127              		.section	.gnu.lto_.refs.be1003bb,"",%progbits
 128 0000 789C6366 		.ascii	"x\234cf```d\200\002\000\000=\000\005"
 128      60606064 
 128      80020000 
 128      3D0005
 129              		.text
 130              		.section	.gnu.lto_.decls.be1003bb,"",%progbits
 131 0000 789C8D54 		.ascii	"x\234\215TmL[e\024\276\347\336R\332z)\004\023f\330\017"
 131      6D4C5B65 
 131      14BEE7DE 
 131      52DA7A29 
 131      041366D8 
 132 0015 4B4C881A 		.ascii	"KL\210\032B2\215f\3774\253\331\214.\206\214\030\177"
 132      42328D66 
 132      FF34ABD9 
 132      8C2E868C 
 132      187F
 133 0027 8C8474EC 		.ascii	"\214\204t\354*$d5\264d\351\037\363n\215\001\321\310"
 133      2A246435 
 133      B464E91F 
 133      F36E8D01 
 133      D1C8
 134 0039 8743180B 		.ascii	"\207C\030\013\033F\302\347\370\330\007lP\276\025\306"
 134      1B46C2E7 
 134      F8D8076C 
 134      50BE15C6 
 135 0049 37432A1D 		.ascii	"7C*\035\033\205\362\265\315\314\230\242DAt\365\274\357"
 135      1B85F2B5 
 135      CDCC98A2 
 135      444174F5 
 135      BCEF
 136 005b BDA5BD38 		.ascii	"\275\245\2758torz\357y{\316\363>\347\234\347\275\002"
 136      746F727A 
 136      EF797BCE 
 136      F33EE79C 
ARM GAS  C:\Users\Thomas\AppData\Local\Temp\ccYVaFFQ.s 			page 10


 136      E7BD02
 137 006e C771AB68 		.ascii	"\307q\253h\001\\\353Z\216\333\017\034'\240\237\302\205"
 137      015CEB5A 
 137      8EDB0F1C 
 137      27A09FC2 
 137      85
 138 007f 5604DA65 		.ascii	"V\004\332e4\027Z7Z/\3324\367\357Ec\264J\356,\232\033"
 138      34175A37 
 138      5A2FDA34 
 138      F7EF4563 
 138      B44AEE2C 
 139 0095 2D0ECD83 		.ascii	"-\016\315\203V\257\304\360J\\\367\023\362)~\214\222"
 139      56AFC4F0 
 139      4A5CF713 
 139      F2297E8C 
 139      92
 140 00a6 6F4413D1 		.ascii	"oD\023\321\256\240\265\241\315\243\215\240%\240\275"
 140      AEA0B5A1 
 140      CDA38DA0 
 140      25A0BD
 141 00b5 83E655B0 		.ascii	"\203\346U\260\027\320\026\321\246v\235#(x\323\012\337"
 141      17D016D1 
 141      A6769D23 
 141      2878D30A 
 141      DF
 142 00c6 DD6B9D87 		.ascii	"\335k\235\207\216\346\215\211g\036\362`4\230\250\333"
 142      8EE68D89 
 142      671EF260 
 142      3498A8DB 
 143 00d6 59325CAE 		.ascii	"Y2\\\256EW4h\250\353\332^vk\366\225\022\\EN\022\243"
 143      45573468 
 143      A8EBDA5E 
 143      766BF695 
 143      125C454E 
 144 00ec 819438A8 		.ascii	"\201\2248\250\205x\250\203x\216\203z\330\207\277\307"
 144      8578A883 
 144      788E837A 
 144      D887BFC7 
 145 00fc 3532D2DA 		.ascii	"52\322\332\265\236\2574\002\017\364\375\333\362%\267"
 145      B59EAF34 
 145      020FF4FD 
 145      DBF225B7 
 146 010c 21A901D3 		.ascii	"!\251\001\323\362I\237\237\017\035W\334\330S\2501]$"
 146      F2499F9F 
 146      0F1D57DC 
 146      D853A831 
 146      5D24
 147 011e 55ADFEEE 		.ascii	"U\255\376\356\253s\"\031&}\201\300\033\014\012\032@"
 147      AB732219 
 147      267D81C0 
 147      1B0C0A1A 
 147      40
 148 012f 804648A2 		.ascii	"\200FH\242\221\364\235\245\300e0a\332\322\035OW\244"
 148      91F49DA5 
 148      C0653061 
 148      DAD21D4F 
 148      57A4
ARM GAS  C:\Users\Thomas\AppData\Local\Temp\ccYVaFFQ.s 			page 11


 149 0141 F036C33E 		.ascii	"\3606\303>S\343\372\"\022)&\030\030\342\342\205\255"
 149      53E3FA22 
 149      12292618 
 149      18E2E285 
 149      AD
 150 0152 6A3D73E9 		.ascii	"j=s\351\364\242q\213w\015\224L\033 \321P\215\347\373"
 150      F4A2718B 
 150      770D944C 
 150      1B20D150 
 150      8DE7FB
 151 0165 2F391BDF 		.ascii	"/9\033\337u\2227\341\012\030\240i\347\004\226MW>!gi"
 151      759237E1 
 151      0A18A069 
 151      E704964D 
 151      573E2167 
 152 017a 6DFA6123 		.ascii	"m\372a#\267S\032\264B\"F\260Xh\306\315\026\334\304\263"
 152      B7531AB4 
 152      422246B0 
 152      5868C6CD 
 152      16DCC4B3 
 153 018e 667BF3F2 		.ascii	"f{\363\362t\202ME#N\246\361\345XE\277\300\334\000\375"
 153      74824D45 
 153      234EA6F1 
 153      E55845BF 
 153      C0DC00FD 
 154 01a2 9B9F9B3B 		.ascii	"\233\237\233;\267%\200!\221\341\373K\210\360\034\007"
 154      B7258021 
 154      91E1FB4B 
 154      88F01C07 
 155 01b2 49F1F012 		.ascii	"I\361\360\022\202\267#x\234\002~\015\301\257#8\245Z"
 155      82B72378 
 155      9C027E0D 
 155      C1AF2338 
 155      A55A
 156 01c4 D51005D0 		.ascii	"\325\020\005\320\2064\257\206h\306\031vZW\364i\177\221"
 156      8634AF86 
 156      68C61976 
 156      5A57F469 
 156      7F91
 157 01d6 4683BD64 		.ascii	"F\203\275d1\307\331|\226\006\347W\"\330\036-\357\006"
 157      31C7D97C 
 157      9606E757 
 157      22D81E2D 
 157      EF06
 158 01e8 B0CD409B 		.ascii	"\260\315@\233\357?\206\326\301\206v\023\224\251-\324"
 158      EF3F86D6 
 158      C1867613 
 158      94A92DD4 
 159 01f8 ADDE05C1 		.ascii	"\255\336\005\301\301J\352\373z\324'(\303)/\024\316\223"
 159      C14AEAFB 
 159      7AD42728 
 159      C3292F14 
 159      CE93
 160 020a AAB3E471 		.ascii	"\252\263\344q\000\353\241I\320\0316\236\316\340x\\l"
 160      00EBA149 
 160      D019369E 
 160      CEE0785C 
ARM GAS  C:\Users\Thomas\AppData\Local\Temp\ccYVaFFQ.s 			page 12


 160      6C
 161 021b 3CF7D7FD 		.ascii	"<\367\327\375\177E\012\245\300PV\037\374\344\325#\212"
 161      7F450AA5 
 161      C050561F 
 161      FCE4D523 
 161      8A
 162 022c 8FB44EAC 		.ascii	"\217\264N\254}r\236|\023\004\2413\356\012\003\351\012"
 162      7D729E7C 
 162      1304A133 
 162      EE0A03E9 
 162      0A
 163 023d 82743390 		.ascii	"\202t3\220\366\372\321M\215pK\00697\341\33202\020_\323"
 163      F6FAD14D 
 163      8D704B06 
 163      3937E1DA 
 163      3032105F 
 164 0252 E0905815 		.ascii	"\340\220X\025\256\223\2360\214\236 F/\303(\275\340\364"
 164      AE939E30 
 164      8C9E2046 
 164      2FC328BD 
 164      E0F4
 165 0264 460B6E86 		.ascii	"F\013n\206\301\273\177\236\254\024C2p\211.Bt0\200\215"
 165      C1BB7F9E 
 165      AC144332 
 165      70892E42 
 165      7430808D 
 166 0278 EA7B5A1D 		.ascii	"\352{Z\035\364?Y\007c\313\233\277\211\354\322\304P\267"
 166      F43F5907 
 166      63CB9BBF 
 166      89ECD2C4 
 166      50B7
 167 028a C2B3B621 		.ascii	"\302\263\266!\260K\303S\267\362\327_\272\364\202\027"
 167      B04BC353 
 167      B7F2D75F 
 167      BAF48217 
 168 029a 543231C9 		.ascii	"T21\3112){\264y]\307\334@@\240$\267W\232k\265\012I_"
 168      32297BB4 
 168      795DC7DC 
 168      4040A024 
 168      B7579A6B 
 169 02b2 63939100 		.ascii	"c\223\221\000\214 \303\301\020CS8C\342$\021u\310\360"
 169      8C20C3C1 
 169      10435338 
 169      43E22411 
 169      75C8F0
 170 02c5 3B24F33D 		.ascii	";$\363=e8\214\014M\012\303!\334\274%3\234\254\310\337"
 170      65388C0C 
 170      4D0AC321 
 170      DCBC2533 
 170      9CACC8DF 
 171 02d9 301814F1 		.ascii	"0\030\024\361\345\377\217\3700~\250\371Le\224X\020j"
 171      E5FF8FF8 
 171      307EA8F9 
 171      4C659458 
 171      106A
 172 02eb 028C228B 		.ascii	"\002\214\"\213\220j\306@Td\330\322];\"\313\020\367\024"
 172      906AC640 
ARM GAS  C:\Users\Thomas\AppData\Local\Temp\ccYVaFFQ.s 			page 13


 172      5464D8D2 
 172      5D3B22CB 
 172      10F714
 173 02fe 19CEFCD9 		.ascii	"\031\316\374\331T\030\315\366(\367qY\206\305s\343D\267"
 173      5418CDF6 
 173      28F77159 
 173      86C573E3 
 173      44B7
 174 0310 A3D70979 		.ascii	"\243\327\011y\363\341\300\275j\010\327\346\200\352\230"
 174      F3E1C0BD 
 174      6A08D7E6 
 174      80EA98
 175 031f 2926CEC9 		.ascii	")&\316\311\2408k\306\306=\274\260*wre\253\241Fd\222"
 175      A0386BC6 
 175      C63DBCB0 
 175      2A777265 
 175      ABA14664 
 176 0334 F03FAABD 		.ascii	"\360?\252\275\237R\354,\252&\276@\340y\226\005\267\303"
 176      9F52EC2C 
 176      AA26BE40 
 176      E0799605 
 176      B7C3
 177 0346 44713B28 		.ascii	"Dq;(\212i&\012R\366y\265N(\223\277Lm\277\027tD\321\306"
 177      8A69260A 
 177      52F679B5 
 177      4E2893BF 
 177      4C6DBF17 
 178 035e 389FE256 		.ascii	"8\237\342VR\021M\026\314\352\345{\274;\343\307=\356"
 178      52114D16 
 178      CCEAE57B 
 178      BC3BE3C7 
 178      3DEE
 179 0370 316AAD57 		.ascii	"1j\255W\034\241Zscq?\204&9\003\241\333\374\331r\305"
 179      1CA15A73 
 179      63713F84 
 179      263903A1 
 179      DBFCD972 
 180 0385 84A86AB8 		.ascii	"\204\250j\270[\325\211Y\271\341\364Ioiy_\201F\025M/"
 180      5BD58959 
 180      B9E1F449 
 180      6F69795F 
 180      8146154D 
 181 039a 4228DA83 		.ascii	"B(\332\203\243P\016\361\260\004_\347\370%\035S(a\022"
 181      A3500EF1 
 181      B0045FE7 
 181      F8251D53 
 181      286112
 182 03ad 758DD7B7 		.ascii	"u\215\327\267\360L\242\204\017\377\\\211\362\347\012"
 182      F04CA284 
 182      0FFF5C89 
 182      F2E70A
 183 03bc F2FEA88A 		.ascii	"\362\376\250\212\245]!A|1\234\314=J\034^\214\207\273"
 183      A55D2141 
 183      7C319CCC 
 183      3D4A1C5E 
 183      8C87BB
 184 03cf B25A1EB4 		.ascii	"\262Z\036\264\327\314\212\261E,\234\020\223\374\325"
ARM GAS  C:\Users\Thomas\AppData\Local\Temp\ccYVaFFQ.s 			page 14


 184      D7CC8AB1 
 184      452C9C10 
 184      93FCD5
 185 03de BA83E173 		.ascii	"\272\203\341s,|\036b\203I\314\241\272\277\350\337\326"
 185      2C7C1E62 
 185      8349CCA1 
 185      BABFE8DF 
 185      D6
 186 03ef AB0A6853 		.ascii	"\253\012hS\225\353U\312\3652\366\255\015\177\317\250"
 186      95EB55CA 
 186      F532F6AD 
 186      0D7FCFA8 
 187 03ff D538A52A 		.ascii	"\3258\245*wA\211^`\321\375\217\3757yU4\236\031\026\275"
 187      7741895E 
 187      60D1FD8F 
 187      FD377955 
 187      349E1916 
 188 0414 A844D3E7 		.ascii	"\250D\323\347\263\207\254V{\266\325r\322r\"[J?\220~"
 188      B387AC56 
 188      7BB6D572 
 188      D272225B 
 188      4A3F907E 
 189 0428 145FB547 		.ascii	"\024_\265G\336{\337d\346^NN;\"\235\222r,v\351dz\252"
 189      DE7BDF64 
 189      E65E4E4E 
 189      3B229D92 
 189      722C76E9 
 190 043f 35372743 		.ascii	"57'CJKI\265\232_KS\347$gp\332\334\254S\366W_ya\317\214"
 190      4A4B49B5 
 190      9A5F4B53 
 190      E7246770 
 190      DADCAC53 
 191 045a 0C87DDF1 		.ascii	"\014\207\335\361\261dK\316\344\"h\350\301\375\273\216"
 191      B1644BCE 
 191      E42268E8 
 191      C1FDBB8E 
 192 046a 4D95EC87 		.ascii	"M\225\354\207\263-\266\314C\016\273\024mv\244Z?\264"
 192      B32DB6CC 
 192      430EBB14 
 192      6D76A45A 
 192      3FB4
 193 047c 9FB6E448 		.ascii	"\237\266\344H\307$\233dO\330\023\325\3548\232u\0021"
 193      C7249B64 
 193      4FD813D5 
 193      EC389A75 
 193      0231
 194 048e 45B3E370 		.ascii	"E\263\343pv\256-\323l\311\310\224t\031\016\233\335b"
 194      76AE2DD3 
 194      6CC9C894 
 194      74190E9B 
 194      DD62
 195 04a0 CFB53152 		.ascii	"\317\2651R\007^7\232\035\037\344d\331\245c\326\323o"
 195      075E379A 
 195      1D1FE464 
 195      D9A563D6 
 195      D36F
 196 04b2 59EC96BD 		.ascii	"Y\354\226\2759R\020\244\200x\232\034\351\243\203\377"
ARM GAS  C:\Users\Thomas\AppData\Local\Temp\ccYVaFFQ.s 			page 15


 196      395210A4 
 196      80789A1C 
 196      E9A383FF 
 197 04c2 0056228E 		.ascii	"\000V\"\216\376"
 197      FE
 198              		.text
 199              		.section	.gnu.lto_.symtab.be1003bb,"",%progbits
 200 0000 426F6F74 		.ascii	"Bootloadable_1_Load\000\000\000\000\000\000\000\000"
 200      6C6F6164 
 200      61626C65 
 200      5F315F4C 
 200      6F616400 
 201 001b 00000000 		.ascii	"\000\000\000\000\254\000\000\000Bootloadable_1_SetF"
 201      AC000000 
 201      426F6F74 
 201      6C6F6164 
 201      61626C65 
 202 0036 6C617368 		.ascii	"lashByte\000\000\000\000\000\000\000\000\000\000\000"
 202      42797465 
 202      00000000 
 202      00000000 
 202      000000
 203 0049 00BB0000 		.ascii	"\000\273\000\000\000CySoftwareReset\000\000\002\000"
 203      00437953 
 203      6F667477 
 203      61726552 
 203      65736574 
 204 0061 00000000 		.ascii	"\000\000\000\000\000\000\000\000\275\000\000\000CyF"
 204      00000000 
 204      BD000000 
 204      437946
 205 0070 6C757368 		.ascii	"lushCache\000\000\002\000\000\000\000\000\000\000\000"
 205      43616368 
 205      65000002 
 205      00000000 
 205      00000000 
 206 0084 00BF0000 		.ascii	"\000\277\000\000\000CyWriteRowData\000\000\002\000\000"
 206      00437957 
 206      72697465 
 206      526F7744 
 206      61746100 
 207 009c 00000000 		.ascii	"\000\000\000\000\000\000\000\321\000\000\000"
 207      000000D1 
 207      000000
 208              		.text
 209              		.section	.gnu.lto_.opts,"",%progbits
 210 0000 272D666E 		.ascii	"'-fno-trapv' '-mcpu=cortex-m3' '-mthumb' '-g' '-O3'"
 210      6F2D7472 
 210      61707627 
 210      20272D6D 
 210      6370753D 
 211 0033 20272D66 		.ascii	" '-ffunction-sections' '-finline-functions' '-flto'"
 211      66756E63 
 211      74696F6E 
 211      2D736563 
 211      74696F6E 
 212 0066 20272D66 		.ascii	" '-ffat-lto-objects'\000"
ARM GAS  C:\Users\Thomas\AppData\Local\Temp\ccYVaFFQ.s 			page 16


 212      6661742D 
 212      6C746F2D 
 212      6F626A65 
 212      63747327 
 213              		.text
 214              		.cfi_sections	.debug_frame
 215              		.section	.text.Bootloadable_1_Load,"ax",%progbits
 216              		.align	2
 217              		.global	Bootloadable_1_Load
 218              		.thumb
 219              		.thumb_func
 220              		.type	Bootloadable_1_Load, %function
 221              	Bootloadable_1_Load:
 222              	.LFB0:
 223              		.file 1 ".\\Generated_Source\\PSoC5\\Bootloadable_1.c"
   1:.\Generated_Source\PSoC5/Bootloadable_1.c **** /****************************************************************************//**
   2:.\Generated_Source\PSoC5/Bootloadable_1.c **** * \file Bootloadable_1.c
   3:.\Generated_Source\PSoC5/Bootloadable_1.c **** * \version 1.50
   4:.\Generated_Source\PSoC5/Bootloadable_1.c **** *
   5:.\Generated_Source\PSoC5/Bootloadable_1.c **** * \brief
   6:.\Generated_Source\PSoC5/Bootloadable_1.c **** *   Provides an API for the Bootloadable application.
   7:.\Generated_Source\PSoC5/Bootloadable_1.c **** *
   8:.\Generated_Source\PSoC5/Bootloadable_1.c **** ********************************************************************************
   9:.\Generated_Source\PSoC5/Bootloadable_1.c **** * \copyright
  10:.\Generated_Source\PSoC5/Bootloadable_1.c **** * Copyright 2008-2015, Cypress Semiconductor Corporation.  All rights reserved.
  11:.\Generated_Source\PSoC5/Bootloadable_1.c **** * You may use this file only in accordance with the license, terms, conditions,
  12:.\Generated_Source\PSoC5/Bootloadable_1.c **** * disclaimers, and limitations in the end user license agreement accompanying
  13:.\Generated_Source\PSoC5/Bootloadable_1.c **** * the software package with which this file was provided.
  14:.\Generated_Source\PSoC5/Bootloadable_1.c **** *******************************************************************************/
  15:.\Generated_Source\PSoC5/Bootloadable_1.c **** 
  16:.\Generated_Source\PSoC5/Bootloadable_1.c **** #include "Bootloadable_1.h"
  17:.\Generated_Source\PSoC5/Bootloadable_1.c **** 
  18:.\Generated_Source\PSoC5/Bootloadable_1.c **** /**
  19:.\Generated_Source\PSoC5/Bootloadable_1.c ****  \defgroup functions_group Functions
  20:.\Generated_Source\PSoC5/Bootloadable_1.c ****  @{
  21:.\Generated_Source\PSoC5/Bootloadable_1.c **** */
  22:.\Generated_Source\PSoC5/Bootloadable_1.c **** 
  23:.\Generated_Source\PSoC5/Bootloadable_1.c **** #if (CYDEV_PROJ_TYPE == CYDEV_PROJ_TYPE_LOADABLEANDBOOTLOADER)
  24:.\Generated_Source\PSoC5/Bootloadable_1.c **** static cystatus Bootloadable_1_WriteFlashByte(const uint32 address, const uint8 inputValue) CYLARGE
  25:.\Generated_Source\PSoC5/Bootloadable_1.c ****                                ;
  26:.\Generated_Source\PSoC5/Bootloadable_1.c **** #endif /*(CYDEV_PROJ_TYPE == CYDEV_PROJ_TYPE_LOADABLEANDBOOTLOADER)*/
  27:.\Generated_Source\PSoC5/Bootloadable_1.c **** 
  28:.\Generated_Source\PSoC5/Bootloadable_1.c **** /*******************************************************************************
  29:.\Generated_Source\PSoC5/Bootloadable_1.c **** * Function Name: Bootloadable_1_Load
  30:.\Generated_Source\PSoC5/Bootloadable_1.c **** ****************************************************************************//**
  31:.\Generated_Source\PSoC5/Bootloadable_1.c **** *
  32:.\Generated_Source\PSoC5/Bootloadable_1.c **** * \brief
  33:.\Generated_Source\PSoC5/Bootloadable_1.c **** *  Schedules the Bootloader/Launcher to be launched and then performs
  34:.\Generated_Source\PSoC5/Bootloadable_1.c **** *  a software reset to launch it
  35:.\Generated_Source\PSoC5/Bootloadable_1.c **** *
  36:.\Generated_Source\PSoC5/Bootloadable_1.c **** * \return
  37:.\Generated_Source\PSoC5/Bootloadable_1.c **** *  This method will never return. It will load a new application and reset
  38:.\Generated_Source\PSoC5/Bootloadable_1.c **** *  the device.
  39:.\Generated_Source\PSoC5/Bootloadable_1.c **** *
  40:.\Generated_Source\PSoC5/Bootloadable_1.c **** *******************************************************************************/
  41:.\Generated_Source\PSoC5/Bootloadable_1.c **** void Bootloadable_1_Load(void) 
  42:.\Generated_Source\PSoC5/Bootloadable_1.c **** {
ARM GAS  C:\Users\Thomas\AppData\Local\Temp\ccYVaFFQ.s 			page 17


 224              		.loc 1 42 0
 225              		.cfi_startproc
 226              		@ args = 0, pretend = 0, frame = 0
 227              		@ frame_needed = 0, uses_anonymous_args = 0
 228              		@ link register save eliminated.
  43:.\Generated_Source\PSoC5/Bootloadable_1.c ****     /* Schedule Bootloader to start after reset */
  44:.\Generated_Source\PSoC5/Bootloadable_1.c ****     Bootloadable_1_SET_RUN_TYPE(Bootloadable_1_SCHEDULE_BTLDR);
 229              		.loc 1 44 0
 230 0000 024B     		ldr	r3, .L2
 231 0002 4022     		movs	r2, #64
 232 0004 1A70     		strb	r2, [r3]
  45:.\Generated_Source\PSoC5/Bootloadable_1.c **** 
  46:.\Generated_Source\PSoC5/Bootloadable_1.c ****     CySoftwareReset();
 233              		.loc 1 46 0
 234 0006 FFF7FEBF 		b	CySoftwareReset
 235              	.LVL0:
 236              	.L3:
 237 000a 00BF     		.align	2
 238              	.L2:
 239 000c FA460040 		.word	1073759994
 240              		.cfi_endproc
 241              	.LFE0:
 242              		.size	Bootloadable_1_Load, .-Bootloadable_1_Load
 243              		.section	.text.Bootloadable_1_SetFlashByte,"ax",%progbits
 244              		.align	2
 245              		.global	Bootloadable_1_SetFlashByte
 246              		.thumb
 247              		.thumb_func
 248              		.type	Bootloadable_1_SetFlashByte, %function
 249              	Bootloadable_1_SetFlashByte:
 250              	.LFB1:
  47:.\Generated_Source\PSoC5/Bootloadable_1.c **** }
  48:.\Generated_Source\PSoC5/Bootloadable_1.c **** 
  49:.\Generated_Source\PSoC5/Bootloadable_1.c **** #if (CYDEV_PROJ_TYPE == CYDEV_PROJ_TYPE_LOADABLEANDBOOTLOADER)
  50:.\Generated_Source\PSoC5/Bootloadable_1.c **** /*******************************************************************************
  51:.\Generated_Source\PSoC5/Bootloadable_1.c **** * Function Name: Bootloadable_1_GetActiveApplication
  52:.\Generated_Source\PSoC5/Bootloadable_1.c **** ****************************************************************************//**
  53:.\Generated_Source\PSoC5/Bootloadable_1.c **** *
  54:.\Generated_Source\PSoC5/Bootloadable_1.c **** * \brief
  55:.\Generated_Source\PSoC5/Bootloadable_1.c **** *   Gets the application which will be loaded after a next reset event.
  56:.\Generated_Source\PSoC5/Bootloadable_1.c **** *   NOTE Intended for the combination project type ONLY!
  57:.\Generated_Source\PSoC5/Bootloadable_1.c **** *
  58:.\Generated_Source\PSoC5/Bootloadable_1.c **** * \return 
  59:.\Generated_Source\PSoC5/Bootloadable_1.c **** *  A number of the current active application set in the metadata section.
  60:.\Generated_Source\PSoC5/Bootloadable_1.c **** *  \n  0 - app#0 is set as active.
  61:.\Generated_Source\PSoC5/Bootloadable_1.c **** *  \n  1 - app#1 is set as active.
  62:.\Generated_Source\PSoC5/Bootloadable_1.c **** *
  63:.\Generated_Source\PSoC5/Bootloadable_1.c **** * \note If neither of the applications is set active, then the API returns 0x02.
  64:.\Generated_Source\PSoC5/Bootloadable_1.c **** *
  65:.\Generated_Source\PSoC5/Bootloadable_1.c **** *******************************************************************************/
  66:.\Generated_Source\PSoC5/Bootloadable_1.c **** uint8 Bootloadable_1_GetActiveApplication(void) CYSMALL \
  67:.\Generated_Source\PSoC5/Bootloadable_1.c ****                           
  68:.\Generated_Source\PSoC5/Bootloadable_1.c **** {   
  69:.\Generated_Source\PSoC5/Bootloadable_1.c ****     uint8 result = Bootloadable_1_MD_BTLDB_ACTIVE_NONE;
  70:.\Generated_Source\PSoC5/Bootloadable_1.c ****     
  71:.\Generated_Source\PSoC5/Bootloadable_1.c ****     if (0u != Bootloadable_1_GET_CODE_DATA( \
  72:.\Generated_Source\PSoC5/Bootloadable_1.c ****               Bootloadable_1_MD_BTLDB_ACTIVE_OFFSET(Bootloadable_1_MD_BTLDB_ACTIVE_0))) 
ARM GAS  C:\Users\Thomas\AppData\Local\Temp\ccYVaFFQ.s 			page 18


  73:.\Generated_Source\PSoC5/Bootloadable_1.c ****     {
  74:.\Generated_Source\PSoC5/Bootloadable_1.c ****         result = Bootloadable_1_MD_BTLDB_ACTIVE_0;
  75:.\Generated_Source\PSoC5/Bootloadable_1.c ****     }
  76:.\Generated_Source\PSoC5/Bootloadable_1.c ****     else if (0u != Bootloadable_1_GET_CODE_DATA( \
  77:.\Generated_Source\PSoC5/Bootloadable_1.c ****                    Bootloadable_1_MD_BTLDB_ACTIVE_OFFSET(Bootloadable_1_MD_BTLDB_ACTIVE_1)))
  78:.\Generated_Source\PSoC5/Bootloadable_1.c ****     {
  79:.\Generated_Source\PSoC5/Bootloadable_1.c ****         result = Bootloadable_1_MD_BTLDB_ACTIVE_1;    
  80:.\Generated_Source\PSoC5/Bootloadable_1.c ****     }
  81:.\Generated_Source\PSoC5/Bootloadable_1.c ****     else
  82:.\Generated_Source\PSoC5/Bootloadable_1.c ****     {
  83:.\Generated_Source\PSoC5/Bootloadable_1.c ****         /*Do nothing, result is none*/
  84:.\Generated_Source\PSoC5/Bootloadable_1.c ****     }
  85:.\Generated_Source\PSoC5/Bootloadable_1.c ****     
  86:.\Generated_Source\PSoC5/Bootloadable_1.c ****     return (result);
  87:.\Generated_Source\PSoC5/Bootloadable_1.c **** }
  88:.\Generated_Source\PSoC5/Bootloadable_1.c **** 
  89:.\Generated_Source\PSoC5/Bootloadable_1.c **** /*******************************************************************************
  90:.\Generated_Source\PSoC5/Bootloadable_1.c **** * Function Name: Bootloadable_1_SetActiveApplication
  91:.\Generated_Source\PSoC5/Bootloadable_1.c **** ****************************************************************************//**
  92:.\Generated_Source\PSoC5/Bootloadable_1.c **** *
  93:.\Generated_Source\PSoC5/Bootloadable_1.c **** * \brief 
  94:.\Generated_Source\PSoC5/Bootloadable_1.c **** *   Sets the application which will be loaded after a next reset event.          
  95:.\Generated_Source\PSoC5/Bootloadable_1.c **** *   
  96:.\Generated_Source\PSoC5/Bootloadable_1.c **** * \details
  97:.\Generated_Source\PSoC5/Bootloadable_1.c **** * Theory: 
  98:.\Generated_Source\PSoC5/Bootloadable_1.c **** *   This API sets in the Flash (metadata section) the given active application 
  99:.\Generated_Source\PSoC5/Bootloadable_1.c **** *   number.
 100:.\Generated_Source\PSoC5/Bootloadable_1.c **** *          
 101:.\Generated_Source\PSoC5/Bootloadable_1.c **** *   NOTE The active application number is not set directly, but the boolean 
 102:.\Generated_Source\PSoC5/Bootloadable_1.c **** *   mark instead means that the application is active or not for the relative 
 103:.\Generated_Source\PSoC5/Bootloadable_1.c **** *   metadata. Both metadata sections are updated. For example, if the second 
 104:.\Generated_Source\PSoC5/Bootloadable_1.c **** *   application is to be set active, then in the metadata section for the first 
 105:.\Generated_Source\PSoC5/Bootloadable_1.c **** *   application there will be a "0" written, which means that it is not active, and 
 106:.\Generated_Source\PSoC5/Bootloadable_1.c **** *   for the second metadata section there will be a "1" written, which means that it is 
 107:.\Generated_Source\PSoC5/Bootloadable_1.c **** *   active. 
 108:.\Generated_Source\PSoC5/Bootloadable_1.c **** *
 109:.\Generated_Source\PSoC5/Bootloadable_1.c **** *   NOTE Intended for the combination project type ONLY!
 110:.\Generated_Source\PSoC5/Bootloadable_1.c **** *
 111:.\Generated_Source\PSoC5/Bootloadable_1.c **** * \param appId  
 112:.\Generated_Source\PSoC5/Bootloadable_1.c **** *   The active application number to be written to flash (metadata section) 
 113:.\Generated_Source\PSoC5/Bootloadable_1.c **** *   NOTE Possible values are:
 114:.\Generated_Source\PSoC5/Bootloadable_1.c **** *   0 - for the first application
 115:.\Generated_Source\PSoC5/Bootloadable_1.c **** *   1 - for the second application.
 116:.\Generated_Source\PSoC5/Bootloadable_1.c **** *   Any other number is considered invalid. 
 117:.\Generated_Source\PSoC5/Bootloadable_1.c **** *
 118:.\Generated_Source\PSoC5/Bootloadable_1.c **** * \return 
 119:.\Generated_Source\PSoC5/Bootloadable_1.c **** *   A status of writing to flash operation.
 120:.\Generated_Source\PSoC5/Bootloadable_1.c **** *   \n CYRET_SUCCESS - Returned if appId was successfully changed. 
 121:.\Generated_Source\PSoC5/Bootloadable_1.c **** *   \n CYRET_BAD_PARAM - Returned if the parameter appID passed to the function has the 
 122:.\Generated_Source\PSoC5/Bootloadable_1.c **** *                       same value as the active application ID. 
 123:.\Generated_Source\PSoC5/Bootloadable_1.c **** *   \note - The other non-zero value is considered as a failure during writing to flash.  
 124:.\Generated_Source\PSoC5/Bootloadable_1.c **** *
 125:.\Generated_Source\PSoC5/Bootloadable_1.c **** *   \note - This API does not update Bootloader_activeApp variable.
 126:.\Generated_Source\PSoC5/Bootloadable_1.c **** *
 127:.\Generated_Source\PSoC5/Bootloadable_1.c **** *******************************************************************************/
 128:.\Generated_Source\PSoC5/Bootloadable_1.c **** cystatus Bootloadable_1_SetActiveApplication(uint8 appId) CYSMALL \
 129:.\Generated_Source\PSoC5/Bootloadable_1.c ****                 
ARM GAS  C:\Users\Thomas\AppData\Local\Temp\ccYVaFFQ.s 			page 19


 130:.\Generated_Source\PSoC5/Bootloadable_1.c **** {
 131:.\Generated_Source\PSoC5/Bootloadable_1.c ****     cystatus result = CYRET_SUCCESS;
 132:.\Generated_Source\PSoC5/Bootloadable_1.c **** 
 133:.\Generated_Source\PSoC5/Bootloadable_1.c ****     uint8 CYDATA idx;
 134:.\Generated_Source\PSoC5/Bootloadable_1.c ****     
 135:.\Generated_Source\PSoC5/Bootloadable_1.c ****     /* If invalid application number */
 136:.\Generated_Source\PSoC5/Bootloadable_1.c ****     if (appId > Bootloadable_1_MD_BTLDB_ACTIVE_1)
 137:.\Generated_Source\PSoC5/Bootloadable_1.c ****     {
 138:.\Generated_Source\PSoC5/Bootloadable_1.c ****         result = CYRET_BAD_PARAM;
 139:.\Generated_Source\PSoC5/Bootloadable_1.c ****     }
 140:.\Generated_Source\PSoC5/Bootloadable_1.c ****     else
 141:.\Generated_Source\PSoC5/Bootloadable_1.c ****     {
 142:.\Generated_Source\PSoC5/Bootloadable_1.c ****         /* If appID has same value as active application ID */
 143:.\Generated_Source\PSoC5/Bootloadable_1.c ****         if (1u == Bootloadable_1_GET_CODE_DATA(Bootloadable_1_MD_BTLDB_ACTIVE_OFFSET(appId)))
 144:.\Generated_Source\PSoC5/Bootloadable_1.c ****         {
 145:.\Generated_Source\PSoC5/Bootloadable_1.c ****             result = CYRET_BAD_PARAM;
 146:.\Generated_Source\PSoC5/Bootloadable_1.c ****         }
 147:.\Generated_Source\PSoC5/Bootloadable_1.c ****         else
 148:.\Generated_Source\PSoC5/Bootloadable_1.c ****         {
 149:.\Generated_Source\PSoC5/Bootloadable_1.c ****             /* Updating metadata section */
 150:.\Generated_Source\PSoC5/Bootloadable_1.c ****             for(idx = 0u; idx < Bootloadable_1_MAX_NUM_OF_BTLDB; idx++)
 151:.\Generated_Source\PSoC5/Bootloadable_1.c ****             {
 152:.\Generated_Source\PSoC5/Bootloadable_1.c ****                 result |= Bootloadable_1_WriteFlashByte((uint32) Bootloadable_1_MD_BTLDB_ACTIVE_OFF
 153:.\Generated_Source\PSoC5/Bootloadable_1.c ****                                                                                             (uint8)
 154:.\Generated_Source\PSoC5/Bootloadable_1.c ****             }
 155:.\Generated_Source\PSoC5/Bootloadable_1.c ****         }
 156:.\Generated_Source\PSoC5/Bootloadable_1.c ****     }
 157:.\Generated_Source\PSoC5/Bootloadable_1.c ****     
 158:.\Generated_Source\PSoC5/Bootloadable_1.c ****     return (result);
 159:.\Generated_Source\PSoC5/Bootloadable_1.c **** }
 160:.\Generated_Source\PSoC5/Bootloadable_1.c **** 
 161:.\Generated_Source\PSoC5/Bootloadable_1.c **** /*******************************************************************************
 162:.\Generated_Source\PSoC5/Bootloadable_1.c **** * Function Name: Bootloadable_1_WriteFlashByte
 163:.\Generated_Source\PSoC5/Bootloadable_1.c **** ****************************************************************************//**
 164:.\Generated_Source\PSoC5/Bootloadable_1.c **** *
 165:.\Generated_Source\PSoC5/Bootloadable_1.c **** * \brief 
 166:.\Generated_Source\PSoC5/Bootloadable_1.c **** *   This API writes to flash the specified data.
 167:.\Generated_Source\PSoC5/Bootloadable_1.c **** *
 168:.\Generated_Source\PSoC5/Bootloadable_1.c **** * \param address 
 169:.\Generated_Source\PSoC5/Bootloadable_1.c **** *   The address in flash.
 170:.\Generated_Source\PSoC5/Bootloadable_1.c **** *
 171:.\Generated_Source\PSoC5/Bootloadable_1.c **** * \param inputValue 
 172:.\Generated_Source\PSoC5/Bootloadable_1.c **** *   One-byte data.
 173:.\Generated_Source\PSoC5/Bootloadable_1.c **** *
 174:.\Generated_Source\PSoC5/Bootloadable_1.c **** * \return 
 175:.\Generated_Source\PSoC5/Bootloadable_1.c **** *   A status of the writing to flash procedure.
 176:.\Generated_Source\PSoC5/Bootloadable_1.c **** *
 177:.\Generated_Source\PSoC5/Bootloadable_1.c **** *******************************************************************************/
 178:.\Generated_Source\PSoC5/Bootloadable_1.c **** static cystatus Bootloadable_1_WriteFlashByte(const uint32 address, const uint8 inputValue) CYLARGE
 179:.\Generated_Source\PSoC5/Bootloadable_1.c ****                                
 180:.\Generated_Source\PSoC5/Bootloadable_1.c **** {
 181:.\Generated_Source\PSoC5/Bootloadable_1.c ****     cystatus result = CYRET_SUCCESS;
 182:.\Generated_Source\PSoC5/Bootloadable_1.c ****     uint32 flsAddr = address - CYDEV_FLASH_BASE;
 183:.\Generated_Source\PSoC5/Bootloadable_1.c ****     uint8  rowData[CYDEV_FLS_ROW_SIZE];
 184:.\Generated_Source\PSoC5/Bootloadable_1.c **** 
 185:.\Generated_Source\PSoC5/Bootloadable_1.c ****     #if !(CY_PSOC4)
 186:.\Generated_Source\PSoC5/Bootloadable_1.c ****         uint8 arrayId = ( uint8 )(flsAddr / CYDEV_FLS_SECTOR_SIZE);
ARM GAS  C:\Users\Thomas\AppData\Local\Temp\ccYVaFFQ.s 			page 20


 187:.\Generated_Source\PSoC5/Bootloadable_1.c ****     #endif  /* !(CY_PSOC4) */
 188:.\Generated_Source\PSoC5/Bootloadable_1.c **** 
 189:.\Generated_Source\PSoC5/Bootloadable_1.c ****     #if (CY_PSOC4)
 190:.\Generated_Source\PSoC5/Bootloadable_1.c ****         uint16 rowNum = ( uint16 )(flsAddr / CYDEV_FLS_ROW_SIZE);
 191:.\Generated_Source\PSoC5/Bootloadable_1.c ****     #else
 192:.\Generated_Source\PSoC5/Bootloadable_1.c ****         uint16 rowNum = ( uint16 )((flsAddr % CYDEV_FLS_SECTOR_SIZE) / CYDEV_FLS_ROW_SIZE);
 193:.\Generated_Source\PSoC5/Bootloadable_1.c ****     #endif  /* (CY_PSOC4) */
 194:.\Generated_Source\PSoC5/Bootloadable_1.c **** 
 195:.\Generated_Source\PSoC5/Bootloadable_1.c ****     uint32 baseAddr = address - (address % CYDEV_FLS_ROW_SIZE);
 196:.\Generated_Source\PSoC5/Bootloadable_1.c ****     uint16 idx;
 197:.\Generated_Source\PSoC5/Bootloadable_1.c **** 
 198:.\Generated_Source\PSoC5/Bootloadable_1.c ****     for(idx = 0u; idx < CYDEV_FLS_ROW_SIZE; idx++)
 199:.\Generated_Source\PSoC5/Bootloadable_1.c ****     {
 200:.\Generated_Source\PSoC5/Bootloadable_1.c ****         rowData[idx] = (uint8)Bootloadable_1_GET_CODE_DATA(baseAddr + idx);
 201:.\Generated_Source\PSoC5/Bootloadable_1.c ****     }
 202:.\Generated_Source\PSoC5/Bootloadable_1.c **** 
 203:.\Generated_Source\PSoC5/Bootloadable_1.c ****     rowData[address % CYDEV_FLS_ROW_SIZE] = inputValue;
 204:.\Generated_Source\PSoC5/Bootloadable_1.c **** 
 205:.\Generated_Source\PSoC5/Bootloadable_1.c ****     #if(CY_PSOC4)
 206:.\Generated_Source\PSoC5/Bootloadable_1.c ****         result = CySysFlashWriteRow((uint32) rowNum, rowData);
 207:.\Generated_Source\PSoC5/Bootloadable_1.c ****     #else
 208:.\Generated_Source\PSoC5/Bootloadable_1.c ****         result = CyWriteRowData(arrayId, rowNum, rowData);
 209:.\Generated_Source\PSoC5/Bootloadable_1.c ****     #endif  /* (CY_PSOC4) */
 210:.\Generated_Source\PSoC5/Bootloadable_1.c **** 
 211:.\Generated_Source\PSoC5/Bootloadable_1.c ****     #if(CY_PSOC5)
 212:.\Generated_Source\PSoC5/Bootloadable_1.c ****         /***************************************************************************
 213:.\Generated_Source\PSoC5/Bootloadable_1.c ****         * When writing to flash, data in the instruction cache can become stale.
 214:.\Generated_Source\PSoC5/Bootloadable_1.c ****         * Therefore, the cache data does not correlate to the data just written to
 215:.\Generated_Source\PSoC5/Bootloadable_1.c ****         * flash. A call to CyFlushCache() is required to invalidate the data in the
 216:.\Generated_Source\PSoC5/Bootloadable_1.c ****         * cache and force fresh information to be loaded from flash.
 217:.\Generated_Source\PSoC5/Bootloadable_1.c ****         ***************************************************************************/
 218:.\Generated_Source\PSoC5/Bootloadable_1.c ****         CyFlushCache();
 219:.\Generated_Source\PSoC5/Bootloadable_1.c ****     #endif /* (CY_PSOC5) */
 220:.\Generated_Source\PSoC5/Bootloadable_1.c ****     return (result);
 221:.\Generated_Source\PSoC5/Bootloadable_1.c **** }
 222:.\Generated_Source\PSoC5/Bootloadable_1.c **** #endif /*(CYDEV_PROJ_TYPE == CYDEV_PROJ_TYPE_LOADABLEANDBOOTLOADER)*/
 223:.\Generated_Source\PSoC5/Bootloadable_1.c **** /** @} functions_group */
 224:.\Generated_Source\PSoC5/Bootloadable_1.c **** 
 225:.\Generated_Source\PSoC5/Bootloadable_1.c **** /*******************************************************************************
 226:.\Generated_Source\PSoC5/Bootloadable_1.c **** * The following code is OBSOLETE and must not be used.
 227:.\Generated_Source\PSoC5/Bootloadable_1.c **** *******************************************************************************/
 228:.\Generated_Source\PSoC5/Bootloadable_1.c **** void Bootloadable_1_SetFlashByte(uint32 address, uint8 runType) 
 229:.\Generated_Source\PSoC5/Bootloadable_1.c **** {
 251              		.loc 1 229 0
 252              		.cfi_startproc
 253              		@ args = 0, pretend = 0, frame = 256
 254              		@ frame_needed = 0, uses_anonymous_args = 0
 255              	.LVL1:
 256 0000 30B5     		push	{r4, r5, lr}
 257              		.cfi_def_cfa_offset 12
 258              		.cfi_offset 4, -12
 259              		.cfi_offset 5, -8
 260              		.cfi_offset 14, -4
 261 0002 0446     		mov	r4, r0
 262              	.LVL2:
 263 0004 0D46     		mov	r5, r1
 264 0006 C1B0     		sub	sp, sp, #260
ARM GAS  C:\Users\Thomas\AppData\Local\Temp\ccYVaFFQ.s 			page 21


 265              		.cfi_def_cfa_offset 272
 266 0008 20F0FF01 		bic	r1, r0, #255
 267              	.LVL3:
 268 000c 4FF48072 		mov	r2, #256
 269 0010 6846     		mov	r0, sp
 270              	.LVL4:
 271 0012 FFF7FEFF 		bl	memmove
 272              	.LVL5:
 230:.\Generated_Source\PSoC5/Bootloadable_1.c ****     uint32 flsAddr = address - CYDEV_FLASH_BASE;
 231:.\Generated_Source\PSoC5/Bootloadable_1.c ****     uint8  rowData[CYDEV_FLS_ROW_SIZE];
 232:.\Generated_Source\PSoC5/Bootloadable_1.c **** 
 233:.\Generated_Source\PSoC5/Bootloadable_1.c ****     #if !(CY_PSOC4)
 234:.\Generated_Source\PSoC5/Bootloadable_1.c ****         uint8 arrayId = ( uint8 )(flsAddr / CYDEV_FLS_SECTOR_SIZE);
 235:.\Generated_Source\PSoC5/Bootloadable_1.c ****     #endif  /* !(CY_PSOC4) */
 236:.\Generated_Source\PSoC5/Bootloadable_1.c **** 
 237:.\Generated_Source\PSoC5/Bootloadable_1.c ****     #if (CY_PSOC4)
 238:.\Generated_Source\PSoC5/Bootloadable_1.c ****         uint16 rowNum = ( uint16 )(flsAddr / CYDEV_FLS_ROW_SIZE);
 239:.\Generated_Source\PSoC5/Bootloadable_1.c ****     #else
 240:.\Generated_Source\PSoC5/Bootloadable_1.c ****         uint16 rowNum = ( uint16 )((flsAddr % CYDEV_FLS_SECTOR_SIZE) / CYDEV_FLS_ROW_SIZE);
 241:.\Generated_Source\PSoC5/Bootloadable_1.c ****     #endif  /* (CY_PSOC4) */
 242:.\Generated_Source\PSoC5/Bootloadable_1.c **** 
 243:.\Generated_Source\PSoC5/Bootloadable_1.c ****     uint32 baseAddr = address - (address % CYDEV_FLS_ROW_SIZE);
 244:.\Generated_Source\PSoC5/Bootloadable_1.c ****     uint16 idx;
 245:.\Generated_Source\PSoC5/Bootloadable_1.c **** 
 246:.\Generated_Source\PSoC5/Bootloadable_1.c **** 
 247:.\Generated_Source\PSoC5/Bootloadable_1.c ****     for (idx = 0u; idx < CYDEV_FLS_ROW_SIZE; idx++)
 248:.\Generated_Source\PSoC5/Bootloadable_1.c ****     {
 249:.\Generated_Source\PSoC5/Bootloadable_1.c ****         rowData[idx] = Bootloadable_1_GET_CODE_DATA(baseAddr + idx);
 250:.\Generated_Source\PSoC5/Bootloadable_1.c ****     }
 251:.\Generated_Source\PSoC5/Bootloadable_1.c ****     rowData[address % CYDEV_FLS_ROW_SIZE] = runType;
 273              		.loc 1 251 0
 274 0016 E3B2     		uxtb	r3, r4
 252:.\Generated_Source\PSoC5/Bootloadable_1.c **** 
 253:.\Generated_Source\PSoC5/Bootloadable_1.c ****     #if(CY_PSOC4)
 254:.\Generated_Source\PSoC5/Bootloadable_1.c ****         (void) CySysFlashWriteRow((uint32) rowNum, rowData);
 255:.\Generated_Source\PSoC5/Bootloadable_1.c ****     #else
 256:.\Generated_Source\PSoC5/Bootloadable_1.c ****         (void) CyWriteRowData(arrayId, rowNum, rowData);
 275              		.loc 1 256 0
 276 0018 6A46     		mov	r2, sp
 277 001a C4F30721 		ubfx	r1, r4, #8, #8
 278 001e C4F30740 		ubfx	r0, r4, #16, #8
 251:.\Generated_Source\PSoC5/Bootloadable_1.c **** 
 279              		.loc 1 251 0
 280 0022 0DF80350 		strb	r5, [sp, r3]
 281              		.loc 1 256 0
 282 0026 FFF7FEFF 		bl	CyWriteRowData
 283              	.LVL6:
 257:.\Generated_Source\PSoC5/Bootloadable_1.c ****     #endif  /* (CY_PSOC4) */
 258:.\Generated_Source\PSoC5/Bootloadable_1.c **** 
 259:.\Generated_Source\PSoC5/Bootloadable_1.c ****     #if(CY_PSOC5)
 260:.\Generated_Source\PSoC5/Bootloadable_1.c ****         /***************************************************************************
 261:.\Generated_Source\PSoC5/Bootloadable_1.c ****         * When writing to flash, data in the instruction cache can become obsolete.
 262:.\Generated_Source\PSoC5/Bootloadable_1.c ****         * Therefore, the cache data does not correlate to the data just written to
 263:.\Generated_Source\PSoC5/Bootloadable_1.c ****         * flash. A call to CyFlushCache() is required to invalidate the data in the
 264:.\Generated_Source\PSoC5/Bootloadable_1.c ****         * cache and force fresh information to be loaded from flash.
 265:.\Generated_Source\PSoC5/Bootloadable_1.c ****         ***************************************************************************/
 266:.\Generated_Source\PSoC5/Bootloadable_1.c ****         CyFlushCache();
ARM GAS  C:\Users\Thomas\AppData\Local\Temp\ccYVaFFQ.s 			page 22


 284              		.loc 1 266 0
 285 002a FFF7FEFF 		bl	CyFlushCache
 286              	.LVL7:
 267:.\Generated_Source\PSoC5/Bootloadable_1.c ****     #endif /* (CY_PSOC5) */
 268:.\Generated_Source\PSoC5/Bootloadable_1.c **** }
 287              		.loc 1 268 0
 288 002e 41B0     		add	sp, sp, #260
 289              		.cfi_def_cfa_offset 12
 290              		@ sp needed
 291 0030 30BD     		pop	{r4, r5, pc}
 292              		.cfi_endproc
 293              	.LFE1:
 294              		.size	Bootloadable_1_SetFlashByte, .-Bootloadable_1_SetFlashByte
 295 0032 00BF     		.text
 296              	.Letext0:
 297              		.file 2 ".\\Generated_Source\\PSoC5\\cytypes.h"
 298              		.file 3 ".\\Generated_Source\\PSoC5\\CyLib.h"
 299              		.file 4 "<built-in>"
 300              		.file 5 ".\\Generated_Source\\PSoC5\\CyFlash.h"