ARM GAS  C:\Users\Thomas\AppData\Local\Temp\ccB6mzKJ.s 			page 1


   1              		.syntax unified
   2              		.cpu cortex-m3
   3              		.fpu softvfp
   4              		.eabi_attribute 20, 1
   5              		.eabi_attribute 21, 1
   6              		.eabi_attribute 23, 3
   7              		.eabi_attribute 24, 1
   8              		.eabi_attribute 25, 1
   9              		.eabi_attribute 26, 1
  10              		.eabi_attribute 30, 2
  11              		.eabi_attribute 34, 1
  12              		.eabi_attribute 18, 4
  13              		.thumb
  14              		.file	"ConsolePort_1_DataReg_PM.c"
  15              		.text
  16              	.Ltext0:
  17              		.section	.gnu.lto_.profile.bd610d33,"",%progbits
  18 0000 789C6366 		.ascii	"x\234cf```a\200\000F\006cY\000\000\367\000Y"
  18      60606061 
  18      80004606 
  18      63590000 
  18      F70059
  19              		.text
  20              		.section	.gnu.lto_.jmpfuncs.bd610d33,"",%progbits
  21 0000 789C6366 		.ascii	"x\234cf\300\016\004\2404\013\0203100C\231\014\000\002"
  21      C00E04A0 
  21      340B1033 
  21      31303043 
  21      990C0002 
  22 0014 C70021   		.ascii	"\307\000!"
  23              		.text
  24              		.section	.gnu.lto_.inline.bd610d33,"",%progbits
  25 0000 789C6366 		.ascii	"x\234cf\300\016\"\2404\013\003\003;\033#\003\023\307"
  25      C00E22A0 
  25      340B0303 
  25      3B1B2303 
  25      13C7
  26 0012 013B06B6 		.ascii	"\001;\006\266\005\362L 1&L!f\006\036\021\240\220@C-"
  26      05F24C20 
  26      31264C21 
  26      66061E11 
  26      A0904043 
  27 0027 5C88910B 		.ascii	"\\\210\221\013\254\235\233\027(\316\267!\027U\234\001"
  27      AC9D9B17 
  27      28CEB721 
  27      17559C01 
  28 0037 00917408 		.ascii	"\000\221t\010="
  28      3D
  29              		.text
  30              		.section	.gnu.lto_.pureconst.bd610d33,"",%progbits
  31 0000 789C6366 		.ascii	"x\234cf``\340d\200\000\026\006)&)f)\026)\000\002\321"
  31      6060E064 
  31      80001606 
  31      29262966 
  31      29162900 
  32 0016 0082     		.ascii	"\000\202"
  33              		.text
ARM GAS  C:\Users\Thomas\AppData\Local\Temp\ccB6mzKJ.s 			page 2


  34              		.section	.gnu.lto_ConsolePort_1_DataReg_SaveConfig.bd610d33,"",%progbits
  35 0000 789C8D91 		.ascii	"x\234\215\221\337+da\030\307\237\3573\307iJ$\227\376"
  35      DF2B6461 
  35      18C79FEF 
  35      33C7694A 
  35      2497FE
  36 0013 015794C2 		.ascii	"\001W\224\302?@m.\324\304\355\3244qr\26395\306\245\234"
  36      3F406D2E 
  36      D4C4EDD4 
  36      347172B3 
  36      3935C6A5 
  37 0028 A349A290 		.ascii	"\243I\242\220\254\204Q\344\307\330\031\354\332\335\213"
  37      AC8451E4 
  37      C7D819EC 
  37      DADD8B
  38 0037 BD50874B 		.ascii	"\275P\207K\205\344B\271\330mk\0247\362\243F'a\237\347"
  38      85E442B9 
  38      D86D6B14 
  38      37F2A346 
  38      27619FE7 
  39 004b C8922D39 		.ascii	"\310\222-9\365\236\367\274\357\363}\277\317\347\373"
  39      F59EF7BC 
  39      EFF37DBF 
  39      CFE7FB
  40 005a 9E10FDFF 		.ascii	"\236\020\375\377T\3108\005Q\275\314\010\021xt\217\310"
  40      54C83805 
  40      51BDCC08 
  40      1178748F 
  40      C8
  41 006b 0D33A01F 		.ascii	"\0153\240\037\004\352e\364\342\214/\031\243^v\262\270"
  41      04EA65F4 
  41      E28C2F19 
  41      A35E76B2 
  41      B8
  42 007c 72D1719C 		.ascii	"r\321q\234\213\371]7\342\301g\242k~\364\3012*ID\227"
  42      8BF95D37 
  42      E2C167A2 
  42      6B7EF4C1 
  42      322A4944 
  43 0091 A9BBA362 		.ascii	"\251\273\243b3%\242\262\307\03220\305\237\326\313=\347"
  43      3325A2B2 
  43      C71A3230 
  43      C59FD6CB 
  43      3DE7
  44 00a3 E1E1FAC7 		.ascii	"\341\341\372\307V\001&\223\3170\364E\224\027\221\266"
  44      56012693 
  44      CF30F445 
  44      941791B6 
  45 00b3 3A61D639 		.ascii	":a\3269t\214\355\302\340\371R\211\236\273a\355;1t\365"
  45      748CEDC2 
  45      E0F95289 
  45      9EBB61ED 
  45      3B3174F5 
  46 00c7 B3E4947D 		.ascii	"\263\344\224}\346\201\035\3271\264\313\357\374\376A"
  46      E6811DD7 
  46      31B4CBEF 
  46      FCFE41
ARM GAS  C:\Users\Thomas\AppData\Local\Temp\ccB6mzKJ.s 			page 3


  47 00d6 38D8225D 		.ascii	"8\330\"]\216\377Y\350/Mc\332M\011S\010+\250\300gH2d"
  47      8EFF59E8 
  47      2F4D63DA 
  47      4D095308 
  47      2BA8C067 
  48 00ed 91061DA3 		.ascii	"\221\006\035\243ol\256V\375D:{8\274\306=\267\316\200"
  48      6F6CAE56 
  48      FD443A7B 
  48      38BCC63D 
  48      B7CE80
  49 0100 13F6D9B8 		.ascii	"\023\366\331\270S\302\227~F\260\314\270\251\031\250"
  49      53C2977E 
  49      46B0CCB8 
  49      A919A8
  50 010f 9FA3AA22 		.ascii	"\237\243\252\"\344\320\203U5\224\332}nd\303\254\312"
  50      E4D08355 
  50      3594DA7D 
  50      6E64C3AC 
  50      CA
  51 0120 4A40AFC9 		.ascii	"J@\257\311g\023k\"\274\012.\001\353\250\022b\012\022"
  51      67136B22 
  51      BC0A2E01 
  51      EBA81262 
  51      0A12
  52 0132 149E1218 		.ascii	"\024\236\022\030r&=5\273k\004\270\223O\011F\3727?\231"
  52      72263D35 
  52      BB6B04B8 
  52      934F0946 
  52      FA373F99 
  53 0146 CFC85FFE 		.ascii	"\317\310_\376!\177}'\362k\306\2157\030\277\005\214\372"
  53      217F7D27 
  53      F26BC68D 
  53      3718BF05 
  53      8CFA
  54 0158 17F05D19 		.ascii	"\027\360]\031\015\372\005\327\273)\322\006J\236\227"
  54      0DFA05D7 
  54      BB29D206 
  54      4A9E97
  55 0167 9ADCBD38 		.ascii	"\232\334\2758\327VG?X\235V\"\236\264\332c\255vw\242"
  55      D756473F 
  55      589D5622 
  55      9EB4DA63 
  55      AD7677A2 
  56 017b CD8A465A 		.ascii	"\315\212FZ\355\206\272h\203\335\331e\177\264\"v\"\031"
  56      ED86BA68 
  56      83DDD965 
  56      7FB42276 
  56      2219
  57 018d AB8935C6 		.ascii	"\253\2115\306\223\361\026\253#\026i\256n\243\277\236"
  57      93F116AB 
  57      231669AE 
  57      6EA3BF9E 
  58 019d C1C18C   		.ascii	"\301\301\214"
  59              		.text
  60              		.section	.gnu.lto_ConsolePort_1_DataReg_RestoreConfig.bd610d33,"",%progbits
  61 0000 789C7590 		.ascii	"x\234u\220\335+Ca\034\307\177\337\337\216\323j\221\\"
  61      DD2B4361 
ARM GAS  C:\Users\Thomas\AppData\Local\Temp\ccB6mzKJ.s 			page 4


  61      1CC77FDF 
  61      DF8ED36A 
  61      915C
  62 0012 69FFC02E 		.ascii	"i\377\300.\326V\012\377\000q\245\206\333\325Zsr#\247"
  62      D6560AFF 
  62      0071A586 
  62      DBD55A73 
  62      7223A7
  63 0025 662EE51C 		.ascii	"f.\345\034\215\224\362\026\222\267+26\363\232r\241\326"
  63      8D94F216 
  63      92B72B32 
  63      36F39A72 
  63      A1D6
  64 0037 2E954994 		.ascii	".\225I\224\242HMqg\\\350$/\317s\026\362\366\324\363"
  64      A2484D71 
  64      675CE824 
  64      2FCF7316 
  64      F2F6D4F3 
  65 004b FAFB3EDF 		.ascii	"\372\373>\337\357\347y\034\364\273\271E?\007Q\255\230"
  65      EFE7791C 
  65      F4BBB945 
  65      3F0751AD 
  65      98
  66 005c E120F068 		.ascii	"\341 \360h\216\310t2 \027\004\352e\364\342\216\013\214"
  66      8EC87432 
  66      201704EA 
  66      65F4E28E 
  66      0B8C
  67 006e D14C72DA 		.ascii	"\321Lr\332\345Y2\014\343>\273]\331_i1\321#\027m\260"
  67      E559320C 
  67      E33EBB5D 
  67      D95F6931 
  67      D123176D 
  68 0083 0C0F094D 		.ascii	"\014\017\011M!\376r\346R\343BS^\254!\001U\330\323zE"
  68      21FE72E6 
  68      52E34253 
  68      5EAC2101 
  68      55D8D37A 
  69 0098 C6787B7B 		.ascii	"\306x{{\314\215%\274P\231,\206\"\007\242\274P\311\250"
  69      CC8D25BC 
  69      50992C86 
  69      2207A2BC 
  69      50C9A8
  70 00ab 1B66393B 		.ascii	"\033f9;\316\321\267[8j\226\367\236X\306.\234\014\247"
  70      CED1B75B 
  70      386A96F7 
  70      9E58C62E 
  70      9C0CA7
  71 00be B9E7D918 		.ascii	"\271\347\331\0304\234\026\363\2134\025\247W\371\243"
  71      349C16F3 
  71      8B3415A7 
  71      57F9A3
  72 00cd 63E72D8B 		.ascii	"c\347-\213\023{\2330\343s\230\307\254iH\225\003+\350"
  72      137B9B30 
  72      E37398C7 
  72      AC694895 
  72      032BE8
ARM GAS  C:\Users\Thomas\AppData\Local\Temp\ccB6mzKJ.s 			page 5


  73 00e0 C12ADC76 		.ascii	"\301*\334v\35555\262\245\372\274\026+H\012\315\203\215"
  73      ED3535B2 
  73      A5FABC16 
  73      2B480ACD 
  73      838D
  74 00f2 8C147CE2 		.ascii	"\214\024|\342\341\331q\310$\241\232\032z\330+\225\206"
  74      E1D971C8 
  74      24A19A1A 
  74      7AD82B95 
  74      86
  75 0103 258307A6 		.ascii	"%\203\007\246\241|\313(\261}&\256\027\007\312dF\034"
  75      A17CCB28 
  75      B17D26AE 
  75      1707CA64 
  75      461C
  76 0115 16AB5883 		.ascii	"\026\253X\203\033i\031\201u\341*XI\242\217\235\242\210"
  76      1B691981 
  76      75E12A58 
  76      49A28F9D 
  76      A288
  77 0127 AEFC8BFE 		.ascii	"\256\374\213\376\223u\343o\326M\233U\376\035\266~\260"
  77      9375E36F 
  77      D64D9B55 
  77      FE1DB67E 
  77      B0
  78 0138 CECF2C1C 		.ascii	"\316\317,\034*6\330\364\007\353\310\300\376\244\372"
  78      2A36D8F4 
  78      07EBC8C0 
  78      FEA4FA
  79 0147 05B7FD09 		.ascii	"\005\267\375\011\267c\303)t\0113s\321 \015\344\363\363"
  79      B763C329 
  79      74093373 
  79      D1200DE4 
  79      F3F3
  80 0159 C258FCB6 		.ascii	"\302X\374\266 \252\366\007\033\265N-\032\216im\241V"
  80      20AAF607 
  80      1BB54E2D 
  80      1A8E696D 
  80      A156
  81 016b BD3B1AD1 		.ascii	"\275;\032\321\202\201V\275\256&X\247wv\351\035Z@\217"
  81      828156BD 
  81      AE2658A7 
  81      7776E91D 
  81      5A408F
  82 017e C64255A1 		.ascii	"\306BU\241\372p,\334\242\265\207\002M\376\010\275\003"
  82      FA702CDC 
  82      A2B58702 
  82      4DFE08BD 
  82      03
  83 018f DCD5B773 		.ascii	"\334\325\267s"
  84              		.text
  85              		.section	.gnu.lto_ConsolePort_1_DataReg_Sleep.bd610d33,"",%progbits
  86 0000 789C9592 		.ascii	"x\234\225\222\337KSa\030\307\237\347=\333\331/G\321"
  86      DF4B5361 
  86      18C79FE7 
  86      3DDBD92F 
  86      47D1
ARM GAS  C:\Users\Thomas\AppData\Local\Temp\ccB6mzKJ.s 			page 6


  87 0012 95F80F78 		.ascii	"\225\370\017x\245\021X\375\001\006\322E0\362v0\206\035"
  87      A51158FD 
  87      0106D245 
  87      30F27630 
  87      861D
  88 0024 0A0A076B 		.ascii	"\012\012\007k]\016\317\321E\222Q\266BV6a\027-m\246\265"
  88      5D0ECFD1 
  88      459251B6 
  88      42563661 
  88      172D6DA6 
  89 0039 D9CA9679 		.ascii	"\331\312\226y\350f\020YD\027\205\304\2020X\027E\333"
  89      E8661059 
  89      441785C4 
  89      82305817 
  89      45DB
  90 004b C03A88D9 		.ascii	"\300:\210\331\363\274G\303&\006\0358\357\317\357\373"
  90      F3BC47C3 
  90      26061D38 
  90      EFCFEFFB 
  91 005b 3C9FF7FB 		.ascii	"<\237\367\373\274\012\354\374\332\350?\255\000\034\242"
  91      BC0AECFC 
  91      DAE83FAD 
  91      001CA2
  92 006a 1E154031 		.ascii	"\036\025@1\372\012\300p\013D\036\000\302\200\300\001"
  92      FA0AC070 
  92      0B441E00 
  92      C280C001 
  93 007a FC226A02 		.ascii	"\374\"j\002G\315\\\312\327~[\327\365\357\311R\353\371"
  93      47CD5CCA 
  93      D77E5BD7 
  93      F5EFC952 
  93      EBF9
  94 008c 564B0034 		.ascii	"VK\0004\204\035\006\357`;\220\246\226X\177\347S\023"
  94      841D06EF 
  94      603B90A6 
  94      96587FE7 
  94      5313
  95 009e A4D96BEF 		.ascii	"\244\331k\357\341$\252H\375\354>S\337\330(|\275Z=\214"
  95      E124AA48 
  95      FDEC3E53 
  95      DFD8287C 
  95      BD5A3D8C 
  96 00b2 2D0896A0 		.ascii	"-\010\226\240d\3248\250\021N\036y\250Q\274\334\000\254"
  96      64D438A8 
  96      114E1E79 
  96      A851BCDC 
  96      00AC
  97 00c4 D0494EFF 		.ascii	"\320IN\377Y\010\356\225e|\276z\261\222\256#G\373!\024"
  97      5908EE95 
  97      657CBE7A 
  97      B192AE23 
  97      47FB2114 
  98 00d8 4A9449AD 		.ascii	"J\224I\255\335pV\205%\034\326\013Cwp\356\217+\257\337"
  98      DD705685 
  98      251CD60B 
  98      437770EE 
  98      8F2BAFDF 
ARM GAS  C:\Users\Thomas\AppData\Local\Temp\ccB6mzKJ.s 			page 7


  99 00ec B8E512F0 		.ascii	"\270\345\022\360\264\\/\026D\032\307\215\004Z\302\211"
  99      B45C2F16 
  99      441AC78D 
  99      045AC289 
 100 00fc 53D88677 		.ascii	"S\330\206w\221\256\2139L#,\343\320O\325\016\207v\304"
 100      91AE8B39 
 100      4C232CE3 
 100      D04FD50E 
 100      8776C4
 101 010f 72BA9A77 		.ascii	"r\272\232w\360qD\300iR\222$\177\341\345\246\310A:\022"
 101      F07144C0 
 101      69529224 
 101      7FE1E5A6 
 101      C8413A12 
 102 0123 19D9D225 		.ascii	"\031\331\322%\227\024Q\240{R4Xq\331\022'\251x\236\314"
 102      971451A0 
 102      7B523458 
 102      71D91227 
 102      A9789ECC 
 103 0137 ECE70552 		.ascii	"\354\347\005RO\274\275<#\342k\372\260\356\266\204\272"
 103      4FBCBD3C 
 103      23E26BFA 
 103      B0EEB684 
 103      BA
 104 0148 CE7E6CE7 		.ascii	"\316~l\347T\345t\322H\334B\346\324Y\345\302\031\214"
 104      54E574D2 
 104      48DC42E6 
 104      D459E5C2 
 104      198C
 105 015a E32C83D2 		.ascii	"\343,\203\322\336\257\351+y\265#Gv\232G-\341\306\373"
 105      DEAFE92B 
 105      79B52347 
 105      769A472D 
 105      E1C6FB
 106 016d 24AC4BCB 		.ascii	"$\254K\313\361\001vPJ\370\200Cf\251,8!4g\3644$f\036"
 106      F1017650 
 106      4AF88043 
 106      66A92C38 
 106      213467F4 
 107 0185 E364AB17 		.ascii	"\343d\253\027\244\213\337\262\376\277\312d.\224\205"
 107      A48BDFB2 
 107      FEBFCA64 
 107      2E9485
 108 0194 2C5283BC 		.ascii	",R\203\274n* \026((\340\034_\316C{c#\365y?\203\373\206"
 108      6E2A2016 
 108      2828E01C 
 108      5FCE437B 
 108      6323F579 
 109 01ac 7778EE93 		.ascii	"wx\356\223\274\327\306\247\306<|\227\353\006\345o\301"
 109      BCD7C6A7 
 109      C63C7C97 
 109      EB06E56F 
 109      C1
 110 01bd 87647A51 		.ascii	"\207dzQ\232\376\3106}0Y+\236\342\210\273\272\323l\307"
 110      9AFEC836 
 110      7D30592B 
 110      9EE288BB 
ARM GAS  C:\Users\Thomas\AppData\Local\Temp\ccB6mzKJ.s 			page 8


 110      BAD36CC7 
 111 01d1 E35DEDF0 		.ascii	"\343]\355\360\343\274\264\003mP|\302\216x\354k\256f"
 111      E3BCB403 
 111      6D507CC2 
 111      8E78EC6B 
 111      AE66
 112 01e3 FD36B797 		.ascii	"\3756\267\227\216\245oN,\311\312\372R[\334K\237\336"
 112      8EA56F4E 
 112      2CC9CAFA 
 112      525BDC4B 
 112      9FDE
 113 01f5 CFEDD906 		.ascii	"\317\355\331\006Z\372\003\372t\0134\323\365_\234\013"
 113      5AFA03FA 
 113      740B34D3 
 113      F55F9C0B 
 114 0205 FFE07C26 		.ascii	"\377\340|&9\305&\347\"sz\241\202\206\271\330#\013\007"
 114      39C526E7 
 114      22737AA1 
 114      8286B9D8 
 114      230B07
 115 0218 FCE4919F 		.ascii	"\374\344\221\237:\005\357\352\014\366h\375Z4\034\323"
 115      3A05EFEA 
 115      0CF668FD 
 115      5A341CD3 
 116 0228 4E847A23 		.ascii	"N\204z#\347\242}Z0\320\033\351>\030\354\216\364\237"
 116      E7A27D5A 
 116      30D01BE9 
 116      3E18EC8E 
 116      F49F
 117 023a 8D9CD102 		.ascii	"\215\234\321\002\221h,t t$\034\013\037\327N\206\002"
 117      91682C74 
 117      2074241C 
 117      0B1FD74E 
 117      8602
 118 024c C73AFBE0 		.ascii	"\307:\373\3407\215\363H\276"
 118      378DF348 
 118      BE
 119              		.text
 120              		.section	.gnu.lto_ConsolePort_1_DataReg_Wakeup.bd610d33,"",%progbits
 121 0000 789C8D92 		.ascii	"x\234\215\222\335K\024Q\030\306\337\347\3148\263\037"
 121      DD4B1451 
 121      18C6DFE7 
 121      CC38B31F 
 122 0010 46D19578 		.ascii	"F\321\225x\261\227y\021\032\321\307?`\020\004\301\226"
 122      B1977911 
 122      1AD1C73F 
 122      601004C1 
 122      96
 123 0021 B70BCB62 		.ascii	"\267\013\313bC7\341\300\266].\236\321\015\026\2142\023"
 123      4337E1C0 
 123      B65D2E9E 
 123      D10D168C 
 123      3213
 124 0033 916C2D82 		.ascii	"\221l-\202J[\323\326\314r\275\031\"\272\020L\244\357"
 124      4A5BD3D6 
 124      CC72BD19 
 124      22BA104C 
ARM GAS  C:\Users\Thomas\AppData\Local\Temp\ccB6mzKJ.s 			page 9


 124      A4EF
 125 0045 250AC2A0 		.ascii	"%\012\302\240\356Z\367B\2260{\317\331\276\\\013\032"
 125      EE5AF742 
 125      96307BCF 
 125      D9BE5C0B 
 125      1A
 126 0056 3873E6BC 		.ascii	"8s\346\274\3479\317\363;\314k\320\326g\037\217\222 "
 126      E739CFF3 
 126      3BCC6BD0 
 126      D6671F8F 
 126      9220
 127 0068 3AC8331A 		.ascii	":\3103\032\010\242\377)\221\027\020\302(FH\206\314\227"
 127      08A2FF29 
 127      911710C2 
 127      28464886 
 127      CC97
 128 007a 7B48361A 		.ascii	"{H6\0320ke\023P\037\004\352\026\206\211n|\026e\201~"
 128      306B6513 
 128      501F04EA 
 128      1686896E 
 128      7C166581 
 129 008f 3F3F1C6E 		.ascii	"??\034n\271!\245\374\322\263\334t\266\251\312~\025Q"
 129      B921A5FC 
 129      D2B3DC74 
 129      B6A9CA7E 
 129      1551
 130 00a1 F3C72DB4 		.ascii	"\363\307-\264\020k\312\231\365Wa+\303\232\035\265=\214"
 130      106BCA99 
 130      F557612B 
 130      C39A1DB5 
 130      3D8C
 131 00b3 C102CF53 		.ascii	"\301\002\317S;}\271\261Qy<\220\335%\202&U\005,~\011"
 131      3B7DB9B1 
 131      51793C90 
 131      DD258226 
 131      55052C7E 
 132 00c8 5BBD8856 		.ascii	"[\275\210Vx\250\304\217\274\340\331(\241g\266\274tl"
 132      78A8C48F 
 132      BCE0D928 
 132      A167B6BC 
 132      746C
 133 00da 93A13F18 		.ascii	"\223\241?\030\322n\025\201\372$\214\263\033\3416\254"
 133      D26E1581 
 133      FA248CB3 
 133      1BE136AC 
 134 00ea 3561F1DE 		.ascii	"5a\361\336\350\263\363\223\"\375Ufe\240*\214u\305\301"
 134      E8B3F393 
 134      22FD5566 
 134      65A02A8C 
 134      75C5C1
 135 00fd D5F72B4B 		.ascii	"\325\367+K\313\201O\202+z9\346e\256 \207\021O*\225\211"
 135      CB814F82 
 135      2B7A39E6 
 135      65AE2087 
 135      114F2A95 
 136 0112 3CD29840 		.ascii	"<\322\230@\263\336\3736qa\332j\315\263\371\265\253F"
 136      B3DEFB36 
ARM GAS  C:\Users\Thomas\AppData\Local\Temp\ccB6mzKJ.s 			page 10


 136      7161DA6A 
 136      CDB3F9B5 
 136      AB46
 137 0124 5534E00E 		.ascii	"U4\340\016+W\331G'a\022\255T\302\243\001\250H\226\017"
 137      2B57D947 
 137      276112AD 
 137      54C2A301 
 137      A848960F 
 138 0138 F5ADCE6D 		.ascii	"\365\255\316mS\316Vv\301\223\346\2460K\033^\032\031"
 138      53CE5676 
 138      C193E6A6 
 138      304B1B5E 
 138      1A19
 139 014a 1F0AAAB0 		.ascii	"\037\012\252\260A\217\303lL\241\031wU\030\012\354\314"
 139      418FC36C 
 139      4CA11977 
 139      55180AEC 
 139      CC
 140 015b D4A4AE7C 		.ascii	"\324\244\256|\3619j\227\260\377y\211z\352\351-\324\273"
 140      F1396A97 
 140      B0FF7989 
 140      7AEAE92D 
 140      D4BB
 141 016d 15EF3DCD 		.ascii	"\025\357=\315\213\037\2743u\274\271\313\243\213\246"
 141      8B1FBC33 
 141      75BCB9CB 
 141      A38BA6
 142 017c 861BFEC9 		.ascii	"\206\033\376\311\273\370\341\365\314\366?\000\357\377"
 142      BBF8E1F5 
 142      CCF63F00 
 142      EFFF
 143 018a 029CD580 		.ascii	"\002\234\325\200\266\006,<\271\036V\377`M\230\377M\370"
 143      B6062C3C 
 143      B91E56FF 
 143      604D98FF 
 143      4DF8
 144 019c E06F8401 		.ascii	"\340o\204\001<\324\204\272E\346\030\357\0052oz#\277"
 144      3CD484BA 
 144      45E618EF 
 144      05326F7A 
 144      23BF
 145 01ae BDBD9BF3 		.ascii	"\275\275\233\363\347l\205\310\315\203\242:N\252=\014"
 145      E76C85C8 
 145      CD83A23A 
 145      4EAA3D0C 
 146 01be 2A468CB7 		.ascii	"*F\214\267\350\365s\013\215JL\365\030\301\212\362\304"
 146      E8F5730B 
 146      8D4A4CF5 
 146      18C18AF2 
 146      C4
 147 01cf 3CD2DC59 		.ascii	"<\322\334Y!}\306\324-\365\016\236_8\242\317\220j8\250"
 147      217DC6D4 
 147      2DF50E9E 
 147      5F38A2CF 
 147      906A38A8 
 148 01e3 2A4BF7B7 		.ascii	"*K\367\267\305\016;]N2\221rN\304;\3343\311N'\026\355"
 148      C50E3B5D 
ARM GAS  C:\Users\Thomas\AppData\Local\Temp\ccB6mzKJ.s 			page 11


 148      4E329172 
 148      4EC43BDC 
 148      33C94E27 
 149 01f9 70DB0FC4 		.ascii	"p\333\017\304\332\335\256\323\356)'\352&S\361\275\361"
 149      DADDAED3 
 149      EE2927EA 
 149      2653F1BD 
 149      F1
 150 020a 438954E2 		.ascii	"C\211T\342\270s2\036=\332\326I\337\001\337f\022*"
 150      B873321E 
 150      3DDAD649 
 150      DF01DF66 
 150      122A
 151              		.text
 152              		.section	.gnu.lto_.symbol_nodes.bd610d33,"",%progbits
 153 0000 789C55C8 		.ascii	"x\234U\310A\015\2000\020\005\321\351n\267A\020\332\270"
 153      410D8030 
 153      1005D1E9 
 153      6EB74110 
 153      DAB8
 154 0012 FE4A4001 		.ascii	"\376J@\001\251\011\034p\306\003\011:\010$p(s{\343\300"
 154      A9091C70 
 154      C603093A 
 154      08247028 
 154      737BE3C0 
 155 0026 C49725C1 		.ascii	"\304\227%\301\274\203\304\322\006\002\232\311\315\224"
 155      BC83C4D2 
 155      06029AC9 
 155      CD94
 156 0034 FA6D2EFB 		.ascii	"\372m.\3739\313{\247P~M\255\017\213\242\243{\260\035"
 156      39CB7BA7 
 156      507E4DAD 
 156      0F8BA2A3 
 156      7BB01D
 157 0047 57F25C38 		.ascii	"W\362\\8\327\221\033\317\310\035\246"
 157      D7911BCF 
 157      C81DA6
 158              		.text
 159              		.section	.gnu.lto_.refs.bd610d33,"",%progbits
 160 0000 789C25C8 		.ascii	"x\234%\310\321\011\000 \014\304\320\244WA\\\304\375"
 160      D1090020 
 160      0CC4D0A4 
 160      57415CC4 
 160      FD
 161 0011 371469BE 		.ascii	"7\024i\276\036\011p\231\012-\355\372\300$\272t\353I"
 161      1E097099 
 161      0A2DEDFA 
 161      C024BA74 
 161      EB49
 162 0023 CFC2C503 		.ascii	"\317\302\305\003\015{\000w"
 162      0D7B0077 
 163              		.text
 164              		.section	.gnu.lto_.decls.bd610d33,"",%progbits
 165 0000 789C9594 		.ascii	"x\234\225\224mL\223W\024\307\237\323\333\226\322VFb"
 165      6D4C9357 
 165      14C79FD3 
 165      DB96D256 
ARM GAS  C:\Users\Thomas\AppData\Local\Temp\ccB6mzKJ.s 			page 12


 165      4662
 166 0012 A2A6DB87 		.ascii	"\242\246\333\207\006\022\262-\306\310\262\021\277Me"
 166      0612B22D 
 166      C6C8B211 
 166      BF4D65
 167 0021 8B1FCC16 		.ascii	"\213\037\314\026\"\232}\030IW\3313g$\224\225\262\304"
 167      229A7D18 
 167      4957D933 
 167      67249495 
 167      B2C4
 168 0033 6F573AA5 		.ascii	"oW:\24525\350^\350\360\255\006\224\027\265\240\202\343"
 168      3235E85E 
 168      E8F0AD06 
 168      9417B5A0 
 168      82E3
 169 0045 4D29CC29 		.ascii	"M)\314)\024\021\247\035R\234\210\025\035\233\321\224"
 169      1411A71D 
 169      529C8815 
 169      1D9BD194 
 170 0055 F986D3D9 		.ascii	"\371\206\323\331\235{\237\247\366\251i\235\273\311i"
 170      9D7B9FA7 
 170      F6A9699D 
 170      BBC969
 171 0064 EF7DEEB9 		.ascii	"\357}\356\271\277\363\277\347\336{\210 \010\255 \010"
 171      BFF3BFE7 
 171      DE7B8820 
 171      08AD2008 
 172 0074 116C2329 		.ascii	"\021l#)\202p\026\373\032\374\226'\304\232\026\355\020"
 172      827016FB 
 172      1AFC9627 
 172      C49A16ED 
 172      10
 173 0085 9A17AD05 		.ascii	"\232\027\255\005\355([\203v\034\015\335\205\013B|c\276"
 173      ED285B83 
 173      761C0DDD 
 173      850B427C 
 173      63BE
 174 0097 2932C38C 		.ascii	")2\303\2146\212v\011-\2106\214v\032M\2056\2006$3\016"
 174      368A7609 
 174      2D88368C 
 174      761A4D85 
 174      36803624 
 175 00ad 2561799F 		.ascii	"%ay\237c)\031ch#\011X\336$,\246=Mf\315A\273\"3'\321"
 175      63291963 
 175      68230958 
 175      DE242CA6 
 175      3D4D66CD 
 176 00c7 420AF609 		.ascii	"B\012\366\011\264\033h\215\012\355,\036A\363+b\021\231"
 176      B41B688D 
 176      0AED2C1E 
 176      41F32B62 
 176      1199
 177 00d9 D9FA02FD 		.ascii	"\331\372\002\375,W\006E\314d{P\306$\212\030~y|T\336"
 177      2C570645 
 177      CC647B50 
 177      C6248A18 
 177      7E797C54 
ARM GAS  C:\Users\Thomas\AppData\Local\Temp\ccB6mzKJ.s 			page 13


 178 00ee 57B29C4F 		.ascii	"W\262\234O\253\240\303{o\3100\245\2024\275\231\015;"
 178      ABA0C37B 
 178      6FC830A5 
 178      8234BD99 
 178      0D3B
 179 0100 77F4BBB5 		.ascii	"w\364\273\26584\352\325l\330\3658\024P\317\375\216b"
 179      3834EAD5 
 179      6CD8F538 
 179      1450CFFD 
 179      8E62
 180 0112 AB72D274 		.ascii	"\253r\322t5\344\315\201z0A\003\230\220\330\010s\361"
 180      35E4CD81 
 180      7A304103 
 180      9890D808 
 180      73F1
 181 0124 F763B544 		.ascii	"\367c\265D\232\361\236\235~\205\250\200\365k\335\327"
 181      9AF19E9D 
 181      7E85A880 
 181      F56BDDD7 
 182 0134 02FAF94D 		.ascii	"\002\372\371M\270\314E}\243\352X\270\373\323\275\365"
 182      B8CC457D 
 182      A3EA58B8 
 182      FBD3BDF5 
 183 0144 C4BC874E 		.ascii	"\304\274\207N\264\204\307\002A#\355\247\276H\244\207"
 183      B484C702 
 183      4123EDA7 
 183      BE48A487 
 184 0154 02874113 		.ascii	"\002\207A\023\0208\010\363\231/\353\363Ep\010\314\270"
 184      103808F3 
 184      992FEBF3 
 184      457008CC 
 184      B8
 185 0165 F04CA3D3 		.ascii	"\360L\243\323\257%\026N\337\263\263j@\315!\236]\265"
 185      AF25164E 
 185      DFB3B36A 
 185      40CD219E 
 185      5DB5
 186 0177 DA288213 		.ascii	"\332(\202\023\016+\010\207\243\004/'t\365\315\324\001"
 186      0E2B0887 
 186      A3042F27 
 186      74F5CDD4 
 186      01
 187 0188 710247F8 		.ascii	"q\002G\370\253\002w\364\210\360\264x\2022\342]\016h"
 187      AB0277F4 
 187      88F0B478 
 187      8232E25D 
 187      0E68
 188 019a 56009AA3 		.ascii	"V\000\232\243\200\026\0168\031\336\350\006\262W\002"
 188      80160E38 
 188      19DEE806 
 188      B25702
 189 01a9 6CE91C18 		.ascii	"l\351\034\030\324H\000\327~%\340\210\002p$\0128\312"
 189      D44800D7 
 189      7E25E088 
 189      0270240A 
 189      38CA
 190 01bb 01B535BB 		.ascii	"\001\2655\273\317kI\267\004\270\373\325\335:#\333\004"
ARM GAS  C:\Users\Thomas\AppData\Local\Temp\ccB6mzKJ.s 			page 14


 190      CF6B49B7 
 190      04B8FBD5 
 190      DD3A23DB 
 190      04
 191 01cc 0D37FF1E 		.ascii	"\0157\377\036Z\364\003\335WN\237F\"r&\216)(\307\242"
 191      5AF403DD 
 191      574E9F46 
 191      2272268E 
 191      2928C7A2 
 192 01e0 94564E79 		.ascii	"\224VNy\332\334r\213\220\315R\2427]\033m\322s\212gk"
 192      DADC728B 
 192      90CD52A2 
 192      375D1B6D 
 192      D2738A67 
 193 01f5 ED26B342 		.ascii	"\355&\263BG\233\202\320\026%\034\347\204\253\017\257"
 193      479B82D0 
 193      16251CE7 
 193      84AB0FAF 
 194 0205 F6A5F033 		.ascii	"\366\245\3603_\310\030;6\266\267\247\3613\327\262a\303"
 194      5FC8183B 
 194      36B6B7A7 
 194      F133D7B2 
 194      61C3
 195 0217 3FB71F18 		.ascii	"?\267\037\030\310\001\211?\322SQ\241#~i\260\341@\327"
 195      C801893F 
 195      D25351A1 
 195      237E69B0 
 195      E140D7
 196 022a 16B66E8E 		.ascii	"\026\266n\216\236\237\345\266\301\232^\302\207\0216"
 196      9E9FE5B6 
 196      C19A5EC2 
 196      871136
 197 0239 AD0A06BF 		.ascii	"\255\012\006\277}D@\237\345\242\264\234\206wP2O\200"
 197      7D44409F 
 197      E5A2B49C 
 197      86775032 
 197      4F80
 198 024b F92678C3 		.ascii	"\371&x\303$\300I\310B7\256\007\272\360\376t\343\375"
 198      24C049C8 
 198      4237AE07 
 198      BAF0FE74 
 198      E3FD
 199 025d A9C3DB11 		.ascii	"\251\303\333\021n\030lZ\356\244\213\341\004\350\241"
 199      6E186C5A 
 199      EEA48BE1 
 199      04E8A1
 200 026c F399621E 		.ascii	"\363\231b\036A\2761=\336\213n\035\271')\030\014\315"
 200      41BE313D 
 200      DE8B6E1D 
 200      B9272918 
 200      0CCD
 201 027e DC3572E5 		.ascii	"\3345r\345\351lXs\351\306=\302\225\253\330p\367_w\272"
 201      E96C5873 
 201      E9C63DC2 
 201      95ABD870 
 201      F75F77BA 
 202 0292 53092571 		.ascii	"S\011%qb\315\222\330\352[3\255:>\214D\010S\373\370\272"
ARM GAS  C:\Users\Thomas\AppData\Local\Temp\ccB6mzKJ.s 			page 15


 202      62CD92D8 
 202      EA5B33AD 
 202      3A3E8C44 
 202      0853FBF8 
 203 02a7 B75E0B59 		.ascii	"\267^\013Yz&\303sp\026\300i\224\320\027\223`\226%\360"
 203      7A26C373 
 203      7016C069 
 203      94D01793 
 203      609625F0 
 204 02bb DD5027D5 		.ascii	"\335P'\3254\244\011\340C\355\275\250\035~\306\015\231"
 204      34A409E0 
 204      43EDBDA8 
 204      1D7EC60D 
 204      99
 205 02cc E50DFD84 		.ascii	"\345\015\375\204\037O\341G\214\322\355\357\237N!\025"
 205      1F4FE147 
 205      8CD2EDEF 
 205      9F4E2115 
 206 02dc 928227ED 		.ascii	"\222\202'\355N\247\212|\303\007\232S\303m[\325\220\221"
 206      4EA78A7C 
 206      C3079A53 
 206      C36D5BD5 
 206      9091
 207 02ee 313B2BC3 		.ascii	"1;+\303\203\304ps\305\31647\365\364Jq\317`\334A\230"
 207      83C47073 
 207      C5CE3437 
 207      F5F44A71 
 207      CF60DC41 
 208 0303 1DE3BFCE 		.ascii	"\035\343\277\316\336\227\217\2752\201\271O\374y\274"
 208      DE978FBD 
 208      3281B94F 
 208      FC79BC
 209 0312 C0B781F0 		.ascii	"\300\267\201\3604\365\310\276rj\271\347\233\314q;\177"
 209      34F5C8BE 
 209      726AB9E7 
 209      9BCC713B 
 209      7F
 210 0323 A6942EB6 		.ascii	"\246\224.\266\013\360#\202\332\371#e\256(\023\316\242"
 210      0BF02382 
 210      DAF92365 
 210      AE2813CE 
 210      A2
 211 0334 623F64C0 		.ascii	"b?d\300\000\332\020d\360\275\261\275OL\275\245cNB\364"
 211      00DA1064 
 211      F0BDB1BD 
 211      4F4CBDA5 
 211      634E42F4 
 212 0348 B6488D47 		.ascii	"\266H\215G\275\335\376\211\257\234p\205\375\011\025"
 212      BDDDFE89 
 212      AF9C7085 
 212      FD0915
 213 0357 D6738598 		.ascii	"\326s\205\230\315\341\300\266\346Y\2205\233\023\037"
 213      CDE1C0B6 
 213      E6599035 
 213      9B131F
 214 0366 6B0186D1 		.ascii	"k\001\206\321\267#\226M\026\200\267D\"\341\034j{\221"
 214      B723964D 
ARM GAS  C:\Users\Thomas\AppData\Local\Temp\ccB6mzKJ.s 			page 16


 214      1680B744 
 214      22E11C6A 
 214      7B91
 215 0378 4E4CE6CD 		.ascii	"NL\346\315\372cg\014d\257\224\331?\2466\335V\345\264"
 215      FA63670C 
 215      64AF94D9 
 215      3FA636DD 
 215      56E5B4
 216 038b 5297671E 		.ascii	"R\227g\036\017\304\374\331\265bk\330i\014I\377\314\265"
 216      0FC4FCD9 
 216      B5626BD8 
 216      690C49FF 
 216      CCB5
 217 039d 6F73D780 		.ascii	"os\327\200>s\037\236qxl4\254\332@=x\232\354\215\360"
 217      3E731F9E 
 217      71786C34 
 217      ACDA403D 
 217      789AEC8D 
 218 03b2 85E72585 		.ascii	"\205\347%\205\212t\235gO\005~\201\034\001.@&+\220\347"
 218      8A749D67 
 218      4F057E81 
 218      1C012E40 
 218      262B90E7 
 219 03c6 2E8F13D2 		.ascii	".\217\023\322-\005\016\273\266\336R\353]\354>\274\344"
 219      2D050EBB 
 219      B6DE52EB 
 219      5DEC3EBC 
 219      E4
 220 03d7 9550551F 		.ascii	"\225PU\037\276R\003\362=\0137\034\3541\016P\252\203"
 220      BE5203F2 
 220      3D0B371C 
 220      EC310E50 
 220      AA83
 221 03e9 114CE9C5 		.ascii	"\021L\351\305Xz\002\020\273m\011\320\277&\276m[\246"
 221      587A0210 
 221      BB6D09D0 
 221      BF26BE6D 
 221      5BA6
 222 03fb EED71AA2 		.ascii	"\356\327\032\242j\\/\265\244\261\257c\227\301X\311\356"
 222      6A5C2FB5 
 222      A4B1AF63 
 222      97C158C9 
 222      EE
 223 040c 3416F4D4 		.ascii	"4\026\364\324\3764\270\204Jb%}\024\214\274P\340?{\375"
 223      FE34B884 
 223      4A62257D 
 223      148CBC50 
 223      E03F7BFD 
 224 0420 17FFBE19 		.ascii	"\027\377\276\031\357\315\222\026\363\016\312\336A\356"
 224      EFCD9216 
 224      F30ECADE 
 224      41EE
 225 042e BD7FFB69 		.ascii	"\275\177\373i\022\347<\022\207\036\223\235\307\270s"
 225      12E73C12 
 225      871E939D 
 225      C7B873
 226 043d F5F783BB 		.ascii	"\365\367\203\273RH\037O\253z\362\321\370\303\0240\245"
ARM GAS  C:\Users\Thomas\AppData\Local\Temp\ccB6mzKJ.s 			page 17


 226      52481F4F 
 226      AB7AF2D1 
 226      F8C31430 
 226      A5
 227 044e 6699DC98 		.ascii	"f\231\334\230\233+\220*T\360\032R^\225\376\305\263\032"
 227      9B2B902A 
 227      54F01A52 
 227      5E95FEC5 
 227      B31A
 228 0460 328E3B62 		.ascii	"2\216;bS\002\374\206\314\253r\005qa\361\300\257pY.q"
 228      5302FC86 
 228      CCAB7205 
 228      7161F1C0 
 228      AF70592E 
 229 0475 5273E377 		.ascii	"Rs\343w\011\304~0\034\255\376\272NG\372\245Sl{P\331"
 229      09C47E30 
 229      1CADFEBA 
 229      4E47FAA5 
 229      536C7B50 
 230 048a 314BCADB 		.ascii	"1K\312\333\177\227)<\302\300\271\312\221T\251\260=\277"
 230      7F97293C 
 230      C2C0B9CA 
 230      9154A9B0 
 230      3DBF
 231 049c E27A92C2 		.ascii	"\342z\222\302\346y\222\255\203\020\356\177\"v\310\327"
 231      E67992AD 
 231      8310EE7F 
 231      2276C8D7 
 232 04ac 2056D536 		.ascii	" V\3256\207j\206\214q\311\012\305%kRN\326$O\326\270"
 232      876A868C 
 232      71C90AC5 
 232      256B524E 
 232      D6244FD6 
 233 04c1 DB57A98E 		.ascii	"\333W\251\216\363f\025>\346}\003\214\321 \330\025\314"
 233      F366153E 
 233      E67D038C 
 233      D120D815 
 233      CC
 234 04d2 B9B6E252 		.ascii	"\271\266\342R[\221\230g\263;,\331\226\367\254\016\353"
 234      5B919867 
 234      B33B2CD9 
 234      96F7AC0E 
 234      EB
 235 04e3 0A718D25 		.ascii	"\012q\215%\337\372\245\2103\237\255]\243]\366\341*s"
 235      DFFAA588 
 235      339FAD5D 
 235      A35DF6E1 
 235      2A73
 236 04f5 AEF0F682 		.ascii	"\256\360\366\202\202eb\261h\267:\304O-\371\2662{\241"
 236      826562B1 
 236      68B73AC4 
 236      4F2DF9B6 
 236      327BA1
 237 0508 5890976F 		.ascii	"X\220\227o\313}\247 1 \357\203\005\205Bf\342\271\025"
 237      CB7DA720 
 237      3120EF83 
 237      05854266 
ARM GAS  C:\Users\Thomas\AppData\Local\Temp\ccB6mzKJ.s 			page 18


 237      E2B915
 238 051b 62A9C366 		.ascii	"b\251\303f\227\371\257&\021P$\212%\257%\236\373\310"
 238      97F9AF26 
 238      1150248A 
 238      25AF259E 
 238      FBC8
 239 052d BA4E2C2B 		.ascii	"\272N,+1%Y\350\260\225d\377?\261\013>\027\222Dz\277"
 239      312559E8 
 239      B09564FF 
 239      3FB10B3E 
 239      1792447A 
 240 0542 D8BABA48 		.ascii	"\330\272\272HL\262\215\245Kr\227\257\312\263\344\257"
 240      4CB28DA5 
 240      4B7297AF 
 240      CAB3E4AF 
 241 0552 5CB12A77 		.ascii	"\\\261*w\245\246lm\261cQf\322\300\205\353\035\353K\304"
 241      A5A66C6D 
 241      B1635166 
 241      D2C085EB 
 241      1DEB4BC4 
 242 0566 520C6510 		.ascii	"R\014e\02094\337\201NZ\266*;\307P\212\351\316\267/Y"
 242      3934DF81 
 242      4E5AB62A 
 242      3BC7508A 
 242      E9CEB72F 
 243 057b 88D8683F 		.ascii	"\210\330h?\033\373IT\255\266\026\256++\321\330\3055"
 243      1BFB4954 
 243      ADB616AE 
 243      2B2BD1D8 
 243      C535
 244 058d D9391ACB 		.ascii	"\3319\032\313R\233\255H\215\375E\377\002\241\202-\256"
 244      529BAD48 
 244      8DFD45FF 
 244      02A1822D 
 244      AE
 245              		.text
 246              		.section	.gnu.lto_.symtab.bd610d33,"",%progbits
 247 0000 436F6E73 		.ascii	"ConsolePort_1_DataReg_SaveConfig\000\000\000\000\000"
 247      6F6C6550 
 247      6F72745F 
 247      315F4461 
 247      74615265 
 248 0025 00000000 		.ascii	"\000\000\000\000\000\000\000\254\000\000\000Console"
 248      000000AC 
 248      00000043 
 248      6F6E736F 
 248      6C65
 249 0037 506F7274 		.ascii	"Port_1_DataReg_RestoreConfig\000\000\000\000\000\000"
 249      5F315F44 
 249      61746152 
 249      65675F52 
 249      6573746F 
 250 0059 00000000 		.ascii	"\000\000\000\000\000\000\256\000\000\000ConsolePort"
 250      0000AE00 
 250      0000436F 
 250      6E736F6C 
 250      65506F72 
ARM GAS  C:\Users\Thomas\AppData\Local\Temp\ccB6mzKJ.s 			page 19


 251 006e 5F315F44 		.ascii	"_1_DataReg_Sleep\000\000\000\000\000\000\000\000\000"
 251      61746152 
 251      65675F53 
 251      6C656570 
 251      00000000 
 252 0087 000000B0 		.ascii	"\000\000\000\260\000\000\000ConsolePort_1_DataReg_W"
 252      00000043 
 252      6F6E736F 
 252      6C65506F 
 252      72745F31 
 253 00a5 616B6575 		.ascii	"akeup\000\000\000\000\000\000\000\000\000\000\000\000"
 253      70000000 
 253      00000000 
 253      00000000 
 253      00
 254 00b6 B2000000 		.ascii	"\262\000\000\000ConsolePort_1_DataReg_Stop\000\000\002"
 254      436F6E73 
 254      6F6C6550 
 254      6F72745F 
 254      315F4461 
 255 00d7 00000000 		.ascii	"\000\000\000\000\000\000\000\000\000\264\000\000\000"
 255      00000000 
 255      00B40000 
 255      00
 256 00e4 436F6E73 		.ascii	"ConsolePort_1_DataReg_Enable\000\000\002\000\000\000"
 256      6F6C6550 
 256      6F72745F 
 256      315F4461 
 256      74615265 
 257 0106 00000000 		.ascii	"\000\000\000\000\000\000\266\000\000\000"
 257      0000B600 
 257      0000
 258              		.text
 259              		.section	.gnu.lto_.opts,"",%progbits
 260 0000 272D666E 		.ascii	"'-fno-trapv' '-mcpu=cortex-m3' '-mthumb' '-g' '-O3'"
 260      6F2D7472 
 260      61707627 
 260      20272D6D 
 260      6370753D 
 261 0033 20272D66 		.ascii	" '-ffunction-sections' '-finline-functions' '-flto'"
 261      66756E63 
 261      74696F6E 
 261      2D736563 
 261      74696F6E 
 262 0066 20272D66 		.ascii	" '-ffat-lto-objects'\000"
 262      6661742D 
 262      6C746F2D 
 262      6F626A65 
 262      63747327 
 263              		.text
 264              		.cfi_sections	.debug_frame
 265              		.section	.text.ConsolePort_1_DataReg_SaveConfig,"ax",%progbits
 266              		.align	2
 267              		.global	ConsolePort_1_DataReg_SaveConfig
 268              		.thumb
 269              		.thumb_func
 270              		.type	ConsolePort_1_DataReg_SaveConfig, %function
ARM GAS  C:\Users\Thomas\AppData\Local\Temp\ccB6mzKJ.s 			page 20


 271              	ConsolePort_1_DataReg_SaveConfig:
 272              	.LFB0:
 273              		.file 1 ".\\Generated_Source\\PSoC5\\ConsolePort_1_DataReg_PM.c"
   1:.\Generated_Source\PSoC5/ConsolePort_1_DataReg_PM.c **** /*******************************************************************************
   2:.\Generated_Source\PSoC5/ConsolePort_1_DataReg_PM.c **** * File Name: ConsolePort_1_DataReg_PM.c
   3:.\Generated_Source\PSoC5/ConsolePort_1_DataReg_PM.c **** * Version 2.30
   4:.\Generated_Source\PSoC5/ConsolePort_1_DataReg_PM.c **** *
   5:.\Generated_Source\PSoC5/ConsolePort_1_DataReg_PM.c **** * Description:
   6:.\Generated_Source\PSoC5/ConsolePort_1_DataReg_PM.c **** *  This file provides the API source code for sleep mode support for Shift
   7:.\Generated_Source\PSoC5/ConsolePort_1_DataReg_PM.c **** *  Register component.
   8:.\Generated_Source\PSoC5/ConsolePort_1_DataReg_PM.c **** *
   9:.\Generated_Source\PSoC5/ConsolePort_1_DataReg_PM.c **** * Note:
  10:.\Generated_Source\PSoC5/ConsolePort_1_DataReg_PM.c **** *
  11:.\Generated_Source\PSoC5/ConsolePort_1_DataReg_PM.c **** ********************************************************************************
  12:.\Generated_Source\PSoC5/ConsolePort_1_DataReg_PM.c **** * Copyright 2008-2013, Cypress Semiconductor Corporation.  All rights reserved.
  13:.\Generated_Source\PSoC5/ConsolePort_1_DataReg_PM.c **** * You may use this file only in accordance with the license, terms, conditions,
  14:.\Generated_Source\PSoC5/ConsolePort_1_DataReg_PM.c **** * disclaimers, and limitations in the end user license agreement accompanying
  15:.\Generated_Source\PSoC5/ConsolePort_1_DataReg_PM.c **** * the software package with which this file was provided.
  16:.\Generated_Source\PSoC5/ConsolePort_1_DataReg_PM.c **** *******************************************************************************/
  17:.\Generated_Source\PSoC5/ConsolePort_1_DataReg_PM.c **** 
  18:.\Generated_Source\PSoC5/ConsolePort_1_DataReg_PM.c **** #include "ConsolePort_1_DataReg.h"
  19:.\Generated_Source\PSoC5/ConsolePort_1_DataReg_PM.c **** 
  20:.\Generated_Source\PSoC5/ConsolePort_1_DataReg_PM.c **** static ConsolePort_1_DataReg_BACKUP_STRUCT ConsolePort_1_DataReg_backup =
  21:.\Generated_Source\PSoC5/ConsolePort_1_DataReg_PM.c **** {
  22:.\Generated_Source\PSoC5/ConsolePort_1_DataReg_PM.c ****     ConsolePort_1_DataReg_DISABLED,
  23:.\Generated_Source\PSoC5/ConsolePort_1_DataReg_PM.c **** 
  24:.\Generated_Source\PSoC5/ConsolePort_1_DataReg_PM.c ****     ((uint16) ConsolePort_1_DataReg_DEFAULT_A0),
  25:.\Generated_Source\PSoC5/ConsolePort_1_DataReg_PM.c ****     ((uint16) ConsolePort_1_DataReg_DEFAULT_A1),
  26:.\Generated_Source\PSoC5/ConsolePort_1_DataReg_PM.c **** 
  27:.\Generated_Source\PSoC5/ConsolePort_1_DataReg_PM.c ****     #if(CY_UDB_V0)
  28:.\Generated_Source\PSoC5/ConsolePort_1_DataReg_PM.c ****         ((uint16) ConsolePort_1_DataReg_INT_SRC),
  29:.\Generated_Source\PSoC5/ConsolePort_1_DataReg_PM.c ****     #endif /* (CY_UDB_V0) */
  30:.\Generated_Source\PSoC5/ConsolePort_1_DataReg_PM.c **** };
  31:.\Generated_Source\PSoC5/ConsolePort_1_DataReg_PM.c **** 
  32:.\Generated_Source\PSoC5/ConsolePort_1_DataReg_PM.c **** 
  33:.\Generated_Source\PSoC5/ConsolePort_1_DataReg_PM.c **** /*******************************************************************************
  34:.\Generated_Source\PSoC5/ConsolePort_1_DataReg_PM.c **** * Function Name: ConsolePort_1_DataReg_SaveConfig
  35:.\Generated_Source\PSoC5/ConsolePort_1_DataReg_PM.c **** ********************************************************************************
  36:.\Generated_Source\PSoC5/ConsolePort_1_DataReg_PM.c **** *
  37:.\Generated_Source\PSoC5/ConsolePort_1_DataReg_PM.c **** * Summary:
  38:.\Generated_Source\PSoC5/ConsolePort_1_DataReg_PM.c **** *  Saves Shift Register configuration.
  39:.\Generated_Source\PSoC5/ConsolePort_1_DataReg_PM.c **** *
  40:.\Generated_Source\PSoC5/ConsolePort_1_DataReg_PM.c **** * Parameters:
  41:.\Generated_Source\PSoC5/ConsolePort_1_DataReg_PM.c **** *  None.
  42:.\Generated_Source\PSoC5/ConsolePort_1_DataReg_PM.c **** *
  43:.\Generated_Source\PSoC5/ConsolePort_1_DataReg_PM.c **** * Return:
  44:.\Generated_Source\PSoC5/ConsolePort_1_DataReg_PM.c **** *  None.
  45:.\Generated_Source\PSoC5/ConsolePort_1_DataReg_PM.c **** *
  46:.\Generated_Source\PSoC5/ConsolePort_1_DataReg_PM.c **** * Reentrant:
  47:.\Generated_Source\PSoC5/ConsolePort_1_DataReg_PM.c **** *  No.
  48:.\Generated_Source\PSoC5/ConsolePort_1_DataReg_PM.c **** *
  49:.\Generated_Source\PSoC5/ConsolePort_1_DataReg_PM.c **** *******************************************************************************/
  50:.\Generated_Source\PSoC5/ConsolePort_1_DataReg_PM.c **** void ConsolePort_1_DataReg_SaveConfig(void) 
  51:.\Generated_Source\PSoC5/ConsolePort_1_DataReg_PM.c **** {
 274              		.loc 1 51 0
 275              		.cfi_startproc
 276              		@ args = 0, pretend = 0, frame = 0
ARM GAS  C:\Users\Thomas\AppData\Local\Temp\ccB6mzKJ.s 			page 21


 277              		@ frame_needed = 0, uses_anonymous_args = 0
 278              		@ link register save eliminated.
  52:.\Generated_Source\PSoC5/ConsolePort_1_DataReg_PM.c ****     /* Store working registers A0 and A1 */
  53:.\Generated_Source\PSoC5/ConsolePort_1_DataReg_PM.c ****     ConsolePort_1_DataReg_backup.saveSrA0Reg   = CY_GET_REG16(ConsolePort_1_DataReg_SHIFT_REG_LSB_P
 279              		.loc 1 53 0
 280 0000 034B     		ldr	r3, .L2
  54:.\Generated_Source\PSoC5/ConsolePort_1_DataReg_PM.c ****     ConsolePort_1_DataReg_backup.saveSrA1Reg   = CY_GET_REG16(ConsolePort_1_DataReg_SHIFT_REG_VALUE
 281              		.loc 1 54 0
 282 0002 044A     		ldr	r2, .L2+4
  53:.\Generated_Source\PSoC5/ConsolePort_1_DataReg_PM.c ****     ConsolePort_1_DataReg_backup.saveSrA1Reg   = CY_GET_REG16(ConsolePort_1_DataReg_SHIFT_REG_VALUE
 283              		.loc 1 53 0
 284 0004 1988     		ldrh	r1, [r3]
 285 0006 044B     		ldr	r3, .L2+8
 286              		.loc 1 54 0
 287 0008 1288     		ldrh	r2, [r2]
  53:.\Generated_Source\PSoC5/ConsolePort_1_DataReg_PM.c ****     ConsolePort_1_DataReg_backup.saveSrA1Reg   = CY_GET_REG16(ConsolePort_1_DataReg_SHIFT_REG_VALUE
 288              		.loc 1 53 0
 289 000a 5980     		strh	r1, [r3, #2]	@ movhi
 290              		.loc 1 54 0
 291 000c 9A80     		strh	r2, [r3, #4]	@ movhi
 292 000e 7047     		bx	lr
 293              	.L3:
 294              		.align	2
 295              	.L2:
 296 0010 08650040 		.word	1073767688
 297 0014 18650040 		.word	1073767704
 298 0018 00000000 		.word	.LANCHOR0
 299              		.cfi_endproc
 300              	.LFE0:
 301              		.size	ConsolePort_1_DataReg_SaveConfig, .-ConsolePort_1_DataReg_SaveConfig
 302              		.section	.text.ConsolePort_1_DataReg_RestoreConfig,"ax",%progbits
 303              		.align	2
 304              		.global	ConsolePort_1_DataReg_RestoreConfig
 305              		.thumb
 306              		.thumb_func
 307              		.type	ConsolePort_1_DataReg_RestoreConfig, %function
 308              	ConsolePort_1_DataReg_RestoreConfig:
 309              	.LFB1:
  55:.\Generated_Source\PSoC5/ConsolePort_1_DataReg_PM.c **** 
  56:.\Generated_Source\PSoC5/ConsolePort_1_DataReg_PM.c ****     #if(CY_UDB_V0)
  57:.\Generated_Source\PSoC5/ConsolePort_1_DataReg_PM.c ****         ConsolePort_1_DataReg_backup.saveSrIntMask = ConsolePort_1_DataReg_SR_STATUS_MASK;
  58:.\Generated_Source\PSoC5/ConsolePort_1_DataReg_PM.c ****     #endif /* (CY_UDB_V0) */
  59:.\Generated_Source\PSoC5/ConsolePort_1_DataReg_PM.c **** }
  60:.\Generated_Source\PSoC5/ConsolePort_1_DataReg_PM.c **** 
  61:.\Generated_Source\PSoC5/ConsolePort_1_DataReg_PM.c **** 
  62:.\Generated_Source\PSoC5/ConsolePort_1_DataReg_PM.c **** /*******************************************************************************
  63:.\Generated_Source\PSoC5/ConsolePort_1_DataReg_PM.c **** * Function Name: ConsolePort_1_DataReg_RestoreConfig
  64:.\Generated_Source\PSoC5/ConsolePort_1_DataReg_PM.c **** ********************************************************************************
  65:.\Generated_Source\PSoC5/ConsolePort_1_DataReg_PM.c **** *
  66:.\Generated_Source\PSoC5/ConsolePort_1_DataReg_PM.c **** * Summary:
  67:.\Generated_Source\PSoC5/ConsolePort_1_DataReg_PM.c **** *  Restores Shift Register configuration.
  68:.\Generated_Source\PSoC5/ConsolePort_1_DataReg_PM.c **** *
  69:.\Generated_Source\PSoC5/ConsolePort_1_DataReg_PM.c **** * Parameters:
  70:.\Generated_Source\PSoC5/ConsolePort_1_DataReg_PM.c **** *  None.
  71:.\Generated_Source\PSoC5/ConsolePort_1_DataReg_PM.c **** *
  72:.\Generated_Source\PSoC5/ConsolePort_1_DataReg_PM.c **** * Return:
  73:.\Generated_Source\PSoC5/ConsolePort_1_DataReg_PM.c **** *  None.
ARM GAS  C:\Users\Thomas\AppData\Local\Temp\ccB6mzKJ.s 			page 22


  74:.\Generated_Source\PSoC5/ConsolePort_1_DataReg_PM.c **** *
  75:.\Generated_Source\PSoC5/ConsolePort_1_DataReg_PM.c **** *******************************************************************************/
  76:.\Generated_Source\PSoC5/ConsolePort_1_DataReg_PM.c **** void ConsolePort_1_DataReg_RestoreConfig(void) 
  77:.\Generated_Source\PSoC5/ConsolePort_1_DataReg_PM.c **** {
 310              		.loc 1 77 0
 311              		.cfi_startproc
 312              		@ args = 0, pretend = 0, frame = 0
 313              		@ frame_needed = 0, uses_anonymous_args = 0
 314              		@ link register save eliminated.
  78:.\Generated_Source\PSoC5/ConsolePort_1_DataReg_PM.c ****     /* Restore working registers A0 and A1 */
  79:.\Generated_Source\PSoC5/ConsolePort_1_DataReg_PM.c ****     CY_SET_REG16(ConsolePort_1_DataReg_SHIFT_REG_LSB_PTR, ConsolePort_1_DataReg_backup.saveSrA0Reg)
 315              		.loc 1 79 0
 316 0000 034B     		ldr	r3, .L5
 317 0002 0449     		ldr	r1, .L5+4
  80:.\Generated_Source\PSoC5/ConsolePort_1_DataReg_PM.c ****     CY_SET_REG16(ConsolePort_1_DataReg_SHIFT_REG_VALUE_LSB_PTR, ConsolePort_1_DataReg_backup.saveSr
 318              		.loc 1 80 0
 319 0004 9A88     		ldrh	r2, [r3, #4]
  79:.\Generated_Source\PSoC5/ConsolePort_1_DataReg_PM.c ****     CY_SET_REG16(ConsolePort_1_DataReg_SHIFT_REG_VALUE_LSB_PTR, ConsolePort_1_DataReg_backup.saveSr
 320              		.loc 1 79 0
 321 0006 5888     		ldrh	r0, [r3, #2]
 322              		.loc 1 80 0
 323 0008 034B     		ldr	r3, .L5+8
  79:.\Generated_Source\PSoC5/ConsolePort_1_DataReg_PM.c ****     CY_SET_REG16(ConsolePort_1_DataReg_SHIFT_REG_VALUE_LSB_PTR, ConsolePort_1_DataReg_backup.saveSr
 324              		.loc 1 79 0
 325 000a 0880     		strh	r0, [r1]	@ movhi
 326              		.loc 1 80 0
 327 000c 1A80     		strh	r2, [r3]	@ movhi
 328 000e 7047     		bx	lr
 329              	.L6:
 330              		.align	2
 331              	.L5:
 332 0010 00000000 		.word	.LANCHOR0
 333 0014 08650040 		.word	1073767688
 334 0018 18650040 		.word	1073767704
 335              		.cfi_endproc
 336              	.LFE1:
 337              		.size	ConsolePort_1_DataReg_RestoreConfig, .-ConsolePort_1_DataReg_RestoreConfig
 338              		.section	.text.ConsolePort_1_DataReg_Sleep,"ax",%progbits
 339              		.align	2
 340              		.global	ConsolePort_1_DataReg_Sleep
 341              		.thumb
 342              		.thumb_func
 343              		.type	ConsolePort_1_DataReg_Sleep, %function
 344              	ConsolePort_1_DataReg_Sleep:
 345              	.LFB2:
  81:.\Generated_Source\PSoC5/ConsolePort_1_DataReg_PM.c **** 
  82:.\Generated_Source\PSoC5/ConsolePort_1_DataReg_PM.c ****     #if(CY_UDB_V0)
  83:.\Generated_Source\PSoC5/ConsolePort_1_DataReg_PM.c ****         ConsolePort_1_DataReg_SR_STATUS_MASK = ((uint8) ConsolePort_1_DataReg_backup.saveSrIntMask)
  84:.\Generated_Source\PSoC5/ConsolePort_1_DataReg_PM.c ****     #endif /* (CY_UDB_V0) */
  85:.\Generated_Source\PSoC5/ConsolePort_1_DataReg_PM.c **** }
  86:.\Generated_Source\PSoC5/ConsolePort_1_DataReg_PM.c **** 
  87:.\Generated_Source\PSoC5/ConsolePort_1_DataReg_PM.c **** 
  88:.\Generated_Source\PSoC5/ConsolePort_1_DataReg_PM.c **** /*******************************************************************************
  89:.\Generated_Source\PSoC5/ConsolePort_1_DataReg_PM.c **** * Function Name: ConsolePort_1_DataReg_Sleep
  90:.\Generated_Source\PSoC5/ConsolePort_1_DataReg_PM.c **** ********************************************************************************
  91:.\Generated_Source\PSoC5/ConsolePort_1_DataReg_PM.c **** *
  92:.\Generated_Source\PSoC5/ConsolePort_1_DataReg_PM.c **** * Summary:
ARM GAS  C:\Users\Thomas\AppData\Local\Temp\ccB6mzKJ.s 			page 23


  93:.\Generated_Source\PSoC5/ConsolePort_1_DataReg_PM.c **** *  Prepare the component to enter a Sleep mode.
  94:.\Generated_Source\PSoC5/ConsolePort_1_DataReg_PM.c **** *
  95:.\Generated_Source\PSoC5/ConsolePort_1_DataReg_PM.c **** * Parameters:
  96:.\Generated_Source\PSoC5/ConsolePort_1_DataReg_PM.c **** *  None.
  97:.\Generated_Source\PSoC5/ConsolePort_1_DataReg_PM.c **** *
  98:.\Generated_Source\PSoC5/ConsolePort_1_DataReg_PM.c **** * Return:
  99:.\Generated_Source\PSoC5/ConsolePort_1_DataReg_PM.c **** *  None.
 100:.\Generated_Source\PSoC5/ConsolePort_1_DataReg_PM.c **** *
 101:.\Generated_Source\PSoC5/ConsolePort_1_DataReg_PM.c **** * Reentrant:
 102:.\Generated_Source\PSoC5/ConsolePort_1_DataReg_PM.c **** *  No.
 103:.\Generated_Source\PSoC5/ConsolePort_1_DataReg_PM.c **** *
 104:.\Generated_Source\PSoC5/ConsolePort_1_DataReg_PM.c **** *******************************************************************************/
 105:.\Generated_Source\PSoC5/ConsolePort_1_DataReg_PM.c **** void ConsolePort_1_DataReg_Sleep(void) 
 106:.\Generated_Source\PSoC5/ConsolePort_1_DataReg_PM.c **** {
 346              		.loc 1 106 0
 347              		.cfi_startproc
 348              		@ args = 0, pretend = 0, frame = 0
 349              		@ frame_needed = 0, uses_anonymous_args = 0
 350 0000 10B5     		push	{r4, lr}
 351              		.cfi_def_cfa_offset 8
 352              		.cfi_offset 4, -8
 353              		.cfi_offset 14, -4
 107:.\Generated_Source\PSoC5/ConsolePort_1_DataReg_PM.c ****     ConsolePort_1_DataReg_backup.enableState = ((uint8) ConsolePort_1_DataReg_IS_ENABLED);
 354              		.loc 1 107 0
 355 0002 074B     		ldr	r3, .L9
 356 0004 074C     		ldr	r4, .L9+4
 357 0006 1B78     		ldrb	r3, [r3]	@ zero_extendqisi2
 358 0008 03F00103 		and	r3, r3, #1
 359 000c 2370     		strb	r3, [r4]
 108:.\Generated_Source\PSoC5/ConsolePort_1_DataReg_PM.c **** 
 109:.\Generated_Source\PSoC5/ConsolePort_1_DataReg_PM.c ****     ConsolePort_1_DataReg_Stop();
 360              		.loc 1 109 0
 361 000e FFF7FEFF 		bl	ConsolePort_1_DataReg_Stop
 362              	.LVL0:
 363              	.LBB6:
 364              	.LBB7:
  53:.\Generated_Source\PSoC5/ConsolePort_1_DataReg_PM.c ****     ConsolePort_1_DataReg_backup.saveSrA1Reg   = CY_GET_REG16(ConsolePort_1_DataReg_SHIFT_REG_VALUE
 365              		.loc 1 53 0
 366 0012 054A     		ldr	r2, .L9+8
  54:.\Generated_Source\PSoC5/ConsolePort_1_DataReg_PM.c **** 
 367              		.loc 1 54 0
 368 0014 054B     		ldr	r3, .L9+12
  53:.\Generated_Source\PSoC5/ConsolePort_1_DataReg_PM.c ****     ConsolePort_1_DataReg_backup.saveSrA1Reg   = CY_GET_REG16(ConsolePort_1_DataReg_SHIFT_REG_VALUE
 369              		.loc 1 53 0
 370 0016 1288     		ldrh	r2, [r2]
  54:.\Generated_Source\PSoC5/ConsolePort_1_DataReg_PM.c **** 
 371              		.loc 1 54 0
 372 0018 1B88     		ldrh	r3, [r3]
  53:.\Generated_Source\PSoC5/ConsolePort_1_DataReg_PM.c ****     ConsolePort_1_DataReg_backup.saveSrA1Reg   = CY_GET_REG16(ConsolePort_1_DataReg_SHIFT_REG_VALUE
 373              		.loc 1 53 0
 374 001a 6280     		strh	r2, [r4, #2]	@ movhi
  54:.\Generated_Source\PSoC5/ConsolePort_1_DataReg_PM.c **** 
 375              		.loc 1 54 0
 376 001c A380     		strh	r3, [r4, #4]	@ movhi
 377 001e 10BD     		pop	{r4, pc}
 378              	.L10:
 379              		.align	2
ARM GAS  C:\Users\Thomas\AppData\Local\Temp\ccB6mzKJ.s 			page 24


 380              	.L9:
 381 0020 79650040 		.word	1073767801
 382 0024 00000000 		.word	.LANCHOR0
 383 0028 08650040 		.word	1073767688
 384 002c 18650040 		.word	1073767704
 385              	.LBE7:
 386              	.LBE6:
 387              		.cfi_endproc
 388              	.LFE2:
 389              		.size	ConsolePort_1_DataReg_Sleep, .-ConsolePort_1_DataReg_Sleep
 390              		.section	.text.ConsolePort_1_DataReg_Wakeup,"ax",%progbits
 391              		.align	2
 392              		.global	ConsolePort_1_DataReg_Wakeup
 393              		.thumb
 394              		.thumb_func
 395              		.type	ConsolePort_1_DataReg_Wakeup, %function
 396              	ConsolePort_1_DataReg_Wakeup:
 397              	.LFB3:
 110:.\Generated_Source\PSoC5/ConsolePort_1_DataReg_PM.c ****     ConsolePort_1_DataReg_SaveConfig();
 111:.\Generated_Source\PSoC5/ConsolePort_1_DataReg_PM.c **** }
 112:.\Generated_Source\PSoC5/ConsolePort_1_DataReg_PM.c **** 
 113:.\Generated_Source\PSoC5/ConsolePort_1_DataReg_PM.c **** 
 114:.\Generated_Source\PSoC5/ConsolePort_1_DataReg_PM.c **** /*******************************************************************************
 115:.\Generated_Source\PSoC5/ConsolePort_1_DataReg_PM.c **** * Function Name: ConsolePort_1_DataReg_Wakeup
 116:.\Generated_Source\PSoC5/ConsolePort_1_DataReg_PM.c **** ********************************************************************************
 117:.\Generated_Source\PSoC5/ConsolePort_1_DataReg_PM.c **** *
 118:.\Generated_Source\PSoC5/ConsolePort_1_DataReg_PM.c **** * Summary:
 119:.\Generated_Source\PSoC5/ConsolePort_1_DataReg_PM.c **** *  Restores and enables the user configuration.
 120:.\Generated_Source\PSoC5/ConsolePort_1_DataReg_PM.c **** *
 121:.\Generated_Source\PSoC5/ConsolePort_1_DataReg_PM.c **** * Parameters:
 122:.\Generated_Source\PSoC5/ConsolePort_1_DataReg_PM.c **** *  None.
 123:.\Generated_Source\PSoC5/ConsolePort_1_DataReg_PM.c **** *
 124:.\Generated_Source\PSoC5/ConsolePort_1_DataReg_PM.c **** * Return:
 125:.\Generated_Source\PSoC5/ConsolePort_1_DataReg_PM.c **** *  None.
 126:.\Generated_Source\PSoC5/ConsolePort_1_DataReg_PM.c **** *
 127:.\Generated_Source\PSoC5/ConsolePort_1_DataReg_PM.c **** *******************************************************************************/
 128:.\Generated_Source\PSoC5/ConsolePort_1_DataReg_PM.c **** void ConsolePort_1_DataReg_Wakeup(void) 
 129:.\Generated_Source\PSoC5/ConsolePort_1_DataReg_PM.c **** {
 398              		.loc 1 129 0
 399              		.cfi_startproc
 400              		@ args = 0, pretend = 0, frame = 0
 401              		@ frame_needed = 0, uses_anonymous_args = 0
 402              		@ link register save eliminated.
 403 0000 10B4     		push	{r4}
 404              		.cfi_def_cfa_offset 4
 405              		.cfi_offset 4, -4
 406              	.LBB8:
 407              	.LBB9:
  79:.\Generated_Source\PSoC5/ConsolePort_1_DataReg_PM.c ****     CY_SET_REG16(ConsolePort_1_DataReg_SHIFT_REG_VALUE_LSB_PTR, ConsolePort_1_DataReg_backup.saveSr
 408              		.loc 1 79 0
 409 0002 084B     		ldr	r3, .L16
 410 0004 0848     		ldr	r0, .L16+4
 411 0006 5C88     		ldrh	r4, [r3, #2]
  80:.\Generated_Source\PSoC5/ConsolePort_1_DataReg_PM.c **** 
 412              		.loc 1 80 0
 413 0008 9988     		ldrh	r1, [r3, #4]
 414 000a 084A     		ldr	r2, .L16+8
ARM GAS  C:\Users\Thomas\AppData\Local\Temp\ccB6mzKJ.s 			page 25


  79:.\Generated_Source\PSoC5/ConsolePort_1_DataReg_PM.c ****     CY_SET_REG16(ConsolePort_1_DataReg_SHIFT_REG_VALUE_LSB_PTR, ConsolePort_1_DataReg_backup.saveSr
 415              		.loc 1 79 0
 416 000c 0480     		strh	r4, [r0]	@ movhi
  80:.\Generated_Source\PSoC5/ConsolePort_1_DataReg_PM.c **** 
 417              		.loc 1 80 0
 418 000e 1180     		strh	r1, [r2]	@ movhi
 419              	.LBE9:
 420              	.LBE8:
 130:.\Generated_Source\PSoC5/ConsolePort_1_DataReg_PM.c ****     ConsolePort_1_DataReg_RestoreConfig();
 131:.\Generated_Source\PSoC5/ConsolePort_1_DataReg_PM.c **** 
 132:.\Generated_Source\PSoC5/ConsolePort_1_DataReg_PM.c ****     if(0u != ConsolePort_1_DataReg_backup.enableState)
 421              		.loc 1 132 0
 422 0010 1B78     		ldrb	r3, [r3]	@ zero_extendqisi2
 423 0012 13B9     		cbnz	r3, .L15
 133:.\Generated_Source\PSoC5/ConsolePort_1_DataReg_PM.c ****     {
 134:.\Generated_Source\PSoC5/ConsolePort_1_DataReg_PM.c ****         ConsolePort_1_DataReg_Enable();
 135:.\Generated_Source\PSoC5/ConsolePort_1_DataReg_PM.c ****     }
 136:.\Generated_Source\PSoC5/ConsolePort_1_DataReg_PM.c **** }
 424              		.loc 1 136 0
 425 0014 5DF8044B 		ldr	r4, [sp], #4
 426              		.cfi_remember_state
 427              		.cfi_restore 4
 428              		.cfi_def_cfa_offset 0
 429 0018 7047     		bx	lr
 430              	.L15:
 431              		.cfi_restore_state
 432 001a 5DF8044B 		ldr	r4, [sp], #4
 433              		.cfi_restore 4
 434              		.cfi_def_cfa_offset 0
 134:.\Generated_Source\PSoC5/ConsolePort_1_DataReg_PM.c ****     }
 435              		.loc 1 134 0
 436 001e FFF7FEBF 		b	ConsolePort_1_DataReg_Enable
 437              	.LVL1:
 438              	.L17:
 439 0022 00BF     		.align	2
 440              	.L16:
 441 0024 00000000 		.word	.LANCHOR0
 442 0028 08650040 		.word	1073767688
 443 002c 18650040 		.word	1073767704
 444              		.cfi_endproc
 445              	.LFE3:
 446              		.size	ConsolePort_1_DataReg_Wakeup, .-ConsolePort_1_DataReg_Wakeup
 447              		.bss
 448              		.align	2
 449              		.set	.LANCHOR0,. + 0
 450              		.type	ConsolePort_1_DataReg_backup, %object
 451              		.size	ConsolePort_1_DataReg_backup, 6
 452              	ConsolePort_1_DataReg_backup:
 453 0000 00000000 		.space	6
 453      0000
 454 0006 0000     		.text
 455              	.Letext0:
 456              		.file 2 ".\\Generated_Source\\PSoC5\\cytypes.h"
 457              		.file 3 ".\\Generated_Source\\PSoC5\\ConsolePort_1_DataReg.h"