ARM GAS  C:\Users\Thomas\AppData\Local\Temp\ccmrYW49.s 			page 1


   1              		.syntax unified
   2              		.cpu cortex-m3
   3              		.fpu softvfp
   4              		.eabi_attribute 20, 1
   5              		.eabi_attribute 21, 1
   6              		.eabi_attribute 23, 3
   7              		.eabi_attribute 24, 1
   8              		.eabi_attribute 25, 1
   9              		.eabi_attribute 26, 1
  10              		.eabi_attribute 30, 2
  11              		.eabi_attribute 34, 1
  12              		.eabi_attribute 18, 4
  13              		.thumb
  14              		.file	"ConsolePort_2_RegD1_PM.c"
  15              		.text
  16              	.Ltext0:
  17              		.section	.gnu.lto_.profile.be9c505c,"",%progbits
  18 0000 789C6366 		.ascii	"x\234cf```a\200\000F\006cY\000\000\367\000Y"
  18      60606061 
  18      80004606 
  18      63590000 
  18      F70059
  19              		.text
  20              		.section	.gnu.lto_.jmpfuncs.be9c505c,"",%progbits
  21 0000 789C6366 		.ascii	"x\234cf\300\016\004\2404\013\0203100C\231\014\000\002"
  21      C00E04A0 
  21      340B1033 
  21      31303043 
  21      990C0002 
  22 0014 C70021   		.ascii	"\307\000!"
  23              		.text
  24              		.section	.gnu.lto_.inline.be9c505c,"",%progbits
  25 0000 789C6366 		.ascii	"x\234cf\300\016\"\2404\013\003\003;\033#\003\023\307"
  25      C00E22A0 
  25      340B0303 
  25      3B1B2303 
  25      13C7
  26 0012 013B06B6 		.ascii	"\001;\006\266\005\362L 1&L!f\006\036\021\240\220@C-"
  26      05F24C20 
  26      31264C21 
  26      66061E11 
  26      A0904043 
  27 0027 5C88910B 		.ascii	"\\\210\221\013\254\235\233\027(\316\267!\027U\234\001"
  27      AC9D9B17 
  27      28CEB721 
  27      17559C01 
  28 0037 00917408 		.ascii	"\000\221t\010="
  28      3D
  29              		.text
  30              		.section	.gnu.lto_.pureconst.be9c505c,"",%progbits
  31 0000 789C6366 		.ascii	"x\234cf``\340d\200\000\026\006)&)f)\026)\000\002\321"
  31      6060E064 
  31      80001606 
  31      29262966 
  31      29162900 
  32 0016 0082     		.ascii	"\000\202"
  33              		.text
ARM GAS  C:\Users\Thomas\AppData\Local\Temp\ccmrYW49.s 			page 2


  34              		.section	.gnu.lto_ConsolePort_2_RegD1_SaveConfig.be9c505c,"",%progbits
  35 0000 789C8D91 		.ascii	"x\234\215\221\315K\033Q\024\305\357\271\031\207\024"
  35      CD4B1B51 
  35      14C5EFB9 
  35      198714
  36 000f 114A97FE 		.ascii	"\021J\227\376\003\256T*v\355\302\202\253B\320m`*:\270"
  36      03AE542A 
  36      76EDC282 
  36      AB42D06D 
  36      602A3AB8 
  37 0023 910C44BB 		.ascii	"\221\014D\273\024g$\210X\250\241+\361\013\264\210\266"
  37      14672488 
  37      58A8A12B 
  37      F10BB488 
  37      B6
  38 0034 5163ADBA 		.ascii	"Qc\255\272\036\273\352\246-EK\301\202u\021E7\3324\220"
  38      1EBBEAA6 
  38      2D454BC1 
  38      82751145 
  38      37DA3490 
  39 0048 3088C67B 		.ascii	"0\210\306{'hEA|\360>\357y\347\376\356{\021\272\333j"
  39      27684541 
  39      7CF03EEF 
  39      79E7FEEE 
  39      7B11BADB 
  40 005d A51F82A8 		.ascii	"\245\037\202\250YfD\010\234\376F\344E\031\320\005\201"
  40      59664408 
  40      9CFE46E4 
  40      4519D005 
  40      81
  41 006e 06198338 		.ascii	"\006\031\2038\346<#\355g\306\253\353\346]\327\375;\367"
  41      E63C23ED 
  41      67C6ABEB 
  41      E65DD7FD 
  41      3BF7
  42 0080 D58BF908 		.ascii	"\325\213\371\010\230\250\300\025\037,\240\216D\224O"
  42      98A8C015 
  42      1F2CA08E 
  42      44944F
  43 008f 9DFFAA36 		.ascii	"\235\377\2526S\"z\\\211a\021\246\370S\366\211\357\226"
  43      53227A5C 
  43      896111A6 
  43      F853F689 
  43      EF96
  44 00a1 CB858DAD 		.ascii	"\313\205\215\255\"L\246\200a\350@\224\023\221\246:`"
  44      224CA680 
  44      61E84094 
  44      1391A63A 
  44      60
  45 00b2 D639B28B 		.ascii	"\3269\262\213\317\305\321\223\341\032\275Wb\315[\336"
  45      CFC5D193 
  45      E11ABD57 
  45      62CD5BDE 
  46 00c2 DFD98C1E 		.ascii	"\337\331\214\036q\300<\372\305s\015\315\362'\367\375"
  46      71C03CFA 
  46      C5730DCD 
  46      F227F7FD 
ARM GAS  C:\Users\Thomas\AppData\Local\Temp\ccmrYW49.s 			page 3


  47 00d2 47E58874 		.ascii	"G\345\210t{\366\363\2675\215I/%H\021\274G->@\012C\006"
  47      7BF6F3B7 
  47      358D492F 
  47      254811BC 
  47      472D3E40 
  48 00e9 D3A05D0C 		.ascii	"\323\240]\014\275\235mT;Q\316l\277Y\341\2013w\304\215"
  48      BD9D6D54 
  48      3B51CE6C 
  48      BF59E181 
  48      3377C48D 
  49 00fd 066C9C2B 		.ascii	"\006l\234+\340M;#\334.z\251)\250\237\253\252*,a\000"
  49      E04D3B23 
  49      DC2E7AA9 
  49      29A89FAB 
  49      AA2A2C61 
  50 0112 CB6A28B1 		.ascii	"\313j(\261\213\245\2615\263>#\365\371-\001\233X\021"
  50      8BA5B135 
  50      B33E23F5 
  50      F92D019B 
  50      5811
  51 0124 E1BFF00D 		.ascii	"\341\277\360\015\220E\275\000SX@\361\252\000C\356\274"
  51      9045BD00 
  51      535840F1 
  51      AA0043EE 
  51      BC
  52 0135 DB5B7819 		.ascii	"\333[x\031\302N\\\361\277>\012N\037\375'^\275&\376\370"
  52      C24E5CF1 
  52      BF3E0A4E 
  52      1FFD275E 
  52      BD26FEF8 
  53 0149 40E2DB88 		.ascii	"@\342\333\210k\367 ~\012\021\365\017\260\256\210\006"
  53      6BF7207E 
  53      0A11F50F 
  53      B0AE8806 
  54 0159 EDC1F34B 		.ascii	"\355\301\363KU\232@\301s\022\223\227\027\347\246\206"
  54      559A40C1 
  54      73129397 
  54      17E7A686 
  55 0169 789B9DB0 		.ascii	"x\233\235\260\223\235\375v\267\325\341\274Jv\331\361"
  55      939DFD76 
  55      B7D5E1BC 
  55      4A76D9F1 
  56 0179 5887D3FA 		.ascii	"X\207\323\372,\336\352$\372\234^;\346$\373\255&\253"
  56      2CDEEA24 
  56      FA9C5E3B 
  56      E624FBAD 
  56      26AB
  57 018b DDEE79FE 		.ascii	"\335\356y\376\324\212\275h\350\242K\022G\301\362"
  57      D48ABD68 
  57      E8A24B12 
  57      47C1F2
  58              		.text
  59              		.section	.gnu.lto_ConsolePort_2_RegD1_RestoreConfig.be9c505c,"",%progbits
  60 0000 789C7590 		.ascii	"x\234u\220;K\003A\024\205\357\271\331,\021\033\261\012"
  60      3B4B0341 
  60      1485EFB9 
  60      D92C111B 
ARM GAS  C:\Users\Thomas\AppData\Local\Temp\ccmrYW49.s 			page 4


  60      B10A
  61 0012 F9031641 		.ascii	"\371\003\026A\301\240\277 \242\225\020\265\015\254\022"
  61      C1A0BF20 
  61      A29510B5 
  61      0DAC12
  62 0021 171BC942 		.ascii	"\027\033\311B\3242dW\"\210\202\257J|5\"F\343[\261\016"
  62      D4326457 
  62      228882AF 
  62      4A7C3522 
  62      46E35BB1 
  63 0036 56568A18 		.ascii	"VV\212\030Q\014D\213\010Zi\264\220E4\316lP\36150\317"
  63      510C448B 
  63      085A69B4 
  63      904534CE 
  63      6C50F135 
  64 004c 7BE69C6F 		.ascii	"{\346\234o\306E\277\233O\364\013\0205\210\031.\002O"
  64      C645BF9B 
  64      4FF40B10 
  64      3588192E 
  64      024F
  65 005e 1C11591E 		.ascii	"\034\021Y\036\006\344\202@\011F\002w\\dLd\322\323\225"
  65      06E48240 
  65      09460277 
  65      5C644C64 
  65      D2D395
  66 0071 354BA669 		.ascii	"5K\246i>\034\354z\207\2746\023=q\331\006\313\250!\241"
  66      3E1CEC7A 
  66      87BC3613 
  66      3D71D906 
  66      CBA821A1 
  67 0085 29265FCF 		.ascii	")&_\317+\325\244\320T\225kHA\025\366\264Y\2351K\245"
  67      2BD5A4D0 
  67      54956B48 
  67      4115F6B4 
  67      599D314B 
  68 009a A7A3C994 		.ascii	"\247\243\311\224\037*\223\315P\344@T\020*\031u\303,"
  68      1F2A93CD 
  68      50E44054 
  68      102A1975 
  68      C32C
  69 00ac 67D72506 		.ascii	"g\327%\006\367\213\307m\362\3363\313\330\205\323\261"
  69      F78BC76D 
  69      F2DE33CB 
  69      D885D3B1 
  70 00bc 0D8EBF98 		.ascii	"\015\216\277\230\303\246\307f~\225\246\342\364\252p"
  70      C3A6C766 
  70      7E95A6E2 
  70      F4AA70
  71 00cb 7CE2B965 		.ascii	"|\342\271eq\342lSVr\016\363\230\265L\251ra\005q\254"
  71      71E26C53 
  71      56720EF3 
  71      98B54CA9 
  71      72610571 
  72 00e0 C2E7D4DE 		.ascii	"\302\347\324\336\326\306w\324Z\277\315\012\322B\363"
  72      D6C677D4 
  72      5ABFCD0A 
  72      D242F3
ARM GAS  C:\Users\Thomas\AppData\Local\Temp\ccmrYW49.s 			page 5


  73 00ef E820630D 		.ascii	"\350 c\015\265t\211\203)\310$\241*]g\367\035C\367\310"
  73      B5748983 
  73      29C824A1 
  73      2A5D67F7 
  73      1D43F7C8 
  74 0103 A1652ADF 		.ascii	"\241e*\3372\334\216\317\313YN\223\021I\330\254b\035"
  74      32DC8ECF 
  74      CB594E93 
  74      1149D8AC 
  74      621D
  75 0115 3E6CC804 		.ascii	">l\310\004l\012S\201J\222|2\2132\271\362/\371O\324\255"
  75      6C0A5381 
  75      4A927C32 
  75      8B32B9F2 
  75      2FF94FD4 
  76 012a BF51B71D 		.ascii	"\277Q\267\035T\371u\330\371\201\272\230_\356t\260f>"
  76      54F975D8 
  76      F981BA98 
  76      5FEE74B0 
  76      663E
  77 013c 48476FED 		.ascii	"HGo\355\373\212/\266\335O\266=\207M\241<\254L\256Y\336"
  77      FB8A2FB6 
  77      DD4FB63D 
  77      874DA13C 
  77      AC4CAE59 
  78 0151 978F2F08 		.ascii	"\227\217/\010_\361\327\002(P\027n\321\243z\254\253_"
  78      5FF1D702 
  78      2850176E 
  78      D1A37AAC 
  78      AB5F
  79 0163 EFD63A8C 		.ascii	"\357\326:\214\201XD\017\207:\214`c8hD\373\214^=d\304"
  79      8158440F 
  79      873A8C60 
  79      63386844 
  79      FB8C5E3D 
  80 0179 FAB580D6 		.ascii	"\372\265\200\326\256\3674\325k\241\326\272\010\275\003"
  80      AEF734D5 
  80      6BA1D6BA 
  80      08BD03
  81 0188 D893B837 		.ascii	"\330\223\2707"
  82              		.text
  83              		.section	.gnu.lto_ConsolePort_2_RegD1_Sleep.be9c505c,"",%progbits
  84 0000 789C9592 		.ascii	"x\234\225\222\337KSa\030\307\237\357{\266\263_\016\242"
  84      DF4B5361 
  84      18C79FEF 
  84      7BB6B35F 
  84      0EA2
  85 0012 2BF11FF0 		.ascii	"+\361\037\360\312ERt\331\205\201W\301\310\333\321\012"
  85      CA455274 
  85      D9858157 
  85      C1C8DBD1 
  85      0A
  86 0023 1B418483 		.ascii	"\033A\204\203e\227\303stYX\224\215.\242\\`\221Z3\255"
  86      6597C373 
  86      74595894 
  86      8D2EA25C 
  86      60915A33 
ARM GAS  C:\Users\Thomas\AppData\Local\Temp\ccmrYW49.s 			page 6


  87 0038 59B35AE6 		.ascii	"Y\263Z\346\251\233uS!\005\205\305*0ZD\321\032h\007\263"
  87      A99B7553 
  87      210585C5 
  87      2A305A44 
  87      D11A6807 
  88 004d F5BCEFC9 		.ascii	"\365\274\357\3110\305\240\003\347\375\371}\237\347\363"
  88      30C5A003 
  88      E7FDF97D 
  88      9FE7F3
  89 005c 7E9F57A3 		.ascii	"~\237W\243\265_\003\377\0074\242-\334C#\210\376'D\246"
  89      B55F03FF 
  89      0734A22D 
  89      DC432388 
  89      FE2744A6 
  90 0070 57007240 		.ascii	"W\000r@\240.\201.|\024\025\201~+{6\320x\3310\214\257"
  90      A02E812E 
  90      7C141581 
  90      7E2B7B36 
  90      D078D930 
  91 0086 E942FD91 		.ascii	"\351B\375\221z[\020U\205\023\006\303h$\326TRK/\002z"
  91      7A5B1055 
  91      851306C3 
  91      6824D654 
  91      524B2F02 
  92 009b 8A351B9C 		.ascii	"\2125\033\234=\214@\007\367\343\033-\243V\233\370|\272"
  92      3D8C4007 
  92      F7E31B2D 
  92      A3569BF8 
  92      7CBA
  93 00ad BC0D7520 		.ascii	"\274\015u [p2n\\\334\010\267\034\371\270\321\374\262"
  93      5B70326E 
  93      5CDC08B7 
  93      1CF9B8D1 
  93      FCB2
  94 00bf 219AE393 		.ascii	"!\232\343\2232\375{!d\257\315\342\341|_)S\202\214\266"
  94      32FD7B21 
  94      64AFCDE2 
  94      E17C5F29 
  94      53828CB6 
  95 00d3 20344EB4 		.ascii	" 4N\264p|f2X\026\266p->2\015\227\314\375f\356\351\214"
  95      707C6632 
  95      5816B670 
  95      2D3E320D 
  95      97CCFD66 
  96 00ea 572D919C 		.ascii	"W-\221\234^\034\370\360\300\223\301y3\005[\270q\005"
  96      5E1CF8F0 
  96      C093C179 
  96      33055BB8 
  96      7105
  97 00fc 0DB80ABE 		.ascii	"\015\270\012\276.\262\310\200f\321\363]w\302\301\211"
  97      2EB2C880 
  97      66D1F35D 
  97      77C2C189 
  98 010c 58CC9473 		.ascii	"X\314\224s.y\034 \214\262\222%\271\243?\334\216\310"
  98      2E791C20 
  98      8CB29225 
  98      B9A33FDC 
ARM GAS  C:\Users\Thomas\AppData\Local\Temp\ccmrYW49.s 			page 7


  98      8EC8
  99 011e C53A1699 		.ascii	"\305:\026\231C\205\023\036%\342@\327\224\250\273\344"
  99      4385131E 
  99      25E240D7 
  99      94A8BBE4 
 100 012e 71246E56 		.ascii	"q$nV\311yz0$\027X}\341\331\3111\221\\4\216\031^[\350"
 100      C9797A30 
 100      2417587D 
 100      E1D9C931 
 100      915C348E 
 101 0146 4BD28F95 		.ascii	"K\322\217\225\234\272\232\216\230\251\001HNC\252<\030"
 101      9CBA9A8E 
 101      98A90148 
 101      4E43AA3C 
 101      18
 102 0157 4312E312 		.ascii	"C\022\343\022\224\367~\216\236\312\351MY\266\323\332"
 102      94F77E8E 
 102      9ECAE94D 
 102      59B6D3DA 
 103 0167 6E0B2FAE 		.ascii	"n\013/\256\263\360\233\262\0347\320\304)\3515z\254B"
 103      B3F09BB2 
 103      1C37D0C4 
 103      29E9357A 
 103      AC42
 104 0179 51C884B4 		.ascii	"Q\310\204\264:\243\257\2520sH\262\255~R.~\351\015\376"
 104      3AA3AFAA 
 104      307348B2 
 104      AD7E522E 
 104      7EE90DFE 
 105 018d 55266BAA 		.ascii	"U&k\252(T\221\252\354\365\252\002b\202\203\022n\312"
 105      285491AA 
 105      ECF5AA02 
 105      62828312 
 105      6ECA
 106 019f CBF978AF 		.ascii	"\313\371x\257\366\366y^\201\007\372\326x\036P\274/\207"
 106      F6F6795E 
 106      8107FAD6 
 106      781E50BC 
 106      2F87
 107 01b1 5E9502F2 		.ascii	"^\225\002\362.gL\316_\207[lz^\231>\351\230\336\235\256"
 107      2E674CCE 
 107      5F875B6C 
 107      7A5E993E 
 107      E998DE9D 
 108 01c6 E477CB88 		.ascii	"\344w\313\210\353\272\263\332\216\333\353\332\021\304"
 108      EBBAB3DA 
 108      8EDBEBDA 
 108      11C4
 109 01d4 1D65071C 		.ascii	"\035e\007\034P\334\225\216\370\234k\316\367\006\035"
 109      50DC958E 
 109      F89C6BCE 
 109      F7061D
 110 01e3 6E3F1FBB 		.ascii	"n?\037\273T\032\336\243\030\317-c\027\036\177z\247\257"
 110      541ADEA3 
 110      18CF2D63 
 110      171E7F7A 
 110      A7AF
ARM GAS  C:\Users\Thomas\AppData\Local\Temp\ccmrYW49.s 			page 8


 111 01f5 E02CFCE1 		.ascii	"\340,\374\341\274\267\3149\270\351\2770\247\376\201"
 111      BCB7CC39 
 111      B8E9BF30 
 111      A7FE81
 112 0204 795F618A 		.ascii	"y_a\212\337\230\323\022\323O%\230\326t\253\252\033\311"
 112      DF98D312 
 112      D34F2598 
 112      D674ABAA 
 112      1BC9
 113 0216 170FF9D2 		.ascii	"\027\017\371\3229xs(\322\032\353\210%\366v\306\366E"
 113      39787328 
 113      D21AEB88 
 113      25F676C6 
 113      F645
 114 0228 DBE28713 		.ascii	"\333\342\207\023\355\261H\270-\336\2625\322\022\357"
 114      EDB148B8 
 114      2DDEB235 
 114      D212EF
 115 0237 38143F18 		.ascii	"8\024?\030\013\307\023\235\321\346\350\256\330\376\035"
 115      0BC7139D 
 115      D1E6E8AE 
 115      D8FE1D
 116 0246 9BA3E19D 		.ascii	"\233\243\341\235\241v\372\005\340-H\306"
 116      A176FA05 
 116      E02D48C6 
 117              		.text
 118              		.section	.gnu.lto_ConsolePort_2_RegD1_Wakeup.be9c505c,"",%progbits
 119 0000 789C8D92 		.ascii	"x\234\215\222\317K\024a\030\307\237\357;\343\314\272"
 119      CF4B1461 
 119      18C79FEF 
 119      3BE3CCBA 
 120 0010 EB213A89 		.ascii	"\353!:\211\207=\346!4\262\372\013\014\202 \330\362\272"
 120      873DE621 
 120      34B2FA0B 
 120      0C8220D8 
 120      F2BA
 121 0022 B0850D5D 		.ascii	"\260\205\015]\302\201\315\216\213\357\254\033\210H\232"
 121      C281CD8E 
 121      8BEFAC1B 
 121      88489A
 122 0031 7888CA0A 		.ascii	"x\210\312\012\"\265\326\264\265\332j\3672DD\004%\222"
 122      22B5D6B4 
 122      B5DA6AF7 
 122      32444404 
 122      2592
 123 0043 695A6C09 		.ascii	"iZl\011\006E\227\326=\310\022\266=\357\273\375r-h\340"
 123      064597D6 
 123      3DC812B6 
 123      3DEFBBFD 
 123      722D68E0 
 124 0057 9D77DEE7 		.ascii	"\235w\336\347\375\276\337\357\347e\036\203\266>{x,\011"
 124      FDBEDFEF 
 124      E7651E83 
 124      B63E7B78 
 124      2C09
 125 0069 A2BD3CA3 		.ascii	"\242\275<\243\216 \206^\020y\001!\214\\\230d\320\\\330"
 125      8E20865E 
ARM GAS  C:\Users\Thomas\AppData\Local\Temp\ccmrYW49.s 			page 9


 125      10790121 
 125      8C5C9864 
 125      D05CD8
 126 007c 45B2C180 		.ascii	"E\262\301\200Y-\233\200\372 P\2170L\364\340\223(\012"
 126      592D9B80 
 126      FA20508F 
 126      304CF4E0 
 126      93280A
 127 008f 0CF9E9F3 		.ascii	"\014\371\351\363\241\346\353R\312/\311\271\3063\215"
 127      A1E6EB52 
 127      CA2FC9B9 
 127      C6338D
 128 009e 65F62B89 		.ascii	"e\366+\211\252?\306\321L\254)\2466\026CV\2125\333\252"
 128      AA3FC6D1 
 128      4CAC29A6 
 128      36164356 
 128      8A35DBAA 
 129 00b2 7B988005 		.ascii	"{\230\200\005\236\247\267\373\262R)=\036\356\333!\352"
 129      9EA7B7FB 
 129      B252293D 
 129      1EEEDB21 
 129      EA
 130 00c3 4D2A0B58 		.ascii	"M*\013X\374\022\266z\021\255\362P\211\037x\301\263\261"
 130      FC12B67A 
 130      11ADF250 
 130      891F78C1 
 130      B3B1
 131 00d5 8C64B638 		.ascii	"\214d\2668{x\223\241?\022\324n%\201\332$\334`7\302M"
 131      7B7893A1 
 131      3F12D46E 
 131      2581DA24 
 131      DC6037C2 
 132 00ea 58EBC2E2 		.ascii	"X\353\302\342\275\313/\317N\211\304W\331'\003eal(\016"
 132      BDCB2FCF 
 132      4E89C457 
 132      D9270365 
 132      616C280E 
 133 00fe AEBE5B9D 		.ascii	"\256\276[\235\235\013|\024\\\321\313\011/u\011\243\270"
 133      9D0B7C14 
 133      5CD1CB09 
 133      2F7509A3 
 133      B8
 134 010f E849A532 		.ascii	"\350I\2452\221F\002\223h\322{\337&\007g\254\2264\233"
 134      91460293 
 134      68D27BDF 
 134      260767AC 
 134      96349B
 135 0122 5FBD6294 		.ascii	"_\275b\224E\035n\261r\215}t\022\246\320B\313x4\014\025"
 135      451D6EB1 
 135      728D7D74 
 135      12A6D042 
 135      CB78340C 
 136 0137 C9F2CAFB 		.ascii	"\311\362\312\373\371\254v\266\372\237z\322\334\024f"
 136      F9AC76B6 
 136      FA9F7AD2 
 136      DC1466
 137 0146 69C3D763 		.ascii	"i\303\327co\012!\0256\342q\230\215i4\341\266\012C\206"
ARM GAS  C:\Users\Thomas\AppData\Local\Temp\ccmrYW49.s 			page 10


 137      6F0A2115 
 137      36E27198 
 137      8D6934E1 
 137      B60A4386 
 138 015a 9D999AD4 		.ascii	"\235\231\232\324\225\317\315\243z\011\373\237\227\250"
 138      95CFCDA3 
 138      7A09FB9F 
 138      97A8
 139 0168 A59ED942 		.ascii	"\245\236\331B\275S\361\336\321\274\370\301{\267\206"
 139      BD53F1DE 
 139      D1BCF8C1 
 139      7BB786
 140 0177 F75A61FC 		.ascii	"\367Za\374\250f\273\360\0237\377\374\363\212\365\007"
 140      A866BBF0 
 140      1337FFFC 
 140      F38AF507 
 141 0187 DFBD5F7C 		.ascii	"\337\275_|Y\315gk\276\314\223dH\375\202ua\3767\340\375"
 141      59CD676B 
 141      BECC9364 
 141      48FD8275 
 141      61FE37E0 
 142 019c BF0106F0 		.ascii	"\277\001\006\360@\003\352\016y\310t\257\220Z\352\015"
 142      4003EA0E 
 142      79C874AF 
 142      905AEA0D 
 143 01ac FFF6F6C6 		.ascii	"\377\366\366\306\362\003\266B\344\336AN\035'\325\035"
 143      F203B642 
 143      E4DE414E 
 143      1D27D51D 
 144 01bc 06E5C2C6 		.ascii	"\006\345\302\306[\364\372\243\317\032\224\230j1\352"
 144      5BF4FAA3 
 144      CF1A9498 
 144      6A31EA
 145 01cb 4BCA1379 		.ascii	"K\312\023y$\270\261\202\372\214\251;\252\000\317\317"
 145      24B8B182 
 145      FA8CA93B 
 145      AA00CFCF 
 146 01db 1CD46748 		.ascii	"\034\324gH\365\033T\225\245m\255\321\003N\227\023?\326"
 146      F51B5495 
 146      A56DADD1 
 146      034E9713 
 146      3FD6
 147 01ed ED1C8F75 		.ascii	"\355\034\217u\270\247\343\235N4\322\341\266\357\213"
 147      B8A7E39D 
 147      4E34D2E1 
 147      B6EF8B
 148 01fc B6BB5DA7 		.ascii	"\266\273]\247\334\223N\304\215w\307\332bG\234\023\373"
 148      DC934EC4 
 148      8D77C7DA 
 148      62479C13 
 148      FB
 149 020d 77C72287 		.ascii	"w\307\"\207Z;\351;c|\022W"
 149      5A3BE93B 
 149      637C1257 
 150              		.text
 151              		.section	.gnu.lto_.symbol_nodes.be9c505c,"",%progbits
 152 0000 789C55C8 		.ascii	"x\234U\310A\015\2000\020\005\321\351n\267A\020\332\270"
ARM GAS  C:\Users\Thomas\AppData\Local\Temp\ccmrYW49.s 			page 11


 152      410D8030 
 152      1005D1E9 
 152      6EB74110 
 152      DAB8
 153 0012 FE4A4001 		.ascii	"\376J@\001\251\011\034p\306\003\011:\010$p(s{\343\300"
 153      A9091C70 
 153      C603093A 
 153      08247028 
 153      737BE3C0 
 154 0026 C49725C1 		.ascii	"\304\227%\301\274\203\304\322\006\002\232\311\315\224"
 154      BC83C4D2 
 154      06029AC9 
 154      CD94
 155 0034 FA6D2EFB 		.ascii	"\372m.\3739\313{\247P~M\255\017\213\242\243{\260\035"
 155      39CB7BA7 
 155      507E4DAD 
 155      0F8BA2A3 
 155      7BB01D
 156 0047 57F25C38 		.ascii	"W\362\\8\327\221\033\317\310\035\246"
 156      D7911BCF 
 156      C81DA6
 157              		.text
 158              		.section	.gnu.lto_.refs.be9c505c,"",%progbits
 159 0000 789C25C8 		.ascii	"x\234%\310\321\011\000 \014\304\320\244WA\\\304\375"
 159      D1090020 
 159      0CC4D0A4 
 159      57415CC4 
 159      FD
 160 0011 371469BE 		.ascii	"7\024i\276\036\011p\231\012-\355\372\300$\272t\353I"
 160      1E097099 
 160      0A2DEDFA 
 160      C024BA74 
 160      EB49
 161 0023 CFC2C503 		.ascii	"\317\302\305\003\015{\000w"
 161      0D7B0077 
 162              		.text
 163              		.section	.gnu.lto_.decls.be9c505c,"",%progbits
 164 0000 789C9594 		.ascii	"x\234\225\224\177LSW\024\307\337\351-\245?\011\011\211"
 164      7F4C5357 
 164      14C7DFE9 
 164      2DA53F09 
 164      0989
 165 0012 BAFEB174 		.ascii	"\272\376\261t\230\220m1LLF\374o*[\374\303l!\242\331"
 165      98906D31 
 165      4C4C46FC 
 165      6F2A5BFC 
 165      C36C21A2 
 166 0027 1F923064 		.ascii	"\037\2220do\314H(+e\211\177,\271\302\224\016\305(:\351"
 166      6FCC4828 
 166      2B65897F 
 166      2CB9C294 
 166      0EC5283A 
 167 003c 50973A70 		.ascii	"P\227:p\212J\005\004,\202\243\376\034?\206?\021\251"
 167      8A4A0504 
 167      2C82A3FE 
 167      1C3F863F 
 167      11A9
ARM GAS  C:\Users\Thomas\AppData\Local\Temp\ccmrYW49.s 			page 12


 168 004e 0E848A8E 		.ascii	"\016\204\212\216\315\250u\376$8\273s\357{\265\257\346"
 168      CDA875FE 
 168      2438BB73 
 168      EF7BB5AF 
 168      E6
 169 005f E1DC4B4E 		.ascii	"\341\334KN{\357{\347|\316\367\236{\357!\202 \264\200"
 169      7BEF7BE7 
 169      7CCEF79E 
 169      7BEF2182 
 169      20B480
 170 0072 2084F1B9 		.ascii	" \204\361\271\034/\010>\034\307\341\273L!\372\350\320"
 170      1C2F083E 
 170      1CC7E1BB 
 170      4C21FAE8 
 170      D0
 171 0083 0EA279D1 		.ascii	"\016\242y\321\032\321\232Y\014Z\033\032\272\013\027"
 171      1AD19A59 
 171      0C5A1B1A 
 171      BA0B17
 172 0092 85D887F9 		.ascii	"\205\330\207\371\306\313\014\033\332\020\332\025\264"
 172      C6CB0C1B 
 172      DA10DA15 
 172      B4
 173 009f 00DA39B4 		.ascii	"\000\3329\2643h\032\264\036\264~\231qp\032\226\367%"
 173      33681AB4 
 173      1EB47E99 
 173      71701A96 
 173      F725
 174 00b1 96927115 		.ascii	"\226\222q\025mP\205\345\235\206\305\264'\310\254\031"
 174      6D5085E5 
 174      9D86C5B4 
 174      27C8AC19 
 175 00c1 68C33273 		.ascii	"h\3032s\034-\250`\037C\273\211V\257\320\316\362\021"
 175      1C2DA860 
 175      1F43BB89 
 175      56AFD0CE 
 175      F211
 176 00d3 B45E452E 		.ascii	"\264^E.\"3[^\241\237\325\312\244\3109\335\032\2249\211"
 176      22335B5E 
 176      A19FD5CA 
 176      A4C839DD 
 176      1A943989 
 177 00e7 2247AF3C 		.ascii	"\"G\257<o\226\3275]\315\357k\240\335\373\260\3374\241"
 177      6F96D735 
 177      5DCDEF6B 
 177      A0DDFBB0 
 177      DF34A1
 178 00fa 8104A38D 		.ascii	"\201\004\243\215M\217Vu\273u85\033\265l\3321\025\034"
 178      4D8F5675 
 178      BB753835 
 178      1BB56CDA 
 178      31151C
 179 010d D0CEFC9E 		.ascii	"\320\316\374\236\342\263\271\214&j!s\006\354\005+\354"
 179      E2B3B98C 
 179      266A2173 
 179      06EC052B 
 179      EC
ARM GAS  C:\Users\Thomas\AppData\Local\Temp\ccmrYW49.s 			page 13


 180 011e 032B12EB 		.ascii	"\003+\022\353a&\376\256\320J\244\316\326\326*\013\321"
 180      6126FEAE 
 180      D04AA4CE 
 180      D6D62A0B 
 180      D1
 181 012f 001BD7BA 		.ascii	"\000\033\327\272\307\006\214s\366c\230\213\372\273\265"
 181      C7068C73 
 181      F663988B 
 181      FABBB5
 182 013e D17427AF 		.ascii	"\321t'\257\355\331h\261\375HG\033CC\003\0013\355\246"
 182      EDD968B1 
 182      FD48471B 
 182      43430301 
 182      33EDA6
 183 0151 FE70B88B 		.ascii	"\376p\270\213\002\207\301~ p\000\3460_6\346Ap\020l\030"
 183      0287C17E 
 183      207000E6 
 183      305F36E6 
 183      4170106C 
 184 0166 78EF5643 		.ascii	"x\357VC\237\206\254\340\364\323\217\007\376\001\016"
 184      9F86ACE0 
 184      F4D38F07 
 184      FE010E
 185 0175 F1ECACD5 		.ascii	"\361\354\254\325E\020\234\320\240 4D\010^N\030\332u"
 185      45109CD0 
 185      A0203444 
 185      085E4E18 
 185      DA75
 186 0187 6CD242BE 		.ascii	"l\322B\276\341\204\246\255\333\033\011\022<\215\236"
 186      E184A6AD 
 186      DB1B0912 
 186      3C8D9E
 187 0196 804CF880 		.ascii	"\200L\370\200\307\037R\304\037\212\3047\362\370\007"
 187      C71F52C4 
 187      1F8AC437 
 187      F2F807
 188 01a5 5BEBDA4C 		.ascii	"[\353\332L\244\0328\300\337{\317c\221\000\256=J@\223"
 188      A41A38C0 
 188      DF7BCF63 
 188      9100AE3D 
 188      4A4093
 189 01b8 02D01401 		.ascii	"\002\320\024\0014s\300\266\300\251g\026\322,\001n\005"
 189      3473C0B6 
 189      C0A96716 
 189      D22C016E 
 189      05
 190 01c9 7BEEF035 		.ascii	"{\356\3605\320\320\216?\202\363\177\240\273K\351\363"
 190      D0D08E3F 
 190      82F37FA0 
 190      BB4BE9F3 
 191 01d9 70582EC4 		.ascii	"pX.\304a\005\345p\204\322\302)?}[3\251#S\022\245*\034"
 191      6105E570 
 191      84D2C229 
 191      3F7D5B33 
 191      A9235312 
 192 01f0 1A259CE2 		.ascii	"\032%\234\342\251\254]oS\350hU\020Z#\2046N\270\376\344"
 192      A9AC5D6F 
ARM GAS  C:\Users\Thomas\AppData\Local\Temp\ccmrYW49.s 			page 14


 192      53E86855 
 192      105A2384 
 192      364EB8FE 
 193 0205 FA8978BE 		.ascii	"\372\211x\276\345s9c\235\317\227\300\267\\\307\246\017"
 193      E5733963 
 193      9DCF97C0 
 193      B75CC7A6 
 193      0F
 194 0216 D7D51DD2 		.ascii	"\327\325\035\322\221\355\322>\016v\225\227\353\211O"
 194      91EDD23E 
 194      0E769597 
 194      EB894F
 195 0225 9AACFDB9 		.ascii	"\232\254\375\271c#\213\233a\344[\271\251\257\3468\341"
 195      63238B9B 
 195      61E45BB9 
 195      A9AFE638 
 195      E1
 196 0236 D330FBAC 		.ascii	"\3230\373\254\011\004\266M\0220\246\270(-\245\241*J"
 196      0904B64D 
 196      1230A6B8 
 196      282DA5A1 
 196      2A4A
 197 0248 660930C7 		.ascii	"f\0110\307\012\357X\005\370\005R\320\215\353\201\016"
 197      0AEF5805 
 197      F80552D0 
 197      8DEB810E 
 198 0258 3C3E9D78 		.ascii	"<>\235x|\352\360p\204\236\367\354_RF\027\30010\302\321"
 198      7CEAF070 
 198      849EF7EC 
 198      5F524617 
 198      C03130C2 
 199 026d 178A7906 		.ascii	"\027\212y\006\371\300ty/\271\365$()\350\013>}`\346\312"
 199      F9C07479 
 199      2FB9F524 
 199      2829E80B 
 199      3E7D60E6 
 200 0282 13D9B4E6 		.ascii	"\023\331\264\346\312\315\207\204+\327\260\351\256\277"
 200      CACD8784 
 200      2BD7B0E9 
 200      AEBF
 201 0290 EF761AC8 		.ascii	"\357v\032\310\335X\2616Il\365\355\247-z>\015\207\011"
 201      DD58B136 
 201      496CF5ED 
 201      A72D7A3E 
 201      0D8709
 202 02a3 533B75C3 		.ascii	"S;u\303\273W\007)F&\303s\300\002p\006%\234\210J\260"
 202      BB570729 
 202      4626C373 
 202      C0027006 
 202      259C884A 
 203 02b8 C912F86A 		.ascii	"\311\022\370jh\031\215\333\227 \200\037\265\037G\355"
 203      68198DDB 
 203      9720801F 
 203      B51F47ED 
 204 02c8 701A1764 		.ascii	"p\032\027d\223\027t\022_\236\302\227\354\012\364v\337"
 204      93177412 
 204      5F9EC297 
ARM GAS  C:\Users\Thomas\AppData\Local\Temp\ccmrYW49.s 			page 15


 204      EC0AF476 
 204      DF
 205 02d9 8F278F24 		.ascii	"\217'\217$\005\317|ee\032\262\226\260I\334\251s\255"
 205      05CF7C65 
 205      651AB296 
 205      B049DCA9 
 205      73AD
 206 02eb 955A484E 		.ascii	"\225ZHNNJI\366 1\264\243|G\202\233z\216Ky\177\305\274"
 206      4E4A49F6 
 206      2031B4A3 
 206      7C47829B 
 206      7A8E4B79 
 207 0302 7D9014E5 		.ascii	"}\220\024\345\277\315\256\227\237]2\201\271\217\376"
 207      BFCDAE97 
 207      9F5D3281 
 207      B98FFE
 208 0311 D596ED47 		.ascii	"\325\226\355G\022+S\227\354+\227\226{\276\313\034\267"
 208      122B5397 
 208      EC2B9796 
 208      7BBECB1C 
 208      B7
 209 0322 F05B4AE9 		.ascii	"\360[J\351\002\207\000G\020\344\343w\224\271\242L\370"
 209      02870047 
 209      10E4E377 
 209      94B9A24C 
 209      F8
 210 0333 0D15F742 		.ascii	"\015\025\367B2\364\240\365C2_\033[\373\350\304<=s\022"
 210      32F4A0F5 
 210      43325F1B 
 210      5BFBE8C4 
 210      3C3D7312 
 211 0347 22A7457A 		.ascii	"\"\247Ezx\326;\276\317\374\245\204+\354VU\270\227+\304"
 211      78D63BBE 
 211      CFFCA584 
 211      2BEC5655 
 211      B8972BC4 
 212 035b 6AFE39EC 		.ascii	"j\3769\354\276g\200\224$N\234\322\001\234C\337\366h"
 212      BE678094 
 212      244E9CD2 
 212      019C43DF 
 212      F668
 213 036d 355902FE 		.ascii	"5Y\002\376\250\211\204\263\250\355U:\261\230c\033\332"
 213      A88984B3 
 213      A8ED553A 
 213      B198631B 
 213      DA
 214 037e 9AF4A492 		.ascii	"\232\364\244\222\027\023\306nW\\0\244\267P\227g\026"
 214      1713C66E 
 214      575C30A4 
 214      B7509767 
 214      16
 215 038f 4FC4FCD9 		.ascii	"O\304\374\331\261b1l7\372\245\177\346\332<rz\223v\366"
 215      B162316C 
 215      37FAA57F 
 215      E6DA3C72 
 215      7A9376F6 
 216 03a3 6EDCE3D0 		.ascii	"n\334\343\320\320\320\204f-\365\340n\262;\302\003\317"
ARM GAS  C:\Users\Thomas\AppData\Local\Temp\ccmrYW49.s 			page 16


 216      D0D08466 
 216      2DF5E06E 
 216      B23BC203 
 216      CF
 217 03b4 4B0A15E5 		.ascii	"K\012\025\345:\317\256\012\\\200t\001.\302l\326\037"
 217      3ACFAE0A 
 217      5C807401 
 217      2EC26CD6 
 217      1F
 218 03c5 CF5E1B21 		.ascii	"\317^\033!d\237\2248\344\252\274\2555\272\330yx\315"
 218      649F9438 
 218      E4AABCAD 
 218      35BAD879 
 218      78CD
 219 03d7 23A1A96E 		.ascii	"#\241\251n\030\256\001\371\234\205\236\327w\231{(\325"
 219      18AE01F9 
 219      9C859ED7 
 219      77997B28 
 219      D5
 220 03e8 C32096F4 		.ascii	"\303 \226\364R\264<\003\020=m*\350\313\352\247m\343"
 220      52B43C03 
 220      103D6D2A 
 220      E8CBEAA7 
 220      6DE3
 221 03fa C4A35A53 		.ascii	"\304\243ZSD\215\353\265B\352O\264\3574\231+\330\231"
 221      448DEBB5 
 221      42EA4FB4 
 221      EF34992B 
 221      D899
 222 040c C67E6EE8 		.ascii	"\306~n\350N\200+\250$\332\321\207\300\314\033\005\376"
 222      4E802BA8 
 222      24DAD187 
 222      C0CC1B05 
 222      FE
 223 041d A377E5FA 		.ascii	"\243w\345\372#\347\0151\336\254hQ\357\200\354\035\340"
 223      23E70D31 
 223      DEAC6851 
 223      EF80EC1D 
 223      E0
 224 042e DE7BB69C 		.ascii	"\336{\266\234!1\316\2031\350\253\262\363U\356\\\275"
 224      2131CE83 
 224      31E8ABB2 
 224      F355EE5C 
 224      BD
 225 043f BD6F673C 		.ascii	"\275og<\361\362\262j\307'G\236\304\203\325\220bucm\206"
 225      F1F2B26A 
 225      C727479E 
 225      C483D590 
 225      6275636D 
 226 0454 C12094F3 		.ascii	"\301 \224\363\036R\2729\361\253\027=d\004W\304>\011"
 226      1E52BA39 
 226      F1AB173D 
 226      640457C4 
 226      3E09
 227 0466 F03B32AF 		.ascii	"\360;2\257\313\035\304\205\315\003\337\3025\271\305"
 227      CB1DC485 
 227      CD03DFC2 
ARM GAS  C:\Users\Thomas\AppData\Local\Temp\ccmrYW49.s 			page 17


 227      35B9C5
 228 0475 498F1BDF 		.ascii	"I\217\033\337K \366\203\351h\365\206:=i\221v\261\365"
 228      4B20F683 
 228      E968F586 
 228      3A3D6991 
 228      76B1F5
 229 0488 7145BB45 		.ascii	"qE\273E\252\333\177\267)\334\302\201\263\025\203\006"
 229      AADB7FB7 
 229      29DCC281 
 229      B3158306 
 230 0498 A9B1BD1C 		.ascii	"\251\261\275\034qc\232\306\346y\226\246\207 \256\177"
 230      71639AC6 
 230      E67996A6 
 230      8720AE7F 
 231 04a8 34BAC963 		.ascii	"4\272\311c\020\355j\337\005k\372\3151\305\012\306\024"
 231      10ED6ADF 
 231      056BFACD 
 231      31C50AC6 
 231      14
 232 04b9 6B5C2ED6 		.ascii	"k\\.\3268/\326\210\333_\241\215\361f\035>\352}\023\314"
 232      382FD688 
 232      DB5FA18D 
 232      F1661D3E 
 232      EA7D13CC 
 233 04cd 91243814 		.ascii	"\221$8\024\336\314\260\027\026\333\013\304L\273\303"
 233      DECCB017 
 233      16DB0BC4 
 233      4CBBC3
 234 04dc 99332F67 		.ascii	"\2313/g\251\230\377aZNV\356\327\"\276\377bU\276n\361"
 234      A998FF61 
 234      5A4E56EE 
 234      D722BEFF 
 234      6255BE6E 
 235 04f1 27CB6D19 		.ascii	"'\313m\031\302\274\324\354\305b\241\350\310u\212\237"
 235      C2BCD4EC 
 235      C562A1E8 
 235      C8758A9F 
 236 0501 E764D94B 		.ascii	"\347d\331K\034ybvf\226=\343\375l\265\360\314\217S\363"
 236      1C796276 
 236      66963DE3 
 236      FD6CB5F0 
 236      CC8F53F3 
 237 0515 84B7D4BE 		.ascii	"\204\267\324\276,\025\213\235v\207\314~C5u\201(\026"
 237      2C158B9D 
 237      7687CC7E 
 237      43357581 
 237      2816
 238 0527 59D5BE7C 		.ascii	"Y\325\276|\232\273Z,)\232\245\032\344\264\027\275\367"
 238      9ABB5A2C 
 238      299AA51A 
 238      E4B417BD 
 238      F7
 239 0538 7F24A67E 		.ascii	"\177$\246~)\250\346\370\2500we\201\250*}\321\302\214"
 239      29A8E6F8 
 239      A8307765 
 239      81A82A7D 
 239      D1C28C
ARM GAS  C:\Users\Thomas\AppData\Local\Temp\ccmrYW49.s 			page 18


 240 054b 25CB3373 		.ascii	"%\3133s\262\226-]\236\261,\256dU\241s\376\354iS\346"
 240      B2962D5D 
 240      9EB12CAE 
 240      6455A173 
 240      FEEC6953 
 241 0560 AD71AE29 		.ascii	"\255q\256)\022\2131\215I\344\310,':\351XTZ\272\251\030"
 241      128B318D 
 241      49E4C82C 
 241      273AE958 
 241      545ABAA9 
 242 0575 CB9BE558 		.ascii	"\313\233\345X8\027\301\221q\032\216U\025\255\314\315"
 242      3817C191 
 242      711A8E55 
 242      15ADCCCD 
 243 0585 5B5D5214 		.ascii	"[]R\024\347\020\363\323\322\343r\026\331\355\005Z\034"
 243      E710F3D3 
 243      D2E37216 
 243      D9ED055A 
 243      1C
 244 0596 CFFF1791 		.ascii	"\317\377\027\221W#\363"
 244      5723F3
 245              		.text
 246              		.section	.gnu.lto_.symtab.be9c505c,"",%progbits
 247 0000 436F6E73 		.ascii	"ConsolePort_2_RegD1_SaveConfig\000\000\000\000\000\000"
 247      6F6C6550 
 247      6F72745F 
 247      325F5265 
 247      6744315F 
 248 0024 00000000 		.ascii	"\000\000\000\000\000\000\254\000\000\000ConsolePort"
 248      0000AC00 
 248      0000436F 
 248      6E736F6C 
 248      65506F72 
 249 0039 5F325F52 		.ascii	"_2_RegD1_RestoreConfig\000\000\000\000\000\000\000\000"
 249      65674431 
 249      5F526573 
 249      746F7265 
 249      436F6E66 
 250 0057 00000000 		.ascii	"\000\000\000\000\256\000\000\000ConsolePort_2_RegD1"
 250      AE000000 
 250      436F6E73 
 250      6F6C6550 
 250      6F72745F 
 251 0072 5F536C65 		.ascii	"_Sleep\000\000\000\000\000\000\000\000\000\000\000\000"
 251      65700000 
 251      00000000 
 251      00000000 
 251      0000
 252 0084 B0000000 		.ascii	"\260\000\000\000ConsolePort_2_RegD1_Wakeup\000\000\000"
 252      436F6E73 
 252      6F6C6550 
 252      6F72745F 
 252      325F5265 
 253 00a5 00000000 		.ascii	"\000\000\000\000\000\000\000\000\000\262\000\000\000"
 253      00000000 
 253      00B20000 
 253      00
ARM GAS  C:\Users\Thomas\AppData\Local\Temp\ccmrYW49.s 			page 19


 254 00b2 436F6E73 		.ascii	"ConsolePort_2_RegD1_Stop\000\000\002\000\000\000\000"
 254      6F6C6550 
 254      6F72745F 
 254      325F5265 
 254      6744315F 
 255 00d1 00000000 		.ascii	"\000\000\000\000\000\264\000\000\000ConsolePort_2_R"
 255      00B40000 
 255      00436F6E 
 255      736F6C65 
 255      506F7274 
 256 00e9 65674431 		.ascii	"egD1_Enable\000\000\002\000\000\000\000\000\000\000"
 256      5F456E61 
 256      626C6500 
 256      00020000 
 256      00000000 
 257 00fe 0000B600 		.ascii	"\000\000\266\000\000\000"
 257      0000
 258              		.text
 259              		.section	.gnu.lto_.opts,"",%progbits
 260 0000 272D666E 		.ascii	"'-fno-trapv' '-mcpu=cortex-m3' '-mthumb' '-g' '-O3'"
 260      6F2D7472 
 260      61707627 
 260      20272D6D 
 260      6370753D 
 261 0033 20272D66 		.ascii	" '-ffunction-sections' '-finline-functions' '-flto'"
 261      66756E63 
 261      74696F6E 
 261      2D736563 
 261      74696F6E 
 262 0066 20272D66 		.ascii	" '-ffat-lto-objects'\000"
 262      6661742D 
 262      6C746F2D 
 262      6F626A65 
 262      63747327 
 263              		.text
 264              		.cfi_sections	.debug_frame
 265              		.section	.text.ConsolePort_2_RegD1_SaveConfig,"ax",%progbits
 266              		.align	2
 267              		.global	ConsolePort_2_RegD1_SaveConfig
 268              		.thumb
 269              		.thumb_func
 270              		.type	ConsolePort_2_RegD1_SaveConfig, %function
 271              	ConsolePort_2_RegD1_SaveConfig:
 272              	.LFB0:
 273              		.file 1 ".\\Generated_Source\\PSoC5\\ConsolePort_2_RegD1_PM.c"
   1:.\Generated_Source\PSoC5/ConsolePort_2_RegD1_PM.c **** /*******************************************************************************
   2:.\Generated_Source\PSoC5/ConsolePort_2_RegD1_PM.c **** * File Name: ConsolePort_2_RegD1_PM.c
   3:.\Generated_Source\PSoC5/ConsolePort_2_RegD1_PM.c **** * Version 2.30
   4:.\Generated_Source\PSoC5/ConsolePort_2_RegD1_PM.c **** *
   5:.\Generated_Source\PSoC5/ConsolePort_2_RegD1_PM.c **** * Description:
   6:.\Generated_Source\PSoC5/ConsolePort_2_RegD1_PM.c **** *  This file provides the API source code for sleep mode support for Shift
   7:.\Generated_Source\PSoC5/ConsolePort_2_RegD1_PM.c **** *  Register component.
   8:.\Generated_Source\PSoC5/ConsolePort_2_RegD1_PM.c **** *
   9:.\Generated_Source\PSoC5/ConsolePort_2_RegD1_PM.c **** * Note:
  10:.\Generated_Source\PSoC5/ConsolePort_2_RegD1_PM.c **** *
  11:.\Generated_Source\PSoC5/ConsolePort_2_RegD1_PM.c **** ********************************************************************************
  12:.\Generated_Source\PSoC5/ConsolePort_2_RegD1_PM.c **** * Copyright 2008-2013, Cypress Semiconductor Corporation.  All rights reserved.
ARM GAS  C:\Users\Thomas\AppData\Local\Temp\ccmrYW49.s 			page 20


  13:.\Generated_Source\PSoC5/ConsolePort_2_RegD1_PM.c **** * You may use this file only in accordance with the license, terms, conditions,
  14:.\Generated_Source\PSoC5/ConsolePort_2_RegD1_PM.c **** * disclaimers, and limitations in the end user license agreement accompanying
  15:.\Generated_Source\PSoC5/ConsolePort_2_RegD1_PM.c **** * the software package with which this file was provided.
  16:.\Generated_Source\PSoC5/ConsolePort_2_RegD1_PM.c **** *******************************************************************************/
  17:.\Generated_Source\PSoC5/ConsolePort_2_RegD1_PM.c **** 
  18:.\Generated_Source\PSoC5/ConsolePort_2_RegD1_PM.c **** #include "ConsolePort_2_RegD1.h"
  19:.\Generated_Source\PSoC5/ConsolePort_2_RegD1_PM.c **** 
  20:.\Generated_Source\PSoC5/ConsolePort_2_RegD1_PM.c **** static ConsolePort_2_RegD1_BACKUP_STRUCT ConsolePort_2_RegD1_backup =
  21:.\Generated_Source\PSoC5/ConsolePort_2_RegD1_PM.c **** {
  22:.\Generated_Source\PSoC5/ConsolePort_2_RegD1_PM.c ****     ConsolePort_2_RegD1_DISABLED,
  23:.\Generated_Source\PSoC5/ConsolePort_2_RegD1_PM.c **** 
  24:.\Generated_Source\PSoC5/ConsolePort_2_RegD1_PM.c ****     ((uint16) ConsolePort_2_RegD1_DEFAULT_A0),
  25:.\Generated_Source\PSoC5/ConsolePort_2_RegD1_PM.c ****     ((uint16) ConsolePort_2_RegD1_DEFAULT_A1),
  26:.\Generated_Source\PSoC5/ConsolePort_2_RegD1_PM.c **** 
  27:.\Generated_Source\PSoC5/ConsolePort_2_RegD1_PM.c ****     #if(CY_UDB_V0)
  28:.\Generated_Source\PSoC5/ConsolePort_2_RegD1_PM.c ****         ((uint16) ConsolePort_2_RegD1_INT_SRC),
  29:.\Generated_Source\PSoC5/ConsolePort_2_RegD1_PM.c ****     #endif /* (CY_UDB_V0) */
  30:.\Generated_Source\PSoC5/ConsolePort_2_RegD1_PM.c **** };
  31:.\Generated_Source\PSoC5/ConsolePort_2_RegD1_PM.c **** 
  32:.\Generated_Source\PSoC5/ConsolePort_2_RegD1_PM.c **** 
  33:.\Generated_Source\PSoC5/ConsolePort_2_RegD1_PM.c **** /*******************************************************************************
  34:.\Generated_Source\PSoC5/ConsolePort_2_RegD1_PM.c **** * Function Name: ConsolePort_2_RegD1_SaveConfig
  35:.\Generated_Source\PSoC5/ConsolePort_2_RegD1_PM.c **** ********************************************************************************
  36:.\Generated_Source\PSoC5/ConsolePort_2_RegD1_PM.c **** *
  37:.\Generated_Source\PSoC5/ConsolePort_2_RegD1_PM.c **** * Summary:
  38:.\Generated_Source\PSoC5/ConsolePort_2_RegD1_PM.c **** *  Saves Shift Register configuration.
  39:.\Generated_Source\PSoC5/ConsolePort_2_RegD1_PM.c **** *
  40:.\Generated_Source\PSoC5/ConsolePort_2_RegD1_PM.c **** * Parameters:
  41:.\Generated_Source\PSoC5/ConsolePort_2_RegD1_PM.c **** *  None.
  42:.\Generated_Source\PSoC5/ConsolePort_2_RegD1_PM.c **** *
  43:.\Generated_Source\PSoC5/ConsolePort_2_RegD1_PM.c **** * Return:
  44:.\Generated_Source\PSoC5/ConsolePort_2_RegD1_PM.c **** *  None.
  45:.\Generated_Source\PSoC5/ConsolePort_2_RegD1_PM.c **** *
  46:.\Generated_Source\PSoC5/ConsolePort_2_RegD1_PM.c **** * Reentrant:
  47:.\Generated_Source\PSoC5/ConsolePort_2_RegD1_PM.c **** *  No.
  48:.\Generated_Source\PSoC5/ConsolePort_2_RegD1_PM.c **** *
  49:.\Generated_Source\PSoC5/ConsolePort_2_RegD1_PM.c **** *******************************************************************************/
  50:.\Generated_Source\PSoC5/ConsolePort_2_RegD1_PM.c **** void ConsolePort_2_RegD1_SaveConfig(void) 
  51:.\Generated_Source\PSoC5/ConsolePort_2_RegD1_PM.c **** {
 274              		.loc 1 51 0
 275              		.cfi_startproc
 276              		@ args = 0, pretend = 0, frame = 0
 277              		@ frame_needed = 0, uses_anonymous_args = 0
 278              		@ link register save eliminated.
  52:.\Generated_Source\PSoC5/ConsolePort_2_RegD1_PM.c ****     /* Store working registers A0 and A1 */
  53:.\Generated_Source\PSoC5/ConsolePort_2_RegD1_PM.c ****     ConsolePort_2_RegD1_backup.saveSrA0Reg   = CY_GET_REG16(ConsolePort_2_RegD1_SHIFT_REG_LSB_PTR);
 279              		.loc 1 53 0
 280 0000 034B     		ldr	r3, .L2
  54:.\Generated_Source\PSoC5/ConsolePort_2_RegD1_PM.c ****     ConsolePort_2_RegD1_backup.saveSrA1Reg   = CY_GET_REG16(ConsolePort_2_RegD1_SHIFT_REG_VALUE_LSB
 281              		.loc 1 54 0
 282 0002 044A     		ldr	r2, .L2+4
  53:.\Generated_Source\PSoC5/ConsolePort_2_RegD1_PM.c ****     ConsolePort_2_RegD1_backup.saveSrA1Reg   = CY_GET_REG16(ConsolePort_2_RegD1_SHIFT_REG_VALUE_LSB
 283              		.loc 1 53 0
 284 0004 1988     		ldrh	r1, [r3]
 285 0006 044B     		ldr	r3, .L2+8
 286              		.loc 1 54 0
 287 0008 1288     		ldrh	r2, [r2]
ARM GAS  C:\Users\Thomas\AppData\Local\Temp\ccmrYW49.s 			page 21


  53:.\Generated_Source\PSoC5/ConsolePort_2_RegD1_PM.c ****     ConsolePort_2_RegD1_backup.saveSrA1Reg   = CY_GET_REG16(ConsolePort_2_RegD1_SHIFT_REG_VALUE_LSB
 288              		.loc 1 53 0
 289 000a 5980     		strh	r1, [r3, #2]	@ movhi
 290              		.loc 1 54 0
 291 000c 9A80     		strh	r2, [r3, #4]	@ movhi
 292 000e 7047     		bx	lr
 293              	.L3:
 294              		.align	2
 295              	.L2:
 296 0010 0A640040 		.word	1073767434
 297 0014 1A640040 		.word	1073767450
 298 0018 00000000 		.word	.LANCHOR0
 299              		.cfi_endproc
 300              	.LFE0:
 301              		.size	ConsolePort_2_RegD1_SaveConfig, .-ConsolePort_2_RegD1_SaveConfig
 302              		.section	.text.ConsolePort_2_RegD1_RestoreConfig,"ax",%progbits
 303              		.align	2
 304              		.global	ConsolePort_2_RegD1_RestoreConfig
 305              		.thumb
 306              		.thumb_func
 307              		.type	ConsolePort_2_RegD1_RestoreConfig, %function
 308              	ConsolePort_2_RegD1_RestoreConfig:
 309              	.LFB1:
  55:.\Generated_Source\PSoC5/ConsolePort_2_RegD1_PM.c **** 
  56:.\Generated_Source\PSoC5/ConsolePort_2_RegD1_PM.c ****     #if(CY_UDB_V0)
  57:.\Generated_Source\PSoC5/ConsolePort_2_RegD1_PM.c ****         ConsolePort_2_RegD1_backup.saveSrIntMask = ConsolePort_2_RegD1_SR_STATUS_MASK;
  58:.\Generated_Source\PSoC5/ConsolePort_2_RegD1_PM.c ****     #endif /* (CY_UDB_V0) */
  59:.\Generated_Source\PSoC5/ConsolePort_2_RegD1_PM.c **** }
  60:.\Generated_Source\PSoC5/ConsolePort_2_RegD1_PM.c **** 
  61:.\Generated_Source\PSoC5/ConsolePort_2_RegD1_PM.c **** 
  62:.\Generated_Source\PSoC5/ConsolePort_2_RegD1_PM.c **** /*******************************************************************************
  63:.\Generated_Source\PSoC5/ConsolePort_2_RegD1_PM.c **** * Function Name: ConsolePort_2_RegD1_RestoreConfig
  64:.\Generated_Source\PSoC5/ConsolePort_2_RegD1_PM.c **** ********************************************************************************
  65:.\Generated_Source\PSoC5/ConsolePort_2_RegD1_PM.c **** *
  66:.\Generated_Source\PSoC5/ConsolePort_2_RegD1_PM.c **** * Summary:
  67:.\Generated_Source\PSoC5/ConsolePort_2_RegD1_PM.c **** *  Restores Shift Register configuration.
  68:.\Generated_Source\PSoC5/ConsolePort_2_RegD1_PM.c **** *
  69:.\Generated_Source\PSoC5/ConsolePort_2_RegD1_PM.c **** * Parameters:
  70:.\Generated_Source\PSoC5/ConsolePort_2_RegD1_PM.c **** *  None.
  71:.\Generated_Source\PSoC5/ConsolePort_2_RegD1_PM.c **** *
  72:.\Generated_Source\PSoC5/ConsolePort_2_RegD1_PM.c **** * Return:
  73:.\Generated_Source\PSoC5/ConsolePort_2_RegD1_PM.c **** *  None.
  74:.\Generated_Source\PSoC5/ConsolePort_2_RegD1_PM.c **** *
  75:.\Generated_Source\PSoC5/ConsolePort_2_RegD1_PM.c **** *******************************************************************************/
  76:.\Generated_Source\PSoC5/ConsolePort_2_RegD1_PM.c **** void ConsolePort_2_RegD1_RestoreConfig(void) 
  77:.\Generated_Source\PSoC5/ConsolePort_2_RegD1_PM.c **** {
 310              		.loc 1 77 0
 311              		.cfi_startproc
 312              		@ args = 0, pretend = 0, frame = 0
 313              		@ frame_needed = 0, uses_anonymous_args = 0
 314              		@ link register save eliminated.
  78:.\Generated_Source\PSoC5/ConsolePort_2_RegD1_PM.c ****     /* Restore working registers A0 and A1 */
  79:.\Generated_Source\PSoC5/ConsolePort_2_RegD1_PM.c ****     CY_SET_REG16(ConsolePort_2_RegD1_SHIFT_REG_LSB_PTR, ConsolePort_2_RegD1_backup.saveSrA0Reg);
 315              		.loc 1 79 0
 316 0000 034B     		ldr	r3, .L5
 317 0002 0449     		ldr	r1, .L5+4
  80:.\Generated_Source\PSoC5/ConsolePort_2_RegD1_PM.c ****     CY_SET_REG16(ConsolePort_2_RegD1_SHIFT_REG_VALUE_LSB_PTR, ConsolePort_2_RegD1_backup.saveSrA1Re
ARM GAS  C:\Users\Thomas\AppData\Local\Temp\ccmrYW49.s 			page 22


 318              		.loc 1 80 0
 319 0004 9A88     		ldrh	r2, [r3, #4]
  79:.\Generated_Source\PSoC5/ConsolePort_2_RegD1_PM.c ****     CY_SET_REG16(ConsolePort_2_RegD1_SHIFT_REG_VALUE_LSB_PTR, ConsolePort_2_RegD1_backup.saveSrA1Re
 320              		.loc 1 79 0
 321 0006 5888     		ldrh	r0, [r3, #2]
 322              		.loc 1 80 0
 323 0008 034B     		ldr	r3, .L5+8
  79:.\Generated_Source\PSoC5/ConsolePort_2_RegD1_PM.c ****     CY_SET_REG16(ConsolePort_2_RegD1_SHIFT_REG_VALUE_LSB_PTR, ConsolePort_2_RegD1_backup.saveSrA1Re
 324              		.loc 1 79 0
 325 000a 0880     		strh	r0, [r1]	@ movhi
 326              		.loc 1 80 0
 327 000c 1A80     		strh	r2, [r3]	@ movhi
 328 000e 7047     		bx	lr
 329              	.L6:
 330              		.align	2
 331              	.L5:
 332 0010 00000000 		.word	.LANCHOR0
 333 0014 0A640040 		.word	1073767434
 334 0018 1A640040 		.word	1073767450
 335              		.cfi_endproc
 336              	.LFE1:
 337              		.size	ConsolePort_2_RegD1_RestoreConfig, .-ConsolePort_2_RegD1_RestoreConfig
 338              		.section	.text.ConsolePort_2_RegD1_Sleep,"ax",%progbits
 339              		.align	2
 340              		.global	ConsolePort_2_RegD1_Sleep
 341              		.thumb
 342              		.thumb_func
 343              		.type	ConsolePort_2_RegD1_Sleep, %function
 344              	ConsolePort_2_RegD1_Sleep:
 345              	.LFB2:
  81:.\Generated_Source\PSoC5/ConsolePort_2_RegD1_PM.c **** 
  82:.\Generated_Source\PSoC5/ConsolePort_2_RegD1_PM.c ****     #if(CY_UDB_V0)
  83:.\Generated_Source\PSoC5/ConsolePort_2_RegD1_PM.c ****         ConsolePort_2_RegD1_SR_STATUS_MASK = ((uint8) ConsolePort_2_RegD1_backup.saveSrIntMask);
  84:.\Generated_Source\PSoC5/ConsolePort_2_RegD1_PM.c ****     #endif /* (CY_UDB_V0) */
  85:.\Generated_Source\PSoC5/ConsolePort_2_RegD1_PM.c **** }
  86:.\Generated_Source\PSoC5/ConsolePort_2_RegD1_PM.c **** 
  87:.\Generated_Source\PSoC5/ConsolePort_2_RegD1_PM.c **** 
  88:.\Generated_Source\PSoC5/ConsolePort_2_RegD1_PM.c **** /*******************************************************************************
  89:.\Generated_Source\PSoC5/ConsolePort_2_RegD1_PM.c **** * Function Name: ConsolePort_2_RegD1_Sleep
  90:.\Generated_Source\PSoC5/ConsolePort_2_RegD1_PM.c **** ********************************************************************************
  91:.\Generated_Source\PSoC5/ConsolePort_2_RegD1_PM.c **** *
  92:.\Generated_Source\PSoC5/ConsolePort_2_RegD1_PM.c **** * Summary:
  93:.\Generated_Source\PSoC5/ConsolePort_2_RegD1_PM.c **** *  Prepare the component to enter a Sleep mode.
  94:.\Generated_Source\PSoC5/ConsolePort_2_RegD1_PM.c **** *
  95:.\Generated_Source\PSoC5/ConsolePort_2_RegD1_PM.c **** * Parameters:
  96:.\Generated_Source\PSoC5/ConsolePort_2_RegD1_PM.c **** *  None.
  97:.\Generated_Source\PSoC5/ConsolePort_2_RegD1_PM.c **** *
  98:.\Generated_Source\PSoC5/ConsolePort_2_RegD1_PM.c **** * Return:
  99:.\Generated_Source\PSoC5/ConsolePort_2_RegD1_PM.c **** *  None.
 100:.\Generated_Source\PSoC5/ConsolePort_2_RegD1_PM.c **** *
 101:.\Generated_Source\PSoC5/ConsolePort_2_RegD1_PM.c **** * Reentrant:
 102:.\Generated_Source\PSoC5/ConsolePort_2_RegD1_PM.c **** *  No.
 103:.\Generated_Source\PSoC5/ConsolePort_2_RegD1_PM.c **** *
 104:.\Generated_Source\PSoC5/ConsolePort_2_RegD1_PM.c **** *******************************************************************************/
 105:.\Generated_Source\PSoC5/ConsolePort_2_RegD1_PM.c **** void ConsolePort_2_RegD1_Sleep(void) 
 106:.\Generated_Source\PSoC5/ConsolePort_2_RegD1_PM.c **** {
 346              		.loc 1 106 0
ARM GAS  C:\Users\Thomas\AppData\Local\Temp\ccmrYW49.s 			page 23


 347              		.cfi_startproc
 348              		@ args = 0, pretend = 0, frame = 0
 349              		@ frame_needed = 0, uses_anonymous_args = 0
 350 0000 10B5     		push	{r4, lr}
 351              		.cfi_def_cfa_offset 8
 352              		.cfi_offset 4, -8
 353              		.cfi_offset 14, -4
 107:.\Generated_Source\PSoC5/ConsolePort_2_RegD1_PM.c ****     ConsolePort_2_RegD1_backup.enableState = ((uint8) ConsolePort_2_RegD1_IS_ENABLED);
 354              		.loc 1 107 0
 355 0002 074B     		ldr	r3, .L9
 356 0004 074C     		ldr	r4, .L9+4
 357 0006 1B78     		ldrb	r3, [r3]	@ zero_extendqisi2
 358 0008 03F00103 		and	r3, r3, #1
 359 000c 2370     		strb	r3, [r4]
 108:.\Generated_Source\PSoC5/ConsolePort_2_RegD1_PM.c **** 
 109:.\Generated_Source\PSoC5/ConsolePort_2_RegD1_PM.c ****     ConsolePort_2_RegD1_Stop();
 360              		.loc 1 109 0
 361 000e FFF7FEFF 		bl	ConsolePort_2_RegD1_Stop
 362              	.LVL0:
 363              	.LBB6:
 364              	.LBB7:
  53:.\Generated_Source\PSoC5/ConsolePort_2_RegD1_PM.c ****     ConsolePort_2_RegD1_backup.saveSrA1Reg   = CY_GET_REG16(ConsolePort_2_RegD1_SHIFT_REG_VALUE_LSB
 365              		.loc 1 53 0
 366 0012 054A     		ldr	r2, .L9+8
  54:.\Generated_Source\PSoC5/ConsolePort_2_RegD1_PM.c **** 
 367              		.loc 1 54 0
 368 0014 054B     		ldr	r3, .L9+12
  53:.\Generated_Source\PSoC5/ConsolePort_2_RegD1_PM.c ****     ConsolePort_2_RegD1_backup.saveSrA1Reg   = CY_GET_REG16(ConsolePort_2_RegD1_SHIFT_REG_VALUE_LSB
 369              		.loc 1 53 0
 370 0016 1288     		ldrh	r2, [r2]
  54:.\Generated_Source\PSoC5/ConsolePort_2_RegD1_PM.c **** 
 371              		.loc 1 54 0
 372 0018 1B88     		ldrh	r3, [r3]
  53:.\Generated_Source\PSoC5/ConsolePort_2_RegD1_PM.c ****     ConsolePort_2_RegD1_backup.saveSrA1Reg   = CY_GET_REG16(ConsolePort_2_RegD1_SHIFT_REG_VALUE_LSB
 373              		.loc 1 53 0
 374 001a 6280     		strh	r2, [r4, #2]	@ movhi
  54:.\Generated_Source\PSoC5/ConsolePort_2_RegD1_PM.c **** 
 375              		.loc 1 54 0
 376 001c A380     		strh	r3, [r4, #4]	@ movhi
 377 001e 10BD     		pop	{r4, pc}
 378              	.L10:
 379              		.align	2
 380              	.L9:
 381 0020 7B640040 		.word	1073767547
 382 0024 00000000 		.word	.LANCHOR0
 383 0028 0A640040 		.word	1073767434
 384 002c 1A640040 		.word	1073767450
 385              	.LBE7:
 386              	.LBE6:
 387              		.cfi_endproc
 388              	.LFE2:
 389              		.size	ConsolePort_2_RegD1_Sleep, .-ConsolePort_2_RegD1_Sleep
 390              		.section	.text.ConsolePort_2_RegD1_Wakeup,"ax",%progbits
 391              		.align	2
 392              		.global	ConsolePort_2_RegD1_Wakeup
 393              		.thumb
 394              		.thumb_func
ARM GAS  C:\Users\Thomas\AppData\Local\Temp\ccmrYW49.s 			page 24


 395              		.type	ConsolePort_2_RegD1_Wakeup, %function
 396              	ConsolePort_2_RegD1_Wakeup:
 397              	.LFB3:
 110:.\Generated_Source\PSoC5/ConsolePort_2_RegD1_PM.c ****     ConsolePort_2_RegD1_SaveConfig();
 111:.\Generated_Source\PSoC5/ConsolePort_2_RegD1_PM.c **** }
 112:.\Generated_Source\PSoC5/ConsolePort_2_RegD1_PM.c **** 
 113:.\Generated_Source\PSoC5/ConsolePort_2_RegD1_PM.c **** 
 114:.\Generated_Source\PSoC5/ConsolePort_2_RegD1_PM.c **** /*******************************************************************************
 115:.\Generated_Source\PSoC5/ConsolePort_2_RegD1_PM.c **** * Function Name: ConsolePort_2_RegD1_Wakeup
 116:.\Generated_Source\PSoC5/ConsolePort_2_RegD1_PM.c **** ********************************************************************************
 117:.\Generated_Source\PSoC5/ConsolePort_2_RegD1_PM.c **** *
 118:.\Generated_Source\PSoC5/ConsolePort_2_RegD1_PM.c **** * Summary:
 119:.\Generated_Source\PSoC5/ConsolePort_2_RegD1_PM.c **** *  Restores and enables the user configuration.
 120:.\Generated_Source\PSoC5/ConsolePort_2_RegD1_PM.c **** *
 121:.\Generated_Source\PSoC5/ConsolePort_2_RegD1_PM.c **** * Parameters:
 122:.\Generated_Source\PSoC5/ConsolePort_2_RegD1_PM.c **** *  None.
 123:.\Generated_Source\PSoC5/ConsolePort_2_RegD1_PM.c **** *
 124:.\Generated_Source\PSoC5/ConsolePort_2_RegD1_PM.c **** * Return:
 125:.\Generated_Source\PSoC5/ConsolePort_2_RegD1_PM.c **** *  None.
 126:.\Generated_Source\PSoC5/ConsolePort_2_RegD1_PM.c **** *
 127:.\Generated_Source\PSoC5/ConsolePort_2_RegD1_PM.c **** *******************************************************************************/
 128:.\Generated_Source\PSoC5/ConsolePort_2_RegD1_PM.c **** void ConsolePort_2_RegD1_Wakeup(void) 
 129:.\Generated_Source\PSoC5/ConsolePort_2_RegD1_PM.c **** {
 398              		.loc 1 129 0
 399              		.cfi_startproc
 400              		@ args = 0, pretend = 0, frame = 0
 401              		@ frame_needed = 0, uses_anonymous_args = 0
 402              		@ link register save eliminated.
 403 0000 10B4     		push	{r4}
 404              		.cfi_def_cfa_offset 4
 405              		.cfi_offset 4, -4
 406              	.LBB8:
 407              	.LBB9:
  79:.\Generated_Source\PSoC5/ConsolePort_2_RegD1_PM.c ****     CY_SET_REG16(ConsolePort_2_RegD1_SHIFT_REG_VALUE_LSB_PTR, ConsolePort_2_RegD1_backup.saveSrA1Re
 408              		.loc 1 79 0
 409 0002 084B     		ldr	r3, .L16
 410 0004 0848     		ldr	r0, .L16+4
 411 0006 5C88     		ldrh	r4, [r3, #2]
  80:.\Generated_Source\PSoC5/ConsolePort_2_RegD1_PM.c **** 
 412              		.loc 1 80 0
 413 0008 9988     		ldrh	r1, [r3, #4]
 414 000a 084A     		ldr	r2, .L16+8
  79:.\Generated_Source\PSoC5/ConsolePort_2_RegD1_PM.c ****     CY_SET_REG16(ConsolePort_2_RegD1_SHIFT_REG_VALUE_LSB_PTR, ConsolePort_2_RegD1_backup.saveSrA1Re
 415              		.loc 1 79 0
 416 000c 0480     		strh	r4, [r0]	@ movhi
  80:.\Generated_Source\PSoC5/ConsolePort_2_RegD1_PM.c **** 
 417              		.loc 1 80 0
 418 000e 1180     		strh	r1, [r2]	@ movhi
 419              	.LBE9:
 420              	.LBE8:
 130:.\Generated_Source\PSoC5/ConsolePort_2_RegD1_PM.c ****     ConsolePort_2_RegD1_RestoreConfig();
 131:.\Generated_Source\PSoC5/ConsolePort_2_RegD1_PM.c **** 
 132:.\Generated_Source\PSoC5/ConsolePort_2_RegD1_PM.c ****     if(0u != ConsolePort_2_RegD1_backup.enableState)
 421              		.loc 1 132 0
 422 0010 1B78     		ldrb	r3, [r3]	@ zero_extendqisi2
 423 0012 13B9     		cbnz	r3, .L15
 133:.\Generated_Source\PSoC5/ConsolePort_2_RegD1_PM.c ****     {
ARM GAS  C:\Users\Thomas\AppData\Local\Temp\ccmrYW49.s 			page 25


 134:.\Generated_Source\PSoC5/ConsolePort_2_RegD1_PM.c ****         ConsolePort_2_RegD1_Enable();
 135:.\Generated_Source\PSoC5/ConsolePort_2_RegD1_PM.c ****     }
 136:.\Generated_Source\PSoC5/ConsolePort_2_RegD1_PM.c **** }
 424              		.loc 1 136 0
 425 0014 5DF8044B 		ldr	r4, [sp], #4
 426              		.cfi_remember_state
 427              		.cfi_restore 4
 428              		.cfi_def_cfa_offset 0
 429 0018 7047     		bx	lr
 430              	.L15:
 431              		.cfi_restore_state
 432 001a 5DF8044B 		ldr	r4, [sp], #4
 433              		.cfi_restore 4
 434              		.cfi_def_cfa_offset 0
 134:.\Generated_Source\PSoC5/ConsolePort_2_RegD1_PM.c ****     }
 435              		.loc 1 134 0
 436 001e FFF7FEBF 		b	ConsolePort_2_RegD1_Enable
 437              	.LVL1:
 438              	.L17:
 439 0022 00BF     		.align	2
 440              	.L16:
 441 0024 00000000 		.word	.LANCHOR0
 442 0028 0A640040 		.word	1073767434
 443 002c 1A640040 		.word	1073767450
 444              		.cfi_endproc
 445              	.LFE3:
 446              		.size	ConsolePort_2_RegD1_Wakeup, .-ConsolePort_2_RegD1_Wakeup
 447              		.bss
 448              		.align	2
 449              		.set	.LANCHOR0,. + 0
 450              		.type	ConsolePort_2_RegD1_backup, %object
 451              		.size	ConsolePort_2_RegD1_backup, 6
 452              	ConsolePort_2_RegD1_backup:
 453 0000 00000000 		.space	6
 453      0000
 454 0006 0000     		.text
 455              	.Letext0:
 456              		.file 2 ".\\Generated_Source\\PSoC5\\cytypes.h"
 457              		.file 3 ".\\Generated_Source\\PSoC5\\ConsolePort_2_RegD1.h"