ARM GAS  C:\Users\Thomas\AppData\Local\Temp\ccFPNZVb.s 			page 1


   1              		.syntax unified
   2              		.cpu cortex-m3
   3              		.fpu softvfp
   4              		.eabi_attribute 20, 1
   5              		.eabi_attribute 21, 1
   6              		.eabi_attribute 23, 3
   7              		.eabi_attribute 24, 1
   8              		.eabi_attribute 25, 1
   9              		.eabi_attribute 26, 1
  10              		.eabi_attribute 30, 2
  11              		.eabi_attribute 34, 1
  12              		.eabi_attribute 18, 4
  13              		.thumb
  14              		.file	"ConsolePort_1_WinTimer_PM.c"
  15              		.text
  16              	.Ltext0:
  17              		.section	.gnu.lto_.profile.be9c7177,"",%progbits
  18 0000 789C6366 		.ascii	"x\234cf```a\200\000F\206\034\005\000\001l\000\225"
  18      60606061 
  18      80004686 
  18      1C050001 
  18      6C0095
  19              		.text
  20              		.section	.gnu.lto_.jmpfuncs.be9c7177,"",%progbits
  21 0000 789C6366 		.ascii	"x\234cf\300\016\244\2404\013\230db``\004#f\204\030\000"
  21      C00EA4A0 
  21      340B9864 
  21      62606004 
  21      23668418 
  22 0015 0544002D 		.ascii	"\005D\000-"
  23              		.text
  24              		.section	.gnu.lto_.inline.be9c7177,"",%progbits
  25 0000 789C6366 		.ascii	"x\234cf\300\016\252\2404\013\003\003\267\014#\003\023"
  25      C00EAAA0 
  25      340B0303 
  25      B70C2303 
  25      13
  26 0011 C7013B06 		.ascii	"\307\001;\006\266\005\362L 1&n8\201]\222q\202\037\224"
  26      B605F24C 
  26      2031266E 
  26      38815D92 
  26      71821F94 
  27 0025 6266E092 		.ascii	"bf\340\222\002*\340\332\207P\300\310\005#X\0308\004"
  27      022AE0DA 
  27      8750C0C8 
  27      05235818 
  27      3804
  28 0037 81926C1F 		.ascii	"\201\222l\037\364\260H2\000\000\321n\012\222"
  28      F4B04832 
  28      0000D16E 
  28      0A92
  29              		.text
  30              		.section	.gnu.lto_.pureconst.be9c7177,"",%progbits
  31 0000 789C6366 		.ascii	"x\234cf``\340d\200\000\026\006)&)f)\026\011\000\002"
  31      6060E064 
  31      80001606 
  31      29262966 
ARM GAS  C:\Users\Thomas\AppData\Local\Temp\ccFPNZVb.s 			page 2


  31      29160900 
  32 0015 CF0080   		.ascii	"\317\000\200"
  33              		.text
  34              		.section	.gnu.lto_ConsolePort_1_WinTimer_SaveConfig.be9c7177,"",%progbits
  35 0000 789C9592 		.ascii	"x\234\225\222\317K\033A\024\307\347;\233\335n\215`\351"
  35      CF4B1B41 
  35      14C7E73B 
  35      9BDD6E8D 
  35      60E9
  36 0012 31FF8027 		.ascii	"1\377\200'\003\005CO\236<\364d\011(\024J`)v\013B\315"
  36      0305434F 
  36      9E3CF464 
  36      0928144A 
  36      6029760B 
  37 0028 428CC7E0 		.ascii	"B\214\307\340\256\246 \036T<\011\255B\017Ecl\322\306"
  37      AEA6201E 
  37      543C09AD 
  37      420F4563 
  37      6CD2C6
  38 003b B67A1156 		.ascii	"\266z\021VQA\204\212x\020T\364\022\241\336\022\003\225"
  38      5141848A 
  38      781054F4 
  38      12A1DE12 
  38      0395
  39 004d 2089BEB7 		.ascii	" \211\276\267{j\374\001]\230\235\235\231\357{\337\317"
  39      7B6AFC01 
  39      5D989D9D 
  39      99EF7BDF 
  39      CF
  40 005e 7BB38AB8 		.ascii	"{\263\212\270\375\204h\274\223B<\247\031\212\200\234"
  40      FD8468BC 
  40      93423CA7 
  40      198A809C 
  41 006e FC2D84A3 		.ascii	"\374-\204\243K\200?\004\304\220\304\020\316eYb\322\315"
  41      4B803F04 
  41      C490C410 
  41      CE655962 
  41      D2CD
  42 0080 4E075BBF 		.ascii	"N\007[\277\330\266]*\3548Q\027U\212\253H?\017\346\320"
  42      D8B65D2A 
  42      EC385117 
  42      558AAB48 
  42      3F0FE6D0 
  43 0094 2A48544E 		.ascii	"*HTN\327\016\202Z\232DO\3743\314C\003\315\371\247\256"
  43      D70E825A 
  43      9A444FFC 
  43      33CC4303 
  43      CDF9A7AE 
  44 00a8 7D7DBD94 		.ascii	"}}\275\224[+\241I\021U\011\225^R\347\227\020E\032\354"
  44      5B2BA149 
  44      11550995 
  44      5E52E797 
  44      10451AEC 
  45 00bc 77460B9A 		.ascii	"wF\013\232\225c\214\270\253\031\205c/\245Big\367\307"
  45      95638CB8 
  45      AB198563 
  45      2FA54269 
ARM GAS  C:\Users\Thomas\AppData\Local\Temp\ccFPNZVb.s 			page 3


  45      67F7C7
  46 00cf 73327565 		.ascii	"s2ue\217\332zU*\025I\031\221A\212\242\003\342\020\303"
  46      8FDA7A55 
  46      2A154919 
  46      91418AA2 
  46      03E210C3 
  47 00e3 539FDB59 		.ascii	"S\237\333Y\333(TkL@\273\247\305\335=\375\217\244\035"
  47      DB28546B 
  47      4C40BBA7 
  47      C5DD3DFD 
  47      8FA41D
  48 00f6 6F39EFA4 		.ascii	"o9\357\244?a\006\037\035\233U\032\026\220B\026!\357"
  48      3F61061F 
  48      1D9B551A 
  48      16904216 
  48      21EF
  49 0108 ACBE3851 		.ascii	"\254\2768Q\320\332\262T\200\373\262*\037a\221\204\027"
  49      D0DAB254 
  49      80FBB22A 
  49      1F619184 
  49      17
  50 0119 5E91F88A 		.ascii	"^\221\370\2126\242!\277\365\277c\365\315\026\237N\245"
  50      36A221BF 
  50      F5BF63F5 
  50      CD169F4E 
  50      A5
  51 012a 988B95AD 		.ascii	"\230\213\225\255s\215\323\353\037\266\035;\360\217\243"
  51      738DD3EB 
  51      1FB61D3B 
  51      F08FA3
  52 0139 EE652D6E 		.ascii	"\356e-n\224\206\003\354\230\246\256=F\016!\344\331\020"
  52      948603EC 
  52      98A6AE3D 
  52      460E21E4 
  52      D910
  53 014b DF28BD5F 		.ascii	"\337(\275_A\307\203\0254\"\177\277\027\271\011\005\017"
  53      41C78315 
  53      34227FBF 
  53      17B90905 
  53      0F
  54 015c 999B8E25 		.ascii	"\231\233\216%FV\005\367\363(\323\354\023\353\215&\301"
  54      465605F7 
  54      F328D3EC 
  54      13EB8D26 
  54      C1
  55 016d 0ADF017E 		.ascii	"\012\337\001~x\375l\366i6\360_8?\357\306y\3158\277<"
  55      78FD6CF6 
  55      6936F05F 
  55      383FEFC6 
  55      79CD38BF 
  56 0182 1CEF5F58 		.ascii	"\034\357_Xf\034]\234\300q\313*\033p_\213\204J\227N\202"
  56      661C5D9C 
  56      C071CB2A 
  56      1B705F8B 
  56      844A974E 
  57 0197 4838F6C2 		.ascii	"H8\366\302\214\233\2117I\363\255\321m\015&z\315X\264"
  57      8C9B8937 
ARM GAS  C:\Users\Thomas\AppData\Local\Temp\ccFPNZVb.s 			page 4


  57      49F3ADD1 
  57      6D0D267A 
  57      CD58B4
  58 01aa DBEA8CC4 		.ascii	"\333\352\214\304:\255\370\200\365\336\214Z\211\244\361"
  58      3AADF880 
  58      F5DE8C5A 
  58      89A4F1
  59 01b9 CC78D517 		.ascii	"\314x\325\027\357\351\3537\023F\264+\334+n\000\333J"
  59      EFE9EB37 
  59      1346B42B 
  59      DC2B6E00 
  59      DB4A
  60 01cb EE61     		.ascii	"\356a"
  61              		.text
  62              		.section	.gnu.lto_ConsolePort_1_WinTimer_RestoreConfig.be9c7177,"",%progbits
  63 0000 789C8D91 		.ascii	"x\234\215\221MK\034A\020\206\353\255\231\214\243\353"
  63      4D4B1C41 
  63      1086EBAD 
  63      998CA3EB 
  64 0010 21E464F6 		.ascii	"!\344d\366\017x\010.\004\021\177\200\220\234\204\005"
  64      0F78082E 
  64      04117F80 
  64      909C8405 
  65 0020 C55C1696 		.ascii	"\305\\\026\226`\346 \230\035\330\230\343\342\214\254"
  65      60E62098 
  65      1DD898E3 
  65      E28CAC
  66 002f 9053D49C 		.ascii	"\220S\324\234\002~\200\007Q\243\321\350\372\221\343"
  66      027E8007 
  66      51A3D1E8 
  66      FA91E3
  67 003e 22227889 		.ascii	"\"\"x\211h\014\001\221xYAo\256{\220!\030\255\352\315"
  67      680C0191 
  67      7859416F 
  67      AE7B9021 
  67      18ADEACD 
  68 0052 256A4206 		.ascii	"%jB\006\272k\272\373\355z\237\256\262\350\366\027\227"
  68      BA6BBAFB 
  68      ED7A9FAE 
  68      B2E8F617 
  68      97
  69 0063 D1C544AD 		.ascii	"\321\305D\255\022a\021x\370\013Q\3502\240?\004\352g"
  69      12611178 
  69      F80B51E8 
  69      32A03F04 
  69      EA67
  70 0075 F4E394CB 		.ascii	"\364\343\224\313\214\341\342\334\373X\343T\020\004g"
  70      8CE1E2DC 
  70      FB58E354 
  70      100467
  71 0084 7B8586C1 		.ascii	"{\205\206\301\206H\256U\270\232\006\323h$\321\224\363"
  71      8648AE55 
  71      B89A06D3 
  71      6824D194 
  71      F3
  72 0095 97DF634E 		.ascii	"\227\337cN^4\367\253g\230\201\003\211\213\017\212\301"
  72      5E34F7AB 
ARM GAS  C:\Users\Thomas\AppData\Local\Temp\ccFPNZVb.s 			page 5


  72      67988103 
  72      898B0F8A 
  72      C1
  73 00a6 D5556167 		.ascii	"\325Uag\344$\001\227)b\3302\261\243\023QI\206\372\035"
  73      E4240197 
  73      2962D832 
  73      B1A31351 
  73      4986FA1D 
  74 00ba CB42A275 		.ascii	"\313B\242u\200\201\265\362\376\210\245\267/X\315'\276"
  74      8081B5F2 
  74      FE88A5B7 
  74      2F58CD27 
  74      BE
  75 00cb BE5DE0DC 		.ascii	"\276]\340\334\317\340M\340Fl]jj\331=*\355\354\272',"
  75      CFE04DE0 
  75      466C5D6A 
  75      6AD93D2A 
  75      EDECBA27 
  76 00e0 3B663913 		.ascii	";f9\023\346\3070\216\3210P\225\215Y\344\360\001qs\366"
  76      E6C7308E 
  76      D1305095 
  76      8D59E4F0 
  76      017173F6 
  77 00f4 6B7E68D9 		.ascii	"k~h\331iz\024\361=\314\211\346\334\200c\036Mt\010[}"
  77      697A14F1 
  77      3DCC89E6 
  77      DC80631E 
  77      4D74085B 
  78 0109 E8A68B53 		.ascii	"\350\246\213Sa!\307G\344H\030\"\256!\305Z\3726\331\\"
  78      6121C747 
  78      E4481822 
  78      AE21C55A 
  78      FA36D95C 
  79 011d C5B2FF8A 		.ascii	"\305\262\377\212u\223c\341.\016\027\213\206C\253\203"
  79      759363E1 
  79      2E0E178B 
  79      8643AB83 
  80 012d 4FC27180 		.ascii	"O\302q\200\215w\223\011\315-\262\363\317[\247\216\276"
  80      8D779309 
  80      CD2DB2F3 
  80      CF5BA78E 
  80      BE
  81 013e AC76703B 		.ascii	"\254vp;\014\354?\036[k\022\2256\317\006l5\311\207\305"
  81      0CEC3F1E 
  81      5B6B1295 
  81      36CF066C 
  81      35C987C5 
  82 0152 8711D761 		.ascii	"\207\021\327a\011q,\253\013\012\222X\370\252\274\207"
  82      09712CAB 
  82      0B0A9258 
  82      F8AABC87 
  83 0162 BBBFCBE8 		.ascii	"\273\277\313\350\3747\357\312\335\274\253\206\327tu"
  83      FC37EFCA 
  83      DDBCAB86 
  83      D77475
  84 0171 ED1F758B 		.ascii	"\355\037u\213UT\203uS7'\342z\372\201\260x\361\304\210"
  84      55548375 
ARM GAS  C:\Users\Thomas\AppData\Local\Temp\ccFPNZVb.s 			page 6


  84      533727E2 
  84      7AFA81B0 
  84      78F1C488 
  85 0185 499B0D6D 		.ascii	"I\233\015m\262hZ\022\251\247^\306\313>\357\363^\244"
  85      B2685A12 
  85      A9A75EC6 
  85      CB3EEFF3 
  85      5EA4
  86 0197 3BFCD7D9 		.ascii	";\374\327\331n/\225\354\360\333ZRm~\346\225\337\353"
  86      6E2F95EC 
  86      F0DB5A52 
  86      6D7EE695 
  86      DFEB
  87 01a9 25FD6C5F 		.ascii	"%\375l_\372q\372YO\246\263\347\245\227M'\333\023\335"
  87      FA71FA59 
  87      4FA6B3E7 
  87      A5974D27 
  87      DB13DD
  88 01bc 740D956A 		.ascii	"t\015\225j\342\341"
  88      E2E1
  89              		.text
  90              		.section	.gnu.lto_ConsolePort_1_WinTimer_Sleep.be9c7177,"",%progbits
  91 0000 789C8552 		.ascii	"x\234\205RMh\023A\024~\337\333\237\244\251\264\305S"
  91      4D681341 
  91      147EDFDB 
  91      9FA4A9B4 
  91      C553
  92 0012 E9D14B4F 		.ascii	"\351\321KO-x(\236\244\207\036\004A\010T\020$\020\244"
  92      2D78289E 
  92      A4871E04 
  92      41085410 
  92      2410A4
  93 0025 EEA1A059 		.ascii	"\356\241\240Y\211\365\030:IV\024\005M\021$\250\355M"
  93      89F5183A 
  93      49561405 
  93      4D1124A8 
  93      ED4D
  94 0037 8DA6B6B5 		.ascii	"\215\246\266\265\376\341AX\275\350A\224\"V(R/\251\350"
  94      FEE14158 
  94      BDE84194 
  94      22562852 
  94      2FA9E8
  95 004a 2D31D276 		.ascii	"-1\322v\3216\276\331D-\025ua\366\315{\363\315\367}\363"
  95      D136BED9 
  95      442D1575 
  95      61F6CD7B 
  95      F3CDF77D 
  96 005f 660CFAF3 		.ascii	"f\014\372\363\333+\343\004\023\355\221\010\233\300\205"
  96      DB2BE304 
  96      13ED9108 
  96      9BC085
  97 006e 5744D928 		.ascii	"WD\331(\263\261\336A*f\026\007I\3550`5\313\346\317\211"
  97      B3B1DE41 
  97      2A661607 
  97      49ED3060 
  97      35CBE6CF 
  98 0083 05E80981 		.ascii	"\005\350\011\201\306\3310-\214\3433\327\030\005\277"
ARM GAS  C:\Users\Thomas\AppData\Local\Temp\ccFPNZVb.s 			page 7


  98      C6D9302D 
  98      8CE333D7 
  98      1805BF
  99 0092 5C6CEFBD 		.ascii	"\\l\357\275\256\224\252\346\236t\237\356\016\204\271"
  99      AE94AAE6 
  99      9E749FEE 
  99      0E84B9
 100 00a1 CE4D25DC 		.ascii	"\316M%\334D/\011\246\346m\274k\267=\301t5\327P\202\015"
 100      442F09A6 
 100      E66DBC6B 
 100      B73DC174 
 100      35D75082 
 101 00b6 89B33B7D 		.ascii	"\211\263;}\325h\324\277N\224vq\233A\001\303\224\237"
 101      D568D4BF 
 101      4E947671 
 101      9B4101C3 
 101      949F
 102 00c8 202A32B4 		.ascii	" *2\264\332\212$\022\215%<[=\367qj\021z\347\032\033"
 102      DA8A2412 
 102      8D253C5B 
 102      3DF7716A 
 102      117AE71A 
 103 00dd 423A55BB 		.ascii	"B:U\273\274\030\373\304\001\033\253/\262\312\324:\037"
 103      BC18FBC4 
 103      011BAB2F 
 103      B2CAD43A 
 103      1F
 104 00ee 2AAF17A2 		.ascii	"*\257\027\242a\211t\372\370|\245bN\342j\326C\300&n\241"
 104      618974FA 
 104      F87CA562 
 104      4EE26AD6 
 104      43C0266E 
 105 0103 07B7D123 		.ascii	"\007\267\321#\352eL\202\226\220[>\363\335j\022\232\302"
 105      EA654C82 
 105      96905B3E 
 105      F3DD6A12 
 105      9AC2
 106 0115 496FE1BD 		.ascii	"Io\341\275\314\247Z\205\255tb\006\323z'iG\006\255w\210"
 106      CCA75A85 
 106      AD746206 
 106      D37A2769 
 106      4706AD77 
 107 012a A15CB5BA 		.ascii	"\241\\\265\272\366\264S\243\265\2317\027f8\363M\235"
 107      F6B453A3 
 107      B5993717 
 107      6638F34D 
 107      9D
 108 013b 55D180AD 		.ascii	"U\321\200\255\015}\306\255\004V\230\226\262\3365h?J"
 108      0D7DC6AD 
 108      04569896 
 108      B2DE3568 
 108      3F4A
 109 014d A36CDC41 		.ascii	"\243l\334A\0063\232V\3266\247/\316\333}ei\221\1778\340"
 109      06339A56 
 109      D636A72F 
 109      CEDB7D65 
 109      69917F38 
ARM GAS  C:\Users\Thomas\AppData\Local\Temp\ccFPNZVb.s 			page 8


 110 0162 086605F8 		.ascii	"\010f\005\370%l#\346\320'\200\205+7\362\235\232+\002"
 110      256C23E6 
 110      D0278085 
 110      2B37F29D 
 110      9A2B02
 111 0175 C2DDD0CC 		.ascii	"\302\335\320\314\012\233T\034\014\255\314m\376\307\312"
 111      0A9B541C 
 111      0CADCC6D 
 111      FEC7CA
 112 0184 76EDF97F 		.ascii	"v\355\371\177h\337\373\255}?\324\376u\216\210\224\036"
 112      68DFFBAD 
 112      7D3FD4FE 
 112      758E8894 
 112      1E
 113 0195 B4B4ADF0 		.ascii	"\264\264\255\360b\336#\3577\236\263\326\246\355\342"
 113      62DE23EF 
 113      379EB3D6 
 113      A6EDE2
 114 01a4 D13ACB25 		.ascii	"\321:\313%\343!2r\251m\244\241\205\330\337\220\272\307"
 114      E3213272 
 114      A96DA4A1 
 114      85D8DF90 
 114      BAC7
 115 01b6 8F5AC865 		.ascii	"\217Z\310ed\375K\373C$\351\267\000-%\200\201\376\304"
 115      64FD4BFB 
 115      4324E9B7 
 115      002D2580 
 115      81FEC4
 116 01c9 3E27E5A4 		.ascii	">'\345\244\217\2149G\223\303\356\251\364\210\223\210"
 116      8F8C3947 
 116      93C3EEA9 
 116      F4889388 
 117 01d9 0FBB4303 		.ascii	"\017\273C\003\211!7u\322=\346\304\335\364Xrw\362\320"
 117      89213775 
 117      D23DE6C4 
 117      DDF45872 
 117      77F2D0
 118 01ec 68EAE0E8 		.ascii	"h\352\340\350q'\235\214\037\350\037\241\037\013[\367"
 118      71279D8C 
 118      1FE81FA1 
 118      1F0B5BF7 
 119 01fc 46       		.ascii	"F"
 120              		.text
 121              		.section	.gnu.lto_ConsolePort_1_WinTimer_Wakeup.be9c7177,"",%progbits
 122 0000 789C7550 		.ascii	"x\234uPM+DQ\030~\237\367\036\267\311(\222\205\374\001"
 122      4D2B4451 
 122      187E9FF7 
 122      1EB7C928 
 122      9285FC01 
 123 0014 0B1949B2 		.ascii	"\013\031I\262\263\261PJMQ6S\223\306](\346\326\030v\223"
 123      B3B1504A 
 123      4D513653 
 123      93C65D28 
 123      E6D61876 
 124 0029 338CB242 		.ascii	"3\214\262B\263R\214\235\214\317\211\205\365\254\250"
 124      B3528C9D 
 124      8CCF8985 
ARM GAS  C:\Users\Thomas\AppData\Local\Temp\ccFPNZVb.s 			page 9


 124      F5ACA8
 125 0038 5990348D 		.ascii	"Y\2204\215\344\243D\215\2351\013\335\3048\347\216R\344"
 125      E4A3448D 
 125      9D310BDD 
 125      C438E78E 
 125      52E4
 126 004a D4E93DE7 		.ascii	"\324\351=\3479\317G\3171\350\357\352R{\006D=j\242\206"
 126      39CF47CF 
 126      31E8EFEA 
 126      527B0644 
 126      3D6AA286 
 127 005e C02B6744 		.ascii	"\300+gDq\017\263qRO\262V\344zI\326\031\020UX\000\372"
 127      710FB371 
 127      524FB256 
 127      E47A49D6 
 127      19105558 
 128 0074 40A05936 		.ascii	"@\240Y6\004f\361\314%\306Jvw\325\333\272)\245|y\310"
 128      0466F1CC 
 128      25C64A76 
 128      77D5DBBA 
 128      29A57C79 
 129 0089 372F343B 		.ascii	"7/4;LT\346\252?\266\320J\212SJ|\024\274fBq\032\252o"
 129      4C54E6AA 
 129      3FB6D04A 
 129      8A534A7C 
 129      14BC6642 
 130 00a1 48C354B9 		.ascii	"H\303T\271\224i\314\312J\245\\H\026;\330\024\344\260"
 130      9469CCCA 
 130      4AA55C48 
 130      163BD814 
 130      E4B0
 131 00b3 021F1541 		.ascii	"\002\037\025A\347<1\353i\334`>[\312\261\226h\257\215"
 131      E73C31EB 
 131      69DC603E 
 131      5BCAB196 
 131      68AF8D
 132 00c6 CBA5038E 		.ascii	"\313\245\003\216\275\313E\351q\230\313Z\201m\304\224"
 132      BDCB45E9 
 132      7198CB5A 
 132      816DC494 
 133 00d6 D6A06BCC 		.ascii	"\326\240k\314\035\037\336&\275\232\373\306\3427[|\350"
 133      1D1FDE26 
 133      BD9AFBC6 
 133      E2375B7C 
 133      E8
 134 00e7 6C85DE3F 		.ascii	"l\205\336?\236_x\212\254\020\367\232\216'\326\221\302"
 134      9E5F788A 
 134      AC10F79A 
 134      8E27D691 
 134      C2
 135 00f8 5A5C6A56 		.ascii	"Z\\jV\015v\020\303.Z\334\267\317\275\345#\263\275\315"
 135      0D7610C3 
 135      2E5ADCB7 
 135      CFBDE523 
 135      B3BDCD
 136 010b 61137B8A 		.ascii	"a\023{\212\363\3526\303>\332)\217\304\325|\370'\352"
 136      F3EA36C3 
ARM GAS  C:\Users\Thomas\AppData\Local\Temp\ccFPNZVb.s 			page 10


 136      3EDA298F 
 136      C4D57CF8 
 136      27EA
 137 011d 34553C12 		.ascii	"4U<\022\332\024 \034h9\351\022\006\235\324\273\035\234"
 137      DA14201C 
 137      6839E912 
 137      069DD4BB 
 137      1D9C
 138 012f 5CD37F1D 		.ascii	"\\\323\177\035\224)2\337\035\264F\270\305\357\020\317"
 138      942932DF 
 138      1DB446B8 
 138      C5EF10CF 
 139 013f 56065C0D 		.ascii	"V\006\\\015\351o\201F\025\265\333\027\350\267\302Vd"
 139      E96F8146 
 139      15B5DB17 
 139      E8B7C256 
 139      64
 140 0150 346A8D05 		.ascii	"4j\215\005\207\354\351H\310\012\370\207\354\276\356"
 140      87ECE948 
 140      C80AF887 
 140      ECBEEE
 141 015f 409F1D9E 		.ascii	"@\237\035\236\262',\277\035\211\006;\203#\343\341\341"
 141      B2272CBF 
 141      1D89063B 
 141      8323E3E1 
 141      E1
 142 0170 F1492B12 		.ascii	"\361I+\022\364\017\372B\364\005^6\232v"
 142      F40FFA42 
 142      F4055E36 
 142      9A76
 143              		.text
 144              		.section	.gnu.lto_.symbol_nodes.be9c7177,"",%progbits
 145 0000 789C55CF 		.ascii	"x\234U\317\273\015\302@\020\004\320\271\331\373\272"
 145      BB0DC240 
 145      1004D0B9 
 145      D9FBBA
 146 000f 067A1D07 		.ascii	"\006z\035\007\024@\005\310Bn\303\231c\327\000\024\202"
 146      144005C8 
 146      426EC399 
 146      63D70014 
 146      82
 147 0020 B8130E96 		.ascii	"\270\023\016\226MFo6\3315\000o\234\303 \340v\000\022"
 147      4D466F36 
 147      D935006F 
 147      9CC320E0 
 147      760012
 148 0033 EE4B4502 		.ascii	"\356KE\002\026\312H\005_\323\304?G\231w\310\212?c\236"
 148      16CA4805 
 148      5FD3C43F 
 148      479977C8 
 148      8A3F639E 
 149 0047 3B939267 		.ascii	";\223\222gU\366,*\236M\325sRs4d\254\317O\260~\332\372"
 149      55F62C2A 
 149      9E4DD573 
 149      52733464 
 149      ACCF4FB0 
 150 005e EAC98A7D 		.ascii	"\352\311\212}\230\005\373\260\2653\373W##\361\030\373"
ARM GAS  C:\Users\Thomas\AppData\Local\Temp\ccFPNZVb.s 			page 11


 150      9805FBB0 
 150      B533FB57 
 150      2323F118 
 150      FB
 151 006f 38E1BA5D 		.ascii	"8\341\272]\360\005F\023;H"
 151      F0054613 
 151      3B48
 152              		.text
 153              		.section	.gnu.lto_.refs.be9c7177,"",%progbits
 154 0000 789C25C8 		.ascii	"x\234%\310\301\021\000 \014\204@\310E+\261\377\032\315"
 154      C1110020 
 154      0C8440C8 
 154      452BB1FF 
 154      1ACD
 155 0012 282F6603 		.ascii	"(/f\003\034~AK[wj\036GV\345\321\262\261\270\013\204"
 155      1C7E414B 
 155      5B776A1E 
 155      4756E5D1 
 155      B2B1B80B 
 156 0027 0068     		.ascii	"\000h"
 157              		.text
 158              		.section	.gnu.lto_.decls.be9c7177,"",%progbits
 159 0000 789C9556 		.ascii	"x\234\225VkL\024W\024\236\273wY\226e\001S\033mh\033"
 159      6B4C1457 
 159      149EBB77 
 159      59966501 
 159      531B6D68 
 160 0015 B7D0506B 		.ascii	"\267\320Pk\215\321&6\376\253\011il\323\330\020i\353"
 160      8DD12636 
 160      FEAB0969 
 160      6CD3D810 
 160      69EB
 161 0027 0F49C88A 		.ascii	"\017I\310\212S%R \313\322\304_\035\004\204\342\013\351"
 161      53255220 
 161      CBD2C45F 
 161      1D0484E2 
 161      0BE9
 162 0039 43D48A6B 		.ascii	"C\324\212kW\345!\256\210\210\013+\302\202\302\012\202"
 162      57E521AE 
 162      88880B2B 
 162      C282C20A 
 162      82
 163 004a 2F8A0551 		.ascii	"/\212\005Q\226]\220\227\322U\251\305Z\262=\367\316\014"
 163      965D9097 
 163      D255A9C5 
 163      5AB23DF7 
 163      CE0C
 164 005c 3B63184D 		.ascii	";c\030M'9\313\334\271\337\371\316w\276{\357\014\230"
 164      2739CBDC 
 164      B9DFF9CE 
 164      77BE7BEF 
 164      0C98
 165 006e 61987EC4 		.ascii	"a\230~\3040~\270\022B\030&W\3050A\360,\216\011\\:\210"
 165      307EB812 
 165      42182657 
 165      C53041F0 
 165      2C8E095C 
ARM GAS  C:\Users\Thomas\AppData\Local\Temp\ccFPNZVb.s 			page 12


 166 0084 4A081B44 		.ascii	"J\010\033D\025D5D=\304%\010\027\304U\210.\210\353\020"
 166      15443544 
 166      3DC42508 
 166      17C45588 
 166      2E88EB10 
 167 0098 40C57818 		.ascii	"@\305x\030\371Er\303\004N\003\304\002\010/D3\304\020"
 167      F94572C3 
 167      044E03C4 
 167      02082F44 
 167      33C410
 168 00ab 841BC209 		.ascii	"\204\033\302\0111\0061\002Q\0131\016a\207\300\020}D"
 168      31063102 
 168      510B310E 
 168      6187C010 
 168      7D44
 169 00bd 2344AF30 		.ascii	"#D\2570\256\024j\327+\324\263\315QOZg\002\242]\250#"
 169      AE146AD7 
 169      2BD4B3CD 
 169      514F5A67 
 169      02A25DA8 
 170 00d2 D67C00D1 		.ascii	"\326|\000\321\252P\317&\364\350R\250W%x\024'\324\232"
 170      AA50CF26 
 170      F4E852A8 
 170      57257814 
 170      27D49A
 171 00e5 94F08A75 		.ascii	"\224\360\212uI-\037D\271\300qW\340\256\022\274\253T"
 171      492D1F44 
 171      B9C07157 
 171      E0AE12BC 
 171      AB54
 172 00f7 E0265E07 		.ascii	"\340&^\007K\270E\016)\257\224\257Z\320\253\264\026\217"
 172      4BB8450E 
 172      29AF94AF 
 172      5AD0ABB4 
 172      168F
 173 0109 54A8CE36 		.ascii	"T\250\3166\325\031:\252B\341:\003\031\326\027\271\212"
 173      D5193AAA 
 173      42E13A03 
 173      19D617B9 
 173      8A
 174 011a 3530D4EB 		.ascii	"50\324\353\324d\350x\356\351V/\374\231\203\2530\233"
 174      D464E878 
 174      EEE9562F 
 174      FC9983AB 
 174      309B
 175 012c 9BA74671 		.ascii	"\233\247Fq\013P)\212De(\022\030\313\321B\370\335\240"
 175      0B50298A 
 175      44652812 
 175      18CBD142 
 175      F8DDA0
 176 013f E6990E0D 		.ascii	"\346\231\016\015]>\035\212U\210\334[\213\007\273uK+"
 176      5D3E1D8A 
 176      5588DC5B 
 176      8B07BB75 
 176      4B2B
 177 0151 202D9F6B 		.ascii	" -\237kr\253\003\345\254\236=\375\032C\011\347\256\362"
 177      72AB03E5 
ARM GAS  C:\Users\Thomas\AppData\Local\Temp\ccFPNZVb.s 			page 13


 177      AC9E3DFD 
 177      1A4309E7 
 177      AEF2
 178 0163 DDA9EDD5 		.ascii	"\335\251\355\325s.\256\311\357\377\230R\241\012\204"
 178      732EAEC9 
 178      EFFF9852 
 178      A10A84
 179 0172 D149B494 		.ascii	"\321I\264\224 \311=MA\225\310\000i\305\303g\247\324"
 179      20C93D4D 
 179      4195C800 
 179      69C5C367 
 179      A7D4
 180 0184 D848B96F 		.ascii	"\330H\271o\315\364\237\014\246\024\226\303V\015O@\363"
 180      CDF49F0C 
 180      A61496C3 
 180      560D4F40 
 180      F3
 181 0195 4F49F24F 		.ascii	"OI\362O\211\3716\232\337Soo\014\306;\020/nf\362W\242"
 181      89F9369A 
 181      DF536F6F 
 181      0CC63B10 
 181      2F6E66F2 
 182 01ab C1526519 		.ascii	"\301Re\031\225\021\234\226\020\234\026\011\252(\201"
 182      95119C96 
 182      109C1609 
 182      AA2881
 183 01ba DD3AF31E 		.ascii	"\335:\363\036\266\362\371\216\003\276]A|\276\355\270"
 183      B6F2F98E 
 183      03BE5D41 
 183      7CBEEDB8 
 184 01ca 34FF8C24 		.ascii	"4\377\214$\377\214\230_\315\013h\314\313\323b'O\220"
 184      FF8C985F 
 184      CD0B68CC 
 184      CBD36227 
 184      4F90
 185 01dc 75C2B12B 		.ascii	"u\302\261+\030L^\240\243\236\354\3518\350\304t\350'"
 185      184C5EA0 
 185      A39EECE9 
 185      38E8C474 
 185      E827
 186 01ee D3AADEDE 		.ascii	"\323\252\336\336\237\236a\244\213\311\347\270\355\234"
 186      9F9E61A4 
 186      8BC9E7B8 
 186      ED9C
 187 01fc AF88C36F 		.ascii	"\257\210\303o0hi$z?\222A\347Q\014\300h\021T\003\353"
 187      30686924 
 187      7A3F9241 
 187      E7510CC0 
 187      68115403 
 188 0211 700ED6E1 		.ascii	"p\016\326\341\030\270\354\333\333V\361y6\267\032\325"
 188      18B8ECDB 
 188      DB56F179 
 188      36B71AD5 
 189 0221 221D3A3B 		.ascii	"\"\035:;+\203V\020\234\377!\247\012KW\222 \003Ki\227"
 189      2B835610 
 189      9CFF21A7 
 189      0A4B5792 
ARM GAS  C:\Users\Thomas\AppData\Local\Temp\ccFPNZVb.s 			page 14


 189      20034B69 
 190 0236 2DE5B0BD 		.ascii	"-\345\260\275\244\006\343\011^\355o\236\262\006D\374"
 190      A406E309 
 190      5EED6F9E 
 190      B20644FC 
 191 0246 E67CB6B1 		.ascii	"\346|\266\261\307[\366e\027\036\343\334~\377\"\232\204"
 191      C75BF665 
 191      171EE3DC 
 191      7EFF229A 
 191      84
 192 0257 EA243DD7 		.ascii	"\352$=\327\211=\327\323\236;<\323O\364tk\315#<\007o"
 192      893DD7D3 
 192      9E3B3CD3 
 192      4FF4746B 
 192      CD233C07 
 193 026c 0F4F61BA 		.ascii	"\017Oa\272\265Tdx\370\361\344\205\020|E%s\304\300;\262"
 193      B5546478 
 193      F8F1E485 
 193      107C4525 
 193      73C4C03B 
 194 0281 7F62BA46 		.ascii	"\177b\272FK\207~?&\226<\367\332J5(F\307\367:\302\367"
 194      4B877E3F 
 194      26963CF7 
 194      DA4A3528 
 194      46C7F73A 
 195 0297 EA840E1A 		.ascii	"\352\204\016\032\002\275\032\204^\251m\\6\027T\026\316"
 195      02BD1A84 
 195      5EA96D5C 
 195      36175416 
 195      CE
 196 02a8 20077478 		.ascii	" \007tx\001:DM\340\234Ap\356\"<l\204\207P\351Yn\347"
 196      013A444D 
 196      E09C4170 
 196      EE223C6C 
 196      848750E9 
 197 02bf 80CC16A7 		.ascii	"\200\314\026\247\314\226f\231-c%\316Z-\276\316K\366"
 197      CC966699 
 197      2D6325CE 
 197      5A2DBECE 
 197      4BF6
 198 02d1 54D7F5AA 		.ascii	"T\327\365\252\005[\312\237~*\261\005\222P\213\304\226"
 198      055BCA9F 
 198      7E2AB105 
 198      92508BC4 
 198      96
 199 02e2 16D1964B 		.ascii	"\026\321\226K\324\226\302\\g\241Z\015oV\272\004\033"
 199      D496C25C 
 199      67A15A0D 
 199      6F56BA04 
 199      1B
 200 02f3 E839FBCB 		.ascii	"\3509\373\313?x\\\245x\316Z\251\212\313H\220\221co?"
 200      3F785CA5 
 200      78CE5AA9 
 200      8ACB4890 
 200      91636F3F 
 201 0307 15819FF0 		.ascii	"\025\201\237\3602~\311s=\211\2402\334W\255mz\213x\240"
 201      327EC973 
ARM GAS  C:\Users\Thomas\AppData\Local\Temp\ccFPNZVb.s 			page 15


 201      3D89A032 
 201      DC57AD6D 
 201      7A8B78A0 
 202 031b 2007B549 		.ascii	" \007\265ID\264\211\"\\T\304\205c\343\223\241T\204s"
 202      44B48922 
 202      5C54C485 
 202      63E393A1 
 202      548473
 203 032e 56C4C0B9 		.ascii	"V\304\300\271\247\347u\212\"\332\251\210+\242\210\213"
 203      A7E7758A 
 203      22DAA988 
 203      2BA2888B 
 204 033e 3547DAC2 		.ascii	"5G\332\302\361\021LE\264^\032piy\021}\326\326\200\010"
 204      F1114C45 
 204      B45E1A70 
 204      6979117D 
 204      D6D68008 
 205 0352 C8411D12 		.ascii	"\310A\035\022\021\035\242\210\253T\304sn\227\036\267"
 205      111DA288 
 205      AB54C473 
 205      6E971EB7 
 206 0362 F0142E8B 		.ascii	"\360\024.\213\343p\020\245\2608\254;\014\222S\325)!"
 206      E37010A5 
 206      B038AC3B 
 206      0C9253D5 
 206      2921
 207 0374 E81409BA 		.ascii	"\350\024\011\272(\301\2177n\367\204\342\001\236\241"
 207      28C18F37 
 207      6EF784E2 
 207      019EA1
 208 0383 C6B6278B 		.ascii	"\306\266'\213gp\037\272\3146\347p\377\222\315C)\256"
 208      67701FBA 
 208      CC36E770 
 208      FF92CD43 
 208      29AE
 209 0395 4928AE89 		.ascii	"I(\256\211\024\327)\305\300\337\003\315\301t\223.'$"
 209      14D729C5 
 209      C0DF03CD 
 209      C174932E 
 209      2724
 210 03a7 45B9767B 		.ascii	"E\271v{8\335\244\0322\234\364\332K\202\360\014_\340"
 210      38DDA41A 
 210      329CF4DA 
 210      4B82F00C 
 210      5FE0
 211 03b9 51C36EAB 		.ascii	"Q\303n\253\016\037U\323\301\376\266\226\1770\256\346"
 211      0E1F55D3 
 211      C1FEB696 
 211      7F30AEE6 
 212 03c9 07390D27 		.ascii	"\0079\015'\012\203\261\203\037\334/9\320\023\201\273"
 212      0A83B183 
 212      1FDC2F39 
 212      D01381BB 
 213 03d9 F84199A7 		.ascii	"\370A\231\247\253(\214\322/\206\241f\347\276\242\376"
 213      AB288CD2 
 213      2F86A166 
 213      E7BEA2FE 
ARM GAS  C:\Users\Thomas\AppData\Local\Temp\ccFPNZVb.s 			page 16


 214 03e9 30141535 		.ascii	"0\024\0255?**\306\002\373\324}\304\333\036\312\025/"
 214      3F2A2AC6 
 214      02FBD47D 
 214      C4DB1ECA 
 214      152F
 215 03fb A75BE136 		.ascii	"\247[\3416\250\274\203\346\213g}1q\375\017\342=C\241"
 215      A8BC83E6 
 215      8B677D31 
 215      71FD0FE2 
 215      3D43A1
 216 040e C5D9057A 		.ascii	"\305\331\005z\256l9]\260\337\005\350\354\366\246`\007"
 216      AE6C395D 
 216      B0DF05E8 
 216      ECF6A660 
 216      07
 217 041f 05EFA30B 		.ascii	"\005\357\243\013\310q\253M\014\272\001\3637\351\362"
 217      C871AB4D 
 217      0CBA01F3 
 217      37E9F2
 218 042e 11345880 		.ascii	"\0214X\200\356\3019\270\213\242P\037D?D/\212\242v\320"
 218      EEC139B8 
 218      8BA2501F 
 218      443F442F 
 218      8AA276D0 
 219 0442 1207BC6D 		.ascii	"\022\007\274m\263jz\346PS\032P\263\333\333:\013\355"
 219      B36A7AE6 
 219      50531A50 
 219      B3DBDB3A 
 219      0BED
 220 0454 9E03BA84 		.ascii	"\236\003\272\204 \311qu\357\264j8D\346\031q\015\304"
 220      20C97175 
 220      EFB46A38 
 220      44E61971 
 220      0DC4
 221 0466 77922ADB 		.ascii	"w\222*\333Q6\035\201b\346S\334\311X-r\003\313\255\300"
 221      51361D81 
 221      62E653DC 
 221      C9582D72 
 221      03CBADC0 
 222 047a 912649F4 		.ascii	"\221&I\364\232\253'4\000\255\274\252-X\202\352j\307"
 222      9AAB2734 
 222      00ADBCAA 
 222      2D5882EA 
 222      6AC7
 223 048c B508ECE5 		.ascii	"\265\010\354\345\327\203\273\351\336\255\213>\312q\026"
 223      D783BBE9 
 223      DEAD8B3E 
 223      CA7116
 224 049b DF9D3E9F 		.ascii	"\337\235>\237*\213\263\300\273\202\3544Zz\220/-\261"
 224      2A8BB3C0 
 224      BB82EC34 
 224      5A7A902F 
 224      2DB1
 225 04ad 6D90DF2D 		.ascii	"m\220\337-\310\203\242!\373\241\247\242P\243/ /\030"
 225      C883A221 
 225      FBA1A7A2 
 225      50A32F20 
ARM GAS  C:\Users\Thomas\AppData\Local\Temp\ccFPNZVb.s 			page 17


 225      2F18
 226 04bf 382121AE 		.ascii	"8!!\256pz\326\003g\304\213\364\024\015\177\001\335}"
 226      707AD603 
 226      67C48BF4 
 226      140D7F01 
 226      DD7D
 227 04d1 DC3A152A 		.ascii	"\334:\025*C\223\032\001\364\220\200\036\242hn\377\316"
 227      43931A01 
 227      F490801E 
 227      A2686EFF 
 227      CE
 228 04e2 635A9C15 		.ascii	"cZ\234\025De\236{ZP\027\246\313'\257\261W\177\000\300"
 228      44659E7B 
 228      5A5017A6 
 228      CB27AFB1 
 228      577F00C0 
 229 04f6 C8EEAE82 		.ascii	"\310\356\256\202\236\020\376\223\361b\306\250\342'#"
 229      9E10FE93 
 229      F162C6A8 
 229      E22723
 230 0505 AF517F85 		.ascii	"\257Q\177\205\343\264h\004\226p8`\372}$\371hx\016v\352"
 230      E3B46804 
 230      96703860 
 230      FA7D24F9 
 230      68780E76 
 231 051a 652D8CC8 		.ascii	"e-\214\310\336\217cB\013c\264\205\351\243\203\367#d"
 231      DE8F6342 
 231      0B63B485 
 231      E9A383F7 
 231      2364
 232 052c 68BBCC9E 		.ascii	"h\273\314\236q\001=N\321}\365\316\273a2t\273\014=!\240"
 232      71013D4E 
 232      D17DF5CE 
 232      BB613274 
 232      BB0C3D21 
 233 0541 2728BAB0 		.ascii	"'(\272\260\350\320\305\020\031\272U\206~ \240\037\020"
 233      E8D0C510 
 233      19BA5586 
 233      7E20A01F 
 233      10
 234 0552 3476963A 		.ascii	"4v\226:\373t(R\027Y\014\377\200L/B\223\320S>\331C\276"
 234      FB742852 
 234      17590CFF 
 234      804C2F42 
 234      93D0533E 
 235 0569 ED1C2E0E 		.ascii	"\355\034.\016\027\315a\350\004\203\376\004\232\207@"
 235      17CD61E8 
 235      0483FE04 
 235      9A8740
 236 0578 43D04DA3 		.ascii	"C\320M\243~\377\367~\376\332\033L\001\344\007$\334+"
 236      7EFFF77E 
 236      FEDA1B4C 
 236      01E40724 
 236      DC2B
 237 058a 6E2A50CB 		.ascii	"n*P\313$\224\313$\370\220^\364\020n\231wb\323R3\322"
 237      2494CB24 
 237      F8905EF4 
ARM GAS  C:\Users\Thomas\AppData\Local\Temp\ccFPNZVb.s 			page 18


 237      106E9977 
 237      62D35233 
 238 059f 52D8B834 		.ascii	"R\330\2704\2239qE\342\372\344\324/\223\277eM\211\361"
 238      93397145 
 238      E2FAE4D4 
 238      2F93BF65 
 238      4D89F1
 239 05b2 C6EF5898 		.ascii	"\306\357X\230\372&y\263f\315\027_\031b\231\225\313\022"
 239      FA2679B3 
 239      66CD175F 
 239      19629995 
 239      CB12
 240 05c4 D6B0A9AC 		.ascii	"\326\260\251\254\311hf7%\306\247e\232\222\330\204\270"
 240      C9686637 
 240      25C6A765 
 240      9A92D884 
 240      B8
 241 05d5 F8B4D895 		.ascii	"\370\264\330\225\011\012\014qk\227%1\357*L\256c3\314"
 241      090A0C71 
 241      6B972531 
 241      EF2A4CAE 
 241      6333CC
 242 05e8 6926A1C2 		.ascii	"i&\241\302[J\032RX6\375m\205\311\365\306\255lfzPfr\252"
 242      5B4A1A52 
 242      5836FD6D 
 242      85C9F5C6 
 242      AD6C667A 
 243 0600 7955B4A2 		.ascii	"yU\264\242\266\244m\346m\351l\306\262-\314\022E%\306"
 243      B6A46DE6 
 243      6DE96CC6 
 243      B22DCC12 
 243      4525C6
 244 0613 4D306536 		.ascii	"M0e6\245\245\254c7'g\230Y\323\207\377\263U`\327\020"
 244      A5A5AC63 
 244      37276798 
 244      59D387FF 
 244      B35560D7 
 245 0628 1D2B3E8A 		.ascii	"\035+>\212zi\221\314T \377@\251\037S\262\231}AH\364"
 245      7A6991CC 
 245      5420FF40 
 245      A91F53B2 
 245      997D4148 
 246 063d CBB194EF 		.ascii	"\313\261\224\357M%\363\314i\212\336}\222j\334\230\302"
 246      4D25F3CC 
 246      698ADE7D 
 246      926ADC98 
 246      C2
 247 064e 2AB16F34 		.ascii	"*\261o4&m\315L\2177\2332\223\314\363\350#\036\037o\006"
 247      266DCD4C 
 247      8F379B32 
 247      93CCF3E8 
 247      231E1F6F 
 248 0663 43B4F4C1 		.ascii	"C\264\364\301W\2336\276\366\031\251n\312L7\2575fl\375"
 248      579B36BE 
 248      F619A96E 
 248      CA4C37AF 
 248      35666CFD 
ARM GAS  C:\Users\Thomas\AppData\Local\Temp\ccFPNZVb.s 			page 19


 249 0677 DA9892C9 		.ascii	"\332\230\222\311\276N\347^\350AI\003_Emb7\257\372\017"
 249      BE4EE75E 
 249      E8414903 
 249      5F456D62 
 249      37AFFA0F 
 250 068b 498A0D79 		.ascii	"I\212\015y"
 251              		.text
 252              		.section	.gnu.lto_.symtab.be9c7177,"",%progbits
 253 0000 436F6E73 		.ascii	"ConsolePort_1_WinTimer_SaveConfig\000\000\000\000\000"
 253      6F6C6550 
 253      6F72745F 
 253      315F5769 
 253      6E54696D 
 254 0026 00000000 		.ascii	"\000\000\000\000\000\000\000\254\000\000\000Console"
 254      000000AC 
 254      00000043 
 254      6F6E736F 
 254      6C65
 255 0038 506F7274 		.ascii	"Port_1_WinTimer_RestoreConfig\000\000\000\000\000\000"
 255      5F315F57 
 255      696E5469 
 255      6D65725F 
 255      52657374 
 256 005b 00000000 		.ascii	"\000\000\000\000\000\000\256\000\000\000ConsolePort"
 256      0000AE00 
 256      0000436F 
 256      6E736F6C 
 256      65506F72 
 257 0070 5F315F57 		.ascii	"_1_WinTimer_Sleep\000\000\000\000\000\000\000\000\000"
 257      696E5469 
 257      6D65725F 
 257      536C6565 
 257      70000000 
 258 008a 000000B0 		.ascii	"\000\000\000\260\000\000\000ConsolePort_1_WinTimer_"
 258      00000043 
 258      6F6E736F 
 258      6C65506F 
 258      72745F31 
 259 00a8 57616B65 		.ascii	"Wakeup\000\000\000\000\000\000\000\000\000\000\000\000"
 259      75700000 
 259      00000000 
 259      00000000 
 259      0000
 260 00ba B2000000 		.ascii	"\262\000\000\000ConsolePort_1_WinTimer_ReadControlR"
 260      436F6E73 
 260      6F6C6550 
 260      6F72745F 
 260      315F5769 
 261 00e1 65676973 		.ascii	"egister\000\000\002\000\000\000\000\000\000\000\000"
 261      74657200 
 261      00020000 
 261      00000000 
 261      0000
 262 00f3 00BA0000 		.ascii	"\000\272\000\000\000ConsolePort_1_WinTimer_ReadCoun"
 262      00436F6E 
 262      736F6C65 
 262      506F7274 
ARM GAS  C:\Users\Thomas\AppData\Local\Temp\ccFPNZVb.s 			page 20


 262      5F315F57 
 263 0117 74657200 		.ascii	"ter\000\000\002\000\000\000\000\000\000\000\000\000"
 263      00020000 
 263      00000000 
 263      000000
 264 0126 C4000000 		.ascii	"\304\000\000\000ConsolePort_1_WinTimer_WriteControl"
 264      436F6E73 
 264      6F6C6550 
 264      6F72745F 
 264      315F5769 
 265 014d 52656769 		.ascii	"Register\000\000\002\000\000\000\000\000\000\000\000"
 265      73746572 
 265      00000200 
 265      00000000 
 265      000000
 266 0160 00C80000 		.ascii	"\000\310\000\000\000ConsolePort_1_WinTimer_WriteCou"
 266      00436F6E 
 266      736F6C65 
 266      506F7274 
 266      5F315F57 
 267 0184 6E746572 		.ascii	"nter\000\000\002\000\000\000\000\000\000\000\000\000"
 267      00000200 
 267      00000000 
 267      00000000 
 268 0194 CC000000 		.ascii	"\314\000\000\000ConsolePort_1_WinTimer_Stop\000\000"
 268      436F6E73 
 268      6F6C6550 
 268      6F72745F 
 268      315F5769 
 269 01b5 02000000 		.ascii	"\002\000\000\000\000\000\000\000\000\000\316\000\000"
 269      00000000 
 269      0000CE00 
 269      00
 270 01c2 00436F6E 		.ascii	"\000ConsolePort_1_WinTimer_Enable\000\000\002\000\000"
 270      736F6C65 
 270      506F7274 
 270      5F315F57 
 270      696E5469 
 271 01e5 00000000 		.ascii	"\000\000\000\000\000\000\000\320\000\000\000"
 271      000000D0 
 271      000000
 272              		.text
 273              		.section	.gnu.lto_.opts,"",%progbits
 274 0000 272D666E 		.ascii	"'-fno-trapv' '-mcpu=cortex-m3' '-mthumb' '-g' '-O3'"
 274      6F2D7472 
 274      61707627 
 274      20272D6D 
 274      6370753D 
 275 0033 20272D66 		.ascii	" '-ffunction-sections' '-finline-functions' '-flto'"
 275      66756E63 
 275      74696F6E 
 275      2D736563 
 275      74696F6E 
 276 0066 20272D66 		.ascii	" '-ffat-lto-objects'\000"
 276      6661742D 
 276      6C746F2D 
 276      6F626A65 
ARM GAS  C:\Users\Thomas\AppData\Local\Temp\ccFPNZVb.s 			page 21


 276      63747327 
 277              		.text
 278              		.cfi_sections	.debug_frame
 279              		.section	.text.ConsolePort_1_WinTimer_SaveConfig,"ax",%progbits
 280              		.align	2
 281              		.global	ConsolePort_1_WinTimer_SaveConfig
 282              		.thumb
 283              		.thumb_func
 284              		.type	ConsolePort_1_WinTimer_SaveConfig, %function
 285              	ConsolePort_1_WinTimer_SaveConfig:
 286              	.LFB0:
 287              		.file 1 ".\\Generated_Source\\PSoC5\\ConsolePort_1_WinTimer_PM.c"
   1:.\Generated_Source\PSoC5/ConsolePort_1_WinTimer_PM.c **** /*******************************************************************************
   2:.\Generated_Source\PSoC5/ConsolePort_1_WinTimer_PM.c **** * File Name: ConsolePort_1_WinTimer_PM.c
   3:.\Generated_Source\PSoC5/ConsolePort_1_WinTimer_PM.c **** * Version 2.70
   4:.\Generated_Source\PSoC5/ConsolePort_1_WinTimer_PM.c **** *
   5:.\Generated_Source\PSoC5/ConsolePort_1_WinTimer_PM.c **** *  Description:
   6:.\Generated_Source\PSoC5/ConsolePort_1_WinTimer_PM.c **** *     This file provides the power management source code to API for the
   7:.\Generated_Source\PSoC5/ConsolePort_1_WinTimer_PM.c **** *     Timer.
   8:.\Generated_Source\PSoC5/ConsolePort_1_WinTimer_PM.c **** *
   9:.\Generated_Source\PSoC5/ConsolePort_1_WinTimer_PM.c **** *   Note:
  10:.\Generated_Source\PSoC5/ConsolePort_1_WinTimer_PM.c **** *     None
  11:.\Generated_Source\PSoC5/ConsolePort_1_WinTimer_PM.c **** *
  12:.\Generated_Source\PSoC5/ConsolePort_1_WinTimer_PM.c **** *******************************************************************************
  13:.\Generated_Source\PSoC5/ConsolePort_1_WinTimer_PM.c **** * Copyright 2008-2014, Cypress Semiconductor Corporation.  All rights reserved.
  14:.\Generated_Source\PSoC5/ConsolePort_1_WinTimer_PM.c **** * You may use this file only in accordance with the license, terms, conditions,
  15:.\Generated_Source\PSoC5/ConsolePort_1_WinTimer_PM.c **** * disclaimers, and limitations in the end user license agreement accompanying
  16:.\Generated_Source\PSoC5/ConsolePort_1_WinTimer_PM.c **** * the software package with which this file was provided.
  17:.\Generated_Source\PSoC5/ConsolePort_1_WinTimer_PM.c **** ********************************************************************************/
  18:.\Generated_Source\PSoC5/ConsolePort_1_WinTimer_PM.c **** 
  19:.\Generated_Source\PSoC5/ConsolePort_1_WinTimer_PM.c **** #include "ConsolePort_1_WinTimer.h"
  20:.\Generated_Source\PSoC5/ConsolePort_1_WinTimer_PM.c **** 
  21:.\Generated_Source\PSoC5/ConsolePort_1_WinTimer_PM.c **** static ConsolePort_1_WinTimer_backupStruct ConsolePort_1_WinTimer_backup;
  22:.\Generated_Source\PSoC5/ConsolePort_1_WinTimer_PM.c **** 
  23:.\Generated_Source\PSoC5/ConsolePort_1_WinTimer_PM.c **** 
  24:.\Generated_Source\PSoC5/ConsolePort_1_WinTimer_PM.c **** /*******************************************************************************
  25:.\Generated_Source\PSoC5/ConsolePort_1_WinTimer_PM.c **** * Function Name: ConsolePort_1_WinTimer_SaveConfig
  26:.\Generated_Source\PSoC5/ConsolePort_1_WinTimer_PM.c **** ********************************************************************************
  27:.\Generated_Source\PSoC5/ConsolePort_1_WinTimer_PM.c **** *
  28:.\Generated_Source\PSoC5/ConsolePort_1_WinTimer_PM.c **** * Summary:
  29:.\Generated_Source\PSoC5/ConsolePort_1_WinTimer_PM.c **** *     Save the current user configuration
  30:.\Generated_Source\PSoC5/ConsolePort_1_WinTimer_PM.c **** *
  31:.\Generated_Source\PSoC5/ConsolePort_1_WinTimer_PM.c **** * Parameters:
  32:.\Generated_Source\PSoC5/ConsolePort_1_WinTimer_PM.c **** *  void
  33:.\Generated_Source\PSoC5/ConsolePort_1_WinTimer_PM.c **** *
  34:.\Generated_Source\PSoC5/ConsolePort_1_WinTimer_PM.c **** * Return:
  35:.\Generated_Source\PSoC5/ConsolePort_1_WinTimer_PM.c **** *  void
  36:.\Generated_Source\PSoC5/ConsolePort_1_WinTimer_PM.c **** *
  37:.\Generated_Source\PSoC5/ConsolePort_1_WinTimer_PM.c **** * Global variables:
  38:.\Generated_Source\PSoC5/ConsolePort_1_WinTimer_PM.c **** *  ConsolePort_1_WinTimer_backup:  Variables of this global structure are modified to
  39:.\Generated_Source\PSoC5/ConsolePort_1_WinTimer_PM.c **** *  store the values of non retention configuration registers when Sleep() API is
  40:.\Generated_Source\PSoC5/ConsolePort_1_WinTimer_PM.c **** *  called.
  41:.\Generated_Source\PSoC5/ConsolePort_1_WinTimer_PM.c **** *
  42:.\Generated_Source\PSoC5/ConsolePort_1_WinTimer_PM.c **** *******************************************************************************/
  43:.\Generated_Source\PSoC5/ConsolePort_1_WinTimer_PM.c **** void ConsolePort_1_WinTimer_SaveConfig(void) 
  44:.\Generated_Source\PSoC5/ConsolePort_1_WinTimer_PM.c **** {
 288              		.loc 1 44 0
ARM GAS  C:\Users\Thomas\AppData\Local\Temp\ccFPNZVb.s 			page 22


 289              		.cfi_startproc
 290              		@ args = 0, pretend = 0, frame = 0
 291              		@ frame_needed = 0, uses_anonymous_args = 0
 292 0000 10B5     		push	{r4, lr}
 293              		.cfi_def_cfa_offset 8
 294              		.cfi_offset 4, -8
 295              		.cfi_offset 14, -4
  45:.\Generated_Source\PSoC5/ConsolePort_1_WinTimer_PM.c ****     #if (!ConsolePort_1_WinTimer_UsingFixedFunction)
  46:.\Generated_Source\PSoC5/ConsolePort_1_WinTimer_PM.c ****         ConsolePort_1_WinTimer_backup.TimerUdb = ConsolePort_1_WinTimer_ReadCounter();
 296              		.loc 1 46 0
 297 0002 FFF7FEFF 		bl	ConsolePort_1_WinTimer_ReadCounter
 298              	.LVL0:
  47:.\Generated_Source\PSoC5/ConsolePort_1_WinTimer_PM.c ****         ConsolePort_1_WinTimer_backup.InterruptMaskValue = ConsolePort_1_WinTimer_STATUS_MASK;
 299              		.loc 1 47 0
 300 0006 044B     		ldr	r3, .L3
  46:.\Generated_Source\PSoC5/ConsolePort_1_WinTimer_PM.c ****         ConsolePort_1_WinTimer_backup.InterruptMaskValue = ConsolePort_1_WinTimer_STATUS_MASK;
 301              		.loc 1 46 0
 302 0008 044C     		ldr	r4, .L3+4
 303              		.loc 1 47 0
 304 000a 1B78     		ldrb	r3, [r3]	@ zero_extendqisi2
  46:.\Generated_Source\PSoC5/ConsolePort_1_WinTimer_PM.c ****         ConsolePort_1_WinTimer_backup.InterruptMaskValue = ConsolePort_1_WinTimer_STATUS_MASK;
 305              		.loc 1 46 0
 306 000c 6080     		strh	r0, [r4, #2]	@ movhi
 307              		.loc 1 47 0
 308 000e 2371     		strb	r3, [r4, #4]
  48:.\Generated_Source\PSoC5/ConsolePort_1_WinTimer_PM.c ****         #if (ConsolePort_1_WinTimer_UsingHWCaptureCounter)
  49:.\Generated_Source\PSoC5/ConsolePort_1_WinTimer_PM.c ****             ConsolePort_1_WinTimer_backup.TimerCaptureCounter = ConsolePort_1_WinTimer_ReadCaptureC
  50:.\Generated_Source\PSoC5/ConsolePort_1_WinTimer_PM.c ****         #endif /* Back Up capture counter register  */
  51:.\Generated_Source\PSoC5/ConsolePort_1_WinTimer_PM.c **** 
  52:.\Generated_Source\PSoC5/ConsolePort_1_WinTimer_PM.c ****         #if(!ConsolePort_1_WinTimer_UDB_CONTROL_REG_REMOVED)
  53:.\Generated_Source\PSoC5/ConsolePort_1_WinTimer_PM.c ****             ConsolePort_1_WinTimer_backup.TimerControlRegister = ConsolePort_1_WinTimer_ReadControl
 309              		.loc 1 53 0
 310 0010 FFF7FEFF 		bl	ConsolePort_1_WinTimer_ReadControlRegister
 311              	.LVL1:
 312 0014 6071     		strb	r0, [r4, #5]
 313 0016 10BD     		pop	{r4, pc}
 314              	.L4:
 315              		.align	2
 316              	.L3:
 317 0018 85640040 		.word	1073767557
 318 001c 00000000 		.word	.LANCHOR0
 319              		.cfi_endproc
 320              	.LFE0:
 321              		.size	ConsolePort_1_WinTimer_SaveConfig, .-ConsolePort_1_WinTimer_SaveConfig
 322              		.section	.text.ConsolePort_1_WinTimer_RestoreConfig,"ax",%progbits
 323              		.align	2
 324              		.global	ConsolePort_1_WinTimer_RestoreConfig
 325              		.thumb
 326              		.thumb_func
 327              		.type	ConsolePort_1_WinTimer_RestoreConfig, %function
 328              	ConsolePort_1_WinTimer_RestoreConfig:
 329              	.LFB1:
  54:.\Generated_Source\PSoC5/ConsolePort_1_WinTimer_PM.c ****         #endif /* Backup the enable state of the Timer component */
  55:.\Generated_Source\PSoC5/ConsolePort_1_WinTimer_PM.c ****     #endif /* Backup non retention registers in UDB implementation. All fixed function registers ar
  56:.\Generated_Source\PSoC5/ConsolePort_1_WinTimer_PM.c **** }
  57:.\Generated_Source\PSoC5/ConsolePort_1_WinTimer_PM.c **** 
  58:.\Generated_Source\PSoC5/ConsolePort_1_WinTimer_PM.c **** 
ARM GAS  C:\Users\Thomas\AppData\Local\Temp\ccFPNZVb.s 			page 23


  59:.\Generated_Source\PSoC5/ConsolePort_1_WinTimer_PM.c **** /*******************************************************************************
  60:.\Generated_Source\PSoC5/ConsolePort_1_WinTimer_PM.c **** * Function Name: ConsolePort_1_WinTimer_RestoreConfig
  61:.\Generated_Source\PSoC5/ConsolePort_1_WinTimer_PM.c **** ********************************************************************************
  62:.\Generated_Source\PSoC5/ConsolePort_1_WinTimer_PM.c **** *
  63:.\Generated_Source\PSoC5/ConsolePort_1_WinTimer_PM.c **** * Summary:
  64:.\Generated_Source\PSoC5/ConsolePort_1_WinTimer_PM.c **** *  Restores the current user configuration.
  65:.\Generated_Source\PSoC5/ConsolePort_1_WinTimer_PM.c **** *
  66:.\Generated_Source\PSoC5/ConsolePort_1_WinTimer_PM.c **** * Parameters:
  67:.\Generated_Source\PSoC5/ConsolePort_1_WinTimer_PM.c **** *  void
  68:.\Generated_Source\PSoC5/ConsolePort_1_WinTimer_PM.c **** *
  69:.\Generated_Source\PSoC5/ConsolePort_1_WinTimer_PM.c **** * Return:
  70:.\Generated_Source\PSoC5/ConsolePort_1_WinTimer_PM.c **** *  void
  71:.\Generated_Source\PSoC5/ConsolePort_1_WinTimer_PM.c **** *
  72:.\Generated_Source\PSoC5/ConsolePort_1_WinTimer_PM.c **** * Global variables:
  73:.\Generated_Source\PSoC5/ConsolePort_1_WinTimer_PM.c **** *  ConsolePort_1_WinTimer_backup:  Variables of this global structure are used to
  74:.\Generated_Source\PSoC5/ConsolePort_1_WinTimer_PM.c **** *  restore the values of non retention registers on wakeup from sleep mode.
  75:.\Generated_Source\PSoC5/ConsolePort_1_WinTimer_PM.c **** *
  76:.\Generated_Source\PSoC5/ConsolePort_1_WinTimer_PM.c **** *******************************************************************************/
  77:.\Generated_Source\PSoC5/ConsolePort_1_WinTimer_PM.c **** void ConsolePort_1_WinTimer_RestoreConfig(void) 
  78:.\Generated_Source\PSoC5/ConsolePort_1_WinTimer_PM.c **** {   
 330              		.loc 1 78 0
 331              		.cfi_startproc
 332              		@ args = 0, pretend = 0, frame = 0
 333              		@ frame_needed = 0, uses_anonymous_args = 0
 334 0000 10B5     		push	{r4, lr}
 335              		.cfi_def_cfa_offset 8
 336              		.cfi_offset 4, -8
 337              		.cfi_offset 14, -4
  79:.\Generated_Source\PSoC5/ConsolePort_1_WinTimer_PM.c ****     #if (!ConsolePort_1_WinTimer_UsingFixedFunction)
  80:.\Generated_Source\PSoC5/ConsolePort_1_WinTimer_PM.c **** 
  81:.\Generated_Source\PSoC5/ConsolePort_1_WinTimer_PM.c ****         ConsolePort_1_WinTimer_WriteCounter(ConsolePort_1_WinTimer_backup.TimerUdb);
 338              		.loc 1 81 0
 339 0002 064C     		ldr	r4, .L7
 340 0004 6088     		ldrh	r0, [r4, #2]
 341 0006 FFF7FEFF 		bl	ConsolePort_1_WinTimer_WriteCounter
 342              	.LVL2:
  82:.\Generated_Source\PSoC5/ConsolePort_1_WinTimer_PM.c ****         ConsolePort_1_WinTimer_STATUS_MASK =ConsolePort_1_WinTimer_backup.InterruptMaskValue;
 343              		.loc 1 82 0
 344 000a 2279     		ldrb	r2, [r4, #4]	@ zero_extendqisi2
 345 000c 044B     		ldr	r3, .L7+4
  83:.\Generated_Source\PSoC5/ConsolePort_1_WinTimer_PM.c ****         #if (ConsolePort_1_WinTimer_UsingHWCaptureCounter)
  84:.\Generated_Source\PSoC5/ConsolePort_1_WinTimer_PM.c ****             ConsolePort_1_WinTimer_SetCaptureCount(ConsolePort_1_WinTimer_backup.TimerCaptureCounte
  85:.\Generated_Source\PSoC5/ConsolePort_1_WinTimer_PM.c ****         #endif /* Restore Capture counter register*/
  86:.\Generated_Source\PSoC5/ConsolePort_1_WinTimer_PM.c **** 
  87:.\Generated_Source\PSoC5/ConsolePort_1_WinTimer_PM.c ****         #if(!ConsolePort_1_WinTimer_UDB_CONTROL_REG_REMOVED)
  88:.\Generated_Source\PSoC5/ConsolePort_1_WinTimer_PM.c ****             ConsolePort_1_WinTimer_WriteControlRegister(ConsolePort_1_WinTimer_backup.TimerControlR
 346              		.loc 1 88 0
 347 000e 6079     		ldrb	r0, [r4, #5]	@ zero_extendqisi2
  82:.\Generated_Source\PSoC5/ConsolePort_1_WinTimer_PM.c ****         ConsolePort_1_WinTimer_STATUS_MASK =ConsolePort_1_WinTimer_backup.InterruptMaskValue;
 348              		.loc 1 82 0
 349 0010 1A70     		strb	r2, [r3]
  89:.\Generated_Source\PSoC5/ConsolePort_1_WinTimer_PM.c ****         #endif /* Restore the enable state of the Timer component */
  90:.\Generated_Source\PSoC5/ConsolePort_1_WinTimer_PM.c ****     #endif /* Restore non retention registers in the UDB implementation only */
  91:.\Generated_Source\PSoC5/ConsolePort_1_WinTimer_PM.c **** }
 350              		.loc 1 91 0
 351 0012 BDE81040 		pop	{r4, lr}
 352              		.cfi_restore 14
ARM GAS  C:\Users\Thomas\AppData\Local\Temp\ccFPNZVb.s 			page 24


 353              		.cfi_restore 4
 354              		.cfi_def_cfa_offset 0
  88:.\Generated_Source\PSoC5/ConsolePort_1_WinTimer_PM.c ****         #endif /* Restore the enable state of the Timer component */
 355              		.loc 1 88 0
 356 0016 FFF7FEBF 		b	ConsolePort_1_WinTimer_WriteControlRegister
 357              	.LVL3:
 358              	.L8:
 359 001a 00BF     		.align	2
 360              	.L7:
 361 001c 00000000 		.word	.LANCHOR0
 362 0020 85640040 		.word	1073767557
 363              		.cfi_endproc
 364              	.LFE1:
 365              		.size	ConsolePort_1_WinTimer_RestoreConfig, .-ConsolePort_1_WinTimer_RestoreConfig
 366              		.section	.text.ConsolePort_1_WinTimer_Sleep,"ax",%progbits
 367              		.align	2
 368              		.global	ConsolePort_1_WinTimer_Sleep
 369              		.thumb
 370              		.thumb_func
 371              		.type	ConsolePort_1_WinTimer_Sleep, %function
 372              	ConsolePort_1_WinTimer_Sleep:
 373              	.LFB2:
  92:.\Generated_Source\PSoC5/ConsolePort_1_WinTimer_PM.c **** 
  93:.\Generated_Source\PSoC5/ConsolePort_1_WinTimer_PM.c **** 
  94:.\Generated_Source\PSoC5/ConsolePort_1_WinTimer_PM.c **** /*******************************************************************************
  95:.\Generated_Source\PSoC5/ConsolePort_1_WinTimer_PM.c **** * Function Name: ConsolePort_1_WinTimer_Sleep
  96:.\Generated_Source\PSoC5/ConsolePort_1_WinTimer_PM.c **** ********************************************************************************
  97:.\Generated_Source\PSoC5/ConsolePort_1_WinTimer_PM.c **** *
  98:.\Generated_Source\PSoC5/ConsolePort_1_WinTimer_PM.c **** * Summary:
  99:.\Generated_Source\PSoC5/ConsolePort_1_WinTimer_PM.c **** *     Stop and Save the user configuration
 100:.\Generated_Source\PSoC5/ConsolePort_1_WinTimer_PM.c **** *
 101:.\Generated_Source\PSoC5/ConsolePort_1_WinTimer_PM.c **** * Parameters:
 102:.\Generated_Source\PSoC5/ConsolePort_1_WinTimer_PM.c **** *  void
 103:.\Generated_Source\PSoC5/ConsolePort_1_WinTimer_PM.c **** *
 104:.\Generated_Source\PSoC5/ConsolePort_1_WinTimer_PM.c **** * Return:
 105:.\Generated_Source\PSoC5/ConsolePort_1_WinTimer_PM.c **** *  void
 106:.\Generated_Source\PSoC5/ConsolePort_1_WinTimer_PM.c **** *
 107:.\Generated_Source\PSoC5/ConsolePort_1_WinTimer_PM.c **** * Global variables:
 108:.\Generated_Source\PSoC5/ConsolePort_1_WinTimer_PM.c **** *  ConsolePort_1_WinTimer_backup.TimerEnableState:  Is modified depending on the
 109:.\Generated_Source\PSoC5/ConsolePort_1_WinTimer_PM.c **** *  enable state of the block before entering sleep mode.
 110:.\Generated_Source\PSoC5/ConsolePort_1_WinTimer_PM.c **** *
 111:.\Generated_Source\PSoC5/ConsolePort_1_WinTimer_PM.c **** *******************************************************************************/
 112:.\Generated_Source\PSoC5/ConsolePort_1_WinTimer_PM.c **** void ConsolePort_1_WinTimer_Sleep(void) 
 113:.\Generated_Source\PSoC5/ConsolePort_1_WinTimer_PM.c **** {
 374              		.loc 1 113 0
 375              		.cfi_startproc
 376              		@ args = 0, pretend = 0, frame = 0
 377              		@ frame_needed = 0, uses_anonymous_args = 0
 378 0000 10B5     		push	{r4, lr}
 379              		.cfi_def_cfa_offset 8
 380              		.cfi_offset 4, -8
 381              		.cfi_offset 14, -4
 114:.\Generated_Source\PSoC5/ConsolePort_1_WinTimer_PM.c ****     #if(!ConsolePort_1_WinTimer_UDB_CONTROL_REG_REMOVED)
 115:.\Generated_Source\PSoC5/ConsolePort_1_WinTimer_PM.c ****         /* Save Counter's enable state */
 116:.\Generated_Source\PSoC5/ConsolePort_1_WinTimer_PM.c ****         if(ConsolePort_1_WinTimer_CTRL_ENABLE == (ConsolePort_1_WinTimer_CONTROL & ConsolePort_1_Wi
 382              		.loc 1 116 0
 383 0002 084B     		ldr	r3, .L11
ARM GAS  C:\Users\Thomas\AppData\Local\Temp\ccFPNZVb.s 			page 25


 384 0004 084C     		ldr	r4, .L11+4
 385 0006 1B78     		ldrb	r3, [r3]	@ zero_extendqisi2
 386 0008 DB09     		lsrs	r3, r3, #7
 387 000a 2370     		strb	r3, [r4]
 117:.\Generated_Source\PSoC5/ConsolePort_1_WinTimer_PM.c ****         {
 118:.\Generated_Source\PSoC5/ConsolePort_1_WinTimer_PM.c ****             /* Timer is enabled */
 119:.\Generated_Source\PSoC5/ConsolePort_1_WinTimer_PM.c ****             ConsolePort_1_WinTimer_backup.TimerEnableState = 1u;
 120:.\Generated_Source\PSoC5/ConsolePort_1_WinTimer_PM.c ****         }
 121:.\Generated_Source\PSoC5/ConsolePort_1_WinTimer_PM.c ****         else
 122:.\Generated_Source\PSoC5/ConsolePort_1_WinTimer_PM.c ****         {
 123:.\Generated_Source\PSoC5/ConsolePort_1_WinTimer_PM.c ****             /* Timer is disabled */
 124:.\Generated_Source\PSoC5/ConsolePort_1_WinTimer_PM.c ****             ConsolePort_1_WinTimer_backup.TimerEnableState = 0u;
 125:.\Generated_Source\PSoC5/ConsolePort_1_WinTimer_PM.c ****         }
 126:.\Generated_Source\PSoC5/ConsolePort_1_WinTimer_PM.c ****     #endif /* Back up enable state from the Timer control register */
 127:.\Generated_Source\PSoC5/ConsolePort_1_WinTimer_PM.c ****     ConsolePort_1_WinTimer_Stop();
 388              		.loc 1 127 0
 389 000c FFF7FEFF 		bl	ConsolePort_1_WinTimer_Stop
 390              	.LVL4:
 391              	.LBB4:
 392              	.LBB5:
  46:.\Generated_Source\PSoC5/ConsolePort_1_WinTimer_PM.c ****         ConsolePort_1_WinTimer_backup.InterruptMaskValue = ConsolePort_1_WinTimer_STATUS_MASK;
 393              		.loc 1 46 0
 394 0010 FFF7FEFF 		bl	ConsolePort_1_WinTimer_ReadCounter
 395              	.LVL5:
  47:.\Generated_Source\PSoC5/ConsolePort_1_WinTimer_PM.c ****         #if (ConsolePort_1_WinTimer_UsingHWCaptureCounter)
 396              		.loc 1 47 0
 397 0014 054B     		ldr	r3, .L11+8
  46:.\Generated_Source\PSoC5/ConsolePort_1_WinTimer_PM.c ****         ConsolePort_1_WinTimer_backup.InterruptMaskValue = ConsolePort_1_WinTimer_STATUS_MASK;
 398              		.loc 1 46 0
 399 0016 6080     		strh	r0, [r4, #2]	@ movhi
  47:.\Generated_Source\PSoC5/ConsolePort_1_WinTimer_PM.c ****         #if (ConsolePort_1_WinTimer_UsingHWCaptureCounter)
 400              		.loc 1 47 0
 401 0018 1B78     		ldrb	r3, [r3]	@ zero_extendqisi2
 402 001a 2371     		strb	r3, [r4, #4]
  53:.\Generated_Source\PSoC5/ConsolePort_1_WinTimer_PM.c ****         #endif /* Backup the enable state of the Timer component */
 403              		.loc 1 53 0
 404 001c FFF7FEFF 		bl	ConsolePort_1_WinTimer_ReadControlRegister
 405              	.LVL6:
 406 0020 6071     		strb	r0, [r4, #5]
 407 0022 10BD     		pop	{r4, pc}
 408              	.L12:
 409              		.align	2
 410              	.L11:
 411 0024 76640040 		.word	1073767542
 412 0028 00000000 		.word	.LANCHOR0
 413 002c 85640040 		.word	1073767557
 414              	.LBE5:
 415              	.LBE4:
 416              		.cfi_endproc
 417              	.LFE2:
 418              		.size	ConsolePort_1_WinTimer_Sleep, .-ConsolePort_1_WinTimer_Sleep
 419              		.section	.text.ConsolePort_1_WinTimer_Wakeup,"ax",%progbits
 420              		.align	2
 421              		.global	ConsolePort_1_WinTimer_Wakeup
 422              		.thumb
 423              		.thumb_func
 424              		.type	ConsolePort_1_WinTimer_Wakeup, %function
ARM GAS  C:\Users\Thomas\AppData\Local\Temp\ccFPNZVb.s 			page 26


 425              	ConsolePort_1_WinTimer_Wakeup:
 426              	.LFB3:
 128:.\Generated_Source\PSoC5/ConsolePort_1_WinTimer_PM.c ****     ConsolePort_1_WinTimer_SaveConfig();
 129:.\Generated_Source\PSoC5/ConsolePort_1_WinTimer_PM.c **** }
 130:.\Generated_Source\PSoC5/ConsolePort_1_WinTimer_PM.c **** 
 131:.\Generated_Source\PSoC5/ConsolePort_1_WinTimer_PM.c **** 
 132:.\Generated_Source\PSoC5/ConsolePort_1_WinTimer_PM.c **** /*******************************************************************************
 133:.\Generated_Source\PSoC5/ConsolePort_1_WinTimer_PM.c **** * Function Name: ConsolePort_1_WinTimer_Wakeup
 134:.\Generated_Source\PSoC5/ConsolePort_1_WinTimer_PM.c **** ********************************************************************************
 135:.\Generated_Source\PSoC5/ConsolePort_1_WinTimer_PM.c **** *
 136:.\Generated_Source\PSoC5/ConsolePort_1_WinTimer_PM.c **** * Summary:
 137:.\Generated_Source\PSoC5/ConsolePort_1_WinTimer_PM.c **** *  Restores and enables the user configuration
 138:.\Generated_Source\PSoC5/ConsolePort_1_WinTimer_PM.c **** *
 139:.\Generated_Source\PSoC5/ConsolePort_1_WinTimer_PM.c **** * Parameters:
 140:.\Generated_Source\PSoC5/ConsolePort_1_WinTimer_PM.c **** *  void
 141:.\Generated_Source\PSoC5/ConsolePort_1_WinTimer_PM.c **** *
 142:.\Generated_Source\PSoC5/ConsolePort_1_WinTimer_PM.c **** * Return:
 143:.\Generated_Source\PSoC5/ConsolePort_1_WinTimer_PM.c **** *  void
 144:.\Generated_Source\PSoC5/ConsolePort_1_WinTimer_PM.c **** *
 145:.\Generated_Source\PSoC5/ConsolePort_1_WinTimer_PM.c **** * Global variables:
 146:.\Generated_Source\PSoC5/ConsolePort_1_WinTimer_PM.c **** *  ConsolePort_1_WinTimer_backup.enableState:  Is used to restore the enable state of
 147:.\Generated_Source\PSoC5/ConsolePort_1_WinTimer_PM.c **** *  block on wakeup from sleep mode.
 148:.\Generated_Source\PSoC5/ConsolePort_1_WinTimer_PM.c **** *
 149:.\Generated_Source\PSoC5/ConsolePort_1_WinTimer_PM.c **** *******************************************************************************/
 150:.\Generated_Source\PSoC5/ConsolePort_1_WinTimer_PM.c **** void ConsolePort_1_WinTimer_Wakeup(void) 
 151:.\Generated_Source\PSoC5/ConsolePort_1_WinTimer_PM.c **** {
 427              		.loc 1 151 0
 428              		.cfi_startproc
 429              		@ args = 0, pretend = 0, frame = 0
 430              		@ frame_needed = 0, uses_anonymous_args = 0
 431 0000 10B5     		push	{r4, lr}
 432              		.cfi_def_cfa_offset 8
 433              		.cfi_offset 4, -8
 434              		.cfi_offset 14, -4
 435              	.LBB8:
 436              	.LBB9:
  81:.\Generated_Source\PSoC5/ConsolePort_1_WinTimer_PM.c ****         ConsolePort_1_WinTimer_STATUS_MASK =ConsolePort_1_WinTimer_backup.InterruptMaskValue;
 437              		.loc 1 81 0
 438 0002 094C     		ldr	r4, .L18
 439 0004 6088     		ldrh	r0, [r4, #2]
 440 0006 FFF7FEFF 		bl	ConsolePort_1_WinTimer_WriteCounter
 441              	.LVL7:
  82:.\Generated_Source\PSoC5/ConsolePort_1_WinTimer_PM.c ****         #if (ConsolePort_1_WinTimer_UsingHWCaptureCounter)
 442              		.loc 1 82 0
 443 000a 084B     		ldr	r3, .L18+4
 444 000c 2279     		ldrb	r2, [r4, #4]	@ zero_extendqisi2
  88:.\Generated_Source\PSoC5/ConsolePort_1_WinTimer_PM.c ****         #endif /* Restore the enable state of the Timer component */
 445              		.loc 1 88 0
 446 000e 6079     		ldrb	r0, [r4, #5]	@ zero_extendqisi2
  82:.\Generated_Source\PSoC5/ConsolePort_1_WinTimer_PM.c ****         #if (ConsolePort_1_WinTimer_UsingHWCaptureCounter)
 447              		.loc 1 82 0
 448 0010 1A70     		strb	r2, [r3]
  88:.\Generated_Source\PSoC5/ConsolePort_1_WinTimer_PM.c ****         #endif /* Restore the enable state of the Timer component */
 449              		.loc 1 88 0
 450 0012 FFF7FEFF 		bl	ConsolePort_1_WinTimer_WriteControlRegister
 451              	.LVL8:
 452              	.LBE9:
ARM GAS  C:\Users\Thomas\AppData\Local\Temp\ccFPNZVb.s 			page 27


 453              	.LBE8:
 152:.\Generated_Source\PSoC5/ConsolePort_1_WinTimer_PM.c ****     ConsolePort_1_WinTimer_RestoreConfig();
 153:.\Generated_Source\PSoC5/ConsolePort_1_WinTimer_PM.c ****     #if(!ConsolePort_1_WinTimer_UDB_CONTROL_REG_REMOVED)
 154:.\Generated_Source\PSoC5/ConsolePort_1_WinTimer_PM.c ****         if(ConsolePort_1_WinTimer_backup.TimerEnableState == 1u)
 454              		.loc 1 154 0
 455 0016 2378     		ldrb	r3, [r4]	@ zero_extendqisi2
 456 0018 012B     		cmp	r3, #1
 457 001a 00D0     		beq	.L17
 458 001c 10BD     		pop	{r4, pc}
 459              	.L17:
 155:.\Generated_Source\PSoC5/ConsolePort_1_WinTimer_PM.c ****         {     /* Enable Timer's operation */
 156:.\Generated_Source\PSoC5/ConsolePort_1_WinTimer_PM.c ****                 ConsolePort_1_WinTimer_Enable();
 157:.\Generated_Source\PSoC5/ConsolePort_1_WinTimer_PM.c ****         } /* Do nothing if Timer was disabled before */
 158:.\Generated_Source\PSoC5/ConsolePort_1_WinTimer_PM.c ****     #endif /* Remove this code section if Control register is removed */
 159:.\Generated_Source\PSoC5/ConsolePort_1_WinTimer_PM.c **** }
 460              		.loc 1 159 0
 461 001e BDE81040 		pop	{r4, lr}
 462              		.cfi_restore 14
 463              		.cfi_restore 4
 464              		.cfi_def_cfa_offset 0
 156:.\Generated_Source\PSoC5/ConsolePort_1_WinTimer_PM.c ****         } /* Do nothing if Timer was disabled before */
 465              		.loc 1 156 0
 466 0022 FFF7FEBF 		b	ConsolePort_1_WinTimer_Enable
 467              	.LVL9:
 468              	.L19:
 469 0026 00BF     		.align	2
 470              	.L18:
 471 0028 00000000 		.word	.LANCHOR0
 472 002c 85640040 		.word	1073767557
 473              		.cfi_endproc
 474              	.LFE3:
 475              		.size	ConsolePort_1_WinTimer_Wakeup, .-ConsolePort_1_WinTimer_Wakeup
 476              		.bss
 477              		.align	2
 478              		.set	.LANCHOR0,. + 0
 479              		.type	ConsolePort_1_WinTimer_backup, %object
 480              		.size	ConsolePort_1_WinTimer_backup, 6
 481              	ConsolePort_1_WinTimer_backup:
 482 0000 00000000 		.space	6
 482      0000
 483 0006 0000     		.text
 484              	.Letext0:
 485              		.file 2 ".\\Generated_Source\\PSoC5\\cytypes.h"
 486              		.file 3 ".\\Generated_Source\\PSoC5\\ConsolePort_1_WinTimer.h"