ARM GAS  C:\Users\Thomas\AppData\Local\Temp\cc1zCEC9.s 			page 1


   1              		.syntax unified
   2              		.cpu cortex-m3
   3              		.fpu softvfp
   4              		.eabi_attribute 20, 1
   5              		.eabi_attribute 21, 1
   6              		.eabi_attribute 23, 3
   7              		.eabi_attribute 24, 1
   8              		.eabi_attribute 25, 1
   9              		.eabi_attribute 26, 1
  10              		.eabi_attribute 30, 2
  11              		.eabi_attribute 34, 1
  12              		.eabi_attribute 18, 4
  13              		.thumb
  14              		.file	"ConsolePort_3_WinTimer_PM.c"
  15              		.text
  16              	.Ltext0:
  17              		.section	.gnu.lto_.profile.be1c01fe,"",%progbits
  18 0000 789C6366 		.ascii	"x\234cf```a\200\000F\206\034\005\000\001l\000\225"
  18      60606061 
  18      80004686 
  18      1C050001 
  18      6C0095
  19              		.text
  20              		.section	.gnu.lto_.jmpfuncs.be1c01fe,"",%progbits
  21 0000 789C6366 		.ascii	"x\234cf\300\016\244\2404\013\230db``\004#f\204\030\000"
  21      C00EA4A0 
  21      340B9864 
  21      62606004 
  21      23668418 
  22 0015 0544002D 		.ascii	"\005D\000-"
  23              		.text
  24              		.section	.gnu.lto_.inline.be1c01fe,"",%progbits
  25 0000 789C6366 		.ascii	"x\234cf\300\016\252\2404\013\003\003\267\014#\003\023"
  25      C00EAAA0 
  25      340B0303 
  25      B70C2303 
  25      13
  26 0011 C7013B06 		.ascii	"\307\001;\006\266\005\362L 1&n8\201]\222q\202\037\224"
  26      B605F24C 
  26      2031266E 
  26      38815D92 
  26      71821F94 
  27 0025 6266E092 		.ascii	"bf\340\222\002*\340\332\207P\300\310\005#X\0308\004"
  27      022AE0DA 
  27      8750C0C8 
  27      05235818 
  27      3804
  28 0037 81926C1F 		.ascii	"\201\222l\037\364\260H2\000\000\321n\012\222"
  28      F4B04832 
  28      0000D16E 
  28      0A92
  29              		.text
  30              		.section	.gnu.lto_.pureconst.be1c01fe,"",%progbits
  31 0000 789C6366 		.ascii	"x\234cf``\340d\200\000\026\006)&)f)\026\011\000\002"
  31      6060E064 
  31      80001606 
  31      29262966 
ARM GAS  C:\Users\Thomas\AppData\Local\Temp\cc1zCEC9.s 			page 2


  31      29160900 
  32 0015 CF0080   		.ascii	"\317\000\200"
  33              		.text
  34              		.section	.gnu.lto_ConsolePort_3_WinTimer_SaveConfig.be1c01fe,"",%progbits
  35 0000 789C6366 		.ascii	"x\234cf\300\004R@\234\312\304\300`\016\244\031\231\031"
  35      C0045240 
  35      9CCAC4C0 
  35      600EA419 
  35      9919
  36 0012 1899269C 		.ascii	"\030\231&\234c`h\344`bd\0041\030\030\031\352\231\030"
  36      636068E4 
  36      60626404 
  36      31181819 
  36      EA9918
  37 0025 EB195F32 		.ascii	"\353\031_2}db\234p`\365\014n\365\245\015\015\015\037"
  37      7D64629C 
  37      7060F50C 
  37      6EF5A50D 
  37      0D0D1F
  38 0038 369D6E0C 		.ascii	"6\235n\0148\300\370\023\250\3573\023\304\034\306\345"
  38      38C0F813 
  38      A8EF3313 
  38      C41CC6E5 
  39 0048 8CEA0C40 		.ascii	"\214\352\014@E\037[\376^\347fk\001*\022\200\3101\256"
  39      451F5BFE 
  39      5EE7666B 
  39      012A1280 
  39      C831AE
  40 005b 60646304 		.ascii	"`dc\004\322\353\205\0164\374\377\277y\335\301\017\214"
  40      D2EB850E 
  40      34FCFFBF 
  40      79DDC10F 
  40      8C
  41 006c 5CCC0C3F 		.ascii	"\\\314\014?\231\030Y\201\004\023\007\210``x\002\304"
  41      99185981 
  41      04130788 
  41      60607802 
  41      C4
  42 007d 20FB9E02 		.ascii	" \373\236\0029@\232\371\016c\363\201\275+\231Az\277"
  42      39409AF9 
  42      0E63F381 
  42      BD2B9941 
  42      7ABF
  43 008f 3331038D 		.ascii	"31\003\215\235w\271o\035S\355\357\206\216\006\216\237"
  43      9D77B96F 
  43      1D53EDEF 
  43      868E068E 
  43      9F
  44 00a0 4CCC9F99 		.ascii	"L\314\237\231\200&2\256d\254\005\352fa\270\305\3304"
  44      802632AE 
  44      64AC05EA 
  44      6661B8C5 
  44      D834
  45 00b2 69A10948 		.ascii	"i\241\011H-\272B\326\277 \027\000E\357?9\177\221\343"
  45      2DBA42D6 
  45      BF201700 
  45      45EF3F39 
ARM GAS  C:\Users\Thomas\AppData\Local\Temp\cc1zCEC9.s 			page 3


  45      7F91E3
  46 00c5 05135004 		.ascii	"\005\023P\004\314]\321\3302\207q.\343\354\306\006\220"
  46      CC5DD1D8 
  46      3287712E 
  46      E3ECC606 
  46      90
  47 00d6 2A36C655 		.ascii	"*6\306U\214\265\214\253\031\245\300r\377\326\364ob\323"
  47      8CB58CAB 
  47      19A5C072 
  47      FFD6F46F 
  47      62D3
  48 00e8 5D0DF4C0 		.ascii	"]\015\364\300\001\277\237L\354\214k\200\012?\201=\311"
  48      01BF9F4C 
  48      EC8C6B80 
  48      0A3F813D 
  48      C9
  49 00f9 B8965117 		.ascii	"\270\226Q\027\350\032\240}\207\276u\375;\312\017q\035"
  49      E81AA07D 
  49      87BE75FD 
  49      3BCA0F71 
  49      1D
  50 010a 2B50CFDE 		.ascii	"+P\317\336\271MOy@\306s\264\237nl`A\261\221\003l\352"
  50      B94D4F79 
  50      40C673B4 
  50      9F6E6C60 
  50      41B19103 
  51 0120 EBAEFF41 		.ascii	"\353\256\377A \013[\200\201\306\311\270\216Q\212q=\310"
  51      200B5B80 
  51      81C6C9B8 
  51      8E518A71 
  51      3DC8
  52 0132 3EC60D40 		.ascii	">\306\015@\323!\036\260\305\353\001t\027o\304\351b."
  52      D3211EB0 
  52      C5EB0174 
  52      176FC4E9 
  52      622E
  53 0144 C64D6017 		.ascii	"\306M`\027\203\302\234q3\310\305\254\014\240\340\274"
  53      83C29C71 
  53      33C8C5AC 
  53      0CA0E0BC 
  54 0154 BD9207E2 		.ascii	"\275\222\007\342`\016tK\270?\203\242\200q\01388y \256"
  54      600E744B 
  54      B83F83A2 
  54      80710B38 
  54      387920AE 
  55 0168 39C24892 		.ascii	"9\302H\222s\266bwN\024\3109\333\300\316\001'\205\355"
  55      73B66277 
  55      4E14C839 
  55      DBC0CE01 
  55      2785ED
  56 017b 20E77030 		.ascii	" \347p0\334cl<\360\221\025d\001(X\237\000\235\012\214"
  56      DC636C3C 
  56      F0911564 
  56      0128589F 
  56      009D0A8C 
  57 018f 73A00253 		.ascii	"s\240\002S\275\030\367\324\274\324\242\304\222\324\224"
  57      BD18F7D4 
ARM GAS  C:\Users\Thomas\AppData\Local\Temp\cc1zCEC9.s 			page 4


  57      BCD4A2C4 
  57      92D494
  58 019e F8E0FCD2 		.ascii	"\370\340\374\322\242\344\324\230\200\340|g\323\030\347"
  58      A2E4D498 
  58      80E07C67 
  58      D318E7
  59 01ad FCBCE2FC 		.ascii	"\374\274\342\374\234\324\200\374\242\222x\343\370\360"
  59      9CD480FC 
  59      A29278E3 
  59      F8F0
  60 01bb CCBC90CC 		.ascii	"\314\274\220\314\334\324\242\370\000_\275d\006\000\024"
  60      DCD4A2F8 
  60      005FBD64 
  60      060014
  61 01ca 92ED7C   		.ascii	"\222\355|"
  62              		.text
  63              		.section	.gnu.lto_ConsolePort_3_WinTimer_RestoreConfig.be1c01fe,"",%progbits
  64 0000 789C8D91 		.ascii	"x\234\215\221\273K\034Q\024\306\317wf2\031\263\026!"
  64      BB4B1C51 
  64      14C6CF77 
  64      663219B3 
  64      1621
  65 0012 95D97FC0 		.ascii	"\225\331\177\300B\334F$\177\200\020\253\300\242\011"
  65      42DC4624 
  65      7F8010AB 
  65      C0A209
  66 0021 691616D1 		.ascii	"i\026\026\321)\204d\007VS.\316\310JB\012_U 1`\021b|"
  66      29846407 
  66      56532ECE 
  66      C84A420A 
  66      5F552031 
  67 0039 EB26A60A 		.ascii	"\353&\246\012,\266B\304\027\202\2106\012\212M6[\310"
  67      2CB642C4 
  67      17828836 
  67      0A8A4D36 
  67      5BC8
  68 004b 10CCE69C 		.ascii	"\020\314\346\234\2736>\311\300\275g\356\275\337=\337"
  68      BB363EC9 
  68      C0BD67EE 
  68      BDDF3DDF 
  69 005b EF9E63D1 		.ascii	"\357\236c\321\325/.\343\031\023=\222\010\213\300\303"
  69      D52F2EE3 
  69      19133D92 
  69      088BC0C3 
  70 006b 3F894297 		.ascii	"?\211B\227\001\375!P\037\243\017\307\\b\014\027\247"
  70      01FD2150 
  70      1FA30FC7 
  70      5C620C17 
  70      A7
  71 007c DEC5EA3F 		.ascii	"\336\305\352?\005A\360k\275P7P\027\311\2652W\323\340"
  71      0541F06B 
  71      BD503750 
  71      17C9B532 
  71      57D3E0
  72 008f 33EA4934 		.ascii	"3\352I4\245\374\331v\314\311\213\346~\365\014\023p "
  72      A5FCD976 
  72      CCC98BE6 
ARM GAS  C:\Users\Thomas\AppData\Local\Temp\cc1zCEC9.s 			page 5


  72      7EF50C13 
  72      7020
  73 00a1 71EE4131 		.ascii	"q\356A1\250T\012\253#G\011\270L\021\303\226\211\035"
  73      A8540AAB 
  73      234709B8 
  73      4C11C396 
  73      891D
  74 00b3 9D880E64 		.ascii	"\235\210\016d\250\337\241,$Z;\350_*m\216Xz\373\224\325"
  74      A8DFA12C 
  74      245A3BE8 
  74      5F2A6D8E 
  74      587AFB94 
  75 00c8 FCE3C6E0 		.ascii	"\374\343\306\340,\347\376\004o\0027b\353LS\313\356\376"
  75      2CE7FE04 
  75      6F023762 
  75      EB4C53CB 
  75      EEFE
  76 00da C1EA9A7B 		.ascii	"\301\352\232{\304\262c\226\023a\376\003\306\360>\014"
  76      C4B26396 
  76      1361FE03 
  76      C6F03E0C 
  77 00ea 5465E30B 		.ascii	"Te\343\013r\230D\334\234\375\235\036Zt\032\033\"\276"
  77      729844DC 
  77      9CFD9D1E 
  77      5A741A1B 
  77      22BE
  78 00fc 8329D1FC 		.ascii	"\203)\321\3746\340\230F#\355\302V\037\272\354\342\224"
  78      36E09846 
  78      23EDC256 
  78      1FBAECE2 
  78      94
  79 010d 59C83183 		.ascii	"Y\3101\203\034\011C\304wI\261\026\266\306\233\252X\366"
  79      1C0943C4 
  79      7749B116 
  79      B6C69BAA 
  79      58F6
  80 011f 8D589739 		.ascii	"\215X\2279f\257\343p1g8\264:\230\027\216\035,\217\216"
  80      66AFE370 
  80      316738B4 
  80      3A98178E 
  80      1D2C8F8E 
  81 0133 2734B7C8 		.ascii	"'4\267\310~\214\365\037\326\352\313j^\257\204\201}\341"
  81      7E8CF51F 
  81      D6EACB6A 
  81      5EAF8481 
  81      7DE1
  82 0145 B13526D1 		.ascii	"\2615&\321\311\333J\233z\344\303\342\303\210\357a\001"
  82      C9DB4A9B 
  82      7AE4C3E2 
  82      C388EF61 
  82      01
  83 0156 712CAA09 		.ascii	"q,\252\011\012\222W\360\252\270\273k\347Ut\376\033\367"
  83      0A9257F0 
  83      AAB8BB6B 
  83      E75574FE 
  83      1BF7
  84 0168 EBF5B8DF 		.ascii	"\353\365\270\337\014\256i\352\322-e\213\225U\203\357"
ARM GAS  C:\Users\Thomas\AppData\Local\Temp\cc1zCEC9.s 			page 6


  84      0CAE69EA 
  84      D22D658B 
  84      955583EF 
  85 0178 A66C4EC4 		.ascii	"\246lN\304\265\264\207\260x\372\330\210I{\015\355\261"
  85      B5B487B0 
  85      78FAD888 
  85      497B0DED 
  85      B1
  86 0189 689A13A9 		.ascii	"h\232\023\251V/\343e;z\275\256t\273\377*\333\351\245"
  86      562FE365 
  86      3B7ABDAE 
  86      74BBFF2A 
  86      DBE9A5
  87 019c 92ED7E4B 		.ascii	"\222\355~Ks\252\305\317\364\370/\274\244\237\355M7\245"
  87      73AAC5CF 
  87      F4F82FBC 
  87      A49FED4D 
  87      37A5
  88 01ae 9F77679E 		.ascii	"\237wg\236v\277\364\262\351\344\223D'\375\003\017p\341"
  88      76BFF4B2 
  88      E9E49344 
  88      27FD030F 
  88      70E1
  89 01c0 FC       		.ascii	"\374"
  90              		.text
  91              		.section	.gnu.lto_ConsolePort_3_WinTimer_Sleep.be1c01fe,"",%progbits
  92 0000 789C8592 		.ascii	"x\234\205\222Oh\023A\024\306\337\367\366O\322FZ\361"
  92      4F681341 
  92      14C6DFF7 
  92      F64FD246 
  92      5AF1
  93 0012 547AF4D2 		.ascii	"Tz\364\322S{\221\342Iz\350A\020\204@\005A\002A\352\036"
  93      537B91E2 
  93      497AE841 
  93      10844005 
  93      410241EA 
  94 0027 0A9A9558 		.ascii	"\012\232\225X\217\241\273\311\212\322\203\246\364\022"
  94      8FA1BBC9 
  94      8AD283A6 
  94      F412
  95 0035 D4F6A646 		.ascii	"\324\366\246FS\333Z\377\364$l\275\010\"J\021\025\212"
  95      53DB5AFF 
  95      F4246CBD 
  95      08224A11 
  95      158A
  96 0047 448556F4 		.ascii	"D\205V\364\226\0321]\264\215ov\243\226\212\2720;3o~"
  96      961A315D 
  96      B48D6F76 
  96      A3968ABA 
  96      303B336F 
  97 005c F37DDFCE 		.ascii	"\363}\337\316\254F\177>\007\244\235f\242\375\322\303"
  97      AC467F3E 
  97      07A49D66 
  97      A2FDD2C3 
  98 006c 2470F119 		.ascii	"$p\361\031\221\033g\3266:\310i\327K\003\344\354\322"
  98      911B67D6 
  98      363AC869 
ARM GAS  C:\Users\Thomas\AppData\Local\Temp\cc1zCEC9.s 			page 7


  98      D74B03E4 
  98      ECD2
  99 007e 604465FD 		.ascii	"`De\375\347\300\000\324\200@c\254\351\006\306\360\211"
  99      E7C000D4 
  99      804063AC 
  99      E906C6F0 
  99      89
 100 008f D71945BF 		.ascii	"\327\031E\277RJ\364\\s\034\247\226\177\330u\256+\020"
 100      524AF45C 
 100      731CA796 
 100      7FD875AE 
 100      2B10
 101 00a1 E53A474E 		.ascii	"\345:GN\270\201\036\022f\335\333|\2350=avGk(\303\204"
 101      B8811E12 
 101      66DDDB7C 
 101      9D303D61 
 101      76476B28 
 102 00b7 F4737B7C 		.ascii	"\364s{|\247\331\254\177\231(\357\3456\215\002\206./"
 102      A7D9AC7F 
 102      9928EFE5 
 102      368D0286 
 102      2E2F
 103 00c9 2156A529 		.ascii	"!V\245)\2675\231H\257\255\340\321\327\361\017\323\257"
 103      B7359948 
 103      AFADE0D1 
 103      D7F10FD3 
 103      AF
 104 00da A0763658 		.ascii	"\240v6X\023\321wK\357\027\023\0379`\255\361\304ut\345"
 104      13D1774B 
 104      EF17131F 
 104      3960ADF1 
 104      C47574E5 
 105 00ee F376F5F9 		.ascii	"\363v\365\371r<,\221\232\226\375\361jl\012W\\\017\001"
 105      723C2C91 
 105      9A96FDF1 
 105      6A6C0A57 
 105      5C0F01
 106 0101 EBB8896E 		.ascii	"\353\270\211n\334B\267\270W0\005ZA\276z\376\273\021"
 106      DC42B7B8 
 106      5730055A 
 106      41BE7AFE 
 106      BB11
 107 0113 09EAA249 		.ascii	"\011\352\242I/\341=-dZ\205\355r\022\0063j'\251D\032"
 107      2FE13D2D 
 107      645A85ED 
 107      72120633 
 107      6A27A944 
 108 0128 6D7448A0 		.ascii	"mtH\240|\255\326X\352T\264\240\323/.\316r\356\233s\301"
 108      7CADD658 
 108      EA54B4A0 
 108      D32F2ECE 
 108      72EE9B73 
 109 013d 89076C6C 		.ascii	"\211\007ll\252o\334.`Dy\\\357*T\036GQ&n#\207Y%+k[3\227"
 109      AA6FDC2E 
 109      6044795C 
 109      EF2A541E 
 109      4751266E 
ARM GAS  C:\Users\Thomas\AppData\Local\Temp\cc1zCEC9.s 			page 8


 110 015a 16CCDE8A 		.ascii	"\026\314\336\212\034\221\177,\340\030\346\004\374\034"
 110      1C917F2C 
 110      E018E604 
 110      FC1C
 111 0168 1E23E6D1 		.ascii	"\036#\346\321+\300\362\345\353\205N\245\025\003\341"
 111      2BC0F2E5 
 111      EB854EA5 
 111      1503E1
 112 0177 4E18668D 		.ascii	"N\030f\215u*\015\204Q\346\267\376\023e\247\367\302?"
 112      752A0D84 
 112      51E6B7FE 
 112      1365A7F7 
 112      C23F
 113 0189 BCEFFEF6 		.ascii	"\274\357\376\366\276\027z\377\372\216\230\224\356\267"
 113      BE177AFF 
 113      FA8E9894 
 113      EEB7
 114 0197 BC8DF062 		.ascii	"\274\215\360b\336\240\3407\037\263\362\246\235\346\361"
 114      DEA0E037 
 114      1FB3F2A6 
 114      9DE6F1
 115 01a6 3ACB25E3 		.ascii	":\313%\343\001rr\251m\244\320b\373\337Hu\306\213-\262"
 115      017272A9 
 115      6DA4D062 
 115      FBDF4875 
 115      C68B2DB2 
 116 01ba 0AD79F3C 		.ascii	"\012\327\237<\024\222\244\376\005(+\001\372\373R\007"
 116      1492A4FE 
 116      05282B01 
 116      FAFB5207 
 117 01ca AD8C953D 		.ascii	"\255\214\225=>j\235H\017\331g\263\303V*9d\017\366\247"
 117      3E6A9D48 
 117      0FD967B3 
 117      C3562A39 
 117      640FF6A7 
 118 01de 06EDCC19 		.ascii	"\006\355\314\031\373\244\225\264\263\243\351}\351\243"
 118      FBA495B4 
 118      B3A3E97D 
 118      E9A3
 119 01ec 23992323 		.ascii	"#\231##\247\254l:y\270o\230~\000&\326\367Q"
 119      A7AC6C3A 
 119      79B86F98 
 119      7E0026D6 
 119      F751
 120              		.text
 121              		.section	.gnu.lto_ConsolePort_3_WinTimer_Wakeup.be1c01fe,"",%progbits
 122 0000 789C7550 		.ascii	"x\234uP\273J\003A\024\275\347\356d\011F\210\210E\360"
 122      BB4A0341 
 122      14BDE7EE 
 122      64094688 
 122      8845F0
 123 0013 072C442D 		.ascii	"\007,D-B\260\263I!\010B \202M \210n!h\026b\264\013N"
 123      42B0B349 
 123      21084220 
 123      824D2088 
 123      6E216816 
 124 002b 3482958A 		.ascii	"4\202\225\212\225\340\243\023\337\212\026\326\251\024"
ARM GAS  C:\Users\Thomas\AppData\Local\Temp\cc1zCEC9.s 			page 9


 124      95E0A313 
 124      DF8A16D6 
 124      A914
 125 0039 52282212 		.ascii	"R(\"\022\021\037 \021bgL!\213h\234\331\010\202\342\300"
 125      111F2011 
 125      62674C21 
 125      8B689CD9 
 125      0882E2C0 
 126 004d 7067CE9C 		.ascii	"pg\316\234\007g\014\372\273\202jO\200\250SMx\010\274"
 126      07670CFA 
 126      BB826A4F 
 126      80A8534D 
 126      7808BC
 127 0060 704694F1 		.ascii	"pF\224\3612\033'~\222u\"\337E\262\336\200\250\301\002"
 127      321B277E 
 127      927522DF 
 127      45B2DE80 
 127      A8C102
 128 0073 D007024D 		.ascii	"\320\007\002M\262!0\211g.3\026r;K\276\226u)\345\313"
 128      B2213089 
 128      672E3316 
 128      723B4BBE 
 128      967529E5 
 129 0088 E3556026 		.ascii	"\343U`&\3400Q\205k\376\330@\013)N9\373Q\360\231Y\305"
 129      E0305185 
 129      6BFED840 
 129      0B294E39 
 129      FB51F099 
 130 009e 69A8BD61 		.ascii	"i\250\275a\023\246\312\245\203\306\234\254V+\205\305"
 130      13A6CAA5 
 130      83C69CAC 
 130      562B85C5 
 131 00ae 52079B82 		.ascii	"R\007\233\202\034V`Q\021t\316\023\263\236\306-\246s"
 131      1C566051 
 131      1174CE13 
 131      B39EC62D 
 131      A673
 132 00c0 E53C6B89 		.ascii	"\345<k\211\366Z\273\234\333\347\364\273\234\225^\207"
 132      F65ABB9C 
 132      DBE7F4BB 
 132      9C955E87 
 133 00d0 B9A215D8 		.ascii	"\271\242\025\330BZi\015\272\301\324\361\341\335\242"
 133      425A690D 
 133      BAC1D4F1 
 133      E1DDA2
 134 00df 4F73DF58 		.ascii	"Os\337X\374f\213\017\235\255\320\207\342\371\205\267"
 134      FC668B0F 
 134      9DADD087 
 134      E2F985B7 
 135 00ef C40A71AF 		.ascii	"\304\012q\257\233\231\354\012V\261\234\221\232\345\301"
 135      9B99EC0A 
 135      56B19C91 
 135      9AE5C1
 136 00fe 36D2D841 		.ascii	"6\322\330A\263\373\366\271;\177d\266\265:lbWq^\335f"
 136      B3FBF6B9 
 136      3B7F64B6 
 136      B53A6C62 
ARM GAS  C:\Users\Thomas\AppData\Local\Temp\cc1zCEC9.s 			page 10


 136      57715EDD 
 137 0113 D8431B5D 		.ascii	"\330C\033]!{=\235\370\211:]-\035\011m\012\020\366\265"
 137      217B3D9D 
 137      F8893A5D 
 137      2D1D096D 
 137      0A10F6B5 
 138 0127 9C740983 		.ascii	"\234t\011\203N\374n\007'\337\364_\007e\212\203\357\016"
 138      4EFC6E07 
 138      27DFF45F 
 138      07658A83 
 138      EF0E
 139 0139 5A23DCE2 		.ascii	"Z#\334\342\367\310\344\252=\256\206\364\267@\243\212"
 139      F7C8E4AA 
 139      3DAE86F4 
 139      B740A38A 
 140 0149 1A6A8F75 		.ascii	"\032j\217u[\011+9\220\262\206\342Q{<9h\305\"Q;\034\212"
 140      5B092B39 
 140      90B286E2 
 140      517B3C39 
 140      68C52251 
 141 0160 85EDC498 		.ascii	"\205\355\304\230=bE\354d*\036\214\367\017'\372\206G"
 141      3D6245EC 
 141      642A1E8C 
 141      F70F27FA 
 141      8647
 142 0172 AD643CD2 		.ascii	"\255d<\322\333>H_^V\232x"
 142      DB3E485F 
 142      5E569A78 
 143              		.text
 144              		.section	.gnu.lto_.symbol_nodes.be1c01fe,"",%progbits
 145 0000 789C55CF 		.ascii	"x\234U\317\273\015\302@\020\004\320\271\331\373\272"
 145      BB0DC240 
 145      1004D0B9 
 145      D9FBBA
 146 000f 067A1D07 		.ascii	"\006z\035\007\024@\005\310Bn\303\231c\327\000\024\202"
 146      144005C8 
 146      426EC399 
 146      63D70014 
 146      82
 147 0020 B8130E96 		.ascii	"\270\023\016\226MFo6\3315\000o\234\303 \340v\000\022"
 147      4D466F36 
 147      D935006F 
 147      9CC320E0 
 147      760012
 148 0033 EE4B4502 		.ascii	"\356KE\002\026\312H\005_\323\304?G\231w\310\212?c\236"
 148      16CA4805 
 148      5FD3C43F 
 148      479977C8 
 148      8A3F639E 
 149 0047 3B939267 		.ascii	";\223\222gU\366,*\236M\325sRs4d\254\317O\260~\332\372"
 149      55F62C2A 
 149      9E4DD573 
 149      52733464 
 149      ACCF4FB0 
 150 005e EAC98A7D 		.ascii	"\352\311\212}\230\005\373\260\2653\373W##\361\030\373"
 150      9805FBB0 
 150      B533FB57 
ARM GAS  C:\Users\Thomas\AppData\Local\Temp\cc1zCEC9.s 			page 11


 150      2323F118 
 150      FB
 151 006f 38E1BA5D 		.ascii	"8\341\272]\360\005F\023;H"
 151      F0054613 
 151      3B48
 152              		.text
 153              		.section	.gnu.lto_.refs.be1c01fe,"",%progbits
 154 0000 789C25C8 		.ascii	"x\234%\310\301\021\000 \014\204@\310E+\261\377\032\315"
 154      C1110020 
 154      0C8440C8 
 154      452BB1FF 
 154      1ACD
 155 0012 282F6603 		.ascii	"(/f\003\034~AK[wj\036GV\345\321\262\261\270\013\204"
 155      1C7E414B 
 155      5B776A1E 
 155      4756E5D1 
 155      B2B1B80B 
 156 0027 0068     		.ascii	"\000h"
 157              		.text
 158              		.section	.gnu.lto_.decls.be1c01fe,"",%progbits
 159 0000 789C9556 		.ascii	"x\234\225V{LSW\030\277\247\267\224R\012\272\271\350"
 159      7B4C5357 
 159      18BFA7B7 
 159      94520ABA 
 159      B9E8
 160 0012 C2B6D8C1 		.ascii	"\302\266\330\301B\2343\206mqq\177\315\204,nY\\\310\230"
 160      429C3386 
 160      6D71717F 
 160      CD842C6E 
 160      595CC898 
 161 0026 339926A4 		.ascii	"3\231&\244\342\235\022\031%\245]b\262d\027\001A\230"
 161      E29D1219 
 161      25A55D62 
 161      B2641701 
 161      4198
 162 0038 13D916AB 		.ascii	"\023\331\026\253D\255+\312\273V&\010\305\007\005\005"
 162      44AD2BCA 
 162      BB562608 
 162      C5070505 
 163 0048 0441DD10 		.ascii	"\004A\335\020\307C[Z\344-\026u\016\037K\367\235s\357"
 163      C7435B5A 
 163      E42D1675 
 163      0E1F4BF7 
 163      9D73EF
 164 005b A5F71AAE 		.ascii	"\245\367\032\256f7\371J\317=\277\357\367\375\276\337"
 164      6637F94A 
 164      CF3DBFEF 
 164      F7FDBEDF 
 165 006b 79149AA2 		.ascii	"y\024\232\242\250ADQ\001x\276\016\243\250\034\005E\205"
 165      A8414451 
 165      0178BE0E 
 165      A3A81C05 
 165      4585
 166 007d C0BB042A 		.ascii	"\300\273\004*\370h \252 \354\020\016\210\032\010'\304"
 166      F86820AA 
 166      20EC100E 
 166      881A0827 
ARM GAS  C:\Users\Thomas\AppData\Local\Temp\cc1zCEC9.s 			page 12


 166      C4
 167 008e 05887688 		.ascii	"\005\210v\210\313\020\335\020W!\200\212\362R\322\007"
 167      CB10DD10 
 167      5721808A 
 167      F252D207 
 168 009e E746F09C 		.ascii	"\347F\360\234:\210\305\020>\210f\210a\0107\204\013b"
 168      3A88C510 
 168      3E886688 
 168      61083784 
 168      0B62
 169 00b0 1C6214A2 		.ascii	"\034b\024\242\016b\002\242\036\202\206\350\307\032!"
 169      0E6202A2 
 169      1E8286E8 
 169      C71A21
 170 00bf FAF87115 		.ascii	"\372\370q\025_\333)S\317>O=q\235I\210\016\276\216Ps"
 170      5FDB2953 
 170      CF3E4F3D 
 170      719D4988 
 170      0EBE8E50 
 171 00d4 0AA255A6 		.ascii	"\012\242U\246\236\235\357\261]\246\236\203\367(\201"
 171      9E9DEFB1 
 171      5DA69E83 
 171      F72881
 172 00e3 AF352DE2 		.ascii	"\2575-\342\025\352\342Z~\210r\236\343&\317\355\340\275"
 172      15EAE25A 
 172      7E88729E 
 172      E326CFED 
 172      E0BD
 173 00f5 AB92E1C6 		.ascii	"\253\222\341\306^\207\212\270\005\0161\257\230\257\206"
 173      5E878AB8 
 173      050E31AF 
 173      98AF86
 174 0104 D72BB716 		.ascii	"\327+\267\0263\012\324`\177\320\025>\246@\221\032\035"
 174      330AD460 
 174      7FD0153E 
 174      A640911A 
 174      1D
 175 0115 1E3A8BDA 		.ascii	"\036:\213\332-*\030j5J<l|\342\355Q.\371\225\205\247"
 175      2D2A186A 
 175      354A3C6C 
 175      7CE2ED51 
 175      2EF99585 
 176 012a 308B5DA8 		.ascii	"0\213]\250D\011\213Q)\212Be(\012\030\313\321\022\370"
 176      44098B51 
 176      298A4265 
 176      280A18CB 
 176      D112F8
 177 013d DCA8E498 		.ascii	"\334\250\344\230\034\036\327\214\232V \374\335f\031"
 177      1C1ED78C 
 177      9A5620FC 
 177      DD6619
 178 014c EAD1ACA8 		.ascii	"\352\321\254\250\200\264<\266\311\243\014\226\033\314"
 178      80B43CB6 
 178      C9A30C96 
 178      1BCC
 179 015a BD1EA73B 		.ascii	"\275\036\247;\314z\034\376\201\272>-\333\3166\005\002"
 179      CC7A1CFE 
ARM GAS  C:\Users\Thomas\AppData\Local\Temp\cc1zCEC9.s 			page 13


 179      81BA3E2D 
 179      DBCE3605 
 179      02
 180 016b 1F112654 		.ascii	"\037\021&T\201hT\211V` \376N2P\025\322A\326\275\336"
 180      81685489 
 180      566020FE 
 180      4E325015 
 180      D241D6BD 
 181 0180 9E97683D 		.ascii	"\236\227h=a\036\376\371\267\356\010\302`=dSq\371$\275"
 181      611EFEF9 
 181      B7EE08C2 
 181      603D6453 
 181      71F924BD 
 182 0194 5A945E2D 		.ascii	"Z\224^-\244\333Iz\177WI_(\275\013\021\202\312\216\212"
 182      A4DB497A 
 182      7F57495F 
 182      28BD0B11 
 182      82CA8E8A 
 183 01a8 5D0808AC 		.ascii	"]\010\010\254\016\353\230\204\340\204\210\340\204@\340"
 183      0EEB9884 
 183      E08488E0 
 183      8440E0
 184 01b7 2004472D 		.ascii	" \004G-\3073\303h\033G\340\274QT\254\346\010\354\307"
 184      C733C368 
 184      1B47E0BC 
 184      5154ACE6 
 184      08ECC7
 185 01ca C4042745 		.ascii	"\304\004'E\004'\005\202\032B\320{>7WM\2738\202\314\343"
 185      04270582 
 185      1A42D07B 
 185      3E37574D 
 185      BB3882CC 
 186 01df 8D3F8682 		.ascii	"\215?\206\202\307\2135\304\222\237:\017\272h2\014\340"
 186      C78B35C4 
 186      929F3A0F 
 186      BA68320C 
 186      E0
 187 01f0 69455FDF 		.ascii	"iE_\337/\217h\244\211\315c\331\235\254\277\210\245_"
 187      2F8F68A4 
 187      89CD63D9 
 187      9DACBF88 
 187      A55F
 188 0202 A5D08A28 		.ascii	"\245\320\212(\364v\024\205N\243X\200\221\"\350\024,"
 188      F4761485 
 188      4EA35880 
 188      9122E814 
 188      2C
 189 0213 432D2C43 		.ascii	"C-,C\011\230\354\337\333V\361Y\026\273\006\325!\015"
 189      0998ECDF 
 189      DB56F159 
 189      16BB06D5 
 189      210D
 190 0225 FA7D4E06 		.ascii	"\372}N\006\251\300\033\277;\333A\213\027\022#\203+Y"
 190      A9C01BBF 
 190      3BDB418B 
 190      17122383 
 190      2B59
ARM GAS  C:\Users\Thomas\AppData\Local\Temp\cc1zCEC9.s 			page 14


 191 0237 2F59C9DA 		.ascii	"/Y\311\332\256G\343\012z\222S;8\222U\025\206\015g\375"
 191      AE47E30A 
 191      7A92533B 
 191      38925515 
 191      860D67FD 
 192 024b F6F17BDB 		.ascii	"\366\361{\333\366e\025\226\260\236@`)IB\015\242\236"
 192      F6651596 
 192      B09E4060 
 192      2949420D 
 192      A29E
 193 025d 1B849E9D 		.ascii	"\033\204\236\235\244\347N\357\354}-\331Y\0131\317\301"
 193      A4E74EEF 
 193      EC7D2DD9 
 193      590B31CF 
 193      C1
 194 026e 1BB71FD0 		.ascii	"\033\267\037\320dg)\360\360\320\275\3513a\364%\205\304"
 194      646729F0 
 194      F0D0BDE9 
 194      3361F425 
 194      85C4
 195 0280 111DE7C8 		.ascii	"\021\035\347\310\376\311\331Sj2\014\004hl\311\023\237"
 195      FEC9D953 
 195      6A320C04 
 195      686CC913 
 195      9F
 196 0291 BD548562 		.ascii	"\275T\205b5\\\257\243\\\257.\350\340l\260W\035\337+"
 196      355CAFA3 
 196      5CAF2EE8 
 196      E06CB057 
 196      1DDF2B
 197 02a4 B18DCD62 		.ascii	"\261\215\315bC\312\")\324\010\035\236\201\016Q\0238"
 197      43CA2229 
 197      D4081D9E 
 197      810E5113 
 197      38
 198 02b5 A7E39D3B 		.ascii	"\247\343\235;\007/\317\303K\250\364(\247\313-\261\305"
 198      072FCFC3 
 198      4BA8F428 
 198      A7CB2DB1 
 198      C5
 199 02c6 25B1A559 		.ascii	"%\261\245YbK\177\365H\265\226\276\312If\275\327z\325"
 199      624B7FF5 
 199      48B596BE 
 199      CA4966BD 
 199      D77AD5
 200 02d9 BC2DE50F 		.ascii	"\274-\345\017?\021\331\002I\250EdK\213`\313\005bKa\216"
 200      3F11D902 
 200      49A84564 
 200      4B8B60CB 
 200      05624B61 
 201 02ee AB50A984 		.ascii	"\253P\251\204\213\225,\301Fr\314\376\016\014\035S\310"
 201      8B952CC1 
 201      4672CCFE 
 201      0E0C1D53 
 201      C8
 202 02ff 1EB356A2 		.ascii	"\036\263V\242\342\"\342e\370\246\234\356p\372>'\303"
 202      E222E265 
ARM GAS  C:\Users\Thomas\AppData\Local\Temp\cc1zCEC9.s 			page 15


 202      F8A69CEE 
 202      70FA3E27 
 202      C3
 203 0310 6B6D68D6 		.ascii	"kmh\326\022\031\236\313\2666\255U8P\220\203\332D\"\332"
 203      12199ECB 
 203      B636AD55 
 203      38509083 
 203      DA4422DA 
 204 0324 0411ED44 		.ascii	"\004\021\355D\304\231\222\211\351p\"\3025'\302]\373"
 204      C4999289 
 204      E97022C2 
 204      3527C25D 
 204      FB
 205 0335 F0B44656 		.ascii	"\360\264FVD\007\021qI\0201\333\371\270RC\037\241\211"
 205      44071171 
 205      491031DB 
 205      F9B85243 
 205      1FA189
 206 0348 88FD8303 		.ascii	"\210\375\203\003=\241\234\210~[kP\004\344\240N\221\210"
 206      3DA19C88 
 206      7E5B6B50 
 206      04E4A04E 
 206      9188
 207 035a 4E41C465 		.ascii	"NA\304e\"b\367\314X\266\226n\3418\246F\252\316q~Z\033"
 207      2262F7CC 
 207      58B6966E 
 207      E138A646 
 207      AACE717E 
 208 0370 6DBB74A2 		.ascii	"m\273t\242c\325%b\350\022\030\272\011\303tQ\353\367"
 208      63D52562 
 208      E81218BA 
 208      09C37451 
 208      EBF7
 209 0382 B49B23B8 		.ascii	"\264\233#\270`\035\377\220\323P|\221i\316f\237\342\275"
 209      601DFF90 
 209      D3507C91 
 209      69CE669F 
 209      E2BD
 210 0394 4308AE88 		.ascii	"C\010\256\210\010\256\010\004W\011\201\373\037ws(\331"
 210      08AE0804 
 210      570981FB 
 210      1F777328 
 210      D9
 211 03a5 A37198A3 		.ascii	"\243q\230\243(\247\276>\222\354Q\025\036\006\206-e\341"
 211      28A7BE3E 
 211      92EC5115 
 211      1E06862D 
 211      65E1
 212 03b7 F4BF1CFF 		.ascii	"\364\277\034\377\314\331=6\015}T\311u\334\326\362\230"
 212      CCD93D36 
 212      0D7D54C9 
 212      75DCD6F2 
 212      98
 213 03c8 A66BB841 		.ascii	"\246k\270A\366\331\343\205\241t#7\0309|\240w\001\335"
 213      F6D9E385 
 213      A1742337 
 213      18397CA0 
ARM GAS  C:\Users\Thomas\AppData\Local\Temp\cc1zCEC9.s 			page 16


 213      7701DD
 214 03db CD0DCABC 		.ascii	"\315\015\312\274\335E\021\204~\031\014U\005\373\212"
 214      DD451184 
 214      7E190C55 
 214      05FB8A
 215 03ea 06235074 		.ascii	"\006#Pt\364\242\350\350X+lS\317\021_G8k\211#;\341\006"
 215      F4A2E8E8 
 215      582B6C53 
 215      CF115F47 
 215      386B8923 
 216 0401 A81C408B 		.ascii	"\250\034@\213\204\243\276\014\233\376\027\266\236\""
 216      84A3BE0C 
 216      9BFE17B6 
 216      9E22
 217 040f 504B56BE 		.ascii	"PKV\276\226-\213#\353u\235\207\316\355n\002n$\340}d"
 217      962D8B23 
 217      EB759D87 
 217      CEED6E02 
 217      6E24E07D 
 218 0424 FD58768D 		.ascii	"\375Xv\215\221B\327`\376\017\262z\030\015\026\240[p"
 218      9142D760 
 218      FE0FB27A 
 218      180D16A0 
 218      5B70
 219 0436 0C6EA268 		.ascii	"\014n\242h\324\0171\010\321\207\242\211\035\244\304"
 219      D40F3108 
 219      D187A289 
 219      1DA4C4
 220 0445 015FDB9C 		.ascii	"\001_\333\234\232\336y\324\224\006\325\354\361\265\316"
 220      9ADE79D4 
 220      9406D5EC 
 220      F1B5CE
 221 0454 417BE681 		.ascii	"A{\346\201.\307H|Z=\0056\025\213\360<%\254\201p%)\234"
 221      2EC7487C 
 221      5A3D0536 
 221      158BF03C 
 221      25AC8170 
 222 046b D99D35A1 		.ascii	"\331\2355\241hQ\354|\222\221\007\224\276H5)P\031\257"
 222      6851EC7C 
 222      92910794 
 222      BE483529 
 222      5019AF
 223 047e 466E00FE 		.ascii	"Fn\000\376\031\274\012p5\341\336\253\352x:\203h\037"
 223      19BC0A70 
 223      35E1DEAB 
 223      EA783A83 
 223      681F
 224 0490 B71EC577 		.ascii	"\267\036\305w\352\356F\306\034eY\253\177\240\337\257"
 224      EAEE46C6 
 224      1C6559AB 
 224      7FA0DFAF 
 225 04a0 C864AD70 		.ascii	"\310d\255pU\340}F\030\2068\006\221mC\334nA^\024\003"
 225      55E07D46 
 225      18863806 
 225      916D43DC 
 225      6E415E14 
 226 04b5 D977BC15 		.ascii	"\331w\274\025\205*m>\276_\340\200\204\265G\222\243\036"
ARM GAS  C:\Users\Thomas\AppData\Local\Temp\cc1zCEC9.s 			page 17


 226      852A6D3E 
 226      BE5FE080 
 226      84B54792 
 226      A31E
 227 04c7 3C223EA4 		.ascii	"<\">\244%h\370\013\350\333\266\202\023\021\0224\256"
 227      2568F80B 
 227      E8DBB682 
 227      13111234 
 227      AE
 228 04d8 11440FF3 		.ascii	"\021D\017\363\350a\202f\367\027\224\250\351\314\020"
 228      E8618266 
 228      F71794A8 
 228      E9CC10
 229 04e7 22B3F661 		.ascii	"\"\263\366a~C\204&\017\337b/\276\377\301\310\236\356"
 229      7E438426 
 229      0FDF622F 
 229      BEFFC1C8 
 229      9EEE
 230 04f9 FCDE30EE 		.ascii	"\374\3360\356\027\343\331\2141\331_\214\334\363\332"
 230      17E3D98C 
 230      31D95F8C 
 230      DCF3DA
 231 0508 4B2CAB46 		.ascii	"K,\253F\243\260\204\267\203\336\215 \321o\206\367`\227"
 231      A3B084B7 
 231      83DE8D20 
 231      D16F86F7 
 231      6097
 232 051a 56D2C2A8 		.ascii	"V\322\302\250\344z\034\347[\030'-\314\036\035\032Y "
 232      E47A1CE7 
 232      5B18272D 
 232      CC1E1D1A 
 232      5920
 233 052c 41D74BEC 		.ascii	"A\327K\354\231\340\321\023\004\335\357t\335\224\332"
 233      99E0D113 
 233      04DDEF74 
 233      DD94DA
 234 053b D321414F 		.ascii	"\323!AO\362\350I\202.,*>\027&A\267J\320S<z\012\243i"
 234      F2E84982 
 234      2E2C2A3E 
 234      172641B7 
 234      4AD0533C 
 235 0553 57A9AB5F 		.ascii	"W\251\253_\203\2424Q\026\370\367cv)\232\206\236\362"
 235      83A23451 
 235      16F8F763 
 235      76299A86 
 235      9EF2
 236 0565 F026F3EF 		.ascii	"\360&\363\357diK\244`\016E&(t\027h\356\000\015F7\215"
 236      64694BA4 
 236      600E4526 
 236      28741768 
 236      EE000D46 
 237 057b 05023F04 		.ascii	"\005\002?\004\270go(\001\340\017\220p\313\322\224\257"
 237      B8676F28 
 237      01E00F90 
 237      70CBD294 
 237      AF
 238 058c 94482897 		.ascii	"\224H(\227H\360#\255\340!|\245\336\2147\244e\030R\231"
ARM GAS  C:\Users\Thomas\AppData\Local\Temp\cc1zCEC9.s 			page 18


 238      48F023AD 
 238      E0217CA5 
 238      DE8C37A4 
 238      65185299 
 239 05a0 0483D194 		.ascii	"\004\203\321\224\364~\322\206\224\264/S\276e\214I\211"
 239      F47ED286 
 239      94B42F53 
 239      BE658C49 
 239      89
 240 05b1 FAEF1898 		.ascii	"\372\357\030\230\372&e\253j\355\347\353u\361\324\252"
 240      FA2665AB 
 240      6AEDE7EB 
 240      75F1D4AA 
 241 05c1 959BD632 		.ascii	"\225\233\3262i\214Qob\266$%\032\314\306dfSB\242!~\325"
 241      698C516F 
 241      62B62425 
 241      1ACCC664 
 241      665342A2 
 242 05d8 26198684 		.ascii	"&\031\206\204u+\223\251\267d&\277`2L\006#_\341u9\015"
 242      752B93A9 
 242      B76426BF 
 242      60324C06 
 242      235FE175 
 243 05ee A90C93FE 		.ascii	"\251\014\223\376\206\314\344\006\375v\306\234\036bN"
 243      86CCE406 
 243      FD76C69C 
 243      1E624E
 244 05fd 4933AD8E 		.ascii	"I3\255\216\221\325\226\274\303\264#\235\311X\271\215"
 244      91D596BC 
 244      C3B4239D 
 244      C958B98D 
 245 060d 5A2EAB44 		.ascii	"Z.\253D\277\005\246LFC\352\027\314\326\224\014\023c"
 245      BF05A64C 
 245      4643EA17 
 245      CCD6940C 
 245      1363
 246 061f 7CEF7FB6 		.ascii	"|\357\177\266\012\354*\254\343\335\017\242\237[\304"
 246      0AEC2AAC 
 246      E3DD0FA2 
 246      9F5BC4
 247 062e 9C06E4EF 		.ascii	"\234\006\344\357\310\365cL11\317\010\211y>\226\360\275"
 247      C8F5634C 
 247      3131CF08 
 247      89793E96 
 247      F0BD
 248 0640 26679EC9 		.ascii	"&g\236\311 \353\335\307i\372\315\251\214\034\373f}\362"
 248      20EBDDC7 
 248      69FACDA9 
 248      8C1CFB66 
 248      7DF2
 249 0652 76737AA2 		.ascii	"vsz\242\311hN6-$\2578|\242\011\014Q\223\027\353\267"
 249      C9684E36 
 249      2D24AF38 
 249      7CA2090C 
 249      519317EB 
 250 0667 6C7EF953 		.ascii	"l~\371S\\\335hN7\255\323gl\377J\237jf^!s\317\364 \247"
 250      5CDD684E 
ARM GAS  C:\Users\Thomas\AppData\Local\Temp\cc1zCEC9.s 			page 19


 250      37ADD367 
 250      6CFF4A9F 
 250      6A665E21 
 251 0680 81ABA234 		.ascii	"\201\253\24242[W\377\007\326%\017'"
 251      325B57FF 
 251      07D6250F 
 251      27
 252              		.text
 253              		.section	.gnu.lto_.symtab.be1c01fe,"",%progbits
 254 0000 436F6E73 		.ascii	"ConsolePort_3_WinTimer_SaveConfig\000\000\000\000\000"
 254      6F6C6550 
 254      6F72745F 
 254      335F5769 
 254      6E54696D 
 255 0026 00000000 		.ascii	"\000\000\000\000\000\000\000\254\000\000\000Console"
 255      000000AC 
 255      00000043 
 255      6F6E736F 
 255      6C65
 256 0038 506F7274 		.ascii	"Port_3_WinTimer_RestoreConfig\000\000\000\000\000\000"
 256      5F335F57 
 256      696E5469 
 256      6D65725F 
 256      52657374 
 257 005b 00000000 		.ascii	"\000\000\000\000\000\000\256\000\000\000ConsolePort"
 257      0000AE00 
 257      0000436F 
 257      6E736F6C 
 257      65506F72 
 258 0070 5F335F57 		.ascii	"_3_WinTimer_Sleep\000\000\000\000\000\000\000\000\000"
 258      696E5469 
 258      6D65725F 
 258      536C6565 
 258      70000000 
 259 008a 000000B0 		.ascii	"\000\000\000\260\000\000\000ConsolePort_3_WinTimer_"
 259      00000043 
 259      6F6E736F 
 259      6C65506F 
 259      72745F33 
 260 00a8 57616B65 		.ascii	"Wakeup\000\000\000\000\000\000\000\000\000\000\000\000"
 260      75700000 
 260      00000000 
 260      00000000 
 260      0000
 261 00ba B2000000 		.ascii	"\262\000\000\000ConsolePort_3_WinTimer_ReadControlR"
 261      436F6E73 
 261      6F6C6550 
 261      6F72745F 
 261      335F5769 
 262 00e1 65676973 		.ascii	"egister\000\000\002\000\000\000\000\000\000\000\000"
 262      74657200 
 262      00020000 
 262      00000000 
 262      0000
 263 00f3 00BA0000 		.ascii	"\000\272\000\000\000ConsolePort_3_WinTimer_ReadCoun"
 263      00436F6E 
 263      736F6C65 
ARM GAS  C:\Users\Thomas\AppData\Local\Temp\cc1zCEC9.s 			page 20


 263      506F7274 
 263      5F335F57 
 264 0117 74657200 		.ascii	"ter\000\000\002\000\000\000\000\000\000\000\000\000"
 264      00020000 
 264      00000000 
 264      000000
 265 0126 C4000000 		.ascii	"\304\000\000\000ConsolePort_3_WinTimer_WriteControl"
 265      436F6E73 
 265      6F6C6550 
 265      6F72745F 
 265      335F5769 
 266 014d 52656769 		.ascii	"Register\000\000\002\000\000\000\000\000\000\000\000"
 266      73746572 
 266      00000200 
 266      00000000 
 266      000000
 267 0160 00C80000 		.ascii	"\000\310\000\000\000ConsolePort_3_WinTimer_WriteCou"
 267      00436F6E 
 267      736F6C65 
 267      506F7274 
 267      5F335F57 
 268 0184 6E746572 		.ascii	"nter\000\000\002\000\000\000\000\000\000\000\000\000"
 268      00000200 
 268      00000000 
 268      00000000 
 269 0194 CC000000 		.ascii	"\314\000\000\000ConsolePort_3_WinTimer_Stop\000\000"
 269      436F6E73 
 269      6F6C6550 
 269      6F72745F 
 269      335F5769 
 270 01b5 02000000 		.ascii	"\002\000\000\000\000\000\000\000\000\000\316\000\000"
 270      00000000 
 270      0000CE00 
 270      00
 271 01c2 00436F6E 		.ascii	"\000ConsolePort_3_WinTimer_Enable\000\000\002\000\000"
 271      736F6C65 
 271      506F7274 
 271      5F335F57 
 271      696E5469 
 272 01e5 00000000 		.ascii	"\000\000\000\000\000\000\000\320\000\000\000"
 272      000000D0 
 272      000000
 273              		.text
 274              		.section	.gnu.lto_.opts,"",%progbits
 275 0000 272D666E 		.ascii	"'-fno-trapv' '-mcpu=cortex-m3' '-mthumb' '-g' '-O3'"
 275      6F2D7472 
 275      61707627 
 275      20272D6D 
 275      6370753D 
 276 0033 20272D66 		.ascii	" '-ffunction-sections' '-finline-functions' '-flto'"
 276      66756E63 
 276      74696F6E 
 276      2D736563 
 276      74696F6E 
 277 0066 20272D66 		.ascii	" '-ffat-lto-objects'\000"
 277      6661742D 
 277      6C746F2D 
ARM GAS  C:\Users\Thomas\AppData\Local\Temp\cc1zCEC9.s 			page 21


 277      6F626A65 
 277      63747327 
 278              		.text
 279              		.cfi_sections	.debug_frame
 280              		.section	.text.ConsolePort_3_WinTimer_SaveConfig,"ax",%progbits
 281              		.align	2
 282              		.global	ConsolePort_3_WinTimer_SaveConfig
 283              		.thumb
 284              		.thumb_func
 285              		.type	ConsolePort_3_WinTimer_SaveConfig, %function
 286              	ConsolePort_3_WinTimer_SaveConfig:
 287              	.LFB0:
 288              		.file 1 ".\\Generated_Source\\PSoC5\\ConsolePort_3_WinTimer_PM.c"
   1:.\Generated_Source\PSoC5/ConsolePort_3_WinTimer_PM.c **** /*******************************************************************************
   2:.\Generated_Source\PSoC5/ConsolePort_3_WinTimer_PM.c **** * File Name: ConsolePort_3_WinTimer_PM.c
   3:.\Generated_Source\PSoC5/ConsolePort_3_WinTimer_PM.c **** * Version 2.70
   4:.\Generated_Source\PSoC5/ConsolePort_3_WinTimer_PM.c **** *
   5:.\Generated_Source\PSoC5/ConsolePort_3_WinTimer_PM.c **** *  Description:
   6:.\Generated_Source\PSoC5/ConsolePort_3_WinTimer_PM.c **** *     This file provides the power management source code to API for the
   7:.\Generated_Source\PSoC5/ConsolePort_3_WinTimer_PM.c **** *     Timer.
   8:.\Generated_Source\PSoC5/ConsolePort_3_WinTimer_PM.c **** *
   9:.\Generated_Source\PSoC5/ConsolePort_3_WinTimer_PM.c **** *   Note:
  10:.\Generated_Source\PSoC5/ConsolePort_3_WinTimer_PM.c **** *     None
  11:.\Generated_Source\PSoC5/ConsolePort_3_WinTimer_PM.c **** *
  12:.\Generated_Source\PSoC5/ConsolePort_3_WinTimer_PM.c **** *******************************************************************************
  13:.\Generated_Source\PSoC5/ConsolePort_3_WinTimer_PM.c **** * Copyright 2008-2014, Cypress Semiconductor Corporation.  All rights reserved.
  14:.\Generated_Source\PSoC5/ConsolePort_3_WinTimer_PM.c **** * You may use this file only in accordance with the license, terms, conditions,
  15:.\Generated_Source\PSoC5/ConsolePort_3_WinTimer_PM.c **** * disclaimers, and limitations in the end user license agreement accompanying
  16:.\Generated_Source\PSoC5/ConsolePort_3_WinTimer_PM.c **** * the software package with which this file was provided.
  17:.\Generated_Source\PSoC5/ConsolePort_3_WinTimer_PM.c **** ********************************************************************************/
  18:.\Generated_Source\PSoC5/ConsolePort_3_WinTimer_PM.c **** 
  19:.\Generated_Source\PSoC5/ConsolePort_3_WinTimer_PM.c **** #include "ConsolePort_3_WinTimer.h"
  20:.\Generated_Source\PSoC5/ConsolePort_3_WinTimer_PM.c **** 
  21:.\Generated_Source\PSoC5/ConsolePort_3_WinTimer_PM.c **** static ConsolePort_3_WinTimer_backupStruct ConsolePort_3_WinTimer_backup;
  22:.\Generated_Source\PSoC5/ConsolePort_3_WinTimer_PM.c **** 
  23:.\Generated_Source\PSoC5/ConsolePort_3_WinTimer_PM.c **** 
  24:.\Generated_Source\PSoC5/ConsolePort_3_WinTimer_PM.c **** /*******************************************************************************
  25:.\Generated_Source\PSoC5/ConsolePort_3_WinTimer_PM.c **** * Function Name: ConsolePort_3_WinTimer_SaveConfig
  26:.\Generated_Source\PSoC5/ConsolePort_3_WinTimer_PM.c **** ********************************************************************************
  27:.\Generated_Source\PSoC5/ConsolePort_3_WinTimer_PM.c **** *
  28:.\Generated_Source\PSoC5/ConsolePort_3_WinTimer_PM.c **** * Summary:
  29:.\Generated_Source\PSoC5/ConsolePort_3_WinTimer_PM.c **** *     Save the current user configuration
  30:.\Generated_Source\PSoC5/ConsolePort_3_WinTimer_PM.c **** *
  31:.\Generated_Source\PSoC5/ConsolePort_3_WinTimer_PM.c **** * Parameters:
  32:.\Generated_Source\PSoC5/ConsolePort_3_WinTimer_PM.c **** *  void
  33:.\Generated_Source\PSoC5/ConsolePort_3_WinTimer_PM.c **** *
  34:.\Generated_Source\PSoC5/ConsolePort_3_WinTimer_PM.c **** * Return:
  35:.\Generated_Source\PSoC5/ConsolePort_3_WinTimer_PM.c **** *  void
  36:.\Generated_Source\PSoC5/ConsolePort_3_WinTimer_PM.c **** *
  37:.\Generated_Source\PSoC5/ConsolePort_3_WinTimer_PM.c **** * Global variables:
  38:.\Generated_Source\PSoC5/ConsolePort_3_WinTimer_PM.c **** *  ConsolePort_3_WinTimer_backup:  Variables of this global structure are modified to
  39:.\Generated_Source\PSoC5/ConsolePort_3_WinTimer_PM.c **** *  store the values of non retention configuration registers when Sleep() API is
  40:.\Generated_Source\PSoC5/ConsolePort_3_WinTimer_PM.c **** *  called.
  41:.\Generated_Source\PSoC5/ConsolePort_3_WinTimer_PM.c **** *
  42:.\Generated_Source\PSoC5/ConsolePort_3_WinTimer_PM.c **** *******************************************************************************/
  43:.\Generated_Source\PSoC5/ConsolePort_3_WinTimer_PM.c **** void ConsolePort_3_WinTimer_SaveConfig(void) 
  44:.\Generated_Source\PSoC5/ConsolePort_3_WinTimer_PM.c **** {
ARM GAS  C:\Users\Thomas\AppData\Local\Temp\cc1zCEC9.s 			page 22


 289              		.loc 1 44 0
 290              		.cfi_startproc
 291              		@ args = 0, pretend = 0, frame = 0
 292              		@ frame_needed = 0, uses_anonymous_args = 0
 293 0000 10B5     		push	{r4, lr}
 294              		.cfi_def_cfa_offset 8
 295              		.cfi_offset 4, -8
 296              		.cfi_offset 14, -4
  45:.\Generated_Source\PSoC5/ConsolePort_3_WinTimer_PM.c ****     #if (!ConsolePort_3_WinTimer_UsingFixedFunction)
  46:.\Generated_Source\PSoC5/ConsolePort_3_WinTimer_PM.c ****         ConsolePort_3_WinTimer_backup.TimerUdb = ConsolePort_3_WinTimer_ReadCounter();
 297              		.loc 1 46 0
 298 0002 FFF7FEFF 		bl	ConsolePort_3_WinTimer_ReadCounter
 299              	.LVL0:
  47:.\Generated_Source\PSoC5/ConsolePort_3_WinTimer_PM.c ****         ConsolePort_3_WinTimer_backup.InterruptMaskValue = ConsolePort_3_WinTimer_STATUS_MASK;
 300              		.loc 1 47 0
 301 0006 044B     		ldr	r3, .L3
  46:.\Generated_Source\PSoC5/ConsolePort_3_WinTimer_PM.c ****         ConsolePort_3_WinTimer_backup.InterruptMaskValue = ConsolePort_3_WinTimer_STATUS_MASK;
 302              		.loc 1 46 0
 303 0008 044C     		ldr	r4, .L3+4
 304              		.loc 1 47 0
 305 000a 1B78     		ldrb	r3, [r3]	@ zero_extendqisi2
  46:.\Generated_Source\PSoC5/ConsolePort_3_WinTimer_PM.c ****         ConsolePort_3_WinTimer_backup.InterruptMaskValue = ConsolePort_3_WinTimer_STATUS_MASK;
 306              		.loc 1 46 0
 307 000c 6080     		strh	r0, [r4, #2]	@ movhi
 308              		.loc 1 47 0
 309 000e 2371     		strb	r3, [r4, #4]
  48:.\Generated_Source\PSoC5/ConsolePort_3_WinTimer_PM.c ****         #if (ConsolePort_3_WinTimer_UsingHWCaptureCounter)
  49:.\Generated_Source\PSoC5/ConsolePort_3_WinTimer_PM.c ****             ConsolePort_3_WinTimer_backup.TimerCaptureCounter = ConsolePort_3_WinTimer_ReadCaptureC
  50:.\Generated_Source\PSoC5/ConsolePort_3_WinTimer_PM.c ****         #endif /* Back Up capture counter register  */
  51:.\Generated_Source\PSoC5/ConsolePort_3_WinTimer_PM.c **** 
  52:.\Generated_Source\PSoC5/ConsolePort_3_WinTimer_PM.c ****         #if(!ConsolePort_3_WinTimer_UDB_CONTROL_REG_REMOVED)
  53:.\Generated_Source\PSoC5/ConsolePort_3_WinTimer_PM.c ****             ConsolePort_3_WinTimer_backup.TimerControlRegister = ConsolePort_3_WinTimer_ReadControl
 310              		.loc 1 53 0
 311 0010 FFF7FEFF 		bl	ConsolePort_3_WinTimer_ReadControlRegister
 312              	.LVL1:
 313 0014 6071     		strb	r0, [r4, #5]
 314 0016 10BD     		pop	{r4, pc}
 315              	.L4:
 316              		.align	2
 317              	.L3:
 318 0018 87650040 		.word	1073767815
 319 001c 00000000 		.word	.LANCHOR0
 320              		.cfi_endproc
 321              	.LFE0:
 322              		.size	ConsolePort_3_WinTimer_SaveConfig, .-ConsolePort_3_WinTimer_SaveConfig
 323              		.section	.text.ConsolePort_3_WinTimer_RestoreConfig,"ax",%progbits
 324              		.align	2
 325              		.global	ConsolePort_3_WinTimer_RestoreConfig
 326              		.thumb
 327              		.thumb_func
 328              		.type	ConsolePort_3_WinTimer_RestoreConfig, %function
 329              	ConsolePort_3_WinTimer_RestoreConfig:
 330              	.LFB1:
  54:.\Generated_Source\PSoC5/ConsolePort_3_WinTimer_PM.c ****         #endif /* Backup the enable state of the Timer component */
  55:.\Generated_Source\PSoC5/ConsolePort_3_WinTimer_PM.c ****     #endif /* Backup non retention registers in UDB implementation. All fixed function registers ar
  56:.\Generated_Source\PSoC5/ConsolePort_3_WinTimer_PM.c **** }
  57:.\Generated_Source\PSoC5/ConsolePort_3_WinTimer_PM.c **** 
ARM GAS  C:\Users\Thomas\AppData\Local\Temp\cc1zCEC9.s 			page 23


  58:.\Generated_Source\PSoC5/ConsolePort_3_WinTimer_PM.c **** 
  59:.\Generated_Source\PSoC5/ConsolePort_3_WinTimer_PM.c **** /*******************************************************************************
  60:.\Generated_Source\PSoC5/ConsolePort_3_WinTimer_PM.c **** * Function Name: ConsolePort_3_WinTimer_RestoreConfig
  61:.\Generated_Source\PSoC5/ConsolePort_3_WinTimer_PM.c **** ********************************************************************************
  62:.\Generated_Source\PSoC5/ConsolePort_3_WinTimer_PM.c **** *
  63:.\Generated_Source\PSoC5/ConsolePort_3_WinTimer_PM.c **** * Summary:
  64:.\Generated_Source\PSoC5/ConsolePort_3_WinTimer_PM.c **** *  Restores the current user configuration.
  65:.\Generated_Source\PSoC5/ConsolePort_3_WinTimer_PM.c **** *
  66:.\Generated_Source\PSoC5/ConsolePort_3_WinTimer_PM.c **** * Parameters:
  67:.\Generated_Source\PSoC5/ConsolePort_3_WinTimer_PM.c **** *  void
  68:.\Generated_Source\PSoC5/ConsolePort_3_WinTimer_PM.c **** *
  69:.\Generated_Source\PSoC5/ConsolePort_3_WinTimer_PM.c **** * Return:
  70:.\Generated_Source\PSoC5/ConsolePort_3_WinTimer_PM.c **** *  void
  71:.\Generated_Source\PSoC5/ConsolePort_3_WinTimer_PM.c **** *
  72:.\Generated_Source\PSoC5/ConsolePort_3_WinTimer_PM.c **** * Global variables:
  73:.\Generated_Source\PSoC5/ConsolePort_3_WinTimer_PM.c **** *  ConsolePort_3_WinTimer_backup:  Variables of this global structure are used to
  74:.\Generated_Source\PSoC5/ConsolePort_3_WinTimer_PM.c **** *  restore the values of non retention registers on wakeup from sleep mode.
  75:.\Generated_Source\PSoC5/ConsolePort_3_WinTimer_PM.c **** *
  76:.\Generated_Source\PSoC5/ConsolePort_3_WinTimer_PM.c **** *******************************************************************************/
  77:.\Generated_Source\PSoC5/ConsolePort_3_WinTimer_PM.c **** void ConsolePort_3_WinTimer_RestoreConfig(void) 
  78:.\Generated_Source\PSoC5/ConsolePort_3_WinTimer_PM.c **** {   
 331              		.loc 1 78 0
 332              		.cfi_startproc
 333              		@ args = 0, pretend = 0, frame = 0
 334              		@ frame_needed = 0, uses_anonymous_args = 0
 335 0000 10B5     		push	{r4, lr}
 336              		.cfi_def_cfa_offset 8
 337              		.cfi_offset 4, -8
 338              		.cfi_offset 14, -4
  79:.\Generated_Source\PSoC5/ConsolePort_3_WinTimer_PM.c ****     #if (!ConsolePort_3_WinTimer_UsingFixedFunction)
  80:.\Generated_Source\PSoC5/ConsolePort_3_WinTimer_PM.c **** 
  81:.\Generated_Source\PSoC5/ConsolePort_3_WinTimer_PM.c ****         ConsolePort_3_WinTimer_WriteCounter(ConsolePort_3_WinTimer_backup.TimerUdb);
 339              		.loc 1 81 0
 340 0002 064C     		ldr	r4, .L7
 341 0004 6088     		ldrh	r0, [r4, #2]
 342 0006 FFF7FEFF 		bl	ConsolePort_3_WinTimer_WriteCounter
 343              	.LVL2:
  82:.\Generated_Source\PSoC5/ConsolePort_3_WinTimer_PM.c ****         ConsolePort_3_WinTimer_STATUS_MASK =ConsolePort_3_WinTimer_backup.InterruptMaskValue;
 344              		.loc 1 82 0
 345 000a 2279     		ldrb	r2, [r4, #4]	@ zero_extendqisi2
 346 000c 044B     		ldr	r3, .L7+4
  83:.\Generated_Source\PSoC5/ConsolePort_3_WinTimer_PM.c ****         #if (ConsolePort_3_WinTimer_UsingHWCaptureCounter)
  84:.\Generated_Source\PSoC5/ConsolePort_3_WinTimer_PM.c ****             ConsolePort_3_WinTimer_SetCaptureCount(ConsolePort_3_WinTimer_backup.TimerCaptureCounte
  85:.\Generated_Source\PSoC5/ConsolePort_3_WinTimer_PM.c ****         #endif /* Restore Capture counter register*/
  86:.\Generated_Source\PSoC5/ConsolePort_3_WinTimer_PM.c **** 
  87:.\Generated_Source\PSoC5/ConsolePort_3_WinTimer_PM.c ****         #if(!ConsolePort_3_WinTimer_UDB_CONTROL_REG_REMOVED)
  88:.\Generated_Source\PSoC5/ConsolePort_3_WinTimer_PM.c ****             ConsolePort_3_WinTimer_WriteControlRegister(ConsolePort_3_WinTimer_backup.TimerControlR
 347              		.loc 1 88 0
 348 000e 6079     		ldrb	r0, [r4, #5]	@ zero_extendqisi2
  82:.\Generated_Source\PSoC5/ConsolePort_3_WinTimer_PM.c ****         ConsolePort_3_WinTimer_STATUS_MASK =ConsolePort_3_WinTimer_backup.InterruptMaskValue;
 349              		.loc 1 82 0
 350 0010 1A70     		strb	r2, [r3]
  89:.\Generated_Source\PSoC5/ConsolePort_3_WinTimer_PM.c ****         #endif /* Restore the enable state of the Timer component */
  90:.\Generated_Source\PSoC5/ConsolePort_3_WinTimer_PM.c ****     #endif /* Restore non retention registers in the UDB implementation only */
  91:.\Generated_Source\PSoC5/ConsolePort_3_WinTimer_PM.c **** }
 351              		.loc 1 91 0
 352 0012 BDE81040 		pop	{r4, lr}
ARM GAS  C:\Users\Thomas\AppData\Local\Temp\cc1zCEC9.s 			page 24


 353              		.cfi_restore 14
 354              		.cfi_restore 4
 355              		.cfi_def_cfa_offset 0
  88:.\Generated_Source\PSoC5/ConsolePort_3_WinTimer_PM.c ****         #endif /* Restore the enable state of the Timer component */
 356              		.loc 1 88 0
 357 0016 FFF7FEBF 		b	ConsolePort_3_WinTimer_WriteControlRegister
 358              	.LVL3:
 359              	.L8:
 360 001a 00BF     		.align	2
 361              	.L7:
 362 001c 00000000 		.word	.LANCHOR0
 363 0020 87650040 		.word	1073767815
 364              		.cfi_endproc
 365              	.LFE1:
 366              		.size	ConsolePort_3_WinTimer_RestoreConfig, .-ConsolePort_3_WinTimer_RestoreConfig
 367              		.section	.text.ConsolePort_3_WinTimer_Sleep,"ax",%progbits
 368              		.align	2
 369              		.global	ConsolePort_3_WinTimer_Sleep
 370              		.thumb
 371              		.thumb_func
 372              		.type	ConsolePort_3_WinTimer_Sleep, %function
 373              	ConsolePort_3_WinTimer_Sleep:
 374              	.LFB2:
  92:.\Generated_Source\PSoC5/ConsolePort_3_WinTimer_PM.c **** 
  93:.\Generated_Source\PSoC5/ConsolePort_3_WinTimer_PM.c **** 
  94:.\Generated_Source\PSoC5/ConsolePort_3_WinTimer_PM.c **** /*******************************************************************************
  95:.\Generated_Source\PSoC5/ConsolePort_3_WinTimer_PM.c **** * Function Name: ConsolePort_3_WinTimer_Sleep
  96:.\Generated_Source\PSoC5/ConsolePort_3_WinTimer_PM.c **** ********************************************************************************
  97:.\Generated_Source\PSoC5/ConsolePort_3_WinTimer_PM.c **** *
  98:.\Generated_Source\PSoC5/ConsolePort_3_WinTimer_PM.c **** * Summary:
  99:.\Generated_Source\PSoC5/ConsolePort_3_WinTimer_PM.c **** *     Stop and Save the user configuration
 100:.\Generated_Source\PSoC5/ConsolePort_3_WinTimer_PM.c **** *
 101:.\Generated_Source\PSoC5/ConsolePort_3_WinTimer_PM.c **** * Parameters:
 102:.\Generated_Source\PSoC5/ConsolePort_3_WinTimer_PM.c **** *  void
 103:.\Generated_Source\PSoC5/ConsolePort_3_WinTimer_PM.c **** *
 104:.\Generated_Source\PSoC5/ConsolePort_3_WinTimer_PM.c **** * Return:
 105:.\Generated_Source\PSoC5/ConsolePort_3_WinTimer_PM.c **** *  void
 106:.\Generated_Source\PSoC5/ConsolePort_3_WinTimer_PM.c **** *
 107:.\Generated_Source\PSoC5/ConsolePort_3_WinTimer_PM.c **** * Global variables:
 108:.\Generated_Source\PSoC5/ConsolePort_3_WinTimer_PM.c **** *  ConsolePort_3_WinTimer_backup.TimerEnableState:  Is modified depending on the
 109:.\Generated_Source\PSoC5/ConsolePort_3_WinTimer_PM.c **** *  enable state of the block before entering sleep mode.
 110:.\Generated_Source\PSoC5/ConsolePort_3_WinTimer_PM.c **** *
 111:.\Generated_Source\PSoC5/ConsolePort_3_WinTimer_PM.c **** *******************************************************************************/
 112:.\Generated_Source\PSoC5/ConsolePort_3_WinTimer_PM.c **** void ConsolePort_3_WinTimer_Sleep(void) 
 113:.\Generated_Source\PSoC5/ConsolePort_3_WinTimer_PM.c **** {
 375              		.loc 1 113 0
 376              		.cfi_startproc
 377              		@ args = 0, pretend = 0, frame = 0
 378              		@ frame_needed = 0, uses_anonymous_args = 0
 379 0000 10B5     		push	{r4, lr}
 380              		.cfi_def_cfa_offset 8
 381              		.cfi_offset 4, -8
 382              		.cfi_offset 14, -4
 114:.\Generated_Source\PSoC5/ConsolePort_3_WinTimer_PM.c ****     #if(!ConsolePort_3_WinTimer_UDB_CONTROL_REG_REMOVED)
 115:.\Generated_Source\PSoC5/ConsolePort_3_WinTimer_PM.c ****         /* Save Counter's enable state */
 116:.\Generated_Source\PSoC5/ConsolePort_3_WinTimer_PM.c ****         if(ConsolePort_3_WinTimer_CTRL_ENABLE == (ConsolePort_3_WinTimer_CONTROL & ConsolePort_3_Wi
 383              		.loc 1 116 0
ARM GAS  C:\Users\Thomas\AppData\Local\Temp\cc1zCEC9.s 			page 25


 384 0002 084B     		ldr	r3, .L11
 385 0004 084C     		ldr	r4, .L11+4
 386 0006 1B78     		ldrb	r3, [r3]	@ zero_extendqisi2
 387 0008 DB09     		lsrs	r3, r3, #7
 388 000a 2370     		strb	r3, [r4]
 117:.\Generated_Source\PSoC5/ConsolePort_3_WinTimer_PM.c ****         {
 118:.\Generated_Source\PSoC5/ConsolePort_3_WinTimer_PM.c ****             /* Timer is enabled */
 119:.\Generated_Source\PSoC5/ConsolePort_3_WinTimer_PM.c ****             ConsolePort_3_WinTimer_backup.TimerEnableState = 1u;
 120:.\Generated_Source\PSoC5/ConsolePort_3_WinTimer_PM.c ****         }
 121:.\Generated_Source\PSoC5/ConsolePort_3_WinTimer_PM.c ****         else
 122:.\Generated_Source\PSoC5/ConsolePort_3_WinTimer_PM.c ****         {
 123:.\Generated_Source\PSoC5/ConsolePort_3_WinTimer_PM.c ****             /* Timer is disabled */
 124:.\Generated_Source\PSoC5/ConsolePort_3_WinTimer_PM.c ****             ConsolePort_3_WinTimer_backup.TimerEnableState = 0u;
 125:.\Generated_Source\PSoC5/ConsolePort_3_WinTimer_PM.c ****         }
 126:.\Generated_Source\PSoC5/ConsolePort_3_WinTimer_PM.c ****     #endif /* Back up enable state from the Timer control register */
 127:.\Generated_Source\PSoC5/ConsolePort_3_WinTimer_PM.c ****     ConsolePort_3_WinTimer_Stop();
 389              		.loc 1 127 0
 390 000c FFF7FEFF 		bl	ConsolePort_3_WinTimer_Stop
 391              	.LVL4:
 392              	.LBB4:
 393              	.LBB5:
  46:.\Generated_Source\PSoC5/ConsolePort_3_WinTimer_PM.c ****         ConsolePort_3_WinTimer_backup.InterruptMaskValue = ConsolePort_3_WinTimer_STATUS_MASK;
 394              		.loc 1 46 0
 395 0010 FFF7FEFF 		bl	ConsolePort_3_WinTimer_ReadCounter
 396              	.LVL5:
  47:.\Generated_Source\PSoC5/ConsolePort_3_WinTimer_PM.c ****         #if (ConsolePort_3_WinTimer_UsingHWCaptureCounter)
 397              		.loc 1 47 0
 398 0014 054B     		ldr	r3, .L11+8
  46:.\Generated_Source\PSoC5/ConsolePort_3_WinTimer_PM.c ****         ConsolePort_3_WinTimer_backup.InterruptMaskValue = ConsolePort_3_WinTimer_STATUS_MASK;
 399              		.loc 1 46 0
 400 0016 6080     		strh	r0, [r4, #2]	@ movhi
  47:.\Generated_Source\PSoC5/ConsolePort_3_WinTimer_PM.c ****         #if (ConsolePort_3_WinTimer_UsingHWCaptureCounter)
 401              		.loc 1 47 0
 402 0018 1B78     		ldrb	r3, [r3]	@ zero_extendqisi2
 403 001a 2371     		strb	r3, [r4, #4]
  53:.\Generated_Source\PSoC5/ConsolePort_3_WinTimer_PM.c ****         #endif /* Backup the enable state of the Timer component */
 404              		.loc 1 53 0
 405 001c FFF7FEFF 		bl	ConsolePort_3_WinTimer_ReadControlRegister
 406              	.LVL6:
 407 0020 6071     		strb	r0, [r4, #5]
 408 0022 10BD     		pop	{r4, pc}
 409              	.L12:
 410              		.align	2
 411              	.L11:
 412 0024 77650040 		.word	1073767799
 413 0028 00000000 		.word	.LANCHOR0
 414 002c 87650040 		.word	1073767815
 415              	.LBE5:
 416              	.LBE4:
 417              		.cfi_endproc
 418              	.LFE2:
 419              		.size	ConsolePort_3_WinTimer_Sleep, .-ConsolePort_3_WinTimer_Sleep
 420              		.section	.text.ConsolePort_3_WinTimer_Wakeup,"ax",%progbits
 421              		.align	2
 422              		.global	ConsolePort_3_WinTimer_Wakeup
 423              		.thumb
 424              		.thumb_func
ARM GAS  C:\Users\Thomas\AppData\Local\Temp\cc1zCEC9.s 			page 26


 425              		.type	ConsolePort_3_WinTimer_Wakeup, %function
 426              	ConsolePort_3_WinTimer_Wakeup:
 427              	.LFB3:
 128:.\Generated_Source\PSoC5/ConsolePort_3_WinTimer_PM.c ****     ConsolePort_3_WinTimer_SaveConfig();
 129:.\Generated_Source\PSoC5/ConsolePort_3_WinTimer_PM.c **** }
 130:.\Generated_Source\PSoC5/ConsolePort_3_WinTimer_PM.c **** 
 131:.\Generated_Source\PSoC5/ConsolePort_3_WinTimer_PM.c **** 
 132:.\Generated_Source\PSoC5/ConsolePort_3_WinTimer_PM.c **** /*******************************************************************************
 133:.\Generated_Source\PSoC5/ConsolePort_3_WinTimer_PM.c **** * Function Name: ConsolePort_3_WinTimer_Wakeup
 134:.\Generated_Source\PSoC5/ConsolePort_3_WinTimer_PM.c **** ********************************************************************************
 135:.\Generated_Source\PSoC5/ConsolePort_3_WinTimer_PM.c **** *
 136:.\Generated_Source\PSoC5/ConsolePort_3_WinTimer_PM.c **** * Summary:
 137:.\Generated_Source\PSoC5/ConsolePort_3_WinTimer_PM.c **** *  Restores and enables the user configuration
 138:.\Generated_Source\PSoC5/ConsolePort_3_WinTimer_PM.c **** *
 139:.\Generated_Source\PSoC5/ConsolePort_3_WinTimer_PM.c **** * Parameters:
 140:.\Generated_Source\PSoC5/ConsolePort_3_WinTimer_PM.c **** *  void
 141:.\Generated_Source\PSoC5/ConsolePort_3_WinTimer_PM.c **** *
 142:.\Generated_Source\PSoC5/ConsolePort_3_WinTimer_PM.c **** * Return:
 143:.\Generated_Source\PSoC5/ConsolePort_3_WinTimer_PM.c **** *  void
 144:.\Generated_Source\PSoC5/ConsolePort_3_WinTimer_PM.c **** *
 145:.\Generated_Source\PSoC5/ConsolePort_3_WinTimer_PM.c **** * Global variables:
 146:.\Generated_Source\PSoC5/ConsolePort_3_WinTimer_PM.c **** *  ConsolePort_3_WinTimer_backup.enableState:  Is used to restore the enable state of
 147:.\Generated_Source\PSoC5/ConsolePort_3_WinTimer_PM.c **** *  block on wakeup from sleep mode.
 148:.\Generated_Source\PSoC5/ConsolePort_3_WinTimer_PM.c **** *
 149:.\Generated_Source\PSoC5/ConsolePort_3_WinTimer_PM.c **** *******************************************************************************/
 150:.\Generated_Source\PSoC5/ConsolePort_3_WinTimer_PM.c **** void ConsolePort_3_WinTimer_Wakeup(void) 
 151:.\Generated_Source\PSoC5/ConsolePort_3_WinTimer_PM.c **** {
 428              		.loc 1 151 0
 429              		.cfi_startproc
 430              		@ args = 0, pretend = 0, frame = 0
 431              		@ frame_needed = 0, uses_anonymous_args = 0
 432 0000 10B5     		push	{r4, lr}
 433              		.cfi_def_cfa_offset 8
 434              		.cfi_offset 4, -8
 435              		.cfi_offset 14, -4
 436              	.LBB8:
 437              	.LBB9:
  81:.\Generated_Source\PSoC5/ConsolePort_3_WinTimer_PM.c ****         ConsolePort_3_WinTimer_STATUS_MASK =ConsolePort_3_WinTimer_backup.InterruptMaskValue;
 438              		.loc 1 81 0
 439 0002 094C     		ldr	r4, .L18
 440 0004 6088     		ldrh	r0, [r4, #2]
 441 0006 FFF7FEFF 		bl	ConsolePort_3_WinTimer_WriteCounter
 442              	.LVL7:
  82:.\Generated_Source\PSoC5/ConsolePort_3_WinTimer_PM.c ****         #if (ConsolePort_3_WinTimer_UsingHWCaptureCounter)
 443              		.loc 1 82 0
 444 000a 084B     		ldr	r3, .L18+4
 445 000c 2279     		ldrb	r2, [r4, #4]	@ zero_extendqisi2
  88:.\Generated_Source\PSoC5/ConsolePort_3_WinTimer_PM.c ****         #endif /* Restore the enable state of the Timer component */
 446              		.loc 1 88 0
 447 000e 6079     		ldrb	r0, [r4, #5]	@ zero_extendqisi2
  82:.\Generated_Source\PSoC5/ConsolePort_3_WinTimer_PM.c ****         #if (ConsolePort_3_WinTimer_UsingHWCaptureCounter)
 448              		.loc 1 82 0
 449 0010 1A70     		strb	r2, [r3]
  88:.\Generated_Source\PSoC5/ConsolePort_3_WinTimer_PM.c ****         #endif /* Restore the enable state of the Timer component */
 450              		.loc 1 88 0
 451 0012 FFF7FEFF 		bl	ConsolePort_3_WinTimer_WriteControlRegister
 452              	.LVL8:
ARM GAS  C:\Users\Thomas\AppData\Local\Temp\cc1zCEC9.s 			page 27


 453              	.LBE9:
 454              	.LBE8:
 152:.\Generated_Source\PSoC5/ConsolePort_3_WinTimer_PM.c ****     ConsolePort_3_WinTimer_RestoreConfig();
 153:.\Generated_Source\PSoC5/ConsolePort_3_WinTimer_PM.c ****     #if(!ConsolePort_3_WinTimer_UDB_CONTROL_REG_REMOVED)
 154:.\Generated_Source\PSoC5/ConsolePort_3_WinTimer_PM.c ****         if(ConsolePort_3_WinTimer_backup.TimerEnableState == 1u)
 455              		.loc 1 154 0
 456 0016 2378     		ldrb	r3, [r4]	@ zero_extendqisi2
 457 0018 012B     		cmp	r3, #1
 458 001a 00D0     		beq	.L17
 459 001c 10BD     		pop	{r4, pc}
 460              	.L17:
 155:.\Generated_Source\PSoC5/ConsolePort_3_WinTimer_PM.c ****         {     /* Enable Timer's operation */
 156:.\Generated_Source\PSoC5/ConsolePort_3_WinTimer_PM.c ****                 ConsolePort_3_WinTimer_Enable();
 157:.\Generated_Source\PSoC5/ConsolePort_3_WinTimer_PM.c ****         } /* Do nothing if Timer was disabled before */
 158:.\Generated_Source\PSoC5/ConsolePort_3_WinTimer_PM.c ****     #endif /* Remove this code section if Control register is removed */
 159:.\Generated_Source\PSoC5/ConsolePort_3_WinTimer_PM.c **** }
 461              		.loc 1 159 0
 462 001e BDE81040 		pop	{r4, lr}
 463              		.cfi_restore 14
 464              		.cfi_restore 4
 465              		.cfi_def_cfa_offset 0
 156:.\Generated_Source\PSoC5/ConsolePort_3_WinTimer_PM.c ****         } /* Do nothing if Timer was disabled before */
 466              		.loc 1 156 0
 467 0022 FFF7FEBF 		b	ConsolePort_3_WinTimer_Enable
 468              	.LVL9:
 469              	.L19:
 470 0026 00BF     		.align	2
 471              	.L18:
 472 0028 00000000 		.word	.LANCHOR0
 473 002c 87650040 		.word	1073767815
 474              		.cfi_endproc
 475              	.LFE3:
 476              		.size	ConsolePort_3_WinTimer_Wakeup, .-ConsolePort_3_WinTimer_Wakeup
 477              		.bss
 478              		.align	2
 479              		.set	.LANCHOR0,. + 0
 480              		.type	ConsolePort_3_WinTimer_backup, %object
 481              		.size	ConsolePort_3_WinTimer_backup, 6
 482              	ConsolePort_3_WinTimer_backup:
 483 0000 00000000 		.space	6
 483      0000
 484 0006 0000     		.text
 485              	.Letext0:
 486              		.file 2 ".\\Generated_Source\\PSoC5\\cytypes.h"
 487              		.file 3 ".\\Generated_Source\\PSoC5\\ConsolePort_3_WinTimer.h"