ARM GAS  C:\Users\Thomas\AppData\Local\Temp\cc9Mh4pg.s 			page 1


   1              		.syntax unified
   2              		.cpu cortex-m3
   3              		.fpu softvfp
   4              		.eabi_attribute 20, 1
   5              		.eabi_attribute 21, 1
   6              		.eabi_attribute 23, 3
   7              		.eabi_attribute 24, 1
   8              		.eabi_attribute 25, 1
   9              		.eabi_attribute 26, 1
  10              		.eabi_attribute 30, 2
  11              		.eabi_attribute 34, 1
  12              		.eabi_attribute 18, 4
  13              		.thumb
  14              		.file	"ConsolePort_4_WinTimer_PM.c"
  15              		.text
  16              	.Ltext0:
  17              		.section	.gnu.lto_.profile.be1c33f1,"",%progbits
  18 0000 789C6366 		.ascii	"x\234cf```a\200\000F\206\034\005\000\001l\000\225"
  18      60606061 
  18      80004686 
  18      1C050001 
  18      6C0095
  19              		.text
  20              		.section	.gnu.lto_.jmpfuncs.be1c33f1,"",%progbits
  21 0000 789C6366 		.ascii	"x\234cf\300\016\244\2404\013\230db``\004#f\204\030\000"
  21      C00EA4A0 
  21      340B9864 
  21      62606004 
  21      23668418 
  22 0015 0544002D 		.ascii	"\005D\000-"
  23              		.text
  24              		.section	.gnu.lto_.inline.be1c33f1,"",%progbits
  25 0000 789C6366 		.ascii	"x\234cf\300\016\252\2404\013\003\003\267\014#\003\023"
  25      C00EAAA0 
  25      340B0303 
  25      B70C2303 
  25      13
  26 0011 C7013B06 		.ascii	"\307\001;\006\266\005\362L 1&n8\201]\222q\202\037\224"
  26      B605F24C 
  26      2031266E 
  26      38815D92 
  26      71821F94 
  27 0025 6266E092 		.ascii	"bf\340\222\002*\340\332\207P\300\310\005#X\0308\004"
  27      022AE0DA 
  27      8750C0C8 
  27      05235818 
  27      3804
  28 0037 81926C1F 		.ascii	"\201\222l\037\364\260H2\000\000\321n\012\222"
  28      F4B04832 
  28      0000D16E 
  28      0A92
  29              		.text
  30              		.section	.gnu.lto_.pureconst.be1c33f1,"",%progbits
  31 0000 789C6366 		.ascii	"x\234cf``\340d\200\000\026\006)&)f)\026\011\000\002"
  31      6060E064 
  31      80001606 
  31      29262966 
ARM GAS  C:\Users\Thomas\AppData\Local\Temp\cc9Mh4pg.s 			page 2


  31      29160900 
  32 0015 CF0080   		.ascii	"\317\000\200"
  33              		.text
  34              		.section	.gnu.lto_ConsolePort_4_WinTimer_SaveConfig.be1c33f1,"",%progbits
  35 0000 789C9592 		.ascii	"x\234\225\222\277K#A\024\307\347;\353\306\321\010\036"
  35      BF4B2341 
  35      14C7E73B 
  35      EBC6D108 
  35      1E
  36 0011 57E61F48 		.ascii	"W\346\037H\245\225beea\345\021\360@8\002At\005A\263"
  36      A5956265 
  36      6561E511 
  36      F0403802 
  36      41740541 
  37 0026 10B50CEE 		.ascii	"\020\265\014\356\336\245P\213S\254\004\365\016\013\321"
  37      DEA5508B 
  37      53AC04F5 
  37      0E0BD1
  38 0035 981835FE 		.ascii	"\230\0305\376\252\204U\264QP\324BP\321&\302]g\014\234"
  38      AA8455B4 
  38      5150D442 
  38      50D126C2 
  38      5D670C9C 
  39 0049 0451EFBD 		.ascii	"\004Q\357\275\335\312x'\2700;;3\337\367\276\237\367"
  39      DDCA7827 
  39      B8303B3B 
  39      33DFF7BE 
  39      9FF7
  40 005b 6635F1FA 		.ascii	"f5\361\372\011\320\350\222B4\320\014M@\216\035\012a"
  40      09D0E892 
  40      4234D00C 
  40      4D408E1D 
  40      0A61
  41 006d 2B09F087 		.ascii	"+\011\360\207\200\030\224\030\304o\231\227\030sR\023"
  41      80189418 
  41      C46F9997 
  41      18735213 
  42 007d FEE0AC65 		.ascii	"\376\340\254eY\267\331\003;\344\240Hq\005\351\345\301"
  42      59B7D903 
  42      3BE4A048 
  42      7105E9E5 
  42      C1
  43 008e 1C828244 		.ascii	"\034\202\202D\371\304\343\231\337\227 \321\007\357\014"
  43      F9C4E399 
  43      DF9720D1 
  43      07EF0C
  44 009d F3F081E6 		.ascii	"\363\360\201\346\245\217\216\365\374\274\232\331\276"
  44      A58F8EF5 
  44      FCBC9AD9 
  44      BE
  45 00aa 45A5268A 		.ascii	"E\245&\212\022:\275\244\342\227\0209\032\354wC\013\232"
  45      123ABDA4 
  45      E2971039 
  45      1AEC7743 
  45      0B9A
  46 00bc B54B7C73 		.ascii	"\265K|s\266\222\032\307\336K\215\322\3768\375\236\221"
  46      B6921AC7 
ARM GAS  C:\Users\Thomas\AppData\Local\Temp\cc9Mh4pg.s 			page 3


  46      DE4B8DD2 
  46      FE38FD9E 
  46      91
  47 00cd F1076BC8 		.ascii	"\361\007k\310RE\251\025$eD\022q\212.\023\347\370:>S"
  47      5245A915 
  47      24654412 
  47      718A2E13 
  47      E7F83A3E 
  48 00e2 C7DA52A1 		.ascii	"\307\332R\241\376\310\004\264{\235;:V\277$\355\270\313"
  48      FEC804B4 
  48      7B9D3B3A 
  48      56BF24ED 
  48      B8CB
  49 00f4 793B3185 		.ascii	"y;1\205iL\332\026\253|X@\034)\004\334\263\247\364h\326"
  49      694CDA16 
  49      AB7C5840 
  49      1C2904DC 
  49      B3A7F468 
  50 0109 5793A202 		.ascii	"W\223\242\002\234OEY\2164\011\357\334\"\261\210\032"
  50      9C4F4559 
  50      8E3409EF 
  50      DC22B188 
  50      1A
  51 011a A221BF9D 		.ascii	"\242!\277\235?#O{\325\036\235N1\373\323'\367\032\247"
  51      3F234F7B 
  51      D51E9D4E 
  51      31FBD327 
  51      F71AA7
  52 012d 57C307B6 		.ascii	"W\303\007\266U\366\302Q\271Y\357VF\177*vLP\327*\220"
  52      55F6C251 
  52      B959EF56 
  52      467F2A76 
  52      4C50D72A 
  53 0142 41004B6C 		.ascii	"A\000Kl\210eJ\357U\320\370f\005\245\310+\377E\256D\326"
  53      88654AEF 
  53      55D0F866 
  53      05A5C82B 
  53      FF45AE44 
  54 0157 45E6A663 		.ascii	"E\346\246c\225\221u\301\375\274HVy\304\252\324\304_"
  54      959175C1 
  54      FDBC4856 
  54      79C4AAD4 
  54      C45F
  55 0169 E03BC09A 		.ascii	"\340;\300\232\333\317*\217f\027\357\302Y\3777\316\027"
  55      DBCF2A8F 
  55      6617EFC2 
  55      59FF37CE 
  55      17
  56 017a C6D97071 		.ascii	"\306\331pq\334\177a\223q\224\270\202\355\344u6\340\276"
  56      DC7F6193 
  56      7194B882 
  56      EDE47536 
  56      E0BE
  57 018c E608952E 		.ascii	"\346\010\225.\235\004\365\265\341f#j\304\332\373\215"
  57      9D04F5B5 
  57      E166236A 
  57      C4DAFB8D 
ARM GAS  C:\Users\Thomas\AppData\Local\Temp\cc9Mh4pg.s 			page 4


  58 019c CE48AB39 		.ascii	"\316H\2539\020\3530\302\241V\263\251>\334dF\373\314"
  58      10EB30C2 
  58      A156B3A9 
  58      3EDC6446 
  58      FBCC
  59 01ae 1E2364C6 		.ascii	"\036#d\306\372#u\221\266\356\350\347\356^#\026\011\265"
  59      FA237591 
  59      B6EEE8E7 
  59      EE5E2316 
  59      09B5
  60 01c0 D47688BF 		.ascii	"\324v\210\277E\017\355\371"
  60      450FEDF9 
  61              		.text
  62              		.section	.gnu.lto_ConsolePort_4_WinTimer_RestoreConfig.be1c33f1,"",%progbits
  63 0000 789C8D91 		.ascii	"x\234\215\221\317KTQ\024\307\317\367\274\327\363\351"
  63      CF4B5451 
  63      14C7CFF7 
  63      BCD7F3E9 
  64 0010 B4885636 		.ascii	"\264\210V6\377\200\213p69\364\007\010\265\022\006\214"
  64      FF808B70 
  64      3639F407 
  64      08B51206 
  64      8C
  65 0021 DA0C0C61 		.ascii	"\332\014\014ao!\324<\030m9\370^LP\033\177\255\004\265"
  65      6F21D43C 
  65      186D39F8 
  65      5E4C501B 
  65      7FAD04B5 
  66 0035 702159DA 		.ascii	"p!Y\332L\343\224m\207\226\012\211\277\010\006\251\215"
  66      4CE3946D 
  66      87960A89 
  66      BF0806A9 
  66      8D
  67 0046 81ED1A67 		.ascii	"\201\355\032g1<\302\364\234;n4\225\036\334{\336\275"
  67      313CC2F4 
  67      9C3B6E34 
  67      951EDC7B 
  67      DEBD
  68 0058 F77BCFF7 		.ascii	"\367{\317\367s\317\261\350\337/.\343>\023\335\226\010"
  68      73CFB1E8 
  68      DF2F2EE3 
  68      3E13DD96 
  68      08
  69 0069 8BC0E35F 		.ascii	"\213\300\343_\211B\227\001\375!\320\010c\004\277\270"
  69      89429701 
  69      FD21D008 
  69      6304BFB8 
  70 0079 CE18AF2E 		.ascii	"\316\030\257.N\305\272\346\203 \370\275Y\351|\336\031"
  70      4EC5BAE6 
  70      8320F8BD 
  70      59E97CDE 
  70      19
  71 008a C9B506B7 		.ascii	"\311\265\006\267\322\340\015\272H4\365\302\341\267\230"
  71      D2E00DBA 
  71      4834F5C2 
  71      E1B798
  72 0099 5310CDB5 		.ascii	"S\020\315\265\326\031\026\340@b\351z58:\252\254O\354"
ARM GAS  C:\Users\Thomas\AppData\Local\Temp\cc9Mh4pg.s 			page 5


  72      D61916E0 
  72      4062E97A 
  72      35383AAA 
  72      AC4FEC
  73 00ac 27E03245 		.ascii	"'\3402E\014[&vt\"\332\223\241~?e!\321\252\341\331J}"
  73      0C5B2676 
  73      7422DA93 
  73      A17E3F65 
  73      21D1AAE1 
  74 00c3 7BC2D2DB 		.ascii	"{\302\322\333MV\363W[\243E\316\377\011^\004n\304\326"
  74      4D56F357 
  74      5BA345CE 
  74      FF095E04 
  74      6EC4D6
  75 00d6 A1A696DD 		.ascii	"\241\246\226\335\037{\353\033\356>\313\216Y.\204\205"
  75      1F7BEB1B 
  75      EE3ECB8E 
  75      592E8485 
  76 00e6 19CC623A 		.ascii	"\031\314b:\014Te\343-\362x\207\2709\373\2734\266\354"
  76      0C5465E3 
  76      2DF27887 
  76      B839FBBB 
  76      34B6EC
  77 00f9 74DF8CF8 		.ascii	"t\337\214\370\012\026Es`\300\261\204n\332\205\255>t"
  77      0A164573 
  77      60C0B184 
  77      6EDA85AD 
  77      3E74
  78 010b D6C569B0 		.ascii	"\326\305i\260\220\343=\362$\014\021\267\221b\225w\346"
  78      90E33DF2 
  78      240C11B7 
  78      91629577 
  78      E6
  79 011c 6EB5B0EC 		.ascii	"n\265\260\354\013\261\316r\024\317\343pQ2\034Z\035|"
  79      0BB1CE72 
  79      14CFE370 
  79      51321C5A 
  79      1D7C
  80 012e 108E1ABE 		.ascii	"\020\216\032\276L\316%4\267\310Vg7\233\226\276\254\375"
  80      4CCE2534 
  80      B7C85667 
  80      379B96BE 
  80      ACFD
  81 0140 E55A18D8 		.ascii	"\345Z\030\330\247\036\333n\022\035\224\307^\273jR\010"
  81      A71EDB6E 
  81      121D94C7 
  81      5EBB6A52 
  81      08
  82 0151 AB3722EE 		.ascii	"\2537\"\356@\031q,\253\013*\222X\370Z\274\273\033'e"
  82      4019712C 
  82      AB0B2A92 
  82      58F85ABC 
  82      BB1B2765 
  83 0165 74FE9BF7 		.ascii	"t\376\233\367\343\371\274\237\014\257\351\352\312%u"
  83      E3F9BC9F 
  83      0CAFE9EA 
  83      CA2575
ARM GAS  C:\Users\Thomas\AppData\Local\Temp\cc9Mh4pg.s 			page 6


  84 0174 8B355483 		.ascii	"\2135T\203\317\246nN\304W\351;\302j\363\216\021\223"
  84      CFA66E4E 
  84      C457E93B 
  84      C26AF38E 
  84      1193
  85 0186 361BDA64 		.ascii	"6\033\332d\321$\023\351\273^\326\313=\034\366\036e\372"
  85      D12413E9 
  85      BB5ED6CB 
  85      3D1CF61E 
  85      65FA
  86 0198 FDA7B901 		.ascii	"\375\247\271\001/\235\352\367{\223\351^?;\344?\366R"
  86      2F9DEAF7 
  86      7B93E95E 
  86      3F3BE43F 
  86      F652
  87 01aa 7E6E38D3 		.ascii	"~n8\323\223y0\230\2757\370\304\313eR}\211\001:\006("
  87      93793098 
  87      BD37F8C4 
  87      CB65527D 
  87      89013A06 
  88 01bf 90E279   		.ascii	"\220\342y"
  89              		.text
  90              		.section	.gnu.lto_ConsolePort_4_WinTimer_Sleep.be1c33f1,"",%progbits
  91 0000 789C8592 		.ascii	"x\234\205\222OH\024Q\034\307\177\337\337\374\331UC\243"
  91      4F481451 
  91      1CC77FDF 
  91      DFFCD955 
  91      43A3
  92 0012 9378ECE2 		.ascii	"\223x\354\342IOI\247\360\340!\010\202\005\203 \026\226"
  92      494F49A7 
  92      F0E02108 
  92      82058320 
  92      1696
  93 0024 B03908B5 		.ascii	"\2609\010\265\023\233\035\027\337\354N\024\035j\305"
  93      139B1D17 
  93      DFEC4E14 
  93      1D6AC5
  94 0033 CBF647A1 		.ascii	"\313\366G\241C\265\265\246\246e\247`\352\"D\024\022"
  94      43B5B5A6 
  94      A665A760 
  94      EA224414 
  94      12
  95 0044 1548D845 		.ascii	"\025H\330E\243n\253\033\351`\272\375\336\354VbT\003"
  95      A36EAB1B 
  95      E960BAFD 
  95      DEEC5662 
  95      5403
  96 0056 6FDE7BBF 		.ascii	"o\336{\277\367y\337\357w\336\033\203\376|\016I;\313"
  96      F779DFEF 
  96      77DE1B83 
  96      FE7C0E49 
  96      3BCB
  97 0068 4407A587 		.ascii	"D\007\245\207M\340\302+\"/\316ll\264\222j6\213\275\244"
  97      4DE0C22B 
  97      222FCE6C 
  97      6CB4926A 
  97      368BBDA4 
ARM GAS  C:\Users\Thomas\AppData\Local\Temp\cc9Mh4pg.s 			page 7


  98 007c F618B0EA 		.ascii	"\366\030\260\352e\363\347\300\002\364\200@\303l\230"
  98      65F3E7C0 
  98      02F48040 
  98      C36C98
  99 008b 1686F185 		.ascii	"\026\206\361\205W\031\205\240\\l\351\274\255\224\252"
  99      571985A0 
  99      5C6CE9BC 
  99      AD94AA
 100 009a E49EB65F 		.ascii	"\344\236\266_h\017E\271\312u'\334E'\011\263\352o\275"
 100      680F45B9 
 100      CA7527DC 
 100      452709B3 
 100      EA6FBD
 101 00ad 6FB17D61 		.ascii	"o\261}a\366\326\327P\202\015\351\247\366\005\252V\253"
 101      F6D6D750 
 101      820DE9A7 
 101      F605AA56 
 101      AB
 102 00be 7E1D29ED 		.ascii	"~\035)\355\347&\203B\206)/!\226\245i\267\025\231Ho,"
 102      E7268342 
 102      86292F21 
 102      96A569B7 
 102      1599486F 
 103 00d3 E2F9B7CB 		.ascii	"\342\371\267\313\237\306\337A\357\\gCDo\0257\257Y\237"
 103      9FC6DF41 
 103      EF5C6743 
 103      446F1537 
 103      AF599F
 104 00e6 3964237C 		.ascii	"9d#|\341)S\373|\\~\275\020\217J\244\247\363ks\263<\206"
 104      E12953FB 
 104      7C5C7EBD 
 104      108F4AA4 
 104      A7F36B73 
 105 00fd 1B9E8F90 		.ascii	"\033\236\217\220M\334C\007\356\243C\334\313\030\003"
 105      4DDC4307 
 105      EEA343DC 
 105      CB1803
 106 010c 2D22B774 		.ascii	"-\"\267t\361\273U\0274E\223\336\302\177\231O7\012;\345"
 106      F1BB5517 
 106      344593DE 
 106      C27F994F 
 106      370A3BE5 
 107 0120 240C26F4 		.ascii	"$\014&\364N\322\211\014\332h\225@\271Je\375Y\233\246"
 107      4ED2890C 
 107      DA689540 
 107      B94A65FD 
 107      599BA6
 108 0133 051D7F73 		.ascii	"\005\035\177se\222\263\233\352\222\212\207lm\351o\334"
 108      6592B39B 
 108      EA928A87 
 108      6C6DE96F 
 108      DC
 109 0144 296045D3 		.ascii	")`E\323\222\347\337\204\316\2434e\343\001\262\230\324"
 109      92E7DF84 
 109      CEA33465 
 109      E301B298 
 109      D4
ARM GAS  C:\Users\Thomas\AppData\Local\Temp\cc9Mh4pg.s 			page 8


 110 0155 B2B2B63D 		.ascii	"\262\262\266=qu\306\356*\313\021\005'B\216aJ\300\265"
 110      7175C6EE 
 110      2ACB1105 
 110      27428E61 
 110      4AC0B5
 111 0168 E818318D 		.ascii	"\350\0301\215.\001\026\256\337\311\267i\255\030\010"
 111      2E0116AE 
 111      DFC9B769 
 111      AD1808
 112 0177 0FA3302B 		.ascii	"\017\2430+lR\2617\2122\275\375\237(\273\275g\376\341"
 112      6C52B137 
 112      8A32BDFD 
 112      9F28BBBD 
 112      67FEE1
 113 018a 3DFBDBFB 		.ascii	"=\373\333\373Q\344\375\353;bRz\334\360\266\242\213\371"
 113      51E4FDEB 
 113      3B62527A 
 113      DCF0B6A2 
 113      8BF9
 114 019c 807C509B 		.ascii	"\200|P\233g\355M\273\315\343U\226K\306\034\262r\251"
 114      67ED4DBB 
 114      CDE35596 
 114      4BC61CB2 
 114      72A9
 115 01ae 4DA4D142 		.ascii	"M\244\321B\363\337H}\306O\032\344\022\274`\364HD\222"
 115      F3DF487D 
 115      C64F1AE4 
 115      12BC60F4 
 115      484492
 116 01c1 FE17A0AD 		.ascii	"\376\027\240\255\004\350\351N\036v\322N\346\344\220"
 116      04E8E94E 
 116      1E76D24E 
 116      E6E490
 117 01d0 732AD5EF 		.ascii	"s*\325\357\236\317\0148\311D\277\333\327\223\354s\323"
 117      9ECF0C38 
 117      C944BFDB 
 117      D793EC73 
 117      D3
 118 01e1 E7DCD34E 		.ascii	"\347\334\323N\302\315\014\245\016\244\216\017\246\217"
 118      C2CD0CA5 
 118      0EA48E0F 
 118      A68F
 119 01ef 0D9E7132 		.ascii	"\015\236q2\251\304\321\356\001\372\001\321`\367/"
 119      A9C4D1EE 
 119      01FA01D1 
 119      60F72F
 120              		.text
 121              		.section	.gnu.lto_ConsolePort_4_WinTimer_Wakeup.be1c33f1,"",%progbits
 122 0000 789C7550 		.ascii	"x\234uPM+DQ\030~\237\367\036\267\311(\222\205\374\001"
 122      4D2B4451 
 122      187E9FF7 
 122      1EB7C928 
 122      9285FC01 
 123 0014 0B190B64 		.ascii	"\013\031\013dgc\241\224\232\242l\246&\215\273P\314\255"
 123      6763A194 
 123      9AA26CA6 
 123      268DBB50 
ARM GAS  C:\Users\Thomas\AppData\Local\Temp\cc9Mh4pg.s 			page 9


 123      CCAD
 124 0026 31EC2667 		.ascii	"1\354&g\030e\205f\245\030;\031\237\023\013\353YQ\263"
 124      18658566 
 124      A5183B19 
 124      9F130BEB 
 124      5951B3
 125 0039 20691AC9 		.ascii	" i\032\311G\211\032;c\026\272\211q\316\035\245\310\251"
 125      47891A3B 
 125      6316BA89 
 125      71CE1DA5 
 125      C8A9
 126 004b D37BCE73 		.ascii	"\323{\316s\236\217\236c\320\337\325\251\366\014\210"
 126      9E8F9E63 
 126      D0DFD5A9 
 126      F60C88
 127 005a 7AD4440D 		.ascii	"z\324D\015\201W\316\210\342\036f\343\244\236d\255\310"
 127      8157CE88 
 127      E21E66E3 
 127      A49E64AD 
 127      C8
 128 006b F592AC33 		.ascii	"\365\222\2543 \252\260\000\364\201@\263l\010\314\342"
 128      20AAB000 
 128      F48140B3 
 128      6C08CCE2 
 129 007b 994B8C95 		.ascii	"\231K\214\225\354\356\252\267uSJ\371\362\220o^hv\230"
 129      ECEEAAB7 
 129      75534AF9 
 129      F2906F5E 
 129      687698
 130 008e A8CC557F 		.ascii	"\250\314U\177l\241\225\024\247\224\370(x\315\204\342"
 130      6CA19514 
 130      A794F828 
 130      78CD84E2 
 131 009e 3454DF90 		.ascii	"4T\337\220\206\251r)\323\230\225\225J\271\220,v\260"
 131      86A97229 
 131      D3989595 
 131      4AB9902C 
 131      76B0
 132 00b0 29C86105 		.ascii	")\310a\005>*\202\316yb\326\323\270\301|\266\224c-\321"
 132      3E2A82CE 
 132      7962D6D3 
 132      B8C17CB6 
 132      94632DD1 
 133 00c4 5E1B974B 		.ascii	"^\033\227K\007\034{\227\213\322\3430\227\265\002\333"
 133      071C7B97 
 133      8BD2E330 
 133      97B502DB 
 134 00d4 8829AD41 		.ascii	"\210)\255A\327\230;>\274Mz5\367\215\305o\266\370\320"
 134      D7983B3E 
 134      BC4D7A35 
 134      F78DC56F 
 134      B6F8D0
 135 00e7 D90ABD7F 		.ascii	"\331\012\275\177<\277\360\024Y!\3565\035O\254#\205\265"
 135      3CBFF014 
 135      5921EE35 
 135      1D4FAC23 
 135      85B5
ARM GAS  C:\Users\Thomas\AppData\Local\Temp\cc9Mh4pg.s 			page 10


 136 00f9 B8D4AC1A 		.ascii	"\270\324\254\032\354 \206]\264\270o\237{\313Gf{\233"
 136      EC20865D 
 136      B4B86F9F 
 136      7BCB4766 
 136      7B9B
 137 010b C326F614 		.ascii	"\303&\366\024\347\325m\206}\264S\036\211\253\371\360"
 137      E7D56D86 
 137      7DB4531E 
 137      89ABF9F0 
 138 011b 4FD469AA 		.ascii	"O\324i\252x$\264)@8\320r\322%\014:\251w;8\271\246\377"
 138      7824B429 
 138      4038D072 
 138      D2250C3A 
 138      A9773B38 
 139 0132 3A285364 		.ascii	":(Sd\276;h\215p\213\337!\236\255\014\270\032\322\337"
 139      BE3B688D 
 139      708BDF21 
 139      9EAD0CB8 
 139      1AD2DF
 140 0145 028D2A6A 		.ascii	"\002\215*j\267/\320o\205\255\310h\324\032\013\016\331"
 140      B72FD06F 
 140      85ADC868 
 140      D41A0B0E 
 140      D9
 141 0156 D3919015 		.ascii	"\323\221\220\025\360\017\331}\335\201>;<eOX~;\022\015"
 141      F00FD97D 
 141      DD813E3B 
 141      3C654F58 
 141      7E3B120D 
 142 016a 760547C6 		.ascii	"v\005G\306\303\303\343\223V$\350\037\364\205\350\013"
 142      C3C3E393 
 142      5624E81F 
 142      F485E80B 
 143 017a 5E669A79 		.ascii	"^f\232y"
 144              		.text
 145              		.section	.gnu.lto_.symbol_nodes.be1c33f1,"",%progbits
 146 0000 789C55CF 		.ascii	"x\234U\317\273\015\302@\020\004\320\271\331\373\272"
 146      BB0DC240 
 146      1004D0B9 
 146      D9FBBA
 147 000f 067A1D07 		.ascii	"\006z\035\007\024@\005\310Bn\303\231c\327\000\024\202"
 147      144005C8 
 147      426EC399 
 147      63D70014 
 147      82
 148 0020 B8130E96 		.ascii	"\270\023\016\226MFo6\3315\000o\234\303 \340v\000\022"
 148      4D466F36 
 148      D935006F 
 148      9CC320E0 
 148      760012
 149 0033 EE4B4502 		.ascii	"\356KE\002\026\312H\005_\323\304?G\231w\310\212?c\236"
 149      16CA4805 
 149      5FD3C43F 
 149      479977C8 
 149      8A3F639E 
 150 0047 3B939267 		.ascii	";\223\222gU\366,*\236M\325sRs4d\254\317O\260~\332\372"
 150      55F62C2A 
ARM GAS  C:\Users\Thomas\AppData\Local\Temp\cc9Mh4pg.s 			page 11


 150      9E4DD573 
 150      52733464 
 150      ACCF4FB0 
 151 005e EAC98A7D 		.ascii	"\352\311\212}\230\005\373\260\2653\373W##\361\030\373"
 151      9805FBB0 
 151      B533FB57 
 151      2323F118 
 151      FB
 152 006f 38E1BA5D 		.ascii	"8\341\272]\360\005F\023;H"
 152      F0054613 
 152      3B48
 153              		.text
 154              		.section	.gnu.lto_.refs.be1c33f1,"",%progbits
 155 0000 789C25C8 		.ascii	"x\234%\310\301\021\000 \014\204@\310E+\261\377\032\315"
 155      C1110020 
 155      0C8440C8 
 155      452BB1FF 
 155      1ACD
 156 0012 282F6603 		.ascii	"(/f\003\034~AK[wj\036GV\345\321\262\261\270\013\204"
 156      1C7E414B 
 156      5B776A1E 
 156      4756E5D1 
 156      B2B1B80B 
 157 0027 0068     		.ascii	"\000h"
 158              		.text
 159              		.section	.gnu.lto_.decls.be1c33f1,"",%progbits
 160 0000 789C9556 		.ascii	"x\234\225VmL\024W\024\235\267oY\226qAS\032mh\033\267"
 160      6D4C1457 
 160      149DB76F 
 160      59967141 
 160      531A6D68 
 161 0016 D0106B8D 		.ascii	"\320\020k\215\261Mm\374W\023\322\330\246\261%\322\326"
 161      B14D6DFC 
 161      5713D2D8 
 161      A6B125D2 
 161      D6
 162 0027 1F929015 		.ascii	"\037\222\220\025\247J\244@\226\245\211\277:\210(B\325"
 162      A74AA440 
 162      96A589BF 
 162      3A882842 
 162      D5
 163 0038 9558418C 		.ascii	"\225XA\214\272v\225/qY\021\220\017\025\026\024\020\004"
 163      BA76952F 
 163      71591190 
 163      0F151614 
 163      1004
 164 004a A9452C20 		.ascii	"\251E, \002\213 \337]\324Z\254\255\333\373\336\314\260"
 164      028B20DF 
 164      5DD45AAC 
 164      ADDBFBDE 
 164      CCB0
 165 005c 33C6D174 		.ascii	"3\306\321t\222\273\314\233w\356\271\347\236\367\336"
 165      92BBCC9B 
 165      77EEB9E7 
 165      9EF7DE
 166 006b 0C986198 		.ascii	"\014\230a\230;\210a\274pE\0070L\272\206a\374\340Y$\343"
 166      3B8861BC 
ARM GAS  C:\Users\Thomas\AppData\Local\Temp\cc9Mh4pg.s 			page 12


 166      70450730 
 166      4CBA8661 
 166      FCE05924 
 167 0080 BB588812 		.ascii	"\273X\210\022\010\007\204\023\242\014\242\006\342\012"
 167      08078413 
 167      A20CA206 
 167      E20A
 168 008e 440BC475 		.ascii	"D\013\304u\210\016\210N\010\240b\334\214\362\"\271\201"
 168      880E884E 
 168      08A062DC 
 168      8CF222B9 
 168      81
 169 009f 22A71162 		.ascii	"\"\247\021b1\3040D\003\304=\210A\010\027\3048\304}\210"
 169      31C43044 
 169      03C43D88 
 169      410817C4 
 169      38C47D88 
 170 00b3 4A880988 		.ascii	"J\210\011\210*\010\014\321K4B\364\210\343\022\261v\215"
 170      2A080CD1 
 170      4B3442F4 
 170      88E312B1 
 170      768D
 171 00c5 4A3DC70B 		.ascii	"J=\307\013\352\311\353LB\264\212u\244\232S\020M*\365"
 171      EAC9EB4C 
 171      42B48A75 
 171      A49A5310 
 171      4D2AF5
 172 00d8 1C628F2D 		.ascii	"\034b\217-*\365\234\242G\221b\255\031\031\257T\227\324"
 172      2AF59CA2 
 172      479162AD 
 172      1919AF54 
 172      97D4
 173 00ea F2401489 		.ascii	"\362@\024\211\034\375\"\267S\364\256D\205\233x\355/"
 173      1CFD22B7 
 173      53F4AE44 
 173      859B78ED 
 173      2F
 174 00fb E39638E4 		.ascii	"\343\2268\344\274r\2762Q\257\332Z\314jP\265\343Q\373"
 174      BC72BE32 
 174      51AFDA5A 
 174      CC6A50B5 
 174      E351FB
 175 010e 82310D0A 		.ascii	"\2021\015\012b\215dX\223\335\222\253\203\241\201\325"
 175      628D6458 
 175      93DD92AB 
 175      83A181D5 
 176 011e 9261ED53 		.ascii	"\222a\355Sw\227v\311\317<\\\3264~\221\026E.F\005(\004"
 176      779776C9 
 176      CF3C5CD6 
 176      347E9116 
 176      452E4605 
 177 0134 15A21060 		.ascii	"\025\242\020`,BK\340w\223V`\252yv\265\"\000k\020\271"
 177      2C424BE0 
 177      77935660 
 177      AA7976B5 
 177      22006B10 
 178 0149 B7E70E75 		.ascii	"\267\347\016u\261+\212!-\203\257\037\324\372\312\225"
ARM GAS  C:\Users\Thomas\AppData\Local\Temp\cc9Mh4pg.s 			page 13


 178      B12B8A21 
 178      2D83AF1F 
 178      D4FACA95 
 179 0159 A7968E60 		.ascii	"\247\226\216`\343q~\320\351\351\253\3541\360-|\275\327"
 179      E3717ED0 
 179      E9E9ABEC 
 179      31F02D7C 
 179      BDD7
 180 016b FB09A542 		.ascii	"\373\011\245B\305\010\2433h\005A\222{\232\202J\220\021"
 180      C508A333 
 180      68054192 
 180      7B9A824A 
 180      9011
 181 017d D21E9494 		.ascii	"\322\036\224\2244\350\261\211r7\265\345\367-\244\024"
 181      34E8B189 
 181      7237B5E5 
 181      F72DA414 
 182 018d B663769D 		.ascii	"\266cv\235@@\363\317\312\362\317J\371\016\232?0{dt\001"
 182      4040F3CF 
 182      CAF2CF4A 
 182      F90E9A3F 
 182      307B6474 
 183 01a2 DE8D2841 		.ascii	"\336\215(A\313\321\233\301\220os\332\306\024\371\245"
 183      CBD19BC1 
 183      906F73DA 
 183      C614F9A5 
 184 01b2 B2FC5229 		.ascii	"\262\374R)\337I\363\253\013\013F5\330.\344\037\256\234"
 184      DF49F3AB 
 184      0B0B4635 
 184      D82EE41F 
 184      AE9C
 185 01c4 ADD20B04 		.ascii	"\255\322\013\004\216\323r\202s2\202s\022A\031%\350\256"
 185      8ED37282 
 185      73328273 
 185      12411925 
 185      E8AE
 186 01d6 DBB3478F 		.ascii	"\333\263G\217]\002Aj~\355O\376`\362b\226z\262\277-\317"
 186      5D02416A 
 186      7EED4FFE 
 186      60F26296 
 186      7AB2BF2D 
 187 01eb 85E9D04B 		.ascii	"\205\351\320K\2465==\207\236`\304\206g\360\374N\336"
 187      A6353D3D 
 187      879E60C4 
 187      8667F0FC 
 187      4EDE
 188 01fd 93CDE337 		.ascii	"\223\315\3437\030\264\"\004\275\027\302\240\013(\034"
 188      18B42204 
 188      BD17C2A0 
 188      0B281C
 189 020c 60B4082A 		.ascii	"`\264\010*\207u\250\200u8\005.{\0164\027\177\221\306"
 189      8775A880 
 189      7538052E 
 189      7B0E3417 
 189      7F91C6
 190 021f AF459588 		.ascii	"\257E\225\210E\347\347e\320\012\242\363{w9\261|%\011"
 190      45E7E765 
ARM GAS  C:\Users\Thomas\AppData\Local\Temp\cc9Mh4pg.s 			page 14


 190      D00AA2F3 
 190      7B7739B1 
 190      7C2509
 191 0232 D2B79455 		.ascii	"\322\267\224U\212\245\264Wt\334\016\304\223\202\332"
 191      8AA5B457 
 191      74DC0EC4 
 191      9382DA
 192 0241 C982E97C 		.ascii	"\311\202\351|\003\361\233\3678\306\037l;\230f=\305\017"
 192      03F19BF7 
 192      38C61F6C 
 192      3B98663D 
 192      C50F
 193 0253 7ABD4B69 		.ascii	"z\275Ki\022\252\226\365\\-\365\\C{ns\317=4\320\255\265"
 193      12AA96F5 
 193      5C2DF55C 
 193      437B6E73 
 193      CF3D34D0 
 194 0269 88F0E4DD 		.ascii	"\210\360\344\335\036y\204\351\326\322\220\341\261\007"
 194      1E7984E9 
 194      D6D290E1 
 194      B107
 195 0277 331703F0 		.ascii	"3\027\003\3605\215\302\021\243\340H\316\344\\\271\236"
 195      358DC211 
 195      A3E048CE 
 195      E45CB99E 
 196 0287 0EBD5E4C 		.ascii	"\016\275^L,y:\354(\320\241pV\350\365\276\320\253\013"
 196      2C793AEC 
 196      28D0A170 
 196      56E8F5BE 
 196      D0AB0B
 197 029a 3AB8E4EB 		.ascii	":\270\344\353\325(\366Jm\343\323x\277\302 \006\325B"
 197      D528F64A 
 197      6DE3D378 
 197      BFC22006 
 197      D542
 198 02ac 8717A143 		.ascii	"\207\027\241CT\017\316\031E\347.\303\303:x\010\225\236"
 198      540FCE19 
 198      45E72EC3 
 198      C33A7808 
 198      959E
 199 02be A4B70F28 		.ascii	"\244\267\017(lq)liP\330\222\235\177kZ\207;\005\311\277"
 199      6C71296C 
 199      6950D892 
 199      9D7F6B5A 
 199      873B05C9 
 200 02d3 345B3B59 		.ascii	"4[;Y\321\226\242\307\237\311l\201$\324(\263\245Q\262"
 200      D196A2C7 
 200      9FC96C81 
 200      24D428B3 
 200      A551B2
 201 02e6 E50AB5C5 		.ascii	"\345\012\265\305\232\356\262j\265\360f\245K\260\211"
 201      9AEEB26A 
 201      B5F066A5 
 201      4BB089
 202 02f5 9EB33FBD 		.ascii	"\236\263?\275C\2475\252\347\254\211\252\270\212D\031"
 202      43A735AA 
 202      E7AC89AA 
ARM GAS  C:\Users\Thomas\AppData\Local\Temp\cc9Mh4pg.s 			page 15


 202      B88A4419 
 203 0305 A5E79D27 		.ascii	"\245\347\235'\020~(\310\030r\346\354\017\2402\006\257"
 203      107E28C8 
 203      1872E6EC 
 203      0FA03206 
 203      AF
 204 0316 DB9B0D36 		.ascii	"\333\233\0156\351@A\016j\226\211h\226D\264P\021\027"
 204      E940410E 
 204      6A968968 
 204      9644B450 
 204      1117
 205 0328 4F4DCC2C 		.ascii	"OM\314,\240\"\\\363\"\006*\036_`UE\264R\021\327$\021"
 205      A0225CF3 
 205      22062A1E 
 205      5F605545 
 205      B45211D7 
 206 033e 95FDEEFD 		.ascii	"\225\375\356\375:|\002S\021\027\262\012\012\375\005"
 206      3A7C0253 
 206      1117B20A 
 206      0AFD05
 207 034d 11BDF626 		.ascii	"\021\275\366&\237\010\310Am2\021m\222\210\353TDy\316"
 207      9F08C841 
 207      6D32116D 
 207      9288EB54 
 207      4479CE
 208 0360 E33A1637 		.ascii	"\343:\0267\012\034\016G\306W\224\302Vk\337m\224\235"
 208      0A1C0E47 
 208      C65794C2 
 208      566BDF6D 
 208      949D
 209 0372 AA761941 		.ascii	"\252v\031A\273D\320A\011\316\344\035>\244\303\003\002"
 209      BB44D041 
 209      09CEE41D 
 209      3EA4C303 
 209      02
 210 0383 C154C3A8 		.ascii	"\301T\303\250\025\013\"\216^\345\032v\361\377\220\315"
 210      150B228E 
 210      5EE51A76 
 210      F1FF90CD 
 211 0393 43296EC8 		.ascii	"C)n\310(nH\024\235\302\233\341\257\201\006\177\272I"
 211      286E4814 
 211      9DC29BE1 
 211      AF81067F 
 211      BA49
 212 03a5 57D1254E 		.ascii	"W\321%N\257\252\012\242\233TG\255\276l\233e\361\277"
 212      AFAA0AA2 
 212      9B5447AD 
 212      BE6C9B65 
 212      F1BF
 213 03b7 4281D94B 		.ascii	"B\201\331K\373\354,>\251\245\203\234\346\306\2771.\023"
 213      FBEC2C3E 
 213      A9A5839C 
 213      E6C6BF31 
 213      2E13
 214 03c9 06BB2EE5 		.ascii	"\006\273.\345[\375q\2550\030=~\244{!\356\020\006\205"
 214      5BFD71AD 
 214      30183D7E 
ARM GAS  C:\Users\Thomas\AppData\Local\Temp\cc9Mh4pg.s 			page 16


 214      A47B21EE 
 214      100685
 215 03dc EE8EEC40 		.ascii	"\356\216\354@J\277\014\206\272\254\203\331w\002Qhhp"
 215      4ABF0C86 
 215      BAAC83D9 
 215      77025168 
 215      6870
 216 03ee 6868B80D 		.ascii	"hh\270\015\366\351\340\211\341\326\005|\356*\272\025"
 216      F6E9E089 
 216      E1D6057C 
 216      EE2ABA15 
 217 03fe 6E83CA3E 		.ascii	"n\203\312>\024,\235\365e\304\365\337\211\367\014\205"
 217      142C9DF5 
 217      65C4F5DF 
 217      89F70C85 
 218 040e E6A6651A 		.ascii	"\346\246e\032\370\302Ut\301n\211\320\371\355M\301\265"
 218      F8C25574 
 218      C16E89D0 
 218      F9ED4DC1 
 218      B5
 219 041f 147C902E 		.ascii	"\024|\220. \317\25753\350W\230\277I\227\217\240\301"
 219      20CFAF35 
 219      33E85798 
 219      BF49978F 
 219      A0C1
 220 0431 027417CE 		.ascii	"\002t\027\316A?\012E\275\020w zP(\265\203\22682\334"
 220      413F0A45 
 220      BD107720 
 220      7A5028B5 
 220      83963832 
 221 0446 3CAFA6FB 		.ascii	"<\257\246\373\005j\012|j\366\0157\315C\273^\000]N\220"
 221      056A0A7C 
 221      6AF60D37 
 221      CD43BB5E 
 221      005D4E90 
 222 045a E4B80E66 		.ascii	"\344\270\016f\331u<\"\363\214\264\006\322;I\343\276"
 222      D9753C22 
 222      F38CB406 
 222      D23B49E3 
 222      BE
 223 046b F2ECAE1E 		.ascii	"\362\354\256\036\205\007S\334\231\010=\032\004\226\337"
 223      850753DC 
 223      99083D1A 
 223      0496DF
 224 047a 7C479A24 		.ascii	"|G\232$\321\353E=\241\001h\345Um\221\305)\277\2617\010"
 224      D1EB453D 
 224      A10168E5 
 224      556D91C5 
 224      29BFB137 
 225 048f 0F0BEB51 		.ascii	"\017\013\353Q[:\342a\303N\362\274\315\323\327\353\321"
 225      5B3AE261 
 225      C34EF2BC 
 225      CDD3D7EB 
 225      D1
 226 04a0 A4F23678 		.ascii	"\244\3626xW\220\235FK\017\011\245e\266\015\011\273\005"
 226      57909D46 
 226      4B0F09A5 
ARM GAS  C:\Users\Thomas\AppData\Local\Temp\cc9Mh4pg.s 			page 17


 226      65B60D09 
 226      BB05
 227 04b2 B9511864 		.ascii	"\271Q\030dO\273\213\255:C&y\301\300\011\011h\011\242"
 227      4FBB8BAD 
 227      3A432679 
 227      C1C00909 
 227      6809A2
 228 04c5 67DD7746 		.ascii	"g\335wF\206\221\201\242\341/\240\317\366\017\267\370"
 228      869181A2 
 228      E12FA0CF 
 228      F60FB7F8 
 229 04d5 2BD0A486 		.ascii	"+\320\244\206\017}OD\337\243h>'\353\224\036\247\372"
 229      0F7D4F44 
 229      DFA3683E 
 229      27EB941E 
 229      A7FA
 230 04e7 5199158F 		.ascii	"Q\231\025\2173\253\003\331\014\362\032{\365\007\000"
 230      33AB03D9 
 230      0CF21A7B 
 230      F50700
 231 04f6 8CECEAC8 		.ascii	"\214\354\352\310\354\016\020>\031\317g\214\251~2\366"
 231      EC0E103E 
 231      19CF678C 
 231      A97E32F6 
 232 0506 D419AEF1 		.ascii	"\324\031\256\361\274\036\335\207%\034\361\231>\212d"
 232      BC1EDD87 
 232      251CF199 
 232      3E8A64
 233 0515 1F0D775E 		.ascii	"\037\015w^\273A\321\302}\305\373q\\la\234\2660wrht\241"
 233      BB41D1C2 
 233      7DC5FB71 
 233      5C6C619C 
 233      B6307772 
 234 052c 025DA5B0 		.ascii	"\002]\245\260gBDOPto\215\253?P\201nU\240'E\364$E[\263"
 234      6742444F 
 234      50746F8D 
 234      AB3F5081 
 234      6E55A027 
 235 0546 8F5E0E50 		.ascii	"\217^\016P\240\233\024\350)\021=E\320\330U\340\352e"
 235      A09B14E8 
 235      29113D45 
 235      D0D855E0 
 235      EA65
 236 0558 51081B92 		.ascii	"Q\010\033\222\013\377\200\314-E3\320S\006\331C\236\235"
 236      0BFF80CC 
 236      2D4533D0 
 236      5306D943 
 236      9E9D
 237 056a 3CCE0D92 		.ascii	"<\316\015\222\314a\350\004\203\376\000\232i\240!\350"
 237      CC61E804 
 237      83FE009A 
 237      69A021E8 
 238 057a FA31AFF7 		.ascii	"\3721\257\367G\257p\035\360\247\000\362\003\022\356"
 238      47AF701D 
 238      F0A700F2 
 238      0312EE
 239 0589 E6D6676A 		.ascii	"\346\326gj\025\022\212\024\022<\310 y\010\267\314;\021"
ARM GAS  C:\Users\Thomas\AppData\Local\Temp\cc9Mh4pg.s 			page 18


 239      15128A14 
 239      123CC820 
 239      7908B7CC 
 239      3B11
 240 059b 8909C989 		.ascii	"\211\011\311\211\361\\d\242\331\022\363Q\314\306\270"
 240      F15C64A2 
 240      D912F351 
 240      CCC6B8
 241 05aa 84AFE3BE 		.ascii	"\204\257\343\276\347\3141Q\246\0378\230\372.n\253n\335"
 241      E7CC3151 
 241      A61F3898 
 241      FA2E6EAB 
 241      6EDD
 242 05bc 97DF1823 		.ascii	"\227\337\030#\230\325+\243\327q\011\234\331d\341\266"
 242      98D52BA3 
 242      D771099C 
 242      D964E1B6 
 243 05cc C44425A6 		.ascii	"\304D%\246\230c\271\350\310\250\304\210\325\321*\014"
 243      9863B9E8 
 243      C8A8C488 
 243      D5D12A0C 
 244 05dc 91EB57C6 		.ascii	"\221\353W\3062\357\252Ln\340\222-\211f\261\302[j\032"
 244      32EFAA4C 
 244      6EE0922D 
 244      8966B1C2 
 244      5B6A1A
 245 05ef E2392EE9 		.ascii	"\3429.\351m\225\311\215\246\355\\J\222_J\\\202eM\230"
 245      6D95C98D 
 245      A6ED5C4A 
 245      925F4A5C 
 245      82654D98 
 246 0603 AAB6D81D 		.ascii	"\252\266\330\035\226\035I\\\362\312m\314rU%\246-0e1"
 246      961D495C 
 246      F2CA6DCC 
 246      725525A6 
 246      2D306531 
 247 0617 27C66FE0 		.ascii	"'\306o\340\266\306%[8\363\207\377\263U`\327\021\035"
 247      B6C6255B 
 247      38F387FF 
 247      B35560D7 
 247      111D
 248 0629 1F7C1CFA 		.ascii	"\037|\034\372\322\")\011@\376\276Z?\3468\013\367\234"
 248      D2222909 
 248      40FEBE5A 
 248      3FE6380B 
 248      F79C
 249 063b 90B09763 		.ascii	"\220\260\227c)\337\233j\346Y\022U\275\3734\301\2649"
 249      29DF9B6A 
 249      E6591255 
 249      BDFB34C1 
 249      B439
 250 064d 9E5363DF 		.ascii	"\236Sc\337l\212\335\236\222\024e1\247\304Z\026\321G"
 250      6C8ADD9E 
 250      92146531 
 250      A7C45A16 
 250      D147
 251 065f 023ECA02 		.ascii	"\002>\312\002\206\350\351\203o\266l~\355sR\335\234\222"
ARM GAS  C:\Users\Thomas\AppData\Local\Temp\cc9Mh4pg.s 			page 19


 251      86E8E983 
 251      6FB66C7E 
 251      ED7352DD 
 251      9C92
 252 0671 64596F4A 		.ascii	"dYoJ\336\376\255)>\205{\235\316=\327\203\232\006\241"
 252      DEFEAD29 
 252      3E857B9D 
 252      CE3DD783 
 252      9A06A1
 253 0684 8AD6CC6D 		.ascii	"\212\326\314m]\363\037d\005\015\331"
 253      5DF31F64 
 253      050DD9
 254              		.text
 255              		.section	.gnu.lto_.symtab.be1c33f1,"",%progbits
 256 0000 436F6E73 		.ascii	"ConsolePort_4_WinTimer_SaveConfig\000\000\000\000\000"
 256      6F6C6550 
 256      6F72745F 
 256      345F5769 
 256      6E54696D 
 257 0026 00000000 		.ascii	"\000\000\000\000\000\000\000\254\000\000\000Console"
 257      000000AC 
 257      00000043 
 257      6F6E736F 
 257      6C65
 258 0038 506F7274 		.ascii	"Port_4_WinTimer_RestoreConfig\000\000\000\000\000\000"
 258      5F345F57 
 258      696E5469 
 258      6D65725F 
 258      52657374 
 259 005b 00000000 		.ascii	"\000\000\000\000\000\000\256\000\000\000ConsolePort"
 259      0000AE00 
 259      0000436F 
 259      6E736F6C 
 259      65506F72 
 260 0070 5F345F57 		.ascii	"_4_WinTimer_Sleep\000\000\000\000\000\000\000\000\000"
 260      696E5469 
 260      6D65725F 
 260      536C6565 
 260      70000000 
 261 008a 000000B0 		.ascii	"\000\000\000\260\000\000\000ConsolePort_4_WinTimer_"
 261      00000043 
 261      6F6E736F 
 261      6C65506F 
 261      72745F34 
 262 00a8 57616B65 		.ascii	"Wakeup\000\000\000\000\000\000\000\000\000\000\000\000"
 262      75700000 
 262      00000000 
 262      00000000 
 262      0000
 263 00ba B2000000 		.ascii	"\262\000\000\000ConsolePort_4_WinTimer_ReadControlR"
 263      436F6E73 
 263      6F6C6550 
 263      6F72745F 
 263      345F5769 
 264 00e1 65676973 		.ascii	"egister\000\000\002\000\000\000\000\000\000\000\000"
 264      74657200 
 264      00020000 
ARM GAS  C:\Users\Thomas\AppData\Local\Temp\cc9Mh4pg.s 			page 20


 264      00000000 
 264      0000
 265 00f3 00BA0000 		.ascii	"\000\272\000\000\000ConsolePort_4_WinTimer_ReadCoun"
 265      00436F6E 
 265      736F6C65 
 265      506F7274 
 265      5F345F57 
 266 0117 74657200 		.ascii	"ter\000\000\002\000\000\000\000\000\000\000\000\000"
 266      00020000 
 266      00000000 
 266      000000
 267 0126 C4000000 		.ascii	"\304\000\000\000ConsolePort_4_WinTimer_WriteControl"
 267      436F6E73 
 267      6F6C6550 
 267      6F72745F 
 267      345F5769 
 268 014d 52656769 		.ascii	"Register\000\000\002\000\000\000\000\000\000\000\000"
 268      73746572 
 268      00000200 
 268      00000000 
 268      000000
 269 0160 00C80000 		.ascii	"\000\310\000\000\000ConsolePort_4_WinTimer_WriteCou"
 269      00436F6E 
 269      736F6C65 
 269      506F7274 
 269      5F345F57 
 270 0184 6E746572 		.ascii	"nter\000\000\002\000\000\000\000\000\000\000\000\000"
 270      00000200 
 270      00000000 
 270      00000000 
 271 0194 CC000000 		.ascii	"\314\000\000\000ConsolePort_4_WinTimer_Stop\000\000"
 271      436F6E73 
 271      6F6C6550 
 271      6F72745F 
 271      345F5769 
 272 01b5 02000000 		.ascii	"\002\000\000\000\000\000\000\000\000\000\316\000\000"
 272      00000000 
 272      0000CE00 
 272      00
 273 01c2 00436F6E 		.ascii	"\000ConsolePort_4_WinTimer_Enable\000\000\002\000\000"
 273      736F6C65 
 273      506F7274 
 273      5F345F57 
 273      696E5469 
 274 01e5 00000000 		.ascii	"\000\000\000\000\000\000\000\320\000\000\000"
 274      000000D0 
 274      000000
 275              		.text
 276              		.section	.gnu.lto_.opts,"",%progbits
 277 0000 272D666E 		.ascii	"'-fno-trapv' '-mcpu=cortex-m3' '-mthumb' '-g' '-O3'"
 277      6F2D7472 
 277      61707627 
 277      20272D6D 
 277      6370753D 
 278 0033 20272D66 		.ascii	" '-ffunction-sections' '-finline-functions' '-flto'"
 278      66756E63 
 278      74696F6E 
ARM GAS  C:\Users\Thomas\AppData\Local\Temp\cc9Mh4pg.s 			page 21


 278      2D736563 
 278      74696F6E 
 279 0066 20272D66 		.ascii	" '-ffat-lto-objects'\000"
 279      6661742D 
 279      6C746F2D 
 279      6F626A65 
 279      63747327 
 280              		.text
 281              		.cfi_sections	.debug_frame
 282              		.section	.text.ConsolePort_4_WinTimer_SaveConfig,"ax",%progbits
 283              		.align	2
 284              		.global	ConsolePort_4_WinTimer_SaveConfig
 285              		.thumb
 286              		.thumb_func
 287              		.type	ConsolePort_4_WinTimer_SaveConfig, %function
 288              	ConsolePort_4_WinTimer_SaveConfig:
 289              	.LFB0:
 290              		.file 1 ".\\Generated_Source\\PSoC5\\ConsolePort_4_WinTimer_PM.c"
   1:.\Generated_Source\PSoC5/ConsolePort_4_WinTimer_PM.c **** /*******************************************************************************
   2:.\Generated_Source\PSoC5/ConsolePort_4_WinTimer_PM.c **** * File Name: ConsolePort_4_WinTimer_PM.c
   3:.\Generated_Source\PSoC5/ConsolePort_4_WinTimer_PM.c **** * Version 2.70
   4:.\Generated_Source\PSoC5/ConsolePort_4_WinTimer_PM.c **** *
   5:.\Generated_Source\PSoC5/ConsolePort_4_WinTimer_PM.c **** *  Description:
   6:.\Generated_Source\PSoC5/ConsolePort_4_WinTimer_PM.c **** *     This file provides the power management source code to API for the
   7:.\Generated_Source\PSoC5/ConsolePort_4_WinTimer_PM.c **** *     Timer.
   8:.\Generated_Source\PSoC5/ConsolePort_4_WinTimer_PM.c **** *
   9:.\Generated_Source\PSoC5/ConsolePort_4_WinTimer_PM.c **** *   Note:
  10:.\Generated_Source\PSoC5/ConsolePort_4_WinTimer_PM.c **** *     None
  11:.\Generated_Source\PSoC5/ConsolePort_4_WinTimer_PM.c **** *
  12:.\Generated_Source\PSoC5/ConsolePort_4_WinTimer_PM.c **** *******************************************************************************
  13:.\Generated_Source\PSoC5/ConsolePort_4_WinTimer_PM.c **** * Copyright 2008-2014, Cypress Semiconductor Corporation.  All rights reserved.
  14:.\Generated_Source\PSoC5/ConsolePort_4_WinTimer_PM.c **** * You may use this file only in accordance with the license, terms, conditions,
  15:.\Generated_Source\PSoC5/ConsolePort_4_WinTimer_PM.c **** * disclaimers, and limitations in the end user license agreement accompanying
  16:.\Generated_Source\PSoC5/ConsolePort_4_WinTimer_PM.c **** * the software package with which this file was provided.
  17:.\Generated_Source\PSoC5/ConsolePort_4_WinTimer_PM.c **** ********************************************************************************/
  18:.\Generated_Source\PSoC5/ConsolePort_4_WinTimer_PM.c **** 
  19:.\Generated_Source\PSoC5/ConsolePort_4_WinTimer_PM.c **** #include "ConsolePort_4_WinTimer.h"
  20:.\Generated_Source\PSoC5/ConsolePort_4_WinTimer_PM.c **** 
  21:.\Generated_Source\PSoC5/ConsolePort_4_WinTimer_PM.c **** static ConsolePort_4_WinTimer_backupStruct ConsolePort_4_WinTimer_backup;
  22:.\Generated_Source\PSoC5/ConsolePort_4_WinTimer_PM.c **** 
  23:.\Generated_Source\PSoC5/ConsolePort_4_WinTimer_PM.c **** 
  24:.\Generated_Source\PSoC5/ConsolePort_4_WinTimer_PM.c **** /*******************************************************************************
  25:.\Generated_Source\PSoC5/ConsolePort_4_WinTimer_PM.c **** * Function Name: ConsolePort_4_WinTimer_SaveConfig
  26:.\Generated_Source\PSoC5/ConsolePort_4_WinTimer_PM.c **** ********************************************************************************
  27:.\Generated_Source\PSoC5/ConsolePort_4_WinTimer_PM.c **** *
  28:.\Generated_Source\PSoC5/ConsolePort_4_WinTimer_PM.c **** * Summary:
  29:.\Generated_Source\PSoC5/ConsolePort_4_WinTimer_PM.c **** *     Save the current user configuration
  30:.\Generated_Source\PSoC5/ConsolePort_4_WinTimer_PM.c **** *
  31:.\Generated_Source\PSoC5/ConsolePort_4_WinTimer_PM.c **** * Parameters:
  32:.\Generated_Source\PSoC5/ConsolePort_4_WinTimer_PM.c **** *  void
  33:.\Generated_Source\PSoC5/ConsolePort_4_WinTimer_PM.c **** *
  34:.\Generated_Source\PSoC5/ConsolePort_4_WinTimer_PM.c **** * Return:
  35:.\Generated_Source\PSoC5/ConsolePort_4_WinTimer_PM.c **** *  void
  36:.\Generated_Source\PSoC5/ConsolePort_4_WinTimer_PM.c **** *
  37:.\Generated_Source\PSoC5/ConsolePort_4_WinTimer_PM.c **** * Global variables:
  38:.\Generated_Source\PSoC5/ConsolePort_4_WinTimer_PM.c **** *  ConsolePort_4_WinTimer_backup:  Variables of this global structure are modified to
  39:.\Generated_Source\PSoC5/ConsolePort_4_WinTimer_PM.c **** *  store the values of non retention configuration registers when Sleep() API is
ARM GAS  C:\Users\Thomas\AppData\Local\Temp\cc9Mh4pg.s 			page 22


  40:.\Generated_Source\PSoC5/ConsolePort_4_WinTimer_PM.c **** *  called.
  41:.\Generated_Source\PSoC5/ConsolePort_4_WinTimer_PM.c **** *
  42:.\Generated_Source\PSoC5/ConsolePort_4_WinTimer_PM.c **** *******************************************************************************/
  43:.\Generated_Source\PSoC5/ConsolePort_4_WinTimer_PM.c **** void ConsolePort_4_WinTimer_SaveConfig(void) 
  44:.\Generated_Source\PSoC5/ConsolePort_4_WinTimer_PM.c **** {
 291              		.loc 1 44 0
 292              		.cfi_startproc
 293              		@ args = 0, pretend = 0, frame = 0
 294              		@ frame_needed = 0, uses_anonymous_args = 0
 295 0000 10B5     		push	{r4, lr}
 296              		.cfi_def_cfa_offset 8
 297              		.cfi_offset 4, -8
 298              		.cfi_offset 14, -4
  45:.\Generated_Source\PSoC5/ConsolePort_4_WinTimer_PM.c ****     #if (!ConsolePort_4_WinTimer_UsingFixedFunction)
  46:.\Generated_Source\PSoC5/ConsolePort_4_WinTimer_PM.c ****         ConsolePort_4_WinTimer_backup.TimerUdb = ConsolePort_4_WinTimer_ReadCounter();
 299              		.loc 1 46 0
 300 0002 FFF7FEFF 		bl	ConsolePort_4_WinTimer_ReadCounter
 301              	.LVL0:
  47:.\Generated_Source\PSoC5/ConsolePort_4_WinTimer_PM.c ****         ConsolePort_4_WinTimer_backup.InterruptMaskValue = ConsolePort_4_WinTimer_STATUS_MASK;
 302              		.loc 1 47 0
 303 0006 044B     		ldr	r3, .L3
  46:.\Generated_Source\PSoC5/ConsolePort_4_WinTimer_PM.c ****         ConsolePort_4_WinTimer_backup.InterruptMaskValue = ConsolePort_4_WinTimer_STATUS_MASK;
 304              		.loc 1 46 0
 305 0008 044C     		ldr	r4, .L3+4
 306              		.loc 1 47 0
 307 000a 1B78     		ldrb	r3, [r3]	@ zero_extendqisi2
  46:.\Generated_Source\PSoC5/ConsolePort_4_WinTimer_PM.c ****         ConsolePort_4_WinTimer_backup.InterruptMaskValue = ConsolePort_4_WinTimer_STATUS_MASK;
 308              		.loc 1 46 0
 309 000c 6080     		strh	r0, [r4, #2]	@ movhi
 310              		.loc 1 47 0
 311 000e 2371     		strb	r3, [r4, #4]
  48:.\Generated_Source\PSoC5/ConsolePort_4_WinTimer_PM.c ****         #if (ConsolePort_4_WinTimer_UsingHWCaptureCounter)
  49:.\Generated_Source\PSoC5/ConsolePort_4_WinTimer_PM.c ****             ConsolePort_4_WinTimer_backup.TimerCaptureCounter = ConsolePort_4_WinTimer_ReadCaptureC
  50:.\Generated_Source\PSoC5/ConsolePort_4_WinTimer_PM.c ****         #endif /* Back Up capture counter register  */
  51:.\Generated_Source\PSoC5/ConsolePort_4_WinTimer_PM.c **** 
  52:.\Generated_Source\PSoC5/ConsolePort_4_WinTimer_PM.c ****         #if(!ConsolePort_4_WinTimer_UDB_CONTROL_REG_REMOVED)
  53:.\Generated_Source\PSoC5/ConsolePort_4_WinTimer_PM.c ****             ConsolePort_4_WinTimer_backup.TimerControlRegister = ConsolePort_4_WinTimer_ReadControl
 312              		.loc 1 53 0
 313 0010 FFF7FEFF 		bl	ConsolePort_4_WinTimer_ReadControlRegister
 314              	.LVL1:
 315 0014 6071     		strb	r0, [r4, #5]
 316 0016 10BD     		pop	{r4, pc}
 317              	.L4:
 318              		.align	2
 319              	.L3:
 320 0018 89650040 		.word	1073767817
 321 001c 00000000 		.word	.LANCHOR0
 322              		.cfi_endproc
 323              	.LFE0:
 324              		.size	ConsolePort_4_WinTimer_SaveConfig, .-ConsolePort_4_WinTimer_SaveConfig
 325              		.section	.text.ConsolePort_4_WinTimer_RestoreConfig,"ax",%progbits
 326              		.align	2
 327              		.global	ConsolePort_4_WinTimer_RestoreConfig
 328              		.thumb
 329              		.thumb_func
 330              		.type	ConsolePort_4_WinTimer_RestoreConfig, %function
 331              	ConsolePort_4_WinTimer_RestoreConfig:
ARM GAS  C:\Users\Thomas\AppData\Local\Temp\cc9Mh4pg.s 			page 23


 332              	.LFB1:
  54:.\Generated_Source\PSoC5/ConsolePort_4_WinTimer_PM.c ****         #endif /* Backup the enable state of the Timer component */
  55:.\Generated_Source\PSoC5/ConsolePort_4_WinTimer_PM.c ****     #endif /* Backup non retention registers in UDB implementation. All fixed function registers ar
  56:.\Generated_Source\PSoC5/ConsolePort_4_WinTimer_PM.c **** }
  57:.\Generated_Source\PSoC5/ConsolePort_4_WinTimer_PM.c **** 
  58:.\Generated_Source\PSoC5/ConsolePort_4_WinTimer_PM.c **** 
  59:.\Generated_Source\PSoC5/ConsolePort_4_WinTimer_PM.c **** /*******************************************************************************
  60:.\Generated_Source\PSoC5/ConsolePort_4_WinTimer_PM.c **** * Function Name: ConsolePort_4_WinTimer_RestoreConfig
  61:.\Generated_Source\PSoC5/ConsolePort_4_WinTimer_PM.c **** ********************************************************************************
  62:.\Generated_Source\PSoC5/ConsolePort_4_WinTimer_PM.c **** *
  63:.\Generated_Source\PSoC5/ConsolePort_4_WinTimer_PM.c **** * Summary:
  64:.\Generated_Source\PSoC5/ConsolePort_4_WinTimer_PM.c **** *  Restores the current user configuration.
  65:.\Generated_Source\PSoC5/ConsolePort_4_WinTimer_PM.c **** *
  66:.\Generated_Source\PSoC5/ConsolePort_4_WinTimer_PM.c **** * Parameters:
  67:.\Generated_Source\PSoC5/ConsolePort_4_WinTimer_PM.c **** *  void
  68:.\Generated_Source\PSoC5/ConsolePort_4_WinTimer_PM.c **** *
  69:.\Generated_Source\PSoC5/ConsolePort_4_WinTimer_PM.c **** * Return:
  70:.\Generated_Source\PSoC5/ConsolePort_4_WinTimer_PM.c **** *  void
  71:.\Generated_Source\PSoC5/ConsolePort_4_WinTimer_PM.c **** *
  72:.\Generated_Source\PSoC5/ConsolePort_4_WinTimer_PM.c **** * Global variables:
  73:.\Generated_Source\PSoC5/ConsolePort_4_WinTimer_PM.c **** *  ConsolePort_4_WinTimer_backup:  Variables of this global structure are used to
  74:.\Generated_Source\PSoC5/ConsolePort_4_WinTimer_PM.c **** *  restore the values of non retention registers on wakeup from sleep mode.
  75:.\Generated_Source\PSoC5/ConsolePort_4_WinTimer_PM.c **** *
  76:.\Generated_Source\PSoC5/ConsolePort_4_WinTimer_PM.c **** *******************************************************************************/
  77:.\Generated_Source\PSoC5/ConsolePort_4_WinTimer_PM.c **** void ConsolePort_4_WinTimer_RestoreConfig(void) 
  78:.\Generated_Source\PSoC5/ConsolePort_4_WinTimer_PM.c **** {   
 333              		.loc 1 78 0
 334              		.cfi_startproc
 335              		@ args = 0, pretend = 0, frame = 0
 336              		@ frame_needed = 0, uses_anonymous_args = 0
 337 0000 10B5     		push	{r4, lr}
 338              		.cfi_def_cfa_offset 8
 339              		.cfi_offset 4, -8
 340              		.cfi_offset 14, -4
  79:.\Generated_Source\PSoC5/ConsolePort_4_WinTimer_PM.c ****     #if (!ConsolePort_4_WinTimer_UsingFixedFunction)
  80:.\Generated_Source\PSoC5/ConsolePort_4_WinTimer_PM.c **** 
  81:.\Generated_Source\PSoC5/ConsolePort_4_WinTimer_PM.c ****         ConsolePort_4_WinTimer_WriteCounter(ConsolePort_4_WinTimer_backup.TimerUdb);
 341              		.loc 1 81 0
 342 0002 064C     		ldr	r4, .L7
 343 0004 6088     		ldrh	r0, [r4, #2]
 344 0006 FFF7FEFF 		bl	ConsolePort_4_WinTimer_WriteCounter
 345              	.LVL2:
  82:.\Generated_Source\PSoC5/ConsolePort_4_WinTimer_PM.c ****         ConsolePort_4_WinTimer_STATUS_MASK =ConsolePort_4_WinTimer_backup.InterruptMaskValue;
 346              		.loc 1 82 0
 347 000a 2279     		ldrb	r2, [r4, #4]	@ zero_extendqisi2
 348 000c 044B     		ldr	r3, .L7+4
  83:.\Generated_Source\PSoC5/ConsolePort_4_WinTimer_PM.c ****         #if (ConsolePort_4_WinTimer_UsingHWCaptureCounter)
  84:.\Generated_Source\PSoC5/ConsolePort_4_WinTimer_PM.c ****             ConsolePort_4_WinTimer_SetCaptureCount(ConsolePort_4_WinTimer_backup.TimerCaptureCounte
  85:.\Generated_Source\PSoC5/ConsolePort_4_WinTimer_PM.c ****         #endif /* Restore Capture counter register*/
  86:.\Generated_Source\PSoC5/ConsolePort_4_WinTimer_PM.c **** 
  87:.\Generated_Source\PSoC5/ConsolePort_4_WinTimer_PM.c ****         #if(!ConsolePort_4_WinTimer_UDB_CONTROL_REG_REMOVED)
  88:.\Generated_Source\PSoC5/ConsolePort_4_WinTimer_PM.c ****             ConsolePort_4_WinTimer_WriteControlRegister(ConsolePort_4_WinTimer_backup.TimerControlR
 349              		.loc 1 88 0
 350 000e 6079     		ldrb	r0, [r4, #5]	@ zero_extendqisi2
  82:.\Generated_Source\PSoC5/ConsolePort_4_WinTimer_PM.c ****         ConsolePort_4_WinTimer_STATUS_MASK =ConsolePort_4_WinTimer_backup.InterruptMaskValue;
 351              		.loc 1 82 0
 352 0010 1A70     		strb	r2, [r3]
ARM GAS  C:\Users\Thomas\AppData\Local\Temp\cc9Mh4pg.s 			page 24


  89:.\Generated_Source\PSoC5/ConsolePort_4_WinTimer_PM.c ****         #endif /* Restore the enable state of the Timer component */
  90:.\Generated_Source\PSoC5/ConsolePort_4_WinTimer_PM.c ****     #endif /* Restore non retention registers in the UDB implementation only */
  91:.\Generated_Source\PSoC5/ConsolePort_4_WinTimer_PM.c **** }
 353              		.loc 1 91 0
 354 0012 BDE81040 		pop	{r4, lr}
 355              		.cfi_restore 14
 356              		.cfi_restore 4
 357              		.cfi_def_cfa_offset 0
  88:.\Generated_Source\PSoC5/ConsolePort_4_WinTimer_PM.c ****         #endif /* Restore the enable state of the Timer component */
 358              		.loc 1 88 0
 359 0016 FFF7FEBF 		b	ConsolePort_4_WinTimer_WriteControlRegister
 360              	.LVL3:
 361              	.L8:
 362 001a 00BF     		.align	2
 363              	.L7:
 364 001c 00000000 		.word	.LANCHOR0
 365 0020 89650040 		.word	1073767817
 366              		.cfi_endproc
 367              	.LFE1:
 368              		.size	ConsolePort_4_WinTimer_RestoreConfig, .-ConsolePort_4_WinTimer_RestoreConfig
 369              		.section	.text.ConsolePort_4_WinTimer_Sleep,"ax",%progbits
 370              		.align	2
 371              		.global	ConsolePort_4_WinTimer_Sleep
 372              		.thumb
 373              		.thumb_func
 374              		.type	ConsolePort_4_WinTimer_Sleep, %function
 375              	ConsolePort_4_WinTimer_Sleep:
 376              	.LFB2:
  92:.\Generated_Source\PSoC5/ConsolePort_4_WinTimer_PM.c **** 
  93:.\Generated_Source\PSoC5/ConsolePort_4_WinTimer_PM.c **** 
  94:.\Generated_Source\PSoC5/ConsolePort_4_WinTimer_PM.c **** /*******************************************************************************
  95:.\Generated_Source\PSoC5/ConsolePort_4_WinTimer_PM.c **** * Function Name: ConsolePort_4_WinTimer_Sleep
  96:.\Generated_Source\PSoC5/ConsolePort_4_WinTimer_PM.c **** ********************************************************************************
  97:.\Generated_Source\PSoC5/ConsolePort_4_WinTimer_PM.c **** *
  98:.\Generated_Source\PSoC5/ConsolePort_4_WinTimer_PM.c **** * Summary:
  99:.\Generated_Source\PSoC5/ConsolePort_4_WinTimer_PM.c **** *     Stop and Save the user configuration
 100:.\Generated_Source\PSoC5/ConsolePort_4_WinTimer_PM.c **** *
 101:.\Generated_Source\PSoC5/ConsolePort_4_WinTimer_PM.c **** * Parameters:
 102:.\Generated_Source\PSoC5/ConsolePort_4_WinTimer_PM.c **** *  void
 103:.\Generated_Source\PSoC5/ConsolePort_4_WinTimer_PM.c **** *
 104:.\Generated_Source\PSoC5/ConsolePort_4_WinTimer_PM.c **** * Return:
 105:.\Generated_Source\PSoC5/ConsolePort_4_WinTimer_PM.c **** *  void
 106:.\Generated_Source\PSoC5/ConsolePort_4_WinTimer_PM.c **** *
 107:.\Generated_Source\PSoC5/ConsolePort_4_WinTimer_PM.c **** * Global variables:
 108:.\Generated_Source\PSoC5/ConsolePort_4_WinTimer_PM.c **** *  ConsolePort_4_WinTimer_backup.TimerEnableState:  Is modified depending on the
 109:.\Generated_Source\PSoC5/ConsolePort_4_WinTimer_PM.c **** *  enable state of the block before entering sleep mode.
 110:.\Generated_Source\PSoC5/ConsolePort_4_WinTimer_PM.c **** *
 111:.\Generated_Source\PSoC5/ConsolePort_4_WinTimer_PM.c **** *******************************************************************************/
 112:.\Generated_Source\PSoC5/ConsolePort_4_WinTimer_PM.c **** void ConsolePort_4_WinTimer_Sleep(void) 
 113:.\Generated_Source\PSoC5/ConsolePort_4_WinTimer_PM.c **** {
 377              		.loc 1 113 0
 378              		.cfi_startproc
 379              		@ args = 0, pretend = 0, frame = 0
 380              		@ frame_needed = 0, uses_anonymous_args = 0
 381 0000 10B5     		push	{r4, lr}
 382              		.cfi_def_cfa_offset 8
 383              		.cfi_offset 4, -8
ARM GAS  C:\Users\Thomas\AppData\Local\Temp\cc9Mh4pg.s 			page 25


 384              		.cfi_offset 14, -4
 114:.\Generated_Source\PSoC5/ConsolePort_4_WinTimer_PM.c ****     #if(!ConsolePort_4_WinTimer_UDB_CONTROL_REG_REMOVED)
 115:.\Generated_Source\PSoC5/ConsolePort_4_WinTimer_PM.c ****         /* Save Counter's enable state */
 116:.\Generated_Source\PSoC5/ConsolePort_4_WinTimer_PM.c ****         if(ConsolePort_4_WinTimer_CTRL_ENABLE == (ConsolePort_4_WinTimer_CONTROL & ConsolePort_4_Wi
 385              		.loc 1 116 0
 386 0002 084B     		ldr	r3, .L11
 387 0004 084C     		ldr	r4, .L11+4
 388 0006 1B78     		ldrb	r3, [r3]	@ zero_extendqisi2
 389 0008 DB09     		lsrs	r3, r3, #7
 390 000a 2370     		strb	r3, [r4]
 117:.\Generated_Source\PSoC5/ConsolePort_4_WinTimer_PM.c ****         {
 118:.\Generated_Source\PSoC5/ConsolePort_4_WinTimer_PM.c ****             /* Timer is enabled */
 119:.\Generated_Source\PSoC5/ConsolePort_4_WinTimer_PM.c ****             ConsolePort_4_WinTimer_backup.TimerEnableState = 1u;
 120:.\Generated_Source\PSoC5/ConsolePort_4_WinTimer_PM.c ****         }
 121:.\Generated_Source\PSoC5/ConsolePort_4_WinTimer_PM.c ****         else
 122:.\Generated_Source\PSoC5/ConsolePort_4_WinTimer_PM.c ****         {
 123:.\Generated_Source\PSoC5/ConsolePort_4_WinTimer_PM.c ****             /* Timer is disabled */
 124:.\Generated_Source\PSoC5/ConsolePort_4_WinTimer_PM.c ****             ConsolePort_4_WinTimer_backup.TimerEnableState = 0u;
 125:.\Generated_Source\PSoC5/ConsolePort_4_WinTimer_PM.c ****         }
 126:.\Generated_Source\PSoC5/ConsolePort_4_WinTimer_PM.c ****     #endif /* Back up enable state from the Timer control register */
 127:.\Generated_Source\PSoC5/ConsolePort_4_WinTimer_PM.c ****     ConsolePort_4_WinTimer_Stop();
 391              		.loc 1 127 0
 392 000c FFF7FEFF 		bl	ConsolePort_4_WinTimer_Stop
 393              	.LVL4:
 394              	.LBB4:
 395              	.LBB5:
  46:.\Generated_Source\PSoC5/ConsolePort_4_WinTimer_PM.c ****         ConsolePort_4_WinTimer_backup.InterruptMaskValue = ConsolePort_4_WinTimer_STATUS_MASK;
 396              		.loc 1 46 0
 397 0010 FFF7FEFF 		bl	ConsolePort_4_WinTimer_ReadCounter
 398              	.LVL5:
  47:.\Generated_Source\PSoC5/ConsolePort_4_WinTimer_PM.c ****         #if (ConsolePort_4_WinTimer_UsingHWCaptureCounter)
 399              		.loc 1 47 0
 400 0014 054B     		ldr	r3, .L11+8
  46:.\Generated_Source\PSoC5/ConsolePort_4_WinTimer_PM.c ****         ConsolePort_4_WinTimer_backup.InterruptMaskValue = ConsolePort_4_WinTimer_STATUS_MASK;
 401              		.loc 1 46 0
 402 0016 6080     		strh	r0, [r4, #2]	@ movhi
  47:.\Generated_Source\PSoC5/ConsolePort_4_WinTimer_PM.c ****         #if (ConsolePort_4_WinTimer_UsingHWCaptureCounter)
 403              		.loc 1 47 0
 404 0018 1B78     		ldrb	r3, [r3]	@ zero_extendqisi2
 405 001a 2371     		strb	r3, [r4, #4]
  53:.\Generated_Source\PSoC5/ConsolePort_4_WinTimer_PM.c ****         #endif /* Backup the enable state of the Timer component */
 406              		.loc 1 53 0
 407 001c FFF7FEFF 		bl	ConsolePort_4_WinTimer_ReadControlRegister
 408              	.LVL6:
 409 0020 6071     		strb	r0, [r4, #5]
 410 0022 10BD     		pop	{r4, pc}
 411              	.L12:
 412              		.align	2
 413              	.L11:
 414 0024 79650040 		.word	1073767801
 415 0028 00000000 		.word	.LANCHOR0
 416 002c 89650040 		.word	1073767817
 417              	.LBE5:
 418              	.LBE4:
 419              		.cfi_endproc
 420              	.LFE2:
 421              		.size	ConsolePort_4_WinTimer_Sleep, .-ConsolePort_4_WinTimer_Sleep
ARM GAS  C:\Users\Thomas\AppData\Local\Temp\cc9Mh4pg.s 			page 26


 422              		.section	.text.ConsolePort_4_WinTimer_Wakeup,"ax",%progbits
 423              		.align	2
 424              		.global	ConsolePort_4_WinTimer_Wakeup
 425              		.thumb
 426              		.thumb_func
 427              		.type	ConsolePort_4_WinTimer_Wakeup, %function
 428              	ConsolePort_4_WinTimer_Wakeup:
 429              	.LFB3:
 128:.\Generated_Source\PSoC5/ConsolePort_4_WinTimer_PM.c ****     ConsolePort_4_WinTimer_SaveConfig();
 129:.\Generated_Source\PSoC5/ConsolePort_4_WinTimer_PM.c **** }
 130:.\Generated_Source\PSoC5/ConsolePort_4_WinTimer_PM.c **** 
 131:.\Generated_Source\PSoC5/ConsolePort_4_WinTimer_PM.c **** 
 132:.\Generated_Source\PSoC5/ConsolePort_4_WinTimer_PM.c **** /*******************************************************************************
 133:.\Generated_Source\PSoC5/ConsolePort_4_WinTimer_PM.c **** * Function Name: ConsolePort_4_WinTimer_Wakeup
 134:.\Generated_Source\PSoC5/ConsolePort_4_WinTimer_PM.c **** ********************************************************************************
 135:.\Generated_Source\PSoC5/ConsolePort_4_WinTimer_PM.c **** *
 136:.\Generated_Source\PSoC5/ConsolePort_4_WinTimer_PM.c **** * Summary:
 137:.\Generated_Source\PSoC5/ConsolePort_4_WinTimer_PM.c **** *  Restores and enables the user configuration
 138:.\Generated_Source\PSoC5/ConsolePort_4_WinTimer_PM.c **** *
 139:.\Generated_Source\PSoC5/ConsolePort_4_WinTimer_PM.c **** * Parameters:
 140:.\Generated_Source\PSoC5/ConsolePort_4_WinTimer_PM.c **** *  void
 141:.\Generated_Source\PSoC5/ConsolePort_4_WinTimer_PM.c **** *
 142:.\Generated_Source\PSoC5/ConsolePort_4_WinTimer_PM.c **** * Return:
 143:.\Generated_Source\PSoC5/ConsolePort_4_WinTimer_PM.c **** *  void
 144:.\Generated_Source\PSoC5/ConsolePort_4_WinTimer_PM.c **** *
 145:.\Generated_Source\PSoC5/ConsolePort_4_WinTimer_PM.c **** * Global variables:
 146:.\Generated_Source\PSoC5/ConsolePort_4_WinTimer_PM.c **** *  ConsolePort_4_WinTimer_backup.enableState:  Is used to restore the enable state of
 147:.\Generated_Source\PSoC5/ConsolePort_4_WinTimer_PM.c **** *  block on wakeup from sleep mode.
 148:.\Generated_Source\PSoC5/ConsolePort_4_WinTimer_PM.c **** *
 149:.\Generated_Source\PSoC5/ConsolePort_4_WinTimer_PM.c **** *******************************************************************************/
 150:.\Generated_Source\PSoC5/ConsolePort_4_WinTimer_PM.c **** void ConsolePort_4_WinTimer_Wakeup(void) 
 151:.\Generated_Source\PSoC5/ConsolePort_4_WinTimer_PM.c **** {
 430              		.loc 1 151 0
 431              		.cfi_startproc
 432              		@ args = 0, pretend = 0, frame = 0
 433              		@ frame_needed = 0, uses_anonymous_args = 0
 434 0000 10B5     		push	{r4, lr}
 435              		.cfi_def_cfa_offset 8
 436              		.cfi_offset 4, -8
 437              		.cfi_offset 14, -4
 438              	.LBB8:
 439              	.LBB9:
  81:.\Generated_Source\PSoC5/ConsolePort_4_WinTimer_PM.c ****         ConsolePort_4_WinTimer_STATUS_MASK =ConsolePort_4_WinTimer_backup.InterruptMaskValue;
 440              		.loc 1 81 0
 441 0002 094C     		ldr	r4, .L18
 442 0004 6088     		ldrh	r0, [r4, #2]
 443 0006 FFF7FEFF 		bl	ConsolePort_4_WinTimer_WriteCounter
 444              	.LVL7:
  82:.\Generated_Source\PSoC5/ConsolePort_4_WinTimer_PM.c ****         #if (ConsolePort_4_WinTimer_UsingHWCaptureCounter)
 445              		.loc 1 82 0
 446 000a 084B     		ldr	r3, .L18+4
 447 000c 2279     		ldrb	r2, [r4, #4]	@ zero_extendqisi2
  88:.\Generated_Source\PSoC5/ConsolePort_4_WinTimer_PM.c ****         #endif /* Restore the enable state of the Timer component */
 448              		.loc 1 88 0
 449 000e 6079     		ldrb	r0, [r4, #5]	@ zero_extendqisi2
  82:.\Generated_Source\PSoC5/ConsolePort_4_WinTimer_PM.c ****         #if (ConsolePort_4_WinTimer_UsingHWCaptureCounter)
 450              		.loc 1 82 0
ARM GAS  C:\Users\Thomas\AppData\Local\Temp\cc9Mh4pg.s 			page 27


 451 0010 1A70     		strb	r2, [r3]
  88:.\Generated_Source\PSoC5/ConsolePort_4_WinTimer_PM.c ****         #endif /* Restore the enable state of the Timer component */
 452              		.loc 1 88 0
 453 0012 FFF7FEFF 		bl	ConsolePort_4_WinTimer_WriteControlRegister
 454              	.LVL8:
 455              	.LBE9:
 456              	.LBE8:
 152:.\Generated_Source\PSoC5/ConsolePort_4_WinTimer_PM.c ****     ConsolePort_4_WinTimer_RestoreConfig();
 153:.\Generated_Source\PSoC5/ConsolePort_4_WinTimer_PM.c ****     #if(!ConsolePort_4_WinTimer_UDB_CONTROL_REG_REMOVED)
 154:.\Generated_Source\PSoC5/ConsolePort_4_WinTimer_PM.c ****         if(ConsolePort_4_WinTimer_backup.TimerEnableState == 1u)
 457              		.loc 1 154 0
 458 0016 2378     		ldrb	r3, [r4]	@ zero_extendqisi2
 459 0018 012B     		cmp	r3, #1
 460 001a 00D0     		beq	.L17
 461 001c 10BD     		pop	{r4, pc}
 462              	.L17:
 155:.\Generated_Source\PSoC5/ConsolePort_4_WinTimer_PM.c ****         {     /* Enable Timer's operation */
 156:.\Generated_Source\PSoC5/ConsolePort_4_WinTimer_PM.c ****                 ConsolePort_4_WinTimer_Enable();
 157:.\Generated_Source\PSoC5/ConsolePort_4_WinTimer_PM.c ****         } /* Do nothing if Timer was disabled before */
 158:.\Generated_Source\PSoC5/ConsolePort_4_WinTimer_PM.c ****     #endif /* Remove this code section if Control register is removed */
 159:.\Generated_Source\PSoC5/ConsolePort_4_WinTimer_PM.c **** }
 463              		.loc 1 159 0
 464 001e BDE81040 		pop	{r4, lr}
 465              		.cfi_restore 14
 466              		.cfi_restore 4
 467              		.cfi_def_cfa_offset 0
 156:.\Generated_Source\PSoC5/ConsolePort_4_WinTimer_PM.c ****         } /* Do nothing if Timer was disabled before */
 468              		.loc 1 156 0
 469 0022 FFF7FEBF 		b	ConsolePort_4_WinTimer_Enable
 470              	.LVL9:
 471              	.L19:
 472 0026 00BF     		.align	2
 473              	.L18:
 474 0028 00000000 		.word	.LANCHOR0
 475 002c 89650040 		.word	1073767817
 476              		.cfi_endproc
 477              	.LFE3:
 478              		.size	ConsolePort_4_WinTimer_Wakeup, .-ConsolePort_4_WinTimer_Wakeup
 479              		.bss
 480              		.align	2
 481              		.set	.LANCHOR0,. + 0
 482              		.type	ConsolePort_4_WinTimer_backup, %object
 483              		.size	ConsolePort_4_WinTimer_backup, 6
 484              	ConsolePort_4_WinTimer_backup:
 485 0000 00000000 		.space	6
 485      0000
 486 0006 0000     		.text
 487              	.Letext0:
 488              		.file 2 ".\\Generated_Source\\PSoC5\\cytypes.h"
 489              		.file 3 ".\\Generated_Source\\PSoC5\\ConsolePort_4_WinTimer.h"