ARM GAS  C:\Users\Thomas\AppData\Local\Temp\ccdc0T6P.s 			page 1


   1              		.syntax unified
   2              		.cpu cortex-m3
   3              		.fpu softvfp
   4              		.eabi_attribute 20, 1
   5              		.eabi_attribute 21, 1
   6              		.eabi_attribute 23, 3
   7              		.eabi_attribute 24, 1
   8              		.eabi_attribute 25, 1
   9              		.eabi_attribute 26, 1
  10              		.eabi_attribute 30, 2
  11              		.eabi_attribute 34, 1
  12              		.eabi_attribute 18, 4
  13              		.thumb
  14              		.file	"main.c"
  15              		.text
  16              	.Ltext0:
  17              		.section	.gnu.lto_.profile.c0d66b72,"",%progbits
  18 0000 789C6366 		.ascii	"x\234cf```c\200\000F\206&\266\351\314\000\003\355\001"
  18      60606063 
  18      80004686 
  18      26B6E9CC 
  18      0003ED01 
  19 0014 2D       		.ascii	"-"
  20              		.text
  21              		.section	.gnu.lto_.jmpfuncs.c0d66b72,"",%progbits
  22 0000 789C6366 		.ascii	"x\234cf\300\016\230\030!4\210bd\372\310\3048c\366\317"
  22      C00E9818 
  22      21348862 
  22      64FAC8C4 
  22      3863F6CF 
  23 0014 7DEC2F98 		.ascii	"}\354/\230~21\374gd`\\\316(\005\226\003\253\002\313"
  23      7E3231FC 
  23      6764605C 
  23      CE280596 
  23      03AB02CB 
  24 0028 3FD8DD3B 		.ascii	"?\330\335;\201\013,\317\315\300\270\002*\015\221Z\364"
  24      810B2CCF 
  24      CDC0B802 
  24      2A0D915A 
  24      F4
  25 0039 EDCC6988 		.ascii	"\355\314i\210\324'\240\326\225 9\250N\230\212#\037Z"
  25      D427A0D6 
  25      952039A8 
  25      4E988A23 
  25      1F5A
  26 004b 36F18055 		.ascii	"6\361\200U|\004\252X\005V\001\2268\376i\326\023f\260"
  26      7C04AA58 
  26      05560196 
  26      38FE69D6 
  26      1366B0
  27 005e C407A0C4 		.ascii	"\304\007\240\304j\210V\210\324\305Y\313\232\371AR\214"
  27      6A885688 
  27      D4C559CB 
  27      9AF94152 
  27      8C
  28 006f 40993560 		.ascii	"@\2315`\013\231PiL\021\030\315\0042\340\376\223\363"
  28      0B995069 
ARM GAS  C:\Users\Thomas\AppData\Local\Temp\ccdc0T6P.s 			page 2


  28      4C1118CD 
  28      0432E0FE 
  28      93F3
  29 0081 17394006 		.ascii	"\0279@\0060\001%\326\002\205QL\005\006\000\343:\220"
  29      300125D6 
  29      0285514C 
  29      050600E3 
  29      3A90
  30 0093 5A006E9D 		.ascii	"Z\000n\235<\314"
  30      3CCC
  31              		.text
  32              		.section	.gnu.lto_.inline.c0d66b72,"",%progbits
  33 0000 789C6366 		.ascii	"x\234cf\300\016X\031!4#\303\001\206\231\314W60220\315"
  33      C00E5819 
  33      213423C3 
  33      018699CC 
  33      57363032 
  34 0017 623DB0F5 		.ascii	"b=\260\365>7\003\013\003\023H\206\211\233\021(\313\304"
  34      3E37030B 
  34      03134886 
  34      899B1128 
  34      CBC4
  35 0029 CD04654E 		.ascii	"\315\004eN\360\203R\214\\@\275`\002I\0113\017\023\230"
  35      F083528C 
  35      5C40BD60 
  35      02490933 
  35      0F1398
  36 003c C9CC00E6 		.ascii	"\311\314\000\346C\231\010\245(\362, A\026(\013N\200"
  36      439908A5 
  36      28F22C20 
  36      4116280B 
  36      4E80
  37 004e A45971F0 		.ascii	"\244Yq\360\031\271\030\240\004\0237\310\321x\230$(e"
  37      19B918A0 
  37      041337C8 
  37      D1789824 
  37      2865
  38 0060 E66100FB 		.ascii	"\346a\000\373\025\000xZ\012\034"
  38      1500785A 
  38      0A1C
  39              		.text
  40              		.section	.gnu.lto_.pureconst.c0d66b72,"",%progbits
  41 0000 789C6366 		.ascii	"x\234cf```f\200\000F\006S\000\000\225\000="
  41      60606066 
  41      80004606 
  41      53000095 
  41      003D
  42              		.text
  43              		.section	.gnu.lto_main.c0d66b72,"",%progbits
  44 0000 789C9D7C 		.ascii	"x\234\235|w\\UG\366\370\314\274G\257\0264\261'\306\230"
  44      775C5547 
  44      F6F8CCBC 
  44      47AF1634 
  44      B127C698 
  45 0014 A2A2E93D 		.ascii	"\242\242\351=q7\335\315&\273\331\354f\263\311\246\357"
  45      7137DDCD 
  45      26BBD9EC 
ARM GAS  C:\Users\Thomas\AppData\Local\Temp\ccdc0T6P.s 			page 3


  45      66B3C9A6 
  45      EF
  46 0025 A67C936F 		.ascii	"\246|\223o\366\373\371}\377\370~w\263AA\354\015K\354"
  46      F6FBF97D 
  46      FFF87E77 
  46      B34141EC 
  46      0D4BEC
  47 0038 88BD6001 		.ascii	"\210\275`\001+X(\"(\"6,(E\024\260!R\005\002\312o\316"
  47      2B582822 
  47      2822362C 
  47      284514B0 
  47      21520502 
  48 004f 3973EF9B 		.ascii	"9s\357\233\367\270\327\357C>\276\363\356\2359}\346\314"
  48      F7B8D7EF 
  48      433EBEF3 
  48      EE9D397D 
  48      E6CC
  49 0061 9939F73E 		.ascii	"\2319\367>\035\254\343_\241/c\237\277\317X\244\274\346"
  49      1DACE35F 
  49      A12F639F 
  49      BFCF58A4 
  49      BCE6
  50 0073 3F302EA6 		.ascii	"?0.\246\34736\332_p']8\350b\244\223\373\3007\367\341"
  50      E73336DA 
  50      5F70275D 
  50      38E862A4 
  50      93FBC037 
  51 0089 BEF8EDCB 		.ascii	"\276\370\355\313\375\360\333O\370\217\037\314\242\002"
  51      FDF0DB4F 
  51      F88F1FCC 
  51      A202
  52 0097 430106FB 		.ascii	"C\001\006\373\213\000\355.@\004.y\012\356j\"\344]\240"
  52      8B00ED2E 
  52      40042E79 
  52      0AEE6A22 
  52      E45DA0
  53 00aa 08D2FA82 		.ascii	"\010\322\372\202D\260v\027\314\377\206\334*\231\370"
  53      44B07617 
  53      CCFF86DC 
  53      2A99F8
  54 00b9 CFFC5C26 		.ascii	"\317\374\\&\333C2\035\262\375:\243\216\221!<\224\364"
  54      DB43321D 
  54      B2FD3AA3 
  54      8E91213C 
  54      94F4
  55 00cb 09156148 		.ascii	"\011\025aH\027\201ta\"\\\273\013\027]P^\004\312\353"
  55      17817461 
  55      225CBB0B 
  55      175D505E 
  55      04CAEB
  56 00de 22BA16F4 		.ascii	"\"\272\026\364\200\273]O\312\273\256\242\233\206\331"
  56      80BB5D4F 
  56      CABBAEA2 
  56      9B86D9
  57 00ed 8D7F89F2 		.ascii	"\215\177\211\362*\230\370~r\016\310\353\036\343'\333"
  57      2A98F87E 
  57      720EC8EB 
ARM GAS  C:\Users\Thomas\AppData\Local\Temp\ccdc0T6P.s 			page 4


  57      1EE327DB 
  58 00fd AB19758C 		.ascii	"\253\031u\214\354\316#H^\204\350\201\\\356B.=DO\355"
  58      ECCE2348 
  58      5E84E881 
  58      5CEE422E 
  58      3D444FED 
  59 0111 AE27BF8B 		.ascii	"\256'\277\213\220\356\022w\203\272\201\337\241\356\301"
  59      90EE1277 
  59      83BA81DF 
  59      A1EEC1
  60 0120 D7183967 		.ascii	"\327\0309g\344\335\242\027\266\377\007\265W1r\336\310"
  60      E4DDA217 
  60      B6FF07B5 
  60      573172DE 
  60      C8
  61 0131 5E61DF2E 		.ascii	"^a\337.\360aQ\376\375\020\336\207\360\317\010?@\370"
  61      F06151FE 
  61      FD10DE87 
  61      F0CF083F 
  61      40F8
  62 0143 17841F22 		.ascii	"\027\204\037\"\374\010\341_\021~\214\360\023\204}\021"
  62      FC08E15F 
  62      117E8CF0 
  62      13847D11 
  63 0153 F641D81B 		.ascii	"\366A\330\033\341\247\010\2572\032\251\221\275\371\037"
  63      E1A708AF 
  63      321AA991 
  63      BDF91F
  64 0162 D1C63EFC 		.ascii	"\321\306>\374M\374\356\313G\342w?~/i\335\237\017\200"
  64      4DFCEECB 
  64      47E2773F 
  64      7E2F69DD 
  64      9F0F80
  65 0175 8B0CFF01 		.ascii	"\213\014\377\001\242\177k&8\341\236\331AR\315{\010!"
  65      A27F6B26 
  65      38E19ED9 
  65      4152CD7B 
  65      0821
  66 0187 C3FF5E31 		.ascii	"\303\377^10\361\020\264;\312A\375\201\204\317\357\343"
  66      30F110B4 
  66      3BCA41FD 
  66      8184CFEF 
  66      E3
  67 0198 8F138341 		.ascii	"\217\023\203A\374sl\270\300\304\327\344\305\373\321"
  67      FC736CB8 
  67      C0C4D7E4 
  67      C5FBD1
  68 01a7 8B971975 		.ascii	"\213\227\031u\214\274\237\017&\314\301\342+Bx\000\021"
  68      8CBC9F0F 
  68      26CCC1E2 
  68      2B427800 
  68      11
  69 01b8 2E31EA18 		.ascii	".1\352\030\371\000\177\204\020\036\344\017\221\314\207"
  69      F9007F84 
  69      101EE40F 
  69      91CC87
  70 01c7 C48384F9 		.ascii	"\304\203\204\3710b>\314\207P\373\0201\224t\034\206:"
ARM GAS  C:\Users\Thomas\AppData\Local\Temp\ccdc0T6P.s 			page 5


  70      30623ECC 
  70      8750FB10 
  70      3194741C 
  70      863A
  71 01d9 0E257C3E 		.ascii	"\016%|>\214GR\177\244\030Nt#\220n8\321\361\021$ \303"
  71      8C47527F 
  71      A4184E74 
  71      23906E38 
  71      D1F11124 
  72 01ef FF11F128 		.ascii	"\377\021\361(\365?\206\375\217\022\035\177\214l\311"
  72      F53F86FD 
  72      8F121D7F 
  72      8C6CC9
  73 01fe F07F5C0C 		.ascii	"\360\177\\\014\242\376'\260\377\011\376$)\366\244\370"
  73      A2FE27B0 
  73      FF09FE24 
  73      29F6A4F8 
  74 020e 3BB53F85 		.ascii	";\265?\205\355\027\031u\214|J<\215\363\311\201\363\351"
  74      ED171975 
  74      8C7C4A3C 
  74      8DF3C981 
  74      F3E9
  75 0220 69F14CD4 		.ascii	"i\361L\324\203p7}\220\274{\206;\210\370Y\376\034q\177"
  75      8370377D 
  75      90BC7B86 
  75      3B88F859 
  75      FE1C717F 
  76 0234 4E3C4B5C 		.ascii	"N<K\\\236G.\317\363\027\250\375\005\361\"Y\365\022Z"
  76      9E472ECF 
  76      F317A8FD 
  76      05F12259 
  76      F5125A
  77 0247 F522E1F3 		.ascii	"\365\"\341\363tFc\225\341\237\301\304\257\210\362\327"
  77      74466395 
  77      E19FC1C4 
  77      AF88F2D7 
  78 0257 4899C988 		.ascii	"H\231\311\210\224\357e\206\220,\306_!\344}L\274L\310"
  78      94EF6586 
  78      902CC65F 
  78      21E47D4C 
  78      BC4CC8
  79 026a AF227236 		.ascii	"\257\"r6\343\257QO\016\023\257\347=#;\336\310\352&;"
  79      E3AF514F 
  79      0E13AFE7 
  79      3D233BDE 
  79      C8EA263B 
  80 027e F62B127E 		.ascii	"\366+\022~\200\321\344\310\360\317eb\024\321\376\006"
  80      80D1E4C8 
  80      F0CF6562 
  80      14D1FE06 
  81 028e 690F2A5A 		.ascii	"i\017*Z\236g\012:\304\370o\0119\237\211\267\010\371"
  81      9E670A3A 
  81      C4F86F09 
  81      399F89B7 
  81      08F9
  82 02a0 6D443ECC 		.ascii	"mD>\314\370;\324s\204\211\337\221E\277G\213\216*\032"
  82      F83BD473 
ARM GAS  C:\Users\Thomas\AppData\Local\Temp\ccdc0T6P.s 			page 6


  82      8489DF91 
  82      45BF478B 
  82      8E2A1A
  83 02b3 7E8CF177 		.ascii	"~\214\361w\011\3458\023\177 \342\367\220\270@\021\363"
  83      09E53813 
  83      7F20E2F7 
  83      90B84011 
  83      F3
  84 02c4 138C666C 		.ascii	"\023\214fl\206\377I&\376D(\357#\312)E\314O\233\312\024"
  84      86FF4926 
  84      FE4428EF 
  84      23CA2945 
  84      CC4F9BCA 
  85 02d9 9A5767CC 		.ascii	"\232Wg\314\253\263\346U\221yUl^\225\230W\245\346\325"
  85      ABB3E655 
  85      9179556C 
  85      5E959857 
  85      A5E6D5
  86 02ec 39F3AA8C 		.ascii	"9\363\252\214\361/PD9\023\337\220\354\317P\366\025\325"
  86      F12F5044 
  86      3913DF90 
  86      ECCF50F6 
  86      15D5
  87 02fe 31F2BC89 		.ascii	"1\362\274\211\313\331O\302\341\364\361\365\363\017\010"
  87      CBD94FC2 
  87      E1F4F1F5 
  87      F30F08
  88 030d 0C0AAE64 		.ascii	"\014\012\256d\327YHhXx\227\256\335*X5\353\036\321\243"
  88      D7594868 
  88      587897AE 
  88      DD2A5835 
  88      EB1ED1A3 
  89 0321 E75DD7D8 		.ascii	"\347]\327\330\335U\254\327U\326\273O\337~\375\007\334"
  89      DD55ACD7 
  89      55D6BB4F 
  89      DF7EFD07 
  89      DC
  90 0332 73EFC0FB 		.ascii	"s\357\300\373\006]`\227\331\375\203/\261\007\036|\350"
  90      065D6097 
  90      D9FD832F 
  90      B1071E7C 
  90      E8
  91 0343 E1214387 		.ascii	"\341!C\207E\016\037\361\310\243\217=\376\304\223\027"
  91      450E1FF1 
  91      C8A38F3D 
  91      FEC49317 
  92 0353 D9534F3F 		.ascii	"\331SO?\363\354s\317\277\360b:\313`\231l/\313b\373X"
  92      F3EC73CF 
  92      BFF0623A 
  92      CB60996C 
  92      2FCB62FB 
  93 0368 36CB61FB 		.ascii	"6\313a\373\331\001\226\313\016\262<v\210\345\263\303"
  93      D90196CB 
  93      0EB23C76 
  93      88E5B3C3 
  94 0378 EC083BCA 		.ascii	"\354\010;\312\216\261\343\254\200\235`'\331)v\232\025"
  94      8EB1E3AC 
ARM GAS  C:\Users\Thomas\AppData\Local\Temp\ccdc0T6P.s 			page 7


  94      809D6027 
  94      D929769A 
  94      15
  95 0389 B233EC2C 		.ascii	"\2623\354,+b\305\254\204\225\262s\254\214\225\263+L"
  95      2B62C5AC 
  95      8495B273 
  95      AC8C95B3 
  95      2B4C
  96 039b 2AFA531F 		.ascii	"*\372S\037'-\357\225j\231\257P\337\345\352\373\244\372"
  96      272DEF95 
  96      6A99AF50 
  96      DFE5EAFB 
  96      A4FA
  97 03ad 3E2E2D6E 		.ascii	">.-n\227\177~xw\004\026v\370'\377\362\335zr\025\276"
  97      977F7E78 
  97      77041676 
  97      F827FFF2 
  97      DD7A7215 
  98 03c2 740C77C0 		.ascii	"t\014w\300?\371\267\317\015#Ca\274\340b\361\234\336"
  98      3FF9B7CF 
  98      0D234361 
  98      BCE062F1 
  98      9CDE
  99 03d4 FFB87EF3 		.ascii	"\377\270~\363$\341^P4\203\351\353\021\372\212\3241\207"
  99      24E15E50 
  99      3483E9EB 
  99      11FA8AD4 
  99      3187
 100 03e6 B8D83DA4 		.ascii	"\270\330=\244\267\337\313xT8~\344\337\000\027\022\365"
 100      B7DFCB78 
 100      54387EE4 
 100      DF001712 
 100      F5
 101 03f7 325FFAF2 		.ascii	"2_\372\362\241\257\313\242V\360\224\015\015\207\202"
 101      A1AFCBA2 
 101      56F0940D 
 101      0D8782
 102 0406 2E891621 		.ascii	".\211\026!\321\345mj\334\376\271\276p\313\235p\333\272"
 102      D1E56D6A 
 102      DCFEB9BE 
 102      70CB9D70 
 102      DBBA
 103 0418 A2E6B2EF 		.ascii	"\242\346\262\357\340\025QQQ5\307VU\274\223\356l\021"
 103      E0155151 
 103      5135C756 
 103      55BC93EE 
 103      6C11
 104 042a 82D50BC6 		.ascii	"\202\325\013\306W\361^|5\357\005\351q\015\037\014\250"
 104      57F15E7C 
 104      35EF05E9 
 104      710D1F0C 
 104      A8
 105 043b 17D236FD 		.ascii	"\027\3226\375\022\344\010\346p=\255\346\350\224\000"
 105      12E408E6 
 105      703DADE6 
 105      E89400
 106 044a 641A856C 		.ascii	"d\032\205l\222\227\255\330\206\367\374%\270\215o\210"
ARM GAS  C:\Users\Thomas\AppData\Local\Temp\ccdc0T6P.s 			page 8


 106      9297ADD8 
 106      86F7FC25 
 106      B88D6F88 
 107 045a 3FEC1898 		.ascii	"?\354\030\230\020\225\036u.m\2333=fI\324\255\366v\336"
 107      10951E75 
 107      2E6D9B33 
 107      3D6649D4 
 107      ADF676DE 
 108 046e 221C7C2D 		.ascii	"\"\034|-w\000\367u\222{\"r\207?I\321\374\313\345\204"
 108      7700F775 
 108      927B2272 
 108      873F49D1 
 108      FCCBE584 
 109 0482 30473764 		.ascii	"0G7d^4z\347M\247\244\216\032\263d\377\206\250\227F\033"
 109      5E347AE7 
 109      4DA7A48E 
 109      1AB364FF 
 109      86A89746 
 110 0497 D44EBE81 		.ascii	"\324N\276\201\250\207\364\342\017j\264uc\327\\\016r"
 110      A887F4E2 
 110      0F6AB475 
 110      63D75C0E 
 110      72
 111 04a8 F444DA83 		.ascii	"\364D\332\203\347\233\353\203Q\261p\270\235\177\252"
 111      E79BEB83 
 111      51B170B8 
 111      9D7FAA
 112 04b7 A2C1817A 		.ascii	"\242\301\201z\011\270]\236u\366]d|\356\300\216O\322"
 112      09B85D9E 
 112      75F65D64 
 112      7CEEC08E 
 112      4FD2
 113 04c9 C7188C7D 		.ascii	"\307\030\214}\370&b\234$\325J\326\325j\030\267\361\254"
 113      F826629C 
 113      24D54AD6 
 113      D56A18B7 
 113      F1AC
 114 04db 9FA337B2 		.ascii	"\237\2437\262n-Y\276#\000\250\243\316\345&\177\3412"
 114      6E2D59BE 
 114      2300A8A3 
 114      CEE5267F 
 114      E132
 115 04ed 4AF02D44 		.ascii	"J\360-D\355r\231\242>x\364D\205\257\243/R'\257?{3\024"
 115      ED7299A2 
 115      3E78F444 
 115      85AFA32F 
 115      5227AF3F 
 116 0504 A9D35727 		.ascii	"\251\323W'G\275\244Qo\263\241.\232w\256\331\351\350"
 116      47BDA451 
 116      6FB3A12E 
 116      9A77AED9 
 116      E9E8
 117 0516 8FD473B3 		.ascii	"\217\324s\263\023\027\222\354\364\215\356\324;l\250"
 117      131792EC 
 117      F48DEED4 
 117      3B6CA8
 118 0525 9B574FD8 		.ascii	"\233WO\330-\034\367 u\376\361Y\2738Q\357q\247N\265\241"
ARM GAS  C:\Users\Thomas\AppData\Local\Temp\ccdc0T6P.s 			page 9


 118      2D1CF720 
 118      75FEF159 
 118      BB3851EF 
 118      71A74EB5 
 119 053a DE9F32BB 		.ascii	"\336\2372\273\321\3171\020\251\363\216\024\217\015\""
 119      D1CF3110 
 119      A9F38E14 
 119      8F0D22
 120 0549 EA43EED4 		.ascii	"\352C\356\324\273l\250kcn\236\012\362\215\221\024\341"
 120      BB6CA86B 
 120      636E9E0A 
 120      F28D9114 
 120      E1
 121 055a 7C3D1FC8 		.ascii	"|=\037\3107\312\317f\371\331*?\333\345'E~v\312\317n"
 121      37CACF66 
 121      F9D92A3F 
 121      DBE52745 
 121      7E76CACF 
 122 056f 3E10E69A 		.ascii	">\020\346\232\234b{\344\306\2121\377\377\013{c\327\364"
 122      9C627BE4 
 122      C68A31FF 
 122      FF0B7B63 
 122      D7F4
 123 0581 A8F6F6CD 		.ascii	"\250\366\366\315\361\031\323{4\012\316\000M t t\"\364"
 123      F119D37B 
 123      340ACE00 
 123      4D207420 
 123      7422F4
 124 0594 6140EA8B 		.ascii	"a@\352\213\320\017\241?\302\000\204\201\014\230\006"
 124      D00FA13F 
 124      C2008481 
 124      0C9806
 125 05a3 210C4618 		.ascii	"!\014F\030\2020\024a\030\003q2\300\244\300.\010\273"
 125      82301461 
 125      18037132 
 125      C0A4C02E 
 125      08BB
 126 05b5 3210DC0D 		.ascii	"2\020\334\015aw\204\021\010\207\241\254H\3449\034iG"
 126      61778411 
 126      0887A1AC 
 126      48E4391C 
 126      6947
 127 05c7 20FECB4C 		.ascii	" \376\313Lz\346\025\000\257\002x\015\300\353\000\336"
 127      7AE61500 
 127      AF02780D 
 127      C0EB00DE 
 128 05d7 00F02680 		.ascii	"\000\360&\200QH\364\226\274\364}\033\300\273\000\336"
 128      5148F496 
 128      BCF47D1B 
 128      C0BB00DE 
 129 05e7 03F03E80 		.ascii	"\003\360>\200\017\000|(\201\337G\200\3751\003\217|\202"
 129      0F007C28 
 129      81DF4780 
 129      FD31038F 
 129      7C82
 130 05f9 223E85AE 		.ascii	"\">\205\256\317\240\365\013\270\372\022\256\376\016"
 130      CFA0F50B 
ARM GAS  C:\Users\Thomas\AppData\Local\Temp\ccdc0T6P.s 			page 10


 130      B8FA12AE 
 130      FE0E
 131 0607 575FC1D5 		.ascii	"W_\301\3257p\365-\\}\007W\337\303\325\017p\365\017\270"
 131      3770F52D 
 131      5C7D0757 
 131      DFC3D50F 
 131      70F50FB8 
 132 061b FA5F00FF 		.ascii	"\372_\000\377\004\360/\000?\002\3707\200\237\000\214"
 132      04F02F00 
 132      3F02F837 
 132      809F008C 
 133 062b E6801883 		.ascii	"\346\200\030\2030\026\240\3378\200b\002Gk'\342\315$"
 133      3016A0DF 
 133      38806202 
 133      476B27E2 
 133      CD24
 134 063d 8E5A4CC6 		.ascii	"\216ZL\306\233)\034\315\230\2127\323\220d:^\317@\030"
 134      9B291CCD 
 134      988A37D3 
 134      90643A5E 
 134      CF4018
 135 0650 877026C2 		.ascii	"\207p&\302Y\010g#\234\203\360g\204s\021\316C\241\363"
 135      59086723 
 135      9C83F067 
 135      847311CE 
 135      43A1F3
 136 0663 91C3021A 		.ascii	"\221\303\002\032\324\205\304{\021\366/F\030\2170\201"
 136      D485C47B 
 136      11F62F46 
 136      188F3081 
 137 0673 D459CAD1 		.ascii	"\324Y\312\321\327\313\260m9\302\025\010W!\\\215p\015"
 137      D7CBB06D 
 137      39C21508 
 137      57215C8D 
 137      700D
 138 0685 C2750813 		.ascii	"\302u\010\023\021\256G\270\001\341F\204\233\310\242"
 138      11AE47B8 
 138      01E14684 
 138      9BC8A2
 139 0694 248EE3BE 		.ascii	"$\216\343\276\0255\331\216\232\244 \334\211p7\3024\204"
 139      1535D98E 
 139      9AA420DC 
 139      897037C2 
 139      3484
 140 06a6 19087391 		.ascii	"\031\010s\221\372 \302\303Hu\002\341Il9\205\3604\266"
 140      FA20C2C3 
 140      487502E1 
 140      496C3985 
 140      F034B6
 141 06b9 14E2F519 		.ascii	"\024\342\365\031\204E\330R\214\034J\020\226b\3139\274"
 141      8445D852 
 141      8C1C4A10 
 141      9662CB39 
 141      BC
 142 06ca 2E437811 		.ascii	".Cx\021[.!\376e\204W\260\345*^W!\254\306\226\353\210"
 142      5B2E21FE 
 142      658457B0 
ARM GAS  C:\Users\Thomas\AppData\Local\Temp\ccdc0T6P.s 			page 11


 142      E52A5E57 
 142      21ACC696 
 143 06e0 5F83B016 		.ascii	"_\203\260\026[\352\360\272\036\341\015\304lF\330\212"
 143      5BEAF0BA 
 143      1EE10DC4 
 143      6C46D88A 
 144 06f0 B00DDB6F 		.ascii	"\260\015\333o\342\365-\204\355\010\243\004N\000\204"
 144      E2F52D84 
 144      ED08A304 
 144      4E0084
 145 06ff 63104623 		.ascii	"c\020F#\214A8\026a,@\337q\000\375\306S\310M\0208F\023"
 145      8C413816 
 145      612C40DF 
 145      7100FDC6 
 145      53C84D10 
 146 0716 B17F12C2 		.ascii	"\261\177\022\302\311\010\247\012\034\243i\002\307h:"
 146      C908A70A 
 146      1CA36902 
 146      C7683A
 147 0725 B6CD4018 		.ascii	"\266\315@\030\207p\026\302\331\010\347 \234\213p\036"
 147      877016C2 
 147      D908E720 
 147      9C8B701E 
 148 0735 C2F90817 		.ascii	"\302\371\010\027 \\\210p\221\3001\212'~K\260-\201\332"
 148      205C8870 
 148      91C0318A 
 148      277E4BB0 
 148      2D81DA
 149 0748 96E2CD32 		.ascii	"\226\342\3152Tk9^\257@\270\022\341*\204\253Q\3655\210"
 149      546B395E 
 149      AF40B812 
 149      E12A84AB 
 149      51F53588 
 150 075c B396545F 		.ascii	"\263\226T_G\252'b\377z\204\033I\351Mx\223\2040\031\341"
 150      47AA2762 
 150      FF7A841B 
 150      49E94D78 
 150      93843019 
 151 0771 16845B11 		.ascii	"\026\204[\021nC\270\235d\247\020E*\261\334\211]\273"
 151      6E43B89D 
 151      64A71045 
 151      2AB1DC89 
 151      5DBB
 152 0783 A86D37DE 		.ascii	"\250m7\336\354A\221ix\235\2160\003a&\302\275\250V\026"
 152      EC419169 
 152      789D8E30 
 152      036126C2 
 152      BDA85616 
 153 0797 E2EC231E 		.ascii	"\342\354#\036\331\244V\016\366\037 V\271xs\020a\036"
 153      D9A4560E 
 153      F61F2056 
 153      B9787310 
 153      611E
 154 07a9 C27C8487 		.ascii	"\302|\204\207\021\036Ax\224\024*!\362RbVF\215\347\251"
 154      111E4178 
 154      94142A21 
 154      F2526256 
ARM GAS  C:\Users\Thomas\AppData\Local\Temp\ccdc0T6P.s 			page 12


 154      468DE7A9 
 155 07bd F1022296 		.ascii	"\361\002\"\226#\254@X\211\360\"\302K\204t\005U\252B"
 155      23AC4058 
 155      89F022C2 
 155      4B847405 
 155      55AA42
 156 07d0 5843E2EB 		.ascii	"XC\342\353\210Y=!\310}\024\254\326\254B\356\021\230"
 156      88593D21 
 156      C87D14AC 
 156      D6AC42EE 
 156      1198
 157 07e2 E3241F93 		.ascii	"\343$\037\223>\363\037\270tK\024\271\354\227\226\037"
 157      3EF31FB8 
 157      744B14B9 
 157      EC97961F 
 158 07f2 3EEA0FC9 		.ascii	">\352\017\311Vn?x\232L\010\2001\373K\304\200\305| \266"
 158      566E3F78 
 158      9A4C0880 
 158      31FB4BC4 
 158      80C57C20 
 159 0807 44FD0E1B 		.ascii	"D\375\016\033\266\273\032>\306\206\024W\303\217\330"
 159      B6BB1A3E 
 159      C6861457 
 159      C38FD8
 160 0816 B0D3D5B0 		.ascii	"\260\323\325\260\200c\313nj9\313\243\366\316\213\200"
 160      8063CB6E 
 160      6A39CBA3 
 160      F6CE8B80 
 161 0826 16506610 		.ascii	"\026Pf\020+\342c\323\027#\006$\237\305\307\247n\020"
 161      2BE263D3 
 161      17230624 
 161      9FC5C7A7 
 161      6E10
 162 0838 3FB6468D 		.ascii	"?\266F\215\217\362o\021\376\3652M\310\203\005\377\221"
 162      8FF26F11 
 162      FEF5324D 
 162      C88305FF 
 162      91
 163 0849 E90ACA5D 		.ascii	"\351\012\312]\"\317\340\275d\323\321\371+\243\303\260"
 163      22CFE0BD 
 163      64D3D1F9 
 163      2BA3C3B0 
 164 0859 492E0199 		.ascii	"I.\001\231\274W\213\010\220\374\242\323\267Y\363\013"
 164      BC578B08 
 164      90FCA2D3 
 164      B759F30B 
 165 0869 AC07D3F9 		.ascii	"\254\007\323\371^\016\313g\220\304\214I\337a\215\031"
 165      5E0ECB67 
 165      90C48C49 
 165      DF618D19 
 166 0879 5C2FE46E 		.ascii	"\\/\344n\221g\221dS\214\217\024\263\017\304\204\240"
 166      91679164 
 166      538C8F14 
 166      B30FC484 
 166      A0
 167 088a 98545B31 		.ascii	"\230T[1\240b\266&f\227\255\030\360v\216\304\324\371"
 167      A062B626 
ARM GAS  C:\Users\Thomas\AppData\Local\Temp\ccdc0T6P.s 			page 13


 167      6697AD18 
 167      F0768EC4 
 167      D4F9
 168 089c EEB1E52B 		.ascii	"\356\261\345+}\306\367k|\217\330\362\365\203\203\222"
 168      7DC6F76B 
 168      7C8FD8F2 
 168      F5838392 
 169 08ac 07DF025B 		.ascii	"\007\337\002[\276\376\022;\327\344\033\235~\322\026"
 169      BEFE123B 
 169      D7E41B9D 
 169      7ED216
 170 08bb 3340621E 		.ascii	"3@b\036\3240\317\330b\006\3029L\323\265\310V\327 \211"
 170      D430CFD8 
 170      6206C239 
 170      4CD3B5C8 
 170      56D72089 
 171 08cf 79C843D7 		.ascii	"y\310C\327\022[\276\301\022;_\343[c\3137Db\036\366\340"
 171      125BBEC1 
 171      123B5FE3 
 171      5B63CB37 
 171      44621EF6 
 172 08e4 5B67CB37 		.ascii	"[g\3137Tb\037\321\3706\330\362\015\223\230G=\3706\333"
 172      54621FD1 
 172      F836D8F2 
 172      0D939847 
 172      3DF836DB 
 173 08f8 F20D8783 		.ascii	"\362\015\207\203\244\346\261_l1\273H\314\343\012\023"
 173      A4E6B15F 
 173      6C31BB48 
 173      CCE30A13 
 174 0908 E2D4C184 		.ascii	"\342\324\301\204\3434\037\035\316\032T\340:\031\004"
 174      E3341F1D 
 174      CE1A54E0 
 174      3A1904
 175 0917 44859C34 		.ascii	"D\205\2344\202\253\016\216\035\276l8v\370\261\315\376"
 175      82AB0E8E 
 175      1DBE6C38 
 175      76F8B1CD 
 175      FE
 176 0928 FC0CCF8C 		.ascii	"\374\014\317\214\253\315\312p\200\230&\361\262\247\240"
 176      ABCDCA70 
 176      809826F1 
 176      B2A7A0
 177 0937 D09B1005 		.ascii	"\320\233\020\005z@\205\342\355\371\250\225-~\213\370"
 177      7A4085E2 
 177      EDF9A895 
 177      2D7E8BF8 
 178 0947 82D151A3 		.ascii	"\202\321Q\243%V\030/\340?\362\023\2601\344'\271\314"
 178      2556182F 
 178      E03FF213 
 178      B031E427 
 178      B9CC
 179 0959 E527784C 		.ascii	"\345'xLa\364\367\212'\0042\251\344\317\3469\035RbjB"
 179      61F4F78A 
 179      270432A9 
 179      E4CFE639 
 179      1D52626A 
ARM GAS  C:\Users\Thomas\AppData\Local\Temp\ccdc0T6P.s 			page 14


 180 096e 7FEABB20 		.ascii	"\177\352\273 <\005\206\337\204`\322\005\206[\010\354"
 180      3C0586DF 
 180      8460D205 
 180      865B08EC 
 181 097e C24F4981 		.ascii	"\302OI\201\247A lz\363f\374*r}T\014\007M\012\245|%Q"
 181      A741206C 
 181      7AF366FC 
 181      2A727D54 
 181      0C074D0A 
 182 0996 1A1709AA 		.ascii	"\032\027\011\252\234\216N\346\206<\2272\001l\212@ej"
 182      9C8E4EE6 
 182      863C9732 
 182      016C8A40 
 182      656A
 183 09a8 F7950551 		.ascii	"\367\225\005Qw\271\225:NK\371g\355\344\027i\362\213"
 183      77B9953A 
 183      4E4BF967 
 183      EDE41769 
 183      F28B
 184 09ba A57C9050 		.ascii	"\245|\220P\366\002\361\257\260\342\357c\311\277\304"
 184      F602F1AF 
 184      B0E2EF63 
 184      C9BFC4
 185 09c9 8E7FA9C6 		.ascii	"\216\177\251\306\377\034\362\217\236\025[\340K\002*"
 185      FF1CF28F 
 185      9E155BE0 
 185      4B022A
 186 09d8 05180182 		.ascii	"\005\030\001\202d\373\230_b\213\234\324~Q@\037\3406"
 186      64FB985F 
 186      628B9CD4 
 186      7E51401F 
 186      E036
 187 09ea C7962B5F 		.ascii	"\307\226+_\\\022\320.\331_nXX\350\007\236\026\355rS"
 187      5C12D02E 
 187      D95F6E58 
 187      58E8079E 
 187      16ED7253 
 188 09fe 5C86ABB9 		.ascii	"\\\206\253\2710\226r\300\243\341\334<\331\327 D$\362"
 188      309672C0 
 188      A3E1DC3C 
 188      D9D72044 
 188      24F2
 189 0a10 6220CBE0 		.ascii	"b \313\340\016\331\237\037\275R\030\335p\374\252_\236"
 189      0ED99F1F 
 189      BD5218DD 
 189      70FCAA5F 
 189      9E
 190 0a21 88A74431 		.ascii	"\210\247D1\222\361\363&v\220<\300;`^/\312\356K\330W"
 190      92F1F326 
 190      76903CC0 
 190      3B605E2F 
 190      CAEE4BD8 
 191 0a36 3AB8A46B 		.ascii	":\270\244k\275\350\012%7\234\333\335H\2661~\210=z\345"
 191      BDE80A25 
 191      379CDBDD 
 191      48B6317E 
 191      883D7AE5 
ARM GAS  C:\Users\Thomas\AppData\Local\Temp\ccdc0T6P.s 			page 15


 192 0a4a CEC9A82F 		.ascii	"\316\311\250/,p\345&\357`5\255\377\006\323\032d$\305"
 192      2C70E526 
 192      EF6035AD 
 192      FF06D31A 
 192      6424C5
 193 0a5d 0E22AA2A 		.ascii	"\016\"\252*+\031\335\2408\352\222q:\272\232\033\330"
 193      2B19DDA0 
 193      38EA9271 
 193      3ABA9A1B 
 193      D8
 194 0a6e 26D372F1 		.ascii	"&\323r\361\237l\214?\257\220a;\334\001a\2769\273\207"
 194      9F6C8C3F 
 194      AF90613B 
 194      DC0161BE 
 194      39BB87
 195 0a81 653C76AF 		.ascii	"e<v\257\027\335\241\270K) \247n~9\036E#\344\226\215"
 195      17DDA1B8 
 195      4B2920A7 
 195      6E7E391E 
 195      4523E496 
 196 0a96 5F84B8EF 		.ascii	"_\204\270\357\001\363\240f\323\241\321\001@o;\351=g"
 196      01F3A066 
 196      D3A1D101 
 196      406F3BE9 
 196      3D67
 197 0aa8 C1258B59 		.ascii	"\301%\213Y0:\3759\230\007\227\265yp\205G\362\373z\241"
 197      303AFD39 
 197      980797B5 
 197      79708547 
 197      F2FB7AA1 
 198 0abc 1742A5F5 		.ascii	"\027B\245\365\016\014\352\303FP\277b\033\324\236Q|\325"
 198      0E0CEAC3 
 198      4650BF62 
 198      1BD49E51 
 198      7CD5
 199 0ace 8CE22ACF 		.ascii	"\214\342*\317(~\305\0258a\236Q\374\252\327\366\\\263"
 199      287EC515 
 199      38619E51 
 199      FCAAD7F6 
 199      5CB3
 200 0ae0 9BD5D560 		.ascii	"\233\325\325`\315}d\315u\317\250}\325%;\334\014\332"
 200      CD7D64CD 
 200      75CFA87D 
 200      D5253BDC 
 200      0CDA
 201 0af2 821921D4 		.ascii	"\202\031!\324\373\232\3271[c'\275V\223^\247b6!KI\177"
 201      FB9AD731 
 201      5B6327BD 
 201      56935EA7 
 201      6236214B 
 202 0b08 DDEB98AD 		.ascii	"\335\353\230\255\267\343\337\240\361o4b\266J\205\323"
 202      B7E3DFA0 
 202      F16F3462 
 202      B64A85D3 
 203 0b18 1BD20429 		.ascii	"\033\322\004)\205\002\266A\005\354\233\262\235\302\265"
 203      8502B641 
 203      05EC9BB2 
ARM GAS  C:\Users\Thomas\AppData\Local\Temp\ccdc0T6P.s 			page 16


 203      9DC2B5
 204 0b27 4DA9314A 		.ascii	"M\2511J6v\014\316Q4H\353\246(f\243\264\320\354\322!"
 204      36760CCE 
 204      513448EB 
 204      A62866A3 
 204      B4D0ECD2 
 205 0b3c 344769A1 		.ascii	"4Gi\241\330\225=\205\221XhD\342[6\201x\303*\020\337"
 205      D8953D85 
 205      91586844 
 205      E25B3681 
 205      78C32A10 
 206 0b51 D202AF1B 		.ascii	"\322\002\257\033\353\203\201\367%\333!0\360\212\215"
 206      EB8381F7 
 206      25DB2130 
 206      F08A8D
 207 0b60 C07BDB26 		.ascii	"\300{\333&\356\232\254\342\356m-\354\276g\013\205\014"
 207      EE9AACE2 
 207      EE6D2DEC 
 207      BE670B85 
 207      0C
 208 0b71 BBEEAC0F 		.ascii	"\273\356\254\017\206]\351\355\303\256\231\302.\253&"
 208      865DE9ED 
 208      C3AE99C2 
 208      2EAB26
 209 0b80 26190B42 		.ascii	"&\031\013B\021\362\214\304[\264\260+\352d\330\375b\037"
 209      11F28CC4 
 209      5BB4B02B 
 209      EA64D8FD 
 209      621F
 210 0b92 76ADDA50 		.ascii	"v\255\332P\266\271\302.\002\302\016lo\315\216 s\336"
 210      B6B9C22E 
 210      02C20E6C 
 210      6FCD8E20 
 210      73DE
 211 0ba4 B5B03D42 		.ascii	"\265\260=B\022\335\324\335\371_\012W\363f\017\351E\344"
 211      12DDD4DD 
 211      F95F0A57 
 211      F3660FE9 
 211      45E4
 212 0bb6 D49EDD93 		.ascii	"\324\236\335\223z\337\263\031\230[:\247\245\312\213"
 212      7ADFB319 
 212      985B3AA7 
 212      A5CA8B
 213 0bc5 EF69AC7A 		.ascii	"\357i\254z\2623\264\332\316\314\351n\351?\311\250\007"
 213      B233B4DA 
 213      CECCE96E 
 213      E93FC9A8 
 213      07
 214 0bd6 94381523 		.ascii	"\2248\025#\240\271\3130dA\2162\344}\033\361Q\242\243"
 214      A0B9CB30 
 214      64418E32 
 214      E47D1BF1 
 214      51A2A3
 215 0be9 21EF6B63 		.ascii	"!\357kc\370\035-\235w\343\322\031\235\036\237\243\314"
 215      F81D2D9D 
 215      77E3D219 
 215      9D1E9FA3 
ARM GAS  C:\Users\Thomas\AppData\Local\Temp\ccdc0T6P.s 			page 17


 215      CC
 216 0bfa F9C0825F 		.ascii	"\371\300\202_O\311o\264\2600\347\003\215\341\177\260"
 216      4FC96FB4 
 216      B030E703 
 216      8DE17FB0 
 217 0c0a 61925F2F 		.ascii	"a\222_/&pNl\315\351C(\037z\362\353Y/\255`|\214\300Y"
 217      26704E6C 
 217      CDE94328 
 217      1F7AF2EB 
 217      592FAD60 
 218 0c22 B1BDA655 		.ascii	"\261\275\246Ur\376g\213\270\013KN\340\006\036-~l\221"
 218      72FE678B 
 218      B80B4B4E 
 218      E0061E2D 
 218      7E6C91
 219 0c35 8AC9882B 		.ascii	"\212\311\210+\031\327\246b\343#\311\011fK\034\267\232"
 219      19D7A662 
 219      E323C909 
 219      664B1CB7 
 219      9A
 220 0c46 2A72C9F4 		.ascii	"*r\311\364\265\\2c\204\261d\216\025\213\270d\003\\S"
 220      B55C3263 
 220      84B1648E 
 220      158BB864 
 220      035C53
 221 0c59 6BAF1DF5 		.ascii	"k\257\035\365!\266\037K\232\015c6_u\3129\024\025\225"
 221      21B61F4B 
 221      9A0D6336 
 221      5F75CA39 
 221      141595
 222 0c6c FE3C1C3F 		.ascii	"\376<\034?\326\323\341\006\246P\254\210\304c\317_0\244"
 222      D6D3E106 
 222      A650AC88 
 222      C463CF5F 
 222      30A4
 223 0c7e 3742487F 		.ascii	"7BH\177\314\012\371\352\250\035M\373\205\213\303\261"
 223      CC0AF9EA 
 223      A81D4DFB 
 223      858BC3B1 
 224 0c8e B6B6D57C 		.ascii	"\266\266\325|\032\2372:\006\224\221\244\015\260gg|\234"
 224      1A9F323A 
 224      069491A4 
 224      0DB06767 
 224      7C9C
 225 0ca0 98C665F7 		.ascii	"\230\306e\367\204\344\035\213\203\251\373\\\351\262"
 225      84E41D8B 
 225      83A9FB5C 
 225      E9B2
 226 0cae 20890167 		.ascii	" \211\001g\036\211\344\017H\343\011\251:.\356X !-\231"
 226      1E89E40F 
 226      48E309A9 
 226      3A2EEE58 
 226      20212D99 
 227 0cc2 EA033899 		.ascii	"\352\0038\231\210\023\0008\023\010\347@\361\265\"'\236"
 227      88130038 
 227      1308E740 
 227      F1B52227 
ARM GAS  C:\Users\Thomas\AppData\Local\Temp\ccdc0T6P.s 			page 18


 227      9E
 228 0cd3 91966041 		.ascii	"\221\226`A\260\241\2654G1^2?\000h&\012\240\011\004\232"
 228      B0A1B534 
 228      47315E32 
 228      3F006826 
 228      0AA00904 
 229 0ce8 4944D3BC 		.ascii	"ID\323\274g|r\010\322$ Mc\342\345<_E\023\2174\223\221"
 229      677C7208 
 229      D224204D 
 229      63E2E53C 
 229      5F45138F 
 230 0cff 06B6A97C 		.ascii	"\006\266\251|\012\3214\305\317}\003I\226\"Iu\356\236"
 230      0AD134C5 
 230      CF7D0349 
 230      96224975 
 230      EE9E
 231 0d11 8D3E8A24 		.ascii	"\215>\212$\021I\246\"I0\220L#\222\203{\247O\300\035"
 231      1149A622 
 231      4930904C 
 231      2392837B 
 231      A74FC01D 
 232 0d25 857319D2 		.ascii	"\205s\031\322$\236(9\020\252hR\220f:\322\204\000\315"
 232      249E2839 
 232      10AA6852 
 232      90663AD2 
 232      8400CD
 233 0d38 0CA24959 		.ascii	"\014\242IYT\266\002w\012\316MHS\320\326\370\205\"\331"
 233      54B60277 
 233      0ACE4D48 
 233      53D0D6F8 
 233      8522D9
 234 0d4b 8F247148 		.ascii	"\217$qH\022\012$3\211\244\375\310\364\015>H\222\204"
 234      120A2433 
 234      89A4FDC8 
 234      F40D3E48 
 234      9284
 235 0d5d 24A9F32B 		.ascii	"$\251\363+\252\003\024\315!\244\231\2054a@3\233h\306"
 235      AA0314CD 
 235      21A49985 
 235      34614033 
 235      9B68C6
 236 0d70 27D46792 		.ascii	"'\324g\222\327\222\221&m\336\211b\247\2429\2034s\220"
 236      D7929126 
 236      6DDE8962 
 236      A7A23983 
 236      347390
 237 0d83 062AF9FC 		.ascii	"\006*\371\374g\242)\216\275\260\230T\333\2144\007\326"
 237      67A2298E 
 237      BDB09854 
 237      DB8C3407 
 237      D6
 238 0d94 1FC90953 		.ascii	"\037\311\011S4\245H3\027i\272\000\315<\2421\367\025"
 238      34A54833 
 238      1769BA00 
 238      CD3CA231 
 238      F715
 239 0da6 CE1AA469 		.ascii	"\316\032\244i\276\226p\301p\333\"?\240\231\2174]\201"
ARM GAS  C:\Users\Thomas\AppData\Local\Temp\ccdc0T6P.s 			page 19


 239      BE9670C1 
 239      70DB223F 
 239      A0998F34 
 239      5D81
 240 0db8 6601D198 		.ascii	"f\001\321\230\213\242\263\026i\226^\334\360\204\341"
 240      8BA2B316 
 240      69965EDC 
 240      F084E1
 241 0dc7 02245988 		.ascii	"\002$Y\210$\020\374|\021\221,\275\221w0\020I\352\220"
 241      2410FC7C 
 241      11912CBD 
 241      91773010 
 241      49EA90
 242 0dda 645FD298 		.ascii	"d_\322\230zC\265\253H\263\030i\272\003M<\321\314]\320"
 242      7A43B5AB 
 242      48B31869 
 242      BA034D3C 
 242      D1CC5DD0 
 243 0dee B287CC69 		.ascii	"\262\207\314iG\232Syy\023\202\024M5\232\263\004i\"\200"
 243      479A5379 
 243      79138214 
 243      4D359AB3 
 243      04692280 
 244 0e02 26018A88 		.ascii	"&\001\212\210\260\330|\013\017\274\350h\342\207\015"
 244      B0D87C0B 
 244      0FBCE868 
 244      E2870D
 245 0e11 BD19330E 		.ascii	"\275\0313\0161\222{%\037.\327\327^U7\333\270\354\353"
 245      31927B25 
 245      1F2ED7D7 
 245      5E5537DB 
 245      B8ECEB
 246 0e24 E3EAEB06 		.ascii	"\343\352\353\006}\237@\337\226\377\221=}]=]\241g\022"
 246      7D9F40DF 
 246      96FF913D 
 246      7D5D3D5D 
 246      A16712
 247 0e37 ACD0BD62 		.ascii	"\254\320\275b\376[v\365S]\020J\020\016\220\016j\032"
 247      FE5B76F5 
 247      535D104A 
 247      100E900E 
 247      6A1A
 248 0e49 CAECD281 		.ascii	"\312\354\322\201u^_*\254\322\301\233\020\376\313\204"
 248      755E5F2A 
 248      ACD2C19B 
 248      10FECB84 
 249 0e59 6B17B65C 		.ascii	"k\027\266\\D\302%f\234\306N\212Xa/b\245pe\234U.\021"
 249      44C22566 
 249      9CC64E8A 
 249      58612F62 
 249      A570659C 
 250 0e70 358D1976 		.ascii	"5\215\031v\"\254w?\253-E\274\016\"\326hV\254\325\254"
 250      22AC773F 
 250      AB2D45BC 
 250      0E22D668 
 250      56ACD5AC 
 251 0e84 B8D14911 		.ascii	"\270\321I\021\353\354E$jV\254\327\254\2701\303R\204"
ARM GAS  C:\Users\Thomas\AppData\Local\Temp\ccdc0T6P.s 			page 20


 251      EBEC4524 
 251      6A56ACD7 
 251      ACB831C3 
 251      5284
 252 0e96 ED167583 		.ascii	"\355\026u\203\271\336nTJ\243\246M\265~6lzX\262\331d"
 252      B9DE6E54 
 252      4AA3A64D 
 252      B57E366C 
 252      7A58B2D9 
 253 0eab B249D2D8 		.ascii	"\262I\322\330\3244\331\032\334\323\322\340d{\2037k>"
 253      D434D91A 
 253      DCD3D2E0 
 253      647B8337 
 253      6B3E
 254 0ebd DDA2F9B4 		.ascii	"\335\242\371\264\255\223\"\266\332\213\330\246\371t"
 254      AD9322B6 
 254      DA8BD8A6 
 254      F974
 255 0ecb BBE6D336 		.ascii	"\273\346\3236[g\334e\351\214\035\2463R\224\322\220\260"
 255      5B67DC65 
 255      E98C1DA6 
 255      335294D2 
 255      90B0
 256 0edd 1B29C15A 		.ascii	"\033)\301Z\325\036\356\226\250\251\302U\245\270\341"
 256      D51EEE96 
 256      A8A9C255 
 256      A5B8E1
 257 0eec 6787094C 		.ascii	"g\207\011Lw*L\250\021\266\346\364\327\213\204\020\363"
 257      772A4CA8 
 257      11B6E6F4 
 257      D78B8410 
 257      F3
 258 0efd FDD949E6 		.ascii	"\375\331I\346@\275\263\216\005Y\351\335\373&\010\324"
 258      40BDB38E 
 258      0559E9DD 
 258      FB2608D4 
 259 0f0d 4B02BD2D 		.ascii	"K\002\275-\314\350\303wI3v\013\362Tr\362\372\371\276"
 259      CCE8C377 
 259      4933760B 
 259      F25472F2 
 259      FAF9BE
 260 0f20 E4AADFB6 		.ascii	"\344\252\337\266\010\271\303\305\344\034\250\236Z\035"
 260      08B9C3C5 
 260      E41CA89E 
 260      5A1D
 261 0f2e 6F4A8D73 		.ascii	"oJ\215sR\357\237[D?\236&\"\233\004>I\345\351\"R\227"
 261      52EF9F5B 
 261      443F9E26 
 261      229B043E 
 261      49E5E922 
 262 0f44 D40FCA87 		.ascii	"\324\017\312\207\002\374\032\035\027{+\376\210\332\226"
 262      02FC1A1D 
 262      177B2BFE 
 262      88DA96
 263 0f53 94C9B373 		.ascii	"\224\311\263s \270\336\330\214o\207\314]&\320\240\001"
 263      20B8DED8 
 263      8C6F87CC 
ARM GAS  C:\Users\Thomas\AppData\Local\Temp\ccdc0T6P.s 			page 21


 263      5D26D0A0 
 263      01
 264 0f64 AC02CA20 		.ascii	"\254\002\312 c\302\0315\007\302\226\346P\364\015E\033"
 264      63C21935 
 264      07C296E6 
 264      50F40D45 
 264      1B
 265 0f75 28F9571D 		.ascii	"(\371W\035_\220\212\253\262\224\3123\005\016a%\017l"
 265      5F908AAB 
 265      B294CA33 
 265      050E6125 
 265      0F6C
 266 0f87 12096220 		.ascii	"\022\011b \007F\375\307\207HN\367\260P\007J\256\216"
 266      0746FDC7 
 266      87484EF7 
 266      B050074A 
 266      AE8E
 267 0f99 AF53D4E7 		.ascii	"\257S\324\347\245d\037"
 267      A5641F
 268 0fa0 5D321E03 		.ascii	"]2\036\003\316\223\344{Y\230\203\004c\253\017\011\256"
 268      CE93E47B 
 268      59988304 
 268      63AB0F09 
 268      AE
 269 0fb1 54A43EC6 		.ascii	"T\244>\306\331\240\222\373H\347\367k\366\003\302{\346"
 269      D9A092FB 
 269      48E7F76B 
 269      F603C27B 
 269      E6
 270 0fc2 8649CA81 		.ascii	"\206I\312\201R\222lO\200\372\310\275mi\211B\266\335"
 270      52926C4F 
 270      80FAC8BD 
 270      6D698942 
 270      B6DD
 271 0fd4 E7B67606 		.ascii	"\347\266v\006\340\306&)o\251\252\225|jnl\206\032{\032"
 271      E0C62629 
 271      6FA9AA95 
 271      7C6A6E6C 
 271      861A7B1A 
 272 0fe8 3515F78A 		.ascii	"5\025\367\212H\332Z\025\250\303\314g\022\373\266[\253"
 272      48DA5A15 
 272      A8C3CC67 
 272      12FBB65B 
 272      AB
 273 0ff9 5E96D332 		.ascii	"^\226\3232\313\234\226"
 273      CB9C96
 274 1000 FB70F43E 		.ascii	"\373p\364>\243\255U^]\000\261\375\242V{\352+\360\251"
 274      A3AD555E 
 274      5D00B1FD 
 274      A2567BEA 
 274      2BF0A9
 275 1013 EFDE0347 		.ascii	"\357\336\003G\027\370\271\024\312&\317\362\034C\243"
 275      17F8B914 
 275      CA26CFF2 
 275      1C43A3
 276 1022 367524FE 		.ascii	"6u$\376RR\337V#\253\031\026\306\367\233\032\035@\215"
 276      5252DF56 
ARM GAS  C:\Users\Thomas\AppData\Local\Temp\ccdc0T6P.s 			page 22


 276      23AB1916 
 276      C6F79B1A 
 276      1D408D
 277 1035 BE249F1C 		.ascii	"\276$\237\03424\372{G\237\014\"\015r=5\370Jb\337V\203"
 277      3234FA7B 
 277      479F0C22 
 277      0D723D35 
 277      F84A62DF 
 278 104b 3E961A1C 		.ascii	">\226\032\03445\310C\015\276\"\237\230\032|S\253=\367"
 278      3435C843 
 278      0DBE229F 
 278      981A7C53 
 278      AB3DF7
 279 105e 17F8C07E 		.ascii	"\027\370\300~\352\242\222#\241.\205\016)\237\344{j\364"
 279      EAA29223 
 279      A12E850E 
 279      299FE47B 
 279      6AF4
 280 1070 ADA4BEAD 		.ascii	"\255\244\276\255F\326\213\307aS\243#\250\321\267\344"
 280      46D68BC7 
 280      6153A323 
 280      A8D1B7E4 
 281 1080 93FCF36A 		.ascii	"\223\374\363j\236|'i\262\227]\253\325\206EMx~\324P\301"
 281      9E7C2769 
 281      B2975DAB 
 281      D586454D 
 281      787ED450 
 282 1095 38F57E2F 		.ascii	"8\365~/\321\355U\220Kd_\313%\362\230}\362<\256\255\302"
 282      D1ED5590 
 282      4B645FCB 
 282      25F2987D 
 282      F23CAEAD 
 283 10aa 0510E5DF 		.ascii	"\005\020\345\337\223\303L\365~\2204qcw\354\010E\207"
 283      93C34CF5 
 283      7E903471 
 283      6377EC08 
 283      4587
 284 10bc E11A36AD 		.ascii	"\341\0326\2552\345n\227\262'\224\262'=\225\375\207$"
 284      32E56E97 
 284      B22794B2 
 284      273D95FD 
 284      8724
 285 10ce BE03654F 		.ascii	"\276\003eO\331+{Z[\317\013A\331\177\320z~8\263si\370"
 285      D92B7B5A 
 285      5BCF0B41 
 285      D97FD07A 
 285      7E38B373 
 286 10e4 8C7DCA38 		.ascii	"\214}\3128\253\371\243H\313J\005\235\024Ql/\242D\263"
 286      ABF9A348 
 286      CB4A059D 
 286      14516C2F 
 286      A244B3
 287 10f7 A254CB4A 		.ascii	"\242T\313J\005q\235\313\364\347\314\211U\246g\372\023"
 287      05719DCB 
 287      F4E7CC89 
 287      55A667FA 
 287      13
ARM GAS  C:\Users\Thomas\AppData\Local\Temp\ccdc0T6P.s 			page 23


 288 1108 E7ED925B 		.ascii	"\347\355\222[?K6\347M6\027\364L\177\242\256s\033\206"
 288      3F4B36E7 
 288      4D3617F4 
 288      4C7FA2AE 
 288      731B86
 289 111b 72934D85 		.ascii	"r\223M\205\256\315I[\277Yg\363J{\277]\324\206\346\222"
 289      AECD495B 
 289      BF5967F3 
 289      4A7BBF5D 
 289      D486E692 
 290 112f E6B7CE8A 		.ascii	"\346\267\316\212\270l/\342\21264WI\004$\345\322\334"
 290      B86C2FE2 
 290      8A363457 
 290      490424E5 
 290      D2DC
 291 1141 FEFA7339 		.ascii	"\376\372s9\310$\203\030\307\232\316\347,\034K:\365\023"
 291      C8248318 
 291      C79ACEE7 
 291      2C1C4B3A 
 291      F513
 292 1153 87D2AC1F 		.ascii	"\207\322\254\037\315mj:UB\253\351l\020\006\266v~\377"
 292      CD6D6A3A 
 292      5542ABE9 
 292      6C1006B6 
 292      767EFF
 293 1166 9A8549E7 		.ascii	"\232\205I\347\335\3178\236\337\033s\373\335\256\246"
 293      DDCF389E 
 293      DF1B73FB 
 293      DDAEA6
 294 1175 738D4EEF 		.ascii	"s\215N\357\346Y$B\236Ex\265\300\232\016(6\230\205cY"
 294      E6592442 
 294      9E4578B5 
 294      C09A0E28 
 294      36988563 
 295 118a A12557D5 		.ascii	"\241%W\325\232b\254\024\203\272\302u]\261\265\302\300"
 295      9A62AC14 
 295      83BAC275 
 295      5DB1B5C2 
 295      C0
 296 119b D614FB0A 		.ascii	"\326\024\373\012\025{@)\326\232{?\341\304v\340\250*"
 296      157B4029 
 296      D69A7B3F 
 296      E1C476E0 
 296      A82A
 297 11ad 0B35F695 		.ascii	"\0135\366\225\205Z\255\262`\024\337\307q\340u\007\265"
 297      855AADB2 
 297      6014DFC7 
 297      71E07507 
 297      B5
 298 11be 853A73CE 		.ascii	"\205:s\316\325\343\322:\216\343p\335\0124\266\034F\365"
 298      D5E3D23A 
 298      8EE370DD 
 298      0A34B61C 
 298      46F5
 299 11d0 E9413639 		.ascii	"\351A69\007\366P\321E\261\331\353\217\251t?MR\200\005"
 299      07F650D1 
 299      45B1D9EB 
ARM GAS  C:\Users\Thomas\AppData\Local\Temp\ccdc0T6P.s 			page 24


 299      8FA9743F 
 299      4D528005 
 300 11e4 A713AAE6 		.ascii	"\247\023\252\346\340\371\334\307\237\361\006\334\313"
 300      E0F9DCC7 
 300      9FF106DC 
 300      CB
 301 11f1 64C6959D 		.ascii	"d\306\225\235PX\323;\030i\233\217\033MunHu\\\3664\211"
 301      5058D33B 
 301      18699B8F 
 301      1B4D756E 
 301      48755CF6 
 302 1207 19564CAC 		.ascii	"\031VL\254\023X\223\311\244\231\230D\317Q\245\3138\016"
 302      135893C9 
 302      A4999844 
 302      CF51A5CB 
 302      380E
 303 1219 DA00336C 		.ascii	"\332\0003l\215\315\273\233\332gr\352\013\247MX\303]"
 303      8DCDBB9B 
 303      DA6772EA 
 303      0BA74D58 
 303      C35D
 304 122b D43C8B53 		.ascii	"\324<\213SW\020*\222P\252T\231\355\275=-\246*\277x\250"
 304      57102A92 
 304      50AA5499 
 304      EDBD3D2D 
 304      A62ABF78 
 305 1240 3247F2ED 		.ascii	"2G\362\355\012\274HdQoj\376\231\223\3309\252=KUN\347"
 305      0ABC4864 
 305      516F6AFE 
 305      9993D839 
 305      AA3D4B55 
 306 1256 72EAF3C5 		.ascii	"r\352\363\305\334\222\220\255T\231\007\252\254;r!\313"
 306      DC9290AD 
 306      549907AA 
 306      AC3B7221 
 306      CB
 307 1267 957D0117 		.ascii	"\225}\001\027\243\257\325\310&yJ\344|\016\004\310W\265"
 307      A3AFD5C8 
 307      26794AE4 
 307      7C0E04C8 
 307      57B5
 308 1279 2CE03486 		.ascii	",\3404\206\363\271\271\327\333\014\034\026(\3517\022"
 308      F3B9B9D7 
 308      DB0C1C16 
 308      28E93712 
 309 1289 0D751782 		.ascii	"\015u\027\202\354\016{\302\205t\306~\210M\3177\266\243"
 309      EC0E7BC2 
 309      8574C67E 
 309      884DCF37 
 309      B6A3
 310 129b D8EECBE8 		.ascii	"\330\356\313\350\006\231\3210&<I\214\246z\357\2746\323"
 310      0699D130 
 310      263C498C 
 310      A67AEFBC 
 310      36D3
 311 12ad 7937053D 		.ascii	"y7\005=*\310\213\256T\301\205\234h\243)5K\025C9h\375"
 311      2AC88BAE 
ARM GAS  C:\Users\Thomas\AppData\Local\Temp\ccdc0T6P.s 			page 25


 311      54C1859C 
 311      68A32935 
 311      4B154339 
 312 12c3 E0E4B3CB 		.ascii	"\340\344\263\313\035\225\320?\205C\313B\376`Uab\260"
 312      1D95D03F 
 312      8543CB42 
 312      FE605561 
 312      62B0
 313 12d5 54F16116 		.ascii	"T\361a\026\343\347\3001?i\316^\230\357\341\260{B[\215"
 313      E3E7C031 
 313      3F69CE5E 
 313      98EFE1B0 
 313      7B425B8D 
 314 12e9 5AF9624E 		.ascii	"Z\371bN=]\351\261\232Q\242\217\357\240\267m\342\272"
 314      3D5DE9B1 
 314      9A51A28F 
 314      EFA0B76D 
 314      E2BA
 315 12fb A5AD8EE6 		.ascii	"\245\255\216\346!\001\213\364\355$\023\207'\312\021"
 315      21018BF4 
 315      ED241387 
 315      27CA11
 316 130a 498EC9B1 		.ascii	"I\216\311\261\214X\363D\342y\004\031\355\260<\202\374"
 316      8C58F344 
 316      E2790419 
 316      EDB03C82 
 316      FC
 317 131b 158E2063 		.ascii	"\025\216 c\034\300\1771\357x\006\371\0378\203D;\"\301"
 317      1CC07F31 
 317      EF7806F9 
 317      1F388344 
 317      3B22C1
 318 132e 10141F03 		.ascii	"\020\024\037\003\327j\230K\022\233\225\225\011`\270"
 318      D76A984B 
 318      129B9595 
 318      0960B8
 319 133d 3ECCBB61 		.ascii	">\314\273a\004\023h\230\207\260\371\376j\224\261\271"
 319      04136898 
 319      87B0F9FE 
 319      6A94B1B9 
 320 134d 2BE9FF38 		.ascii	"+\351\3778\221N\366>@\307:\214\201\215u\030\003\273"
 320      914EF63E 
 320      40C73A8C 
 320      818D7518 
 320      03BB
 321 135f 4D0D6C57 		.ascii	"M\015lW\340D\003+/w\211\341\034\344?\274\037N\020Ca"
 321      E044032B 
 321      2F7789E1 
 321      1CE43FBC 
 321      1F4E1043 
 322 1374 106547AA 		.ascii	"\020eG\252\200\027B\206\024\0256\210J>\0052\332\220"
 322      80174286 
 322      14153688 
 322      4A3E0532 
 322      DA90
 323 1386 AAC23638 		.ascii	"\252\30268O\014cs8\035g\362\023k\224MKq\2305\233v\202"
 323      4F0C6373 
ARM GAS  C:\Users\Thomas\AppData\Local\Temp\ccdc0T6P.s 			page 26


 323      381D67F2 
 323      136B944D 
 323      4B719835 
 324 139d F24BC9A6 		.ascii	"\362K\311\246H\266\202+\233\2609\234l\212$\322\211V"
 324      48B6822B 
 324      9BB0399C 
 324      6C8A24D2 
 324      8956
 325 13af 3659EFDB 		.ascii	"6Y\357\333\307\2316\2157m2\236\211\204\003'\262I^\306"
 325      C799368D 
 325      376D329E 
 325      89840327 
 325      B2495EC6 
 326 13c3 8B4739C8 		.ascii	"\213G9\310\0376\036l\032\016\032\313\216]p,\212\334"
 326      1F361E6C 
 326      1A0E1ACB 
 326      8E5D702C 
 326      8ADC
 327 13d5 55580566 		.ascii	"UX\005f\214\220\207,|\002Uml\272\227y?\375&8l\036\021"
 327      8C90872C 
 327      7C02556D 
 327      6CBA9779 
 327      3FFD2638 
 328 13ec 4D74B8B2 		.ascii	"Mt\270\262\377$\234}\322O\005\252\210\274\234\203\020"
 328      FF249C7D 
 328      D24F05AA 
 328      88BC9C83 
 328      10
 329 13fd 70936CDE 		.ascii	"p\223l\336\022[\245\232Wp\350\222\234\316\245\346\305"
 329      125BA59A 
 329      5770E892 
 329      9CCEA5E6 
 329      C5
 330 140e E37155C0 		.ascii	"\343qU\300\033\303\223\035j\215\357\327\251-\335\024"
 330      1BC3931D 
 330      6A8DEFD7 
 330      A92DDD14 
 331 141e 0BD546A7 		.ascii	"\013\325F\247?\015\312M\325\224\233\006ss\005\256\033"
 331      3F0DCA4D 
 331      D5949B06 
 331      737305AE 
 331      1B
 332 142f A949D7CF 		.ascii	"\251I\327\317\253\207p\253\274w\301t;\027\314p\270v"
 332      AB8770AB 
 332      BC77C174 
 332      3B17CC70 
 332      B876
 333 1441 2771860B 		.ascii	"'q\206\013\362\374H\300j\016BL\027\224\253\3465\034"
 333      F2FC48C0 
 333      6A0E424C 
 333      1794ABE6 
 333      351C
 334 1453 BA4C9313 		.ascii	"\272L\223\023\206u\312\344\231\226&\277\017\312\314"
 334      8675CAE4 
 334      999626BF 
 334      0FCACC
 335 1462 D294990D 		.ascii	"\322\224\231\015&\257\241\245\262\266\364|\030\211^"
ARM GAS  C:\Users\Thomas\AppData\Local\Temp\ccdc0T6P.s 			page 27


 335      26AFA1A5 
 335      B2B6F47C 
 335      18895E
 336 1471 E7FD6239 		.ascii	"\347\375b9\307\234\177?;\3343g\242\367\2019\327d2\317"
 336      C79C7F3F 
 336      3BDC3367 
 336      A2F78139 
 336      D76432CF 
 337 1485 E19EAED6 		.ascii	"\341\236\256\326s\320\006\230\321\270\347(\346\033\274"
 337      73D00698 
 337      D1B8E728 
 337      E61BBC
 338 1494 8F90F926 		.ascii	"\217\220\371&\363\005\036\3147r\022\260A\255GF\302\332"
 338      F3051ECC 
 338      377212B0 
 338      41AD4746 
 338      C2DA
 339 14a6 C4A92FC8 		.ascii	"\304\251/\310\275\006\262\211B\367\021\271=\323J A\356"
 339      BD06B289 
 339      42F711B9 
 339      3DD34A20 
 339      41EE
 340 14b8 259020A9 		.ascii	"%\220 \251AsT\363~\232\263\3171\276\320\241\012\023"
 340      417354F3 
 340      7E9AB3CF 
 340      31BED0A1 
 340      0A13
 341 14ca 41D2E70F 		.ascii	"A\322\347\017\354\010\000>#\346B\011\344Q\031m\262="
 341      EC08003E 
 341      23E64209 
 341      E451196D 
 341      B23D
 342 14dc 1E22F091 		.ascii	"\036\"\360\221\205\205\273 \002\037cj\035\271\265\326"
 342      8585BB20 
 342      021F636A 
 342      1DB9B5D6 
 343 14ec 48964952 		.ascii	"H\226IR\2230}\035I\001\261I\244\314\343L(e\2605\214"
 343      93307D1D 
 343      4901B149 
 343      A4CCE34C 
 343      2865B035 
 344 1501 BC348428 		.ascii	"\2744\204(\377\327k\037-2}\264\330\303G\377\224l\360"
 344      FFD76B1F 
 344      2D327DB4 
 344      D8C347FF 
 344      946CF0
 345 1514 608D8CD5 		.ascii	"`\215\214\325\372\364/\257\247G\274\311x\211\007\343"
 345      FAF42FAF 
 345      A747BCC9 
 345      788907E3 
 346 1524 1F91F7BF 		.ascii	"\037\221\367\277hn?Gm\377\366z\306$\230|\227z\360\375"
 346      686E3F47 
 346      6DFFF67A 
 346      C624987C 
 346      977AF0FD 
 347 1538 0959FF9B 		.ascii	"\011Y\377\233\341\323a\243>\364S\023>\325\220\336\016"
 347      E1D361A3 
ARM GAS  C:\Users\Thomas\AppData\Local\Temp\ccdc0T6P.s 			page 28


 347      3EF45313 
 347      3ED590DE 
 347      0E
 348 1549 93CEBE0F 		.ascii	"\223\316\276\017\312CI\374\261\271#\244\007\237`T\242"
 348      CA4349FC 
 348      B1B923A4 
 348      079F6054 
 348      A2
 349 155a DBD478BE 		.ascii	"\333\324x\276su\355e\226\021\206\247\335\345\332\242"
 349      7375ED65 
 349      961186A7 
 349      DDE5DAA2 
 350 156a B2C2A1D5 		.ascii	"\262\302\241\325\265;)b\245\275\210UZ\020\257&\0210"
 350      B53B2962 
 350      A5BD8855 
 350      5A10AF26 
 350      1130
 351 157c 1F9E64F4 		.ascii	"\037\236d\364\204\365\354\244\301d\371V\273C\315\032"
 351      84F5ECA4 
 351      C164F956 
 351      BB43CD1A 
 352 158c 877676B8 		.ascii	"\207vv\270\305\015l\355\354\360wyP\252\020O1\206g\207"
 352      C50D6CED 
 352      ECF07779 
 352      50AA104F 
 352      31866787 
 353 15a0 E283D635 		.ascii	"\342\203\3265Su\250Y\353\300\203\303\271\235S\246\323"
 353      5375A859 
 353      EBC083C3 
 353      B99D53A6 
 353      D3
 354 15b1 A12688F1 		.ascii	"\241&\210\361u\016\3439ujmS\262\252Jl\357\240\220\355"
 354      750EE339 
 354      756A6D53 
 354      B2AA4A6C 
 354      EFA090ED 
 355 15c5 962351DB 		.ascii	"\226#Q\333r\270\255a}\371z\227\207e\347\241\237\267"
 355      72B8AD61 
 355      7DF97A97 
 355      8765E7A1 
 355      9FB7
 356 15d7 FEEC43BD 		.ascii	"\376\354C\275\177\201\015\307\006\303!\214oT\333\235"
 356      7F810DC7 
 356      06C3218C 
 356      6F54DB9D 
 357 15e7 B2FBAC3C 		.ascii	"\262\373\254<\337\377\246\350\357^\177\355o\241\311"
 357      DFFFA6E8 
 357      EF5E7FED 
 357      6FA1C9
 358 15f6 00BE496A 		.ascii	"\000\276Ij\222\344\360\324\344y\220\225\254\215\365"
 358      92E4F0D4 
 358      E4799095 
 358      AC8DF5
 359 1605 66584DB7 		.ascii	"fXM\267\253\004\322fX\234\342\275\305[\354-\336\352"
 359      AB04D266 
 359      589CE2BD 
 359      C55BEC2D 
ARM GAS  C:\Users\Thomas\AppData\Local\Temp\ccdc0T6P.s 			page 29


 359      DEEA
 360 1617 1A700B8B 		.ascii	"\032p\013\213\267\271,\336\356\235\305\236&\356\260"
 360      B7B92CDE 
 360      EE9DC59E 
 360      26EEB0
 361 1626 3731459B 		.ascii	"71E\233k\251`b\012\231Xk\232\270\323{\023wj&\356X\235"
 361      6BA96062 
 361      0A99586B 
 361      9AB8D37B 
 361      13776A26 
 362 163d B0C257B3 		.ascii	"\260\302W\263q\027\010R\225M\331\2756\343BT\210f\344"
 362      71170852 
 362      954DD9BD 
 362      36E34254 
 362      8866E4
 363 1650 6E97917B 		.ascii	"n\227\221{\356\314\3104\315HM8Z\231\256\011\347\031"
 363      EECCC834 
 363      CD484D38 
 363      5A99AE09 
 363      E719
 364 1662 60E64E35 		.ascii	"`\346N5\2227\0153w{of\246\375H\356\005A\203\354F2\313"
 364      92370D33 
 364      777B6F66 
 364      A6FD48EE 
 364      054183EC 
 365 1679 65E4BE3B 		.ascii	"e\344\276;32\333~$s\\\242\371~0q\267\032I\323\3044\357"
 365      3332DB7E 
 365      24735CA2 
 365      F97E3071 
 365      B71A49D3 
 366 1690 4D3CA099 		.ascii	"M<\240\231\230W^0\323\251\331\230\013\202\016\231#Y"
 366      98575E30 
 366      D3A9D998 
 366      0B820E99 
 366      2359
 367 16a2 BD3729C9 		.ascii	"\2757)\311\251\031y\320ed\336\235\031yH3R\023\216V\346"
 367      A91979D0 
 367      6564DE9D 
 367      19794833 
 367      52138E56 
 368 16b7 6BC2F961 		.ascii	"k\302\371a03M\215\344-\303\314\014\357\315<\242\231"
 368      30334D8D 
 368      E42DC3CC 
 368      0CEFCD3C 
 368      A299
 369 16c9 79A57E66 		.ascii	"y\245~fY\250f\346Q\220\224\3512sb\326\226`\315\314c"
 369      59A866E6 
 369      519094E9 
 369      327362D6 
 369      9660CDCC 
 370 16de 2E338FDF 		.ascii	".3\217\337\231\231\005\232\231\232p4\363\204&\234\237"
 370      9999059A 
 370      999A7034 
 370      F384269C 
 370      9F
 371 16ef 04333338 		.ascii	"\004338\345\231[c,\2376\311<3\300\272pk\231g~\203\205"
 371      E5995B63 
ARM GAS  C:\Users\Thomas\AppData\Local\Temp\ccdc0T6P.s 			page 30


 371      2C9F36C9 
 371      3C33C0BA 
 371      706B9967 
 372 1706 5B6D792B 		.ascii	"[my+tD\322.Uf\313\366N\2128c/\342\254\266\274\024\271"
 372      7444D22E 
 372      5566CBF6 
 372      4E8A3863 
 372      2FE2ACB6 
 373 171d 44D4B4DB 		.ascii	"D\324\264\333\3261\357\261\334\023\024\233{\202\022"
 373      D631EFB1 
 373      DC13149B 
 373      7B8212
 374 172c C51135CD 		.ascii	"\305\0215\315\232\331\271\342l\251\311\346\234\306\246"
 374      9AD9B9E2 
 374      6CA9C9E6 
 374      9CC6A6
 375 173b 266B6FE7 		.ascii	"&ko\347^\264*\2634\030k\225\3475\237^pm\0176\355\353"
 375      5EB42AB3 
 375      34186B95 
 375      E7359F5E 
 375      706D0F36 
 376 1751 A488727B 		.ascii	"\244\210r{\021\025\232O+\311\247\260-\3709\337\366\301"
 376      11159A4F 
 376      2BC9A7B0 
 376      2DF839DF 
 376      F6C1
 377 1763 A7DC18F2 		.ascii	"\247\334\030\362\213\016z\234\211\247\201\354\275\352"
 377      8B0E7A9C 
 377      89A781EC 
 377      BDEA
 378 1771 20926BB5 		.ascii	" \222k\265\327\266~br\311\364\335e\207\361\226\245\361"
 378      D7B67E62 
 378      72C9F4DD 
 378      6587F196 
 378      A5F1
 379 1783 125CAE61 		.ascii	"\022\\\256a\263\334\246<M\233\256\2702Uz=\350\375v\376"
 379      B3DCA63C 
 379      4D9BAEB8 
 379      32557A3D 
 379      E8FD76FE 
 380 1797 8A29E2AA 		.ascii	"\212)\342\252\022\221o\226>\017\0326K\021\3170zA,>\337"
 380      12916F96 
 380      3E0F1A36 
 380      4B11CF30 
 380      7A412C3E 
 381 17ac BA182B4D 		.ascii	"\272\030+M\356\003\265]\227\3115\233\362\242\355&\265"
 381      EE03B55D 
 381      97C9359B 
 381      F2A2ED26 
 381      B5
 382 17bd CD3B9FF6 		.ascii	"\315;\237\366\223\272Z\033\200\353\256\375\331\263\254"
 382      93BA5A1B 
 382      80EBAEFD 
 382      D9B3AC
 383 17cc 5055336F 		.ascii	"PU3o"
 384 17d0 A51A2F1C 		.ascii	"\245\032/\034\356\021MB\270\312\227F\345'\255\303\253"
 384      EE114D42 
ARM GAS  C:\Users\Thomas\AppData\Local\Temp\ccdc0T6P.s 			page 31


 384      B8CA9746 
 384      E527ADC3 
 384      AB
 385 17e1 BDB6BBEC 		.ascii	"\275\266\273\354\032\323'\265\036\273\341t\311\273\033"
 385      1AD327B5 
 385      1EBBE174 
 385      C9BB1B
 386 17f0 F0521546 		.ascii	"\360R\025F5\244\031\202\272\202U\025P\325#3\005u\371"
 386      35A41982 
 386      BA825515 
 386      50D52333 
 386      0575F9
 387 1803 51B54FBD 		.ascii	"Q\265O\275\332\275WX\024\3732\361U|^\3470\212}\352\340"
 387      DABD5758 
 387      14FB32F1 
 387      557C5EE7 
 387      308A7DEA 
 388 1818 9E258040 		.ascii	"\236%\200@/\366\355\023db\226p/\366\355S:U\247\032g"
 388      2FF6ED13 
 388      64629670 
 388      2FF6ED53 
 388      3A55A71A 
 389 182d A76C10DD 		.ascii	"\247l\020\335\241\330\227M\017\200\237\203\237Fk\265"
 389      A1D8974D 
 389      0F809F83 
 389      9F466BB5 
 390 183d 3E3FBDD6 		.ascii	">?\275\326'\334\312'\273\275\367\\\275\351\271\206\016"
 390      27DCCA27 
 390      BBBDF75C 
 390      BDE9B986 
 390      0E
 391 184e E5133FE0 		.ascii	"\345\023?\340D\247\006\251X\251x\221\203\322\317\266"
 391      44A706A9 
 391      58A97891 
 391      83D2CFB6 
 392 185e 35968B4A 		.ascii	"5\226\213J.;K\260%[<[\324X\345\220\032>\317\002\250"
 392      2E3B4BB0 
 392      255B3C5B 
 392      D458E590 
 392      1A3ECF02 
 393 1873 7A523453 		.ascii	"zR4S\225\016r\274\177\351\276\321\256tpC[,\232\214\332"
 393      950E72BC 
 393      7FE9BED1 
 393      AE747043 
 393      5B2C9A8C 
 394 1888 DD939D2A 		.ascii	"\335\223\235*\3355[\227\356\360\355\201\026,\335u\353"
 394      DD355B97 
 394      EEF0ED81 
 394      162CDD75 
 394      EB
 395 1899 58B9C3B7 		.ascii	"X\271\303\267\007~\201\254\222CC\335\012\327j\314N\246"
 395      077E81AC 
 395      924343DD 
 395      0AD76ACC 
 395      4EA6
 396 18ab 9E566376 		.ascii	"\236Vcv\000&X\207\312\335\001\032\263\027X\240^\270"
 396      00265887 
ARM GAS  C:\Users\Thomas\AppData\Local\Temp\ccdc0T6P.s 			page 32


 396      CADD011A 
 396      B31758A0 
 396      5EB8
 397 18bd EB46CAAB 		.ascii	"\353F\312\253\230\337i5J\326\247\2756s\224n\232\243"
 397      98DF6935 
 397      4AD6A7BD 
 397      3673946E 
 397      9AA3
 398 18cf 644C9A6E 		.ascii	"dL\232n\300\211FI^N\340\277\342 \376\371\375p\302~Q"
 398      C0894649 
 398      5E4EE0BF 
 398      E220FEF9 
 398      FD70C27E 
 399 18e4 8E886C2F 		.ascii	"\216\210l/\305\272\335\013y\215[\344\300\225\300q\373"
 399      C5BADD0B 
 399      798D5BE4 
 399      C095C071 
 399      FB
 400 18f5 85A2463C 		.ascii	"\205\242F<n\277\204\307m9d\305\233U\301+\327\373!\273"
 400      6EBF84C7 
 400      6D3964C5 
 400      9B55C12B 
 400      D7FB21BB 
 401 1909 653764ED 		.ascii	"e7d\355\332\220E9U\265\307x\266zP\200\020\263\332c\304"
 401      DA904539 
 401      55B5C778 
 401      B67A5080 
 401      10B3DA63 
 402 191e 4D9E802E 		.ascii	"M\236\200.W\201\253O\247\252=\243\235V\013\321PPf\214"
 402      5781AB4F 
 402      A7AA3DA3 
 402      9D560BD1 
 402      5050668C 
 403 1932 D3A54CB4 		.ascii	"\323\245L\2643\022$\241\204\244\202\231\252\332\223"
 403      331224A1 
 403      84A48299 
 403      AADA93
 404 1941 EF7DB8C4 		.ascii	"\357}\270\3048\315WB\235\356\325\236\303\336\217f\254"
 404      38CD5742 
 404      9DEED59E 
 404      C3DE8F66 
 404      AC
 405 1952 C9649CD3 		.ascii	"\311d\234\323}\265:\"@\033`\246j\343\3129G\005\365\005"
 405      7DB53A22 
 405      401B60A6 
 405      6AE3CA39 
 405      4705F505 
 406 1966 BB17648E 		.ascii	"\273\027d\216\322,\033\311\204\376NJ\260\373\253!\301"
 406      D22C1BC9 
 406      84FE4E4A 
 406      B0FBAB21 
 406      C1
 407 1977 AE0A4C70 		.ascii	"\256\012Lp\223\230\304\373r |\351t\220\244\374\025\303"
 407      9398C4FB 
 407      72207CE9 
 407      7490A4FC 
 407      15C3
ARM GAS  C:\Users\Thomas\AppData\Local\Temp\ccdc0T6P.s 			page 33


 408 1989 1AE80470 		.ascii	"\032\350\004p\320\310\304F|5\344\327\252\036PS\322\311"
 408      D0C8C446 
 408      7C35E4D7 
 408      AA1E5053 
 408      D2C9
 409 199b 6C3CDE72 		.ascii	"l<\336r\0140\033O\320\306`\242\323L\006/\263\241\224"
 409      0C301B4F 
 409      D0C660A2 
 409      D34C062F 
 409      B3A194
 410 19ae 0B4EEE36 		.ascii	"\013N\3566r\3012i\245\243c.X\356\375\020M2\275;\331"
 410      72C13269 
 410      A5A3632E 
 410      58EEFD10 
 410      4D32BD3B 
 411 19c3 C3BB2B24 		.ascii	"\303\273+$\357\356\300\313=\027\254\024\324\025\342"
 411      EFEEC0CB 
 411      3D17AC14 
 411      D415E2
 412 19d2 9E0B5609 		.ascii	"\236\013V\011\352\362w\313\005\253\255r\301*Z \2468"
 412      EAF277CB 
 412      05ABAD72 
 412      C12A5A20 
 412      A638
 413 19e4 3D72C11A 		.ascii	"=r\301\032\001\004z.X+\310\3045\036\271`\255\322){\267"
 413      01047A2E 
 413      582BC8C4 
 413      351EB960 
 413      ADD2297B 
 414 19f9 11D6EB40 		.ascii	"\021\326\353@t\207\\\260\216F\374\0256BO\005\376z*p"
 414      74875CB0 
 414      8E46FC15 
 414      36424F05 
 414      FE7A2A70 
 415 1a0d B8A582A5 		.ascii	"\270\245\202\245\336;n\252\351\270iN\317T\340\017\234"
 415      DE3B6EAA 
 415      E9B8694E 
 415      CF54E00F 
 415      9C
 416 1a1e 6812399A 		.ascii	"h\0229\232\304\260\3279\250\374rb+d\002\331\027\011"
 416      C4B0D739 
 416      A8FC7262 
 416      2B6402D9 
 416      1709
 417 1a30 0DEBC4CB 		.ascii	"\015\353\304\313\223[1\021\274\312\234T\304\2534\307"
 417      935B3111 
 417      BCCA9C54 
 417      C4AB34C7 
 418 1a40 35117C4F 		.ascii	"5\021|O\317|2S\313\236P\305M\357\327\232\351\026\223"
 418      CF7C3253 
 418      CB9E50C5 
 418      4DEFD79A 
 418      E91693
 419 1a53 8B2ACB4E 		.ascii	"\213*\313N\255\262\354T\351\341\371N\245\207\231N\373"
 419      ADB2EC54 
 419      E9E1F94E 
 419      A587994E 
ARM GAS  C:\Users\Thomas\AppData\Local\Temp\ccdc0T6P.s 			page 34


 419      FB
 420 1a64 F430CB09 		.ascii	"\3640\313\011\351!Qt\314\017\037A~\230\015\013\312z"
 420      E9215174 
 420      CC0F1F41 
 420      7E980D0B 
 420      CA7A
 421 1a76 1AFE3970 		.ascii	"\032\3769p\355P9}\227\221\0376\242\341\236\371a#\215"
 421      ED50397D 
 421      97911F36 
 421      A2E19EF9 
 421      61238D
 422 1a89 E36BCC57 		.ascii	"\343k\314W\317\017\335\335\362\303\022\357W\224\237"
 422      CF0FDDDD 
 422      F2C312EF 
 422      57949F
 423 1a98 CDA19BEB 		.ascii	"\315\241\233\353\364\314\017\335\201\023\015\235\274"
 423      F4CC0FDD 
 423      81130D9D 
 423      BC
 424 1aa5 4C11A3A0 		.ascii	"L\021\243\240\270+^\305\374\360\272\034(\331>\014\322"
 424      B82B5EC5 
 424      FCF0BA1C 
 424      28D93E0C 
 424      D2
 425 1ab6 C36B6D2D 		.ascii	"\303km-\220\036 8_\233\334\212\331\341\015\225\035\222"
 425      901E2038 
 425      5F9BDC8A 
 425      D9E10D95 
 425      1D92
 426 1ac8 AE1BD961 		.ascii	"\256\033\331a\223\367#6\317n\304\346k#\266\3003;$\011"
 426      93F72336 
 426      CF6EC4E6 
 426      6B23B6C0 
 426      333B2409 
 427 1adc 10D2213B 		.ascii	"\020\322!;$\013\350\272\323\354\260\320>;,\322\224Y"
 427      240BE8BA 
 427      D3ECB0D0 
 427      3E3B2CD2 
 427      9459
 428 1aee 0C03984C 		.ascii	"\014\003\230L\331\241\266\302\310\016[\274\217\240x"
 428      D9A1B6C2 
 428      C80E5BBC 
 428      8FA078
 429 1afd 73189678 		.ascii	"s\030\226xd\207\255\336\217e\202\311d\251\307\372\265"
 429      6487ADDE 
 429      8F6582C9 
 429      64A9C7FA 
 429      B5
 430 1b0e 4D8036C0 		.ascii	"M\2006\300\314=;l\027\324\027\342\236\035\266\323\034"
 430      CC3D3B6C 
 430      17D417E2 
 430      9E1DB6D3 
 430      1C
 431 1b1f 7BD33D3B 		.ascii	"{\323=;\204\270g\207\020Wv\010i\022\237\364\341@\367"
 431      84B86787 
 431      10577608 
 431      69129FF4 
ARM GAS  C:\Users\Thomas\AppData\Local\Temp\ccdc0T6P.s 			page 35


 431      E140F7
 432 1b32 06268751 		.ascii	"\006&\207Q\224\034R`\277\360fQ\013&\207\337\030\305"
 432      941C5260 
 432      BFF06651 
 432      0B2687DF 
 432      18C5
 433 1b44 E2864E26 		.ascii	"\342\206N&\207e\366\311a\2716\004+\\\311\341-\365\344"
 433      8765F6C9 
 433      61B93604 
 433      2B5CC9E1 
 433      2DF5E4
 434 1b57 589E14D2 		.ascii	"X\236\024\322R\225\266mR=\247+;\034V\3157\275\177\\"
 434      5295B66D 
 434      523DA72B 
 434      3B1C56CD 
 434      37BD7F5C 
 435 1b6b B3D2F4EE 		.ascii	"\263\322\364\356*\217!\272\345\375\343\232\325&\223"
 435      2A8F21BA 
 435      E5FDE39A 
 435      D52693
 436 1b7a 351E43D4 		.ascii	"5\036C\324\316A\033`F/:T\2517\032\242\004\365uQ\017"
 436      CE411B60 
 436      462F3A54 
 436      A9371AA2 
 436      04F57551 
 437 1b8f FF54F368 		.ascii	"\377T\363hA]\241\024\370\305J\2251\336O\271\265\246"
 437      415DA114 
 437      F8C54A95 
 437      31DE4FB9 
 437      B5A6
 438 1ba1 2AEB3C54 		.ascii	"*\353<T\211\226|#\200\027\211l\353E\3151\202\304F\253"
 438      89967C23 
 438      8017896C 
 438      EB45CD31 
 438      82C446AB 
 439 1bb5 F672F553 		.ascii	"\366r\365S\233\261\202\372\350]P\363\027r\261V\371n"
 439      9BB182FA 
 439      E85D50F3 
 439      1772B156 
 439      F96E
 440 1bc7 2C2D7889 		.ascii	",-x\211F\2763&\3428\001\004z\276\033/h\320\306y\344"
 440      46BE3326 
 440      E2380104 
 440      7ABE1B2F 
 440      68D0C679 
 441 1bdc BBF1C6D9 		.ascii	"\273\361\306\331'\315\250\274O\000\331\035\362\335\004"
 441      27CDA8BC 
 441      4F00D91D 
 441      F2DD04
 442 1beb 9AC3BF65 		.ascii	"\232\303\277e\305~z\302\013\320\023\236\323\355qx\253"
 442      C57E7AC2 
 442      0BD0139E 
 442      D3ED7178 
 442      AB
 443 1bfc F77361BD 		.ascii	"\367sa\275\351\273\015N\317\307\341\001\300\211\342"
 443      E9BB0D4E 
 443      CFC7E101 
ARM GAS  C:\Users\Thomas\AppData\Local\Temp\ccdc0T6P.s 			page 36


 443      C089E2
 444 1c0b C2D924EA 		.ascii	"\302\331$\352\304\3578(\375V[;<\372\226\235\365\330"
 444      C4EF3828 
 444      FD565B3B 
 444      3CFA969D 
 444      F5D8
 445 1c1d 3241BC55 		.ascii	"2A\274U\324\336\006)\357mu\256\235\023\233\277\337\230"
 445      D4DE0629 
 445      EF6D75AE 
 445      9D139BBF 
 445      DF98
 446 1c2f AD13A549 		.ascii	"\255\023\245I]\314\367\034\214\207k\223\004\365D0\375"
 446      5DCCF71C 
 446      8C876B93 
 446      04F54430 
 446      FD
 447 1c40 E7C393BD 		.ascii	"\347\303\223\275_X7\332-\254\233\264]V\222\221\012\367"
 447      5F5837DA 
 447      2DAC9BB4 
 447      5D569291 
 447      0AF7
 448 1c52 75EE2D87 		.ascii	"u\356-\207d\353\\\370\001\344\302\315\230\013'Y\344"
 448      64EB5CF8 
 448      01E4C2CD 
 448      980B2759 
 448      E4
 449 1c63 C2EF2017 		.ascii	"\302\357 \027n\201\345s2M\215\255p\355Tg\2454\343\215"
 449      6E81E573 
 449      324D8DAD 
 449      70ED5467 
 449      A534E38D 
 450 1c77 80A96076 		.ascii	"\200\251`v\207\\8\225\306\370\035v\211\351\3110\302"
 450      875C3895 
 450      C6F81D76 
 450      89E9C930 
 450      C2
 451 1c88 6D1FD3EC 		.ascii	"m\037\323\354}tn3\207u{\207}L\004p\242a\225\2275\342"
 451      7D746E33 
 451      87757B87 
 451      7D4C0470 
 451      A2619597 
 452 1c9e 0F1CE4BF 		.ascii	"\017\034\344\277\215o\004\374\016\206Pv\324\341i\351"
 452      8D6F04FC 
 452      0E865076 
 452      D4E169E9 
 453 1cae 9DBC76D8 		.ascii	"\235\274v\330\334\324\303\352\367NQ;\276\036\360{|="
 453      DCD4C3EA 
 453      F74E513B 
 453      BE1EF07B 
 453      7C3D
 454 1cc0 00B66969 		.ascii	"\000\266iiFz\237\206c\354\371\222\30342\351]\026\256"
 454      467A9F86 
 454      63ECF992 
 454      C33432E9 
 454      5D16AE
 455 1cd3 BFE3D0C5 		.ascii	"\277\343\320\305-\275\337\360\276\344\263\303\264(\245"
 455      2DBDDFF0 
ARM GAS  C:\Users\Thomas\AppData\Local\Temp\ccdc0T6P.s 			page 37


 455      BEE4B3C3 
 455      B428A5
 456 1ce2 437AEF02 		.ascii	"Cz\357\002\234\310\"y9\342O\360f\221\370=f\367?\320"
 456      9CC82279 
 456      39E24FF0 
 456      6691F83D 
 456      66F73FD0 
 457 1cf6 F3D51A30 		.ascii	"\363\325\0320\341\335\304vL\351\357\031)={\213J\351"
 457      E1DDC476 
 457      4CE9EF19 
 457      293D7B8B 
 457      4AE9
 458 1d08 D3BD9F79 		.ascii	"\323\275\237y\251v3o\2476\363vy\246\364\031\002\204"
 458      A976336F 
 458      A736F376 
 458      79A6F419 
 458      0284
 459 1d1a 7448E971 		.ascii	"tH\351q\002\272\3564\245\357\266O\351{4e\322`\036\306"
 459      02BAEE34 
 459      A5EFB64F 
 459      E97B3465 
 459      D2601EC6 
 460 1d2e 09AAF167 		.ascii	"\011\252\361g/We\211Y\336\233\234ngr\206\226\2652\015"
 460      2F576589 
 460      59DE9B9C 
 460      6E677286 
 460      96B5320D 
 461 1d42 938D7799 		.ascii	"\223\215w\231f\013\020b\232\234\245N\032s\004t\271\336"
 461      660B1062 
 461      9A9CA54E 
 461      1A730474 
 461      B9DE
 462 1d54 6818D229 		.ascii	"h\030\322)\223\367Z\232\214\305\266,M\231}`\362\034"
 462      93F75A9A 
 462      8CC5B62C 
 462      4D997D60 
 462      F21C
 463 1d66 75C66D5A 		.ascii	"u\306mZ\246v1s\275O)\331\346l\313\361H\221\363\274\337"
 463      A6763173 
 463      BD4F29D9 
 463      E66CCBF1 
 463      4891F3BC 
 464 1d7b C5EC3799 		.ascii	"\305\3547\231\034\360\310K\363\005h\003\314h\334\367"
 464      1CF0C84B 
 464      F3056803 
 464      CC68DCF7 
 465 1d8b 29E60BAC 		.ascii	")\346\013\254\230[\307C\256\311\374\240\007\363\205"
 465      985BC743 
 465      AEC9FCA0 
 465      07F385
 466 1d9a 82042CF0 		.ascii	"\202\004,\360\330\"-\022\324\027\352\276EZDq\372G\367"
 466      D8222D12 
 466      D417EABE 
 466      455A4471 
 466      FA47F7
 467 1dad 2D52A8FB 		.ascii	"-R\250\373\026)\324\265E\012m\022\303{\303{j\342=\334"
 467      1629D4B5 
ARM GAS  C:\Users\Thomas\AppData\Local\Temp\ccdc0T6P.s 			page 38


 467      450A6D12 
 467      C37BC37B 
 467      6AE23DDC 
 468 1dc1 22FD89B6 		.ascii	"\"\375\211\266H#\344t\373\343\344v\334!\275o\034\237"
 468      4823E474 
 468      FBE3E476 
 468      DC21BD6F 
 468      1C9F
 469 1dd3 73B23AB7 		.ascii	"s\262:\267C\312\263\337!\035\322ft\276k\207\364g\267"
 469      43CAB3DF 
 469      211DD266 
 469      74BE6B87 
 469      F467B7
 470 1de6 1F710432 		.ascii	"\037q\0042z9?F\215x5\254/\326\277\3428l\036T\325\357"
 470      7A393F46 
 470      8D7835AC 
 470      2FD6BFE2 
 470      386C1E54 
 471 1dfc 03AE73C0 		.ascii	"\003\256s\300\007\227\025)G\326phU[\2551\251ey\312\031"
 471      07971529 
 471      47D67068 
 471      555BAD31 
 471      A96579CA 
 472 1e11 B5C0D5E6 		.ascii	"\265\300\325\346\247\030G<\331\326q \320\367\003\365"
 472      A718473C 
 472      D9D67120 
 472      D0F703F5 
 473 1e21 9C58D771 		.ascii	"\234X\327qV\304\235\226u\351\340zx\273\236\037u\376"
 473      56C49D96 
 473      75E9E07A 
 473      78BB9E1F 
 473      75FE
 474 1e33 C800BF05 		.ascii	"\310\000\277\005\177\365Y!>p36\010\265\252-\210Q\021"
 474      7FF55921 
 474      3E703336 
 474      08B5AA2D 
 474      885111
 475 1e46 7DD1DED8 		.ascii	"}\321\336\330c\206V\206i\2278\340\353\306^\346\320*"
 475      63865686 
 475      699738E0 
 475      EBC65EE6 
 475      D02A
 476 1e58 392C9F3D 		.ascii	"9,\237='\021\177!*\217\324\374\270S\331n\354\205\256"
 476      27117F21 
 476      2A8FD4FC 
 476      B853D96E 
 476      EC85AE
 477 1e6b DCC6F602 		.ascii	"\334\306\366\002CJ\271\332\332]\345@@\263\320\210\377"
 477      434AB9DA 
 477      DA5DE540 
 477      40B3D088 
 477      FF
 478 1e7c 2A4EB2AE 		.ascii	"*N\262\256\252\227y\006\333L\220{-'\310\011\313\011"
 478      AA977906 
 478      DB4C907B 
 478      2D27C809 
 478      CB09
ARM GAS  C:\Users\Thomas\AppData\Local\Temp\ccdc0T6P.s 			page 39


 479 1e8e 320A26C8 		.ascii	"2\012&\310Im\202\234\202\370\257\242\267c\376\342\346"
 479      496D829C 
 479      82F8AFA2 
 479      B763FEE2 
 479      E6
 480 1e9f B4602AF2 		.ascii	"\264`*\362\237ZnW\344\037h)\367\264\245\334\337\342"
 480      9F5A6E57 
 480      E41F6829 
 480      F7B4A5DC 
 480      DFE2
 481 1eb1 7FC8A2C9 		.ascii	"\177\310\242\311=\3434\1771\377\241\233\330\020z~T\334"
 481      3DE3347F 
 481      31FFA19B 
 481      D8107A7E 
 481      54DC
 482 1ec3 49B167ED 		.ascii	"I\261g\355\305\026ib\213\235\346\363\243\351%N\033\011"
 482      C5166962 
 482      8B9DE6F3 
 482      A3E9254E 
 482      1B09
 483 1ed5 D63FD728 		.ascii	"\326?\327(\261\224\200o\227\224j\022\3169]\217\344J"
 483      B194806F 
 483      97946A12 
 483      CE395D8F 
 483      E44A
 484 1ee7 623AF7D4 		.ascii	"b:\367\324\257\314~\315>\257\211\270\340\362\335Gn\276"
 484      AFCC7ECD 
 484      3EAF89B8 
 484      E0F2DD47 
 484      6EBE
 485 1ef9 0BA5A0AE 		.ascii	"\013\245\240\2560\202\272\310~\236\227{F_1\007|}\236"
 485      3082BAC8 
 485      7E9E977B 
 485      465F3107 
 485      7C7D9E
 486 1f0c 977068ED 		.ascii	"\227ph\355\030\324\245\267\231\330\025\236l\317q \320"
 486      18D4A5B7 
 486      99D8159E 
 486      6CCF7120 
 486      D0
 487 1f1d 83BA8C13 		.ascii	"\203\272\214\023\353s\267\015j\370\271]%\006u\231\031"
 487      EB73B70D 
 487      6AF8B95D 
 487      25067599 
 487      19
 488 1f2e D47F7533 		.ascii	"\324\177u36\214\202\372\242\021\324'\354\215\275\350"
 488      368C82FA 
 488      A211D427 
 488      EC8DBDE8 
 489 1f3e 19D42739 		.ascii	"\031\324'9\340\353\306\236\342\320\3321\212O\337\306"
 489      E0EBC69E 
 489      E2D0DA31 
 489      8A4FDFC6 
 490 1f4e D84B9E51 		.ascii	"\330K\236Q\\\310\201\300=\212\317pb^xGQ|\331>\212\257"
 490      5CC881C0 
 490      3D8ACF70 
 490      625E7847 
ARM GAS  C:\Users\Thomas\AppData\Local\Temp\ccdc0T6P.s 			page 40


 490      517CD93E 
 491 1f64 6859FC2A 		.ascii	"hY\374*D\361\031\212\342\217\335\274\024NQ\\\335\311"
 491      44F1198A 
 491      E28FDDBC 
 491      144E515C 
 491      DDC9
 492 1f76 70AAB20F 		.ascii	"p\252\262\017\247k\232\334j\327L\374\304Ml\027\012\200"
 492      A76B9ADC 
 492      6AD74CFC 
 492      C44D6C17 
 492      0A80
 493 1f88 864E8ABD 		.ascii	"\206N\212\275n/\266F\023[\253Eqc\347\242\270\316>\212"
 493      6E2FB646 
 493      135BAB45 
 493      7163E7A2 
 493      B8CE3E8A 
 494 1f9c EB35090D 		.ascii	"\3535\011\015"
 495 1fa0 5A143776 		.ascii	"Z\0247v2\212\033\355\243\370\206&\242\311\345\273O\231"
 495      328A1BED 
 495      A3F88626 
 495      A2C9E5BB 
 495      4F99
 496 1fb2 F9EBF708 		.ascii	"\371\353\367\010l\370\202\321\377\237R;S\275\227v\330"
 496      6CF882D1 
 496      FF9F523B 
 496      53BD9776 
 496      D8
 497 1fc3 EEBDB466 		.ascii	"\356\275\264f\247\305{i\207\365\367\322\276\301\367"
 497      A7C57B69 
 497      87F5F7D2 
 497      BEC1F7
 498 1fd2 D23E53EF 		.ascii	"\322>S\357\245\325\037\277\355{i-N|/\315\374\021\177"
 498      A5D51FBF 
 498      ED7B692D 
 498      4E7C2FCD 
 498      FC117F
 499 1fe5 443B67FC 		.ascii	"D;g\374\027\247\372\261M9\376\277a\214\005\014\373\360"
 499      17A7FAB1 
 499      4D39FEBF 
 499      618C050C 
 499      FBF0
 500 1ff7 BB4FBFFE 		.ascii	"\273O\277\376~\330\347\314\367"
 500      7ED8E7CC 
 500      F7
 501 2000 B3FFFEDB 		.ascii	"\263\377\376\333\337\276\374/\307\347\337}\341\370\177"
 501      DFBEFC2F 
 501      C7E7DF7D 
 501      E1F87F
 502 200f DFFDC0BF 		.ascii	"\337\375\300\277\346\337\360o\371\017\374\213\300_\277"
 502      E6DFF06F 
 502      F90FFC8B 
 502      C05FBF
 503 201e F3EE1BAF 		.ascii	"\363\356\033\257\014\0300\340k\366\377\001mW\315\211"
 503      0C1830E0 
 503      6BF6FF01 
 503      6D57CD89 
 504              		.text
ARM GAS  C:\Users\Thomas\AppData\Local\Temp\ccdc0T6P.s 			page 41


 505              		.section	.gnu.lto_.symbol_nodes.c0d66b72,"",%progbits
 506 0000 789C4DCE 		.ascii	"x\234M\316IO\023a\030\300\361\177;\335\240@\001\313"
 506      494F1361 
 506      18C0F17F 
 506      3BDDA040 
 506      01CB
 507 0012 5636F77D 		.ascii	"V6\367}=y\360\340G\3613\370\011\036\016\023M4\032\023"
 507      3D79F0E0 
 507      47F133F8 
 507      091E0E13 
 507      4D341A13 
 508 0026 123C594C 		.ascii	"\022<YL\234\300\305\2337\271\264v\334\021\027p\027\321"
 508      9CC0C59B 
 508      37B9B476 
 508      DC111770 
 508      17D1
 509 0038 76C4AD52 		.ascii	"v\304\255R\343\261\204\350\3143\036\236\271\374\336"
 509      E3B184E8 
 509      CC331E9E 
 509      B9FCDE
 510 0047 FFF3CE3B 		.ascii	"\377\363\316;\363:@2E\374$_ pe\011D(_/\222\256\300\215"
 510      F33A4032 
 510      45FC245F 
 510      20706509 
 510      44285F2F 
 511 005f A4905E22 		.ascii	"\244\220^\"\241\336!\251Vq\324\207\244\324g\244\325"
 511      A1DE21A9 
 511      5671D487 
 511      A4D467A4 
 511      D5
 512 0070 C764D4A7 		.ascii	"\307d\324\247dU\237\234\372\234\016u\221N\365\011y\365"
 512      64559F9C 
 512      FA9C0E75 
 512      914EF509 
 512      79F5
 513 0082 3E5DEAE9 		.ascii	">]\352\351n\245F\217z\217\202z\227^\365\021}\352\003"
 513      6EA5468F 
 513      7A8F827A 
 513      975EF511 
 513      7DEA03
 514 0095 FA2313EB 		.ascii	"\372#\023\353H\"\276'SS9\022_\220\244\355\337\210c\273"
 514      4822BE27 
 514      53533912 
 514      5F90A4ED 
 514      DF8863BB 
 515 00a9 85A46C6F 		.ascii	"\205\244lo i\333\277\220\214\355\037H\326\366w$g\273"
 515      2069DBBF 
 515      908CED1F 
 515      48D6F677 
 515      2467BB
 516 00bc 8974D8FE 		.ascii	"\211t\330\376\211t\332\016\220\274\355oH\227\355\257"
 516      8974DA0E 
 516      90BCED6F 
 516      4897EDAF 
 517 00cc 48B7ED06 		.ascii	"H\267\355\006\322c\273\216\024l\177Fzm\177B\372l\257"
 517      D263BB8E 
 517      146C7F46 
ARM GAS  C:\Users\Thomas\AppData\Local\Temp\ccdc0T6P.s 			page 42


 517      7A6D7F42 
 517      FA6CAF
 518 00df 21FDB63F 		.ascii	"!\375\266?\"\333l\257\"E\333\037\220\001\333\357\221"
 518      22DB6CAF 
 518      2245DB1F 
 518      9001DBEF 
 518      91
 519 00f0 41DBEF90 		.ascii	"A\333\357\220!\333o\221a\333o\220\021\333\257\221\222"
 519      21DB6F91 
 519      61DB6F90 
 519      11DBAF91 
 519      92
 520 0101 ED57C8A8 		.ascii	"\355W\310\250\355\227\310\230\355\025d\334\36622a\332"
 520      ED97C898 
 520      ED1564DC 
 520      F6323261 
 520      DA
 521 0112 E104EEB9 		.ascii	"\341\004\356\271\346\244\303q<\365\030\276z\224@=\202"
 521      E6A4C371 
 521      3CF518BE 
 521      7A94403D 
 521      82
 522 0123 7B3EF230 		.ascii	"{>\3620\236z\010_=H\240\036\300\275\020\271\037O\335"
 522      9E7A085F 
 522      3D48A01E 
 522      C0BD10B9 
 522      1F4FDD
 523 0136 87AFEE25 		.ascii	"\207\257\356%P\367\340^\214\334\215\247\356\302Ww\022"
 523      50F7E05E 
 523      8CDC8DA7 
 523      EEC25777 
 523      12
 524 0147 A83B702F 		.ascii	"\250;p/GN\020L\257l\236q\030\300\233\011n\237u(\022"
 524      474E104C 
 524      AF6C9E71 
 524      18C09B09 
 524      6E9F7528 
 525 015c CC34B74E 		.ascii	"\3144\267NF[^\271\331>\025m\005\345\377[\336\354\342"
 525      465B5EB9 
 525      D93E156D 
 525      05E5FF5B 
 525      DEECE2
 526 016f A582C376 		.ascii	"\245\202\303v\202Y\235\204\357\324+7\257\3668L\022\324"
 526      82599D84 
 526      EFD42B37 
 526      AFF6384C 
 526      12D4
 527 0181 2B6BCBF9 		.ascii	"+k\313\371h\3466\342\331(~\243\262\3727\343P\302]\257"
 527      68E636E2 
 527      D9287EA3 
 527      B2FA37E3 
 527      50C25DAF 
 528 0195 B4C2CD71 		.ascii	"\264\302\315q\202Ve\313q\030\303\375\243\213\360\307"
 528      825665CB 
 528      7118C3FD 
 528      A38BF0C7 
 529 01a5 73D56BD3 		.ascii	"s\325k\323\011\375\363\\\265\235\215\316\271\363\361"
ARM GAS  C:\Users\Thomas\AppData\Local\Temp\ccdc0T6P.s 			page 43


 529      09FDF35C 
 529      B59D8DCE 
 529      B9F3F1
 530 01b4 A8843FAF 		.ascii	"\250\204?\257\243\360\016\033\325\350\003\341\035Z\325"
 530      A3F00E1B 
 530      D5E803E1 
 530      1D5AD5
 531 01c3 E8DC086E 		.ascii	"\350\334\010n[\027\303x\233\272\030\012_\256E\213A\334"
 531      5B17C378 
 531      9BBA180A 
 531      5FAE458B 
 531      41DC
 532 01d5 5BB5F8DB 		.ascii	"[\265\370\333\356B->\345/\204\023\376\001\217A0\211"
 532      EE422D3E 
 532      E52F8413 
 532      FE018F41 
 532      3089
 533              		.text
 534              		.section	.gnu.lto_.refs.c0d66b72,"",%progbits
 535 0000 789C1D8E 		.ascii	"x\234\035\216YKUa\024\206\337\367\373\216\303\031\314"
 535      594B5561 
 535      1486DFF7 
 535      FB8EC319 
 535      CC
 536 0011 E932227F 		.ascii	"\3512\"\177\200\"\371\003\374mez\262\033\021M\023\023"
 536      8022F903 
 536      FC6D657A 
 536      B21B114D 
 536      1313
 537 0023 A49B2E4A 		.ascii	"\244\233.JL\355FPrD0\275\020\011\247\354d\307\234rF"
 537      4CED4650 
 537      724430BD 
 537      1009A7EC 
 537      64C79C72 
 538 0038 D1380EF8 		.ascii	"\3218\016\370\320\206\207g\255w\255\265\367\216\222"
 538      D0868767 
 538      AD77ADB5 
 538      F78E92
 539 0047 F2D6FFA7 		.ascii	"\362\326\377\247\000~\254\360D\361\251\0225\016\265"
 539      007EACF0 
 539      44F1A912 
 539      350EB5
 540 0056 729D42BD 		.ascii	"r\235B\275\3423%\032\034\032]\364MN\254\300\252\034"
 540      E233251A 
 540      1C1A5DF4 
 540      4D4EACC0 
 540      AA1C
 541 0068 D7605DF6 		.ascii	"\327`]\366\206\\\374C.\331\204\237riNN\346\345\324\271"
 541      865CFC43 
 541      2ED9849F 
 541      72694E4E 
 541      E6E5D4B9 
 542 007c 9CBE9433 		.ascii	"\234\276\2243\327d\005\271\354\016\236\333\361\0054"
 542      D76405B9 
 542      EC0E9EDB 
 542      F10534
 543 008b D97E693F 		.ascii	"\331~i?j\266\213[\354\222,\274\262\213\332\255T\247"
ARM GAS  C:\Users\Thomas\AppData\Local\Temp\ccdc0T6P.s 			page 44


 543      6AB68B5B 
 543      EC922CBC 
 543      B28BDAAD 
 543      54A7
 544 009d 9579837B 		.ascii	"\225y\203{\340\203\025?\332\311OdCVz\224~\214\373\257"
 544      E083153F 
 544      DAC94F64 
 544      43567A94 
 544      7E8CFBAF 
 545 00b1 78024FB3 		.ascii	"x\002O\2633\303l\226\331\034,\323\177\247_\261\023\353"
 545      33C36C96 
 545      D91C2CD3 
 545      7FA75FB1 
 545      13EB
 546 00c3 B0612573 		.ascii	"\260a%sv\371/\274\205\177\343<\336\306\177\360\016\336"
 546      76F92FBC 
 546      857FE33C 
 546      DEC67FF0 
 546      0EDE
 547 00d5 C57B781F 		.ascii	"\305{x\037\037\330\025\177\341\320\256<\342\037\217"
 547      1FD8157F 
 547      E1D0AE3C 
 547      E21F8F
 548 00e4 ED7002A7 		.ascii	"\355p\002\247V\3519\357\277\240\276\342\033\377 \033"
 548      56E939EF 
 548      BFA0BEE2 
 548      1BFF201B 
 549 00f4 145B8393 		.ascii	"\024[\203\223\257\2032m\324\035\301\261+(\325M\3776"
 549      AF83326D 
 549      D41DC1B1 
 549      2B28D54D 
 549      FF36
 550 0106 38F453BF 		.ascii	"8\364S\277\207\317\314F\330\373B>J=\316\336\004\371"
 550      87CFCC46 
 550      D8FB423E 
 550      4A3DCEDE 
 550      04F9
 551 0118 24FD147B 		.ascii	"$\375\024{\363\324\013\324\213x\011r\354\344\331\337"
 551      F3D40BD4 
 551      8B780972 
 551      ECE4D9DF 
 552 0128 26DB0F4A 		.ascii	"&\333\017J\237\321_ps\205\257q\201\235\033f\267\314"
 552      9FD15F70 
 552      7385AF71 
 552      819D1B66 
 552      B7CC
 553 013a EEB9CF46 		.ascii	"\356\271\317FWuGW\367@ot\331\273\350\212>\262\001\372"
 553      57754757 
 553      F7406F74 
 553      D9BBE88A 
 553      3EB201FA 
 554 014e 4118221B 		.ascii	"A\030\"\033&\033\211z\000^\303^\265"
 554      261B897A 
 554      005EC35E 
 554      B5
 555              		.text
 556              		.section	.gnu.lto_.decls.c0d66b72,"",%progbits
ARM GAS  C:\Users\Thomas\AppData\Local\Temp\ccdc0T6P.s 			page 45


 557 0000 789CAD58 		.ascii	"x\234\255X{PTW\232\357sO7\315\243\201$\263\245S\356"
 557      7B505457 
 557      9AEF734F 
 557      37CDA381 
 557      24B3A553 
 558 0015 D40C6E76 		.ascii	"\324\014nv\250\335\235T6\235\332\265R[5e&\246*\233T"
 558      A8DD9D54 
 558      369DDAB5 
 558      525B3565 
 558      26A62A9B 
 559 002a CDAC6B26 		.ascii	"\315\254k&;U\233\354\022\204\326\260k\300\201fS\376"
 559      3B559BEC 
 559      1284D6B0 
 559      6BC08166 
 559      53FE
 560 003c B5571005 		.ascii	"\265W\020\005DDD\345)\215\020^\"oy+ \242\370@P\020A"
 560      444444E5 
 560      298D105E 
 560      226F792B 
 560      20A2F840 
 561 0053 DEC8431E 		.ascii	"\336\310C\036B\363P\020\305\336\357|\347\336\3466\015"
 561      42F35010 
 561      C5DEEF7C 
 561      E7DEE636 
 561      0D
 562 0064 29ADDAAE 		.ascii	")\255\332\256\372q\373^~\347\367\375\316\367}\347\334"
 562      FA71FB5E 
 562      7EE7F7FD 
 562      CEF77DE7 
 562      DC
 563 0075 7B9BAA54 		.ascii	"{\233\252T\252lA\245\262\300\307\347/U*\215F\245\202"
 563      AA6C41A5 
 563      B2C0C7E7 
 563      2F552A8D 
 563      46A582
 564 0088 53D54E00 		.ascii	"S\325N\000\005\024\000\312\000U*\376\371\025\240\016"
 564      051400CA 
 564      00552AFE 
 564      F915A00E 
 565 0098 7015701D 		.ascii	"p\025p\035p\013\320\014h\005\334\003<\000t\001\272\001"
 565      700BD00C 
 565      6805DC03 
 565      3C007401 
 565      BA01
 566 00aa BD807EC0 		.ascii	"\275\200~\300 \340\021`\0040\006\030\007L\002\236\000"
 566      20E01160 
 566      04300618 
 566      074C029E 
 566      00
 567 00bb 6600B380 		.ascii	"f\000\263\200y\300S\300\"\3409\340\005`\005`\001\020"
 567      79C053C0 
 567      22E039E0 
 567      05600560 
 567      0110
 568 00cd 025E008E 		.ascii	"\002^\000\216\200\237\301\271;\0347\003\266\000~\001"
 568      809FC1B9 
 568      3B1C3703 
ARM GAS  C:\Users\Thomas\AppData\Local\Temp\ccdc0T6P.s 			page 46


 568      B6007E01 
 569 00dd F825C003 		.ascii	"\370%\300\003\360.\340\327\200\177\000l\003|\004\370"
 569      F02EE0D7 
 569      807F006C 
 569      037C04F8 
 570 00ed 27C06F01 		.ascii	"'\300o\001\333\001_\000~\017\370\027\300.\300WDe\363"
 570      DB015F00 
 570      7E0FF817 
 570      C02EC057 
 570      4465F3
 571 0100 61F3DA0A 		.ascii	"a\363\332\012p\003\350\000_\000\376\235\360\271\263"
 571      7003E800 
 571      5F00FE9D 
 571      F0B9B3
 572 010f 1C6C0278 		.ascii	"\034l\002x\000\276\206k\016\200o\000w\340\374?\340x"
 572      00BE866B 
 572      0E806F00 
 572      77E0FC3F 
 572      E078
 573 0121 038EFF09 		.ascii	"\003\216\377\011GW\200\027\340/\000\337\002\032\341"
 573      47578017 
 573      E02F00DF 
 573      021AE1
 574 0130 BA37E179 		.ascii	"\2727\341y\274\002\330\015\337}\000\367\245\034\373"
 574      BC02D80D 
 574      DF7D00F7 
 574      A51CFB
 575 013f C2F70F01 		.ascii	"\302\367\017\001\357\001<\001\006\300\016b\233kGi\376"
 575      EF013C01 
 575      06C00E62 
 575      9B6B4769 
 575      FE
 576 0150 2C0F1629 		.ascii	",\017\026)//\244<-Jy\233\227\3628#\345uR\312\363\230"
 576      2F2FA43C 
 576      2D4A799B 
 576      97F23823 
 576      E57552CA 
 577 0166 94F77EA9 		.ascii	"\224\367~\251^W\245Z\014Juz \325\251[\252_\253TOV\327"
 577      5E57A55A 
 577      0C4A757A 
 577      20D5A95B 
 577      AA5FAB54 
 578 017d BF06EC81 		.ascii	"\277\006\354\201\230{\311\3729\377\016\340\007\370/"
 578      987BC9FA 
 578      39FF0EE0 
 578      07F82F
 579 018c C07F03F6 		.ascii	"\300\177\003\366\001\276\007\370\003\002\000\373\001"
 579      01BE07F8 
 579      030200FB 
 579      01
 580 0199 7F060402 		.ascii	"\177\006\004\002\202\000F@0\340\177\376\237\3525+\220"
 580      82004640 
 580      30E07FFE 
 580      9FEA352B 
 580      90
 581 01aa 7321617D 		.ascii	"s!a}j*\020\366==~\260\335\371\275\\Q\024\303\305\272"
 581      6A2A10F6 
ARM GAS  C:\Users\Thomas\AppData\Local\Temp\ccdc0T6P.s 			page 47


 581      3D3D7EB0 
 581      DDF9BD5C 
 581      5114C3C5 
 582 01bf 3AB24A6A 		.ascii	":\262Jj:\237\362-ug\034\365\243\344\3022w\342\271e\213"
 582      3A9FF22D 
 582      75671CF5 
 582      A3E4C232 
 582      77E2B965 
 583 01d4 7306F23E 		.ascii	"s\006\362>&\027\2103\311!T!\033\017\327\227\266\263"
 583      26178833 
 583      C9215421 
 583      1B0FD797 
 583      B6B3
 584 01e6 7FC05747 		.ascii	"\177\300WG<\206\213b\210h\216\025\351\317U\344\275-"
 584      3C868B62 
 584      88688E15 
 584      E9CF55E4 
 584      BD2D
 585 01f8 E46FB7A8 		.ascii	"\344o\267\250H.\361\304\261\331\344=\025\311#[\310y"
 585      482EF1C4 
 585      B1D9E43D 
 585      15C9235B 
 585      C879
 586 020a B2052208 		.ascii	"\262\005\"\010\217C\243z\234\210'\352\233\363Nw\377"
 586      8F43A37A 
 586      9C8827EA 
 586      9BF34E77 
 586      FF
 587 021b 4214D5A4 		.ascii	"B\024\325\244\000\210Y\204\"\031\352\310$\361\263\216"
 587      00885984 
 587      2219EAC8 
 587      24F1B38E 
 588 022b 6EFE7ABA 		.ascii	"n\376z\272L\000&rkhi^\367X n\316o\261y%>\030Y\240p\252"
 588      4C002672 
 588      6B68695E 
 588      F758206E 
 588      CE6FB179 
 589 0246 7316D869 		.ascii	"s\026\330i\312\334t\215\023\335\206\2718\230Y\035\245"
 589      CADC748D 
 589      13DD86B9 
 589      3898591D 
 589      A5
 590 0257 857F7938 		.ascii	"\205\177y8c\006\316L.\225:\342\251\305B\231\313\027"
 590      6306CE4C 
 590      2E953AE2 
 590      A9C54299 
 590      CB17
 591 0269 8FF2B31C 		.ascii	"\217\362\263\034$\227\246\363\256\204\224A\310\342U"
 591      2497A6F3 
 591      AE849441 
 591      C8E255
 592 0278 871E4A83 		.ascii	"\207\036J\203b\250\250\311vS\221BpS\304\334\\\004\217"
 592      62A8A8C9 
 592      76539142 
 592      7053C4DC 
 592      5C048F
 593 028b 1E92C512 		.ascii	"\036\222\305\022\270X\312.\226\241\305\216\332#G\034"
ARM GAS  C:\Users\Thomas\AppData\Local\Temp\ccdc0T6P.s 			page 48


 593      B858CA2E 
 593      96A1C58E 
 593      DA23471C 
 594 029b E96F6D4C 		.ascii	"\351omLl\342&\242o%\326S<\265\260\177\013]]q\317)q\366"
 594      6CE226A2 
 594      6F25D653 
 594      3CB5B07F 
 594      0B5D5D71 
 595 02b3 5C2709D5 		.ascii	"\\'\011\325\020`\223\024\240\002\002TB\000\264\232\013"
 595      10609314 
 595      A0020254 
 595      4200B49A 
 595      0B
 596 02c4 56ABC06A 		.ascii	"V\253\300j\371\252\325M\222Uv\035\242T\346/4\273`\216"
 596      F9AAD54D 
 596      9255761D 
 596      A254E62F 
 596      34BB608E 
 597 02d8 3C58D0AA 		.ascii	"<X\320\252\330\246x\007\314\221\232\235\266>|Z\342\262"
 597      D8A67807 
 597      CC919A9D 
 597      B63E7C5A 
 597      E2B2
 598 02ea F9144889 		.ascii	"\371\024H\2111\241\342[j\362\2053\251\201\000\227 \200"
 598      31A1E25B 
 598      6AF28533 
 598      A9810097 
 598      2080
 599 02fc 8A5C269B 		.ascii	"\212\\&\233\255M\223;\230\231\375z\314\241\344\213O"
 599      AD4D933B 
 599      9899FD7A 
 599      CCA1E48B 
 599      4F
 600 030d 741E6745 		.ascii	"t\036gES\221\371hz\213\220 \232B\304W\026\230#\251%"
 600      5391F968 
 600      7A8B9020 
 600      9A42C457 
 600      169823A9 
 601 0322 9BC937B2 		.ascii	"\233\3117\262Q\025|\345F\353\210\007s\326e:\241U\303"
 601      51157CE5 
 601      46EB8807 
 601      73D6653A 
 601      A155C3
 602 0335 5E8BDDF1 		.ascii	"^\213\335\3615\332\273^<_\240V\006\335\271I\021\364"
 602      35DABB5E 
 602      3C5FA056 
 602      06DDB949 
 602      11F4
 603 0347 0A0B4AEA 		.ascii	"\012\013J\352\211\232\307=v\243\364GJ\177\217\251\356"
 603      899AC73D 
 603      76A3F447 
 603      4A7F8FA9 
 603      EE
 604 0358 9F8F9B77 		.ascii	"\237\217\233w\005\017\003\242\371R\372I\327\0041M\366"
 604      050F03A2 
 604      F952FA49 
 604      D704314D 
ARM GAS  C:\Users\Thomas\AppData\Local\Temp\ccdc0T6P.s 			page 49


 604      F6
 605 0369 00834803 		.ascii	"\000\203H\003Y5\321 \365:\271\212.\"\016\025Re@\226"
 605      5935D120 
 605      F53AB98A 
 605      2E220E15 
 605      52654096 
 606 037d DCD5888D 		.ascii	"\334\325\210\215\030\361k)\340\253\352\202(\201\206"
 606      18F16B29 
 606      E0ABEA82 
 606      288186
 607 038c 128C98DC 		.ascii	"\022\214\230\334`\272\357\206\021\007:+|\257\034\022"
 607      60BAEF86 
 607      11073A2B 
 607      7CAF1C12 
 608 039c 5FB2D662 		.ascii	"_\262\326b#\3105E\270kr\270\353\030\256&cb\332\005'"
 608      23C83545 
 608      B86B72B8 
 608      EB18AE26 
 608      6362DA05 
 609 03b1 5D669D74 		.ascii	"]f\235t\377\305g\345\316\033N\372\006Zh\262N\272;yN"
 609      FFC567E5 
 609      CE1B4EFA 
 609      065A68B2 
 609      4EBA3B79 
 610 03c6 4B4F730F 		.ascii	"KOs\017\303+G_\010|\326}a\317\376\371DhL\2068`\261\374"
 610      C32B475F 
 610      087CD67D 
 610      61CFFEF9 
 610      44684C86 
 611 03de 0A47919B 		.ascii	"\012G\221\233\012\0337e\033\267\320\306\300|x\216@\333"
 611      0A1B3765 
 611      1BB7D0C6 
 611      C07C788E 
 611      40DB
 612 03f0 B94ADFD3 		.ascii	"\271J\337\323\362\036wT\211\351\311:\354\321$\326Y,"
 612      F21E7754 
 612      89E9C93A 
 612      ECD124D6 
 612      592C
 613 0402 DB51E1B6 		.ascii	"\333Q\341\266B\341\266\254\320\214\012\325/\206\332"
 613      42E1B6AC 
 613      D08C0AD5 
 613      2F86DA
 614 0411 37AED41D 		.ascii	"7\256\324\035\233\274E\304//\253i,\337\245r\305\224"
 614      9BBC45C4 
 614      2F2FAB69 
 614      2CDFA572 
 614      C594
 615 0423 5A35F75C 		.ascii	"Z5\367\\;~\224**\005\203H\213\"b\213\034\261\025#f\026"
 615      3B7E942A 
 615      2A058348 
 615      8B22628B 
 615      1CB11523 
 616 0439 2E353BD3 		.ascii	".5;\323:\256\"\346\205ej\270\347\224\363V\317L\341\256"
 616      3AAE22E6 
 616      85656AB8 
 616      E794F356 
ARM GAS  C:\Users\Thomas\AppData\Local\Temp\ccdc0T6P.s 			page 50


 616      CF4CE1AE 
 617 044d 42E1AEAC 		.ascii	"B\341\256\254p\017\025\316\2345\277p\322E\262\345\006"
 617      700F15CE 
 617      9C35BF70 
 617      D245B2E5 
 617      06
 618 045e 9E9D9ADC 		.ascii	"\236\235\232\334\326T\273\215\350\244\226NH\211\233"
 618      D654BB8D 
 618      E8A4964E 
 618      48899B
 619 046d E365826B 		.ascii	"\343e\202kR\231:j3\343\335\2253.\263\031|\037\247\334"
 619      52993A6A 
 619      33E3DD95 
 619      332EB319 
 619      7C1FA7DC 
 620 0481 2ED7A97C 		.ascii	".\327\251|,5\317\205Ns\267\325\213'\2634Rw>:\355\246"
 620      2C35CF85 
 620      4E73B7D5 
 620      8B27B334 
 620      52773E3A 
 621 0497 98338C22 		.ascii	"\2303\214\"\035\012\307\035\262\343\007\274N\235\213"
 621      1D0AC71D 
 621      B2E307BC 
 621      4E9D8B
 622 04a6 63CE7485 		.ascii	"c\316t\205\253$\214_>\346\214*\246\256b\361\023\336"
 622      AB248C5F 
 622      3EE68C2A 
 622      A6AE62F1 
 622      13DE
 623 04b8 71D8709D 		.ascii	"q\330p\235\012\205NY\241\013\025J\313\302z\005z\202"
 623      0A854E59 
 623      A10B154A 
 623      CBC27A05 
 623      7A82
 624 04ca A242C9CD 		.ascii	"\242B\311\315\353IR\277\324\346D\257\315\375C\205\312"
 624      EB4952BF 
 624      D4E644AF 
 624      CDFD4385 
 624      CA
 625 04db 4359A51B 		.ascii	"CY\245\033U*\012\017/;\320\024\256R\364\374d\271v\335"
 625      552A0A0F 
 625      2F3BD014 
 625      AE52F4FC 
 625      64B976DD 
 626 04ef DCF72814 		.ascii	"\334\367(\024zd\205^T8\233W\263\242\2419\\ad\361\304"
 626      7A64855E 
 626      54389B57 
 626      B3A2A139 
 626      5C6164F1 
 627 0504 08E53E22 		.ascii	"\010\345>\"\013\312?Q\364-\233M\237B\245OV\351G\225"
 627      0BCA3F51 
 627      F42D9B4D 
 627      9F42A54F 
 627      56E94795 
 628 0518 D9F8A661 		.ascii	"\331\370\246a\015\035\346*i\231'N8JYm\270\247\\\363"
 628      0D1DE62A 
 628      6999274E 
ARM GAS  C:\Users\Thomas\AppData\Local\Temp\ccdc0T6P.s 			page 51


 628      384A596D 
 628      B8A75CF3 
 629 052c 4C6540A1 		.ascii	"Le@\2412 \253\014\242J\355\330\370\004\241O\271J\375"
 629      3220AB0C 
 629      A24AEDD8 
 629      F804A14F 
 629      B94AFD
 630 053f 91E94569 		.ascii	"\221\351Ei\347\210l\261\3632\244P\031\222U\036\241J"
 630      E7886CB1 
 630      F332A450 
 630      1992551E 
 630      A14A
 631 0551 735FD984 		.ascii	"s_\331\204\232\306\251Q\245\355x\341\035\251\302w\212"
 631      9AC6A951 
 631      A5ED78E1 
 631      1DA9C277 
 631      8A
 632 0562 6AF46B32 		.ascii	"j\364k2;\254P\031\226UFP\245d\2645\311\205\336\346*"
 632      3BAC5019 
 632      96554650 
 632      A564B435 
 632      C985DEE6 
 633 0577 2FEEB7D7 		.ascii	"/\356\267\327\272H\353\271qZ\271\236\231\312\250BeT"
 633      BA48EBB9 
 633      715AB99E 
 633      99CAA842 
 633      6554
 634 0589 56194395 		.ascii	"V\031C\225\261\301\351W\256\264\217\253\224\306\037"
 634      B1C1E957 
 634      AEB48FAB 
 634      94C61F
 635 0598 93449E94 		.ascii	"\223D\236\224,\351\316\330n\012\217\025\"\217e\221q"
 635      2CE9CED8 
 635      6E0A8F15 
 635      228F6591 
 635      71
 636 05a9 14B9D711 		.ascii	"\024\271\327\021\235)\320x\015\212\034-\177p\322\211"
 636      9D29D078 
 636      0D8A1C2D 
 636      7F70D289 
 637 05b9 375B64BA 		.ascii	"7[d\272M\221'\024\012\023\262\302$*\\~\331]\247\241"
 637      4D912714 
 637      0A13B2C2 
 637      242A5C7E 
 637      D95DA7A1 
 638 05cd 595CE1C8 		.ascii	"Y\\\341\310R\301M\356\243\360\325\305%\235\"%\314\307"
 638      52C14DEE 
 638      A3F0D5C5 
 638      259D2225 
 638      CCC7
 639 05df 9442654A 		.ascii	"\224BeJVy\202*mc\035s\224\016r\225\254\376\224\021\327"
 639      5679822A 
 639      6D631D73 
 639      940E7295 
 639      ACFE9411 
 640 05f4 757D4C2B 		.ascii	"u}L+\024\246e\205\031T\270\360*f\326\221\232\271By\336"
 640      14A66585 
ARM GAS  C:\Users\Thomas\AppData\Local\Temp\ccdc0T6P.s 			page 52


 640      1954B8F0 
 640      2A66D691 
 640      9AB94279 
 641 0609 7222DFA8 		.ascii	"r\"\337\250\013\217W\332\3710+T\314\262\312,\252\204"
 641      0B8F57DA 
 641      F9302B54 
 641      CCB2CA2C 
 641      AA84
 642 061b 279456B8 		.ascii	"'\224V\270\323\\\007\356#\275u\334e]\037s\012\2059Y"
 642      D35C07EE 
 642      23BD75DC 
 642      655D1F73 
 642      0A853959 
 643 062f 619EB748 		.ascii	"a\236\267HLN\204\206Vr\205\231\251\320di\343K\252\266"
 643      4C4E8486 
 643      56728599 
 643      A9D06469 
 643      E34BAAB6 
 644 0643 6B910585 		.ascii	"k\221\005\205\312\202\254\362\024U.\211\007o;\322Y\256"
 644      CA82ACF2 
 644      14552E89 
 644      076F3BD2 
 644      59AE
 645 0655 9260BA79 		.ascii	"\222`\272y\212o\002\346\236\353v-\362L\241\362LVYD\225"
 645      8A6F02E6 
 645      9EEB762D 
 645      F24CA1F2 
 645      4C565944 
 646 066a A7EDE99D 		.ascii	"\247\355\351\235:\032\252E\225\244\376\304l\236\023"
 646      3A1AAA45 
 646      95A4FEC4 
 646      6C9E13
 647 0679 73D525BB 		.ascii	"s\325%\273\036YR\250,\311*\317\371\026:\321$\320K\\"
 647      1E5952A8 
 647      2CC92ACF 
 647      F9163AD1 
 647      24D04B5C 
 648 068d 24A3E0E8 		.ascii	"$\243\340\350\242\303\272)YV\010,\313\002/P`.\366d\243"
 648      A2C3BA29 
 648      5956082C 
 648      CB022F50 
 648      602EF664 
 649 06a2 8EDEE60A 		.ascii	"\216\336\346\012\371\031]3\374\316Sx\253\326\2564/\025"
 649      F9195D33 
 649      FCCE5378 
 649      ABD6AE34 
 649      2F15
 650 06b4 2A2F6595 		.ascii	"*/e\225\025TY0\231\023\335\350aGT\271\335XT\243]\327"
 650      15545930 
 650      9913DDE8 
 650      614754B9 
 650      DD5854A3 
 651 06ca C72B85C2 		.ascii	"\307+\205\302+Y\301\202\01213\305\367(=\305\025\226"
 651      2B59C182 
 651      0A3133C5 
 651      F7283DC5 
 651      1596
ARM GAS  C:\Users\Thomas\AppData\Local\Temp\ccdc0T6P.s 			page 53


 652 06dc 926B0BF9 		.ascii	"\222k\013\371NR\330s\327\316\207(\254\252\300w\256r"
 652      4E52D873 
 652      D7CE8728 
 652      ACAAC077 
 652      AE72
 653 06ee 50602ACF 		.ascii	"P`*\317\032F\306u\264\205\253D\344/Zt\353\372\010Q("
 653      1A46C675 
 653      B485AB44 
 653      E42F5A74 
 653      EBFA0851 
 654 0703 84C80AA1 		.ascii	"\204\310\012\241\250\020\023V\037\243\306;M\225\365"
 654      A8101356 
 654      1FA3C63B 
 654      4D95F5
 655 0712 81E04CF8 		.ascii	"\201\340L\370\343R\255\365\332!\001/\036\252m<\250\331"
 655      E352ADF5 
 655      DA21012F 
 655      1EAA6D3C 
 655      A8D9
 656 0724 F0867B58 		.ascii	"\360\206{X`w\2370A\272\373D\2778R\013\373\001\367\025"
 656      60779F30 
 656      41BAFB44 
 656      BF38520B 
 656      FB01F715 
 657 0738 D55117E9 		.ascii	"\325Q\027\351&\357pe\312\035\016F\221#\012oGdo\341\350"
 657      26EF7065 
 657      CA1D0E46 
 657      91230A6F 
 657      47646FE1 
 658 074d 6DA0DD34 		.ascii	"m\240\3354\346H\247\270\312xDT\210\332S~k\200\207\301"
 658      E648A7B8 
 658      CA784454 
 658      88DA537E 
 658      6B8087C1 
 659 0761 0841F9D2 		.ascii	"\010A\371\322\300\252\331\333\360\003<i~\341\314<.\261"
 659      C0AAD9DB 
 659      F0033C69 
 659      7EE1CC3C 
 659      2EB1
 660 0773 176AF2BF 		.ascii	"\027j\362\277p\371F[K\253\006\257\263KZ\306l\314\012"
 660      70F9465B 
 660      4BAB06AF 
 660      B34B5AC6 
 660      6CCC0A
 661 0786 4DA4CEF0 		.ascii	"M\244\316\360\334{P\272\021\253\254S!\221\202'S\307"
 661      DC7B50BA 
 661      11ABAC53 
 661      21918227 
 661      53C7
 662 0798 47DFA3C2 		.ascii	"G\337\243\302\026\022%\260\327\012\022>\2266\345F\315"
 662      161225B0 
 662      D70A123E 
 662      9636E546 
 662      CD
 663 07a9 DC4BE6C5 		.ascii	"\334K\346\305\346^\367w\323\304\2144\363\321\206\303"
 663      E65EF777 
 663      D3C48C34 
ARM GAS  C:\Users\Thomas\AppData\Local\Temp\ccdc0T6P.s 			page 54


 663      F3D186C3 
 664 07b9 EEF8C429 		.ascii	"\356\370\304)\262d\223c\2023\211\3463Rd'\232Y%\357\202"
 664      B2649363 
 664      823389E6 
 664      33526427 
 664      9A5925EF 
 665 07ce FA71     		.ascii	"\372q"
 666 07d0 E15D185F 		.ascii	"\341]\030_\234\376c\231\023>#\177\214\215|\352t\236"
 666      9CFE6399 
 666      133E237F 
 666      8C8D7CEA 
 666      749E
 667 07e2 069F911D 		.ascii	"\006\237\221\035\331i\344\321\"\213\226\271\023\345"
 667      D969E4D1 
 667      228B96B9 
 667      13E5
 668 07f0 C7049DF2 		.ascii	"\307\004\235\362F\037+\300\0037\371\033|P\007\366\363"
 668      461F2BC0 
 668      0337F91B 
 668      7C5007F6 
 668      F3
 669 0801 FB31A9F4 		.ascii	"\3731\251\364\235\030d\233D\017#3\037\003\276O\010\214"
 669      9D18649B 
 669      440F2333 
 669      1F03BE4F 
 669      088C
 670 0813 7C527847 		.ascii	"|RxG\036\302\310\213i\307\333\324J2\363\273!{\366\\"
 670      1EC2C88B 
 670      69C7DBD4 
 670      4A32F3BB 
 670      217BF65C 
 671 0827 E9A84097 		.ascii	"\351\250@\227\370\234\007\222.\215\272n+\025\303Mo\221"
 671      F89C0792 
 671      2E8DBA6E 
 671      2B15C34D 
 671      6F91
 672 0839 38E11DF2 		.ascii	"8\341\035\362w[`B\3447\354/\276\374\235=<\254\305\224"
 672      775B6042 
 672      E437EC2F 
 672      BEFC9D3D 
 672      3CACC594 
 673 084d 98F243C4 		.ascii	"\230\362C\304\217\017\211\330\300\310<%\345c5\316)\314"
 673      8F0F89D8 
 673      C0C83C25 
 673      E56335CE 
 673      29CC
 674 085f C769619B 		.ascii	"\307ia\233\212\234\301\204\364\226\337Xp\241\242\323"
 674      8A9CC184 
 674      F496DF58 
 674      70A1A2D3 
 675 086f EB44B22C 		.ascii	"\353D\262,\232#\234!\322p\232\351\354\232H\361v\221"
 675      9A239C21 
 675      D2709AE9 
 675      EC9A48F1 
 675      7691
 676 0881 E2315202 		.ascii	"\3421R\002\213\224\210\221\226r\372\316\020\032\316"
 676      8B948891 
ARM GAS  C:\Users\Thomas\AppData\Local\Temp\ccdc0T6P.s 			page 55


 676      9672FACE 
 676      101ACE
 677 0890 23958FAE 		.ascii	"#\225\217\256\2249q\323)L\352\320\252T\222\235T\022"
 677      943971D3 
 677      294CEAD0 
 677      AA54929D 
 677      5412
 678 08a2 EF37928C 		.ascii	"\3577\222\214:\323\321\235\2609\307r\235\242\241\324"
 678      3AD3D19D 
 678      B039C772 
 678      9DA2A1D4 
 679 08b2 380DD7A9 		.ascii	"8\015\327\251(^\265\304\222\233b\327\014)\326f8\213"
 679      285EB5C4 
 679      929B62D7 
 679      0C29D666 
 679      388B
 680 08c4 4A55F9B1 		.ascii	"JU\371\261\371.4\236+\265$%\307KiL]\243\224j\247\224"
 680      F92E349E 
 680      2BB52425 
 680      C74B694C 
 680      5DA3946A 
 681 08da 6A5532A1 		.ascii	"jU2\241R\355\315\322\0015=\373ZY\\n>\031Ix\240\2525"
 681      52EDCDD2 
 681      01353DFB 
 681      5A595C6E 
 681      3E194978 
 682 08f1 594CB39B 		.ascii	"YL\263\233z\032\006:\307\262\230\216\2212C3\010\315"
 682      7A1A063A 
 682      C7B2988E 
 682      91324333 
 682      08CD
 683 0903 E481E6CA 		.ascii	"\344\201\346\312gG$\245\3525\2263\354,gX-\377\210B\346"
 683      674724A5 
 683      EA359633 
 683      EC2C6758 
 683      2DFF8842 
 684 0918 F063936A 		.ascii	"\360c\223j\326\353\241\257\367\226\013CV\332\242\315"
 684      D6EBA1AF 
 684      F7960B43 
 684      56DAA2CD 
 685 0928 FC055314 		.ascii	"\374\005S\024\361\275\273\243yb\324\021\227\217\210"
 685      F1BDBBA3 
 685      7962D411 
 685      978F88
 686 0937 AF9CE30B 		.ascii	"\257\234\343\013\311]Z<\267\270\343j\257\276\277\360"
 686      C95D5A3C 
 686      B7B8E36A 
 686      AFBEBFF0 
 687 0947 13EB2957 		.ascii	"\023\353)W^O9|\245\027g\347U\011\322\032\021E\217@|"
 687      5E4F397C 
 687      A51767E7 
 687      5509D21A 
 687      11458F40 
 688 095c CECE825C 		.ascii	"\316\316\202\\dc.\316\343\032\311\225\327H\316\255\262"
 688      64632ECE 
 688      E31AC995 
 688      D748CEAD 
ARM GAS  C:\Users\Thomas\AppData\Local\Temp\ccdc0T6P.s 			page 56


 688      B2
 689 096d 5037253B 		.ascii	"P7%;S\370\011\266e:o\306U\362\256\303{\307\271\262("
 689      53F809B6 
 689      653A6FC6 
 689      55F2AEC3 
 689      7BC7B9B2 
 690 0982 37EEBD0E 		.ascii	"7\356\275\016\2639\325\226T\245\303\013\032\\\260\347"
 690      B339D596 
 690      54A5C30B 
 690      1A5CB0E7 
 691 0992 272FBA6D 		.ascii	"'/\272m\354\275P\366^\300\275\227/OVh\224n >\271\000"
 691      ECBD50F6 
 691      5EC0BD97 
 691      2F4F5668 
 691      946E203E 
 692 09a8 6EF2D14D 		.ascii	"n\362\321M\021\272)\224\335\214\334\213J\263\231i\336"
 692      11BA2994 
 692      DD8CDC8B 
 692      4AB39969 
 692      DE
 693 09b9 4FB11F56 		.ascii	"O\261\037VV\334q\240y\274\350\235\327\312\013t\270\010"
 693      56DC71A0 
 693      79BCE89D 
 693      D7CA0B74 
 693      B808
 694 09cb 0792EFA9 		.ascii	"\007\222\357\251\353B\244\225S\014\002%R\321W\205J\244"
 694      EB42A495 
 694      530C0225 
 694      52D15785 
 694      4AA4
 695 09dd 95538A25 		.ascii	"\225S\212%\2378\0347\350H\213\271N\334\215\261(\212"
 695      9F381C37 
 695      E8488BB9 
 695      4EDC8DB1 
 695      288A
 696 09ef CD3370A1 		.ascii	"\3153p\241\306\267N\331<\027\355\232\347\242\265y\312"
 696      C6B74ED9 
 696      3C17ED9A 
 696      E7A2B579 
 696      CA
 697 0a00 F8CA494D 		.ascii	"\370\312IM0\273\322j'\351\215\254\360\220+o\303\363"
 697      30BBD26A 
 697      27E98DAC 
 697      F0902B6F 
 697      C3F3
 698 0a12 6BDAB0DC 		.ascii	"k\332\260\334N\251\334\252T\201J!w-MZZ\317\225\016\035"
 698      4EA9DCAA 
 698      54814A21 
 698      772D4D5A 
 698      5ACF950E 
 699 0a27 6E4C9576 		.ascii	"nL\225v\205\2745J\225vJ\225V\245*T\212=2Q@\351\365\327"
 699      85BC354A 
 699      95764A95 
 699      56A52A54 
 699      8A3D3251 
 700 0a3f 5A838F7B 		.ascii	"Z\203\217{\023\002x\234\3345K\260\332n\011Vc\234\032"
 700      1302789C 
ARM GAS  C:\Users\Thomas\AppData\Local\Temp\ccdc0T6P.s 			page 57


 700      DC354BB0 
 700      DA6E0956 
 700      639C1A
 701 0a52 B6042F61 		.ascii	"\266\004/a\240'S\261\325\256\364.\017\024;\325\266\231"
 701      A02753B1 
 701      D5AEF42E 
 701      0F143BD5 
 701      B699
 702 0a64 2B25AC71 		.ascii	"+%\254q|\331\316\361e\253\343Z\024*\254=\037\301oF\337"
 702      7CD9CEF1 
 702      65ABE35A 
 702      142AAC3D 
 702      1FC16F46 
 703 0a79 62C785C1 		.ascii	"b\307\205\301\366\212\015\210\015\032\233v!A\267v5\324"
 703      F68A0D88 
 703      0D1A9B76 
 703      2141B776 
 703      35D4
 704 0a8b 81AD7AB4 		.ascii	"\201\255z\264u\305\266G.t\267\037\324\254]\015\033\262"
 704      75C5B647 
 704      2E74B71F 
 704      D4AC5D0D 
 704      1BB2
 705 0a9d D31E4467 		.ascii	"\323\036Dgki\007\237\202\374c\232\033\3771-:?c\336\035"
 705      6B69079F 
 705      82FC639A 
 705      1BFF312D 
 705      3A3F63DE 
 706 0ab2 4FA9F267 		.ascii	"O\251\362g$7\3763\222\274J\334\370*\011+\031\316\320"
 706      2437FE33 
 706      92BC4ADC 
 706      F82A092B 
 706      19CED0
 707 0ac5 629E3F20 		.ascii	"b\236? \015<\317l\303\370\015?4\012\374xM:^\227\216"
 707      0D3CCF6C 
 707      C3F80D3F 
 707      340AFC78 
 707      4D3A5E97 
 708 0ada 4DFCC804 		.ascii	"M\374\310\004\312f';\035y\033&A;\313\011dZW\245\004"
 708      CA66273B 
 708      1D791B26 
 708      413BCB09 
 708      645A57A5 
 709 0aef AECEE22A 		.ascii	"\256\316\342*&\360\006+\305M\314\340S\313\335Bw\332"
 709      26F0062B 
 709      C54DCCE0 
 709      53CBDD42 
 709      77DA
 710 0b01 FD5A350F 		.ascii	"\375Z5\017=\326\335\304o\025\00395\253\221\030\363\226"
 710      3DD6DDC4 
 710      6F150339 
 710      35AB9118 
 710      F396
 711 0b13 5DD16F61 		.ascii	"]\321oa\244\333,R3F:W\366\274\304\235\216\361H\217\315"
 711      A4DB2C52 
 711      33463A57 
 711      F6BCC49D 
ARM GAS  C:\Users\Thomas\AppData\Local\Temp\ccdc0T6P.s 			page 58


 711      8EF1488F 
 712 0b28 5565D25D 		.ascii	"Ue\322]'{M\325\357\330U\375\216\265\352-\250\364\350"
 712      277B4DD5 
 712      EFD855FD 
 712      8EB5EA2D 
 712      A8F4E8
 713 0b3b 4A9989D2 		.ascii	"J\231\211\322'\033z\366D\317\236\3509\244\261C\212S"
 713      271B7AF6 
 713      44CF9EE8 
 713      39A4B143 
 713      8A53
 714 0b4d B9A64F5B 		.ascii	"\271\246O[\355,\267b\234\273\314\362=\014\264\2604\324"
 714      ED2CB762 
 714      9CBBCCF2 
 714      3D0CB4B0 
 714      34D4
 715 0b5f A3A14BAF 		.ascii	"\243\241K\257\225\234\270\305\247)j\036\251`M\2446\273"
 715      959CB8C5 
 715      A7296A1E 
 715      A9604DA4 
 715      36BB
 716 0b71 486D18A9 		.ascii	"Hm\030\251\235E\272\217\221\216\233\357\036\343\215"
 716      9D45BA8F 
 716      918E9BEF 
 716      1EE38D
 717 0b80 2C6293C8 		.ascii	",b\223\310OY:\376\2245\334r\3772\277-lg\247\246\305"
 717      4F593AFE 
 717      9435DC72 
 717      FF32BF2D 
 717      6C67A7A6 
 718 0b95 955D1B6F 		.ascii	"\225]\033o\254]\362\306\332\3117\326\213\015/#\351j"
 718      AC5DF2C6 
 718      DAC937D6 
 718      8B0D2F23 
 718      E96A
 719 0ba7 63F31F41 		.ascii	"c\363\037A;\300\313\003\364\362\020\033\033\007\341"
 719      3BC0CB03 
 719      F4F2101B 
 719      1B07E1
 720 0bb6 098CC89D 		.ascii	"\011\214\310\235\252\211\"6?\366\260\247\335\325\010"
 720      AA892236 
 720      3FF6B0A7 
 720      DDD508
 721 0bc5 DD02FED8 		.ascii	"\335\002\376\330\303\216\300\356\213\257\213T\333\260"
 721      C38EC0EE 
 721      8BAF8B54 
 721      DBB0
 722 0bd3 D973FB2A 		.ascii	"\331s\373*\273G\320\311\277\267\366\340\200\207U\365"
 722      BB47D0C9 
 722      BFB7F6E0 
 722      808755F5 
 723 0be3 BDAE3603 		.ascii	"\275\2566\003n\330\014\350\225\344{\221\375\244s\251"
 723      6ED80CE8 
 723      95E47B91 
 723      FDA473A9 
 724 0bf3 5967C366 		.ascii	"Yg\303f]\262\312\356\223\330}\310\236\211/\031r\260"
 724      5DB2CAEE 
ARM GAS  C:\Users\Thomas\AppData\Local\Temp\ccdc0T6P.s 			page 59


 724      93D87DC8 
 724      9E892F19 
 724      72B0
 725 0c05 61B30AAC 		.ascii	"a\263\012\254\262\373%v?\262\227\322\006G\335m\330\215"
 725      B2FB2576 
 725      3FB297D2 
 725      0647DD6D 
 725      D88D
 726 0c17 364E0624 		.ascii	"6N\006$\366\000\262\363\303\243\276\267!_\261!\017J"
 726      F600B2F3 
 726      C3A3BEB7 
 726      215FB121 
 726      0F4A
 727 0c29 E44124DF 		.ascii	"\344A$\337\231?\271\335\206|\337\206<$\221\207\220\034"
 727      993FB9DD 
 727      867CDF86 
 727      3C249187 
 727      901C
 728 0c3b FAFC70A9 		.ascii	"\372\374p\251mF\036\332\270~$\261\037!\373Zqr$\265a"
 728      6D461EDA 
 728      B87E24B1 
 728      1F21FB5A 
 728      717224B5 
 729 0c50 17DBB087 		.ascii	"\027\333\260\207%\3660\262\033/\305\267\330\026\263"
 729      25F630B2 
 729      1B2FC5B7 
 729      D816B3
 730 0c5f C1863D22 		.ascii	"\301\206=\"\261G\220}\242\274a\331}k*{U\251\373\004"
 730      B147907D 
 730      A2BC61D9 
 730      7D6B2A7B 
 730      55A9FB04 
 731 0c73 DE93F017 		.ascii	"\336\223\360\027g\376b3*le/]\347\346#4\353\023\306\220"
 731      67FE6233 
 731      2A6C652F 
 731      5DE7E623 
 731      34EB13C6 
 732 0c88 3058D016 		.ascii	"0X\320\026\341\272>\3411\022\372+r\332\034\2210\320"
 732      E1BA3EE1 
 732      3112FA2B 
 732      72DA1C91 
 732      30D0
 733 0c9a 9FEE1246 		.ascii	"\237\356\022Fl9\343\310Y\034J\216\323\"\307\024\035"
 733      6C39E3C8 
 733      591C4A8E 
 733      D322C714 
 733      1D
 734 0cab 266AD670 		.ascii	"&j\326p&\220\2233Z\021\257\346\234\304\010;\316$r\036"
 734      26909333 
 734      5A11AFE6 
 734      9CC4083B 
 734      CE24721E 
 735 0cbf F767C6B9 		.ascii	"\367g\306\271pN\252=g\0129\365\345\235&\211\223g\317"
 735      704EAA3D 
 735      670A39F5 
 735      E59D2689 
 735      9367CF
ARM GAS  C:\Users\Thomas\AppData\Local\Temp\ccdc0T6P.s 			page 60


 736 0cd2 79829CBA 		.ascii	"y\202\234\272\326\311\020\201s*\3559\323\310\271\326"
 736      D6C91081 
 736      732AED39 
 736      D3C8B9D6 
 737 0ce2 9DD821E9 		.ascii	"\235\330!\3514\331sf\2203\332\225\246\343\224f{\212"
 737      34D97366 
 737      9033DA95 
 737      A6E39466 
 737      7B8A
 738 0cf4 19292905 		.ascii	"\031))\005gFx\376L\017\3559\263\310\031\210h\252\247"
 738      674678FE 
 738      4C0FED39 
 738      B3C81988 
 738      68AAA7
 739 0d07 9CD36FCF 		.ascii	"\234\323o\317\231CN\351JV\211z\375:\314#\341\314\221"
 739      99434EE9 
 739      4A56897A 
 739      FD3ACC23 
 739      E1CC91
 740 0d1a C12BCEEB 		.ascii	"\301+\316\353\023\026\2200\325\020\371L\267>\341)\022"
 740      13169030 
 740      D510F94C 
 740      B73EE129 
 740      12
 741 0d2b 428A869E 		.ascii	"B\212\206\2369\254Ox&lUi|\276\363\016\374\310\341\263"
 741      39AC4F78 
 741      266C5569 
 741      7CBEF30E 
 741      FCC8E1B3 
 742 0d3f 3F7CE5B1 		.ascii	"?|\345\261C\245f'[?3\370\033\002\275\215\006_\257/\003"
 742      43A56627 
 742      5B3F33F8 
 742      1B02BD8D 
 742      065FAF2F 
 743 0d54 82037D0C 		.ascii	"\202\003}\014\337\354\3742`\307?\376\275\317\001\343"
 743      DFECFC32 
 743      60C73FFE 
 743      BDCF01E3 
 744 0d64 81FD86A0 		.ascii	"\201\375\206\240\367\277S9\004\373\371\033\365\3334"
 744      F7BF5339 
 744      04FBF91B 
 744      F5DB34
 745 0d73 ECF091D3 		.ascii	"\354\360\221\323\373\337|\357\355\347\377\276\217\312"
 745      FBDF7CEF 
 745      EDE7FFBE 
 745      8FCA
 746 0d81 FDAB2F3F 		.ascii	"\375\253/?\371\352w\273\376\350\2653\330\270\003\204"
 746      F9EA77BB 
 746      FEE8B533 
 746      D8B80384 
 747 0d91 7EBD8190 		.ascii	"~\275\201\220L\363\361\365\001\261w\344\323\035\237"
 747      4CF3F1F5 
 747      01B177E4 
 747      D31D9F
 748 0da0 EEF83C68 		.ascii	"\356\370<h\227\301\333\367\300\346\235\037z\375\311"
 748      97C1DBF7 
 748      C0E69D1F 
ARM GAS  C:\Users\Thomas\AppData\Local\Temp\ccdc0T6P.s 			page 61


 748      7AFDC9
 749 0daf CFFF8F7E 		.ascii	"\317\377\217~\337\033\002\275\376\024\350g4\3544\004"
 749      DF1B02BD 
 749      FE14E867 
 749      34EC3404 
 750 0dbf FA05F86E 		.ascii	"\372\005\370n$\250\240\203\340\346\235\3727\033\255"
 750      24A8A083 
 750      E0E69DFA 
 750      371BAD
 751 0dce 578ED681 		.ascii	"W\216\326\201\330\347\273\376\325\353K\243w\240\321"
 751      D8E7BBFE 
 751      D5EB4BA3 
 751      77A0D1
 752 0ddd 63E380C0 		.ascii	"c\343\200\300A\266\3765\330z\211\355&O\3653\203\361"
 752      41B6FE35 
 752      D87A89ED 
 752      264FF533 
 752      83F1
 753 0def 77FBF6FD 		.ascii	"w\373\366\375L>\375\324\333\350-M\335\305\032>`\277"
 753      4C3EFDD4 
 753      DBE82D4D 
 753      DDC51A3E 
 753      60BF
 754 0e01 8B553C60 		.ascii	"\213U<`\377\317\025Cw\004\370\357\361\333\033\014\221"
 754      FFCF1543 
 754      7704F8EF 
 754      F1DB1B0C 
 754      91
 755 0e12 FC02FC37 		.ascii	"\374\002\3747\252\226\304\207\250o)\022\354\365\271"
 755      AA96C487 
 755      A86F2912 
 755      ECF5B9
 756 0e21 BF9FF197 		.ascii	"\277\237\361\227\362\205\317\203l\244\240f\376{\015"
 756      F285CF83 
 756      6CA4A066 
 756      FE7B0D
 757 0e30 BE6F8305 		.ascii	"\276o\203\005\314\206ub?\221w\231\010q\336VV\015\307"
 757      CC867562 
 757      3F917799 
 757      0871DE56 
 757      560DC7
 758 0e43 6D822BBB 		.ascii	"m\202+\273\014{?\375\220\227\001\276\376\233\367\276"
 758      0C7B3FFD 
 758      909701BE 
 758      FE9BF7BE 
 759 0e53 60C35F6D 		.ascii	"`\303_m,\207l\226)\353H\033!\375\033\011\351\025Bz["
 759      2C876C96 
 759      29EB481B 
 759      21FD1B09 
 759      E915427A 
 760 0e68 A10FDE48 		.ascii	"\241\017\336H\350\003\205\320\007\\\350m\250\315k&I"
 760      E80385D0 
 760      075CE86D 
 760      A8CD6B26 
 760      49
 761 0e79 6F9B24BD 		.ascii	"o\233$\275]\222\364o\224$\275\"Iz\333$\351\337(IzE\222"
 761      5D92F46F 
ARM GAS  C:\Users\Thomas\AppData\Local\Temp\ccdc0T6P.s 			page 62


 761      9424BD22 
 761      497ADB24 
 761      E9DF2849 
 762 0e90 F4B649D2 		.ascii	"\364\266I\322\277Q\222\364\212$\351\225Ir\225\033\015"
 762      BF5192F4 
 762      8A24E995 
 762      4972951B 
 762      0D
 763 0ea1 CF28EC16 		.ascii	"\317(\354\026\332\375\373\274\017\370\371\357\325\006"
 763      DAFDFBBC 
 763      0FF8F9EF 
 763      D506
 764 0eaf 1AFE1C6C 		.ascii	"\032\376\034l\0102jw\007\357\361\332o\014t\362\363\337"
 764      08326A77 
 764      07EFF1DA 
 764      6F0C74F2 
 764      F3DF
 765 0ec1 1F6C64DF 		.ascii	"\037ld\3374\273\017\030\015A\032\237\200``\357\3636"
 765      34BB0F18 
 765      0D411A9F 
 765      806060EF 
 765      F336
 766 0ed3 FA7C0767 		.ascii	"\372|\007g\336A\007\374}4\310q\364\205\305\262\333\317"
 766      DE4107FC 
 766      7D34C871 
 766      F485C5B2 
 766      DBCF
 767 0ee5 18A4D91F 		.ascii	"\030\244\331\037\020\010\177\367\371\371\033\202\234"
 767      10087FF7 
 767      F9F91B82 
 767      9C
 768 0ef2 82830C5E 		.ascii	"\202\203\014^F\226Su\220\301\337\250f\034\027<\367\012"
 768      46965375 
 768      90C1DFA8 
 768      661C173C 
 768      F70A
 769 0f04 64AB4A83 		.ascii	"d\253J\203\177\235\177\360\363\367\015\370\301+`\317"
 769      7F9D7FF0 
 769      F3F70DF8 
 769      C12B60CF 
 770 0f14 1E575FBF 		.ascii	"\036W_\277 \357\335\373\244A\377\007\006[\253\242"
 770      20EFDDFB 
 770      A441FF07 
 770      065BABA2 
 771              		.text
 772              		.section	.gnu.lto_.symtab.c0d66b72,"",%progbits
 773 0000 6D61696E 		.ascii	"main\000\000\000\000\000\000\000\000\000\000\000\000"
 773      00000000 
 773      00000000 
 773      00000000 
 774 0010 C0000000 		.ascii	"\300\000\000\000playing\000\000\000\000\000\000\000"
 774      706C6179 
 774      696E6700 
 774      00000000 
 774      0000
 775 0022 00000000 		.ascii	"\000\000\000\000\000\017\001\000\000request\000\000"
 775      000F0100 
ARM GAS  C:\Users\Thomas\AppData\Local\Temp\ccdc0T6P.s 			page 63


 775      00726571 
 775      75657374 
 775      0000
 776 0034 00000000 		.ascii	"\000\000\000\000\000\000\000\000\000\000\027\001\000"
 776      00000000 
 776      00001701 
 776      00
 777 0041 00627566 		.ascii	"\000buf_ptr\000\000\000\000\000\000\000\000\000\000"
 777      5F707472 
 777      00000000 
 777      00000000 
 777      0000
 778 0053 00001A01 		.ascii	"\000\000\032\001\000\000input_ptr\000\000\004\000\010"
 778      0000696E 
 778      7075745F 
 778      70747200 
 778      00040008 
 779 0067 00000000 		.ascii	"\000\000\000\000\000\000\000\034\001\000\000bytes\000"
 779      0000001C 
 779      01000062 
 779      79746573 
 779      00
 780 0078 00000000 		.ascii	"\000\000\000\000\000\000\000\000\000\000\000\036\001"
 780      00000000 
 780      0000001E 
 780      01
 781 0085 0000636F 		.ascii	"\000\000count\000\000\000\000\000\000\000\000\000\000"
 781      756E7400 
 781      00000000 
 781      00000000 
 781      00
 782 0096 00002001 		.ascii	"\000\000 \001\000\000latches\000\000\000\000\000\000"
 782      00006C61 
 782      74636865 
 782      73000000 
 782      000000
 783 00a9 00000000 		.ascii	"\000\000\000\000\000\000#\001\000\000async\000\000\000"
 783      00002301 
 783      00006173 
 783      796E6300 
 783      0000
 784 00bb 00000000 		.ascii	"\000\000\000\000\000\000\000\000\000%\001\000\000in"
 784      00000000 
 784      00250100 
 784      00696E
 785 00ca 70757400 		.ascii	"put\000\000\004\000\000`\000\000\000\000\000\0004\001"
 785      00040000 
 785      60000000 
 785      00000034 
 785      01
 786 00db 00006461 		.ascii	"\000\000databits\000\000\000\000\000\000\000\000\000"
 786      74616269 
 786      74730000 
 786      00000000 
 786      000000
 787 00ee 00000036 		.ascii	"\000\000\0006\001\000\000ports\000\000\000\000\000\000"
 787      01000070 
ARM GAS  C:\Users\Thomas\AppData\Local\Temp\ccdc0T6P.s 			page 64


 787      6F727473 
 787      00000000 
 787      0000
 788 0100 00000000 		.ascii	"\000\000\000\000\000\0008\001\000\000lines\000\000\000"
 788      00003801 
 788      00006C69 
 788      6E657300 
 788      0000
 789 0112 00000000 		.ascii	"\000\000\000\000\000\000\000\000\000:\001\000\000us"
 789      00000000 
 789      003A0100 
 789      007573
 790 0121 655F7469 		.ascii	"e_timer\000\000\000\000\000\000\000\000\000\000\000"
 790      6D657200 
 790      00000000 
 790      00000000 
 790      0000
 791 0133 003D0100 		.ascii	"\000=\001\000\000sent\000\000\000\000\000\000\000\000"
 791      0073656E 
 791      74000000 
 791      00000000 
 791      00
 792 0144 00000000 		.ascii	"\000\000\000\000?\001\000\000data\000\000\000\000\000"
 792      3F010000 
 792      64617461 
 792      00000000 
 792      00
 793 0155 00000000 		.ascii	"\000\000\000\000\000\000\000J\001\000\000timer_read"
 793      0000004A 
 793      01000074 
 793      696D6572 
 793      5F726561 
 794 016a 79000000 		.ascii	"y\000\000\000\000\000\000\000\000\000\000\000\000M\001"
 794      00000000 
 794      00000000 
 794      004D01
 795 0179 00007265 		.ascii	"\000\000ready\000\000\000\000\000\000\000\000\000\000"
 795      61647900 
 795      00000000 
 795      00000000 
 795      00
 796 018a 00004F01 		.ascii	"\000\000O\001\000\000window_off\000\000\000\000\000"
 796      00007769 
 796      6E646F77 
 796      5F6F6666 
 796      00000000 
 797 019f 00000000 		.ascii	"\000\000\000\000\000\000\000R\001\000\000disable_ti"
 797      00000052 
 797      01000064 
 797      69736162 
 797      6C655F74 
 798 01b4 6D657200 		.ascii	"mer\000\000\000\000\000\000\000\000\000\000\000\000"
 798      00000000 
 798      00000000 
 798      000000
 799 01c3 55010000 		.ascii	"U\001\000\000USBUART_PutChar\000\000\002\000\000\000"
 799      55534255 
ARM GAS  C:\Users\Thomas\AppData\Local\Temp\ccdc0T6P.s 			page 65


 799      4152545F 
 799      50757443 
 799      68617200 
 800 01dc 00000000 		.ascii	"\000\000\000\000\000\000\304\000\000\000USBUART_CDC"
 800      0000C400 
 800      00005553 
 800      42554152 
 800      545F4344 
 801 01f1 49735265 		.ascii	"IsReady\000\000\002\000\000\000\000\000\000\000\000"
 801      61647900 
 801      00020000 
 801      00000000 
 801      0000
 802 0203 00C70000 		.ascii	"\000\307\000\000\000P2_WinTimer_WritePeriod\000\000"
 802      0050325F 
 802      57696E54 
 802      696D6572 
 802      5F577269 
 803 0221 02000000 		.ascii	"\002\000\000\000\000\000\000\000\000\000\313\000\000"
 803      00000000 
 803      0000CB00 
 803      00
 804 022e 0050315F 		.ascii	"\000P1_WinTimer_WritePeriod\000\000\002\000\000\000"
 804      57696E54 
 804      696D6572 
 804      5F577269 
 804      74655065 
 805 024c 00000000 		.ascii	"\000\000\000\000\000\000\315\000\000\000P2_IRQ_Star"
 805      0000CD00 
 805      00005032 
 805      5F495251 
 805      5F537461 
 806 0261 74000002 		.ascii	"t\000\000\002\000\000\000\000\000\000\000\000\000\320"
 806      00000000 
 806      00000000 
 806      00D0
 807 026f 00000050 		.ascii	"\000\000\000P1_IRQ_Start\000\000\002\000\000\000\000"
 807      315F4952 
 807      515F5374 
 807      61727400 
 807      00020000 
 808 0285 00000000 		.ascii	"\000\000\000\000\000\322\000\000\000USBUART_GetAll\000"
 808      00D20000 
 808      00555342 
 808      55415254 
 808      5F476574 
 809 029d 00020000 		.ascii	"\000\002\000\000\000\000\000\000\000\000\000\327\000"
 809      00000000 
 809      000000D7 
 809      00
 810 02aa 00005553 		.ascii	"\000\000USBUART_DataIsReady\000\000\002\000\000\000"
 810      42554152 
 810      545F4461 
 810      74614973 
 810      52656164 
 811 02c5 00000000 		.ascii	"\000\000\000\000\000\000\331\000\000\000P2_IRQ_Stop"
 811      0000D900 
ARM GAS  C:\Users\Thomas\AppData\Local\Temp\ccdc0T6P.s 			page 66


 811      00005032 
 811      5F495251 
 811      5F53746F 
 812 02da 00000200 		.ascii	"\000\000\002\000\000\000\000\000\000\000\000\000\333"
 812      00000000 
 812      00000000 
 812      DB
 813 02e7 00000050 		.ascii	"\000\000\000P1_IRQ_Stop\000\000\002\000\000\000\000"
 813      315F4952 
 813      515F5374 
 813      6F700000 
 813      02000000 
 814 02fc 00000000 		.ascii	"\000\000\000\000\000\335\000\000\000USBUART_GetConf"
 814      00DD0000 
 814      00555342 
 814      55415254 
 814      5F476574 
 815 0314 69677572 		.ascii	"iguration\000\000\002\000\000\000\000\000\000\000\000"
 815      6174696F 
 815      6E000002 
 815      00000000 
 815      00000000 
 816 0328 00DF0000 		.ascii	"\000\337\000\000\000USBUART_CDC_Init\000\000\002\000"
 816      00555342 
 816      55415254 
 816      5F434443 
 816      5F496E69 
 817 0341 00000000 		.ascii	"\000\000\000\000\000\000\000\000\341\000\000\000USB"
 817      00000000 
 817      E1000000 
 817      555342
 818 0350 55415254 		.ascii	"UART_IsConfigurationChanged\000\000\002\000\000\000"
 818      5F497343 
 818      6F6E6669 
 818      67757261 
 818      74696F6E 
 819 0371 00000000 		.ascii	"\000\000\000\000\000\000\343\000\000\000P2_TimerIRQ"
 819      0000E300 
 819      00005032 
 819      5F54696D 
 819      65724952 
 820 0386 5F537461 		.ascii	"_Start\000\000\002\000\000\000\000\000\000\000\000\000"
 820      72740000 
 820      02000000 
 820      00000000 
 820      0000
 821 0398 E5000000 		.ascii	"\345\000\000\000P2_WinTimer_Start\000\000\002\000\000"
 821      50325F57 
 821      696E5469 
 821      6D65725F 
 821      53746172 
 822 03b2 00000000 		.ascii	"\000\000\000\000\000\000\000\347\000\000\000P2_RegD"
 822      000000E7 
 822      00000050 
 822      325F5265 
 822      6744
 823 03c4 325F5772 		.ascii	"2_WriteRegValue\000\000\002\000\000\000\000\000\000"
ARM GAS  C:\Users\Thomas\AppData\Local\Temp\ccdc0T6P.s 			page 67


 823      69746552 
 823      65675661 
 823      6C756500 
 823      00020000 
 824 03dc 000000E9 		.ascii	"\000\000\000\351\000\000\000P2_RegD2_Start\000\000\002"
 824      00000050 
 824      325F5265 
 824      6744325F 
 824      53746172 
 825 03f4 00000000 		.ascii	"\000\000\000\000\000\000\000\000"
 825      00000000 
 826 03fc 00EB0000 		.ascii	"\000\353\000\000\000P2_RegD1_WriteRegValue\000\000\002"
 826      0050325F 
 826      52656744 
 826      315F5772 
 826      69746552 
 827 041a 00000000 		.ascii	"\000\000\000\000\000\000\000\000\000\355\000\000\000"
 827      00000000 
 827      00ED0000 
 827      00
 828 0427 50325F52 		.ascii	"P2_RegD1_Start\000\000\002\000\000\000\000\000\000\000"
 828      65674431 
 828      5F537461 
 828      72740000 
 828      02000000 
 829 043f 0000EF00 		.ascii	"\000\000\357\000\000\000P2_RegD0_WriteRegValue\000\000"
 829      00005032 
 829      5F526567 
 829      44305F57 
 829      72697465 
 830 045d 02000000 		.ascii	"\002\000\000\000\000\000\000\000\000\000\361\000\000"
 830      00000000 
 830      0000F100 
 830      00
 831 046a 0050325F 		.ascii	"\000P2_RegD0_Start\000\000\002\000\000\000\000\000\000"
 831      52656744 
 831      305F5374 
 831      61727400 
 831      00020000 
 832 0482 000000F3 		.ascii	"\000\000\000\363\000\000\000P1_TimerIRQ_Start\000\000"
 832      00000050 
 832      315F5469 
 832      6D657249 
 832      52515F53 
 833 049c 02000000 		.ascii	"\002\000\000\000\000\000\000\000\000\000\365\000\000"
 833      00000000 
 833      0000F500 
 833      00
 834 04a9 0050315F 		.ascii	"\000P1_WinTimer_Start\000\000\002\000\000\000\000\000"
 834      57696E54 
 834      696D6572 
 834      5F537461 
 834      72740000 
 835 04c3 00000000 		.ascii	"\000\000\000\000\367\000\000\000P1_RegD2_WriteRegVa"
 835      F7000000 
 835      50315F52 
 835      65674432 
ARM GAS  C:\Users\Thomas\AppData\Local\Temp\ccdc0T6P.s 			page 68


 835      5F577269 
 836 04de 6C756500 		.ascii	"lue\000\000\002\000\000\000\000\000\000\000\000\000"
 836      00020000 
 836      00000000 
 836      000000
 837 04ed F9000000 		.ascii	"\371\000\000\000P1_RegD2_Start\000\000\002\000\000\000"
 837      50315F52 
 837      65674432 
 837      5F537461 
 837      72740000 
 838 0505 00000000 		.ascii	"\000\000\000\000\000\000\373\000\000\000P1_RegD1_Wr"
 838      0000FB00 
 838      00005031 
 838      5F526567 
 838      44315F57 
 839 051a 69746552 		.ascii	"iteRegValue\000\000\002\000\000\000\000\000\000\000"
 839      65675661 
 839      6C756500 
 839      00020000 
 839      00000000 
 840 052f 0000FD00 		.ascii	"\000\000\375\000\000\000P1_RegD1_Start\000\000\002\000"
 840      00005031 
 840      5F526567 
 840      44315F53 
 840      74617274 
 841 0547 00000000 		.ascii	"\000\000\000\000\000\000\000\000\377\000\000\000P1_"
 841      00000000 
 841      FF000000 
 841      50315F
 842 0556 52656744 		.ascii	"RegD0_WriteRegValue\000\000\002\000\000\000\000\000"
 842      305F5772 
 842      69746552 
 842      65675661 
 842      6C756500 
 843 0571 00000000 		.ascii	"\000\000\000\000\001\001\000\000P1_RegD0_Start\000\000"
 843      01010000 
 843      50315F52 
 843      65674430 
 843      5F537461 
 844 0589 02000000 		.ascii	"\002\000\000\000\000\000\000\000\000\000\003\001\000"
 844      00000000 
 844      00000301 
 844      00
 845 0596 00555342 		.ascii	"\000USBUART_Start\000\000\002\000\000\000\000\000\000"
 845      55415254 
 845      5F537461 
 845      72740000 
 845      02000000 
 846 05ad 00000008 		.ascii	"\000\000\000\010\001\000\000"
 846      010000
 847              		.text
 848              		.section	.gnu.lto_.opts,"",%progbits
 849 0000 272D666E 		.ascii	"'-fno-trapv' '-mcpu=cortex-m3' '-mthumb' '-g' '-O3'"
 849      6F2D7472 
 849      61707627 
 849      20272D6D 
 849      6370753D 
ARM GAS  C:\Users\Thomas\AppData\Local\Temp\ccdc0T6P.s 			page 69


 850 0033 20272D66 		.ascii	" '-ffunction-sections' '-finline-functions' '-flto'"
 850      66756E63 
 850      74696F6E 
 850      2D736563 
 850      74696F6E 
 851 0066 20272D66 		.ascii	" '-ffat-lto-objects'\000"
 851      6661742D 
 851      6C746F2D 
 851      6F626A65 
 851      63747327 
 852              		.text
 853              		.cfi_sections	.debug_frame
 854              		.section	.text.startup.main,"ax",%progbits
 855              		.align	2
 856              		.global	main
 857              		.thumb
 858              		.thumb_func
 859              		.type	main, %function
 860              	main:
 861              	.LFB63:
 862              		.file 1 ".\\main.c"
   1:.\main.c      **** /* ========================================
   2:.\main.c      ****  * TAS NES/NES Replay Device for CY8CKIT-059
   3:.\main.c      ****  * ========================================
   4:.\main.c      ****  */
   5:.\main.c      **** 
   6:.\main.c      **** #include <main.h>
   7:.\main.c      **** #define USBUART_BUFFER_SIZE (64u)
   8:.\main.c      **** 
   9:.\main.c      **** volatile int sent = 0;
  10:.\main.c      **** volatile int playing = 0;
  11:.\main.c      **** volatile uint16 data[6] = {0, 0, 0, 0, 0, 0};
  12:.\main.c      **** volatile uint16 input[6][INPUT_BUF_SIZE];
  13:.\main.c      **** volatile int input_ptr[2];
  14:.\main.c      **** volatile int buf_ptr[2] = {0, 0};
  15:.\main.c      **** volatile int count = 0;
  16:.\main.c      **** volatile int ready = 0;
  17:.\main.c      **** volatile int timer_ready[2] = {0, 0};
  18:.\main.c      **** volatile int use_timer[2] = {0, 0};
  19:.\main.c      **** volatile int ports = 0;
  20:.\main.c      **** volatile int lines = 0;
  21:.\main.c      **** volatile int databits = 0;
  22:.\main.c      **** volatile int request[2] = {0, 0};
  23:.\main.c      **** volatile int disable_timer[2] = {0, 0};
  24:.\main.c      **** volatile int bytes = 0;
  25:.\main.c      **** volatile int window_off[2] = {-1, -1};
  26:.\main.c      **** volatile int latches[2] = {0, 0};
  27:.\main.c      **** volatile int async = 0;
  28:.\main.c      **** 
  29:.\main.c      **** int main()
  30:.\main.c      **** {
 863              		.loc 1 30 0
 864              		.cfi_startproc
 865              		@ args = 0, pretend = 0, frame = 64
 866              		@ frame_needed = 0, uses_anonymous_args = 0
 867              	.LVL0:
 868 0000 2DE9F04F 		push	{r4, r5, r6, r7, r8, r9, r10, fp, lr}
ARM GAS  C:\Users\Thomas\AppData\Local\Temp\ccdc0T6P.s 			page 70


 869              		.cfi_def_cfa_offset 36
 870              		.cfi_offset 4, -36
 871              		.cfi_offset 5, -32
 872              		.cfi_offset 6, -28
 873              		.cfi_offset 7, -24
 874              		.cfi_offset 8, -20
 875              		.cfi_offset 9, -16
 876              		.cfi_offset 10, -12
 877              		.cfi_offset 11, -8
 878              		.cfi_offset 14, -4
 879 0004 91B0     		sub	sp, sp, #68
 880              		.cfi_def_cfa_offset 104
  31:.\main.c      ****     uint8 buffer[USBUART_BUFFER_SIZE];
  32:.\main.c      ****     uint8 cmd;
  33:.\main.c      ****     uint16 tmp = 0;
  34:.\main.c      ****     int i = 0, j = 0, k = 0, p = 0, d = 0;
  35:.\main.c      ****     
  36:.\main.c      ****     CyGlobalIntEnable; /* Enable global interrupts. */
 881              		.loc 1 36 0
 882              	@ 36 ".\main.c" 1
 883 0006 62B6     		CPSIE   i
 884              	@ 0 "" 2
  37:.\main.c      **** 
  38:.\main.c      ****     /* Place your initialization/startup code here (e.g. MyInst_Start()) */
  39:.\main.c      ****     USBUART_Start(0, USBUART_5V_OPERATION);
 885              		.loc 1 39 0
 886              		.thumb
 887 0008 0121     		movs	r1, #1
 888 000a 0020     		movs	r0, #0
 889 000c FFF7FEFF 		bl	USBUART_Start
 890              	.LVL1:
  40:.\main.c      ****     
  41:.\main.c      **** 
  42:.\main.c      ****     /* Start registers and timers */
  43:.\main.c      ****     P1_RegD0_Start();
 891              		.loc 1 43 0
 892 0010 FFF7FEFF 		bl	P1_RegD0_Start
 893              	.LVL2:
  44:.\main.c      ****     P1_RegD0_WriteRegValue(1);
 894              		.loc 1 44 0
 895 0014 0120     		movs	r0, #1
 896 0016 FFF7FEFF 		bl	P1_RegD0_WriteRegValue
 897              	.LVL3:
  45:.\main.c      ****     P1_RegD1_Start();
 898              		.loc 1 45 0
 899 001a FFF7FEFF 		bl	P1_RegD1_Start
 900              	.LVL4:
  46:.\main.c      ****     P1_RegD1_WriteRegValue(1);
 901              		.loc 1 46 0
 902 001e 0120     		movs	r0, #1
 903 0020 FFF7FEFF 		bl	P1_RegD1_WriteRegValue
 904              	.LVL5:
  47:.\main.c      ****     P1_RegD2_Start();
 905              		.loc 1 47 0
 906 0024 FFF7FEFF 		bl	P1_RegD2_Start
 907              	.LVL6:
  48:.\main.c      ****     P1_RegD2_WriteRegValue(1);
ARM GAS  C:\Users\Thomas\AppData\Local\Temp\ccdc0T6P.s 			page 71


 908              		.loc 1 48 0
 909 0028 0120     		movs	r0, #1
 910 002a FFF7FEFF 		bl	P1_RegD2_WriteRegValue
 911              	.LVL7:
  49:.\main.c      ****     
  50:.\main.c      ****     P1_WinTimer_Start();
 912              		.loc 1 50 0
 913 002e FFF7FEFF 		bl	P1_WinTimer_Start
 914              	.LVL8:
  51:.\main.c      ****     P1_TimerIRQ_Start();
 915              		.loc 1 51 0
 916 0032 FFF7FEFF 		bl	P1_TimerIRQ_Start
 917              	.LVL9:
  52:.\main.c      **** 
  53:.\main.c      ****     P2_RegD0_Start();
 918              		.loc 1 53 0
 919 0036 FFF7FEFF 		bl	P2_RegD0_Start
 920              	.LVL10:
  54:.\main.c      ****     P2_RegD0_WriteRegValue(1);
 921              		.loc 1 54 0
 922 003a 0120     		movs	r0, #1
 923 003c FFF7FEFF 		bl	P2_RegD0_WriteRegValue
 924              	.LVL11:
 925 0040 564C     		ldr	r4, .L144
  55:.\main.c      ****     P2_RegD1_Start();
 926              		.loc 1 55 0
 927 0042 FFF7FEFF 		bl	P2_RegD1_Start
 928              	.LVL12:
  56:.\main.c      ****     P2_RegD1_WriteRegValue(1);
 929              		.loc 1 56 0
 930 0046 0120     		movs	r0, #1
 931 0048 FFF7FEFF 		bl	P2_RegD1_WriteRegValue
 932              	.LVL13:
  57:.\main.c      ****     P2_RegD2_Start();
 933              		.loc 1 57 0
 934 004c FFF7FEFF 		bl	P2_RegD2_Start
 935              	.LVL14:
  58:.\main.c      ****     P2_RegD2_WriteRegValue(1);
 936              		.loc 1 58 0
 937 0050 0120     		movs	r0, #1
 938 0052 FFF7FEFF 		bl	P2_RegD2_WriteRegValue
 939              	.LVL15:
  59:.\main.c      ****     
  60:.\main.c      ****     P2_WinTimer_Start();
  61:.\main.c      ****     P2_TimerIRQ_Start();
  62:.\main.c      **** 
  63:.\main.c      ****     for(;;)
  64:.\main.c      ****     {           
  65:.\main.c      ****         if(playing && request[0] == 0)
 940              		.loc 1 65 0
 941 0056 2546     		mov	r5, r4
  60:.\main.c      ****     P2_TimerIRQ_Start();
 942              		.loc 1 60 0
 943 0058 FFF7FEFF 		bl	P2_WinTimer_Start
 944              	.LVL16:
  61:.\main.c      **** 
 945              		.loc 1 61 0
ARM GAS  C:\Users\Thomas\AppData\Local\Temp\ccdc0T6P.s 			page 72


 946 005c FFF7FEFF 		bl	P2_TimerIRQ_Start
 947              	.LVL17:
 948 0060 4F4E     		ldr	r6, .L144+4
 949              	.LVL18:
 950              	.L123:
  66:.\main.c      **** 		{
  67:.\main.c      ****         	i = (INPUT_BUF_SIZE - 1) - ((buf_ptr[0] - input_ptr[0])&(INPUT_BUF_SIZE - 1));
  68:.\main.c      **** 			if(i != (INPUT_BUF_SIZE - 1) && i > 65)
 951              		.loc 1 68 0
 952 0062 40F2FF77 		movw	r7, #2047
 953              	.L15:
  65:.\main.c      **** 		{
 954              		.loc 1 65 0
 955 0066 2368     		ldr	r3, [r4]
 956 0068 C3B1     		cbz	r3, .L5
  65:.\main.c      **** 		{
 957              		.loc 1 65 0 is_stmt 0 discriminator 1
 958 006a 6B68     		ldr	r3, [r5, #4]
 959 006c B3B9     		cbnz	r3, .L5
  67:.\main.c      **** 			if(i != (INPUT_BUF_SIZE - 1) && i > 65)
 960              		.loc 1 67 0 is_stmt 1
 961 006e 4D4A     		ldr	r2, .L144+8
 962 0070 EB68     		ldr	r3, [r5, #12]
 963 0072 1268     		ldr	r2, [r2]
 964 0074 9B1A     		subs	r3, r3, r2
 965 0076 DB43     		mvns	r3, r3
 966 0078 C3F30A03 		ubfx	r3, r3, #0, #11
 967              	.LVL19:
 968              		.loc 1 68 0
 969 007c BB42     		cmp	r3, r7
 970 007e 0DD0     		beq	.L5
 971              		.loc 1 68 0 is_stmt 0 discriminator 1
 972 0080 412B     		cmp	r3, #65
 973 0082 0BDD     		ble	.L5
  69:.\main.c      **** 			{
  70:.\main.c      ****                 if (0u != USBUART_GetConfiguration())
 974              		.loc 1 70 0 is_stmt 1
 975 0084 FFF7FEFF 		bl	USBUART_GetConfiguration
 976              	.LVL20:
 977 0088 40B1     		cbz	r0, .L5
 978              	.L108:
  71:.\main.c      ****                 {
  72:.\main.c      ****                     while (0u == USBUART_CDCIsReady()) { }
 979              		.loc 1 72 0 discriminator 1
 980 008a FFF7FEFF 		bl	USBUART_CDCIsReady
 981              	.LVL21:
 982 008e 0028     		cmp	r0, #0
 983 0090 FBD0     		beq	.L108
  73:.\main.c      ****                     USBUART_PutChar(0xF0);
 984              		.loc 1 73 0
 985 0092 F020     		movs	r0, #240
 986 0094 FFF7FEFF 		bl	USBUART_PutChar
 987              	.LVL22:
  74:.\main.c      ****                     request[0] = 1;
 988              		.loc 1 74 0
 989 0098 0123     		movs	r3, #1
 990 009a 6360     		str	r3, [r4, #4]
ARM GAS  C:\Users\Thomas\AppData\Local\Temp\ccdc0T6P.s 			page 73


 991              	.L5:
  75:.\main.c      ****                 }
  76:.\main.c      ****             }
  77:.\main.c      ****         }
  78:.\main.c      ****         
  79:.\main.c      ****         if(playing && request[1] == 0)
 992              		.loc 1 79 0
 993 009c 2368     		ldr	r3, [r4]
 994 009e 63B1     		cbz	r3, .L9
 995              		.loc 1 79 0 is_stmt 0 discriminator 1
 996 00a0 AB68     		ldr	r3, [r5, #8]
 997 00a2 53B9     		cbnz	r3, .L9
  80:.\main.c      ****         {
  81:.\main.c      ****             i = (INPUT_BUF_SIZE - 1) - ((buf_ptr[1] - input_ptr[1])&(INPUT_BUF_SIZE - 1));
 998              		.loc 1 81 0 is_stmt 1
 999 00a4 3F4A     		ldr	r2, .L144+8
 1000 00a6 2B69     		ldr	r3, [r5, #16]
 1001 00a8 5268     		ldr	r2, [r2, #4]
 1002 00aa 9B1A     		subs	r3, r3, r2
 1003 00ac DB43     		mvns	r3, r3
 1004 00ae C3F30A03 		ubfx	r3, r3, #0, #11
 1005              	.LVL23:
  82:.\main.c      **** 			if(i != (INPUT_BUF_SIZE - 1) && i > 65)
 1006              		.loc 1 82 0
 1007 00b2 BB42     		cmp	r3, r7
 1008 00b4 01D0     		beq	.L9
 1009              		.loc 1 82 0 is_stmt 0 discriminator 1
 1010 00b6 412B     		cmp	r3, #65
 1011 00b8 2DDC     		bgt	.L133
 1012              	.LVL24:
 1013              	.L9:
  83:.\main.c      **** 			{
  84:.\main.c      ****                 if (0u != USBUART_GetConfiguration())
  85:.\main.c      ****                 {
  86:.\main.c      ****                     while (0u == USBUART_CDCIsReady()) { }
  87:.\main.c      ****                     USBUART_PutChar(0xF1);
  88:.\main.c      ****                     request[1] = 1;
  89:.\main.c      ****                 }
  90:.\main.c      ****             }
  91:.\main.c      ****         }
  92:.\main.c      ****         
  93:.\main.c      ****         if (0u != USBUART_IsConfigurationChanged())
 1014              		.loc 1 93 0 is_stmt 1
 1015 00ba FFF7FEFF 		bl	USBUART_IsConfigurationChanged
 1016              	.LVL25:
 1017 00be 18BB     		cbnz	r0, .L134
 1018              	.L13:
  94:.\main.c      ****         {
  95:.\main.c      ****             if (0u != USBUART_GetConfiguration())
  96:.\main.c      ****             {
  97:.\main.c      ****                 USBUART_CDC_Init();
  98:.\main.c      ****             }
  99:.\main.c      ****         }        
 100:.\main.c      ****         
 101:.\main.c      ****         if (0u != USBUART_GetConfiguration())
 1019              		.loc 1 101 0
 1020 00c0 FFF7FEFF 		bl	USBUART_GetConfiguration
ARM GAS  C:\Users\Thomas\AppData\Local\Temp\ccdc0T6P.s 			page 74


 1021              	.LVL26:
 1022 00c4 0028     		cmp	r0, #0
 1023 00c6 CED0     		beq	.L15
 102:.\main.c      ****         {
 103:.\main.c      ****             if (0u != USBUART_DataIsReady())
 1024              		.loc 1 103 0
 1025 00c8 FFF7FEFF 		bl	USBUART_DataIsReady
 1026              	.LVL27:
 1027 00cc 0028     		cmp	r0, #0
 1028 00ce CAD0     		beq	.L15
 104:.\main.c      ****             {
 105:.\main.c      ****                 /* Read received data and re-enable OUT endpoint. */
 106:.\main.c      ****                 bytes = USBUART_GetAll(buffer);
 1029              		.loc 1 106 0
 1030 00d0 6846     		mov	r0, sp
 1031 00d2 FFF7FEFF 		bl	USBUART_GetAll
 1032              	.LVL28:
 107:.\main.c      ****                 cmd = buffer[0];
 108:.\main.c      ****                 
 109:.\main.c      ****                 switch(cmd)
 1033              		.loc 1 109 0
 1034 00d6 9DF80070 		ldrb	r7, [sp]	@ zero_extendqisi2
 106:.\main.c      ****                 cmd = buffer[0];
 1035              		.loc 1 106 0
 1036 00da 6061     		str	r0, [r4, #20]
 1037              	.LVL29:
 1038              		.loc 1 109 0
 1039 00dc B02F     		cmp	r7, #176
 1040 00de 46D0     		beq	.L17
 1041 00e0 35D9     		bls	.L135
 1042 00e2 F02F     		cmp	r7, #240
 1043 00e4 00F07A81 		beq	.L73
 1044 00e8 23D9     		bls	.L136
 1045 00ea F22F     		cmp	r7, #242
 1046 00ec 00F00D82 		beq	.L75
 1047 00f0 C0F0D281 		bcc	.L74
 1048 00f4 FF2F     		cmp	r7, #255
 1049 00f6 B4D1     		bne	.L123
 1050              	.LVL30:
 1051              	.L33:
 110:.\main.c      ****                 {
 111:.\main.c      ****                     case 0:
 112:.\main.c      ****                     {
 113:.\main.c      ****                         input_ptr[0] = 0;
 114:.\main.c      ****                         input_ptr[1] = 0;
 115:.\main.c      ****                         buf_ptr[0] = 0;
 116:.\main.c      ****                         buf_ptr[1] = 0;
 117:.\main.c      ****                         playing = 0;
 118:.\main.c      ****                         count = 0;
 119:.\main.c      ****                         latches[0] = 0;
 120:.\main.c      ****                         latches[1] = 0;
 121:.\main.c      ****                         async = 0;
 122:.\main.c      ****                         P1_IRQ_Stop();
 123:.\main.c      ****                         P2_IRQ_Stop();
 124:.\main.c      ****                         
 125:.\main.c      ****                         for(i = 0; i < INPUT_BUF_SIZE; i++)
 126:.\main.c      ****                         {
ARM GAS  C:\Users\Thomas\AppData\Local\Temp\ccdc0T6P.s 			page 75


 127:.\main.c      ****                             for(j = 0; j < 6; j++)
 128:.\main.c      ****                             {
 129:.\main.c      ****                                 input[j][i] = 0;
 130:.\main.c      ****                             }
 131:.\main.c      ****                         }
 132:.\main.c      ****                         break;
 133:.\main.c      ****                     }
 134:.\main.c      ****                     case 1:
 135:.\main.c      ****                     {
 136:.\main.c      ****                         databits = buffer[1];
 137:.\main.c      ****                         ports = buffer[2];
 138:.\main.c      ****                         lines = buffer[3];
 139:.\main.c      ****                         async = buffer[4];
 140:.\main.c      ****                         use_timer[0] = buffer[5];
 141:.\main.c      ****                         use_timer[1] = buffer[6];
 142:.\main.c      ****                         
 143:.\main.c      ****                         buf_ptr[0] = 0;
 144:.\main.c      ****                         buf_ptr[1] = 0;
 145:.\main.c      ****                         playing = 0;
 146:.\main.c      ****                         sent = 0;
 147:.\main.c      ****                         count = 0;
 148:.\main.c      ****                         latches[0] = 0;
 149:.\main.c      ****                         latches[1] = 0;
 150:.\main.c      ****                         
 151:.\main.c      ****                         for(k = 0; k < 4*ports*databits*lines; k++)
 152:.\main.c      ****                         {
 153:.\main.c      ****                             while (0u == USBUART_CDCIsReady()) { }
 154:.\main.c      ****                             USBUART_PutChar(0xF2);
 155:.\main.c      ****                             
 156:.\main.c      ****                             while(USBUART_DataIsReady() == 0) { }
 157:.\main.c      ****                             bytes = USBUART_GetAll(buffer);
 158:.\main.c      ****                             
 159:.\main.c      ****                             for(j = 1; j < 61; j+= (databits * lines) * ports)
 160:.\main.c      ****                             {
 161:.\main.c      ****                                 for(p = 0; p < ports; p++)
 162:.\main.c      ****                                 {
 163:.\main.c      ****                                     for(d = 0; d < lines; d++)
 164:.\main.c      ****                                     {
 165:.\main.c      ****                                         tmp = 0;
 166:.\main.c      ****                                         for(i = 0; i < databits; i++)
 167:.\main.c      ****                                         {
 168:.\main.c      ****                                             tmp = (tmp<<8) + buffer[j+(p*(databits*lines))+(d*datab
 169:.\main.c      ****                                         }
 170:.\main.c      ****                                         input[(p*3) + d][buf_ptr[p]] = tmp;
 171:.\main.c      ****                                     }
 172:.\main.c      ****                                 }
 173:.\main.c      ****             					buf_ptr[0] = (buf_ptr[0]+1)%INPUT_BUF_SIZE;
 174:.\main.c      ****                                 buf_ptr[1] = (buf_ptr[1]+1)%INPUT_BUF_SIZE;
 175:.\main.c      ****                             }
 176:.\main.c      ****                         }
 177:.\main.c      ****                         
 178:.\main.c      ****                         input_ptr[0] = 0;
 179:.\main.c      ****                         input_ptr[1] = 0;
 180:.\main.c      ****                         
 181:.\main.c      ****                         while (0u == USBUART_CDCIsReady()) { }
 182:.\main.c      ****                         USBUART_PutChar(0xB);                        
 183:.\main.c      ****                         data[0] = input[0][0];
ARM GAS  C:\Users\Thomas\AppData\Local\Temp\ccdc0T6P.s 			page 76


 184:.\main.c      ****                         data[1] = input[1][0];
 185:.\main.c      ****                         data[2] = input[2][0];
 186:.\main.c      ****                         data[3] = input[3][0];
 187:.\main.c      ****                         data[4] = input[4][0];
 188:.\main.c      ****                         data[5] = input[5][0];
 189:.\main.c      ****                         timer_ready[0] = 1;
 190:.\main.c      ****                         timer_ready[1] = 1;
 191:.\main.c      ****                         ready = 1;
 192:.\main.c      ****                         playing = 1;
 193:.\main.c      ****                         request[0] = 0;
 194:.\main.c      ****                         request[1] = 1;
 195:.\main.c      ****                         P1_IRQ_Start();
 196:.\main.c      ****                         
 197:.\main.c      ****                         if(async && ports > 1)
 198:.\main.c      ****                         {
 199:.\main.c      ****                             P2_IRQ_Start();
 200:.\main.c      ****                             request[1] = 0;
 201:.\main.c      ****                         }
 202:.\main.c      ****                         
 203:.\main.c      ****                         break;
 204:.\main.c      ****                     }
 205:.\main.c      ****                     case 0xF0:
 206:.\main.c      ****                     {
 207:.\main.c      ****                         tmp = 0;
 208:.\main.c      ****                         for(j = 1; j < 61; j+= databits * lines)
 209:.\main.c      ****                         {
 210:.\main.c      ****                             for(d = 0; d < lines; d++)
 211:.\main.c      ****                             {
 212:.\main.c      ****                                 tmp = 0;
 213:.\main.c      ****                                 for(i = 0; i < databits; i++)
 214:.\main.c      ****                                 {
 215:.\main.c      ****                                     tmp = (tmp<<8) + buffer[j+(d*databits)+i];
 216:.\main.c      ****                                 }
 217:.\main.c      ****                                 input[d][buf_ptr[0]] = tmp;
 218:.\main.c      ****                             }
 219:.\main.c      ****         					buf_ptr[0] = (buf_ptr[0]+1)%INPUT_BUF_SIZE;
 220:.\main.c      ****                         }
 221:.\main.c      ****                         request[0] = 0;
 222:.\main.c      ****                         break;
 223:.\main.c      ****                     }
 224:.\main.c      ****                     case 0xF1:
 225:.\main.c      ****                     {
 226:.\main.c      ****                         tmp = 0;
 227:.\main.c      ****                         for(j = 1; j < 61; j+= databits * lines)
 228:.\main.c      ****                         {
 229:.\main.c      ****                             for(d = 0; d < lines; d++)
 230:.\main.c      ****                             {
 231:.\main.c      ****                                 tmp = 0;
 232:.\main.c      ****                                 for(i = 0; i < databits; i++)
 233:.\main.c      ****                                 {
 234:.\main.c      ****                                     tmp = (tmp<<8) + buffer[j+(d*databits)+i];
 235:.\main.c      ****                                 }
 236:.\main.c      ****                                 input[3 + d][buf_ptr[1]] = tmp;
 237:.\main.c      ****                             }
 238:.\main.c      ****         					buf_ptr[1] = (buf_ptr[1]+1)%INPUT_BUF_SIZE;
 239:.\main.c      ****                         }
 240:.\main.c      ****                         request[1] = 0;
ARM GAS  C:\Users\Thomas\AppData\Local\Temp\ccdc0T6P.s 			page 77


 241:.\main.c      ****                         break;
 242:.\main.c      ****                     }
 243:.\main.c      ****                     case 0xF2:
 244:.\main.c      ****                     {
 245:.\main.c      ****                         /* synchronous send to both ports with interleaved data */
 246:.\main.c      ****                         for(j = 1; j < 61; j+= (databits * lines) * ports)
 247:.\main.c      ****                         {
 248:.\main.c      ****                             for(p = 0; p < ports; p++)
 249:.\main.c      ****                             {
 250:.\main.c      ****                                 for(d = 0; d < lines; d++)
 251:.\main.c      ****                                 {
 252:.\main.c      ****                                     tmp = 0;
 253:.\main.c      ****                                     for(i = 0; i < databits; i++)
 254:.\main.c      ****                                     {
 255:.\main.c      ****                                         tmp = (tmp<<8) + buffer[j+(p*(databits*lines))+(d*databits)
 256:.\main.c      ****                                     }
 257:.\main.c      ****                                     input[(p*3) + d][buf_ptr[0]] = tmp;
 258:.\main.c      ****                                 }
 259:.\main.c      ****                             }
 260:.\main.c      ****         					buf_ptr[0] = (buf_ptr[0]+1)%INPUT_BUF_SIZE;
 261:.\main.c      ****                             buf_ptr[1] = (buf_ptr[1]+1)%INPUT_BUF_SIZE;
 262:.\main.c      ****                         }
 263:.\main.c      ****                         request[0] = 0;
 264:.\main.c      ****                         break;
 265:.\main.c      ****                     }
 266:.\main.c      ****                     case 0xA0:
 267:.\main.c      ****                     {                        
 268:.\main.c      ****                         P1_WinTimer_WritePeriod((buffer[1]<<8) + (buffer[2]&0xFF));
 269:.\main.c      ****                         break;
 270:.\main.c      ****                     }
 271:.\main.c      ****                     case 0xA1:
 272:.\main.c      ****                     {
 273:.\main.c      ****                         window_off[0] = (buffer[1]<<8) + (buffer[2]&0xFF);
 274:.\main.c      ****                         break;
 275:.\main.c      ****                     }
 276:.\main.c      ****                     case 0xA2:
 277:.\main.c      ****                     {
 278:.\main.c      ****                         disable_timer[0] = 1;
 279:.\main.c      ****                         break;
 280:.\main.c      ****                     }
 281:.\main.c      ****                     case 0xA3:
 282:.\main.c      ****                     {
 283:.\main.c      ****                         disable_timer[0] = 0;
 284:.\main.c      ****                         use_timer[0] = 1;
 285:.\main.c      ****                         timer_ready[0] = 1;
 286:.\main.c      ****                         break;
 287:.\main.c      ****                     }
 288:.\main.c      ****                     case 0xB0:
 289:.\main.c      ****                     {                        
 290:.\main.c      ****                         P2_WinTimer_WritePeriod((buffer[1]<<8) + (buffer[2]&0xFF));
 291:.\main.c      ****                         break;
 292:.\main.c      ****                     }
 293:.\main.c      ****                     case 0xB1:
 294:.\main.c      ****                     {
 295:.\main.c      ****                         window_off[1] = (buffer[1]<<8) + (buffer[2]&0xFF);
 296:.\main.c      ****                         break;
 297:.\main.c      ****                     }
ARM GAS  C:\Users\Thomas\AppData\Local\Temp\ccdc0T6P.s 			page 78


 298:.\main.c      ****                     case 0xB2:
 299:.\main.c      ****                     {
 300:.\main.c      ****                         disable_timer[1] = 1;
 301:.\main.c      ****                         break;
 302:.\main.c      ****                     }
 303:.\main.c      ****                     case 0xB3:
 304:.\main.c      ****                     {
 305:.\main.c      ****                         disable_timer[1] = 0;
 306:.\main.c      ****                         use_timer[1] = 1;
 307:.\main.c      ****                         timer_ready[1] = 1;
 308:.\main.c      ****                         break;
 309:.\main.c      ****                     }
 310:.\main.c      ****                     case 0xFF:
 311:.\main.c      ****                     {
 312:.\main.c      ****                         while (0u == USBUART_CDCIsReady()) { }
 1052              		.loc 1 312 0 discriminator 1
 1053 00f8 FFF7FEFF 		bl	USBUART_CDCIsReady
 1054              	.LVL31:
 1055 00fc 0028     		cmp	r0, #0
 1056 00fe FBD0     		beq	.L33
 313:.\main.c      ****                         USBUART_PutChar(0xFF);
 1057              		.loc 1 313 0
 1058 0100 FF20     		movs	r0, #255
 1059 0102 FFF7FEFF 		bl	USBUART_PutChar
 1060              	.LVL32:
 314:.\main.c      ****                         break;
 1061              		.loc 1 314 0
 1062 0106 ACE7     		b	.L123
 1063              	.LVL33:
 1064              	.L134:
  95:.\main.c      ****             {
 1065              		.loc 1 95 0
 1066 0108 FFF7FEFF 		bl	USBUART_GetConfiguration
 1067              	.LVL34:
 1068 010c 0028     		cmp	r0, #0
 1069 010e D7D0     		beq	.L13
  97:.\main.c      ****             }
 1070              		.loc 1 97 0
 1071 0110 FFF7FEFF 		bl	USBUART_CDC_Init
 1072              	.LVL35:
 1073 0114 D4E7     		b	.L13
 1074              	.LVL36:
 1075              	.L133:
  84:.\main.c      ****                 {
 1076              		.loc 1 84 0
 1077 0116 FFF7FEFF 		bl	USBUART_GetConfiguration
 1078              	.LVL37:
 1079 011a 0028     		cmp	r0, #0
 1080 011c CDD0     		beq	.L9
 1081              	.L109:
  86:.\main.c      ****                     USBUART_PutChar(0xF1);
 1082              		.loc 1 86 0 discriminator 1
 1083 011e FFF7FEFF 		bl	USBUART_CDCIsReady
 1084              	.LVL38:
 1085 0122 0028     		cmp	r0, #0
 1086 0124 FBD0     		beq	.L109
  87:.\main.c      ****                     request[1] = 1;
ARM GAS  C:\Users\Thomas\AppData\Local\Temp\ccdc0T6P.s 			page 79


 1087              		.loc 1 87 0
 1088 0126 F120     		movs	r0, #241
 1089 0128 FFF7FEFF 		bl	USBUART_PutChar
 1090              	.LVL39:
  88:.\main.c      ****                 }
 1091              		.loc 1 88 0
 1092 012c 0123     		movs	r3, #1
 1093 012e A360     		str	r3, [r4, #8]
 1094 0130 C3E7     		b	.L9
 1095              	.LVL40:
 1096              	.L136:
 109:.\main.c      ****                 {
 1097              		.loc 1 109 0
 1098 0132 B22F     		cmp	r7, #178
 1099 0134 00F09281 		beq	.L28
 1100 0138 C0F08781 		bcc	.L29
 1101 013c B32F     		cmp	r7, #179
 1102 013e 90D1     		bne	.L123
 305:.\main.c      ****                         use_timer[1] = 1;
 1103              		.loc 1 305 0
 1104 0140 1649     		ldr	r1, .L144
 306:.\main.c      ****                         timer_ready[1] = 1;
 1105              		.loc 1 306 0
 1106 0142 0123     		movs	r3, #1
 305:.\main.c      ****                         use_timer[1] = 1;
 1107              		.loc 1 305 0
 1108 0144 0022     		movs	r2, #0
 1109 0146 CA65     		str	r2, [r1, #92]
 306:.\main.c      ****                         timer_ready[1] = 1;
 1110              		.loc 1 306 0
 1111 0148 8B63     		str	r3, [r1, #56]
 307:.\main.c      ****                         break;
 1112              		.loc 1 307 0
 1113 014a 0B65     		str	r3, [r1, #80]
 308:.\main.c      ****                     }
 1114              		.loc 1 308 0
 1115 014c 89E7     		b	.L123
 1116              	.L135:
 109:.\main.c      ****                 {
 1117              		.loc 1 109 0
 1118 014e A02F     		cmp	r7, #160
 1119 0150 00F03782 		beq	.L19
 1120 0154 2AD9     		bls	.L137
 1121 0156 A22F     		cmp	r7, #162
 1122 0158 1CD0     		beq	.L23
 1123 015a 12D3     		bcc	.L24
 1124 015c A32F     		cmp	r7, #163
 1125 015e 80D1     		bne	.L123
 283:.\main.c      ****                         use_timer[0] = 1;
 1126              		.loc 1 283 0
 1127 0160 0E49     		ldr	r1, .L144
 284:.\main.c      ****                         timer_ready[0] = 1;
 1128              		.loc 1 284 0
 1129 0162 0123     		movs	r3, #1
 283:.\main.c      ****                         use_timer[0] = 1;
 1130              		.loc 1 283 0
 1131 0164 0022     		movs	r2, #0
ARM GAS  C:\Users\Thomas\AppData\Local\Temp\ccdc0T6P.s 			page 80


 1132 0166 8A65     		str	r2, [r1, #88]
 284:.\main.c      ****                         timer_ready[0] = 1;
 1133              		.loc 1 284 0
 1134 0168 4B63     		str	r3, [r1, #52]
 285:.\main.c      ****                         break;
 1135              		.loc 1 285 0
 1136 016a CB64     		str	r3, [r1, #76]
 286:.\main.c      ****                     }
 1137              		.loc 1 286 0
 1138 016c 79E7     		b	.L123
 1139              	.L17:
 290:.\main.c      ****                         break;
 1140              		.loc 1 290 0
 1141 016e 9DF80100 		ldrb	r0, [sp, #1]	@ zero_extendqisi2
 1142 0172 9DF80230 		ldrb	r3, [sp, #2]	@ zero_extendqisi2
 1143 0176 03EB0020 		add	r0, r3, r0, lsl #8
 1144 017a 80B2     		uxth	r0, r0
 1145 017c FFF7FEFF 		bl	P2_WinTimer_WritePeriod
 1146              	.LVL41:
 291:.\main.c      ****                     }
 1147              		.loc 1 291 0
 1148 0180 6FE7     		b	.L123
 1149              	.LVL42:
 1150              	.L24:
 273:.\main.c      ****                         break;
 1151              		.loc 1 273 0
 1152 0182 9DF80120 		ldrb	r2, [sp, #1]	@ zero_extendqisi2
 1153 0186 9DF80230 		ldrb	r3, [sp, #2]	@ zero_extendqisi2
 1154 018a 03EB0223 		add	r3, r3, r2, lsl #8
 1155 018e 064A     		ldr	r2, .L144+12
 1156 0190 1360     		str	r3, [r2]
 274:.\main.c      ****                     }
 1157              		.loc 1 274 0
 1158 0192 66E7     		b	.L123
 1159              	.L23:
 278:.\main.c      ****                         break;
 1160              		.loc 1 278 0
 1161 0194 014A     		ldr	r2, .L144
 1162 0196 0123     		movs	r3, #1
 1163 0198 9365     		str	r3, [r2, #88]
 279:.\main.c      ****                     }
 1164              		.loc 1 279 0
 1165 019a 62E7     		b	.L123
 1166              	.L145:
 1167              		.align	2
 1168              	.L144:
 1169 019c 00000000 		.word	.LANCHOR0
 1170 01a0 00000000 		.word	input
 1171 01a4 00000000 		.word	input_ptr
 1172 01a8 00000000 		.word	.LANCHOR1
 1173              	.L137:
 109:.\main.c      ****                 {
 1174              		.loc 1 109 0
 1175 01ac 002F     		cmp	r7, #0
 1176 01ae 00F0EA80 		beq	.L21
 1177 01b2 012F     		cmp	r7, #1
 1178 01b4 7FF455AF 		bne	.L123
ARM GAS  C:\Users\Thomas\AppData\Local\Temp\ccdc0T6P.s 			page 81


 136:.\main.c      ****                         ports = buffer[2];
 1179              		.loc 1 136 0
 1180 01b8 AE4F     		ldr	r7, .L146
 1181 01ba 9DF80120 		ldrb	r2, [sp, #1]	@ zero_extendqisi2
 137:.\main.c      ****                         lines = buffer[3];
 1182              		.loc 1 137 0
 1183 01be 9DF80230 		ldrb	r3, [sp, #2]	@ zero_extendqisi2
 138:.\main.c      ****                         async = buffer[4];
 1184              		.loc 1 138 0
 1185 01c2 9DF80300 		ldrb	r0, [sp, #3]	@ zero_extendqisi2
 136:.\main.c      ****                         ports = buffer[2];
 1186              		.loc 1 136 0
 1187 01c6 BA62     		str	r2, [r7, #40]
 139:.\main.c      ****                         use_timer[0] = buffer[5];
 1188              		.loc 1 139 0
 1189 01c8 9DF80410 		ldrb	r1, [sp, #4]	@ zero_extendqisi2
 137:.\main.c      ****                         lines = buffer[3];
 1190              		.loc 1 137 0
 1191 01cc FB62     		str	r3, [r7, #44]
 140:.\main.c      ****                         use_timer[1] = buffer[6];
 1192              		.loc 1 140 0
 1193 01ce 9DF80520 		ldrb	r2, [sp, #5]	@ zero_extendqisi2
 138:.\main.c      ****                         async = buffer[4];
 1194              		.loc 1 138 0
 1195 01d2 3863     		str	r0, [r7, #48]
 141:.\main.c      ****                         
 1196              		.loc 1 141 0
 1197 01d4 9DF80630 		ldrb	r3, [sp, #6]	@ zero_extendqisi2
 139:.\main.c      ****                         use_timer[0] = buffer[5];
 1198              		.loc 1 139 0
 1199 01d8 A648     		ldr	r0, .L146
 143:.\main.c      ****                         buf_ptr[1] = 0;
 1200              		.loc 1 143 0
 1201 01da 0027     		movs	r7, #0
 139:.\main.c      ****                         use_timer[0] = buffer[5];
 1202              		.loc 1 139 0
 1203 01dc 4162     		str	r1, [r0, #36]
 140:.\main.c      ****                         use_timer[1] = buffer[6];
 1204              		.loc 1 140 0
 1205 01de 4263     		str	r2, [r0, #52]
 141:.\main.c      ****                         
 1206              		.loc 1 141 0
 1207 01e0 8363     		str	r3, [r0, #56]
 143:.\main.c      ****                         buf_ptr[1] = 0;
 1208              		.loc 1 143 0
 1209 01e2 C760     		str	r7, [r0, #12]
 144:.\main.c      ****                         playing = 0;
 1210              		.loc 1 144 0
 1211 01e4 0761     		str	r7, [r0, #16]
 145:.\main.c      ****                         sent = 0;
 1212              		.loc 1 145 0
 1213 01e6 0760     		str	r7, [r0]
 146:.\main.c      ****                         count = 0;
 1214              		.loc 1 146 0
 1215 01e8 C763     		str	r7, [r0, #60]
 147:.\main.c      ****                         latches[0] = 0;
 1216              		.loc 1 147 0
ARM GAS  C:\Users\Thomas\AppData\Local\Temp\ccdc0T6P.s 			page 82


 1217 01ea 8761     		str	r7, [r0, #24]
 148:.\main.c      ****                         latches[1] = 0;
 1218              		.loc 1 148 0
 1219 01ec C761     		str	r7, [r0, #28]
 149:.\main.c      ****                         
 1220              		.loc 1 149 0
 1221 01ee 0762     		str	r7, [r0, #32]
 1222              	.LVL43:
 151:.\main.c      ****                         {
 1223              		.loc 1 151 0
 1224 01f0 C26A     		ldr	r2, [r0, #44]
 1225 01f2 836A     		ldr	r3, [r0, #40]
 1226 01f4 9200     		lsls	r2, r2, #2
 1227 01f6 03FB02F2 		mul	r2, r3, r2
 1228 01fa 036B     		ldr	r3, [r0, #48]
 1229 01fc 03FB02F3 		mul	r3, r3, r2
 1230 0200 BB42     		cmp	r3, r7
 1231 0202 C8BF     		it	gt
 1232 0204 BB46     		movgt	fp, r7
 1233 0206 72DD     		ble	.L50
 1234              	.LVL44:
 1235              	.L38:
 153:.\main.c      ****                             USBUART_PutChar(0xF2);
 1236              		.loc 1 153 0 discriminator 1
 1237 0208 FFF7FEFF 		bl	USBUART_CDCIsReady
 1238              	.LVL45:
 1239 020c 0028     		cmp	r0, #0
 1240 020e FBD0     		beq	.L38
 154:.\main.c      ****                             
 1241              		.loc 1 154 0
 1242 0210 F220     		movs	r0, #242
 1243 0212 FFF7FEFF 		bl	USBUART_PutChar
 1244              	.LVL46:
 1245              	.L39:
 156:.\main.c      ****                             bytes = USBUART_GetAll(buffer);
 1246              		.loc 1 156 0 discriminator 1
 1247 0216 FFF7FEFF 		bl	USBUART_DataIsReady
 1248              	.LVL47:
 1249 021a 0028     		cmp	r0, #0
 1250 021c FBD0     		beq	.L39
 157:.\main.c      ****                             
 1251              		.loc 1 157 0
 1252 021e 6846     		mov	r0, sp
 1253 0220 FFF7FEFF 		bl	USBUART_GetAll
 1254              	.LVL48:
 159:.\main.c      ****                             {
 1255              		.loc 1 159 0
 1256 0224 4FF0010C 		mov	ip, #1
 157:.\main.c      ****                             
 1257              		.loc 1 157 0
 1258 0228 6061     		str	r0, [r4, #20]
 1259              	.LVL49:
 1260              	.L40:
 161:.\main.c      ****                                 {
 1261              		.loc 1 161 0
 1262 022a E36A     		ldr	r3, [r4, #44]
 1263 022c 002B     		cmp	r3, #0
ARM GAS  C:\Users\Thomas\AppData\Local\Temp\ccdc0T6P.s 			page 83


 1264 022e C8BF     		it	gt
 1265 0230 4FF0000E 		movgt	lr, #0
 1266 0234 35DD     		ble	.L44
 1267              	.LVL50:
 1268              	.L49:
 163:.\main.c      ****                                     {
 1269              		.loc 1 163 0 discriminator 1
 1270 0236 236B     		ldr	r3, [r4, #48]
 1271 0238 002B     		cmp	r3, #0
 1272 023a 2DDD     		ble	.L42
 1273 023c 0EEB4E09 		add	r9, lr, lr, lsl #1
 163:.\main.c      ****                                     {
 1274              		.loc 1 163 0 is_stmt 0
 1275 0240 0027     		movs	r7, #0
 170:.\main.c      ****                                     }
 1276              		.loc 1 170 0 is_stmt 1
 1277 0242 04EB8E08 		add	r8, r4, lr, lsl #2
 1278              	.LVL51:
 1279              	.L45:
 166:.\main.c      ****                                         {
 1280              		.loc 1 166 0 discriminator 1
 1281 0246 A36A     		ldr	r3, [r4, #40]
 1282 0248 002B     		cmp	r3, #0
 1283 024a D8BF     		it	le
 1284 024c 0021     		movle	r1, #0
 1285 024e 17DD     		ble	.L43
 166:.\main.c      ****                                         {
 1286              		.loc 1 166 0 is_stmt 0
 1287 0250 0020     		movs	r0, #0
 1288 0252 0146     		mov	r1, r0
 1289              	.LVL52:
 1290              	.L41:
 168:.\main.c      ****                                         }
 1291              		.loc 1 168 0 is_stmt 1 discriminator 3
 1292 0254 D4F828A0 		ldr	r10, [r4, #40]
 1293 0258 226B     		ldr	r2, [r4, #48]
 1294 025a 10AB     		add	r3, sp, #64
 1295 025c 02FB0AF2 		mul	r2, r2, r10
 1296 0260 0344     		add	r3, r3, r0
 1297 0262 6344     		add	r3, r3, ip
 1298 0264 0EFB0233 		mla	r3, lr, r2, r3
 1299 0268 A26A     		ldr	r2, [r4, #40]
 166:.\main.c      ****                                         {
 1300              		.loc 1 166 0 discriminator 3
 1301 026a 0130     		adds	r0, r0, #1
 1302              	.LVL53:
 168:.\main.c      ****                                         }
 1303              		.loc 1 168 0 discriminator 3
 1304 026c 02FB0733 		mla	r3, r2, r7, r3
 166:.\main.c      ****                                         {
 1305              		.loc 1 166 0 discriminator 3
 1306 0270 A26A     		ldr	r2, [r4, #40]
 168:.\main.c      ****                                         }
 1307              		.loc 1 168 0 discriminator 3
 1308 0272 13F8403C 		ldrb	r3, [r3, #-64]	@ zero_extendqisi2
 166:.\main.c      ****                                         {
 1309              		.loc 1 166 0 discriminator 3
ARM GAS  C:\Users\Thomas\AppData\Local\Temp\ccdc0T6P.s 			page 84


 1310 0276 8242     		cmp	r2, r0
 168:.\main.c      ****                                         }
 1311              		.loc 1 168 0 discriminator 3
 1312 0278 03EB0121 		add	r1, r3, r1, lsl #8
 1313              	.LVL54:
 1314 027c 89B2     		uxth	r1, r1
 1315              	.LVL55:
 166:.\main.c      ****                                         {
 1316              		.loc 1 166 0 discriminator 3
 1317 027e E9DC     		bgt	.L41
 1318              	.LVL56:
 1319              	.L43:
 170:.\main.c      ****                                     }
 1320              		.loc 1 170 0 discriminator 2
 1321 0280 D8F80C30 		ldr	r3, [r8, #12]
 1322 0284 09EB0702 		add	r2, r9, r7
 1323 0288 03EBC223 		add	r3, r3, r2, lsl #11
 1324 028c 26F81310 		strh	r1, [r6, r3, lsl #1]	@ movhi
 163:.\main.c      ****                                     {
 1325              		.loc 1 163 0 discriminator 2
 1326 0290 236B     		ldr	r3, [r4, #48]
 1327 0292 0137     		adds	r7, r7, #1
 1328              	.LVL57:
 1329 0294 BB42     		cmp	r3, r7
 1330 0296 D6DC     		bgt	.L45
 1331              	.LVL58:
 1332              	.L42:
 161:.\main.c      ****                                 {
 1333              		.loc 1 161 0
 1334 0298 E36A     		ldr	r3, [r4, #44]
 1335 029a 0EF1010E 		add	lr, lr, #1
 1336              	.LVL59:
 1337 029e 7345     		cmp	r3, lr
 1338 02a0 C9DC     		bgt	.L49
 1339              	.LVL60:
 1340              	.L44:
 173:.\main.c      ****                                 buf_ptr[1] = (buf_ptr[1]+1)%INPUT_BUF_SIZE;
 1341              		.loc 1 173 0
 1342 02a2 E268     		ldr	r2, [r4, #12]
 1343 02a4 744B     		ldr	r3, .L146+4
 1344 02a6 0132     		adds	r2, r2, #1
 1345 02a8 1340     		ands	r3, r3, r2
 1346 02aa 002B     		cmp	r3, #0
 1347 02ac 64DB     		blt	.L138
 1348              	.L46:
 1349 02ae E360     		str	r3, [r4, #12]
 174:.\main.c      ****                             }
 1350              		.loc 1 174 0
 1351 02b0 2269     		ldr	r2, [r4, #16]
 1352 02b2 714B     		ldr	r3, .L146+4
 1353 02b4 0132     		adds	r2, r2, #1
 1354 02b6 1340     		ands	r3, r3, r2
 1355 02b8 002B     		cmp	r3, #0
 1356 02ba 56DB     		blt	.L139
 1357              	.L47:
 1358 02bc 2361     		str	r3, [r4, #16]
 159:.\main.c      ****                             {
ARM GAS  C:\Users\Thomas\AppData\Local\Temp\ccdc0T6P.s 			page 85


 1359              		.loc 1 159 0
 1360 02be A16A     		ldr	r1, [r4, #40]
 1361 02c0 236B     		ldr	r3, [r4, #48]
 1362 02c2 E26A     		ldr	r2, [r4, #44]
 1363 02c4 03FB01F3 		mul	r3, r3, r1
 1364 02c8 02FB03CC 		mla	ip, r2, r3, ip
 1365              	.LVL61:
 1366 02cc BCF13C0F 		cmp	ip, #60
 1367 02d0 ABDD     		ble	.L40
 151:.\main.c      ****                         {
 1368              		.loc 1 151 0 discriminator 2
 1369 02d2 684B     		ldr	r3, .L146
 1370 02d4 0BF1010B 		add	fp, fp, #1
 1371              	.LVL62:
 1372 02d8 DA6A     		ldr	r2, [r3, #44]
 1373 02da 9B6A     		ldr	r3, [r3, #40]
 1374 02dc 9200     		lsls	r2, r2, #2
 1375 02de 03FB02F2 		mul	r2, r3, r2
 1376 02e2 644B     		ldr	r3, .L146
 1377 02e4 1B6B     		ldr	r3, [r3, #48]
 1378 02e6 03FB02F3 		mul	r3, r3, r2
 1379 02ea 5B45     		cmp	r3, fp
 1380 02ec 8CDC     		bgt	.L38
 1381              	.LVL63:
 1382              	.L50:
 178:.\main.c      ****                         input_ptr[1] = 0;
 1383              		.loc 1 178 0
 1384 02ee 634A     		ldr	r2, .L146+8
 1385 02f0 0023     		movs	r3, #0
 1386 02f2 1360     		str	r3, [r2]
 179:.\main.c      ****                         
 1387              		.loc 1 179 0
 1388 02f4 5360     		str	r3, [r2, #4]
 1389              	.L37:
 181:.\main.c      ****                         USBUART_PutChar(0xB);                        
 1390              		.loc 1 181 0 discriminator 1
 1391 02f6 FFF7FEFF 		bl	USBUART_CDCIsReady
 1392              	.LVL64:
 1393 02fa 0028     		cmp	r0, #0
 1394 02fc FBD0     		beq	.L37
 182:.\main.c      ****                         data[0] = input[0][0];
 1395              		.loc 1 182 0
 1396 02fe 0B20     		movs	r0, #11
 1397 0300 FFF7FEFF 		bl	USBUART_PutChar
 1398              	.LVL65:
 183:.\main.c      ****                         data[1] = input[1][0];
 1399              		.loc 1 183 0
 1400 0304 3288     		ldrh	r2, [r6]
 189:.\main.c      ****                         timer_ready[1] = 1;
 1401              		.loc 1 189 0
 1402 0306 0123     		movs	r3, #1
 183:.\main.c      ****                         data[1] = input[1][0];
 1403              		.loc 1 183 0
 1404 0308 92B2     		uxth	r2, r2
 1405 030a A4F84020 		strh	r2, [r4, #64]	@ movhi
 184:.\main.c      ****                         data[2] = input[2][0];
 1406              		.loc 1 184 0
ARM GAS  C:\Users\Thomas\AppData\Local\Temp\ccdc0T6P.s 			page 86


 1407 030e 5C4A     		ldr	r2, .L146+12
 193:.\main.c      ****                         request[1] = 1;
 1408              		.loc 1 193 0
 1409 0310 0027     		movs	r7, #0
 184:.\main.c      ****                         data[2] = input[2][0];
 1410              		.loc 1 184 0
 1411 0312 1288     		ldrh	r2, [r2]
 1412 0314 92B2     		uxth	r2, r2
 1413 0316 A4F84220 		strh	r2, [r4, #66]	@ movhi
 185:.\main.c      ****                         data[3] = input[3][0];
 1414              		.loc 1 185 0
 1415 031a 5A4A     		ldr	r2, .L146+16
 1416 031c 1288     		ldrh	r2, [r2]
 1417 031e 92B2     		uxth	r2, r2
 1418 0320 A4F84420 		strh	r2, [r4, #68]	@ movhi
 186:.\main.c      ****                         data[4] = input[4][0];
 1419              		.loc 1 186 0
 1420 0324 584A     		ldr	r2, .L146+20
 1421 0326 1288     		ldrh	r2, [r2]
 1422 0328 92B2     		uxth	r2, r2
 1423 032a A4F84620 		strh	r2, [r4, #70]	@ movhi
 187:.\main.c      ****                         data[5] = input[5][0];
 1424              		.loc 1 187 0
 1425 032e 574A     		ldr	r2, .L146+24
 1426 0330 1288     		ldrh	r2, [r2]
 1427 0332 92B2     		uxth	r2, r2
 1428 0334 A4F84820 		strh	r2, [r4, #72]	@ movhi
 188:.\main.c      ****                         timer_ready[0] = 1;
 1429              		.loc 1 188 0
 1430 0338 554A     		ldr	r2, .L146+28
 1431 033a 1288     		ldrh	r2, [r2]
 1432 033c 92B2     		uxth	r2, r2
 1433 033e A4F84A20 		strh	r2, [r4, #74]	@ movhi
 189:.\main.c      ****                         timer_ready[1] = 1;
 1434              		.loc 1 189 0
 1435 0342 E364     		str	r3, [r4, #76]
 190:.\main.c      ****                         ready = 1;
 1436              		.loc 1 190 0
 1437 0344 2365     		str	r3, [r4, #80]
 191:.\main.c      ****                         playing = 1;
 1438              		.loc 1 191 0
 1439 0346 6365     		str	r3, [r4, #84]
 192:.\main.c      ****                         request[0] = 0;
 1440              		.loc 1 192 0
 1441 0348 2360     		str	r3, [r4]
 193:.\main.c      ****                         request[1] = 1;
 1442              		.loc 1 193 0
 1443 034a 6760     		str	r7, [r4, #4]
 194:.\main.c      ****                         P1_IRQ_Start();
 1444              		.loc 1 194 0
 1445 034c A360     		str	r3, [r4, #8]
 195:.\main.c      ****                         
 1446              		.loc 1 195 0
 1447 034e FFF7FEFF 		bl	P1_IRQ_Start
 1448              	.LVL66:
 197:.\main.c      ****                         {
 1449              		.loc 1 197 0
ARM GAS  C:\Users\Thomas\AppData\Local\Temp\ccdc0T6P.s 			page 87


 1450 0352 636A     		ldr	r3, [r4, #36]
 1451 0354 002B     		cmp	r3, #0
 1452 0356 3FF484AE 		beq	.L123
 197:.\main.c      ****                         {
 1453              		.loc 1 197 0 is_stmt 0 discriminator 1
 1454 035a EB6A     		ldr	r3, [r5, #44]
 1455 035c 012B     		cmp	r3, #1
 1456 035e 7FF780AE 		ble	.L123
 199:.\main.c      ****                             request[1] = 0;
 1457              		.loc 1 199 0 is_stmt 1
 1458 0362 FFF7FEFF 		bl	P2_IRQ_Start
 1459              	.LVL67:
 200:.\main.c      ****                         }
 1460              		.loc 1 200 0
 1461 0366 AF60     		str	r7, [r5, #8]
 1462 0368 7BE6     		b	.L123
 1463              	.LVL68:
 1464              	.L139:
 174:.\main.c      ****                             }
 1465              		.loc 1 174 0
 1466 036a 013B     		subs	r3, r3, #1
 1467 036c 6FEA4353 		mvn	r3, r3, lsl #21
 1468 0370 6FEA5353 		mvn	r3, r3, lsr #21
 1469 0374 0133     		adds	r3, r3, #1
 1470 0376 A1E7     		b	.L47
 1471              	.L138:
 173:.\main.c      ****                                 buf_ptr[1] = (buf_ptr[1]+1)%INPUT_BUF_SIZE;
 1472              		.loc 1 173 0
 1473 0378 013B     		subs	r3, r3, #1
 1474 037a 6FEA4353 		mvn	r3, r3, lsl #21
 1475 037e 6FEA5353 		mvn	r3, r3, lsr #21
 1476 0382 0133     		adds	r3, r3, #1
 1477 0384 93E7     		b	.L46
 1478              	.LVL69:
 1479              	.L21:
 113:.\main.c      ****                         input_ptr[1] = 0;
 1480              		.loc 1 113 0
 1481 0386 3D4B     		ldr	r3, .L146+8
 1482 0388 1F60     		str	r7, [r3]
 114:.\main.c      ****                         buf_ptr[0] = 0;
 1483              		.loc 1 114 0
 1484 038a 5F60     		str	r7, [r3, #4]
 115:.\main.c      ****                         buf_ptr[1] = 0;
 1485              		.loc 1 115 0
 1486 038c 394B     		ldr	r3, .L146
 1487 038e DF60     		str	r7, [r3, #12]
 116:.\main.c      ****                         playing = 0;
 1488              		.loc 1 116 0
 1489 0390 1F61     		str	r7, [r3, #16]
 117:.\main.c      ****                         count = 0;
 1490              		.loc 1 117 0
 1491 0392 1F60     		str	r7, [r3]
 118:.\main.c      ****                         latches[0] = 0;
 1492              		.loc 1 118 0
 1493 0394 9F61     		str	r7, [r3, #24]
 119:.\main.c      ****                         latches[1] = 0;
 1494              		.loc 1 119 0
ARM GAS  C:\Users\Thomas\AppData\Local\Temp\ccdc0T6P.s 			page 88


 1495 0396 DF61     		str	r7, [r3, #28]
 120:.\main.c      ****                         async = 0;
 1496              		.loc 1 120 0
 1497 0398 1F62     		str	r7, [r3, #32]
 121:.\main.c      ****                         P1_IRQ_Stop();
 1498              		.loc 1 121 0
 1499 039a 5F62     		str	r7, [r3, #36]
 122:.\main.c      ****                         P2_IRQ_Stop();
 1500              		.loc 1 122 0
 1501 039c FFF7FEFF 		bl	P1_IRQ_Stop
 1502              	.LVL70:
 123:.\main.c      ****                         
 1503              		.loc 1 123 0
 1504 03a0 FFF7FEFF 		bl	P2_IRQ_Stop
 1505              	.LVL71:
 129:.\main.c      ****                             }
 1506              		.loc 1 129 0
 1507 03a4 3B46     		mov	r3, r7
 1508              	.LVL72:
 1509              	.L34:
 1510 03a6 07F50062 		add	r2, r7, #2048
 1511 03aa 26F81730 		strh	r3, [r6, r7, lsl #1]	@ movhi
 1512              	.LVL73:
 1513 03ae 07F58051 		add	r1, r7, #4096
 1514 03b2 26F81230 		strh	r3, [r6, r2, lsl #1]	@ movhi
 1515              	.LVL74:
 1516 03b6 07F5C052 		add	r2, r7, #6144
 1517 03ba 26F81130 		strh	r3, [r6, r1, lsl #1]	@ movhi
 1518              	.LVL75:
 1519 03be 26F81230 		strh	r3, [r6, r2, lsl #1]	@ movhi
 1520              	.LVL76:
 1521 03c2 07F50051 		add	r1, r7, #8192
 1522 03c6 07F52052 		add	r2, r7, #10240
 125:.\main.c      ****                         {
 1523              		.loc 1 125 0
 1524 03ca 0137     		adds	r7, r7, #1
 1525              	.LVL77:
 1526 03cc B7F5006F 		cmp	r7, #2048
 129:.\main.c      ****                             }
 1527              		.loc 1 129 0
 1528 03d0 26F81130 		strh	r3, [r6, r1, lsl #1]	@ movhi
 1529              	.LVL78:
 1530 03d4 26F81230 		strh	r3, [r6, r2, lsl #1]	@ movhi
 1531              	.LVL79:
 125:.\main.c      ****                         {
 1532              		.loc 1 125 0
 1533 03d8 E5D1     		bne	.L34
 1534 03da 42E6     		b	.L123
 1535              	.LVL80:
 1536              	.L73:
 109:.\main.c      ****                 {
 1537              		.loc 1 109 0
 1538 03dc 0127     		movs	r7, #1
 1539              	.L26:
 1540              	.LVL81:
 210:.\main.c      ****                             {
 1541              		.loc 1 210 0
ARM GAS  C:\Users\Thomas\AppData\Local\Temp\ccdc0T6P.s 			page 89


 1542 03de 236B     		ldr	r3, [r4, #48]
 1543 03e0 002B     		cmp	r3, #0
 1544 03e2 21DD     		ble	.L53
 1545 03e4 4FF0000E 		mov	lr, #0
 1546              	.LVL82:
 1547              	.L57:
 213:.\main.c      ****                                 {
 1548              		.loc 1 213 0 discriminator 1
 1549 03e8 A36A     		ldr	r3, [r4, #40]
 1550 03ea 002B     		cmp	r3, #0
 1551 03ec D8BF     		it	le
 1552 03ee 0021     		movle	r1, #0
 1553 03f0 10DD     		ble	.L54
 213:.\main.c      ****                                 {
 1554              		.loc 1 213 0 is_stmt 0
 1555 03f2 0020     		movs	r0, #0
 1556 03f4 0146     		mov	r1, r0
 1557              	.LVL83:
 1558              	.L52:
 215:.\main.c      ****                                 }
 1559              		.loc 1 215 0 is_stmt 1 discriminator 3
 1560 03f6 10AB     		add	r3, sp, #64
 1561 03f8 1A18     		adds	r2, r3, r0
 1562 03fa A36A     		ldr	r3, [r4, #40]
 1563 03fc 3A44     		add	r2, r2, r7
 1564 03fe 03FB0E23 		mla	r3, r3, lr, r2
 1565 0402 13F8402C 		ldrb	r2, [r3, #-64]	@ zero_extendqisi2
 213:.\main.c      ****                                 {
 1566              		.loc 1 213 0 discriminator 3
 1567 0406 A36A     		ldr	r3, [r4, #40]
 1568 0408 0130     		adds	r0, r0, #1
 1569              	.LVL84:
 215:.\main.c      ****                                 }
 1570              		.loc 1 215 0 discriminator 3
 1571 040a 02EB0121 		add	r1, r2, r1, lsl #8
 1572              	.LVL85:
 213:.\main.c      ****                                 {
 1573              		.loc 1 213 0 discriminator 3
 1574 040e 8342     		cmp	r3, r0
 215:.\main.c      ****                                 }
 1575              		.loc 1 215 0 discriminator 3
 1576 0410 89B2     		uxth	r1, r1
 1577              	.LVL86:
 213:.\main.c      ****                                 {
 1578              		.loc 1 213 0 discriminator 3
 1579 0412 F0DC     		bgt	.L52
 1580              	.LVL87:
 1581              	.L54:
 217:.\main.c      ****                             }
 1582              		.loc 1 217 0 discriminator 2
 1583 0414 E368     		ldr	r3, [r4, #12]
 1584 0416 03EBCE23 		add	r3, r3, lr, lsl #11
 1585 041a 26F81310 		strh	r1, [r6, r3, lsl #1]	@ movhi
 210:.\main.c      ****                             {
 1586              		.loc 1 210 0 discriminator 2
 1587 041e 236B     		ldr	r3, [r4, #48]
 1588 0420 0EF1010E 		add	lr, lr, #1
ARM GAS  C:\Users\Thomas\AppData\Local\Temp\ccdc0T6P.s 			page 90


 1589              	.LVL88:
 1590 0424 7345     		cmp	r3, lr
 1591 0426 DFDC     		bgt	.L57
 1592              	.LVL89:
 1593              	.L53:
 219:.\main.c      ****                         }
 1594              		.loc 1 219 0
 1595 0428 E268     		ldr	r2, [r4, #12]
 1596 042a 134B     		ldr	r3, .L146+4
 1597 042c 0132     		adds	r2, r2, #1
 1598 042e 1340     		ands	r3, r3, r2
 1599 0430 002B     		cmp	r3, #0
 1600 0432 17DB     		blt	.L140
 1601              	.L55:
 1602 0434 E360     		str	r3, [r4, #12]
 208:.\main.c      ****                         {
 1603              		.loc 1 208 0
 1604 0436 A36A     		ldr	r3, [r4, #40]
 1605 0438 226B     		ldr	r2, [r4, #48]
 1606 043a 02FB0377 		mla	r7, r2, r3, r7
 1607              	.LVL90:
 1608 043e 3C2F     		cmp	r7, #60
 1609 0440 CDDD     		ble	.L26
 1610              	.LVL91:
 1611              	.L71:
 263:.\main.c      ****                         break;
 1612              		.loc 1 263 0
 1613 0442 0C4A     		ldr	r2, .L146
 1614 0444 0023     		movs	r3, #0
 1615 0446 5360     		str	r3, [r2, #4]
 264:.\main.c      ****                     }
 1616              		.loc 1 264 0
 1617 0448 0BE6     		b	.L123
 1618              	.L29:
 295:.\main.c      ****                         break;
 1619              		.loc 1 295 0
 1620 044a 9DF80120 		ldrb	r2, [sp, #1]	@ zero_extendqisi2
 1621 044e 9DF80230 		ldrb	r3, [sp, #2]	@ zero_extendqisi2
 1622 0452 03EB0223 		add	r3, r3, r2, lsl #8
 1623 0456 0F4A     		ldr	r2, .L146+32
 1624 0458 5360     		str	r3, [r2, #4]
 296:.\main.c      ****                     }
 1625              		.loc 1 296 0
 1626 045a 02E6     		b	.L123
 1627              	.L28:
 300:.\main.c      ****                         break;
 1628              		.loc 1 300 0
 1629 045c 054A     		ldr	r2, .L146
 1630 045e 0123     		movs	r3, #1
 1631 0460 D365     		str	r3, [r2, #92]
 301:.\main.c      ****                     }
 1632              		.loc 1 301 0
 1633 0462 FEE5     		b	.L123
 1634              	.LVL92:
 1635              	.L140:
 219:.\main.c      ****                         }
 1636              		.loc 1 219 0
ARM GAS  C:\Users\Thomas\AppData\Local\Temp\ccdc0T6P.s 			page 91


 1637 0464 013B     		subs	r3, r3, #1
 1638 0466 6FEA4353 		mvn	r3, r3, lsl #21
 1639 046a 6FEA5353 		mvn	r3, r3, lsr #21
 1640 046e 0133     		adds	r3, r3, #1
 1641 0470 E0E7     		b	.L55
 1642              	.L147:
 1643 0472 00BF     		.align	2
 1644              	.L146:
 1645 0474 00000000 		.word	.LANCHOR0
 1646 0478 FF070080 		.word	-2147481601
 1647 047c 00000000 		.word	input_ptr
 1648 0480 00100000 		.word	input+4096
 1649 0484 00200000 		.word	input+8192
 1650 0488 00300000 		.word	input+12288
 1651 048c 00400000 		.word	input+16384
 1652 0490 00500000 		.word	input+20480
 1653 0494 00000000 		.word	.LANCHOR1
 1654              	.LVL93:
 1655              	.L74:
 109:.\main.c      ****                 {
 1656              		.loc 1 109 0
 1657 0498 0127     		movs	r7, #1
 1658              	.L32:
 1659              	.LVL94:
 229:.\main.c      ****                             {
 1660              		.loc 1 229 0
 1661 049a 236B     		ldr	r3, [r4, #48]
 1662 049c 002B     		cmp	r3, #0
 1663 049e 23DD     		ble	.L59
 1664 04a0 4FF0000E 		mov	lr, #0
 1665              	.LVL95:
 1666              	.L63:
 232:.\main.c      ****                                 {
 1667              		.loc 1 232 0 discriminator 1
 1668 04a4 A36A     		ldr	r3, [r4, #40]
 1669 04a6 002B     		cmp	r3, #0
 1670 04a8 D8BF     		it	le
 1671 04aa 0021     		movle	r1, #0
 1672 04ac 10DD     		ble	.L60
 232:.\main.c      ****                                 {
 1673              		.loc 1 232 0 is_stmt 0
 1674 04ae 0020     		movs	r0, #0
 1675 04b0 0146     		mov	r1, r0
 1676              	.LVL96:
 1677              	.L58:
 234:.\main.c      ****                                 }
 1678              		.loc 1 234 0 is_stmt 1 discriminator 3
 1679 04b2 10AB     		add	r3, sp, #64
 1680 04b4 1A18     		adds	r2, r3, r0
 1681 04b6 A36A     		ldr	r3, [r4, #40]
 1682 04b8 3A44     		add	r2, r2, r7
 1683 04ba 03FB0E23 		mla	r3, r3, lr, r2
 1684 04be 13F8402C 		ldrb	r2, [r3, #-64]	@ zero_extendqisi2
 232:.\main.c      ****                                 {
 1685              		.loc 1 232 0 discriminator 3
 1686 04c2 A36A     		ldr	r3, [r4, #40]
 1687 04c4 0130     		adds	r0, r0, #1
ARM GAS  C:\Users\Thomas\AppData\Local\Temp\ccdc0T6P.s 			page 92


 1688              	.LVL97:
 234:.\main.c      ****                                 }
 1689              		.loc 1 234 0 discriminator 3
 1690 04c6 02EB0121 		add	r1, r2, r1, lsl #8
 1691              	.LVL98:
 232:.\main.c      ****                                 {
 1692              		.loc 1 232 0 discriminator 3
 1693 04ca 8342     		cmp	r3, r0
 234:.\main.c      ****                                 }
 1694              		.loc 1 234 0 discriminator 3
 1695 04cc 89B2     		uxth	r1, r1
 1696              	.LVL99:
 232:.\main.c      ****                                 {
 1697              		.loc 1 232 0 discriminator 3
 1698 04ce F0DC     		bgt	.L58
 1699              	.LVL100:
 1700              	.L60:
 236:.\main.c      ****                             }
 1701              		.loc 1 236 0 discriminator 2
 1702 04d0 2369     		ldr	r3, [r4, #16]
 1703 04d2 0EF10302 		add	r2, lr, #3
 1704 04d6 03EBC223 		add	r3, r3, r2, lsl #11
 1705 04da 26F81310 		strh	r1, [r6, r3, lsl #1]	@ movhi
 229:.\main.c      ****                             {
 1706              		.loc 1 229 0 discriminator 2
 1707 04de 236B     		ldr	r3, [r4, #48]
 1708 04e0 0EF1010E 		add	lr, lr, #1
 1709              	.LVL101:
 1710 04e4 7345     		cmp	r3, lr
 1711 04e6 DDDC     		bgt	.L63
 1712              	.LVL102:
 1713              	.L59:
 238:.\main.c      ****                         }
 1714              		.loc 1 238 0
 1715 04e8 2269     		ldr	r2, [r4, #16]
 1716 04ea 424B     		ldr	r3, .L148
 1717 04ec 0132     		adds	r2, r2, #1
 1718 04ee 1340     		ands	r3, r3, r2
 1719 04f0 002B     		cmp	r3, #0
 1720 04f2 5FDB     		blt	.L141
 1721              	.L61:
 1722 04f4 2361     		str	r3, [r4, #16]
 227:.\main.c      ****                         {
 1723              		.loc 1 227 0
 1724 04f6 A36A     		ldr	r3, [r4, #40]
 1725 04f8 226B     		ldr	r2, [r4, #48]
 1726 04fa 02FB0377 		mla	r7, r2, r3, r7
 1727              	.LVL103:
 1728 04fe 3C2F     		cmp	r7, #60
 1729 0500 CBDD     		ble	.L32
 240:.\main.c      ****                         break;
 1730              		.loc 1 240 0
 1731 0502 3D4A     		ldr	r2, .L148+4
 1732 0504 0023     		movs	r3, #0
 1733 0506 9360     		str	r3, [r2, #8]
 241:.\main.c      ****                     }
 1734              		.loc 1 241 0
ARM GAS  C:\Users\Thomas\AppData\Local\Temp\ccdc0T6P.s 			page 93


 1735 0508 ABE5     		b	.L123
 1736              	.LVL104:
 1737              	.L75:
 109:.\main.c      ****                 {
 1738              		.loc 1 109 0
 1739 050a 4FF00109 		mov	r9, #1
 1740              	.L31:
 1741              	.LVL105:
 248:.\main.c      ****                             {
 1742              		.loc 1 248 0
 1743 050e E36A     		ldr	r3, [r4, #44]
 1744 0510 002B     		cmp	r3, #0
 1745 0512 36DD     		ble	.L67
 1746 0514 10AB     		add	r3, sp, #64
 1747 0516 4FF0000E 		mov	lr, #0
 1748 051a 03EB090C 		add	ip, r3, r9
 1749              	.LVL106:
 1750              	.L72:
 250:.\main.c      ****                                 {
 1751              		.loc 1 250 0 discriminator 1
 1752 051e 236B     		ldr	r3, [r4, #48]
 1753 0520 002B     		cmp	r3, #0
 1754 0522 29DD     		ble	.L65
 1755 0524 0EEB4E08 		add	r8, lr, lr, lsl #1
 250:.\main.c      ****                                 {
 1756              		.loc 1 250 0 is_stmt 0
 1757 0528 0027     		movs	r7, #0
 1758              	.LVL107:
 1759              	.L68:
 253:.\main.c      ****                                     {
 1760              		.loc 1 253 0 is_stmt 1 discriminator 1
 1761 052a A36A     		ldr	r3, [r4, #40]
 1762 052c 002B     		cmp	r3, #0
 1763 052e D8BF     		it	le
 1764 0530 0021     		movle	r1, #0
 1765 0532 16DD     		ble	.L66
 253:.\main.c      ****                                     {
 1766              		.loc 1 253 0 is_stmt 0
 1767 0534 0020     		movs	r0, #0
 1768 0536 0146     		mov	r1, r0
 1769              	.LVL108:
 1770              	.L64:
 255:.\main.c      ****                                     }
 1771              		.loc 1 255 0 is_stmt 1 discriminator 3
 1772 0538 A36A     		ldr	r3, [r4, #40]
 1773 053a 226B     		ldr	r2, [r4, #48]
 1774 053c 0CEB000A 		add	r10, ip, r0
 1775 0540 02FB03F3 		mul	r3, r2, r3
 1776 0544 0EFB03A3 		mla	r3, lr, r3, r10
 1777 0548 A26A     		ldr	r2, [r4, #40]
 253:.\main.c      ****                                     {
 1778              		.loc 1 253 0 discriminator 3
 1779 054a D4F828A0 		ldr	r10, [r4, #40]
 255:.\main.c      ****                                     }
 1780              		.loc 1 255 0 discriminator 3
 1781 054e 02FB0733 		mla	r3, r2, r7, r3
 1782 0552 13F8402C 		ldrb	r2, [r3, #-64]	@ zero_extendqisi2
ARM GAS  C:\Users\Thomas\AppData\Local\Temp\ccdc0T6P.s 			page 94


 253:.\main.c      ****                                     {
 1783              		.loc 1 253 0 discriminator 3
 1784 0556 0130     		adds	r0, r0, #1
 1785              	.LVL109:
 255:.\main.c      ****                                     }
 1786              		.loc 1 255 0 discriminator 3
 1787 0558 02EB0123 		add	r3, r2, r1, lsl #8
 253:.\main.c      ****                                     {
 1788              		.loc 1 253 0 discriminator 3
 1789 055c 8245     		cmp	r10, r0
 255:.\main.c      ****                                     }
 1790              		.loc 1 255 0 discriminator 3
 1791 055e 99B2     		uxth	r1, r3
 1792              	.LVL110:
 253:.\main.c      ****                                     {
 1793              		.loc 1 253 0 discriminator 3
 1794 0560 EADC     		bgt	.L64
 1795              	.LVL111:
 1796              	.L66:
 257:.\main.c      ****                                 }
 1797              		.loc 1 257 0 discriminator 2
 1798 0562 E368     		ldr	r3, [r4, #12]
 1799 0564 07EB0802 		add	r2, r7, r8
 1800 0568 03EBC223 		add	r3, r3, r2, lsl #11
 1801 056c 26F81310 		strh	r1, [r6, r3, lsl #1]	@ movhi
 250:.\main.c      ****                                 {
 1802              		.loc 1 250 0 discriminator 2
 1803 0570 236B     		ldr	r3, [r4, #48]
 1804 0572 0137     		adds	r7, r7, #1
 1805              	.LVL112:
 1806 0574 BB42     		cmp	r3, r7
 1807 0576 D8DC     		bgt	.L68
 1808              	.LVL113:
 1809              	.L65:
 248:.\main.c      ****                             {
 1810              		.loc 1 248 0
 1811 0578 E36A     		ldr	r3, [r4, #44]
 1812 057a 0EF1010E 		add	lr, lr, #1
 1813              	.LVL114:
 1814 057e 7345     		cmp	r3, lr
 1815 0580 CDDC     		bgt	.L72
 1816              	.LVL115:
 1817              	.L67:
 260:.\main.c      ****                             buf_ptr[1] = (buf_ptr[1]+1)%INPUT_BUF_SIZE;
 1818              		.loc 1 260 0
 1819 0582 E268     		ldr	r2, [r4, #12]
 1820 0584 1B4B     		ldr	r3, .L148
 1821 0586 0132     		adds	r2, r2, #1
 1822 0588 1340     		ands	r3, r3, r2
 1823 058a 002B     		cmp	r3, #0
 1824 058c 2ADB     		blt	.L142
 1825              	.L69:
 1826 058e E360     		str	r3, [r4, #12]
 261:.\main.c      ****                         }
 1827              		.loc 1 261 0
 1828 0590 2269     		ldr	r2, [r4, #16]
 1829 0592 184B     		ldr	r3, .L148
ARM GAS  C:\Users\Thomas\AppData\Local\Temp\ccdc0T6P.s 			page 95


 1830 0594 0132     		adds	r2, r2, #1
 1831 0596 1340     		ands	r3, r3, r2
 1832 0598 002B     		cmp	r3, #0
 1833 059a 1CDB     		blt	.L143
 1834              	.L70:
 1835 059c 2361     		str	r3, [r4, #16]
 246:.\main.c      ****                         {
 1836              		.loc 1 246 0
 1837 059e A16A     		ldr	r1, [r4, #40]
 1838 05a0 236B     		ldr	r3, [r4, #48]
 1839 05a2 E26A     		ldr	r2, [r4, #44]
 1840 05a4 03FB01F3 		mul	r3, r3, r1
 1841 05a8 02FB0399 		mla	r9, r2, r3, r9
 1842              	.LVL116:
 1843 05ac B9F13C0F 		cmp	r9, #60
 1844 05b0 ADDD     		ble	.L31
 1845 05b2 46E7     		b	.L71
 1846              	.LVL117:
 1847              	.L141:
 238:.\main.c      ****                         }
 1848              		.loc 1 238 0
 1849 05b4 013B     		subs	r3, r3, #1
 1850 05b6 6FEA4353 		mvn	r3, r3, lsl #21
 1851 05ba 6FEA5353 		mvn	r3, r3, lsr #21
 1852 05be 0133     		adds	r3, r3, #1
 1853 05c0 98E7     		b	.L61
 1854              	.LVL118:
 1855              	.L19:
 268:.\main.c      ****                         break;
 1856              		.loc 1 268 0
 1857 05c2 9DF80100 		ldrb	r0, [sp, #1]	@ zero_extendqisi2
 1858 05c6 9DF80230 		ldrb	r3, [sp, #2]	@ zero_extendqisi2
 1859 05ca 03EB0020 		add	r0, r3, r0, lsl #8
 1860 05ce 80B2     		uxth	r0, r0
 1861 05d0 FFF7FEFF 		bl	P1_WinTimer_WritePeriod
 1862              	.LVL119:
 269:.\main.c      ****                     }
 1863              		.loc 1 269 0
 1864 05d4 45E5     		b	.L123
 1865              	.LVL120:
 1866              	.L143:
 261:.\main.c      ****                         }
 1867              		.loc 1 261 0
 1868 05d6 013B     		subs	r3, r3, #1
 1869 05d8 6FEA4353 		mvn	r3, r3, lsl #21
 1870 05dc 6FEA5353 		mvn	r3, r3, lsr #21
 1871 05e0 0133     		adds	r3, r3, #1
 1872 05e2 DBE7     		b	.L70
 1873              	.L142:
 260:.\main.c      ****                             buf_ptr[1] = (buf_ptr[1]+1)%INPUT_BUF_SIZE;
 1874              		.loc 1 260 0
 1875 05e4 013B     		subs	r3, r3, #1
 1876 05e6 6FEA4353 		mvn	r3, r3, lsl #21
 1877 05ea 6FEA5353 		mvn	r3, r3, lsr #21
 1878 05ee 0133     		adds	r3, r3, #1
 1879 05f0 CDE7     		b	.L69
 1880              	.L149:
ARM GAS  C:\Users\Thomas\AppData\Local\Temp\ccdc0T6P.s 			page 96


 1881 05f2 00BF     		.align	2
 1882              	.L148:
 1883 05f4 FF070080 		.word	-2147481601
 1884 05f8 00000000 		.word	.LANCHOR0
 1885              		.cfi_endproc
 1886              	.LFE63:
 1887              		.size	main, .-main
 1888              		.global	databits
 1889              		.global	count
 1890              		.global	async
 1891              		.global	request
 1892              		.global	lines
 1893              		.global	ports
 1894              		.global	latches
 1895              		.global	window_off
 1896              		.global	bytes
 1897              		.global	disable_timer
 1898              		.global	use_timer
 1899              		.global	timer_ready
 1900              		.global	ready
 1901              		.comm	input,24576,4
 1902              		.global	data
 1903              		.global	buf_ptr
 1904              		.comm	input_ptr,8,4
 1905              		.global	playing
 1906              		.global	sent
 1907              		.data
 1908              		.align	2
 1909              		.set	.LANCHOR1,. + 0
 1910              		.type	window_off, %object
 1911              		.size	window_off, 8
 1912              	window_off:
 1913 0000 FFFFFFFF 		.word	-1
 1914 0004 FFFFFFFF 		.word	-1
 1915              		.bss
 1916              		.align	2
 1917              		.set	.LANCHOR0,. + 0
 1918              		.type	playing, %object
 1919              		.size	playing, 4
 1920              	playing:
 1921 0000 00000000 		.space	4
 1922              		.type	request, %object
 1923              		.size	request, 8
 1924              	request:
 1925 0004 00000000 		.space	8
 1925      00000000 
 1926              		.type	buf_ptr, %object
 1927              		.size	buf_ptr, 8
 1928              	buf_ptr:
 1929 000c 00000000 		.space	8
 1929      00000000 
 1930              		.type	bytes, %object
 1931              		.size	bytes, 4
 1932              	bytes:
 1933 0014 00000000 		.space	4
 1934              		.type	count, %object
 1935              		.size	count, 4
ARM GAS  C:\Users\Thomas\AppData\Local\Temp\ccdc0T6P.s 			page 97


 1936              	count:
 1937 0018 00000000 		.space	4
 1938              		.type	latches, %object
 1939              		.size	latches, 8
 1940              	latches:
 1941 001c 00000000 		.space	8
 1941      00000000 
 1942              		.type	async, %object
 1943              		.size	async, 4
 1944              	async:
 1945 0024 00000000 		.space	4
 1946              		.type	databits, %object
 1947              		.size	databits, 4
 1948              	databits:
 1949 0028 00000000 		.space	4
 1950              		.type	ports, %object
 1951              		.size	ports, 4
 1952              	ports:
 1953 002c 00000000 		.space	4
 1954              		.type	lines, %object
 1955              		.size	lines, 4
 1956              	lines:
 1957 0030 00000000 		.space	4
 1958              		.type	use_timer, %object
 1959              		.size	use_timer, 8
 1960              	use_timer:
 1961 0034 00000000 		.space	8
 1961      00000000 
 1962              		.type	sent, %object
 1963              		.size	sent, 4
 1964              	sent:
 1965 003c 00000000 		.space	4
 1966              		.type	data, %object
 1967              		.size	data, 12
 1968              	data:
 1969 0040 00000000 		.space	12
 1969      00000000 
 1969      00000000 
 1970              		.type	timer_ready, %object
 1971              		.size	timer_ready, 8
 1972              	timer_ready:
 1973 004c 00000000 		.space	8
 1973      00000000 
 1974              		.type	ready, %object
 1975              		.size	ready, 4
 1976              	ready:
 1977 0054 00000000 		.space	4
 1978              		.type	disable_timer, %object
 1979              		.size	disable_timer, 8
 1980              	disable_timer:
 1981 0058 00000000 		.space	8
 1981      00000000 
 1982              		.text
 1983              	.Letext0:
 1984              		.file 2 "c:\\program files (x86)\\cypress\\psoc creator\\3.3\\psoc creator\\import\\gnu\\arm\\4.9.
 1985              		.file 3 "c:\\program files (x86)\\cypress\\psoc creator\\3.3\\psoc creator\\import\\gnu\\arm\\4.9.
 1986              		.file 4 "Generated_Source\\PSoC5/cytypes.h"
ARM GAS  C:\Users\Thomas\AppData\Local\Temp\ccdc0T6P.s 			page 98


 1987              		.file 5 "Generated_Source\\PSoC5/core_cm3.h"
 1988              		.file 6 "Generated_Source\\PSoC5/USBUART.h"
 1989              		.file 7 "Generated_Source\\PSoC5/P1_RegD0.h"
 1990              		.file 8 "Generated_Source\\PSoC5/P1_RegD1.h"
 1991              		.file 9 "Generated_Source\\PSoC5/P1_RegD2.h"
 1992              		.file 10 "Generated_Source\\PSoC5/P1_WinTimer.h"
 1993              		.file 11 "Generated_Source\\PSoC5/P1_TimerIRQ.h"
 1994              		.file 12 "Generated_Source\\PSoC5/P2_RegD0.h"
 1995              		.file 13 "Generated_Source\\PSoC5/P2_RegD1.h"
 1996              		.file 14 "Generated_Source\\PSoC5/P2_RegD2.h"
 1997              		.file 15 "Generated_Source\\PSoC5/P2_WinTimer.h"
 1998              		.file 16 "Generated_Source\\PSoC5/P2_TimerIRQ.h"
 1999              		.file 17 "Generated_Source\\PSoC5/USBUART_cdc.h"
 2000              		.file 18 "Generated_Source\\PSoC5/P1_IRQ.h"
 2001              		.file 19 "Generated_Source\\PSoC5/P2_IRQ.h"
 2002              		.section	.debug_info,"",%progbits
 2003              	.Ldebug_info0:
 2004 0000 94060000 		.4byte	0x694
 2005 0004 0400     		.2byte	0x4
 2006 0006 00000000 		.4byte	.Ldebug_abbrev0
 2007 000a 04       		.byte	0x4
 2008 000b 01       		.uleb128 0x1
 2009 000c 46010000 		.4byte	.LASF67
 2010 0010 01       		.byte	0x1
 2011 0011 C2030000 		.4byte	.LASF68
 2012 0015 7B030000 		.4byte	.LASF69
 2013 0019 00000000 		.4byte	.Ldebug_ranges0+0
 2014 001d 00000000 		.4byte	0
 2015 0021 00000000 		.4byte	.Ldebug_line0
 2016 0025 02       		.uleb128 0x2
 2017 0026 01       		.byte	0x1
 2018 0027 06       		.byte	0x6
 2019 0028 C7000000 		.4byte	.LASF0
 2020 002c 02       		.uleb128 0x2
 2021 002d 01       		.byte	0x1
 2022 002e 08       		.byte	0x8
 2023 002f 1C020000 		.4byte	.LASF1
 2024 0033 02       		.uleb128 0x2
 2025 0034 02       		.byte	0x2
 2026 0035 05       		.byte	0x5
 2027 0036 34000000 		.4byte	.LASF2
 2028 003a 02       		.uleb128 0x2
 2029 003b 02       		.byte	0x2
 2030 003c 07       		.byte	0x7
 2031 003d E1020000 		.4byte	.LASF3
 2032 0041 03       		.uleb128 0x3
 2033 0042 CB030000 		.4byte	.LASF9
 2034 0046 02       		.byte	0x2
 2035 0047 3F       		.byte	0x3f
 2036 0048 4C000000 		.4byte	0x4c
 2037 004c 02       		.uleb128 0x2
 2038 004d 04       		.byte	0x4
 2039 004e 05       		.byte	0x5
 2040 004f 3D010000 		.4byte	.LASF4
 2041 0053 02       		.uleb128 0x2
 2042 0054 04       		.byte	0x4
 2043 0055 07       		.byte	0x7
ARM GAS  C:\Users\Thomas\AppData\Local\Temp\ccdc0T6P.s 			page 99


 2044 0056 5C030000 		.4byte	.LASF5
 2045 005a 02       		.uleb128 0x2
 2046 005b 08       		.byte	0x8
 2047 005c 05       		.byte	0x5
 2048 005d 18010000 		.4byte	.LASF6
 2049 0061 02       		.uleb128 0x2
 2050 0062 08       		.byte	0x8
 2051 0063 07       		.byte	0x7
 2052 0064 36020000 		.4byte	.LASF7
 2053 0068 04       		.uleb128 0x4
 2054 0069 04       		.byte	0x4
 2055 006a 05       		.byte	0x5
 2056 006b 696E7400 		.ascii	"int\000"
 2057 006f 02       		.uleb128 0x2
 2058 0070 04       		.byte	0x4
 2059 0071 07       		.byte	0x7
 2060 0072 61020000 		.4byte	.LASF8
 2061 0076 03       		.uleb128 0x3
 2062 0077 D1020000 		.4byte	.LASF10
 2063 007b 03       		.byte	0x3
 2064 007c 2C       		.byte	0x2c
 2065 007d 41000000 		.4byte	0x41
 2066 0081 05       		.uleb128 0x5
 2067 0082 B4000000 		.4byte	.LASF11
 2068 0086 04       		.byte	0x4
 2069 0087 9201     		.2byte	0x192
 2070 0089 2C000000 		.4byte	0x2c
 2071 008d 05       		.uleb128 0x5
 2072 008e 8C000000 		.4byte	.LASF12
 2073 0092 04       		.byte	0x4
 2074 0093 9301     		.2byte	0x193
 2075 0095 3A000000 		.4byte	0x3a
 2076 0099 02       		.uleb128 0x2
 2077 009a 04       		.byte	0x4
 2078 009b 04       		.byte	0x4
 2079 009c E2000000 		.4byte	.LASF13
 2080 00a0 02       		.uleb128 0x2
 2081 00a1 08       		.byte	0x8
 2082 00a2 04       		.byte	0x4
 2083 00a3 74030000 		.4byte	.LASF14
 2084 00a7 05       		.uleb128 0x5
 2085 00a8 52000000 		.4byte	.LASF15
 2086 00ac 04       		.byte	0x4
 2087 00ad A301     		.2byte	0x1a3
 2088 00af B3000000 		.4byte	0xb3
 2089 00b3 02       		.uleb128 0x2
 2090 00b4 01       		.byte	0x1
 2091 00b5 08       		.byte	0x8
 2092 00b6 BD020000 		.4byte	.LASF16
 2093 00ba 02       		.uleb128 0x2
 2094 00bb 04       		.byte	0x4
 2095 00bc 07       		.byte	0x7
 2096 00bd 44000000 		.4byte	.LASF17
 2097 00c1 06       		.uleb128 0x6
 2098 00c2 58000000 		.4byte	.LASF70
 2099 00c6 01       		.byte	0x1
 2100 00c7 1D       		.byte	0x1d
ARM GAS  C:\Users\Thomas\AppData\Local\Temp\ccdc0T6P.s 			page 100


 2101 00c8 68000000 		.4byte	0x68
 2102 00cc 00000000 		.4byte	.LFB63
 2103 00d0 FC050000 		.4byte	.LFE63-.LFB63
 2104 00d4 01       		.uleb128 0x1
 2105 00d5 9C       		.byte	0x9c
 2106 00d6 63030000 		.4byte	0x363
 2107 00da 07       		.uleb128 0x7
 2108 00db 43030000 		.4byte	.LASF18
 2109 00df 01       		.byte	0x1
 2110 00e0 1F       		.byte	0x1f
 2111 00e1 63030000 		.4byte	0x363
 2112 00e5 03       		.uleb128 0x3
 2113 00e6 91       		.byte	0x91
 2114 00e7 987F     		.sleb128 -104
 2115 00e9 08       		.uleb128 0x8
 2116 00ea 636D6400 		.ascii	"cmd\000"
 2117 00ee 01       		.byte	0x1
 2118 00ef 20       		.byte	0x20
 2119 00f0 81000000 		.4byte	0x81
 2120 00f4 00000000 		.4byte	.LLST0
 2121 00f8 08       		.uleb128 0x8
 2122 00f9 746D7000 		.ascii	"tmp\000"
 2123 00fd 01       		.byte	0x1
 2124 00fe 21       		.byte	0x21
 2125 00ff 8D000000 		.4byte	0x8d
 2126 0103 87000000 		.4byte	.LLST1
 2127 0107 08       		.uleb128 0x8
 2128 0108 6900     		.ascii	"i\000"
 2129 010a 01       		.byte	0x1
 2130 010b 22       		.byte	0x22
 2131 010c 68000000 		.4byte	0x68
 2132 0110 18010000 		.4byte	.LLST2
 2133 0114 08       		.uleb128 0x8
 2134 0115 6A00     		.ascii	"j\000"
 2135 0117 01       		.byte	0x1
 2136 0118 22       		.byte	0x22
 2137 0119 68000000 		.4byte	0x68
 2138 011d 38020000 		.4byte	.LLST3
 2139 0121 08       		.uleb128 0x8
 2140 0122 6B00     		.ascii	"k\000"
 2141 0124 01       		.byte	0x1
 2142 0125 22       		.byte	0x22
 2143 0126 68000000 		.4byte	0x68
 2144 012a F8020000 		.4byte	.LLST4
 2145 012e 08       		.uleb128 0x8
 2146 012f 7000     		.ascii	"p\000"
 2147 0131 01       		.byte	0x1
 2148 0132 22       		.byte	0x22
 2149 0133 68000000 		.4byte	0x68
 2150 0137 23030000 		.4byte	.LLST5
 2151 013b 08       		.uleb128 0x8
 2152 013c 6400     		.ascii	"d\000"
 2153 013e 01       		.byte	0x1
 2154 013f 22       		.byte	0x22
 2155 0140 68000000 		.4byte	0x68
 2156 0144 65030000 		.4byte	.LLST6
 2157 0148 09       		.uleb128 0x9
ARM GAS  C:\Users\Thomas\AppData\Local\Temp\ccdc0T6P.s 			page 101


 2158 0149 10000000 		.4byte	.LVL1
 2159 014d 35050000 		.4byte	0x535
 2160 0151 60010000 		.4byte	0x160
 2161 0155 0A       		.uleb128 0xa
 2162 0156 01       		.uleb128 0x1
 2163 0157 51       		.byte	0x51
 2164 0158 01       		.uleb128 0x1
 2165 0159 31       		.byte	0x31
 2166 015a 0A       		.uleb128 0xa
 2167 015b 01       		.uleb128 0x1
 2168 015c 50       		.byte	0x50
 2169 015d 01       		.uleb128 0x1
 2170 015e 30       		.byte	0x30
 2171 015f 00       		.byte	0
 2172 0160 0B       		.uleb128 0xb
 2173 0161 14000000 		.4byte	.LVL2
 2174 0165 4C050000 		.4byte	0x54c
 2175 0169 09       		.uleb128 0x9
 2176 016a 1A000000 		.4byte	.LVL3
 2177 016e 53050000 		.4byte	0x553
 2178 0172 7C010000 		.4byte	0x17c
 2179 0176 0A       		.uleb128 0xa
 2180 0177 01       		.uleb128 0x1
 2181 0178 50       		.byte	0x50
 2182 0179 01       		.uleb128 0x1
 2183 017a 31       		.byte	0x31
 2184 017b 00       		.byte	0
 2185 017c 0B       		.uleb128 0xb
 2186 017d 1E000000 		.4byte	.LVL4
 2187 0181 64050000 		.4byte	0x564
 2188 0185 09       		.uleb128 0x9
 2189 0186 24000000 		.4byte	.LVL5
 2190 018a 6B050000 		.4byte	0x56b
 2191 018e 98010000 		.4byte	0x198
 2192 0192 0A       		.uleb128 0xa
 2193 0193 01       		.uleb128 0x1
 2194 0194 50       		.byte	0x50
 2195 0195 01       		.uleb128 0x1
 2196 0196 31       		.byte	0x31
 2197 0197 00       		.byte	0
 2198 0198 0B       		.uleb128 0xb
 2199 0199 28000000 		.4byte	.LVL6
 2200 019d 7C050000 		.4byte	0x57c
 2201 01a1 09       		.uleb128 0x9
 2202 01a2 2E000000 		.4byte	.LVL7
 2203 01a6 83050000 		.4byte	0x583
 2204 01aa B4010000 		.4byte	0x1b4
 2205 01ae 0A       		.uleb128 0xa
 2206 01af 01       		.uleb128 0x1
 2207 01b0 50       		.byte	0x50
 2208 01b1 01       		.uleb128 0x1
 2209 01b2 31       		.byte	0x31
 2210 01b3 00       		.byte	0
 2211 01b4 0B       		.uleb128 0xb
 2212 01b5 32000000 		.4byte	.LVL8
 2213 01b9 94050000 		.4byte	0x594
 2214 01bd 0B       		.uleb128 0xb
ARM GAS  C:\Users\Thomas\AppData\Local\Temp\ccdc0T6P.s 			page 102


 2215 01be 36000000 		.4byte	.LVL9
 2216 01c2 9B050000 		.4byte	0x59b
 2217 01c6 0B       		.uleb128 0xb
 2218 01c7 3A000000 		.4byte	.LVL10
 2219 01cb A2050000 		.4byte	0x5a2
 2220 01cf 09       		.uleb128 0x9
 2221 01d0 40000000 		.4byte	.LVL11
 2222 01d4 A9050000 		.4byte	0x5a9
 2223 01d8 E2010000 		.4byte	0x1e2
 2224 01dc 0A       		.uleb128 0xa
 2225 01dd 01       		.uleb128 0x1
 2226 01de 50       		.byte	0x50
 2227 01df 01       		.uleb128 0x1
 2228 01e0 31       		.byte	0x31
 2229 01e1 00       		.byte	0
 2230 01e2 0B       		.uleb128 0xb
 2231 01e3 46000000 		.4byte	.LVL12
 2232 01e7 BA050000 		.4byte	0x5ba
 2233 01eb 09       		.uleb128 0x9
 2234 01ec 4C000000 		.4byte	.LVL13
 2235 01f0 C1050000 		.4byte	0x5c1
 2236 01f4 FE010000 		.4byte	0x1fe
 2237 01f8 0A       		.uleb128 0xa
 2238 01f9 01       		.uleb128 0x1
 2239 01fa 50       		.byte	0x50
 2240 01fb 01       		.uleb128 0x1
 2241 01fc 31       		.byte	0x31
 2242 01fd 00       		.byte	0
 2243 01fe 0B       		.uleb128 0xb
 2244 01ff 50000000 		.4byte	.LVL14
 2245 0203 D2050000 		.4byte	0x5d2
 2246 0207 09       		.uleb128 0x9
 2247 0208 56000000 		.4byte	.LVL15
 2248 020c D9050000 		.4byte	0x5d9
 2249 0210 1A020000 		.4byte	0x21a
 2250 0214 0A       		.uleb128 0xa
 2251 0215 01       		.uleb128 0x1
 2252 0216 50       		.byte	0x50
 2253 0217 01       		.uleb128 0x1
 2254 0218 31       		.byte	0x31
 2255 0219 00       		.byte	0
 2256 021a 0B       		.uleb128 0xb
 2257 021b 5C000000 		.4byte	.LVL16
 2258 021f EA050000 		.4byte	0x5ea
 2259 0223 0B       		.uleb128 0xb
 2260 0224 60000000 		.4byte	.LVL17
 2261 0228 F1050000 		.4byte	0x5f1
 2262 022c 0B       		.uleb128 0xb
 2263 022d 88000000 		.4byte	.LVL20
 2264 0231 F8050000 		.4byte	0x5f8
 2265 0235 0B       		.uleb128 0xb
 2266 0236 8E000000 		.4byte	.LVL21
 2267 023a 04060000 		.4byte	0x604
 2268 023e 09       		.uleb128 0x9
 2269 023f 98000000 		.4byte	.LVL22
 2270 0243 0F060000 		.4byte	0x60f
 2271 0247 52020000 		.4byte	0x252
ARM GAS  C:\Users\Thomas\AppData\Local\Temp\ccdc0T6P.s 			page 103


 2272 024b 0A       		.uleb128 0xa
 2273 024c 01       		.uleb128 0x1
 2274 024d 50       		.byte	0x50
 2275 024e 02       		.uleb128 0x2
 2276 024f 09       		.byte	0x9
 2277 0250 F0       		.byte	0xf0
 2278 0251 00       		.byte	0
 2279 0252 0B       		.uleb128 0xb
 2280 0253 BE000000 		.4byte	.LVL25
 2281 0257 20060000 		.4byte	0x620
 2282 025b 0B       		.uleb128 0xb
 2283 025c C4000000 		.4byte	.LVL26
 2284 0260 F8050000 		.4byte	0x5f8
 2285 0264 0B       		.uleb128 0xb
 2286 0265 CC000000 		.4byte	.LVL27
 2287 0269 2C060000 		.4byte	0x62c
 2288 026d 09       		.uleb128 0x9
 2289 026e D6000000 		.4byte	.LVL28
 2290 0272 37060000 		.4byte	0x637
 2291 0276 81020000 		.4byte	0x281
 2292 027a 0A       		.uleb128 0xa
 2293 027b 01       		.uleb128 0x1
 2294 027c 50       		.byte	0x50
 2295 027d 02       		.uleb128 0x2
 2296 027e 7D       		.byte	0x7d
 2297 027f 00       		.sleb128 0
 2298 0280 00       		.byte	0
 2299 0281 0B       		.uleb128 0xb
 2300 0282 FC000000 		.4byte	.LVL31
 2301 0286 04060000 		.4byte	0x604
 2302 028a 09       		.uleb128 0x9
 2303 028b 06010000 		.4byte	.LVL32
 2304 028f 0F060000 		.4byte	0x60f
 2305 0293 9E020000 		.4byte	0x29e
 2306 0297 0A       		.uleb128 0xa
 2307 0298 01       		.uleb128 0x1
 2308 0299 50       		.byte	0x50
 2309 029a 02       		.uleb128 0x2
 2310 029b 09       		.byte	0x9
 2311 029c FF       		.byte	0xff
 2312 029d 00       		.byte	0
 2313 029e 0B       		.uleb128 0xb
 2314 029f 0C010000 		.4byte	.LVL34
 2315 02a3 F8050000 		.4byte	0x5f8
 2316 02a7 0B       		.uleb128 0xb
 2317 02a8 14010000 		.4byte	.LVL35
 2318 02ac 52060000 		.4byte	0x652
 2319 02b0 0B       		.uleb128 0xb
 2320 02b1 1A010000 		.4byte	.LVL37
 2321 02b5 F8050000 		.4byte	0x5f8
 2322 02b9 0B       		.uleb128 0xb
 2323 02ba 22010000 		.4byte	.LVL38
 2324 02be 04060000 		.4byte	0x604
 2325 02c2 09       		.uleb128 0x9
 2326 02c3 2C010000 		.4byte	.LVL39
 2327 02c7 0F060000 		.4byte	0x60f
 2328 02cb D6020000 		.4byte	0x2d6
ARM GAS  C:\Users\Thomas\AppData\Local\Temp\ccdc0T6P.s 			page 104


 2329 02cf 0A       		.uleb128 0xa
 2330 02d0 01       		.uleb128 0x1
 2331 02d1 50       		.byte	0x50
 2332 02d2 02       		.uleb128 0x2
 2333 02d3 09       		.byte	0x9
 2334 02d4 F1       		.byte	0xf1
 2335 02d5 00       		.byte	0
 2336 02d6 0B       		.uleb128 0xb
 2337 02d7 80010000 		.4byte	.LVL41
 2338 02db 5D060000 		.4byte	0x65d
 2339 02df 0B       		.uleb128 0xb
 2340 02e0 0C020000 		.4byte	.LVL45
 2341 02e4 04060000 		.4byte	0x604
 2342 02e8 09       		.uleb128 0x9
 2343 02e9 16020000 		.4byte	.LVL46
 2344 02ed 0F060000 		.4byte	0x60f
 2345 02f1 FC020000 		.4byte	0x2fc
 2346 02f5 0A       		.uleb128 0xa
 2347 02f6 01       		.uleb128 0x1
 2348 02f7 50       		.byte	0x50
 2349 02f8 02       		.uleb128 0x2
 2350 02f9 09       		.byte	0x9
 2351 02fa F2       		.byte	0xf2
 2352 02fb 00       		.byte	0
 2353 02fc 0B       		.uleb128 0xb
 2354 02fd 1A020000 		.4byte	.LVL47
 2355 0301 2C060000 		.4byte	0x62c
 2356 0305 09       		.uleb128 0x9
 2357 0306 24020000 		.4byte	.LVL48
 2358 030a 37060000 		.4byte	0x637
 2359 030e 19030000 		.4byte	0x319
 2360 0312 0A       		.uleb128 0xa
 2361 0313 01       		.uleb128 0x1
 2362 0314 50       		.byte	0x50
 2363 0315 02       		.uleb128 0x2
 2364 0316 7D       		.byte	0x7d
 2365 0317 00       		.sleb128 0
 2366 0318 00       		.byte	0
 2367 0319 0B       		.uleb128 0xb
 2368 031a FA020000 		.4byte	.LVL64
 2369 031e 04060000 		.4byte	0x604
 2370 0322 09       		.uleb128 0x9
 2371 0323 04030000 		.4byte	.LVL65
 2372 0327 0F060000 		.4byte	0x60f
 2373 032b 35030000 		.4byte	0x335
 2374 032f 0A       		.uleb128 0xa
 2375 0330 01       		.uleb128 0x1
 2376 0331 50       		.byte	0x50
 2377 0332 01       		.uleb128 0x1
 2378 0333 3B       		.byte	0x3b
 2379 0334 00       		.byte	0
 2380 0335 0B       		.uleb128 0xb
 2381 0336 52030000 		.4byte	.LVL66
 2382 033a 6E060000 		.4byte	0x66e
 2383 033e 0B       		.uleb128 0xb
 2384 033f 66030000 		.4byte	.LVL67
 2385 0343 75060000 		.4byte	0x675
ARM GAS  C:\Users\Thomas\AppData\Local\Temp\ccdc0T6P.s 			page 105


 2386 0347 0B       		.uleb128 0xb
 2387 0348 A0030000 		.4byte	.LVL70
 2388 034c 7C060000 		.4byte	0x67c
 2389 0350 0B       		.uleb128 0xb
 2390 0351 A4030000 		.4byte	.LVL71
 2391 0355 83060000 		.4byte	0x683
 2392 0359 0B       		.uleb128 0xb
 2393 035a D4050000 		.4byte	.LVL119
 2394 035e 8A060000 		.4byte	0x68a
 2395 0362 00       		.byte	0
 2396 0363 0C       		.uleb128 0xc
 2397 0364 81000000 		.4byte	0x81
 2398 0368 73030000 		.4byte	0x373
 2399 036c 0D       		.uleb128 0xd
 2400 036d BA000000 		.4byte	0xba
 2401 0371 3F       		.byte	0x3f
 2402 0372 00       		.byte	0
 2403 0373 0E       		.uleb128 0xe
 2404 0374 59040000 		.4byte	.LASF19
 2405 0378 05       		.byte	0x5
 2406 0379 9606     		.2byte	0x696
 2407 037b 7F030000 		.4byte	0x37f
 2408 037f 0F       		.uleb128 0xf
 2409 0380 76000000 		.4byte	0x76
 2410 0384 10       		.uleb128 0x10
 2411 0385 4D000000 		.4byte	.LASF20
 2412 0389 01       		.byte	0x1
 2413 038a 09       		.byte	0x9
 2414 038b 95030000 		.4byte	0x395
 2415 038f 05       		.uleb128 0x5
 2416 0390 03       		.byte	0x3
 2417 0391 00000000 		.4byte	sent
 2418 0395 0F       		.uleb128 0xf
 2419 0396 68000000 		.4byte	0x68
 2420 039a 10       		.uleb128 0x10
 2421 039b 4D020000 		.4byte	.LASF21
 2422 039f 01       		.byte	0x1
 2423 03a0 0A       		.byte	0xa
 2424 03a1 95030000 		.4byte	0x395
 2425 03a5 05       		.uleb128 0x5
 2426 03a6 03       		.byte	0x3
 2427 03a7 00000000 		.4byte	playing
 2428 03ab 0C       		.uleb128 0xc
 2429 03ac 68000000 		.4byte	0x68
 2430 03b0 BB030000 		.4byte	0x3bb
 2431 03b4 0D       		.uleb128 0xd
 2432 03b5 BA000000 		.4byte	0xba
 2433 03b9 01       		.byte	0x1
 2434 03ba 00       		.byte	0
 2435 03bb 10       		.uleb128 0x10
 2436 03bc ED010000 		.4byte	.LASF22
 2437 03c0 01       		.byte	0x1
 2438 03c1 0D       		.byte	0xd
 2439 03c2 CC030000 		.4byte	0x3cc
 2440 03c6 05       		.uleb128 0x5
 2441 03c7 03       		.byte	0x3
 2442 03c8 00000000 		.4byte	input_ptr
ARM GAS  C:\Users\Thomas\AppData\Local\Temp\ccdc0T6P.s 			page 106


 2443 03cc 0F       		.uleb128 0xf
 2444 03cd AB030000 		.4byte	0x3ab
 2445 03d1 10       		.uleb128 0x10
 2446 03d2 93000000 		.4byte	.LASF23
 2447 03d6 01       		.byte	0x1
 2448 03d7 0E       		.byte	0xe
 2449 03d8 E2030000 		.4byte	0x3e2
 2450 03dc 05       		.uleb128 0x5
 2451 03dd 03       		.byte	0x3
 2452 03de 00000000 		.4byte	buf_ptr
 2453 03e2 0F       		.uleb128 0xf
 2454 03e3 AB030000 		.4byte	0x3ab
 2455 03e7 0C       		.uleb128 0xc
 2456 03e8 8D000000 		.4byte	0x8d
 2457 03ec F7030000 		.4byte	0x3f7
 2458 03f0 0D       		.uleb128 0xd
 2459 03f1 BA000000 		.4byte	0xba
 2460 03f5 05       		.byte	0x5
 2461 03f6 00       		.byte	0
 2462 03f7 10       		.uleb128 0x10
 2463 03f8 2F030000 		.4byte	.LASF24
 2464 03fc 01       		.byte	0x1
 2465 03fd 0B       		.byte	0xb
 2466 03fe 08040000 		.4byte	0x408
 2467 0402 05       		.uleb128 0x5
 2468 0403 03       		.byte	0x3
 2469 0404 00000000 		.4byte	data
 2470 0408 0F       		.uleb128 0xf
 2471 0409 E7030000 		.4byte	0x3e7
 2472 040d 0C       		.uleb128 0xc
 2473 040e 8D000000 		.4byte	0x8d
 2474 0412 24040000 		.4byte	0x424
 2475 0416 0D       		.uleb128 0xd
 2476 0417 BA000000 		.4byte	0xba
 2477 041b 05       		.byte	0x5
 2478 041c 11       		.uleb128 0x11
 2479 041d BA000000 		.4byte	0xba
 2480 0421 FF07     		.2byte	0x7ff
 2481 0423 00       		.byte	0
 2482 0424 10       		.uleb128 0x10
 2483 0425 3E000000 		.4byte	.LASF25
 2484 0429 01       		.byte	0x1
 2485 042a 0C       		.byte	0xc
 2486 042b 35040000 		.4byte	0x435
 2487 042f 05       		.uleb128 0x5
 2488 0430 03       		.byte	0x3
 2489 0431 00000000 		.4byte	input
 2490 0435 0F       		.uleb128 0xf
 2491 0436 0D040000 		.4byte	0x40d
 2492 043a 10       		.uleb128 0x10
 2493 043b 00000000 		.4byte	.LASF26
 2494 043f 01       		.byte	0x1
 2495 0440 10       		.byte	0x10
 2496 0441 95030000 		.4byte	0x395
 2497 0445 05       		.uleb128 0x5
 2498 0446 03       		.byte	0x3
 2499 0447 00000000 		.4byte	ready
ARM GAS  C:\Users\Thomas\AppData\Local\Temp\ccdc0T6P.s 			page 107


 2500 044b 10       		.uleb128 0x10
 2501 044c 55020000 		.4byte	.LASF27
 2502 0450 01       		.byte	0x1
 2503 0451 11       		.byte	0x11
 2504 0452 5C040000 		.4byte	0x45c
 2505 0456 05       		.uleb128 0x5
 2506 0457 03       		.byte	0x3
 2507 0458 00000000 		.4byte	timer_ready
 2508 045c 0F       		.uleb128 0xf
 2509 045d AB030000 		.4byte	0x3ab
 2510 0461 10       		.uleb128 0x10
 2511 0462 32040000 		.4byte	.LASF28
 2512 0466 01       		.byte	0x1
 2513 0467 12       		.byte	0x12
 2514 0468 72040000 		.4byte	0x472
 2515 046c 05       		.uleb128 0x5
 2516 046d 03       		.byte	0x3
 2517 046e 00000000 		.4byte	use_timer
 2518 0472 0F       		.uleb128 0xf
 2519 0473 AB030000 		.4byte	0x3ab
 2520 0477 10       		.uleb128 0x10
 2521 0478 A6000000 		.4byte	.LASF29
 2522 047c 01       		.byte	0x1
 2523 047d 17       		.byte	0x17
 2524 047e 88040000 		.4byte	0x488
 2525 0482 05       		.uleb128 0x5
 2526 0483 03       		.byte	0x3
 2527 0484 00000000 		.4byte	disable_timer
 2528 0488 0F       		.uleb128 0xf
 2529 0489 AB030000 		.4byte	0x3ab
 2530 048d 10       		.uleb128 0x10
 2531 048e 6E030000 		.4byte	.LASF30
 2532 0492 01       		.byte	0x1
 2533 0493 18       		.byte	0x18
 2534 0494 95030000 		.4byte	0x395
 2535 0498 05       		.uleb128 0x5
 2536 0499 03       		.byte	0x3
 2537 049a 00000000 		.4byte	bytes
 2538 049e 10       		.uleb128 0x10
 2539 049f 9B000000 		.4byte	.LASF31
 2540 04a3 01       		.byte	0x1
 2541 04a4 19       		.byte	0x19
 2542 04a5 AF040000 		.4byte	0x4af
 2543 04a9 05       		.uleb128 0x5
 2544 04aa 03       		.byte	0x3
 2545 04ab 00000000 		.4byte	window_off
 2546 04af 0F       		.uleb128 0xf
 2547 04b0 AB030000 		.4byte	0x3ab
 2548 04b4 10       		.uleb128 0x10
 2549 04b5 D9020000 		.4byte	.LASF32
 2550 04b9 01       		.byte	0x1
 2551 04ba 1A       		.byte	0x1a
 2552 04bb C5040000 		.4byte	0x4c5
 2553 04bf 05       		.uleb128 0x5
 2554 04c0 03       		.byte	0x3
 2555 04c1 00000000 		.4byte	latches
 2556 04c5 0F       		.uleb128 0xf
ARM GAS  C:\Users\Thomas\AppData\Local\Temp\ccdc0T6P.s 			page 108


 2557 04c6 AB030000 		.4byte	0x3ab
 2558 04ca 10       		.uleb128 0x10
 2559 04cb EC030000 		.4byte	.LASF33
 2560 04cf 01       		.byte	0x1
 2561 04d0 13       		.byte	0x13
 2562 04d1 95030000 		.4byte	0x395
 2563 04d5 05       		.uleb128 0x5
 2564 04d6 03       		.byte	0x3
 2565 04d7 00000000 		.4byte	ports
 2566 04db 10       		.uleb128 0x10
 2567 04dc BC030000 		.4byte	.LASF34
 2568 04e0 01       		.byte	0x1
 2569 04e1 14       		.byte	0x14
 2570 04e2 95030000 		.4byte	0x395
 2571 04e6 05       		.uleb128 0x5
 2572 04e7 03       		.byte	0x3
 2573 04e8 00000000 		.4byte	lines
 2574 04ec 10       		.uleb128 0x10
 2575 04ed 8E020000 		.4byte	.LASF35
 2576 04f1 01       		.byte	0x1
 2577 04f2 16       		.byte	0x16
 2578 04f3 FD040000 		.4byte	0x4fd
 2579 04f7 05       		.uleb128 0x5
 2580 04f8 03       		.byte	0x3
 2581 04f9 00000000 		.4byte	request
 2582 04fd 0F       		.uleb128 0xf
 2583 04fe AB030000 		.4byte	0x3ab
 2584 0502 10       		.uleb128 0x10
 2585 0503 B7020000 		.4byte	.LASF36
 2586 0507 01       		.byte	0x1
 2587 0508 1B       		.byte	0x1b
 2588 0509 95030000 		.4byte	0x395
 2589 050d 05       		.uleb128 0x5
 2590 050e 03       		.byte	0x3
 2591 050f 00000000 		.4byte	async
 2592 0513 10       		.uleb128 0x10
 2593 0514 B6030000 		.4byte	.LASF37
 2594 0518 01       		.byte	0x1
 2595 0519 0F       		.byte	0xf
 2596 051a 95030000 		.4byte	0x395
 2597 051e 05       		.uleb128 0x5
 2598 051f 03       		.byte	0x3
 2599 0520 00000000 		.4byte	count
 2600 0524 10       		.uleb128 0x10
 2601 0525 6E020000 		.4byte	.LASF38
 2602 0529 01       		.byte	0x1
 2603 052a 15       		.byte	0x15
 2604 052b 95030000 		.4byte	0x395
 2605 052f 05       		.uleb128 0x5
 2606 0530 03       		.byte	0x3
 2607 0531 00000000 		.4byte	databits
 2608 0535 12       		.uleb128 0x12
 2609 0536 6F000000 		.4byte	.LASF39
 2610 053a 06       		.byte	0x6
 2611 053b 2A01     		.2byte	0x12a
 2612 053d 4C050000 		.4byte	0x54c
 2613 0541 13       		.uleb128 0x13
ARM GAS  C:\Users\Thomas\AppData\Local\Temp\ccdc0T6P.s 			page 109


 2614 0542 81000000 		.4byte	0x81
 2615 0546 13       		.uleb128 0x13
 2616 0547 81000000 		.4byte	0x81
 2617 054b 00       		.byte	0
 2618 054c 14       		.uleb128 0x14
 2619 054d 7D000000 		.4byte	.LASF41
 2620 0551 07       		.byte	0x7
 2621 0552 42       		.byte	0x42
 2622 0553 15       		.uleb128 0x15
 2623 0554 04040000 		.4byte	.LASF40
 2624 0558 07       		.byte	0x7
 2625 0559 4E       		.byte	0x4e
 2626 055a 64050000 		.4byte	0x564
 2627 055e 13       		.uleb128 0x13
 2628 055f 8D000000 		.4byte	0x8d
 2629 0563 00       		.byte	0
 2630 0564 14       		.uleb128 0x14
 2631 0565 C2020000 		.4byte	.LASF42
 2632 0569 08       		.byte	0x8
 2633 056a 42       		.byte	0x42
 2634 056b 15       		.uleb128 0x15
 2635 056c D5030000 		.4byte	.LASF43
 2636 0570 08       		.byte	0x8
 2637 0571 4E       		.byte	0x4e
 2638 0572 7C050000 		.4byte	0x57c
 2639 0576 13       		.uleb128 0x13
 2640 0577 8D000000 		.4byte	0x8d
 2641 057b 00       		.byte	0
 2642 057c 14       		.uleb128 0x14
 2643 057d D3000000 		.4byte	.LASF44
 2644 0581 09       		.byte	0x9
 2645 0582 42       		.byte	0x42
 2646 0583 15       		.uleb128 0x15
 2647 0584 1B040000 		.4byte	.LASF45
 2648 0588 09       		.byte	0x9
 2649 0589 4E       		.byte	0x4e
 2650 058a 94050000 		.4byte	0x594
 2651 058e 13       		.uleb128 0x13
 2652 058f 8D000000 		.4byte	0x8d
 2653 0593 00       		.byte	0
 2654 0594 14       		.uleb128 0x14
 2655 0595 96020000 		.4byte	.LASF46
 2656 0599 0A       		.byte	0xa
 2657 059a 5A       		.byte	0x5a
 2658 059b 14       		.uleb128 0x14
 2659 059c 4A030000 		.4byte	.LASF47
 2660 05a0 0B       		.byte	0xb
 2661 05a1 17       		.byte	0x17
 2662 05a2 14       		.uleb128 0x14
 2663 05a3 7A040000 		.4byte	.LASF48
 2664 05a7 0C       		.byte	0xc
 2665 05a8 42       		.byte	0x42
 2666 05a9 15       		.uleb128 0x15
 2667 05aa 01010000 		.4byte	.LASF49
 2668 05ae 0C       		.byte	0xc
 2669 05af 4E       		.byte	0x4e
 2670 05b0 BA050000 		.4byte	0x5ba
ARM GAS  C:\Users\Thomas\AppData\Local\Temp\ccdc0T6P.s 			page 110


 2671 05b4 13       		.uleb128 0x13
 2672 05b5 8D000000 		.4byte	0x8d
 2673 05b9 00       		.byte	0
 2674 05ba 14       		.uleb128 0x14
 2675 05bb A8020000 		.4byte	.LASF50
 2676 05bf 0D       		.byte	0xd
 2677 05c0 42       		.byte	0x42
 2678 05c1 15       		.uleb128 0x15
 2679 05c2 77020000 		.4byte	.LASF51
 2680 05c6 0D       		.byte	0xd
 2681 05c7 4E       		.byte	0x4e
 2682 05c8 D2050000 		.4byte	0x5d2
 2683 05cc 13       		.uleb128 0x13
 2684 05cd 8D000000 		.4byte	0x8d
 2685 05d1 00       		.byte	0
 2686 05d2 14       		.uleb128 0x14
 2687 05d3 25000000 		.4byte	.LASF52
 2688 05d7 0E       		.byte	0xe
 2689 05d8 42       		.byte	0x42
 2690 05d9 15       		.uleb128 0x15
 2691 05da 26010000 		.4byte	.LASF53
 2692 05de 0E       		.byte	0xe
 2693 05df 4E       		.byte	0x4e
 2694 05e0 EA050000 		.4byte	0x5ea
 2695 05e4 13       		.uleb128 0x13
 2696 05e5 8D000000 		.4byte	0x8d
 2697 05e9 00       		.byte	0
 2698 05ea 14       		.uleb128 0x14
 2699 05eb 5D000000 		.4byte	.LASF54
 2700 05ef 0F       		.byte	0xf
 2701 05f0 5A       		.byte	0x5a
 2702 05f1 14       		.uleb128 0x14
 2703 05f2 F2030000 		.4byte	.LASF55
 2704 05f6 10       		.byte	0x10
 2705 05f7 17       		.byte	0x17
 2706 05f8 16       		.uleb128 0x16
 2707 05f9 E8000000 		.4byte	.LASF56
 2708 05fd 06       		.byte	0x6
 2709 05fe 2D01     		.2byte	0x12d
 2710 0600 81000000 		.4byte	0x81
 2711 0604 17       		.uleb128 0x17
 2712 0605 F4020000 		.4byte	.LASF57
 2713 0609 11       		.byte	0x11
 2714 060a 28       		.byte	0x28
 2715 060b 81000000 		.4byte	0x81
 2716 060f 15       		.uleb128 0x15
 2717 0610 07030000 		.4byte	.LASF58
 2718 0614 11       		.byte	0x11
 2719 0615 25       		.byte	0x25
 2720 0616 20060000 		.4byte	0x620
 2721 061a 13       		.uleb128 0x13
 2722 061b A7000000 		.4byte	0xa7
 2723 061f 00       		.byte	0
 2724 0620 16       		.uleb128 0x16
 2725 0621 06000000 		.4byte	.LASF59
 2726 0625 06       		.byte	0x6
 2727 0626 2E01     		.2byte	0x12e
ARM GAS  C:\Users\Thomas\AppData\Local\Temp\ccdc0T6P.s 			page 111


 2728 0628 81000000 		.4byte	0x81
 2729 062c 17       		.uleb128 0x17
 2730 062d 66040000 		.4byte	.LASF60
 2731 0631 11       		.byte	0x11
 2732 0632 29       		.byte	0x29
 2733 0633 81000000 		.4byte	0x81
 2734 0637 18       		.uleb128 0x18
 2735 0638 34030000 		.4byte	.LASF71
 2736 063c 11       		.byte	0x11
 2737 063d 2B       		.byte	0x2b
 2738 063e 8D000000 		.4byte	0x8d
 2739 0642 4C060000 		.4byte	0x64c
 2740 0646 13       		.uleb128 0x13
 2741 0647 4C060000 		.4byte	0x64c
 2742 064b 00       		.byte	0
 2743 064c 19       		.uleb128 0x19
 2744 064d 04       		.byte	0x4
 2745 064e 81000000 		.4byte	0x81
 2746 0652 17       		.uleb128 0x17
 2747 0653 3C040000 		.4byte	.LASF61
 2748 0657 11       		.byte	0x11
 2749 0658 22       		.byte	0x22
 2750 0659 81000000 		.4byte	0x81
 2751 065d 15       		.uleb128 0x15
 2752 065e 17030000 		.4byte	.LASF62
 2753 0662 0F       		.byte	0xf
 2754 0663 68       		.byte	0x68
 2755 0664 6E060000 		.4byte	0x66e
 2756 0668 13       		.uleb128 0x13
 2757 0669 8D000000 		.4byte	0x8d
 2758 066d 00       		.byte	0
 2759 066e 14       		.uleb128 0x14
 2760 066f 0F020000 		.4byte	.LASF63
 2761 0673 12       		.byte	0x12
 2762 0674 17       		.byte	0x17
 2763 0675 14       		.uleb128 0x14
 2764 0676 BA000000 		.4byte	.LASF64
 2765 067a 13       		.byte	0x13
 2766 067b 17       		.byte	0x17
 2767 067c 14       		.uleb128 0x14
 2768 067d 2A020000 		.4byte	.LASF65
 2769 0681 12       		.byte	0x12
 2770 0682 19       		.byte	0x19
 2771 0683 14       		.uleb128 0x14
 2772 0684 4D040000 		.4byte	.LASF66
 2773 0688 13       		.byte	0x13
 2774 0689 19       		.byte	0x19
 2775 068a 1A       		.uleb128 0x1a
 2776 068b F7010000 		.4byte	.LASF72
 2777 068f 0A       		.byte	0xa
 2778 0690 68       		.byte	0x68
 2779 0691 13       		.uleb128 0x13
 2780 0692 8D000000 		.4byte	0x8d
 2781 0696 00       		.byte	0
 2782 0697 00       		.byte	0
 2783              		.section	.debug_abbrev,"",%progbits
 2784              	.Ldebug_abbrev0:
ARM GAS  C:\Users\Thomas\AppData\Local\Temp\ccdc0T6P.s 			page 112


 2785 0000 01       		.uleb128 0x1
 2786 0001 11       		.uleb128 0x11
 2787 0002 01       		.byte	0x1
 2788 0003 25       		.uleb128 0x25
 2789 0004 0E       		.uleb128 0xe
 2790 0005 13       		.uleb128 0x13
 2791 0006 0B       		.uleb128 0xb
 2792 0007 03       		.uleb128 0x3
 2793 0008 0E       		.uleb128 0xe
 2794 0009 1B       		.uleb128 0x1b
 2795 000a 0E       		.uleb128 0xe
 2796 000b 55       		.uleb128 0x55
 2797 000c 17       		.uleb128 0x17
 2798 000d 11       		.uleb128 0x11
 2799 000e 01       		.uleb128 0x1
 2800 000f 10       		.uleb128 0x10
 2801 0010 17       		.uleb128 0x17
 2802 0011 00       		.byte	0
 2803 0012 00       		.byte	0
 2804 0013 02       		.uleb128 0x2
 2805 0014 24       		.uleb128 0x24
 2806 0015 00       		.byte	0
 2807 0016 0B       		.uleb128 0xb
 2808 0017 0B       		.uleb128 0xb
 2809 0018 3E       		.uleb128 0x3e
 2810 0019 0B       		.uleb128 0xb
 2811 001a 03       		.uleb128 0x3
 2812 001b 0E       		.uleb128 0xe
 2813 001c 00       		.byte	0
 2814 001d 00       		.byte	0
 2815 001e 03       		.uleb128 0x3
 2816 001f 16       		.uleb128 0x16
 2817 0020 00       		.byte	0
 2818 0021 03       		.uleb128 0x3
 2819 0022 0E       		.uleb128 0xe
 2820 0023 3A       		.uleb128 0x3a
 2821 0024 0B       		.uleb128 0xb
 2822 0025 3B       		.uleb128 0x3b
 2823 0026 0B       		.uleb128 0xb
 2824 0027 49       		.uleb128 0x49
 2825 0028 13       		.uleb128 0x13
 2826 0029 00       		.byte	0
 2827 002a 00       		.byte	0
 2828 002b 04       		.uleb128 0x4
 2829 002c 24       		.uleb128 0x24
 2830 002d 00       		.byte	0
 2831 002e 0B       		.uleb128 0xb
 2832 002f 0B       		.uleb128 0xb
 2833 0030 3E       		.uleb128 0x3e
 2834 0031 0B       		.uleb128 0xb
 2835 0032 03       		.uleb128 0x3
 2836 0033 08       		.uleb128 0x8
 2837 0034 00       		.byte	0
 2838 0035 00       		.byte	0
 2839 0036 05       		.uleb128 0x5
 2840 0037 16       		.uleb128 0x16
 2841 0038 00       		.byte	0
ARM GAS  C:\Users\Thomas\AppData\Local\Temp\ccdc0T6P.s 			page 113


 2842 0039 03       		.uleb128 0x3
 2843 003a 0E       		.uleb128 0xe
 2844 003b 3A       		.uleb128 0x3a
 2845 003c 0B       		.uleb128 0xb
 2846 003d 3B       		.uleb128 0x3b
 2847 003e 05       		.uleb128 0x5
 2848 003f 49       		.uleb128 0x49
 2849 0040 13       		.uleb128 0x13
 2850 0041 00       		.byte	0
 2851 0042 00       		.byte	0
 2852 0043 06       		.uleb128 0x6
 2853 0044 2E       		.uleb128 0x2e
 2854 0045 01       		.byte	0x1
 2855 0046 3F       		.uleb128 0x3f
 2856 0047 19       		.uleb128 0x19
 2857 0048 03       		.uleb128 0x3
 2858 0049 0E       		.uleb128 0xe
 2859 004a 3A       		.uleb128 0x3a
 2860 004b 0B       		.uleb128 0xb
 2861 004c 3B       		.uleb128 0x3b
 2862 004d 0B       		.uleb128 0xb
 2863 004e 49       		.uleb128 0x49
 2864 004f 13       		.uleb128 0x13
 2865 0050 11       		.uleb128 0x11
 2866 0051 01       		.uleb128 0x1
 2867 0052 12       		.uleb128 0x12
 2868 0053 06       		.uleb128 0x6
 2869 0054 40       		.uleb128 0x40
 2870 0055 18       		.uleb128 0x18
 2871 0056 9742     		.uleb128 0x2117
 2872 0058 19       		.uleb128 0x19
 2873 0059 01       		.uleb128 0x1
 2874 005a 13       		.uleb128 0x13
 2875 005b 00       		.byte	0
 2876 005c 00       		.byte	0
 2877 005d 07       		.uleb128 0x7
 2878 005e 34       		.uleb128 0x34
 2879 005f 00       		.byte	0
 2880 0060 03       		.uleb128 0x3
 2881 0061 0E       		.uleb128 0xe
 2882 0062 3A       		.uleb128 0x3a
 2883 0063 0B       		.uleb128 0xb
 2884 0064 3B       		.uleb128 0x3b
 2885 0065 0B       		.uleb128 0xb
 2886 0066 49       		.uleb128 0x49
 2887 0067 13       		.uleb128 0x13
 2888 0068 02       		.uleb128 0x2
 2889 0069 18       		.uleb128 0x18
 2890 006a 00       		.byte	0
 2891 006b 00       		.byte	0
 2892 006c 08       		.uleb128 0x8
 2893 006d 34       		.uleb128 0x34
 2894 006e 00       		.byte	0
 2895 006f 03       		.uleb128 0x3
 2896 0070 08       		.uleb128 0x8
 2897 0071 3A       		.uleb128 0x3a
 2898 0072 0B       		.uleb128 0xb
ARM GAS  C:\Users\Thomas\AppData\Local\Temp\ccdc0T6P.s 			page 114


 2899 0073 3B       		.uleb128 0x3b
 2900 0074 0B       		.uleb128 0xb
 2901 0075 49       		.uleb128 0x49
 2902 0076 13       		.uleb128 0x13
 2903 0077 02       		.uleb128 0x2
 2904 0078 17       		.uleb128 0x17
 2905 0079 00       		.byte	0
 2906 007a 00       		.byte	0
 2907 007b 09       		.uleb128 0x9
 2908 007c 898201   		.uleb128 0x4109
 2909 007f 01       		.byte	0x1
 2910 0080 11       		.uleb128 0x11
 2911 0081 01       		.uleb128 0x1
 2912 0082 31       		.uleb128 0x31
 2913 0083 13       		.uleb128 0x13
 2914 0084 01       		.uleb128 0x1
 2915 0085 13       		.uleb128 0x13
 2916 0086 00       		.byte	0
 2917 0087 00       		.byte	0
 2918 0088 0A       		.uleb128 0xa
 2919 0089 8A8201   		.uleb128 0x410a
 2920 008c 00       		.byte	0
 2921 008d 02       		.uleb128 0x2
 2922 008e 18       		.uleb128 0x18
 2923 008f 9142     		.uleb128 0x2111
 2924 0091 18       		.uleb128 0x18
 2925 0092 00       		.byte	0
 2926 0093 00       		.byte	0
 2927 0094 0B       		.uleb128 0xb
 2928 0095 898201   		.uleb128 0x4109
 2929 0098 00       		.byte	0
 2930 0099 11       		.uleb128 0x11
 2931 009a 01       		.uleb128 0x1
 2932 009b 31       		.uleb128 0x31
 2933 009c 13       		.uleb128 0x13
 2934 009d 00       		.byte	0
 2935 009e 00       		.byte	0
 2936 009f 0C       		.uleb128 0xc
 2937 00a0 01       		.uleb128 0x1
 2938 00a1 01       		.byte	0x1
 2939 00a2 49       		.uleb128 0x49
 2940 00a3 13       		.uleb128 0x13
 2941 00a4 01       		.uleb128 0x1
 2942 00a5 13       		.uleb128 0x13
 2943 00a6 00       		.byte	0
 2944 00a7 00       		.byte	0
 2945 00a8 0D       		.uleb128 0xd
 2946 00a9 21       		.uleb128 0x21
 2947 00aa 00       		.byte	0
 2948 00ab 49       		.uleb128 0x49
 2949 00ac 13       		.uleb128 0x13
 2950 00ad 2F       		.uleb128 0x2f
 2951 00ae 0B       		.uleb128 0xb
 2952 00af 00       		.byte	0
 2953 00b0 00       		.byte	0
 2954 00b1 0E       		.uleb128 0xe
 2955 00b2 34       		.uleb128 0x34
ARM GAS  C:\Users\Thomas\AppData\Local\Temp\ccdc0T6P.s 			page 115


 2956 00b3 00       		.byte	0
 2957 00b4 03       		.uleb128 0x3
 2958 00b5 0E       		.uleb128 0xe
 2959 00b6 3A       		.uleb128 0x3a
 2960 00b7 0B       		.uleb128 0xb
 2961 00b8 3B       		.uleb128 0x3b
 2962 00b9 05       		.uleb128 0x5
 2963 00ba 49       		.uleb128 0x49
 2964 00bb 13       		.uleb128 0x13
 2965 00bc 3F       		.uleb128 0x3f
 2966 00bd 19       		.uleb128 0x19
 2967 00be 3C       		.uleb128 0x3c
 2968 00bf 19       		.uleb128 0x19
 2969 00c0 00       		.byte	0
 2970 00c1 00       		.byte	0
 2971 00c2 0F       		.uleb128 0xf
 2972 00c3 35       		.uleb128 0x35
 2973 00c4 00       		.byte	0
 2974 00c5 49       		.uleb128 0x49
 2975 00c6 13       		.uleb128 0x13
 2976 00c7 00       		.byte	0
 2977 00c8 00       		.byte	0
 2978 00c9 10       		.uleb128 0x10
 2979 00ca 34       		.uleb128 0x34
 2980 00cb 00       		.byte	0
 2981 00cc 03       		.uleb128 0x3
 2982 00cd 0E       		.uleb128 0xe
 2983 00ce 3A       		.uleb128 0x3a
 2984 00cf 0B       		.uleb128 0xb
 2985 00d0 3B       		.uleb128 0x3b
 2986 00d1 0B       		.uleb128 0xb
 2987 00d2 49       		.uleb128 0x49
 2988 00d3 13       		.uleb128 0x13
 2989 00d4 3F       		.uleb128 0x3f
 2990 00d5 19       		.uleb128 0x19
 2991 00d6 02       		.uleb128 0x2
 2992 00d7 18       		.uleb128 0x18
 2993 00d8 00       		.byte	0
 2994 00d9 00       		.byte	0
 2995 00da 11       		.uleb128 0x11
 2996 00db 21       		.uleb128 0x21
 2997 00dc 00       		.byte	0
 2998 00dd 49       		.uleb128 0x49
 2999 00de 13       		.uleb128 0x13
 3000 00df 2F       		.uleb128 0x2f
 3001 00e0 05       		.uleb128 0x5
 3002 00e1 00       		.byte	0
 3003 00e2 00       		.byte	0
 3004 00e3 12       		.uleb128 0x12
 3005 00e4 2E       		.uleb128 0x2e
 3006 00e5 01       		.byte	0x1
 3007 00e6 3F       		.uleb128 0x3f
 3008 00e7 19       		.uleb128 0x19
 3009 00e8 03       		.uleb128 0x3
 3010 00e9 0E       		.uleb128 0xe
 3011 00ea 3A       		.uleb128 0x3a
 3012 00eb 0B       		.uleb128 0xb
ARM GAS  C:\Users\Thomas\AppData\Local\Temp\ccdc0T6P.s 			page 116


 3013 00ec 3B       		.uleb128 0x3b
 3014 00ed 05       		.uleb128 0x5
 3015 00ee 27       		.uleb128 0x27
 3016 00ef 19       		.uleb128 0x19
 3017 00f0 3C       		.uleb128 0x3c
 3018 00f1 19       		.uleb128 0x19
 3019 00f2 01       		.uleb128 0x1
 3020 00f3 13       		.uleb128 0x13
 3021 00f4 00       		.byte	0
 3022 00f5 00       		.byte	0
 3023 00f6 13       		.uleb128 0x13
 3024 00f7 05       		.uleb128 0x5
 3025 00f8 00       		.byte	0
 3026 00f9 49       		.uleb128 0x49
 3027 00fa 13       		.uleb128 0x13
 3028 00fb 00       		.byte	0
 3029 00fc 00       		.byte	0
 3030 00fd 14       		.uleb128 0x14
 3031 00fe 2E       		.uleb128 0x2e
 3032 00ff 00       		.byte	0
 3033 0100 3F       		.uleb128 0x3f
 3034 0101 19       		.uleb128 0x19
 3035 0102 03       		.uleb128 0x3
 3036 0103 0E       		.uleb128 0xe
 3037 0104 3A       		.uleb128 0x3a
 3038 0105 0B       		.uleb128 0xb
 3039 0106 3B       		.uleb128 0x3b
 3040 0107 0B       		.uleb128 0xb
 3041 0108 27       		.uleb128 0x27
 3042 0109 19       		.uleb128 0x19
 3043 010a 3C       		.uleb128 0x3c
 3044 010b 19       		.uleb128 0x19
 3045 010c 00       		.byte	0
 3046 010d 00       		.byte	0
 3047 010e 15       		.uleb128 0x15
 3048 010f 2E       		.uleb128 0x2e
 3049 0110 01       		.byte	0x1
 3050 0111 3F       		.uleb128 0x3f
 3051 0112 19       		.uleb128 0x19
 3052 0113 03       		.uleb128 0x3
 3053 0114 0E       		.uleb128 0xe
 3054 0115 3A       		.uleb128 0x3a
 3055 0116 0B       		.uleb128 0xb
 3056 0117 3B       		.uleb128 0x3b
 3057 0118 0B       		.uleb128 0xb
 3058 0119 27       		.uleb128 0x27
 3059 011a 19       		.uleb128 0x19
 3060 011b 3C       		.uleb128 0x3c
 3061 011c 19       		.uleb128 0x19
 3062 011d 01       		.uleb128 0x1
 3063 011e 13       		.uleb128 0x13
 3064 011f 00       		.byte	0
 3065 0120 00       		.byte	0
 3066 0121 16       		.uleb128 0x16
 3067 0122 2E       		.uleb128 0x2e
 3068 0123 00       		.byte	0
 3069 0124 3F       		.uleb128 0x3f
ARM GAS  C:\Users\Thomas\AppData\Local\Temp\ccdc0T6P.s 			page 117


 3070 0125 19       		.uleb128 0x19
 3071 0126 03       		.uleb128 0x3
 3072 0127 0E       		.uleb128 0xe
 3073 0128 3A       		.uleb128 0x3a
 3074 0129 0B       		.uleb128 0xb
 3075 012a 3B       		.uleb128 0x3b
 3076 012b 05       		.uleb128 0x5
 3077 012c 27       		.uleb128 0x27
 3078 012d 19       		.uleb128 0x19
 3079 012e 49       		.uleb128 0x49
 3080 012f 13       		.uleb128 0x13
 3081 0130 3C       		.uleb128 0x3c
 3082 0131 19       		.uleb128 0x19
 3083 0132 00       		.byte	0
 3084 0133 00       		.byte	0
 3085 0134 17       		.uleb128 0x17
 3086 0135 2E       		.uleb128 0x2e
 3087 0136 00       		.byte	0
 3088 0137 3F       		.uleb128 0x3f
 3089 0138 19       		.uleb128 0x19
 3090 0139 03       		.uleb128 0x3
 3091 013a 0E       		.uleb128 0xe
 3092 013b 3A       		.uleb128 0x3a
 3093 013c 0B       		.uleb128 0xb
 3094 013d 3B       		.uleb128 0x3b
 3095 013e 0B       		.uleb128 0xb
 3096 013f 27       		.uleb128 0x27
 3097 0140 19       		.uleb128 0x19
 3098 0141 49       		.uleb128 0x49
 3099 0142 13       		.uleb128 0x13
 3100 0143 3C       		.uleb128 0x3c
 3101 0144 19       		.uleb128 0x19
 3102 0145 00       		.byte	0
 3103 0146 00       		.byte	0
 3104 0147 18       		.uleb128 0x18
 3105 0148 2E       		.uleb128 0x2e
 3106 0149 01       		.byte	0x1
 3107 014a 3F       		.uleb128 0x3f
 3108 014b 19       		.uleb128 0x19
 3109 014c 03       		.uleb128 0x3
 3110 014d 0E       		.uleb128 0xe
 3111 014e 3A       		.uleb128 0x3a
 3112 014f 0B       		.uleb128 0xb
 3113 0150 3B       		.uleb128 0x3b
 3114 0151 0B       		.uleb128 0xb
 3115 0152 27       		.uleb128 0x27
 3116 0153 19       		.uleb128 0x19
 3117 0154 49       		.uleb128 0x49
 3118 0155 13       		.uleb128 0x13
 3119 0156 3C       		.uleb128 0x3c
 3120 0157 19       		.uleb128 0x19
 3121 0158 01       		.uleb128 0x1
 3122 0159 13       		.uleb128 0x13
 3123 015a 00       		.byte	0
 3124 015b 00       		.byte	0
 3125 015c 19       		.uleb128 0x19
 3126 015d 0F       		.uleb128 0xf
ARM GAS  C:\Users\Thomas\AppData\Local\Temp\ccdc0T6P.s 			page 118


 3127 015e 00       		.byte	0
 3128 015f 0B       		.uleb128 0xb
 3129 0160 0B       		.uleb128 0xb
 3130 0161 49       		.uleb128 0x49
 3131 0162 13       		.uleb128 0x13
 3132 0163 00       		.byte	0
 3133 0164 00       		.byte	0
 3134 0165 1A       		.uleb128 0x1a
 3135 0166 2E       		.uleb128 0x2e
 3136 0167 01       		.byte	0x1
 3137 0168 3F       		.uleb128 0x3f
 3138 0169 19       		.uleb128 0x19
 3139 016a 03       		.uleb128 0x3
 3140 016b 0E       		.uleb128 0xe
 3141 016c 3A       		.uleb128 0x3a
 3142 016d 0B       		.uleb128 0xb
 3143 016e 3B       		.uleb128 0x3b
 3144 016f 0B       		.uleb128 0xb
 3145 0170 27       		.uleb128 0x27
 3146 0171 19       		.uleb128 0x19
 3147 0172 3C       		.uleb128 0x3c
 3148 0173 19       		.uleb128 0x19
 3149 0174 00       		.byte	0
 3150 0175 00       		.byte	0
 3151 0176 00       		.byte	0
 3152              		.section	.debug_loc,"",%progbits
 3153              	.Ldebug_loc0:
 3154              	.LLST0:
 3155 0000 DC000000 		.4byte	.LVL29
 3156 0004 F8000000 		.4byte	.LVL30
 3157 0008 0200     		.2byte	0x2
 3158 000a 7D       		.byte	0x7d
 3159 000b 00       		.sleb128 0
 3160 000c F8000000 		.4byte	.LVL30
 3161 0010 08010000 		.4byte	.LVL33
 3162 0014 0100     		.2byte	0x1
 3163 0016 57       		.byte	0x57
 3164 0017 32010000 		.4byte	.LVL40
 3165 001b 7F010000 		.4byte	.LVL41-1
 3166 001f 0200     		.2byte	0x2
 3167 0021 7D       		.byte	0x7d
 3168 0022 00       		.sleb128 0
 3169 0023 7F010000 		.4byte	.LVL41-1
 3170 0027 82010000 		.4byte	.LVL42
 3171 002b 0100     		.2byte	0x1
 3172 002d 57       		.byte	0x57
 3173 002e 82010000 		.4byte	.LVL42
 3174 0032 08020000 		.4byte	.LVL44
 3175 0036 0200     		.2byte	0x2
 3176 0038 7D       		.byte	0x7d
 3177 0039 00       		.sleb128 0
 3178 003a 86030000 		.4byte	.LVL69
 3179 003e 9F030000 		.4byte	.LVL70-1
 3180 0042 0200     		.2byte	0x2
 3181 0044 7D       		.byte	0x7d
 3182 0045 00       		.sleb128 0
 3183 0046 9F030000 		.4byte	.LVL70-1
ARM GAS  C:\Users\Thomas\AppData\Local\Temp\ccdc0T6P.s 			page 119


 3184 004a A6030000 		.4byte	.LVL72
 3185 004e 0100     		.2byte	0x1
 3186 0050 57       		.byte	0x57
 3187 0051 A6030000 		.4byte	.LVL72
 3188 0055 DC030000 		.4byte	.LVL80
 3189 0059 0100     		.2byte	0x1
 3190 005b 53       		.byte	0x53
 3191 005c DC030000 		.4byte	.LVL80
 3192 0060 D3050000 		.4byte	.LVL119-1
 3193 0064 0200     		.2byte	0x2
 3194 0066 7D       		.byte	0x7d
 3195 0067 00       		.sleb128 0
 3196 0068 D3050000 		.4byte	.LVL119-1
 3197 006c D6050000 		.4byte	.LVL120
 3198 0070 0100     		.2byte	0x1
 3199 0072 57       		.byte	0x57
 3200 0073 D6050000 		.4byte	.LVL120
 3201 0077 FC050000 		.4byte	.LFE63
 3202 007b 0200     		.2byte	0x2
 3203 007d 7D       		.byte	0x7d
 3204 007e 00       		.sleb128 0
 3205 007f 00000000 		.4byte	0
 3206 0083 00000000 		.4byte	0
 3207              	.LLST1:
 3208 0087 00000000 		.4byte	.LVL0
 3209 008b 62000000 		.4byte	.LVL18
 3210 008f 0200     		.2byte	0x2
 3211 0091 30       		.byte	0x30
 3212 0092 9F       		.byte	0x9f
 3213 0093 46020000 		.4byte	.LVL51
 3214 0097 54020000 		.4byte	.LVL52
 3215 009b 0200     		.2byte	0x2
 3216 009d 30       		.byte	0x30
 3217 009e 9F       		.byte	0x9f
 3218 009f 54020000 		.4byte	.LVL52
 3219 00a3 7C020000 		.4byte	.LVL54
 3220 00a7 0100     		.2byte	0x1
 3221 00a9 51       		.byte	0x51
 3222 00aa 7E020000 		.4byte	.LVL55
 3223 00ae 80020000 		.4byte	.LVL56
 3224 00b2 0100     		.2byte	0x1
 3225 00b4 51       		.byte	0x51
 3226 00b5 E8030000 		.4byte	.LVL82
 3227 00b9 F6030000 		.4byte	.LVL83
 3228 00bd 0200     		.2byte	0x2
 3229 00bf 30       		.byte	0x30
 3230 00c0 9F       		.byte	0x9f
 3231 00c1 F6030000 		.4byte	.LVL83
 3232 00c5 0E040000 		.4byte	.LVL85
 3233 00c9 0100     		.2byte	0x1
 3234 00cb 51       		.byte	0x51
 3235 00cc 12040000 		.4byte	.LVL86
 3236 00d0 14040000 		.4byte	.LVL87
 3237 00d4 0100     		.2byte	0x1
 3238 00d6 51       		.byte	0x51
 3239 00d7 A4040000 		.4byte	.LVL95
 3240 00db B2040000 		.4byte	.LVL96
ARM GAS  C:\Users\Thomas\AppData\Local\Temp\ccdc0T6P.s 			page 120


 3241 00df 0200     		.2byte	0x2
 3242 00e1 30       		.byte	0x30
 3243 00e2 9F       		.byte	0x9f
 3244 00e3 B2040000 		.4byte	.LVL96
 3245 00e7 CA040000 		.4byte	.LVL98
 3246 00eb 0100     		.2byte	0x1
 3247 00ed 51       		.byte	0x51
 3248 00ee CE040000 		.4byte	.LVL99
 3249 00f2 D0040000 		.4byte	.LVL100
 3250 00f6 0100     		.2byte	0x1
 3251 00f8 51       		.byte	0x51
 3252 00f9 2A050000 		.4byte	.LVL107
 3253 00fd 38050000 		.4byte	.LVL108
 3254 0101 0200     		.2byte	0x2
 3255 0103 30       		.byte	0x30
 3256 0104 9F       		.byte	0x9f
 3257 0105 38050000 		.4byte	.LVL108
 3258 0109 62050000 		.4byte	.LVL111
 3259 010d 0100     		.2byte	0x1
 3260 010f 51       		.byte	0x51
 3261 0110 00000000 		.4byte	0
 3262 0114 00000000 		.4byte	0
 3263              	.LLST2:
 3264 0118 00000000 		.4byte	.LVL0
 3265 011c 62000000 		.4byte	.LVL18
 3266 0120 0200     		.2byte	0x2
 3267 0122 30       		.byte	0x30
 3268 0123 9F       		.byte	0x9f
 3269 0124 7C000000 		.4byte	.LVL19
 3270 0128 87000000 		.4byte	.LVL20-1
 3271 012c 0100     		.2byte	0x1
 3272 012e 53       		.byte	0x53
 3273 012f B2000000 		.4byte	.LVL23
 3274 0133 BA000000 		.4byte	.LVL24
 3275 0137 0100     		.2byte	0x1
 3276 0139 53       		.byte	0x53
 3277 013a 16010000 		.4byte	.LVL36
 3278 013e 19010000 		.4byte	.LVL37-1
 3279 0142 0100     		.2byte	0x1
 3280 0144 53       		.byte	0x53
 3281 0145 46020000 		.4byte	.LVL51
 3282 0149 54020000 		.4byte	.LVL52
 3283 014d 0200     		.2byte	0x2
 3284 014f 30       		.byte	0x30
 3285 0150 9F       		.byte	0x9f
 3286 0151 54020000 		.4byte	.LVL52
 3287 0155 6C020000 		.4byte	.LVL53
 3288 0159 0100     		.2byte	0x1
 3289 015b 50       		.byte	0x50
 3290 015c 6C020000 		.4byte	.LVL53
 3291 0160 7E020000 		.4byte	.LVL55
 3292 0164 0300     		.2byte	0x3
 3293 0166 70       		.byte	0x70
 3294 0167 7F       		.sleb128 -1
 3295 0168 9F       		.byte	0x9f
 3296 0169 7E020000 		.4byte	.LVL55
 3297 016d 80020000 		.4byte	.LVL56
ARM GAS  C:\Users\Thomas\AppData\Local\Temp\ccdc0T6P.s 			page 121


 3298 0171 0100     		.2byte	0x1
 3299 0173 50       		.byte	0x50
 3300 0174 A4030000 		.4byte	.LVL71
 3301 0178 A6030000 		.4byte	.LVL72
 3302 017c 0200     		.2byte	0x2
 3303 017e 30       		.byte	0x30
 3304 017f 9F       		.byte	0x9f
 3305 0180 A6030000 		.4byte	.LVL72
 3306 0184 CC030000 		.4byte	.LVL77
 3307 0188 0100     		.2byte	0x1
 3308 018a 57       		.byte	0x57
 3309 018b CC030000 		.4byte	.LVL77
 3310 018f D8030000 		.4byte	.LVL79
 3311 0193 0300     		.2byte	0x3
 3312 0195 77       		.byte	0x77
 3313 0196 7F       		.sleb128 -1
 3314 0197 9F       		.byte	0x9f
 3315 0198 D8030000 		.4byte	.LVL79
 3316 019c DC030000 		.4byte	.LVL80
 3317 01a0 0100     		.2byte	0x1
 3318 01a2 57       		.byte	0x57
 3319 01a3 E8030000 		.4byte	.LVL82
 3320 01a7 F6030000 		.4byte	.LVL83
 3321 01ab 0200     		.2byte	0x2
 3322 01ad 30       		.byte	0x30
 3323 01ae 9F       		.byte	0x9f
 3324 01af F6030000 		.4byte	.LVL83
 3325 01b3 0A040000 		.4byte	.LVL84
 3326 01b7 0100     		.2byte	0x1
 3327 01b9 50       		.byte	0x50
 3328 01ba 0A040000 		.4byte	.LVL84
 3329 01be 12040000 		.4byte	.LVL86
 3330 01c2 0300     		.2byte	0x3
 3331 01c4 70       		.byte	0x70
 3332 01c5 7F       		.sleb128 -1
 3333 01c6 9F       		.byte	0x9f
 3334 01c7 12040000 		.4byte	.LVL86
 3335 01cb 14040000 		.4byte	.LVL87
 3336 01cf 0100     		.2byte	0x1
 3337 01d1 50       		.byte	0x50
 3338 01d2 A4040000 		.4byte	.LVL95
 3339 01d6 B2040000 		.4byte	.LVL96
 3340 01da 0200     		.2byte	0x2
 3341 01dc 30       		.byte	0x30
 3342 01dd 9F       		.byte	0x9f
 3343 01de B2040000 		.4byte	.LVL96
 3344 01e2 C6040000 		.4byte	.LVL97
 3345 01e6 0100     		.2byte	0x1
 3346 01e8 50       		.byte	0x50
 3347 01e9 C6040000 		.4byte	.LVL97
 3348 01ed CE040000 		.4byte	.LVL99
 3349 01f1 0300     		.2byte	0x3
 3350 01f3 70       		.byte	0x70
 3351 01f4 7F       		.sleb128 -1
 3352 01f5 9F       		.byte	0x9f
 3353 01f6 CE040000 		.4byte	.LVL99
 3354 01fa D0040000 		.4byte	.LVL100
ARM GAS  C:\Users\Thomas\AppData\Local\Temp\ccdc0T6P.s 			page 122


 3355 01fe 0100     		.2byte	0x1
 3356 0200 50       		.byte	0x50
 3357 0201 2A050000 		.4byte	.LVL107
 3358 0205 38050000 		.4byte	.LVL108
 3359 0209 0200     		.2byte	0x2
 3360 020b 30       		.byte	0x30
 3361 020c 9F       		.byte	0x9f
 3362 020d 38050000 		.4byte	.LVL108
 3363 0211 58050000 		.4byte	.LVL109
 3364 0215 0100     		.2byte	0x1
 3365 0217 50       		.byte	0x50
 3366 0218 58050000 		.4byte	.LVL109
 3367 021c 60050000 		.4byte	.LVL110
 3368 0220 0300     		.2byte	0x3
 3369 0222 70       		.byte	0x70
 3370 0223 7F       		.sleb128 -1
 3371 0224 9F       		.byte	0x9f
 3372 0225 60050000 		.4byte	.LVL110
 3373 0229 62050000 		.4byte	.LVL111
 3374 022d 0100     		.2byte	0x1
 3375 022f 50       		.byte	0x50
 3376 0230 00000000 		.4byte	0
 3377 0234 00000000 		.4byte	0
 3378              	.LLST3:
 3379 0238 00000000 		.4byte	.LVL0
 3380 023c 62000000 		.4byte	.LVL18
 3381 0240 0200     		.2byte	0x2
 3382 0242 30       		.byte	0x30
 3383 0243 9F       		.byte	0x9f
 3384 0244 2A020000 		.4byte	.LVL49
 3385 0248 EE020000 		.4byte	.LVL63
 3386 024c 0100     		.2byte	0x1
 3387 024e 5C       		.byte	0x5c
 3388 024f 6A030000 		.4byte	.LVL68
 3389 0253 86030000 		.4byte	.LVL69
 3390 0257 0100     		.2byte	0x1
 3391 0259 5C       		.byte	0x5c
 3392 025a A6030000 		.4byte	.LVL72
 3393 025e AE030000 		.4byte	.LVL73
 3394 0262 0200     		.2byte	0x2
 3395 0264 30       		.byte	0x30
 3396 0265 9F       		.byte	0x9f
 3397 0266 AE030000 		.4byte	.LVL73
 3398 026a B6030000 		.4byte	.LVL74
 3399 026e 0200     		.2byte	0x2
 3400 0270 31       		.byte	0x31
 3401 0271 9F       		.byte	0x9f
 3402 0272 B6030000 		.4byte	.LVL74
 3403 0276 BE030000 		.4byte	.LVL75
 3404 027a 0200     		.2byte	0x2
 3405 027c 32       		.byte	0x32
 3406 027d 9F       		.byte	0x9f
 3407 027e BE030000 		.4byte	.LVL75
 3408 0282 C2030000 		.4byte	.LVL76
 3409 0286 0200     		.2byte	0x2
 3410 0288 33       		.byte	0x33
 3411 0289 9F       		.byte	0x9f
ARM GAS  C:\Users\Thomas\AppData\Local\Temp\ccdc0T6P.s 			page 123


 3412 028a C2030000 		.4byte	.LVL76
 3413 028e D4030000 		.4byte	.LVL78
 3414 0292 0200     		.2byte	0x2
 3415 0294 34       		.byte	0x34
 3416 0295 9F       		.byte	0x9f
 3417 0296 D4030000 		.4byte	.LVL78
 3418 029a D8030000 		.4byte	.LVL79
 3419 029e 0200     		.2byte	0x2
 3420 02a0 35       		.byte	0x35
 3421 02a1 9F       		.byte	0x9f
 3422 02a2 D8030000 		.4byte	.LVL79
 3423 02a6 DC030000 		.4byte	.LVL80
 3424 02aa 0200     		.2byte	0x2
 3425 02ac 36       		.byte	0x36
 3426 02ad 9F       		.byte	0x9f
 3427 02ae DE030000 		.4byte	.LVL81
 3428 02b2 42040000 		.4byte	.LVL91
 3429 02b6 0100     		.2byte	0x1
 3430 02b8 57       		.byte	0x57
 3431 02b9 64040000 		.4byte	.LVL92
 3432 02bd 98040000 		.4byte	.LVL93
 3433 02c1 0100     		.2byte	0x1
 3434 02c3 57       		.byte	0x57
 3435 02c4 9A040000 		.4byte	.LVL94
 3436 02c8 0A050000 		.4byte	.LVL104
 3437 02cc 0100     		.2byte	0x1
 3438 02ce 57       		.byte	0x57
 3439 02cf 0E050000 		.4byte	.LVL105
 3440 02d3 B4050000 		.4byte	.LVL117
 3441 02d7 0100     		.2byte	0x1
 3442 02d9 59       		.byte	0x59
 3443 02da B4050000 		.4byte	.LVL117
 3444 02de C2050000 		.4byte	.LVL118
 3445 02e2 0100     		.2byte	0x1
 3446 02e4 57       		.byte	0x57
 3447 02e5 D6050000 		.4byte	.LVL120
 3448 02e9 FC050000 		.4byte	.LFE63
 3449 02ed 0100     		.2byte	0x1
 3450 02ef 59       		.byte	0x59
 3451 02f0 00000000 		.4byte	0
 3452 02f4 00000000 		.4byte	0
 3453              	.LLST4:
 3454 02f8 00000000 		.4byte	.LVL0
 3455 02fc 62000000 		.4byte	.LVL18
 3456 0300 0200     		.2byte	0x2
 3457 0302 30       		.byte	0x30
 3458 0303 9F       		.byte	0x9f
 3459 0304 F0010000 		.4byte	.LVL43
 3460 0308 08020000 		.4byte	.LVL44
 3461 030c 0200     		.2byte	0x2
 3462 030e 30       		.byte	0x30
 3463 030f 9F       		.byte	0x9f
 3464 0310 D8020000 		.4byte	.LVL62
 3465 0314 EE020000 		.4byte	.LVL63
 3466 0318 0100     		.2byte	0x1
 3467 031a 5B       		.byte	0x5b
 3468 031b 00000000 		.4byte	0
ARM GAS  C:\Users\Thomas\AppData\Local\Temp\ccdc0T6P.s 			page 124


 3469 031f 00000000 		.4byte	0
 3470              	.LLST5:
 3471 0323 00000000 		.4byte	.LVL0
 3472 0327 62000000 		.4byte	.LVL18
 3473 032b 0200     		.2byte	0x2
 3474 032d 30       		.byte	0x30
 3475 032e 9F       		.byte	0x9f
 3476 032f 2A020000 		.4byte	.LVL49
 3477 0333 36020000 		.4byte	.LVL50
 3478 0337 0200     		.2byte	0x2
 3479 0339 30       		.byte	0x30
 3480 033a 9F       		.byte	0x9f
 3481 033b 36020000 		.4byte	.LVL50
 3482 033f A2020000 		.4byte	.LVL60
 3483 0343 0100     		.2byte	0x1
 3484 0345 5E       		.byte	0x5e
 3485 0346 0E050000 		.4byte	.LVL105
 3486 034a 1E050000 		.4byte	.LVL106
 3487 034e 0200     		.2byte	0x2
 3488 0350 30       		.byte	0x30
 3489 0351 9F       		.byte	0x9f
 3490 0352 1E050000 		.4byte	.LVL106
 3491 0356 82050000 		.4byte	.LVL115
 3492 035a 0100     		.2byte	0x1
 3493 035c 5E       		.byte	0x5e
 3494 035d 00000000 		.4byte	0
 3495 0361 00000000 		.4byte	0
 3496              	.LLST6:
 3497 0365 00000000 		.4byte	.LVL0
 3498 0369 62000000 		.4byte	.LVL18
 3499 036d 0200     		.2byte	0x2
 3500 036f 30       		.byte	0x30
 3501 0370 9F       		.byte	0x9f
 3502 0371 36020000 		.4byte	.LVL50
 3503 0375 46020000 		.4byte	.LVL51
 3504 0379 0200     		.2byte	0x2
 3505 037b 30       		.byte	0x30
 3506 037c 9F       		.byte	0x9f
 3507 037d 46020000 		.4byte	.LVL51
 3508 0381 98020000 		.4byte	.LVL58
 3509 0385 0100     		.2byte	0x1
 3510 0387 57       		.byte	0x57
 3511 0388 DE030000 		.4byte	.LVL81
 3512 038c E8030000 		.4byte	.LVL82
 3513 0390 0200     		.2byte	0x2
 3514 0392 30       		.byte	0x30
 3515 0393 9F       		.byte	0x9f
 3516 0394 E8030000 		.4byte	.LVL82
 3517 0398 28040000 		.4byte	.LVL89
 3518 039c 0100     		.2byte	0x1
 3519 039e 5E       		.byte	0x5e
 3520 039f 9A040000 		.4byte	.LVL94
 3521 03a3 A4040000 		.4byte	.LVL95
 3522 03a7 0200     		.2byte	0x2
 3523 03a9 30       		.byte	0x30
 3524 03aa 9F       		.byte	0x9f
 3525 03ab A4040000 		.4byte	.LVL95
ARM GAS  C:\Users\Thomas\AppData\Local\Temp\ccdc0T6P.s 			page 125


 3526 03af E8040000 		.4byte	.LVL102
 3527 03b3 0100     		.2byte	0x1
 3528 03b5 5E       		.byte	0x5e
 3529 03b6 1E050000 		.4byte	.LVL106
 3530 03ba 2A050000 		.4byte	.LVL107
 3531 03be 0200     		.2byte	0x2
 3532 03c0 30       		.byte	0x30
 3533 03c1 9F       		.byte	0x9f
 3534 03c2 2A050000 		.4byte	.LVL107
 3535 03c6 78050000 		.4byte	.LVL113
 3536 03ca 0100     		.2byte	0x1
 3537 03cc 57       		.byte	0x57
 3538 03cd 00000000 		.4byte	0
 3539 03d1 00000000 		.4byte	0
 3540              		.section	.debug_aranges,"",%progbits
 3541 0000 1C000000 		.4byte	0x1c
 3542 0004 0200     		.2byte	0x2
 3543 0006 00000000 		.4byte	.Ldebug_info0
 3544 000a 04       		.byte	0x4
 3545 000b 00       		.byte	0
 3546 000c 0000     		.2byte	0
 3547 000e 0000     		.2byte	0
 3548 0010 00000000 		.4byte	.LFB63
 3549 0014 FC050000 		.4byte	.LFE63-.LFB63
 3550 0018 00000000 		.4byte	0
 3551 001c 00000000 		.4byte	0
 3552              		.section	.debug_ranges,"",%progbits
 3553              	.Ldebug_ranges0:
 3554 0000 00000000 		.4byte	.LFB63
 3555 0004 FC050000 		.4byte	.LFE63
 3556 0008 00000000 		.4byte	0
 3557 000c 00000000 		.4byte	0
 3558              		.section	.debug_line,"",%progbits
 3559              	.Ldebug_line0:
 3560 0000 5E040000 		.section	.debug_str,"MS",%progbits,1
 3560      02001702 
 3560      00000201 
 3560      FB0E0D00 
 3560      01010101 
 3561              	.LASF26:
 3562 0000 72656164 		.ascii	"ready\000"
 3562      7900
 3563              	.LASF59:
 3564 0006 55534255 		.ascii	"USBUART_IsConfigurationChanged\000"
 3564      4152545F 
 3564      4973436F 
 3564      6E666967 
 3564      75726174 
 3565              	.LASF52:
 3566 0025 50325F52 		.ascii	"P2_RegD2_Start\000"
 3566      65674432 
 3566      5F537461 
 3566      727400
 3567              	.LASF2:
 3568 0034 73686F72 		.ascii	"short int\000"
 3568      7420696E 
 3568      7400
ARM GAS  C:\Users\Thomas\AppData\Local\Temp\ccdc0T6P.s 			page 126


 3569              	.LASF25:
 3570 003e 696E7075 		.ascii	"input\000"
 3570      7400
 3571              	.LASF17:
 3572 0044 73697A65 		.ascii	"sizetype\000"
 3572      74797065 
 3572      00
 3573              	.LASF20:
 3574 004d 73656E74 		.ascii	"sent\000"
 3574      00
 3575              	.LASF15:
 3576 0052 63686172 		.ascii	"char8\000"
 3576      3800
 3577              	.LASF70:
 3578 0058 6D61696E 		.ascii	"main\000"
 3578      00
 3579              	.LASF54:
 3580 005d 50325F57 		.ascii	"P2_WinTimer_Start\000"
 3580      696E5469 
 3580      6D65725F 
 3580      53746172 
 3580      7400
 3581              	.LASF39:
 3582 006f 55534255 		.ascii	"USBUART_Start\000"
 3582      4152545F 
 3582      53746172 
 3582      7400
 3583              	.LASF41:
 3584 007d 50315F52 		.ascii	"P1_RegD0_Start\000"
 3584      65674430 
 3584      5F537461 
 3584      727400
 3585              	.LASF12:
 3586 008c 75696E74 		.ascii	"uint16\000"
 3586      313600
 3587              	.LASF23:
 3588 0093 6275665F 		.ascii	"buf_ptr\000"
 3588      70747200 
 3589              	.LASF31:
 3590 009b 77696E64 		.ascii	"window_off\000"
 3590      6F775F6F 
 3590      666600
 3591              	.LASF29:
 3592 00a6 64697361 		.ascii	"disable_timer\000"
 3592      626C655F 
 3592      74696D65 
 3592      7200
 3593              	.LASF11:
 3594 00b4 75696E74 		.ascii	"uint8\000"
 3594      3800
 3595              	.LASF64:
 3596 00ba 50325F49 		.ascii	"P2_IRQ_Start\000"
 3596      52515F53 
 3596      74617274 
 3596      00
 3597              	.LASF0:
 3598 00c7 7369676E 		.ascii	"signed char\000"
ARM GAS  C:\Users\Thomas\AppData\Local\Temp\ccdc0T6P.s 			page 127


 3598      65642063 
 3598      68617200 
 3599              	.LASF44:
 3600 00d3 50315F52 		.ascii	"P1_RegD2_Start\000"
 3600      65674432 
 3600      5F537461 
 3600      727400
 3601              	.LASF13:
 3602 00e2 666C6F61 		.ascii	"float\000"
 3602      7400
 3603              	.LASF56:
 3604 00e8 55534255 		.ascii	"USBUART_GetConfiguration\000"
 3604      4152545F 
 3604      47657443 
 3604      6F6E6669 
 3604      67757261 
 3605              	.LASF49:
 3606 0101 50325F52 		.ascii	"P2_RegD0_WriteRegValue\000"
 3606      65674430 
 3606      5F577269 
 3606      74655265 
 3606      6756616C 
 3607              	.LASF6:
 3608 0118 6C6F6E67 		.ascii	"long long int\000"
 3608      206C6F6E 
 3608      6720696E 
 3608      7400
 3609              	.LASF53:
 3610 0126 50325F52 		.ascii	"P2_RegD2_WriteRegValue\000"
 3610      65674432 
 3610      5F577269 
 3610      74655265 
 3610      6756616C 
 3611              	.LASF4:
 3612 013d 6C6F6E67 		.ascii	"long int\000"
 3612      20696E74 
 3612      00
 3613              	.LASF67:
 3614 0146 474E5520 		.ascii	"GNU C 4.9.3 20150303 (release) [ARM/embedded-4_9-br"
 3614      4320342E 
 3614      392E3320 
 3614      32303135 
 3614      30333033 
 3615 0179 616E6368 		.ascii	"anch revision 221220] -mcpu=cortex-m3 -mthumb -g -O"
 3615      20726576 
 3615      6973696F 
 3615      6E203232 
 3615      31323230 
 3616 01ac 33202D66 		.ascii	"3 -ffunction-sections -finline-functions -flto -ffa"
 3616      66756E63 
 3616      74696F6E 
 3616      2D736563 
 3616      74696F6E 
 3617 01df 742D6C74 		.ascii	"t-lto-objects\000"
 3617      6F2D6F62 
 3617      6A656374 
 3617      7300
ARM GAS  C:\Users\Thomas\AppData\Local\Temp\ccdc0T6P.s 			page 128


 3618              	.LASF22:
 3619 01ed 696E7075 		.ascii	"input_ptr\000"
 3619      745F7074 
 3619      7200
 3620              	.LASF72:
 3621 01f7 50315F57 		.ascii	"P1_WinTimer_WritePeriod\000"
 3621      696E5469 
 3621      6D65725F 
 3621      57726974 
 3621      65506572 
 3622              	.LASF63:
 3623 020f 50315F49 		.ascii	"P1_IRQ_Start\000"
 3623      52515F53 
 3623      74617274 
 3623      00
 3624              	.LASF1:
 3625 021c 756E7369 		.ascii	"unsigned char\000"
 3625      676E6564 
 3625      20636861 
 3625      7200
 3626              	.LASF65:
 3627 022a 50315F49 		.ascii	"P1_IRQ_Stop\000"
 3627      52515F53 
 3627      746F7000 
 3628              	.LASF7:
 3629 0236 6C6F6E67 		.ascii	"long long unsigned int\000"
 3629      206C6F6E 
 3629      6720756E 
 3629      7369676E 
 3629      65642069 
 3630              	.LASF21:
 3631 024d 706C6179 		.ascii	"playing\000"
 3631      696E6700 
 3632              	.LASF27:
 3633 0255 74696D65 		.ascii	"timer_ready\000"
 3633      725F7265 
 3633      61647900 
 3634              	.LASF8:
 3635 0261 756E7369 		.ascii	"unsigned int\000"
 3635      676E6564 
 3635      20696E74 
 3635      00
 3636              	.LASF38:
 3637 026e 64617461 		.ascii	"databits\000"
 3637      62697473 
 3637      00
 3638              	.LASF51:
 3639 0277 50325F52 		.ascii	"P2_RegD1_WriteRegValue\000"
 3639      65674431 
 3639      5F577269 
 3639      74655265 
 3639      6756616C 
 3640              	.LASF35:
 3641 028e 72657175 		.ascii	"request\000"
 3641      65737400 
 3642              	.LASF46:
 3643 0296 50315F57 		.ascii	"P1_WinTimer_Start\000"
ARM GAS  C:\Users\Thomas\AppData\Local\Temp\ccdc0T6P.s 			page 129


 3643      696E5469 
 3643      6D65725F 
 3643      53746172 
 3643      7400
 3644              	.LASF50:
 3645 02a8 50325F52 		.ascii	"P2_RegD1_Start\000"
 3645      65674431 
 3645      5F537461 
 3645      727400
 3646              	.LASF36:
 3647 02b7 6173796E 		.ascii	"async\000"
 3647      6300
 3648              	.LASF16:
 3649 02bd 63686172 		.ascii	"char\000"
 3649      00
 3650              	.LASF42:
 3651 02c2 50315F52 		.ascii	"P1_RegD1_Start\000"
 3651      65674431 
 3651      5F537461 
 3651      727400
 3652              	.LASF10:
 3653 02d1 696E7433 		.ascii	"int32_t\000"
 3653      325F7400 
 3654              	.LASF32:
 3655 02d9 6C617463 		.ascii	"latches\000"
 3655      68657300 
 3656              	.LASF3:
 3657 02e1 73686F72 		.ascii	"short unsigned int\000"
 3657      7420756E 
 3657      7369676E 
 3657      65642069 
 3657      6E7400
 3658              	.LASF57:
 3659 02f4 55534255 		.ascii	"USBUART_CDCIsReady\000"
 3659      4152545F 
 3659      43444349 
 3659      73526561 
 3659      647900
 3660              	.LASF58:
 3661 0307 55534255 		.ascii	"USBUART_PutChar\000"
 3661      4152545F 
 3661      50757443 
 3661      68617200 
 3662              	.LASF62:
 3663 0317 50325F57 		.ascii	"P2_WinTimer_WritePeriod\000"
 3663      696E5469 
 3663      6D65725F 
 3663      57726974 
 3663      65506572 
 3664              	.LASF24:
 3665 032f 64617461 		.ascii	"data\000"
 3665      00
 3666              	.LASF71:
 3667 0334 55534255 		.ascii	"USBUART_GetAll\000"
 3667      4152545F 
 3667      47657441 
 3667      6C6C00
ARM GAS  C:\Users\Thomas\AppData\Local\Temp\ccdc0T6P.s 			page 130


 3668              	.LASF18:
 3669 0343 62756666 		.ascii	"buffer\000"
 3669      657200
 3670              	.LASF47:
 3671 034a 50315F54 		.ascii	"P1_TimerIRQ_Start\000"
 3671      696D6572 
 3671      4952515F 
 3671      53746172 
 3671      7400
 3672              	.LASF5:
 3673 035c 6C6F6E67 		.ascii	"long unsigned int\000"
 3673      20756E73 
 3673      69676E65 
 3673      6420696E 
 3673      7400
 3674              	.LASF30:
 3675 036e 62797465 		.ascii	"bytes\000"
 3675      7300
 3676              	.LASF14:
 3677 0374 646F7562 		.ascii	"double\000"
 3677      6C6500
 3678              	.LASF69:
 3679 037b 433A5C55 		.ascii	"C:\\Users\\Thomas\\Documents\\PSoC Creator\\TASBot\\"
 3679      73657273 
 3679      5C54686F 
 3679      6D61735C 
 3679      446F6375 
 3680 03a9 54415342 		.ascii	"TASBot.cydsn\000"
 3680      6F742E63 
 3680      7964736E 
 3680      00
 3681              	.LASF37:
 3682 03b6 636F756E 		.ascii	"count\000"
 3682      7400
 3683              	.LASF34:
 3684 03bc 6C696E65 		.ascii	"lines\000"
 3684      7300
 3685              	.LASF68:
 3686 03c2 2E5C6D61 		.ascii	".\\main.c\000"
 3686      696E2E63 
 3686      00
 3687              	.LASF9:
 3688 03cb 5F5F696E 		.ascii	"__int32_t\000"
 3688      7433325F 
 3688      7400
 3689              	.LASF43:
 3690 03d5 50315F52 		.ascii	"P1_RegD1_WriteRegValue\000"
 3690      65674431 
 3690      5F577269 
 3690      74655265 
 3690      6756616C 
 3691              	.LASF33:
 3692 03ec 706F7274 		.ascii	"ports\000"
 3692      7300
 3693              	.LASF55:
 3694 03f2 50325F54 		.ascii	"P2_TimerIRQ_Start\000"
 3694      696D6572 
ARM GAS  C:\Users\Thomas\AppData\Local\Temp\ccdc0T6P.s 			page 131


 3694      4952515F 
 3694      53746172 
 3694      7400
 3695              	.LASF40:
 3696 0404 50315F52 		.ascii	"P1_RegD0_WriteRegValue\000"
 3696      65674430 
 3696      5F577269 
 3696      74655265 
 3696      6756616C 
 3697              	.LASF45:
 3698 041b 50315F52 		.ascii	"P1_RegD2_WriteRegValue\000"
 3698      65674432 
 3698      5F577269 
 3698      74655265 
 3698      6756616C 
 3699              	.LASF28:
 3700 0432 7573655F 		.ascii	"use_timer\000"
 3700      74696D65 
 3700      7200
 3701              	.LASF61:
 3702 043c 55534255 		.ascii	"USBUART_CDC_Init\000"
 3702      4152545F 
 3702      4344435F 
 3702      496E6974 
 3702      00
 3703              	.LASF66:
 3704 044d 50325F49 		.ascii	"P2_IRQ_Stop\000"
 3704      52515F53 
 3704      746F7000 
 3705              	.LASF19:
 3706 0459 49544D5F 		.ascii	"ITM_RxBuffer\000"
 3706      52784275 
 3706      66666572 
 3706      00
 3707              	.LASF60:
 3708 0466 55534255 		.ascii	"USBUART_DataIsReady\000"
 3708      4152545F 
 3708      44617461 
 3708      49735265 
 3708      61647900 
 3709              	.LASF48:
 3710 047a 50325F52 		.ascii	"P2_RegD0_Start\000"
 3710      65674430 
 3710      5F537461 
 3710      727400
 3711              		.comm	__gnu_lto_v1,1,1
 3712              		.ident	"GCC: (GNU Tools for ARM Embedded Processors) 4.9.3 20150303 (release) [ARM/embedded-4_9-br
