ARM GAS  C:\Users\Thomas\AppData\Local\Temp\cc4WQuXD.s 			page 1


   1              		.syntax unified
   2              		.cpu cortex-m3
   3              		.fpu softvfp
   4              		.eabi_attribute 20, 1
   5              		.eabi_attribute 21, 1
   6              		.eabi_attribute 23, 3
   7              		.eabi_attribute 24, 1
   8              		.eabi_attribute 25, 1
   9              		.eabi_attribute 26, 1
  10              		.eabi_attribute 30, 2
  11              		.eabi_attribute 34, 1
  12              		.eabi_attribute 18, 4
  13              		.thumb
  14              		.file	"P1.c"
  15              		.text
  16              	.Ltext0:
  17              		.section	.gnu.lto_.profile.bdb9f688,"",%progbits
  18 0000 789C6366 		.ascii	"x\234cf```e\200\000F\206\265\214!\000\002\347\001\014"
  18      60606065 
  18      80004686 
  18      B58C2100 
  18      02E7010C 
  19              		.text
  20              		.section	.gnu.lto_.jmpfuncs.bdb9f688,"",%progbits
  21 0000 789C6366 		.ascii	"x\234cf\300\016,\2414\017\0203\002A=\003\023\003\003"
  21      C00E2CA1 
  21      340F1033 
  21      02413D03 
  21      130303
  22 0013 33900DE4 		.ascii	"3\220\015\344\263\0001+\020\263C\270\034@\314\011R\302"
  22      B300312B 
  22      10B343B8 
  22      1C40CC09 
  22      52C2
  23 0025 C5C0C00D 		.ascii	"\305\300\300\015\242Az\030\000;\201\002\031"
  23      A2417A18 
  23      003B8102 
  23      19
  24              		.text
  25              		.section	.gnu.lto_.inline.bdb9f688,"",%progbits
  26 0000 789C7D50 		.ascii	"x\234}P;\012\302@\024\234\367v\223M\326\200\237\302"
  26      3B0AC240 
  26      149CF776 
  26      934DD680 
  26      9FC2
  27 0012 2216B981 		.ascii	"\"\026\271\201\367\260\311\015\354\3656)E\004\323y\007"
  27      F7B0C90D 
  27      ECF53629 
  27      4504D379 
  27      07
  28 0023 F11076B6 		.ascii	"\361\020v\2666\202\245\202\215\235\263\006\202\212\272"
  28      3682A582 
  28      8D9DB306 
  28      828ABA
  29 0032 2C6F60DE 		.ascii	",o`\336\314\354{k\360\375L\244\301\214\327\011tP\225"
  29      CCEC7B6B 
  29      F0FD4CA4 
ARM GAS  C:\Users\Thomas\AppData\Local\Temp\cc4WQuXD.s 			page 2


  29      C18CD709 
  29      745095
  30 0045 88578506 		.ascii	"\210W\205\006N\340b1\230]U\226\207\323\315\234\365\256"
  30      4EE06231 
  30      985D5596 
  30      87D3CD9C 
  30      F5AE
  31 0057 50C84672 		.ascii	"P\310Fr`\336\000\355\206\322\270\246\305\326E/\370\264"
  31      60DE00ED 
  31      86D2B8A6 
  31      C5D6452F 
  31      F8B4
  32 0069 03CB8A34 		.ascii	"\003\313\2124a`v\2346]\004\245\037\221\212/\343\226"
  32      6160769C 
  32      365D04A5 
  32      1F918A2F 
  32      E396
  33 007b A2165295 		.ascii	"\242\026R\225\001hr\335\217\266x\226\010\375!\371|W"
  33      016872DD 
  33      8FB67896 
  33      08FD21F9 
  33      7C57
  34 008d CB7BC3FD 		.ascii	"\313{\303\375\317K~\344\245\360\251\310s\364v:\335w"
  34      CF4B7EE4 
  34      A5F0A9C8 
  34      73F4763A 
  34      DD77
  35 009f 6D107844 		.ascii	"m\020xD\226\036\256\322z\270\215!EEKe\360k&\250\337"
  35      961EAED2 
  35      7AB88D21 
  35      45454B65 
  35      F06B26A8 
  36 00b4 2EECCBD3 		.ascii	".\354\313\323\341/\037\023\322$\257"
  36      E12F1F13 
  36      D224AF
  37              		.text
  38              		.section	.gnu.lto_.pureconst.bdb9f688,"",%progbits
  39 0000 789C6366 		.ascii	"x\234cf``\220d\200\000\036\006)F\011&)f)\026)V)v)\016"
  39      60609064 
  39      80001E06 
  39      29460926 
  39      29662916 
  40 001a 294E292E 		.ascii	")N).)n)\036)\000\025\325\001\247"
  40      296E291E 
  40      290015D5 
  40      01A7
  41              		.text
  42              		.section	.gnu.lto_P1_GetFIFOStatus.part.0.bdb9f688,"",%progbits
  43 0000 789C6D92 		.ascii	"x\234m\222\337KTA\024\307\317\231\271\367\356\352VZ"
  43      DF4B5441 
  43      14C7CF99 
  43      B9F7EEEA 
  43      565A
  44 0012 4FB24411 		.ascii	"O\262D\021\"\032\204\020\321_\320CD/\202\257F\205\256"
  44      221A8410 
  44      D15FD043 
  44      442F82AF 
ARM GAS  C:\Users\Thomas\AppData\Local\Temp\cc4WQuXD.s 			page 3


  44      4685AE
  45 0025 104482E9 		.ascii	"\020D\202\351\203O\336\273\356>\024\305\026I?\326\004"
  45      834FDEBB 
  45      EE3E14C5 
  45      16493FD6 
  45      04
  46 0036 A3FC9595 		.ascii	"\243\374\225\225\366\313\362\007\270Y\231\017\266\213"
  46      F6CBF207 
  46      B859990F 
  46      B68B
  47 0044 ADE8269B 		.ascii	"\255\350&\233\356\203[\031\375\262L\3330\267s\346na"
  47      EE835B19 
  47      FDB24CDB 
  47      30B773E6 
  47      6E61
  48 0056 D4C09D39 		.ascii	"\324\300\2359\314|?g\276s\316\225\360\357\330O\237W"
  48      CC7C3F67 
  48      BE73CE95 
  48      F0EFD84F 
  48      9F57
  49 0068 0214D38A 		.ascii	"\002\024\323\212\016@\343L\230\002\003\205Z\205\324"
  49      0E40E34C 
  49      98020385 
  49      5A85D4
  50 0077 FC6E309D 		.ascii	"\374n0\235R\315\272\035\243\316g\226S\373\035\350\210"
  50      52CDBA1D 
  50      A3CE6796 
  50      53FB1DE8 
  50      88
  51 0088 1C0042BD 		.ascii	"\034\000B\275A\204\216\3658/\026\004\216\365\255F\261"
  51      41848EF5 
  51      382F1604 
  51      8EF5AD46 
  51      B1
  52 0099 B0D534BD 		.ascii	"\260\3254\275\237\277\274\212\273\374y)\001\360U\000"
  52      9FBFBC8A 
  52      BBFC7929 
  52      01F05500 
  53 00a9 EE70E376 		.ascii	"\356p\343v7\003\355X\010$\354\214\177\013m\220\333\220"
  53      3703ED58 
  53      0824EC8C 
  53      7F0B6D90 
  53      DB90
  54 00bb E30B8F5A 		.ascii	"\343\013\217Z\317g\347_!(\221J\216\270\314\213\246/"
  54      CF67E75F 
  54      2128914A 
  54      8EB8CC8B 
  54      A62F
  55 00cd 914E6F25 		.ascii	"\221No%\024;P\256\245y\020\020x>\034\317\221E\012\236"
  55      143B50AE 
  55      A5791010 
  55      783E1CCF 
  55      91450A9E 
  56 00e1 E818F56A 		.ascii	"\350\030\365j6\374)y d\265\230\253\35142{\375\277\354"
  56      36FC2979 
  56      2064B598 
  56      ABE93432 
ARM GAS  C:\Users\Thomas\AppData\Local\Temp\cc4WQuXD.s 			page 4


  56      7BFDBFEC 
  57 00f5 82EFE794 		.ascii	"\202\357\347\224\313\360\231\246\231\213\235\230\217"
  57      CBF099A6 
  57      998B9D98 
  57      8F
  58 0102 5D98CF06 		.ascii	"]\230\317\006\311\331\015\252\001\200\340\035>\351\336"
  58      C9D90DAA 
  58      0180E01D 
  58      3EE9DE
  59 0111 649AE9F4 		.ascii	"d\232\351\364\233w\205\016\204\224@\301\223\244Ih<\351"
  59      9B77850E 
  59      849440C1 
  59      93A44968 
  59      3CE9
  60 0123 C01A8039 		.ascii	"\300\032\2009B\271\022Ia\360*'\321\273\221\257y\366"
  60      42B91249 
  60      61F02A27 
  60      D1BB91AF 
  60      79F6
  61 0135 A47F502F 		.ascii	"\244\177P/j\243kZ\006?\37056\224\031x\023\213H\020\275"
  61      6AA36B5A 
  61      063FF835 
  61      36941978 
  61      138B4810 
  62 014a 9658CA2E 		.ascii	"\226X\312.\270\252|?\215\270\314\274?\2261c\231\021"
  62      B8AA7C3F 
  62      8DB8CCBC 
  62      3F963163 
  62      9911
  63 015c BC850540 		.ascii	"\274\205\005@9sA\331\"\024\370.\241\356\232\306\341"
  63      397341D9 
  63      2214F82E 
  63      A1EE9AC6 
  63      E1
  64 016d A5939303 		.ascii	"\245\223\223\003%\354|\231^&0<ty6\353\255H\0119?j\231"
  64      25EC7C99 
  64      5E26303C 
  64      747936EB 
  64      AD480939 
  65 0184 1A1B999D 		.ascii	"\032\033\231\235\213\214;\325\226z\376\307\221\340\204"
  65      8B8C3BD5 
  65      967AFEC7 
  65      91E084
  66 0193 68C626AB 		.ascii	"h\306&\253\321r\246\204\206\335\350\306\036\244\372"
  66      D172A684 
  66      86DDE8C6 
  66      1EA4FA
  67 01a2 E06D6C46 		.ascii	"\340mlF\230\306\206\357\206\235O\330){\206\272N\250"
  67      98C686EF 
  67      869D4FD8 
  67      297B86BA 
  67      4EA8
  68 01b4 947808F0 		.ascii	"\224x\010\360\016)\247\321;\343\260%\222T\214\314d\020"
  68      0E29A7D1 
  68      3BE3B025 
  68      92548CCC 
  68      6410
ARM GAS  C:\Users\Thomas\AppData\Local\Temp\cc4WQuXD.s 			page 5


  69 01c6 8DB60879 		.ascii	"\215\266\010y\037m\352_\307\210NU\272K\310K\364\231"
  69      1F6DEA5F 
  69      C7884E55 
  69      BA4BC84B 
  69      F499
  70 01d8 BB32123A 		.ascii	"\2732\022:\177\261\262\322\201\001<m\371\314D\254\335"
  70      7FB1B2D2 
  70      81013C6D 
  70      F9CC44AC 
  70      DD
  71 01e9 91A2D2C1 		.ascii	"\221\242\322\301\242\252\017\336\243}RXm\003\247\034"
  71      A2AA0FDE 
  71      A37D5258 
  71      6D03A71C 
  72 01f9 9C4128D3 		.ascii	"\234A(\323\341\361K\341\3656\3202\312z\274OY\027\005"
  72      E1F14BE1 
  72      F536D032 
  72      CA7ABC4F 
  72      591705
  73 020c 32D26B23 		.ascii	"2\322k#\301\251\344\242T\210`\344lo\354GV\006\031S\310"
  73      C1A9E4A2 
  73      548860E4 
  73      6C6FEC47 
  73      56061953 
  74 0221 0385A84E 		.ascii	"\003\205\250N?$D\325Q\202\337-ch\345\2629\316G\245\016"
  74      3F2444D5 
  74      5182DF2D 
  74      6368E5B2 
  74      39CE47A5 
  75 0236 9D0B6C56 		.ascii	"\235\013lV\377\002\365\227\022E\022\217\003\3521@\375"
  75      FF02F597 
  75      1245128F 
  75      03EA3140 
  75      FD
  76 0247 E9E34A11 		.ascii	"\351\343J\021\247\375\315\011\305\005s\326`\343\301"
  76      A7FDCD09 
  76      C50573D6 
  76      60E3C1
  77 0256 B6861C85 		.ascii	"\266\206\034\205!`\177\006\323!@mcN\275\327\356+\351"
  77      21607F06 
  77      D321406D 
  77      634EBDD7 
  77      EE2BE9
  78 0269 97E96406 		.ascii	"\227\351d\006\255P4\"\354*\351\000\257Q_\333=\266=\200"
  78      AD503422 
  78      EC2AE900 
  78      AF515FDB 
  78      3DB63D80 
  79 027d 6E115F4E 		.ascii	"n\021_N \333\220\215u\234V\233\250\243_\0209/I\266\024"
  79      20DB908D 
  79      759C569B 
  79      A8A35F10 
  79      392F49B6 
  80 0292 97EDF51C 		.ascii	"\227\355\365\034\363T\037\256\361T\034,\255\252\255"
  80      F3541FAE 
  80      F1541C2C 
  80      ADAAAD
ARM GAS  C:\Users\Thomas\AppData\Local\Temp\cc4WQuXD.s 			page 6


  81 02a1 2EF79495 		.ascii	".\367\224\225\224V\355\331]V\262\263\270\034\214j\317"
  81      9456EDD9 
  81      5D56B2B3 
  81      B81C8C6A 
  81      CF
  82 02b2 F1DAA335 		.ascii	"\361\332\2435F\345\221\312\252}\025\277\0001\377B\253"
  82      46E591CA 
  82      AA7D15BF 
  82      0031FF42 
  82      AB
  83              		.text
  84              		.section	.gnu.lto_P1_GetFIFOStatus.bdb9f688,"",%progbits
  85 0000 789C6590 		.ascii	"x\234e\220OHTQ\024\306\317w\356\363)3\3034\264\212Y"
  85      4F485451 
  85      14C6CF77 
  85      EEF32933 
  85      C334B48A 
  86 0015 1421E204 		.ascii	"\024!\342\0041\020\321\246\225\320\"\334\011n\007\""
  86      3110D1A6 
  86      95D022DC 
  86      096E0722 
  87 0025 F4094134 		.ascii	"\364\011A41\351R\274\243\023\004Bf\213\012!!\312\312"
  87      31E952BC 
  87      A3130442 
  87      668B0A21 
  87      21CACA
  88 0038 CA31A84D 		.ascii	"\3121\250M1\3043\242f\321\237\305P\272x\325@M\330.\323"
  88      31C433A2 
  88      66D19FC5 
  88      50BA78D5 
  88      404DD82E 
  89 004d 1AA4743A 		.ascii	"\032\244t:\347\275EA\027.\347r\371~\337\371\3161\364"
  89      E7BD4541 
  89      172EE772 
  89      F97EDFF9 
  89      CE31F4
  90 0060 FF392877 		.ascii	"\3779(w\025DY\251h#\360\205\327D\305\016fSM\220\215"
  90      154459A9 
  90      6823F085 
  90      D744C50E 
  90      66534D90 
  91 0075 39D52522 		.ascii	"9\325%\"\2330p\364\037\016\240\225@cl\034\214\341+\257"
  91      9B3070F4 
  91      1F0EA095 
  91      40636C1C 
  91      8CE12BAF 
  92 0089 315E3EDA 		.ascii	"1^>\332\256\241{\316\332\361o\337\337\007\361\263\273"
  92      AEA17BCE 
  92      DAF16FDF 
  92      DF07F1B3 
  92      BB
  93 009a 3699689D 		.ascii	"6\231h\235\011\373\323\330\227V\371-t\213n\352\325\323"
  93      09FBD3D8 
  93      9756F92D 
  93      748B6EEA 
  93      D5D3
  94 00ac 6087D90B 		.ascii	"`\207\331\013\222w\355F\375g\254\353\2720\376\223\262"
ARM GAS  C:\Users\Thomas\AppData\Local\Temp\cc4WQuXD.s 			page 7


  94      9277ED46 
  94      FD67ACEB 
  94      BA30FE93 
  94      B2
  95 00bd ED8120B8 		.ascii	"\355\201 \270\015\363\227R\017\314\243K\305\363\301"
  95      0DF39752 
  95      0FCCA34B 
  95      C5F3C1
  96 00cc 0F3F6932 		.ascii	"\017?i2!xyi\356R\254\363\232\200\365\315\306\363\270"
  96      21787969 
  96      EE52ACF3 
  96      9A80F5CD 
  96      C6F3B8
  97 00df BD624BF5 		.ascii	"\275bK\365Vk\217\362w\376\345\243#\300Zik9\356\226\254"
  97      566B8FF2 
  97      77FEE5A3 
  97      23C05A69 
  97      6B39EE96 
  98 00f4 B529DC45 		.ascii	"\265)\334E\247\006\023\347{pej\350\317\342N\337\266"
  98      A70613E7 
  98      7B70656A 
  98      E8CFE24E 
  98      DFB6
  99 0106 5A0F7E5F 		.ascii	"Z\017~_\254\0366\355 \375bhk7|\023}\026B\307n0k5\357"
  99      AC1E36ED 
  99      20FD6268 
  99      6B377C13 
  99      7D1642C7 
 100 011f 30EE3727 		.ascii	"0\3567'\223\241\207\010\244\307\364\364\303\331\344"
 100      93A18708 
 100      A4C7F4F4 
 100      C3D9E4
 101 012e 2A4B886D 		.ascii	"*K\210m1X@\232\336\242\2642\361\351j\273\212\232\254"
 101      3158409A 
 101      DEA2B432 
 101      F1E96ABB 
 101      8A9AAC
 102 0141 5B9A596E 		.ascii	"[\232Ynl\030\325@2\226\021%l\260\241jB\035S\252\024"
 102      6C18D540 
 102      32961125 
 102      6CB0A16A 
 102      421D53AA 
 103 0156 D98B678F 		.ascii	"\331\213g\217+m\231\233\022\267^Y\010z:t\017\321\301"
 103      2B6D999B 
 103      12B75E59 
 103      087A3A74 
 103      0FD1C1
 104 0169 22326245 		.ascii	"\"2bE\001&R\221\255\352gk\347\313<\372\313\236\263\""
 104      01265291 
 104      ADEA676B 
 104      E7CB3CFA 
 104      CB9EB322 
 105 017d E575D6A9 		.ascii	"\345u\326\251\356cT\366gB\177'\214\274\202b\2126\304"
 105      EE6354F6 
 105      67427F27 
 105      8CBC8262 
 105      8A36C4
ARM GAS  C:\Users\Thomas\AppData\Local\Temp\cc4WQuXD.s 			page 8


 106 0190 4A3B8563 		.ascii	"J;\205c5E\371\001E\277\366\206#3\001\277\000\032\236"
 106      3545F901 
 106      45BFF686 
 106      233301BF 
 106      001A9E
 107 01a3 2B1F4F8B 		.ascii	"+\037O\213\271\201L\016\305\205\333\235\315\035\365"
 107      B9814C0E 
 107      C585DB9D 
 107      CD1DF5
 108 01b2 4E7985E3 		.ascii	"Ny\205\343\303\336\340\261\376\374Ha\300\313\365\365"
 108      C3DEE0B1 
 108      FEFC4861 
 108      C0CBF5F5 
 109 01c2 E78F1CCA 		.ascii	"\347\217\034\312\365\035\310\016\220;tb(\337;\350\026"
 109      F51DC80E 
 109      903B7462 
 109      28DF3BE8 
 109      16
 110 01d3 BC332327 		.ascii	"\2743#'\207\377\000L\022\265z"
 110      87FF004C 
 110      12B57A
 111              		.text
 112              		.section	.gnu.lto_P1_Init.bdb9f688,"",%progbits
 113 0000 789C8D91 		.ascii	"x\234\215\221\301K\024q\024\307\337\367\375\306aCB\351"
 113      C14B1471 
 113      14C7DFF7 
 113      FDC66143 
 113      42E9
 114 0012 247308C2 		.ascii	"$s\010\302\203\010\"\025\364\007D\007\351\266\340u+"
 114      83082215 
 114      F4074407 
 114      E9B6E075 
 114      2B
 115 0023 C2E6E045 		.ascii	"\302\346\340EeY\317\316\270*\271\2274$BY(\260\324,-"
 115      6559CFCE 
 115      B82AB997 
 115      34244259 
 115      28B0D42C 
 116 0038 353A2983 		.ascii	"5:)\203A\345E\261\203A\207Vp\003\275\210\242\224\013"
 116      41E545B1 
 116      83418756 
 116      7003BD88 
 116      A2940B
 117 004b E5F8DEFE 		.ascii	"\345\370\336\376\366\242\20140\357\367\233\371}\337"
 117      F6A28134 
 117      30EFF79B 
 117      F97DDF
 118 005a F77DDEEF 		.ascii	"\367}\336\357\031\372\367\361\344\275\311DWe\205!\360"
 118      19FAF7F1 
 118      E4BDC944 
 118      57658521 
 118      F0
 119 006b D02A5198 		.ascii	"\320*Q\230`@7\004\352a\364`\207\367\031C\321\364\323"
 119      60403704 
 119      EA61F460 
 119      87F71943 
 119      D1F4D3
ARM GAS  C:\Users\Thomas\AppData\Local\Temp\cc4WQuXD.s 			page 9


 120 007e EA861741 		.ascii	"\352\206\027A\020\354}\375P\327_W\222\264\003\2666\230"
 120      10EC7DFD 
 120      50D75F57 
 120      92B403B6 
 120      3698
 121 0090 40038966 		.ascii	"@\003\211f\277\357\357\267j\267O4\265\366\014\223p!"
 121      BFEFEFB7 
 121      6AB74F34 
 121      B5F60C93 
 121      7021
 122 00a2 EBECA528 		.ascii	"\353\354\245(\210\343\371\302\360\303\353H\030*1\034"
 122      88E3F9C2 
 122      F0C3EB48 
 122      182A311C 
 123 00b2 0D551A5C 		.ascii	"\015U\032\\\015DE\321k\321\237\314\272\232\015\364\326"
 123      0D4445D1 
 123      6BD19FCC 
 123      BA9A0DF4 
 123      D6
 124 00c3 AA676E29 		.ascii	"\252gn)7s\301\\\201\3567\012\343\003\246\376y\020\364"
 124      3773C15C 
 124      81EE370A 
 124      E303A6FE 
 124      7910F4
 125 00d6 6E2E7EBC 		.ascii	"n.~\274\023\205\317\202\3438F\211\031S0R\020M\036\032"
 125      1385CF82 
 125      E3384689 
 125      19533052 
 125      104D1E1A 
 126 00ea BD4A6F78 		.ascii	"\275Jox\205z\311Y\037}\231\255\331f\025\021\246\341"
 126      857AC959 
 126      1F7D99AD 
 126      D9661511 
 126      A6E1
 127 00fc D1772CFF 		.ascii	"\321w,\377\312\035\177\271{\2127\212?\261&\224\211\017"
 127      CA1D7FB9 
 127      7B8A378A 
 127      3FB12694 
 127      890F
 128 010e 1867BBC1 		.ascii	"\030g\273\301k\341$\274\201\373\233\215\234\205\013"
 128      6BE124BC 
 128      81FB9B8D 
 128      9C850B
 129 011d 8F565C75 		.ascii	"\217V\\u5\203+a\340\250\274P\\[O\224\177\221~>\331\033"
 129      35832B61 
 129      E0A8BC50 
 129      5C5B4F94 
 129      7F917E3E 
 130 0133 9FB898C7 		.ascii	"\237\270\230\307X8\022&J\354`\006\036f\245<\341-\362"
 130      58381226 
 130      4AEC6006 
 130      1E66A53C 
 130      E12DF2
 131 0146 108AECD1 		.ascii	"\020\212\354\321\200PXK\307\272\356n\375\311\226-\234"
 131      8050584B 
 131      C7BAEE6E 
 131      FDC9962D 
ARM GAS  C:\Users\Thomas\AppData\Local\Temp\cc4WQuXD.s 			page 10


 131      9C
 132 0157 23817D67 		.ascii	"#\201}ga\037C5\347:\316\211\243\230\330\326\226o[\317"
 132      611F4335 
 132      E73ACE89 
 132      A398D8D6 
 132      966F5BCF 
 133 016b AA7353E6 		.ascii	"\252sS\346+\020\207\256UW\022>\347\267\347\034%\200"
 133      2B1087AE 
 133      5557123E 
 133      E7B7E71C 
 133      2580
 134 017d 002CFC37 		.ascii	"\000,\3747\300\3732\200K?\020F\303-z\207:\201\242\334"
 134      C0FB3280 
 134      4B3F1046 
 134      C32D7A87 
 134      3A81A2DC 
 135 0191 A38C5206 		.ascii	"\243\214R\006{\2719\325\342w\370\351\373\031\377\301"
 135      7BB939D5 
 135      E277F8E9 
 135      FB19FFC1 
 136 01a1 BDD6CEEE 		.ascii	"\275\326\316\356t\233\237J\266v\336\272\221J^kn\243"
 136      749B9F4A 
 136      B676DEBA 
 136      914A5E6B 
 136      6EA3
 137 01b3 9AF68E8C 		.ascii	"\232\366\216\214\237Nwwe\354\331\011.\262\327\363"
 137      9F4E7777 
 137      65ECD909 
 137      2EB2D7F3 
 138              		.text
 139              		.section	.gnu.lto_P1_EnableInt.bdb9f688,"",%progbits
 140 0000 789C7D90 		.ascii	"x\234}\220\315K\033Q\024\305\357\271\223\214\003\021"
 140      CD4B1B51 
 140      14C5EFB9 
 140      938C0311 
 141 0010 111745B2 		.ascii	"\021\027E\262h\221,\202P,.\374\013\272\020\\\011\331"
 141      68912C82 
 141      502C2EFC 
 141      0BBA105C 
 141      09D9
 142 0022 864AD159 		.ascii	"\206J\321Y\270\211\022\342R|\251#\024\027\"AJD\"\330"
 142      B88912E2 
 142      527CA923 
 142      14172241 
 142      4A4422D8 
 143 0036 52D45A4D 		.ascii	"R\324ZMK\013]\224\302\340B\374\242\"\205\212\"V\212"
 143      4B0B5D94 
 143      C2E042FC 
 143      A222858A 
 143      22568A
 144 0049 D166A7A6 		.ascii	"\321f\247\246\250\223\"\361\276\214+\205\016\274y\037"
 144      A89322F1 
 144      BE8C2B85 
 144      0EBC791F 
 145 0059 9CF3BBE7 		.ascii	"\234\363\273\347^\203\356\177aY\273 z\";\014\002\217"
 145      5E83EE7F 
 145      6159BB20 
ARM GAS  C:\Users\Thomas\AppData\Local\Temp\cc4WQuXD.s 			page 11


 145      7A223B0C 
 145      028F
 146 006b 7F274A5B 		.ascii	"\177'J[\014\350\003\201\206\030C(\362\031c\334]\310"
 146      0CE80381 
 146      86184328 
 146      F21963DC 
 146      5DC8
 147 007d 86A26F95 		.ascii	"\206\242o\225R\247\347\333\215#\215\036\023\225\330"
 147      52A7E7DB 
 147      8D238D1E 
 147      1395D8
 148 008c C7601651 		.ascii	"\307`\026Q\022\315N\261\274\0274\232\240\317\205\265"
 148      12CD4EB1 
 148      BC17349A 
 148      A0CF85B5 
 149 009c CF134664 		.ascii	"\317\023FdF\251\027\207\223\205\225\220\312*\347\260"
 149      46A91787 
 149      93859590 
 149      CA2AE7B0 
 150 00ac 5279E409 		.ascii	"Ry\344\011{\016\2068\3618\214\346\360m\0201\2349\327"
 150      7B0E8638 
 150      F1388CE6 
 150      F06D1031 
 150      9C39D7
 151 00bf 3B21D391 		.ascii	";!\323\221\002\365\230G\304\207\343\035L\311\007\375"
 151      02F59847 
 151      C487E31D 
 151      4CC907FD 
 152 00cf 926F7055 		.ascii	"\222opU\245\362i3\263\032eK\302\312S\200<\346\240\376"
 152      A5F26933 
 152      B31A654B 
 152      C2CA5380 
 152      3CE6A0FE 
 153 00e3 111DC9D2 		.ascii	"\021\035\311\322\251\013r\221\335\330\307\260\373e\364"
 153      A90B7291 
 153      DDD8C7B0 
 153      FB65F4
 154 00f2 81265CB2 		.ascii	"\201&\\\262!\005\246\177\214-\361\340?\365RY\036K\002"
 154      2105A67F 
 154      8C2DF1E0 
 154      3FF55259 
 154      1E4B02
 155 0105 CD5DC0A0 		.ascii	"\315]\300\240\270\003\364\023\\-%L\021\323\036\226/"
 155      B803F413 
 155      5C2D254C 
 155      11D31E96 
 155      2F
 156 0116 468FE79F 		.ascii	"F\217\347\237\371\346\200\230_\237\274)[\177\330\343"
 156      F9E68098 
 156      5F9FBC29 
 156      5B7FD8E3 
 157 0126 E0E45A5A 		.ascii	"\340\344ZZ\005t\340_G[\333\376S5\377\326\306\356+3\207"
 157      0574E05F 
 157      475BDBFE 
 157      5335FFD6 
 157      C6EE2B33 
 158 013b A9B4038F 		.ascii	"\251\264\003\217M\274G\030\213\220\376\260\204\034\204"
ARM GAS  C:\Users\Thomas\AppData\Local\Temp\cc4WQuXD.s 			page 12


 158      4DBC4718 
 158      8B90FEB0 
 158      841C84
 159 014a 38FCD7F4 		.ascii	"8\374\327\364qA\237\270\361\373\252T\253\355\\O\310"
 159      71419FB8 
 159      F1FBAA54 
 159      ABED5C4F 
 159      C8
 160 015b 8B528A66 		.ascii	"\213R\212f\240%\377\203}\020\230 h\037\216\373u\275"
 160      A025FF83 
 160      7D109820 
 160      681F8EFB 
 160      75BD
 161 016d 1A9AEEF6 		.ascii	"\032\232\356\366VS\322\363\300G\351M\232\361\330\242"
 161      5653D2F3 
 161      C047E94D 
 161      9AF1D8A2 
 162 017d 03A4DD6F 		.ascii	"\003\244\335o\035U1\351IAOH4\017[\342\355v\302N>O\331"
 162      1D5531E9 
 162      49414F48 
 162      340F5BE2 
 162      ED76C24E 
 163 0194 3D5DB1BE 		.ascii	"=]\261\276\201d\267\035\357\214\365=m\213w\266\266t"
 163      8164B71D 
 163      EF8CF53D 
 163      6D8B77B6 
 163      B674
 164 01a6 535D6F22 		.ascii	"S]o\"e'\223\003\375\251XJ$7l\252\264\263"
 164      65279303 
 164      FDA9584A 
 164      24376CAA 
 164      B4B3
 165              		.text
 166              		.section	.gnu.lto_P1_Enable.bdb9f688,"",%progbits
 167 0000 789C7D8F 		.ascii	"x\234}\217\277KBQ\024\307\317\367<{\010\022D\2238D\233"
 167      BF4B4251 
 167      14C7CFF7 
 167      3C7B0812 
 167      44933844 
 168 0015 9BD0D05F 		.ascii	"\233\320\320_\020\324\230 4\011\021\366\326\004\251"
 168      10D49820 
 168      340911F6 
 168      D604A9
 169 0024 51BC0F0D 		.ascii	"Q\274\017\015$(,\010\254\260\315~YF5D\333\243!\233\214"
 169      24282C08 
 169      ACB0CD7E 
 169      59463544 
 169      DBA3219B 
 170 0039 6A08446A 		.ascii	"j\010Dj1\260-1\212G\204\235\353\033\203.\334{\356\217"
 170      31B02D31 
 170      8A47849D 
 170      EB1B832E 
 170      DC7BEE8F 
 171 004d EFF97CEF 		.ascii	"\357\371|\357\327\240\277#$s\032D\243Ra\020\270P'\262"
 171      D7A0BF23 
 171      24731A44 
 171      A3526110 
ARM GAS  C:\Users\Thomas\AppData\Local\Temp\cc4WQuXD.s 			page 13


 171      B85027B2 
 172 0061 FD0CE80D 		.ascii	"\375\014\350\015\2012\214\014\336\270\303(8\225b \\"
 172      81328C0C 
 172      DEB8C328 
 172      38956220 
 172      5C
 173 0072 564ABD3F 		.ascii	"VJ\275?\234\005\227\203.\023u\331\303`\037a\022M'\367"
 173      9C059783 
 173      2E1375D9 
 173      C3601F61 
 173      124D27F7 
 174 0086 F3143073 		.ascii	"\363\0240s\242\031\362\336p\000S\360t:\354\250^\357"
 174      A219F2DE 
 174      700053F0 
 174      743AECA8 
 174      5EEF
 175 0098 A2B69E0F 		.ascii	"\242\266\236\017\303drY\314d!j\211J[\2752\353j4p\375"
 175      C3647259 
 175      CC64216A 
 175      894A5BBD 
 175      32EB6A34 
 176 00ae B952DF9A 		.ascii	"\271R\337\232\321\215_\254}\267;\345\275\3016\273\314"
 176      D18D5FAC 
 176      7DB73BE5 
 176      BDC136BB 
 176      CC
 177 00bf EEADAD7C 		.ascii	"\356\255\255|\332\346\245uw\357\357_\221>6\213\233\253"
 177      DAE6A575 
 177      77EFEF5F 
 177      913E368B 
 177      9BAB
 178 00d1 5CC28E9D 		.ascii	"\\\302\216\235\203\313\006\016\021\302\021$\031*(\201"
 178      83CB060E 
 178      11C21124 
 178      192A2881 
 179 00e1 1AC87E98 		.ascii	"\032\310~\230\036\316\360\210\265R\373\334\247\333\001"
 179      1ECEF088 
 179      B552FBDC 
 179      A7DB01
 180 00f0 C2B128C5 		.ascii	"\302\261(\305t\003Z\362\037\354D`\202\240&\262\316\345"
 180      74035AF2 
 180      1FEC4460 
 180      82A026B2 
 180      CEE5
 181 0102 0D6BB936 		.ascii	"\015k\2716\337}\\\253r\372[\345\225\337e_WgB\025iI7"
 181      DF7D5CAB 
 181      72FA5BE5 
 181      95DF655F 
 181      57674215 
 182 0119 40CFB09D 		.ascii	"@\317\260\235\253\311\276\222tT\350\210\362\347\221"
 182      ABC9BE92 
 182      7454E888 
 182      F2E791
 183 0128 487CCA5A 		.ascii	"H|\312Z\260Rs\213\326\374l,\271\224JX\361h,91\036\217"
 183      B052738B 
 183      D6FC6C2C 
 183      B9944A58 
ARM GAS  C:\Users\Thomas\AppData\Local\Temp\cc4WQuXD.s 			page 14


 183      F1682C39 
 184 013f 8E4512F4 		.ascii	"\216E\022\364\013m\260~\201"
 184      0B6DB07E 
 184      81
 185              		.text
 186              		.section	.gnu.lto_P1_Start.bdb9f688,"",%progbits
 187 0000 789C8D53 		.ascii	"x\234\215S\337KTA\024>gf\366\207\273\211\022\364\262"
 187      DF4B5441 
 187      143E6766 
 187      F687BB89 
 187      12F4B2
 188 0013 81143E48 		.ascii	"\201\024>H ZD\177A\017\321\233 \364dE\330>\364\242\261"
 188      205A447F 
 188      410FD19B 
 188      20F46445 
 188      D83EF4A2 
 189 0028 E8A33877 		.ascii	"\350\2438ww\221\222(\221\220\262\214\002\177\225\265"
 189      77919228 
 189      9190B28C 
 189      027F95B5 
 190 0038 9A5A56FE 		.ascii	"\232ZV\376\272\032\224\022\031\222\251\211d\220\201"
 190      BA1A9412 
 190      1992A989 
 190      649081
 191 0047 BD848B51 		.ascii	"\275\204\213Q.\245\3339s7s\025\243\013{\346\336\231"
 191      2EA5DB39 
 191      73377315 
 191      A30B7BE6 
 191      DE99
 192 0059 33DFF9BE 		.ascii	"3\337\371\276\357\234\225\260\3759L\277}\012\340 \255"
 192      EF9C95B0 
 192      FD394CBF 
 192      7D0AE020 
 192      AD
 193 006a E8021475 		.ascii	"\350\002\024u\023\000\226W\0109U\010\332\247\006r@\357"
 193      13009657 
 193      08395508 
 193      DAA70672 
 193      40EF
 194 007c 92A89C6D 		.ascii	"\222\250\234m\205\310/\200P-\244\302j\374\"\342\002"
 194      85C82F80 
 194      502DA4C2 
 194      6AFC22E2 
 194      02
 195 008d EBEC8E6B 		.ascii	"\353\354\216k\376\274\026\255\365r\367+\253\310\306"
 195      FEBC16AD 
 195      F572F72B 
 195      ABC8C6
 196 009c 84005811 		.ascii	"\204\000X\021N\001l\303<\240\244xtm\306\357\216RR\266"
 196      4E016CC3 
 196      3CA0A478 
 196      746DC6EF 
 196      8E5252B6 
 197 00b0 7386EDE8 		.ascii	"s\206\355\350FZ;w\333:\231\354\211\215\314b\226\204"
 197      465A3B77 
 197      DB3A99EC 
 197      898DCC62 
ARM GAS  C:\Users\Thomas\AppData\Local\Temp\cc4WQuXD.s 			page 15


 197      9684
 198 00c2 8440C5C1 		.ascii	"\204@\305\301\303\301\313!\203\203\217\203\237\003\300"
 198      C3C1CB21 
 198      83838F83 
 198      9F03C0
 199 00d1 22DD6616 		.ascii	"\"\335f\026\237\205\340U\316a\270>\036\333\313x?\204"
 199      9F85E055 
 199      CE61B83E 
 199      1EDBCB78 
 199      3F84
 200 00e3 A452B7DE 		.ascii	"\244R\267\336^\216\211\252\237\372\202\366&\204X\343"
 200      5E8E89AA 
 200      9FFA82F6 
 200      268458E3 
 201 00f3 62B4BBB0 		.ascii	"b\264\273\260\370f\322\273$h\307|\266[\321\233\330\204"
 201      F866D2BB 
 201      2468C77C 
 201      B65BD19B 
 201      D884
 202 0105 372CCD59 		.ascii	"7,\315Y\022\357b\025\336\303\000\361\352\240mx\207\321"
 202      12EF6215 
 202      DEC300F1 
 202      EAA06D78 
 202      87D1
 203 0117 D948CE5F 		.ascii	"\331H\316_L\253\265\377\222\207o\023\001\274\317y\300"
 203      4CABB5FF 
 203      92876F13 
 203      01BCCF79 
 203      C0
 204 0128 0C244C15 		.ascii	"\014$L\025\312i\014g3d\355Pm,C\356G~\237^h\256\221\271"
 204      CA690C67 
 204      3364ED50 
 204      6D2C43EE 
 204      477E9F5E 
 205 0140 77B40E7F 		.ascii	"w\264\016\177\034|~\322\266n\353\365d\022\271\320\003"
 205      1C7C7ED2 
 205      B66EEBF5 
 205      6412B9D0 
 205      03
 206 0151 94A41FF3 		.ascii	"\224\244\037\363\003x \220j\002\3060\227\356L6\266F"
 206      03782090 
 206      6A02C630 
 206      97EE4C36 
 206      B646
 207 0163 B2B88644 		.ascii	"\262\270\206D\300N\2521\207\243\337k\327\307N\245\331"
 207      C04EAA31 
 207      87A3DF6B 
 207      D7C74EA5 
 207      D9
 208 0174 670F078D 		.ascii	"g\017\007\215w+\002\323}\265\223/\004#\001v\361\251"
 208      772B02D3 
 208      7DB5932F 
 208      04230176 
 208      F1A9
 209 0186 D8EA3A3E 		.ascii	"\330\352:>D7\325\352fI\036\226\324{e\334\315\345\324"
 209      4437D5EA 
 209      66491E96 
ARM GAS  C:\Users\Thomas\AppData\Local\Temp\cc4WQuXD.s 			page 16


 209      D47B65DC 
 209      CDE5D4
 210 0199 C5714BAB 		.ascii	"\305qK\2534\217\224\361\250a\271\271-\223=\272j\221"
 210      348F94F1 
 210      A861B9B9 
 210      2D933DBA 
 210      6A91
 211 01ab 472EECC1 		.ascii	"G.\354\301\000\366\032\217\036\261Gs\030Y\255!z\016"
 211      00F61A8F 
 211      1EB14773 
 211      1859AD21 
 211      7A0E
 212 01bd A4D741FD 		.ascii	"\244\327A\375\372\351W\304@\270VI\305cGE=r\316?\021"
 212      FAE957C4 
 212      40B85649 
 212      C5634745 
 212      3D72CE3F 
 213 01d2 FB089140 		.ascii	"\373\010\221@\034\315\243\307\035\314\214\177^y\222"
 213      1CCDA3C7 
 213      1DCC8C7F 
 213      5E7992
 214 01e1 22F1CDED 		.ascii	"\"\361\315\355d\373\234\013/\233\226\272\225i\025\021"
 214      64FB9C0B 
 214      2F9B96BA 
 214      95691511 
 215 01f1 78FADF04 		.ascii	"x\372\337\004\236\031\002>\312\016/w\365\346\263\305"
 215      9E19023E 
 215      CA0E2F77 
 215      F5E6B3C5 
 216 0201 3BCED2D6 		.ascii	";\316\322\326\341\351\337\030\236\001\3326\275\343\351"
 216      E1E9DF18 
 216      9E01DA36 
 216      BDE3E9
 217 0210 50A9F924 		.ascii	"P\251\371$E\023\327O\2447kfO\252\213r[\237\006M\237"
 217      4513D74F 
 217      A4376B66 
 217      4FAA8B72 
 217      5B9F064D 
 218 0225 865892A2 		.ascii	"\206X\222\242\263\306xKk\246iJb,\325\247\266\206\327"
 218      B3C6784B 
 218      6BA6694A 
 218      622CD5A7 
 218      B686D7
 219 0238 F3AE4D2A 		.ascii	"\363\256M*\2067T\330\177<\251\241\212\016\206\237`6"
 219      863754D8 
 219      7F3CA9A1 
 219      8A0E869F 
 219      6036
 220 024a F9306474 		.ascii	"\3710dt\355\2140b|\360\303<F\354>\232(\312\207\255F"
 220      ED8C3062 
 220      7CF0C33C 
 220      46EC3E9A 
 220      28CA87AD 
 221 025f 106D6568 		.ascii	"\020meh\342(V\321\277\322\003\037\320\262\337\273X\021"
 221      E22856D1 
 221      BFD2031F 
 221      D0B2DFBB 
ARM GAS  C:\Users\Thomas\AppData\Local\Temp\cc4WQuXD.s 			page 17


 221      5811
 222 0271 0FF422CD 		.ascii	"\017\364\"\315&I'\267r\012J\216\005\313\202\2413\025"
 222      264927B7 
 222      720A4A8E 
 222      05CB82A1 
 222      3315
 223 0283 C1B3A78B 		.ascii	"\301\263\247\213\313+C\245\301\222\242\342\362\243G"
 223      CB2B43A5 
 223      C192A2E2 
 223      F2A347
 224 0292 4A8A0E15 		.ascii	"J\212\016\025\224B\326\271\262\212`(Ty\276\3029\373"
 224      9442D6B9 
 224      B28A6028 
 224      5479BEC2 
 224      39FB
 225 02a4 0D2F6B82 		.ascii	"\015/k\202\340"
 225      E0
 226              		.text
 227              		.section	.gnu.lto_P1_DisableInt.bdb9f688,"",%progbits
 228 0000 789C7D90 		.ascii	"x\234}\220\313K\033Q\024\306\317w&\031\007\002\".\212"
 228      CB4B1B51 
 228      14C6CF77 
 228      26190702 
 228      222E8A
 229 0013 64A1880B 		.ascii	"d\241\210\013)\024K\021\377\202.\\\270\021\262\015\212"
 229      29144B11 
 229      FF822E5C 
 229      B811B20D 
 229      8A
 230 0024 E82CBA51 		.ascii	"\350,\272Q\011q)\336\350\010\242PDD#\022AE|kE\377\200"
 230      097129DE 
 230      E808A250 
 230      44442312 
 230      41457C6B 
 231 003b C1853408 		.ascii	"\301\2054\010J\021\014\212X\027I}l|\201\355X$\236\233"
 231      4A110C8A 
 231      5817497D 
 231      6C7C81ED 
 231      58249E9B 
 232 004f 71A5E0C0 		.ascii	"q\245\340\300\235\373\340\373~\347;\307\240\267_X\326"
 232      9DFBE0FB 
 232      7EE73BC7 
 232      A0B75F58 
 232      D6
 233 0060 31883ECB 		.ascii	"1\210>\313\016\203\300\303{D\011\213\001} P\017\243"
 233      0E83C0C3 
 233      7B44098B 
 233      017D2050 
 233      0FA3
 234 0072 07977CCB 		.ascii	"\007\227|\313\030v\227\223\241\3529\245\324\315]\246"
 234      18769793 
 234      A1EA39A5 
 234      D4CD5DA6 
 235 0082 ACBFCC63 		.ascii	"\254\277\314c\242{\3661\230G5\211&s\371x\0344*\241\317"
 235      A27BF631 
 235      98473589 
 235      2673F978 
ARM GAS  C:\Users\Thomas\AppData\Local\Temp\cc4WQuXD.s 			page 18


 235      1C342AA1 
 236 0097 B9F4D6A8 		.ascii	"\271\364\326\250Q5\255T\357Y:\267\023RI\345\234\345"
 236      5135AD54 
 236      EF593AB7 
 236      135249E5 
 236      9CE5
 237 00a9 F3159EB0 		.ascii	"\363\025\236\260\027`\210\023\237\302\370\030~\011\""
 237      17608813 
 237      9FC2F818 
 237      7E0922
 238 00b8 865BE729 		.ascii	"\206[\347)\0232\035)P\202ET\371p,\301\224|\320/\353"
 238      13321D29 
 238      50824554 
 238      F9702CC1 
 238      947CD02F 
 239 00cd A5AECAE7 		.ascii	"\245\256\312\3477\263#?k\331\222\260\362\024 \2179\250"
 239      37B3233F 
 239      6BD992B0 
 239      F214208F 
 239      39A8
 240 00df 7F445959 		.ascii	"\177DYY:uN.\262\033'\350s\307\207>h\302_6\244\300\324"
 240      3A754E2E 
 240      B21B27E8 
 240      73C7873E 
 240      68C25F36 
 241 00f6 C1F735EE 		.ascii	"\301\3675\356\376\257\006\224\345\261$\320\334et\213"
 241      FEAF0694 
 241      E5B124D0 
 241      DC65748B 
 242 0106 3B4087E0 		.ascii	";@\207\340B)a\212Xf\262\3750\370g\245\3117\007\304<"
 242      4229618A 
 242      5866B2FD 
 242      30F867A5 
 242      C93707C4 
 243 011b 733EFB68 		.ascii	"s>\373h]\260\307\301\211tB\005t\340\337\331\375_\376"
 243      5DB0C7C1 
 243      89744205 
 243      74E0DFD9 
 243      FD5FFE
 244 012e 5321FFFE 		.ascii	"S!\377\376\356\321\230\231\302d\302\201\307&V\020\306"
 244      EED19899 
 244      C264C281 
 244      C7265610 
 244      C6
 245 013f 2AA43FAC 		.ascii	"*\244?\254!\005!\366\3753}\\\320'.\356%\257\212\265"
 245      210521F6 
 245      FD337D5C 
 245      D0272EEE 
 245      25AF8AB5 
 246 0153 DDBC0661 		.ascii	"\335\274\006a]\244Ru\004Z\363\036\355\207\320\204A'"
 246      5DA45275 
 246      045AF31E 
 246      ED87D084 
 246      4127
 247 0165 70DCC9DD 		.ascii	"p\334\311\335Bjz\335\\\321\275\036\0106\2449\351\306"
 247      426A7ADD 
 247      5CD1BD1E 
ARM GAS  C:\Users\Thomas\AppData\Local\Temp\cc4WQuXD.s 			page 19


 247      0836A439 
 247      E9C6
 248 0177 638B4E91 		.ascii	"c\213N\221pS\015\0051\351QA\217H4\3455\321z\273\335"
 248      70530D05 
 248      31E95141 
 248      8F4834E5 
 248      35D17ABB 
 249 018c 8EB5C4ED 		.ascii	"\216\265\304\355\266\346HGW\254\325\2166F:\276\326E"
 249      B6E64847 
 249      57ACD58E 
 249      36463ABE 
 249      D645
 250 019e 1BBFD4B4 		.ascii	"\033\277\324\264R\361\267\366\270\035\213uu\306#q\221"
 250      52F1B7F6 
 250      B81D8B75 
 250      75C62371 
 250      91
 251 01af 3C03768C 		.ascii	"<\003v\214\264\377"
 251      B4FF
 252              		.text
 253              		.section	.gnu.lto_P1_Stop.bdb9f688,"",%progbits
 254 0000 789C7D8F 		.ascii	"x\234}\217?HBQ\024\306\317w\236=\004)\242I\034\242\315"
 254      3F484251 
 254      14C6CF77 
 254      9E3D0429 
 254      A2491CA2 
 255 0015 4D68686A 		.ascii	"Mhhjlp\025\204&!\302\336\232 5\212\367\241A\004\205"
 255      6C701584 
 255      2621C2DE 
 255      9A20358A 
 255      F7A14104 
 256 002a 0A8114BA 		.ascii	"\012\201\024\272\331?\313\206Z\203GKNE4\004f\265X\324"
 256      D93FCB86 
 256      5A83474B 
 256      4E453404 
 256      66B558D4 
 257 003e 96487F1E 		.ascii	"\226H\177\036Qvno\014\272p\357\271\177\276\363\373\356"
 257      51766E6F 
 257      0CBA70EF 
 257      B97FBEF3 
 257      FBEE
 258 0050 67D0DF11 		.ascii	"g\320\337\021\222\031\003\321\230T\030\004.\234\023"
 258      921903D1 
 258      98541804 
 258      2E9C13
 259 005f D97E06F4 		.ascii	"\331~\006\364\206@YF\026\317\334e\024\234z9\020\256"
 259      86405946 
 259      16CFDC65 
 259      149C7A39 
 259      10AE
 260 0071 29A55E4A 		.ascii	")\245^J'\301\245\240\313D=\3660\330F\230D\323\315\177"
 260      27C1A5A0 
 260      CB443DF6 
 260      30D84698 
 260      44D3CD7F 
 261 0085 5D07CCBC 		.ascii	"]\007\314\274h\206\2757\354\300\024<\035\2168\252\337"
 261      6886BD37 
ARM GAS  C:\Users\Thomas\AppData\Local\Temp\cc4WQuXD.s 			page 20


 261      ECC0143C 
 261      1D8E38AA 
 261      DF
 262 0096 3F7A2D36 		.ascii	"?z-6'a2\271,f\262\020uD\245\255\036\230u5Z8}[y\254N"
 262      276132B9 
 262      2C66B210 
 262      7544A5AD 
 262      1E987535 
 263 00b1 EBC677D6 		.ascii	"\353\306w\326\276\033\335\332\326\340\023\273\314n\323"
 263      BE1BDDDA 
 263      D6E013BB 
 263      CC6ED3
 264 00c0 563E6D73 		.ascii	"V>ms\337\271\270\364\377^\221>\266\313\353\253\\\301"
 264      DFB9B8F4 
 264      FF5E913E 
 264      B6CBEBAB 
 264      5CC1
 265 00d2 A69D87CB 		.ascii	"\246\235\207\313\006v\021\302\036$\031\352\250\200Z"
 265      067611C2 
 265      1E2419EA 
 265      A8805A
 266 00e1 C87D981E 		.ascii	"\310}\230\036\316\360\210\305\342quH\267\033\337 \354"
 266      CEF088C5 
 266      E2717548 
 266      B71BDF20 
 266      EC
 267 00f2 8B545C4B 		.ascii	"\213T\\K\320\232\377h\007B\023\006\265\221sn\316X\313"
 267      D09AFF68 
 267      07421306 
 267      B591736E 
 267      CE58CB
 268 0105 B57BF56A 		.ascii	"\265{\365j\255\301\231O\265\254\374.\373z:\024\032\310"
 268      ADC1994F 
 268      B5ACFC2E 
 268      FB7A3A14 
 268      1AC8
 269 0117 48BC01BA 		.ascii	"H\274\001\272\203\355\334F\177\225\244\263Bg\224O\217"
 269      83EDDC46 
 269      7F95A4B3 
 269      4267944F 
 269      8F
 270 0128 4612516B 		.ascii	"F\022Qk\336J\317.Xs3\361\324b:i%b\361\324\324D\"6\036"
 270      DE4ACF2E 
 270      587333F1 
 270      D4623A69 
 270      2562F1D4 
 271 0141 49D20F89 		.ascii	"I\322\017\211=\177\273"
 271      3D7FBB
 272              		.text
 273              		.section	.gnu.lto_P1_SetIntMode.bdb9f688,"",%progbits
 274 0000 789C8D51 		.ascii	"x\234\215Q=,CQ\024>\337\275\317\353\243\0031\321Ab\250"
 274      3D2C4351 
 274      143EDFBD 
 274      CFEBA303 
 274      31D14162 
 275 0015 4622C260 		.ascii	"F\"\302`\227\030\304&\254\015\021\336`Qij\366\236\326"
 275      9718C426 
ARM GAS  C:\Users\Thomas\AppData\Local\Temp\cc4WQuXD.s 			page 21


 275      AC0D11DE 
 275      6051696A 
 275      F69ED6
 276 0028 A08B9F18 		.ascii	"\240\213\237\030$\322I\304\177\375&\022\2034]\312B\030"
 276      24D249C4 
 276      7FFD2612 
 276      83345DCA 
 276      4218
 277 003a 480C0C2A 		.ascii	"H\014\014*\301 \204\250\212\277s\3373\221\210\227\334"
 277      C12084A8 
 277      8ABF73DF 
 277      33918897 
 277      DC
 278 004b 73CEBDEF 		.ascii	"s\316\275\357\3739\367\\I\277?\037/M\020\325q\206$\210"
 278      FB39F75C 
 278      49BF3F1F 
 278      2F4D10D5 
 278      71862488 
 279 005f B10322DB 		.ascii	"\261\003\"\333\020\200*\0104(0\210\033\361 0\226Z\232"
 279      10802A08 
 279      34283088 
 279      1BF12030 
 279      965A9A
 280 0072 F206662D 		.ascii	"\362\006f-\313\272?\036/\037.\3133\355Q\2702\230C\200"
 280      CBBA3F1E 
 280      2F1F2ECB 
 280      33ED51B8 
 280      32984380 
 281 0086 21F1DD78 		.ascii	"!\361\335x\262PV\202\270\236|\315\334J\377\214e\015"
 281      B2505682 
 281      B89E7CCD 
 281      DC4AFF8C 
 281      650D
 282 0098 A5769256 		.ascii	"\245v\222V#\362\2549\017\311\014\324\370P\355#> ,\300"
 282      23F2AC39 
 282      0FC90CD4 
 282      F850ED23 
 282      3E202CC0 
 283 00ac AFC00FB1 		.ascii	"\257\300\017\261\367S\257\036c\355\022W\023\213\320"
 283      F753AF1E 
 283      63ED1257 
 283      138BD0
 284 00bb C179B534 		.ascii	"\301y\2654e}~nf&\347\253\264\"\301\034!U(PA\207\242"
 284      657D7E6E 
 284      6626E7AB 
 284      B422C11C 
 284      21552850 
 285 00d2 7B5469A8 		.ascii	"{Ti\250@\224\345\245\372\276\342\015gy\206\364s\374"
 285      4094E5A5 
 285      FABEE20D 
 285      677986F4 
 285      73FC
 286 00e4 63AF43A9 		.ascii	"c\257C\251\345\204\272\204\2755\272\257_\213\274\220"
 286      E584BA84 
 286      BD35BAAF 
 286      5F8BBC90 
 287 00f4 23FBB6A5 		.ascii	"#\373\266\245)\357\213\354\341\221\341\034\221\332."
ARM GAS  C:\Users\Thomas\AppData\Local\Temp\cc4WQuXD.s 			page 22


 287      29EF8BEC 
 287      E191E11C 
 287      91DA2E
 288 0103 664FB6BD 		.ascii	"fO\266\275\011L\3331nY\303\022|X\006\217\011+H\200\316"
 288      094CDB31 
 288      6E59C312 
 288      7C58068F 
 288      092B4880 
 289 0118 107DD15D 		.ascii	"\020}\321]9\351*\336]\276E\035\272\366\302\367I2\224"
 289      39E92ADE 
 289      5DBE451D 
 289      BAF6C2F7 
 289      493294
 290 012b 5D27A030 		.ascii	"]'\2400\177\251\255\262\032k\220\323b\272\305\225,\370"
 290      7FA9ADB2 
 290      1A6B90D3 
 290      62BAC595 
 290      2CF8
 291 013d 8BB1F6C3 		.ascii	"\213\261\366\303\337\223\023\312!\367\226\031.v\374"
 291      DF9313CA 
 291      21F79619 
 291      2E76FC
 292 014c 3D8475C7 		.ascii	"=\204u\307>\372\364\0151X\222\201\377\353h\303\351\310"
 292      3EFAF40D 
 292      31589281 
 292      FFEB68C3 
 292      E9C8
 293 015e A073D8A9 		.ascii	"\240s\330\251\3156\205V/\233\345W\342Q\362`+j\203\315"
 293      CD368556 
 293      2F9BE557 
 293      E251F260 
 293      2B6A83CD 
 294 0172 669F19EE 		.ascii	"f\237\031\356\212\230=\235\355\241\201p\267\031lm\017"
 294      8A983D9D 
 294      EDA18170 
 294      B7196C6D 
 294      0F
 295 0183 3535045B 		.ascii	"55\004[\353k\273\251\270\267/b\206\303\003\375\021\367"
 295      EB6BBBA9 
 295      B8B72F62 
 295      86C303FD 
 295      11F7
 296 0195 DF17B584 		.ascii	"\337\027\265\204\276\001"
 296      BE01
 297              		.text
 298              		.section	.gnu.lto_P1_GetIntStatus.bdb9f688,"",%progbits
 299 0000 789C6366 		.ascii	"x\234cf\300\004R@\374\007\210\025\200\230\221\231\201"
 299      C0045240 
 299      FC078815 
 299      80989199 
 299      81
 300 0011 9169C239 		.ascii	"\221i\3029\006\206F\016&FF\020\203\201\221\241\236\211"
 300      0686460E 
 300      26464610 
 300      838191A1 
 300      9E89
 301 0023 B19EF125 		.ascii	"\261\236\361%\323G&\3063;\377]fT_\332\320\320\364a\321"
ARM GAS  C:\Users\Thomas\AppData\Local\Temp\cc4WQuXD.s 			page 23


 301      D34726C6 
 301      333BFF5D 
 301      66545FDA 
 301      D0D0F461 
 302 0038 F4BBDCAD 		.ascii	"\364\273\334\255\022?\231\030\030>310\352H1j\202\314"
 302      123F9918 
 302      183E3331 
 302      30EA4831 
 302      6A82CC
 303 004b 615CCEA8 		.ascii	"a\\\316\250\316\000T\370\261\345\357un\266\226\206\206"
 303      CE0054F8 
 303      B1E5EF75 
 303      6EB69686 
 303      86
 304 005c 0601903C 		.ascii	"\006\001\220<Pb\005#\033#\220^/t\240\341\377\377\317"
 304      50620523 
 304      1B23905E 
 304      2F74A0E1 
 304      FFFFCF
 305 006f 77A7ACD0 		.ascii	"w\247\254\320gaab\370\311\004\264\021d\010\303\023 "
 305      67616162 
 305      F8C904B4 
 305      116408C3 
 305      1320
 306 0081 01B2EF29 		.ascii	"\001\262\357)\023\023\210f\276\305x\350[\327\263\323"
 306      13138866 
 306      BEC578E8 
 306      5BD7B3D3 
 307 0091 16208DDF 		.ascii	"\026 \215\337\231@\226\237\333?\347>\347\013\246\237"
 307      9940969F 
 307      DB3FE73E 
 307      E70BA69F 
 308 00a1 4C4C2F4F 		.ascii	"LL/O46\260\200\254\271\377\344\374E\016\260\020\003"
 308      3436B080 
 308      ACB9FFE4 
 308      FC450EB0 
 308      1003
 309 00b3 883B63E2 		.ascii	"\210;c\342\224\036\226\271\214\263\033[\030\177213\256"
 309      941E96B9 
 309      8CB31B5B 
 309      187F3231 
 309      33AE
 310 00c5 6494625C 		.ascii	"d\224b\\\305\010t\026\343j\306\271\214\014\267\030\233"
 310      C5087416 
 310      E36AC6B9 
 310      8C0CB718 
 310      9B
 311 00d6 7FB4E940 		.ascii	"\177\264\351@\314c\206\030\371\375\317\361V~\220~\006"
 311      CC638618 
 311      F9FDCFF1 
 311      567E907E 
 311      06
 312 00e7 7606C635 		.ascii	"v\006\3065@\245\367\030\031\241\012\300Nb\0049\005h"
 312      40A5F718 
 312      19A10AC0 
 312      4E620439 
 312      0568
ARM GAS  C:\Users\Thomas\AppData\Local\Temp\cc4WQuXD.s 			page 24


 313 00f9 B69C5E8C 		.ascii	"\266\234^\214{j^jQbIjJ|p~iQrjL@p\276\263iL\200\241^"
 313      7B6A5E6A 
 313      5162496A 
 313      4A7C707E 
 313      6951726A 
 314 0117 320300A0 		.ascii	"2\003\000\240\317d\236"
 314      CF649E
 315              		.text
 316              		.section	.gnu.lto_P1_WriteRegValue.bdb9f688,"",%progbits
 317 0000 789C654F 		.ascii	"x\234eO=HBQ\030\375\316}Oya\2034\225C\320 B\203\320"
 317      3D484251 
 317      18FDCE7D 
 317      4F796183 
 317      349543D0 
 318 0018 D0D21414 		.ascii	"\320\322\024\024\264\0126\012!\366\242\226\004\263\331"
 318      B40A360A 
 318      21F6A296 
 318      04B3D9
 319 0027 FBC2A8C1 		.ascii	"\373\302\250\301\301!\"\022\247\350W\313 Z\343Q\010"
 319      C1212212 
 319      A7E857CB 
 319      205AE351 
 319      08
 320 0038 42501494 		.ascii	"BP\024\224\330P \012\005\015\211\2029\204}7\307.\\\276"
 320      D850200A 
 320      050D8982 
 320      39847D37 
 320      C72E5CBE 
 321 004c EF1CCE3D 		.ascii	"\357\034\316=\347\\\215\376\037\017_\037\210FyB#\210"
 321      E75C8DFE 
 321      1F0F5F1F 
 321      88467942 
 321      2388
 322 005e F41D9165 		.ascii	"\364\035\221e\010@-\004J\010$\360!\032\002i;\267\343"
 322      08402D04 
 322      4A0824F0 
 322      211A0269 
 322      3BB7E3
 323 0071 F2ED4B29 		.ascii	"\362\355K)\277\252\231\241\365\301\216 j\212\236\015"
 323      BFAA99A1 
 323      F5C18E20 
 323      6A8A9E0D 
 324 0081 0EE163C9 		.ascii	"\016\341c\311M\373s\303\241\215\200x\277\255~7\373\337"
 324      4DFB73C3 
 324      A18D8078 
 324      BFAD7E37 
 324      FBDF
 325 0093 4547C0AD 		.ascii	"EG\300\255\340n\271\336\322\024\024B\301J\3451ex\367"
 325      E06EB9DE 
 325      D2141442 
 325      C14AE531 
 325      6578F7
 326 00a6 A45CB3AF 		.ascii	"\244\\\263\257\316\345$\363\032\216\240\261\037\216"
 326      CEE524F3 
 326      1A8EA0B1 
 326      1F8E
 327 00b4 E1C1093C 		.ascii	"\341\301\011<\304\024!\007\257\2227\222?e\2273\311\331"
ARM GAS  C:\Users\Thomas\AppData\Local\Temp\cc4WQuXD.s 			page 25


 327      C4142107 
 327      AF923792 
 327      3F659733 
 327      C9D9
 328 00c6 EE5E26F2 		.ascii	"\356^&\362prm*\014\330\262\333\275hm\225&t\235[+=\325"
 328      70726D2A 
 328      0CD8B2DB 
 328      BD686D95 
 328      26749D5B 
 329 00dd 58A1EAD7 		.ascii	"X\241\352\3279\213\247\366\202\353\355FkV\275a\257b"
 329      398BA7F6 
 329      82EBED46 
 329      6B56BD61 
 329      AF62
 330 00ef F1392554 		.ascii	"\3619%T\023}\263dI]\331\277\325\356\037\214?\212\024"
 330      137DB364 
 330      495DD9BF 
 330      D5EE1F8C 
 330      3F8A14
 331 0102 3CB82CE6 		.ascii	"<\270,\346\035Yd\254$:\302\201S.t\306\205\010\005d\321"
 331      1D5964AC 
 331      243AC281 
 331      532E74C6 
 331      85080564 
 332 0117 66D35758 		.ascii	"f\323WX\366SP\371\251\317\327\004T\014\207\016\373C"
 332      F65350F9 
 332      A9CFD704 
 332      540C870E 
 332      FB43
 333 0129 33E6B219 		.ascii	"3\346\262\031\013\307\315\371\271`t5\0261C\201`tj<\024"
 333      0BC7CDF9 
 333      B9607435 
 333      16314381 
 333      60746A3C 
 334 013e 18F347A8 		.ascii	"\030\363G\250oeqi!>\035\216\207\177\001'sy\016"
 334      6F657169 
 334      213E1D8E 
 334      877F0127 
 334      73790E
 335              		.text
 336              		.section	.gnu.lto_P1_ReadRegValue.bdb9f688,"",%progbits
 337 0000 789C6D52 		.ascii	"x\234mR]HTA\024>g\346\336\273\353\252\233\364\270\017"
 337      5D485441 
 337      143E67E6 
 337      DEBBEBAA 
 337      9BF4B80F 
 338 0014 49186810 		.ascii	"I\030h\020\033\005\275\324K\020\021\275\011\276\012"
 338      1B05BDD4 
 338      4B1011BD 
 338      09BE0A
 339 0023 21BA4210 		.ascii	"!\272B\020\011\376<\212\263\353\205$\263M\0223C\253"
 339      09FE3C8A 
 339      B3EB8524 
 339      B34D1233 
 339      43AB
 340 0035 07FF32B5 		.ascii	"\007\3772\265\3224]\203\325\"\205L\021\377J\026\333"
 340      D2345D83 
ARM GAS  C:\Users\Thomas\AppData\Local\Temp\cc4WQuXD.s 			page 26


 340      D522854C 
 340      11FF4A16 
 340      DB
 341 0046 C485F421 		.ascii	"\304\205\364!\262-\267Ej;3\327\2056\273\260{g\346~\347"
 341      B22DB745 
 341      6A3B33D7 
 341      8536BBB0 
 341      7B67E67E 
 342 005b 9BF37DDF 		.ascii	"\233\363}\337\341\260\3779O\277\012\016\340\2467\032"
 342      E1B0FF39 
 342      4FBF0A0E 
 342      E0A6371A 
 343 006b 80ECD62C 		.ascii	"\200\354\326,\200\327\316P\263\026\334ZL\3305\306oL"
 343      80D7CE50 
 343      B316DC5A 
 343      4CD835C6 
 343      6F4C
 344 007d 0108876E 		.ascii	"\001\010\207n\332@d\350\210\362\034\020j\030\327t\254"
 344      DA4064E8 
 344      88F21C10 
 344      6A18D774 
 344      AC
 345 008e 619A45B8 		.ascii	"a\232E\270\311\266\031\276]\377\031\315\370\314\342"
 345      C9B619BE 
 345      5DFF19CD 
 345      F8CCE2
 346 009d 0CB280B6 		.ascii	"\014\262\200\266\255+\221\357\\n\221\311m :\273n\344"
 346      AD2B91EF 
 346      5C6E91C9 
 346      6D203ABB 
 346      6EE4
 347 00af 7608E1FB 		.ascii	"v\010\341\373\372m\276\250\245\351\001\306\031\203("
 347      FA6DBEA8 
 347      A5E901C6 
 347      198328
 348 00be 03EC4217 		.ascii	"\003\354B\027v\243K\362\366`\256\304\366\204~\004\235"
 348      76A34BF2 
 348      F660AEC4 
 348      F6847E04 
 348      9D
 349 00cf FC30CAB5 		.ascii	"\3740\312\265\277\276}!3\347!\325\205\3576\\\313\020"
 349      BFBE7D21 
 349      33E721D5 
 349      85EF365C 
 349      CB10
 350 00e1 DDC20C27 		.ascii	"\335\302\014'\022\331T\214\217\220\247\326\313\207J"
 350      12D9548C 
 350      8F90A7D6 
 350      CB874A
 351 00f0 B6CD5F2B 		.ascii	"\266\315_+\351\206)\204\310\302^\314\221\227\020\367"
 351      E9862984 
 351      C8C25ECC 
 351      919710F7 
 352 0100 63341080 		.ascii	"c4\020\200\311\023\302\334\231\350hvX\264\361\310\233"
 352      C913C2DC 
 352      99E86876 
 352      58B4F1C8 
ARM GAS  C:\Users\Thomas\AppData\Local\Temp\cc4WQuXD.s 			page 27


 352      9B
 353 0111 74D192A4 		.ascii	"t\321\222\244\345I\332c.<\232$\305>\314\0318\030\024"
 353      E549DA63 
 353      2E3C9A24 
 353      C53ECC19 
 353      381814
 354 0124 89C4E04C 		.ascii	"\211\304\340Ls\335q\303\316!\3164\215\376t\035$\243"
 354      73DD71C3 
 354      CE21CE34 
 354      8DFE741D 
 354      24A3
 355 0136 A120001B 		.ascii	"\241 \000\033t\025Y\265A\322L\033\2170\016\344\037_"
 355      741559B5 
 355      41D24C1B 
 355      8F300EE4 
 355      1F5F
 356 0148 C5C99DEB 		.ascii	"\305\311\235\353;\233'e\0171\306\351\372\265\231\341"
 356      3B9B2765 
 356      0F31C6E9 
 356      FAB599E1 
 357 0158 098734C7 		.ascii	"\011\2074\307x?\355\025\232\354\372\343\306\334\274"
 357      783FED15 
 357      9AECFAE3 
 357      C6DCBC
 358 0167 5D1D2911 		.ascii	"]\035)\021#M\341O\231mx\317k\222Q6\354'\221\003R$>\301"
 358      234DE14F 
 358      996D78CF 
 358      6B925136 
 358      EC279103 
 359 017f 36D20111 		.ascii	"6\322\001\021\362\236\302\340\313\350Sv\373\337M\206"
 359      F29EC2E0 
 359      CBE85376 
 359      FBDF4D86 
 360 018f 0EF03CE5 		.ascii	"\016\360<\345\331b\367\264O\263\304\371\033R\305=\375"
 360      D962F7B4 
 360      4FB3C4F9 
 360      1B52C53D 
 360      FD
 361 01a0 8FB867CA 		.ascii	"\217\270g\312\221\271\360+\277\212\217\323\367A\272"
 361      91B9F02B 
 361      BF8A8FD3 
 361      F741BA
 362 01af 8A9883B1 		.ascii	"\212\230\203\261zg\212\241\301\321\326#\022\257\354"
 362      7A678AA1 
 362      C1D1D623 
 362      12AFEC
 363 01be 8C32FCD7 		.ascii	"\2142\374\327ni\002\016\321L\001>'\277\373\024sc\343"
 363      6E69020E 
 363      D14C013E 
 363      27BFFB14 
 363      7363E3
 364 01d1 50BB5331 		.ascii	"P\273S1\377F\300a\213:K\002\350\343\324\353\261q=\257"
 364      FF46C061 
 364      8B3A4B02 
 364      E8E3D4EB 
 364      B1713DAF 
 365 01e5 93AAC3E3 		.ascii	"\223\252\303\343}\241\263vB%\373\032\301<\325H\010k"
ARM GAS  C:\Users\Thomas\AppData\Local\Temp\cc4WQuXD.s 			page 28


 365      7DA1B376 
 365      4225FB1A 
 365      C13CD548 
 365      086B
 366 01f7 153AC664 		.ascii	"\025:\306dA\373\302\315~V\275+\352\004a\355Q\232\003"
 366      41FBC2CD 
 366      7E56BD2B 
 366      EA0461ED 
 366      519A03
 367 020a 791FBEC0 		.ascii	"y\037\276\300j\212#MQ\2530\010\015Kh~\250\215\016\271"
 367      6A8A234D 
 367      51AB3008 
 367      0D4B687E 
 367      A88D0EB9 
 368 021e 2CE38DBF 		.ascii	",\343\215\277\247R'\225\243{S\023a\272\214K\305\264"
 368      A7522795 
 368      A37B5313 
 368      61BA8C4B 
 368      C5B4
 369 0230 BCE5B0D0 		.ascii	"\274\345\260\320\032\241\357w\3552\011v\264\354K\311"
 369      1AA1EF77 
 369      ED320976 
 369      B4EC4BC9 
 370 0240 A152EA0C 		.ascii	"\241R\352\014,\336NK\246\224\216c\224R@\2454.SR\204"
 370      2CDE4E4B 
 370      A6948E63 
 370      945240A5 
 370      342E5352 
 371 0255 5FB64E5B 		.ascii	"_\266N[\204zJ\252\336`vj\256/e\005u/\316\250Q\355\225"
 371      847A4AAA 
 371      DE60766A 
 371      AE2F6505 
 371      752FCEA8 
 372 026c 0A745843 		.ascii	"\012tXCo0\266\312\366\030@N\030R\2574f\207\334\205\027"
 372      6F30B6CA 
 372      F618404E 
 372      1852AF34 
 372      6687DC85 
 373 0281 3C573DE5 		.ascii	"<W=\345E\225\236\222K\005eU\345\305\236\302\374\202"
 373      45959E92 
 373      4B056555 
 373      E5C59EC2 
 373      FC82
 374 0293 B273A70A 		.ascii	"\262s\247\012\363O\270\213\301(\367TT]\2514J/\227\226"
 374      F34FB88B 
 374      C128F754 
 374      545DA934 
 374      4A2F9796 
 375 02a7 5D2CF903 		.ascii	"],\371\003\216TG'"
 375      8E544727 
 376              		.text
 377              		.section	.gnu.lto_.symbol_nodes.bdb9f688,"",%progbits
 378 0000 789C55CF 		.ascii	"x\234U\317\261\015\3020\024\004\320\263\177\034;\211"
 378      B10DC230 
 378      1404D0B3 
 378      7F1C3B89 
 379 0010 93929609 		.ascii	"\223\222\226\011`\305\213\322\320\262\000\210D\254A"
ARM GAS  C:\Users\Thomas\AppData\Local\Temp\cc4WQuXD.s 			page 29


 379      60C58BD2 
 379      D0B20088 
 379      44AC41
 380 001f 13513303 		.ascii	"\023Q3\003\364\210\021\020FI\341\377\233\323\323]\363"
 380      F4881110 
 380      4649E1FF 
 380      9BD3D35D 
 380      F3
 381 0030 05C0DE60 		.ascii	"\005\300\336`9\333\0218>\000\322\234\246\000\353iV\343"
 381      39DB1138 
 381      3E00D29C 
 381      A600EB69 
 381      56E3
 382 0042 7C49165A 		.ascii	"|I\026ZeGQ\266,\224\015]n\007\214\226\260%K5+\350\225"
 382      654751B6 
 382      2C940D5D 
 382      6E078C96 
 382      B0254B35 
 383 0059 038372C5 		.ascii	"\003\203r\305J\271f\255\334\260\311mZ\306\305\350\373"
 383      4AB966AD 
 383      DCB0C96D 
 383      5AC6C5E8 
 383      FB
 384 006a C4C836A3 		.ascii	"\304\3106\243\244o\207q#\322\341\372\374\032\221\026"
 384      A46F8771 
 384      23D2E1FA 
 384      FC1A9116 
 385 007a F757CA42 		.ascii	"\367W\312B0\374\323\011\346\303{+~\355\375\332\007\277"
 385      30FCD309 
 385      E6C37B2B 
 385      7EEDFDDA 
 385      07BF
 386 008c F411986E 		.ascii	"\364\021\230n\237\035~\340<P7"
 386      9F1D7EE0 
 386      3C5037
 387              		.text
 388              		.section	.gnu.lto_.refs.bdb9f688,"",%progbits
 389 0000 789C6366 		.ascii	"x\234cf``\340d\200\000&V\0066FF6.\006\000\001z\000,"
 389      6060E064 
 389      80002656 
 389      06364646 
 389      362E0600 
 390              		.text
 391              		.section	.gnu.lto_.decls.bdb9f688,"",%progbits
 392 0000 789C9D55 		.ascii	"x\234\235UiLTW\024~w\356\014\314\014#\372\247\330\220"
 392      694C5457 
 392      147E77EE 
 392      0CCC0C23 
 392      FAA7D890 
 393 0014 A6C59898 		.ascii	"\246\305\230\23041D\332\324\330_5\245nM\027\"\251\375"
 393      343144DA 
 393      D4D85F35 
 393      A56E4D17 
 393      22A9FD
 394 0027 511383F8 		.ascii	"Q\023\203\370b\2471``HJ\372\347*\030\221\272 .l\255"
 394      62A73160 
 394      60484AFA 
ARM GAS  C:\Users\Thomas\AppData\Local\Temp\cc4WQuXD.s 			page 30


 394      E72A1891 
 394      BA202E6C 
 395 003c 4011152D 		.ascii	"@\021\025-:.l\2022\214:\200\010\"\"\210T\004\306\205"
 395      3A2E6C82 
 395      328C3A80 
 395      08222288 
 395      5404C685 
 396 0050 4D1D16F7 		.ascii	"M\035\026\367\352\364\334\3459\357M@Mor\230w\037\347"
 396      EAF4DCE5 
 396      39EF4D40 
 396      4D6F7298 
 396      771FE7
 397 0063 7CDF77EE 		.ascii	"|\337w\3569\357\\,I\322!,I^X;\315\222\024\213$i\032"
 397      39EF5C2C 
 397      49D2212C 
 397      495E583B 
 397      CD92148B 
 398 007a BC8B0283 		.ascii	"\274\213\002\203G)D\342+\030\3548X\031X%\330i\260\032"
 398      472944E2 
 398      2B18EC38 
 398      58195825 
 398      D869B01A 
 399 008e B0B3600E 		.ascii	"\260\263`\0160'\230\013\254\021\254\035\254\023\254"
 399      3027980B 
 399      AC11AC1D 
 399      AC13AC
 400 009d 0BAC5BE0 		.ascii	"\013\254[\340\364H\332E\261\002\301\216\010\216\245"
 400      F448DA45 
 400      B102C18E 
 400      088EA5
 401 00ac 606EB03E 		.ascii	"`n\260>\260\257\005?]:\025/\310\224n\203\335\001\273"
 401      B0AF053F 
 401      5D3A152F 
 401      C8946E83 
 401      DD01BB
 402 00bf EB8747FF 		.ascii	"\353\207G\377\257W\341\335\003;\246\302(\0238T\313\200"
 402      AF57E1DD 
 402      033BA6C2 
 402      28133854 
 402      CB80
 403 00d1 5F2CCDC7 		.ascii	"_,\315\307 8C\004\206\242E\211\257\024\371\371/z\016"
 403      20384304 
 403      86A24589 
 403      AF14F9F9 
 403      2F7A0E
 404 00e4 2611AB70 		.ascii	"&\021\253p\017\202\325\2530\206\300\316\013\177,b\272"
 404      0F82D5AB 
 404      3086C0CE 
 404      0B7F2C62 
 404      BA
 405 00f5 C5F9F82F 		.ascii	"\305\371\370/z\246\001*-\012\3060X\271JO\215\300\361"
 405      7AA6012A 
 405      2D0AC630 
 405      58B94A4F 
 405      8DC0F1
 406 0108 5FB41E46 		.ascii	"_\264\036FU\374\210_>j\034\203\360WrS0'\253\227\343"
 406      55FC885F 
ARM GAS  C:\Users\Thomas\AppData\Local\Temp\cc4WQuXD.s 			page 31


 406      3E6A1C83 
 406      F0577253 
 406      3027AB97 
 407 011d 7FE4E978 		.ascii	"\177\344\351xC\236\316w\314\323)p\374\227K\362\325L"
 407      439ECE77 
 407      CCD32970 
 407      FC974BF2 
 407      D54C
 408 012f D1A3AE19 		.ascii	"\321\243\256\031\222&\257\027\355O\375\033b\032'\211"
 408      9226AF17 
 408      ED4FFD1B 
 408      621A2789 
 409 013f 695769A5 		.ascii	"iWi\245\337\201\005\254\025l\024\314\243\212m\237$\266"
 409      DF8105AC 
 409      156C14CC 
 409      A38A6D9F 
 409      24B6
 410 0151 53F8ABE3 		.ascii	"S\370\253\343(w\230\340\037\007\033\223|\375\372\010"
 410      287798E0 
 410      1F071B93 
 410      7CFDFA08 
 411 0161 6C42C462 		.ascii	"lB\304b\021\257\364\256\377\032\325\241\216\332\315"
 411      11AFF4AE 
 411      FF1AD5A1 
 411      8EDACD
 412 0170 9B8D5887 		.ascii	"\233\215X\207\350sQv_\273y\356aBH\032q8\220\317i\303"
 412      E8735176 
 412      5FBB79EE 
 412      6142481A 
 412      713890CF 
 413 0186 81EAAD81 		.ascii	"\201\352\255\201\003:\024bf\333\355M\271u\230m\2754"
 413      033A1462 
 413      66DBED4D 
 413      B975986D 
 413      BD34
 414 0198 4ED7D5B5 		.ascii	"N\327\325\265\373\031F\3469i\204l$\236L\202\337\227"
 414      FB1946E6 
 414      3969846C 
 414      249E4C82 
 414      DF97
 415 01aa D0DC50F4 		.ascii	"\320\334P\364q\250\204\376Fs\300\015\035Bs%T\202B\321"
 415      71A884FE 
 415      4673C00D 
 415      1D427325 
 415      548242D1 
 416 01be 61142AED 		.ascii	"a\024*\355\007\002O~\373\215\017\010\321\243#\310\214"
 416      07024F7E 
 416      FB8D0F08 
 416      D1A323C8 
 416      8C
 417 01cf 0E22CC3C 		.ascii	"\016\"\314<\340\020(\203 \255::\321\034\004,\301\346"
 417      E0102883 
 417      20AD3A3A 
 417      D11C042C 
 417      C1E6
 418 01e1 30BA3D9D 		.ascii	"0\272=\235\331\220\035\000[\213YO\267[R\355x\346\036"
 418      D9901D00 
ARM GAS  C:\Users\Thomas\AppData\Local\Temp\cc4WQuXD.s 			page 32


 418      5B8B594F 
 418      B75B52ED 
 418      78E61E
 419 01f4 40221929 		.ascii	"@\"\031)d\006\307)\005\202\243@ \241ch&\374\375I\317"
 419      6406C729 
 419      0582A340 
 419      20A16368 
 419      26FCFD49 
 420 0209 91461E5F 		.ascii	"\221F\036_\256\327\343OY\2167\333\274E\201a\373\210"
 420      AED7E34F 
 420      598E37DB 
 420      BC458161 
 420      FB88
 421 021b C3EEC973 		.ascii	"\303\356\311sW\177\236\223Q\260\221\274\362z\021\321"
 421      577F9E93 
 421      51B091BC 
 421      F27A11D1 
 422 022b D120647F 		.ascii	"\321 d\177-E\242\317\2742\307Q\030Dfl\252\313\320\353"
 422      2D45A2CF 
 422      BC32C751 
 422      1844666C 
 422      AACBD0EB 
 423 023f A1A518D7 		.ascii	"\241\245\030\327OLE\253k\213\353\0152N2\031'\220\320"
 423      4F4C45AB 
 423      6B8BEB0D 
 423      324E3219 
 423      2790D0
 424 0252 71A7EDE2 		.ascii	"q\247\355\342]=\376\205\3518p!7\021d\364\332I\016)\320"
 424      5D3DFE85 
 424      E9387021 
 424      371164F4 
 424      DA490E29 
 425 0267 11189EA0 		.ascii	"\021\030\236\240\000\374\321)\225\202S\212\2022\246"
 425      00FCD129 
 425      9582538A 
 425      8232A6
 426 0276 A0FA457F 		.ascii	"\240\372E\177\273^\315\026\025\242\"+\327\344\354\256"
 426      BB5ECD16 
 426      15A2222B 
 426      D7E4ECAE 
 427 0286 3CF0D282 		.ascii	"<\360\322\202\177c\\/\363'\332t\214\254\367\3149\331"
 427      7F635C2F 
 427      F327DA74 
 427      8CACF7CC 
 427      39D9
 428 0298 914AFEF5 		.ascii	"\221J\376\365zS\214,\002U\250\350*\024\272JF\267\353"
 428      7A538C2C 
 428      0255A8E8 
 428      2A14BA4A 
 428      46B7EB
 429 02ab FEC6621D 		.ascii	"\376\306b\035NA\014c\203\263\2744\230a\024\354(\016"
 429      4E410C63 
 429      83B3BC34 
 429      986114EC 
 429      280E
 430 02bd 68200EAF 		.ascii	"h \016\257\367\013\006P\245\002\250R\000N3\000\373X"
 430      F70B0650 
ARM GAS  C:\Users\Thomas\AppData\Local\Temp\cc4WQuXD.s 			page 33


 430      A502A852 
 430      004E3300 
 430      FB58
 431 02cf E30D13CE 		.ascii	"\343\015\023\316\340\000\316\242k\325\002`[\021\007"
 431      E000CEA2 
 431      6BD50260 
 431      5B1107
 432 02de A8258841 		.ascii	"\250%\210AT\253 \252\025\210\032\006q8kw\251\001\347"
 432      54AB20AA 
 432      15881A06 
 432      71386B77 
 432      A901E7
 433 02f1 7288B39E 		.ascii	"r\210\263\236c\265\026\200(\260\027t\237 \013Y\036\230"
 433      63B51680 
 433      28B01774 
 433      9F200B59 
 433      1E98
 434 0303 219C5121 		.ascii	"!\234Q!\234Q\020\3162\204\266\246\316N\023.\342\010"
 434      9C5110CE 
 434      3284B6A6 
 434      CE4E132E 
 434      E208
 435 0315 E3CE13B9 		.ascii	"\343\316\023\271A\\D\255&\213Z\025@\255\002\340`\000"
 435      415C44AD 
 435      268B5A15 
 435      40AD02E0 
 435      6000
 436 0327 6E57CAF6 		.ascii	"nW\312\366@|\234\003\364\214\217\367\032\271\204\301"
 436      407C9C03 
 436      F48C8FF7 
 436      1AB984C1 
 437 0337 2235409D 		.ascii	"\"5@\235\012\240N\001pN\3318\217\274}\305\272)Ky\236"
 437      0AA04E01 
 437      704ED938 
 437      8FBC7DC5 
 437      BA294B79 
 438 034c 95F29CD2 		.ascii	"\225\362\234\3227\203\373\233\354\006\\\305\025\270"
 438      3783FB9B 
 438      EC065CC5 
 438      15B8
 439 035a 9E5C2931 		.ascii	"\236\\)1\210s,\361\235#\204\240\013*\015\027\024\015"
 439      88732CF1 
 439      9D2384A0 
 439      0B2A0D17 
 439      140D
 440 036c 2EA6E1CD 		.ascii	".\246\341\315\237K\275\246u\212\363<\375A\270\236\323"
 440      9F4BBDA6 
 440      758AF33C 
 440      FD41B89E 
 440      D3
 441 037d 8D5C4CDD 		.ascii	"\215\\L\335k`\011\367\236\036\024\275\203Y\004jP\321"
 441      6B6009F7 
 441      9E1E14BD 
 441      8359046A 
 441      50D1
 442 038f 3528748D 		.ascii	"5(t\215\214\256\251\377\351\270\205}\2733(Hn\347\235"
 442      8CAEA9FF 
ARM GAS  C:\Users\Thomas\AppData\Local\Temp\cc4WQuXD.s 			page 34


 442      E9B8857D 
 442      BB332848 
 442      6EE79D
 443 03a2 09CCBE5D 		.ascii	"\011\314\276]\035\335\3769\366\240\306\204;Ec\211\331"
 443      1DDDFE39 
 443      F6A0C684 
 443      3B456389 
 443      D9
 444 03b3 12C6674B 		.ascii	"\022\306gK\326\360\323SF\266\245<0\\^\270\217\036\014"
 444      D6F0D353 
 444      46B6A53C 
 444      305C5EB8 
 444      8F1E0C
 445 03c6 4073CC7C 		.ascii	"@s\314|jt\360\251\321\012\362/\371\246F\230\230\032"
 445      6A74F0A9 
 445      D10AF22F 
 445      F9A64698 
 445      981A
 446 03d8 6C009114 		.ascii	"l\000\221\024b8\024,\241\213\220^\023\244\207.\303\014"
 446      6238142C 
 446      A18B905E 
 446      13A4872E 
 446      C30C
 447 03ea 0A1333A8 		.ascii	"\012\0233\250\031^\266\300K`\252\331?\364 \210\225\245"
 447      195EB6C0 
 447      4B60AAD9 
 447      3FF42088 
 447      95A5
 448 03fc F575596E 		.ascii	"\365uYn\225=\2560OY\2266vLW\224\262\324\356y\236g\301"
 448      953DAE30 
 448      4F599636 
 448      764C5794 
 448      B2D4EE79 
 449 0413 3D3C8D63 		.ascii	"=<\215c\257\236\014!vN\236\274s\025\237\300G\315\347"
 449      AF9E0C21 
 449      764E9EBC 
 449      73159FC0 
 449      47CDE7
 450 0426 0A8B4257 		.ascii	"\012\213BWUGuU9\252vvT\31765\337\322\224\246US\232k"
 450      55477555 
 450      39AA7676 
 450      54CF3635 
 450      DFD294A6 
 451 043e 9AD2349E 		.ascii	"\232\3224\236\314\336g\306\0179e\343\356\272\275\274"
 451      CCDE67C6 
 451      0F3965E3 
 451      EEBABDBC 
 452 044e 177B776C 		.ascii	"\027{wlsY\010\357F\026\202:T\204\035\012a'#\034)=n\017"
 452      735908EF 
 452      4616823A 
 452      54841D0A 
 452      6127231C 
 453 0466 C25E8E51 		.ascii	"\302^\216Q\224Q\323\035@\273\211xJ\033\275\363rH\241"
 453      9451D31D 
 453      40BB8978 
 453      4A1BBDF3 
 453      7248A1
ARM GAS  C:\Users\Thomas\AppData\Local\Temp\cc4WQuXD.s 			page 35


 454 0479 229B36D4 		.ascii	"\"\2336\324u\025\312u\005\245\213\241\\\036z\234c\306"
 454      7515CA75 
 454      05A58BA1 
 454      5C1E7A9C 
 454      63C6
 455 048b 15FCE2B8 		.ascii	"\025\374\342\270u\244x\035\003\351}\351\226\235\352"
 455      75A4781D 
 455      03E97DE9 
 455      969DEA
 456 049a 1EB9A142 		.ascii	"\036\271\241B\270\241 t3\204\226FW9\302-\034\341U\267"
 456      B8A12074 
 456      33849646 
 456      5739C22D 
 456      1CE155B7 
 457 04ae BD824E77 		.ascii	"\275\202Nw\350K\336\203\336\236Q\335\354BR\360\227="
 457      E84BDE83 
 457      DE9E51DD 
 457      EC4252F0 
 457      973D
 458 04c0 CF7D3188 		.ascii	"\317}1\210d\023\322\353\365~\304\372\366\037\216)\256"
 458      6413D2EB 
 458      F57EC4FA 
 458      F61F8E29 
 458      AE
 459 04d1 1889EEE1 		.ascii	"\030\211\356\341\357MZ\352\0364\033\202I\326\357\373"
 459      EF4D5AEA 
 459      1E341B82 
 459      49D6EFFB 
 460 04e1 8DB88B23 		.ascii	"\215\270\213#\227=N\257\232fN\243m\361\366\253\011\372"
 460      973D4EAF 
 460      9A664EA3 
 460      6DF1F6AB 
 460      09FA
 461 04f3 ADBD25BD 		.ascii	"\255\275%\275\303\304/3\377\210\376)/\263\247\356\245"
 461      C3C42F33 
 461      FF88FE29 
 461      2FB3A7EE 
 461      A5
 462 0504 A96421EA 		.ascii	"\251d!\352\003u\267|m\331\213|\267\331\226\376\334f"
 462      0375B77C 
 462      6DD98B7C 
 462      B7D996FE 
 462      DC66
 463 0516 8B259D36 		.ascii	"\213%\2356(\224\331\324\020\314\234}uv#\013;\033\370"
 463      2894D9D4 
 463      10CC9C7D 
 463      7576230B 
 463      3B1BF8
 464 0529 05EFFCC1 		.ascii	"\005\357\374\301\266\314\200Y\371\364&v|\011M\310\356"
 464      B6CC8059 
 464      F9F42676 
 464      7C094DC8 
 464      EE
 465 053a 207E78B7 		.ascii	" ~x\267\321,:\207Z\306\306\215\314\301\223\2272f\335"
 465      D12C3A87 
 465      5AC6C68D 
 465      CCC19397 
ARM GAS  C:\Users\Thomas\AppData\Local\Temp\cc4WQuXD.s 			page 36


 465      3266DD
 466 054d E0EF7587 		.ascii	"\340\357u\207y\325n/)43\257\202K\233\211\001i}\3562"
 466      79D56E2F 
 466      293433AF 
 466      824B9B89 
 466      01697DEE 
 467 0562 9FA7857D 		.ascii	"\237\247\205}w\247k\204\321{\320'\354\236\020v\217\011"
 467      77A76B84 
 467      D17BD027 
 467      EC9E1076 
 467      8F09
 468 0574 BB5E9EF7 		.ascii	"\273^\236\367\334\250\021V\246\300\015L\001W\257\201"
 468      DCA81156 
 468      A6C00D4C 
 468      0157AF81 
 469 0584 1B147083 		.ascii	"\033\024p\203\014.#3\357\254I\343}^\343=$\274\207\230"
 469      0C2E2333 
 469      EFAC49E3 
 469      7D5EE33D 
 469      24BC8798 
 470 0598 774FB623 		.ascii	"wO\266#]\257\361.\327x\017#\213r\364\303, k\237\347"
 470      5DAFF12E 
 470      D7780F23 
 470      8B72F4C3 
 470      2C206B9F 
 471 05ad 85165E3B 		.ascii	"\205\026^;\367F\004\374\010\363\256j\351\356\301\270"
 471      F74604FC 
 471      08F3AE6A 
 471      E9EEC1B8 
 472 05bd 87B78D27 		.ascii	"\207\267\215'm\333\260\236\267\315;\016\024]V\351M\270"
 472      6DDBB09E 
 472      B7CD3B0E 
 472      145D56E9 
 472      4DB8
 473 05cf A89449F5 		.ascii	"\250\224I\365\234\267\204\007\010\357\373Z\342\001\362"
 473      9CB78407 
 473      08EFFB5A 
 473      E201F2
 474 05de 8DAA4990 		.ascii	"\215\252I\220\037N>\252\212w\272\260&\015\217&\215Q"
 474      1F4E3EAA 
 474      8A77BAB0 
 474      260D8F26 
 474      8D51
 475 05f0 91C6284B 		.ascii	"\221\306(Kc\353\300\243\242 Ey\332;\341\2278\253\376"
 475      63EBC0A3 
 475      A2204579 
 475      DA3BE197 
 475      38ABFE
 476 0603 08D2108C 		.ascii	"\010\322\020\214i\010\306\005\3018#\350\313p\325\230"
 476      6908C605 
 476      C13823E8 
 476      CB70D598 
 477 0613 942F2AED 		.ascii	"\224/*\355-\337\007\370\327e\357:<M\203>\241A\177$\320"
 477      2DDF07F8 
 477      D765EF3A 
 477      3C4D833E 
 477      A1417F24 
ARM GAS  C:\Users\Thomas\AppData\Local\Temp\cc4WQuXD.s 			page 37


 478 0628 E9AF21C9 		.ascii	"\351\257!\311\032g[\020\260\344\273\037\302\"\245\331"
 478      1A675B10 
 478      B0E4BB1F 
 478      C222A5D9 
 479 0638 E12B97C8 		.ascii	"\341+\227\310qrB\214M^\263*:>)!V^\031\025\035\037\371"
 479      7172428C 
 479      4D5EB32A 
 479      3A3E2921 
 479      565E1915 
 480 064f D9CAD864 		.ascii	"\331\312\330d[\362z91\374gifT\304\252%\262m\361\262"
 480      5BF27A39 
 480      31FC6769 
 480      6654C4AA 
 480      25B26DF1 
 481 0664 C5DF47DB 		.ascii	"\305\337G\333blI\211\341\353c\022l\341\363>\23426*\""
 481      626C4989 
 481      E1EB6312 
 481      6CE1F33E 
 481      9C32362A 
 482 0679 3C569AE1 		.ascii	"<V\232\341\037\026\010/\226\305Ym\026\370]\024\027\263"
 482      1F16082F 
 482      96C5596D 
 482      16F85D14 
 482      17B3
 483 068b 7A9DBC2C 		.ascii	"z\235\274,\316fz\2751\302\0238&\330\246\301\303W\326"
 483      CE667ABD 
 483      31C21338 
 483      26D8A6C1 
 483      C357D6
 484 069e 44E110C8 		.ascii	"D\341\020\310^\307\257\247o\243e\033\274\3716~\215<"
 484      5EC7AFA7 
 484      6FA3651B 
 484      BCF9367E 
 484      8D3C
 485 06b0 9D83C38E 		.ascii	"\235\203\303\216c\007\320\244\"\346S\316\037\023\254"
 485      6307D0A4 
 485      22E653CE 
 485      1F13AC
 486 06bf 3679B9BC 		.ascii	"6y\271\274vE\314\272$\346\267\\\216Y\243\354\337\213"
 486      7645CCBA 
 486      24E6B75C 
 486      8E59A3EC 
 486      DF8B
 487 06d1 4C5EF4AB 		.ascii	"L^\364\253\325\026\011>\326\330\230u\321r\254\315\032"
 487      D516093E 
 487      D6D89875 
 487      D172ACCD 
 487      1A
 488 06e2 1F376BCA 		.ascii	"\0377k\312L\"\223\277\261\256\2063\010\201\2708\233"
 488      4C2293BF 
 488      B1AE8633 
 488      0881B838 
 488      9B
 489 06f3 9CE01768 		.ascii	"\234\340\027h\006x+\244\264\"&A\237 \257]`\200?\021"
 489      06782BA4 
 489      B4222641 
 489      9F20AF5D 
ARM GAS  C:\Users\Thomas\AppData\Local\Temp\cc4WQuXD.s 			page 38


 489      60803F11 
 490 0707 F3FF03C1 		.ascii	"\363\377\003\3010 O"
 490      30204F
 491              		.text
 492              		.section	.gnu.lto_.symtab.bdb9f688,"",%progbits
 493 0000 50315F47 		.ascii	"P1_GetFIFOStatus\000\000\000\000\000\000\000\000\000"
 493      65744649 
 493      464F5374 
 493      61747573 
 493      00000000 
 494 0019 000000B5 		.ascii	"\000\000\000\265\000\000\000P1_Init\000\000\000\000"
 494      00000050 
 494      315F496E 
 494      69740000 
 494      0000
 495 002b 00000000 		.ascii	"\000\000\000\000\000\000\000\000\270\000\000\000P1_"
 495      00000000 
 495      B8000000 
 495      50315F
 496 003a 456E6162 		.ascii	"EnableInt\000\000\000\000\000\000\000\000\000\000\000"
 496      6C65496E 
 496      74000000 
 496      00000000 
 496      00000000 
 497 004e 00BA0000 		.ascii	"\000\272\000\000\000P1_Enable\000\000\000\000\000\000"
 497      0050315F 
 497      456E6162 
 497      6C650000 
 497      00000000 
 498 0062 00000000 		.ascii	"\000\000\000\000\000\000\274\000\000\000P1_Start\000"
 498      0000BC00 
 498      00005031 
 498      5F537461 
 498      727400
 499 0075 00000000 		.ascii	"\000\000\000\000\000\000\000\000\000\000\000\276\000"
 499      00000000 
 499      000000BE 
 499      00
 500 0082 00005031 		.ascii	"\000\000P1_initVar\000\000\000\000\000\000\000\000\000"
 500      5F696E69 
 500      74566172 
 500      00000000 
 500      00000000 
 501 0097 000000DE 		.ascii	"\000\000\000\336\000\000\000P1_DisableInt\000\000\000"
 501      00000050 
 501      315F4469 
 501      7361626C 
 501      65496E74 
 502 00ae 00000000 		.ascii	"\000\000\000\000\000\000\000\000\000\300\000\000\000"
 502      00000000 
 502      00C00000 
 502      00
 503 00bb 50315F53 		.ascii	"P1_Stop\000\000\000\000\000\000\000\000\000\000\000"
 503      746F7000 
 503      00000000 
 503      00000000 
 503      0000
ARM GAS  C:\Users\Thomas\AppData\Local\Temp\cc4WQuXD.s 			page 39


 504 00cd 00C20000 		.ascii	"\000\302\000\000\000P1_SetIntMode\000\000\000\000\000"
 504      0050315F 
 504      53657449 
 504      6E744D6F 
 504      64650000 
 505 00e4 00000000 		.ascii	"\000\000\000\000\000\000\000\306\000\000\000P1_GetI"
 505      000000C6 
 505      00000050 
 505      315F4765 
 505      7449
 506 00f6 6E745374 		.ascii	"ntStatus\000\000\000\000\000\000\000\000\000\000\000"
 506      61747573 
 506      00000000 
 506      00000000 
 506      000000
 507 0109 00C90000 		.ascii	"\000\311\000\000\000P1_WriteRegValue\000\000\000\000"
 507      0050315F 
 507      57726974 
 507      65526567 
 507      56616C75 
 508 0122 00000000 		.ascii	"\000\000\000\000\000\000\000\000\324\000\000\000P1_"
 508      00000000 
 508      D4000000 
 508      50315F
 509 0131 52656164 		.ascii	"ReadRegValue\000\000\000\000\000\000\000\000\000\000"
 509      52656756 
 509      616C7565 
 509      00000000 
 509      00000000 
 510 0147 0000D700 		.ascii	"\000\000\327\000\000\000CyExitCriticalSection\000\000"
 510      00004379 
 510      45786974 
 510      43726974 
 510      6963616C 
 511 0164 02000000 		.ascii	"\002\000\000\000\000\000\000\000\000\000\331\000\000"
 511      00000000 
 511      0000D900 
 511      00
 512 0171 00437945 		.ascii	"\000CyEnterCriticalSection\000\000\002\000\000\000\000"
 512      6E746572 
 512      43726974 
 512      6963616C 
 512      53656374 
 513 018f 00000000 		.ascii	"\000\000\000\000\000\333\000\000\000"
 513      00DB0000 
 513      00
 514              		.text
 515              		.section	.gnu.lto_.opts,"",%progbits
 516 0000 272D666E 		.ascii	"'-fno-trapv' '-mcpu=cortex-m3' '-mthumb' '-g' '-O3'"
 516      6F2D7472 
 516      61707627 
 516      20272D6D 
 516      6370753D 
 517 0033 20272D66 		.ascii	" '-ffunction-sections' '-finline-functions' '-flto'"
 517      66756E63 
 517      74696F6E 
 517      2D736563 
ARM GAS  C:\Users\Thomas\AppData\Local\Temp\cc4WQuXD.s 			page 40


 517      74696F6E 
 518 0066 20272D66 		.ascii	" '-ffat-lto-objects'\000"
 518      6661742D 
 518      6C746F2D 
 518      6F626A65 
 518      63747327 
 519              		.text
 520              		.cfi_sections	.debug_frame
 521              		.section	.text.P1_Start,"ax",%progbits
 522              		.align	2
 523              		.global	P1_Start
 524              		.thumb
 525              		.thumb_func
 526              		.type	P1_Start, %function
 527              	P1_Start:
 528              	.LFB0:
 529              		.file 1 ".\\Generated_Source\\PSoC5\\P1.c"
   1:.\Generated_Source\PSoC5/P1.c **** /*******************************************************************************
   2:.\Generated_Source\PSoC5/P1.c **** * File Name: P1.c
   3:.\Generated_Source\PSoC5/P1.c **** * Version 2.30
   4:.\Generated_Source\PSoC5/P1.c **** *
   5:.\Generated_Source\PSoC5/P1.c **** * Description:
   6:.\Generated_Source\PSoC5/P1.c **** *  This file provides the API source code for the Shift Register component.
   7:.\Generated_Source\PSoC5/P1.c **** *
   8:.\Generated_Source\PSoC5/P1.c **** * Note: none
   9:.\Generated_Source\PSoC5/P1.c **** *
  10:.\Generated_Source\PSoC5/P1.c **** ********************************************************************************
  11:.\Generated_Source\PSoC5/P1.c **** * Copyright 2008-2013, Cypress Semiconductor Corporation.  All rights reserved.
  12:.\Generated_Source\PSoC5/P1.c **** * You may use this file only in accordance with the license, terms, conditions,
  13:.\Generated_Source\PSoC5/P1.c **** * disclaimers, and limitations in the end user license agreement accompanying
  14:.\Generated_Source\PSoC5/P1.c **** * the software package with which this file was provided.
  15:.\Generated_Source\PSoC5/P1.c **** ********************************************************************************/
  16:.\Generated_Source\PSoC5/P1.c **** 
  17:.\Generated_Source\PSoC5/P1.c **** #include "P1.h"
  18:.\Generated_Source\PSoC5/P1.c **** 
  19:.\Generated_Source\PSoC5/P1.c **** uint8 P1_initVar = 0u;
  20:.\Generated_Source\PSoC5/P1.c **** 
  21:.\Generated_Source\PSoC5/P1.c **** 
  22:.\Generated_Source\PSoC5/P1.c **** /*******************************************************************************
  23:.\Generated_Source\PSoC5/P1.c **** * Function Name: P1_Start
  24:.\Generated_Source\PSoC5/P1.c **** ********************************************************************************
  25:.\Generated_Source\PSoC5/P1.c **** *
  26:.\Generated_Source\PSoC5/P1.c **** * Summary:
  27:.\Generated_Source\PSoC5/P1.c **** *  Starts the Shift Register.
  28:.\Generated_Source\PSoC5/P1.c **** *
  29:.\Generated_Source\PSoC5/P1.c **** * Parameters:
  30:.\Generated_Source\PSoC5/P1.c **** *  None.
  31:.\Generated_Source\PSoC5/P1.c **** *
  32:.\Generated_Source\PSoC5/P1.c **** * Return:
  33:.\Generated_Source\PSoC5/P1.c **** *  None.
  34:.\Generated_Source\PSoC5/P1.c **** *
  35:.\Generated_Source\PSoC5/P1.c **** * Global Variables:
  36:.\Generated_Source\PSoC5/P1.c **** *  P1_initVar - used to check initial configuration, modified on
  37:.\Generated_Source\PSoC5/P1.c **** *  first function call.
  38:.\Generated_Source\PSoC5/P1.c **** *
  39:.\Generated_Source\PSoC5/P1.c **** * Reentrant:
  40:.\Generated_Source\PSoC5/P1.c **** *  No.
ARM GAS  C:\Users\Thomas\AppData\Local\Temp\cc4WQuXD.s 			page 41


  41:.\Generated_Source\PSoC5/P1.c **** *
  42:.\Generated_Source\PSoC5/P1.c **** *******************************************************************************/
  43:.\Generated_Source\PSoC5/P1.c **** void P1_Start(void) 
  44:.\Generated_Source\PSoC5/P1.c **** {
 530              		.loc 1 44 0
 531              		.cfi_startproc
 532              		@ args = 0, pretend = 0, frame = 0
 533              		@ frame_needed = 0, uses_anonymous_args = 0
 534 0000 08B5     		push	{r3, lr}
 535              		.cfi_def_cfa_offset 8
 536              		.cfi_offset 3, -8
 537              		.cfi_offset 14, -4
  45:.\Generated_Source\PSoC5/P1.c ****     if(0u == P1_initVar)
 538              		.loc 1 45 0
 539 0002 0E4A     		ldr	r2, .L5
 540 0004 1378     		ldrb	r3, [r2]	@ zero_extendqisi2
 541 0006 4BB9     		cbnz	r3, .L2
 542              	.LVL0:
 543              	.LBB19:
 544              	.LBB20:
 545              	.LBB21:
  46:.\Generated_Source\PSoC5/P1.c ****     {
  47:.\Generated_Source\PSoC5/P1.c ****         P1_Init();
  48:.\Generated_Source\PSoC5/P1.c ****         P1_initVar = 1u; /* Component initialized */
  49:.\Generated_Source\PSoC5/P1.c ****     }
  50:.\Generated_Source\PSoC5/P1.c **** 
  51:.\Generated_Source\PSoC5/P1.c ****     P1_Enable();
  52:.\Generated_Source\PSoC5/P1.c **** }
  53:.\Generated_Source\PSoC5/P1.c **** 
  54:.\Generated_Source\PSoC5/P1.c **** 
  55:.\Generated_Source\PSoC5/P1.c **** /*******************************************************************************
  56:.\Generated_Source\PSoC5/P1.c **** * Function Name: P1_Enable
  57:.\Generated_Source\PSoC5/P1.c **** ********************************************************************************
  58:.\Generated_Source\PSoC5/P1.c **** *
  59:.\Generated_Source\PSoC5/P1.c **** * Summary:
  60:.\Generated_Source\PSoC5/P1.c **** *  Enables the Shift Register.
  61:.\Generated_Source\PSoC5/P1.c **** *
  62:.\Generated_Source\PSoC5/P1.c **** * Parameters:
  63:.\Generated_Source\PSoC5/P1.c **** *  void.
  64:.\Generated_Source\PSoC5/P1.c **** *
  65:.\Generated_Source\PSoC5/P1.c **** * Return:
  66:.\Generated_Source\PSoC5/P1.c **** *  void.
  67:.\Generated_Source\PSoC5/P1.c **** *
  68:.\Generated_Source\PSoC5/P1.c **** *******************************************************************************/
  69:.\Generated_Source\PSoC5/P1.c **** void P1_Enable(void) 
  70:.\Generated_Source\PSoC5/P1.c **** {
  71:.\Generated_Source\PSoC5/P1.c ****     /* Changing address in Datapath Control Store
  72:.\Generated_Source\PSoC5/P1.c ****        from NOP to component state machine commands space */
  73:.\Generated_Source\PSoC5/P1.c ****     P1_SR_CONTROL |= P1_CLK_EN;
  74:.\Generated_Source\PSoC5/P1.c **** 
  75:.\Generated_Source\PSoC5/P1.c ****     P1_EnableInt();
  76:.\Generated_Source\PSoC5/P1.c **** }
  77:.\Generated_Source\PSoC5/P1.c **** 
  78:.\Generated_Source\PSoC5/P1.c **** 
  79:.\Generated_Source\PSoC5/P1.c **** /*******************************************************************************
  80:.\Generated_Source\PSoC5/P1.c **** * Function Name: P1_Init
  81:.\Generated_Source\PSoC5/P1.c **** ********************************************************************************
ARM GAS  C:\Users\Thomas\AppData\Local\Temp\cc4WQuXD.s 			page 42


  82:.\Generated_Source\PSoC5/P1.c **** *
  83:.\Generated_Source\PSoC5/P1.c **** * Summary:
  84:.\Generated_Source\PSoC5/P1.c **** *  Initializes Tx and/or Rx interrupt sources with initial values.
  85:.\Generated_Source\PSoC5/P1.c **** *
  86:.\Generated_Source\PSoC5/P1.c **** * Parameters:
  87:.\Generated_Source\PSoC5/P1.c **** *  void.
  88:.\Generated_Source\PSoC5/P1.c **** *
  89:.\Generated_Source\PSoC5/P1.c **** * Return:
  90:.\Generated_Source\PSoC5/P1.c **** *  void.
  91:.\Generated_Source\PSoC5/P1.c **** *
  92:.\Generated_Source\PSoC5/P1.c **** *******************************************************************************/
  93:.\Generated_Source\PSoC5/P1.c **** void P1_Init(void) 
  94:.\Generated_Source\PSoC5/P1.c **** {
  95:.\Generated_Source\PSoC5/P1.c ****     P1_SetIntMode(P1_INT_SRC);
  96:.\Generated_Source\PSoC5/P1.c **** }
  97:.\Generated_Source\PSoC5/P1.c **** 
  98:.\Generated_Source\PSoC5/P1.c **** 
  99:.\Generated_Source\PSoC5/P1.c **** /*******************************************************************************
 100:.\Generated_Source\PSoC5/P1.c **** * Function Name: P1_Stop
 101:.\Generated_Source\PSoC5/P1.c **** ********************************************************************************
 102:.\Generated_Source\PSoC5/P1.c **** *
 103:.\Generated_Source\PSoC5/P1.c **** * Summary:
 104:.\Generated_Source\PSoC5/P1.c **** *  Disables the Shift Register
 105:.\Generated_Source\PSoC5/P1.c **** *
 106:.\Generated_Source\PSoC5/P1.c **** * Parameters:
 107:.\Generated_Source\PSoC5/P1.c **** *  None.
 108:.\Generated_Source\PSoC5/P1.c **** *
 109:.\Generated_Source\PSoC5/P1.c **** * Return:
 110:.\Generated_Source\PSoC5/P1.c **** *  None.
 111:.\Generated_Source\PSoC5/P1.c **** *
 112:.\Generated_Source\PSoC5/P1.c **** *******************************************************************************/
 113:.\Generated_Source\PSoC5/P1.c **** void P1_Stop(void) 
 114:.\Generated_Source\PSoC5/P1.c **** {
 115:.\Generated_Source\PSoC5/P1.c ****     /*changing Datapath Control Store address to NOP space*/
 116:.\Generated_Source\PSoC5/P1.c ****     P1_SR_CONTROL &= ((uint8) ~P1_CLK_EN);
 117:.\Generated_Source\PSoC5/P1.c ****     P1_DisableInt();
 118:.\Generated_Source\PSoC5/P1.c **** }
 119:.\Generated_Source\PSoC5/P1.c **** 
 120:.\Generated_Source\PSoC5/P1.c **** 
 121:.\Generated_Source\PSoC5/P1.c **** /*******************************************************************************
 122:.\Generated_Source\PSoC5/P1.c **** * Function Name: P1_EnableInt
 123:.\Generated_Source\PSoC5/P1.c **** ********************************************************************************
 124:.\Generated_Source\PSoC5/P1.c **** *
 125:.\Generated_Source\PSoC5/P1.c **** * Summary:
 126:.\Generated_Source\PSoC5/P1.c **** *  Enables the Shift Register interrupt.
 127:.\Generated_Source\PSoC5/P1.c **** *
 128:.\Generated_Source\PSoC5/P1.c **** * Parameters:
 129:.\Generated_Source\PSoC5/P1.c **** *  None.
 130:.\Generated_Source\PSoC5/P1.c **** *
 131:.\Generated_Source\PSoC5/P1.c **** * Return:
 132:.\Generated_Source\PSoC5/P1.c **** *  None.
 133:.\Generated_Source\PSoC5/P1.c **** *
 134:.\Generated_Source\PSoC5/P1.c **** *******************************************************************************/
 135:.\Generated_Source\PSoC5/P1.c **** void P1_EnableInt(void) 
 136:.\Generated_Source\PSoC5/P1.c **** {
 137:.\Generated_Source\PSoC5/P1.c ****     uint8 interruptState;
 138:.\Generated_Source\PSoC5/P1.c **** 
ARM GAS  C:\Users\Thomas\AppData\Local\Temp\cc4WQuXD.s 			page 43


 139:.\Generated_Source\PSoC5/P1.c ****     interruptState = CyEnterCriticalSection();
 140:.\Generated_Source\PSoC5/P1.c ****     P1_SR_AUX_CONTROL |= P1_INTERRUPTS_ENABLE;
 141:.\Generated_Source\PSoC5/P1.c ****     CyExitCriticalSection(interruptState);
 142:.\Generated_Source\PSoC5/P1.c **** }
 143:.\Generated_Source\PSoC5/P1.c **** 
 144:.\Generated_Source\PSoC5/P1.c **** 
 145:.\Generated_Source\PSoC5/P1.c **** /*******************************************************************************
 146:.\Generated_Source\PSoC5/P1.c **** * Function Name: P1_DisableInt
 147:.\Generated_Source\PSoC5/P1.c **** ********************************************************************************
 148:.\Generated_Source\PSoC5/P1.c **** *
 149:.\Generated_Source\PSoC5/P1.c **** * Summary:
 150:.\Generated_Source\PSoC5/P1.c **** *  Disables the Shift Register interrupt.
 151:.\Generated_Source\PSoC5/P1.c **** *
 152:.\Generated_Source\PSoC5/P1.c **** * Parameters:
 153:.\Generated_Source\PSoC5/P1.c **** *  None.
 154:.\Generated_Source\PSoC5/P1.c **** *
 155:.\Generated_Source\PSoC5/P1.c **** * Return:
 156:.\Generated_Source\PSoC5/P1.c **** *  None.
 157:.\Generated_Source\PSoC5/P1.c **** *
 158:.\Generated_Source\PSoC5/P1.c **** *******************************************************************************/
 159:.\Generated_Source\PSoC5/P1.c **** void P1_DisableInt(void) 
 160:.\Generated_Source\PSoC5/P1.c **** {
 161:.\Generated_Source\PSoC5/P1.c ****     uint8 interruptState;
 162:.\Generated_Source\PSoC5/P1.c **** 
 163:.\Generated_Source\PSoC5/P1.c ****     interruptState = CyEnterCriticalSection();
 164:.\Generated_Source\PSoC5/P1.c ****     P1_SR_AUX_CONTROL &= ((uint8) ~P1_INTERRUPTS_ENABLE);
 165:.\Generated_Source\PSoC5/P1.c ****     CyExitCriticalSection(interruptState);
 166:.\Generated_Source\PSoC5/P1.c **** }
 167:.\Generated_Source\PSoC5/P1.c **** 
 168:.\Generated_Source\PSoC5/P1.c **** 
 169:.\Generated_Source\PSoC5/P1.c **** /*******************************************************************************
 170:.\Generated_Source\PSoC5/P1.c **** * Function Name: P1_GetFIFOStatus
 171:.\Generated_Source\PSoC5/P1.c **** ********************************************************************************
 172:.\Generated_Source\PSoC5/P1.c **** *
 173:.\Generated_Source\PSoC5/P1.c **** * Summary:
 174:.\Generated_Source\PSoC5/P1.c **** *  Returns current status of input or output FIFO.
 175:.\Generated_Source\PSoC5/P1.c **** *
 176:.\Generated_Source\PSoC5/P1.c **** * Parameters:
 177:.\Generated_Source\PSoC5/P1.c **** *  fifoId.
 178:.\Generated_Source\PSoC5/P1.c **** *
 179:.\Generated_Source\PSoC5/P1.c **** * Return:
 180:.\Generated_Source\PSoC5/P1.c **** *  FIFO status.
 181:.\Generated_Source\PSoC5/P1.c **** *
 182:.\Generated_Source\PSoC5/P1.c **** *******************************************************************************/
 183:.\Generated_Source\PSoC5/P1.c **** uint8 P1_GetFIFOStatus(uint8 fifoId) 
 184:.\Generated_Source\PSoC5/P1.c **** {
 185:.\Generated_Source\PSoC5/P1.c ****     uint8 result;
 186:.\Generated_Source\PSoC5/P1.c **** 
 187:.\Generated_Source\PSoC5/P1.c ****     result = P1_RET_FIFO_NOT_DEFINED;
 188:.\Generated_Source\PSoC5/P1.c **** 
 189:.\Generated_Source\PSoC5/P1.c ****     #if(0u != P1_USE_INPUT_FIFO)
 190:.\Generated_Source\PSoC5/P1.c ****         if(P1_IN_FIFO == fifoId)
 191:.\Generated_Source\PSoC5/P1.c ****         {
 192:.\Generated_Source\PSoC5/P1.c ****             switch(P1_GET_IN_FIFO_STS)
 193:.\Generated_Source\PSoC5/P1.c ****             {
 194:.\Generated_Source\PSoC5/P1.c ****                 case P1_IN_FIFO_FULL :
 195:.\Generated_Source\PSoC5/P1.c ****                     result = P1_RET_FIFO_FULL;
ARM GAS  C:\Users\Thomas\AppData\Local\Temp\cc4WQuXD.s 			page 44


 196:.\Generated_Source\PSoC5/P1.c ****                     break;
 197:.\Generated_Source\PSoC5/P1.c **** 
 198:.\Generated_Source\PSoC5/P1.c ****                 case P1_IN_FIFO_EMPTY :
 199:.\Generated_Source\PSoC5/P1.c ****                     result = P1_RET_FIFO_EMPTY;
 200:.\Generated_Source\PSoC5/P1.c ****                     break;
 201:.\Generated_Source\PSoC5/P1.c **** 
 202:.\Generated_Source\PSoC5/P1.c ****                 case P1_IN_FIFO_PARTIAL:
 203:.\Generated_Source\PSoC5/P1.c ****                     result = P1_RET_FIFO_PARTIAL;
 204:.\Generated_Source\PSoC5/P1.c ****                     break;
 205:.\Generated_Source\PSoC5/P1.c ****                     
 206:.\Generated_Source\PSoC5/P1.c ****                 default:
 207:.\Generated_Source\PSoC5/P1.c ****                     /* Initial result value, while 
 208:.\Generated_Source\PSoC5/P1.c ****                        IN_FIFO_EMPTY case is false 
 209:.\Generated_Source\PSoC5/P1.c ****                      */
 210:.\Generated_Source\PSoC5/P1.c ****                     result = P1_RET_FIFO_EMPTY;
 211:.\Generated_Source\PSoC5/P1.c ****                     break;
 212:.\Generated_Source\PSoC5/P1.c ****             }   
 213:.\Generated_Source\PSoC5/P1.c ****         }
 214:.\Generated_Source\PSoC5/P1.c ****     #endif /* (0u != P1_USE_INPUT_FIFO) */
 215:.\Generated_Source\PSoC5/P1.c **** 
 216:.\Generated_Source\PSoC5/P1.c ****     if(P1_OUT_FIFO == fifoId)
 217:.\Generated_Source\PSoC5/P1.c ****     {
 218:.\Generated_Source\PSoC5/P1.c ****         switch(P1_GET_OUT_FIFO_STS)
 219:.\Generated_Source\PSoC5/P1.c ****         {
 220:.\Generated_Source\PSoC5/P1.c ****             case P1_OUT_FIFO_FULL :
 221:.\Generated_Source\PSoC5/P1.c ****                 result = P1_RET_FIFO_FULL;
 222:.\Generated_Source\PSoC5/P1.c ****                 break;
 223:.\Generated_Source\PSoC5/P1.c **** 
 224:.\Generated_Source\PSoC5/P1.c ****             case P1_OUT_FIFO_EMPTY :
 225:.\Generated_Source\PSoC5/P1.c ****                 result = P1_RET_FIFO_EMPTY;
 226:.\Generated_Source\PSoC5/P1.c ****                 break;
 227:.\Generated_Source\PSoC5/P1.c **** 
 228:.\Generated_Source\PSoC5/P1.c ****             case P1_OUT_FIFO_PARTIAL :
 229:.\Generated_Source\PSoC5/P1.c ****                 result = P1_RET_FIFO_PARTIAL;
 230:.\Generated_Source\PSoC5/P1.c ****                 break;
 231:.\Generated_Source\PSoC5/P1.c **** 
 232:.\Generated_Source\PSoC5/P1.c ****             default:
 233:.\Generated_Source\PSoC5/P1.c ****                 /* Initial result value, while 
 234:.\Generated_Source\PSoC5/P1.c ****                    OUT_FIFO_FULL case is false 
 235:.\Generated_Source\PSoC5/P1.c ****                  */
 236:.\Generated_Source\PSoC5/P1.c ****                 result = P1_RET_FIFO_FULL;
 237:.\Generated_Source\PSoC5/P1.c ****                 break;
 238:.\Generated_Source\PSoC5/P1.c ****         }
 239:.\Generated_Source\PSoC5/P1.c ****     }
 240:.\Generated_Source\PSoC5/P1.c **** 
 241:.\Generated_Source\PSoC5/P1.c ****     return(result);
 242:.\Generated_Source\PSoC5/P1.c **** }
 243:.\Generated_Source\PSoC5/P1.c **** 
 244:.\Generated_Source\PSoC5/P1.c **** 
 245:.\Generated_Source\PSoC5/P1.c **** /*******************************************************************************
 246:.\Generated_Source\PSoC5/P1.c **** * Function Name: P1_SetIntMode
 247:.\Generated_Source\PSoC5/P1.c **** ********************************************************************************
 248:.\Generated_Source\PSoC5/P1.c **** *
 249:.\Generated_Source\PSoC5/P1.c **** * Summary:
 250:.\Generated_Source\PSoC5/P1.c **** *  Sets the Interrupt Source for the Shift Register interrupt. Multiple
 251:.\Generated_Source\PSoC5/P1.c **** *  sources may be ORed together
 252:.\Generated_Source\PSoC5/P1.c **** *
ARM GAS  C:\Users\Thomas\AppData\Local\Temp\cc4WQuXD.s 			page 45


 253:.\Generated_Source\PSoC5/P1.c **** * Parameters:
 254:.\Generated_Source\PSoC5/P1.c **** *  interruptSource: Byte containing the constant for the selected interrupt
 255:.\Generated_Source\PSoC5/P1.c **** *  source/s.
 256:.\Generated_Source\PSoC5/P1.c **** *
 257:.\Generated_Source\PSoC5/P1.c **** * Return:
 258:.\Generated_Source\PSoC5/P1.c **** *  None.
 259:.\Generated_Source\PSoC5/P1.c **** *
 260:.\Generated_Source\PSoC5/P1.c **** *******************************************************************************/
 261:.\Generated_Source\PSoC5/P1.c **** void P1_SetIntMode(uint8 interruptSource) 
 262:.\Generated_Source\PSoC5/P1.c **** {
 263:.\Generated_Source\PSoC5/P1.c ****     P1_SR_STATUS_MASK &= ((uint8) ~P1_INTS_EN_MASK);          /* Clear existing int */
 546              		.loc 1 263 0
 547 0008 0D4B     		ldr	r3, .L5+4
 548              	.LBE21:
 549              	.LBE20:
 550              	.LBE19:
  48:.\Generated_Source\PSoC5/P1.c ****     }
 551              		.loc 1 48 0
 552 000a 0120     		movs	r0, #1
 553              	.LBB24:
 554              	.LBB23:
 555              	.LBB22:
 556              		.loc 1 263 0
 557 000c 1978     		ldrb	r1, [r3]	@ zero_extendqisi2
 558 000e 01F0F801 		and	r1, r1, #248
 559 0012 1970     		strb	r1, [r3]
 264:.\Generated_Source\PSoC5/P1.c ****     P1_SR_STATUS_MASK |= (interruptSource & P1_INTS_EN_MASK); /* Set int */
 560              		.loc 1 264 0
 561 0014 1978     		ldrb	r1, [r3]	@ zero_extendqisi2
 562 0016 0143     		orrs	r1, r1, r0
 563 0018 1970     		strb	r1, [r3]
 564              	.LBE22:
 565              	.LBE23:
 566              	.LBE24:
  48:.\Generated_Source\PSoC5/P1.c ****     }
 567              		.loc 1 48 0
 568 001a 1070     		strb	r0, [r2]
 569              	.LVL1:
 570              	.L2:
 571              	.LBB25:
 572              	.LBB26:
  73:.\Generated_Source\PSoC5/P1.c **** 
 573              		.loc 1 73 0
 574 001c 094A     		ldr	r2, .L5+8
 575 001e 1378     		ldrb	r3, [r2]	@ zero_extendqisi2
 576 0020 43F00103 		orr	r3, r3, #1
 577 0024 1370     		strb	r3, [r2]
 578              	.LBB27:
 579              	.LBB28:
 139:.\Generated_Source\PSoC5/P1.c ****     P1_SR_AUX_CONTROL |= P1_INTERRUPTS_ENABLE;
 580              		.loc 1 139 0
 581 0026 FFF7FEFF 		bl	CyEnterCriticalSection
 582              	.LVL2:
 140:.\Generated_Source\PSoC5/P1.c ****     CyExitCriticalSection(interruptState);
 583              		.loc 1 140 0
 584 002a 074A     		ldr	r2, .L5+12
 585 002c 1378     		ldrb	r3, [r2]	@ zero_extendqisi2
ARM GAS  C:\Users\Thomas\AppData\Local\Temp\cc4WQuXD.s 			page 46


 586 002e 43F01003 		orr	r3, r3, #16
 587 0032 1370     		strb	r3, [r2]
 588              	.LBE28:
 589              	.LBE27:
 590              	.LBE26:
 591              	.LBE25:
  52:.\Generated_Source\PSoC5/P1.c **** 
 592              		.loc 1 52 0
 593 0034 BDE80840 		pop	{r3, lr}
 594              		.cfi_restore 14
 595              		.cfi_restore 3
 596              		.cfi_def_cfa_offset 0
 597              	.LBB32:
 598              	.LBB31:
 599              	.LBB30:
 600              	.LBB29:
 141:.\Generated_Source\PSoC5/P1.c **** }
 601              		.loc 1 141 0
 602 0038 FFF7FEBF 		b	CyExitCriticalSection
 603              	.LVL3:
 604              	.L6:
 605              		.align	2
 606              	.L5:
 607 003c 00000000 		.word	.LANCHOR0
 608 0040 89640040 		.word	1073767561
 609 0044 79640040 		.word	1073767545
 610 0048 99640040 		.word	1073767577
 611              	.LBE29:
 612              	.LBE30:
 613              	.LBE31:
 614              	.LBE32:
 615              		.cfi_endproc
 616              	.LFE0:
 617              		.size	P1_Start, .-P1_Start
 618              		.section	.text.P1_Enable,"ax",%progbits
 619              		.align	2
 620              		.global	P1_Enable
 621              		.thumb
 622              		.thumb_func
 623              		.type	P1_Enable, %function
 624              	P1_Enable:
 625              	.LFB1:
  70:.\Generated_Source\PSoC5/P1.c ****     /* Changing address in Datapath Control Store
 626              		.loc 1 70 0
 627              		.cfi_startproc
 628              		@ args = 0, pretend = 0, frame = 0
 629              		@ frame_needed = 0, uses_anonymous_args = 0
 630 0000 08B5     		push	{r3, lr}
 631              		.cfi_def_cfa_offset 8
 632              		.cfi_offset 3, -8
 633              		.cfi_offset 14, -4
  73:.\Generated_Source\PSoC5/P1.c **** 
 634              		.loc 1 73 0
 635 0002 084A     		ldr	r2, .L9
 636 0004 1378     		ldrb	r3, [r2]	@ zero_extendqisi2
 637 0006 43F00103 		orr	r3, r3, #1
 638 000a 1370     		strb	r3, [r2]
ARM GAS  C:\Users\Thomas\AppData\Local\Temp\cc4WQuXD.s 			page 47


 639              	.LBB35:
 640              	.LBB36:
 139:.\Generated_Source\PSoC5/P1.c ****     P1_SR_AUX_CONTROL |= P1_INTERRUPTS_ENABLE;
 641              		.loc 1 139 0
 642 000c FFF7FEFF 		bl	CyEnterCriticalSection
 643              	.LVL4:
 140:.\Generated_Source\PSoC5/P1.c ****     CyExitCriticalSection(interruptState);
 644              		.loc 1 140 0
 645 0010 054A     		ldr	r2, .L9+4
 646 0012 1378     		ldrb	r3, [r2]	@ zero_extendqisi2
 647 0014 43F01003 		orr	r3, r3, #16
 648 0018 1370     		strb	r3, [r2]
 649              	.LBE36:
 650              	.LBE35:
  76:.\Generated_Source\PSoC5/P1.c **** 
 651              		.loc 1 76 0
 652 001a BDE80840 		pop	{r3, lr}
 653              		.cfi_restore 14
 654              		.cfi_restore 3
 655              		.cfi_def_cfa_offset 0
 656              	.LBB38:
 657              	.LBB37:
 141:.\Generated_Source\PSoC5/P1.c **** }
 658              		.loc 1 141 0
 659 001e FFF7FEBF 		b	CyExitCriticalSection
 660              	.LVL5:
 661              	.L10:
 662 0022 00BF     		.align	2
 663              	.L9:
 664 0024 79640040 		.word	1073767545
 665 0028 99640040 		.word	1073767577
 666              	.LBE37:
 667              	.LBE38:
 668              		.cfi_endproc
 669              	.LFE1:
 670              		.size	P1_Enable, .-P1_Enable
 671              		.section	.text.P1_Init,"ax",%progbits
 672              		.align	2
 673              		.global	P1_Init
 674              		.thumb
 675              		.thumb_func
 676              		.type	P1_Init, %function
 677              	P1_Init:
 678              	.LFB2:
  94:.\Generated_Source\PSoC5/P1.c ****     P1_SetIntMode(P1_INT_SRC);
 679              		.loc 1 94 0
 680              		.cfi_startproc
 681              		@ args = 0, pretend = 0, frame = 0
 682              		@ frame_needed = 0, uses_anonymous_args = 0
 683              		@ link register save eliminated.
 684              	.LVL6:
 685              	.LBB39:
 686              	.LBB40:
 263:.\Generated_Source\PSoC5/P1.c ****     P1_SR_STATUS_MASK |= (interruptSource & P1_INTS_EN_MASK); /* Set int */
 687              		.loc 1 263 0
 688 0000 044B     		ldr	r3, .L12
 689 0002 1A78     		ldrb	r2, [r3]	@ zero_extendqisi2
ARM GAS  C:\Users\Thomas\AppData\Local\Temp\cc4WQuXD.s 			page 48


 690 0004 02F0F802 		and	r2, r2, #248
 691 0008 1A70     		strb	r2, [r3]
 692              		.loc 1 264 0
 693 000a 1A78     		ldrb	r2, [r3]	@ zero_extendqisi2
 694 000c 42F00102 		orr	r2, r2, #1
 695 0010 1A70     		strb	r2, [r3]
 696 0012 7047     		bx	lr
 697              	.L13:
 698              		.align	2
 699              	.L12:
 700 0014 89640040 		.word	1073767561
 701              	.LBE40:
 702              	.LBE39:
 703              		.cfi_endproc
 704              	.LFE2:
 705              		.size	P1_Init, .-P1_Init
 706              		.section	.text.P1_Stop,"ax",%progbits
 707              		.align	2
 708              		.global	P1_Stop
 709              		.thumb
 710              		.thumb_func
 711              		.type	P1_Stop, %function
 712              	P1_Stop:
 713              	.LFB3:
 114:.\Generated_Source\PSoC5/P1.c ****     /*changing Datapath Control Store address to NOP space*/
 714              		.loc 1 114 0
 715              		.cfi_startproc
 716              		@ args = 0, pretend = 0, frame = 0
 717              		@ frame_needed = 0, uses_anonymous_args = 0
 718 0000 08B5     		push	{r3, lr}
 719              		.cfi_def_cfa_offset 8
 720              		.cfi_offset 3, -8
 721              		.cfi_offset 14, -4
 116:.\Generated_Source\PSoC5/P1.c ****     P1_DisableInt();
 722              		.loc 1 116 0
 723 0002 084A     		ldr	r2, .L16
 724 0004 1378     		ldrb	r3, [r2]	@ zero_extendqisi2
 725 0006 03F0FE03 		and	r3, r3, #254
 726 000a 1370     		strb	r3, [r2]
 727              	.LBB43:
 728              	.LBB44:
 163:.\Generated_Source\PSoC5/P1.c ****     P1_SR_AUX_CONTROL &= ((uint8) ~P1_INTERRUPTS_ENABLE);
 729              		.loc 1 163 0
 730 000c FFF7FEFF 		bl	CyEnterCriticalSection
 731              	.LVL7:
 164:.\Generated_Source\PSoC5/P1.c ****     CyExitCriticalSection(interruptState);
 732              		.loc 1 164 0
 733 0010 054A     		ldr	r2, .L16+4
 734 0012 1378     		ldrb	r3, [r2]	@ zero_extendqisi2
 735 0014 03F0EF03 		and	r3, r3, #239
 736 0018 1370     		strb	r3, [r2]
 737              	.LBE44:
 738              	.LBE43:
 118:.\Generated_Source\PSoC5/P1.c **** 
 739              		.loc 1 118 0
 740 001a BDE80840 		pop	{r3, lr}
 741              		.cfi_restore 14
ARM GAS  C:\Users\Thomas\AppData\Local\Temp\cc4WQuXD.s 			page 49


 742              		.cfi_restore 3
 743              		.cfi_def_cfa_offset 0
 744              	.LBB46:
 745              	.LBB45:
 165:.\Generated_Source\PSoC5/P1.c **** }
 746              		.loc 1 165 0
 747 001e FFF7FEBF 		b	CyExitCriticalSection
 748              	.LVL8:
 749              	.L17:
 750 0022 00BF     		.align	2
 751              	.L16:
 752 0024 79640040 		.word	1073767545
 753 0028 99640040 		.word	1073767577
 754              	.LBE45:
 755              	.LBE46:
 756              		.cfi_endproc
 757              	.LFE3:
 758              		.size	P1_Stop, .-P1_Stop
 759              		.section	.text.P1_EnableInt,"ax",%progbits
 760              		.align	2
 761              		.global	P1_EnableInt
 762              		.thumb
 763              		.thumb_func
 764              		.type	P1_EnableInt, %function
 765              	P1_EnableInt:
 766              	.LFB4:
 136:.\Generated_Source\PSoC5/P1.c ****     uint8 interruptState;
 767              		.loc 1 136 0
 768              		.cfi_startproc
 769              		@ args = 0, pretend = 0, frame = 0
 770              		@ frame_needed = 0, uses_anonymous_args = 0
 771 0000 08B5     		push	{r3, lr}
 772              		.cfi_def_cfa_offset 8
 773              		.cfi_offset 3, -8
 774              		.cfi_offset 14, -4
 139:.\Generated_Source\PSoC5/P1.c ****     P1_SR_AUX_CONTROL |= P1_INTERRUPTS_ENABLE;
 775              		.loc 1 139 0
 776 0002 FFF7FEFF 		bl	CyEnterCriticalSection
 777              	.LVL9:
 140:.\Generated_Source\PSoC5/P1.c ****     CyExitCriticalSection(interruptState);
 778              		.loc 1 140 0
 779 0006 044A     		ldr	r2, .L20
 780 0008 1378     		ldrb	r3, [r2]	@ zero_extendqisi2
 781 000a 43F01003 		orr	r3, r3, #16
 782 000e 1370     		strb	r3, [r2]
 142:.\Generated_Source\PSoC5/P1.c **** 
 783              		.loc 1 142 0
 784 0010 BDE80840 		pop	{r3, lr}
 785              		.cfi_restore 14
 786              		.cfi_restore 3
 787              		.cfi_def_cfa_offset 0
 141:.\Generated_Source\PSoC5/P1.c **** }
 788              		.loc 1 141 0
 789 0014 FFF7FEBF 		b	CyExitCriticalSection
 790              	.LVL10:
 791              	.L21:
 792              		.align	2
ARM GAS  C:\Users\Thomas\AppData\Local\Temp\cc4WQuXD.s 			page 50


 793              	.L20:
 794 0018 99640040 		.word	1073767577
 795              		.cfi_endproc
 796              	.LFE4:
 797              		.size	P1_EnableInt, .-P1_EnableInt
 798              		.section	.text.P1_DisableInt,"ax",%progbits
 799              		.align	2
 800              		.global	P1_DisableInt
 801              		.thumb
 802              		.thumb_func
 803              		.type	P1_DisableInt, %function
 804              	P1_DisableInt:
 805              	.LFB5:
 160:.\Generated_Source\PSoC5/P1.c ****     uint8 interruptState;
 806              		.loc 1 160 0
 807              		.cfi_startproc
 808              		@ args = 0, pretend = 0, frame = 0
 809              		@ frame_needed = 0, uses_anonymous_args = 0
 810 0000 08B5     		push	{r3, lr}
 811              		.cfi_def_cfa_offset 8
 812              		.cfi_offset 3, -8
 813              		.cfi_offset 14, -4
 163:.\Generated_Source\PSoC5/P1.c ****     P1_SR_AUX_CONTROL &= ((uint8) ~P1_INTERRUPTS_ENABLE);
 814              		.loc 1 163 0
 815 0002 FFF7FEFF 		bl	CyEnterCriticalSection
 816              	.LVL11:
 164:.\Generated_Source\PSoC5/P1.c ****     CyExitCriticalSection(interruptState);
 817              		.loc 1 164 0
 818 0006 044A     		ldr	r2, .L24
 819 0008 1378     		ldrb	r3, [r2]	@ zero_extendqisi2
 820 000a 03F0EF03 		and	r3, r3, #239
 821 000e 1370     		strb	r3, [r2]
 166:.\Generated_Source\PSoC5/P1.c **** 
 822              		.loc 1 166 0
 823 0010 BDE80840 		pop	{r3, lr}
 824              		.cfi_restore 14
 825              		.cfi_restore 3
 826              		.cfi_def_cfa_offset 0
 165:.\Generated_Source\PSoC5/P1.c **** }
 827              		.loc 1 165 0
 828 0014 FFF7FEBF 		b	CyExitCriticalSection
 829              	.LVL12:
 830              	.L25:
 831              		.align	2
 832              	.L24:
 833 0018 99640040 		.word	1073767577
 834              		.cfi_endproc
 835              	.LFE5:
 836              		.size	P1_DisableInt, .-P1_DisableInt
 837              		.section	.text.P1_GetFIFOStatus,"ax",%progbits
 838              		.align	2
 839              		.global	P1_GetFIFOStatus
 840              		.thumb
 841              		.thumb_func
 842              		.type	P1_GetFIFOStatus, %function
 843              	P1_GetFIFOStatus:
 844              	.LFB6:
ARM GAS  C:\Users\Thomas\AppData\Local\Temp\cc4WQuXD.s 			page 51


 184:.\Generated_Source\PSoC5/P1.c ****     uint8 result;
 845              		.loc 1 184 0
 846              		.cfi_startproc
 847              		@ args = 0, pretend = 0, frame = 0
 848              		@ frame_needed = 0, uses_anonymous_args = 0
 849              		@ link register save eliminated.
 850              	.LVL13:
 216:.\Generated_Source\PSoC5/P1.c ****     {
 851              		.loc 1 216 0
 852 0000 0228     		cmp	r0, #2
 853 0002 01D0     		beq	.L32
 187:.\Generated_Source\PSoC5/P1.c **** 
 854              		.loc 1 187 0
 855 0004 FE20     		movs	r0, #254
 856              	.LVL14:
 857              	.L27:
 242:.\Generated_Source\PSoC5/P1.c **** 
 858              		.loc 1 242 0
 859 0006 7047     		bx	lr
 860              	.LVL15:
 861              	.L32:
 862              	.LBB49:
 863              	.LBB50:
 218:.\Generated_Source\PSoC5/P1.c ****         {
 864              		.loc 1 218 0
 865 0008 054B     		ldr	r3, .L33
 866 000a 1B78     		ldrb	r3, [r3]	@ zero_extendqisi2
 867 000c C3F34113 		ubfx	r3, r3, #5, #2
 868 0010 002B     		cmp	r3, #0
 869 0012 F8D0     		beq	.L27
 221:.\Generated_Source\PSoC5/P1.c ****                 break;
 870              		.loc 1 221 0
 871 0014 A3F10200 		sub	r0, r3, #2
 872              	.LVL16:
 873 0018 B0FA80F0 		clz	r0, r0
 874 001c 4009     		lsrs	r0, r0, #5
 875 001e 7047     		bx	lr
 876              	.L34:
 877              		.align	2
 878              	.L33:
 879 0020 69640040 		.word	1073767529
 880              	.LBE50:
 881              	.LBE49:
 882              		.cfi_endproc
 883              	.LFE6:
 884              		.size	P1_GetFIFOStatus, .-P1_GetFIFOStatus
 885              		.section	.text.P1_SetIntMode,"ax",%progbits
 886              		.align	2
 887              		.global	P1_SetIntMode
 888              		.thumb
 889              		.thumb_func
 890              		.type	P1_SetIntMode, %function
 891              	P1_SetIntMode:
 892              	.LFB7:
 262:.\Generated_Source\PSoC5/P1.c ****     P1_SR_STATUS_MASK &= ((uint8) ~P1_INTS_EN_MASK);          /* Clear existing int */
 893              		.loc 1 262 0
 894              		.cfi_startproc
ARM GAS  C:\Users\Thomas\AppData\Local\Temp\cc4WQuXD.s 			page 52


 895              		@ args = 0, pretend = 0, frame = 0
 896              		@ frame_needed = 0, uses_anonymous_args = 0
 897              		@ link register save eliminated.
 898              	.LVL17:
 263:.\Generated_Source\PSoC5/P1.c ****     P1_SR_STATUS_MASK |= (interruptSource & P1_INTS_EN_MASK); /* Set int */
 899              		.loc 1 263 0
 900 0000 054B     		ldr	r3, .L36
 901              		.loc 1 264 0
 902 0002 00F00700 		and	r0, r0, #7
 903              	.LVL18:
 263:.\Generated_Source\PSoC5/P1.c ****     P1_SR_STATUS_MASK |= (interruptSource & P1_INTS_EN_MASK); /* Set int */
 904              		.loc 1 263 0
 905 0006 1A78     		ldrb	r2, [r3]	@ zero_extendqisi2
 906 0008 02F0F802 		and	r2, r2, #248
 907 000c 1A70     		strb	r2, [r3]
 908              		.loc 1 264 0
 909 000e 1A78     		ldrb	r2, [r3]	@ zero_extendqisi2
 910 0010 1043     		orrs	r0, r0, r2
 911 0012 1870     		strb	r0, [r3]
 912 0014 7047     		bx	lr
 913              	.L37:
 914 0016 00BF     		.align	2
 915              	.L36:
 916 0018 89640040 		.word	1073767561
 917              		.cfi_endproc
 918              	.LFE7:
 919              		.size	P1_SetIntMode, .-P1_SetIntMode
 920              		.section	.text.P1_GetIntStatus,"ax",%progbits
 921              		.align	2
 922              		.global	P1_GetIntStatus
 923              		.thumb
 924              		.thumb_func
 925              		.type	P1_GetIntStatus, %function
 926              	P1_GetIntStatus:
 927              	.LFB8:
 265:.\Generated_Source\PSoC5/P1.c **** }
 266:.\Generated_Source\PSoC5/P1.c **** 
 267:.\Generated_Source\PSoC5/P1.c **** 
 268:.\Generated_Source\PSoC5/P1.c **** /*******************************************************************************
 269:.\Generated_Source\PSoC5/P1.c **** * Function Name: P1_GetIntStatus
 270:.\Generated_Source\PSoC5/P1.c **** ********************************************************************************
 271:.\Generated_Source\PSoC5/P1.c **** *
 272:.\Generated_Source\PSoC5/P1.c **** * Summary:
 273:.\Generated_Source\PSoC5/P1.c **** *  Gets the Shift Register Interrupt status.
 274:.\Generated_Source\PSoC5/P1.c **** *
 275:.\Generated_Source\PSoC5/P1.c **** * Parameters:
 276:.\Generated_Source\PSoC5/P1.c **** *  None.
 277:.\Generated_Source\PSoC5/P1.c **** *
 278:.\Generated_Source\PSoC5/P1.c **** * Return:
 279:.\Generated_Source\PSoC5/P1.c **** *  Byte containing the constant for the selected interrupt source/s.
 280:.\Generated_Source\PSoC5/P1.c **** *
 281:.\Generated_Source\PSoC5/P1.c **** *******************************************************************************/
 282:.\Generated_Source\PSoC5/P1.c **** uint8 P1_GetIntStatus(void) 
 283:.\Generated_Source\PSoC5/P1.c **** {
 928              		.loc 1 283 0
 929              		.cfi_startproc
 930              		@ args = 0, pretend = 0, frame = 0
ARM GAS  C:\Users\Thomas\AppData\Local\Temp\cc4WQuXD.s 			page 53


 931              		@ frame_needed = 0, uses_anonymous_args = 0
 932              		@ link register save eliminated.
 284:.\Generated_Source\PSoC5/P1.c ****     return(P1_SR_STATUS & P1_INTS_EN_MASK);
 933              		.loc 1 284 0
 934 0000 024B     		ldr	r3, .L39
 935 0002 1878     		ldrb	r0, [r3]	@ zero_extendqisi2
 285:.\Generated_Source\PSoC5/P1.c **** }
 936              		.loc 1 285 0
 937 0004 00F00700 		and	r0, r0, #7
 938 0008 7047     		bx	lr
 939              	.L40:
 940 000a 00BF     		.align	2
 941              	.L39:
 942 000c 69640040 		.word	1073767529
 943              		.cfi_endproc
 944              	.LFE8:
 945              		.size	P1_GetIntStatus, .-P1_GetIntStatus
 946              		.section	.text.P1_WriteRegValue,"ax",%progbits
 947              		.align	2
 948              		.global	P1_WriteRegValue
 949              		.thumb
 950              		.thumb_func
 951              		.type	P1_WriteRegValue, %function
 952              	P1_WriteRegValue:
 953              	.LFB9:
 286:.\Generated_Source\PSoC5/P1.c **** 
 287:.\Generated_Source\PSoC5/P1.c **** 
 288:.\Generated_Source\PSoC5/P1.c **** /*******************************************************************************
 289:.\Generated_Source\PSoC5/P1.c **** * Function Name: P1_WriteRegValue
 290:.\Generated_Source\PSoC5/P1.c **** ********************************************************************************
 291:.\Generated_Source\PSoC5/P1.c **** *
 292:.\Generated_Source\PSoC5/P1.c **** * Summary:
 293:.\Generated_Source\PSoC5/P1.c **** *  Send state directly to shift register
 294:.\Generated_Source\PSoC5/P1.c **** *
 295:.\Generated_Source\PSoC5/P1.c **** * Parameters:
 296:.\Generated_Source\PSoC5/P1.c **** *  shiftData: containing shift register state.
 297:.\Generated_Source\PSoC5/P1.c **** *
 298:.\Generated_Source\PSoC5/P1.c **** * Return:
 299:.\Generated_Source\PSoC5/P1.c **** *  None.
 300:.\Generated_Source\PSoC5/P1.c **** *
 301:.\Generated_Source\PSoC5/P1.c **** *******************************************************************************/
 302:.\Generated_Source\PSoC5/P1.c **** void P1_WriteRegValue(uint16 shiftData)
 303:.\Generated_Source\PSoC5/P1.c ****                                                                      
 304:.\Generated_Source\PSoC5/P1.c **** {
 954              		.loc 1 304 0
 955              		.cfi_startproc
 956              		@ args = 0, pretend = 0, frame = 0
 957              		@ frame_needed = 0, uses_anonymous_args = 0
 958              		@ link register save eliminated.
 959              	.LVL19:
 305:.\Generated_Source\PSoC5/P1.c ****     CY_SET_REG16(P1_SHIFT_REG_LSB_PTR, shiftData);
 960              		.loc 1 305 0
 961 0000 014B     		ldr	r3, .L42
 962 0002 1880     		strh	r0, [r3]	@ movhi
 963 0004 7047     		bx	lr
 964              	.L43:
 965 0006 00BF     		.align	2
ARM GAS  C:\Users\Thomas\AppData\Local\Temp\cc4WQuXD.s 			page 54


 966              	.L42:
 967 0008 08640040 		.word	1073767432
 968              		.cfi_endproc
 969              	.LFE9:
 970              		.size	P1_WriteRegValue, .-P1_WriteRegValue
 971              		.section	.text.P1_ReadRegValue,"ax",%progbits
 972              		.align	2
 973              		.global	P1_ReadRegValue
 974              		.thumb
 975              		.thumb_func
 976              		.type	P1_ReadRegValue, %function
 977              	P1_ReadRegValue:
 978              	.LFB10:
 306:.\Generated_Source\PSoC5/P1.c **** }
 307:.\Generated_Source\PSoC5/P1.c **** 
 308:.\Generated_Source\PSoC5/P1.c **** 
 309:.\Generated_Source\PSoC5/P1.c **** #if(0u != P1_USE_INPUT_FIFO)
 310:.\Generated_Source\PSoC5/P1.c ****     /*******************************************************************************
 311:.\Generated_Source\PSoC5/P1.c ****     * Function Name: P1_WriteData
 312:.\Generated_Source\PSoC5/P1.c ****     ********************************************************************************
 313:.\Generated_Source\PSoC5/P1.c ****     *
 314:.\Generated_Source\PSoC5/P1.c ****     * Summary:
 315:.\Generated_Source\PSoC5/P1.c ****     *  Send state to FIFO for later transfer to shift register based on the Load
 316:.\Generated_Source\PSoC5/P1.c ****     *  input
 317:.\Generated_Source\PSoC5/P1.c ****     *
 318:.\Generated_Source\PSoC5/P1.c ****     * Parameters:
 319:.\Generated_Source\PSoC5/P1.c ****     *  shiftData: containing shift register state.
 320:.\Generated_Source\PSoC5/P1.c ****     *
 321:.\Generated_Source\PSoC5/P1.c ****     * Return:
 322:.\Generated_Source\PSoC5/P1.c ****     *  Indicates: successful execution of function
 323:.\Generated_Source\PSoC5/P1.c ****     *  when FIFO is empty; and error when FIFO is full.
 324:.\Generated_Source\PSoC5/P1.c ****     *
 325:.\Generated_Source\PSoC5/P1.c ****     * Reentrant:
 326:.\Generated_Source\PSoC5/P1.c ****     *  No.
 327:.\Generated_Source\PSoC5/P1.c ****     *
 328:.\Generated_Source\PSoC5/P1.c ****     *******************************************************************************/
 329:.\Generated_Source\PSoC5/P1.c ****     cystatus P1_WriteData(uint16 shiftData)
 330:.\Generated_Source\PSoC5/P1.c ****                                                                          
 331:.\Generated_Source\PSoC5/P1.c ****     {
 332:.\Generated_Source\PSoC5/P1.c ****         cystatus result;
 333:.\Generated_Source\PSoC5/P1.c **** 
 334:.\Generated_Source\PSoC5/P1.c ****         result = CYRET_INVALID_STATE;
 335:.\Generated_Source\PSoC5/P1.c **** 
 336:.\Generated_Source\PSoC5/P1.c ****         /* Writes data into the input FIFO if it is not FULL */
 337:.\Generated_Source\PSoC5/P1.c ****         if(P1_RET_FIFO_FULL != (P1_GetFIFOStatus(P1_IN_FIFO)))
 338:.\Generated_Source\PSoC5/P1.c ****         {
 339:.\Generated_Source\PSoC5/P1.c ****             CY_SET_REG16(P1_IN_FIFO_VAL_LSB_PTR, shiftData);
 340:.\Generated_Source\PSoC5/P1.c ****             result = CYRET_SUCCESS;
 341:.\Generated_Source\PSoC5/P1.c ****         }
 342:.\Generated_Source\PSoC5/P1.c **** 
 343:.\Generated_Source\PSoC5/P1.c ****         return(result);
 344:.\Generated_Source\PSoC5/P1.c ****     }
 345:.\Generated_Source\PSoC5/P1.c **** #endif /* (0u != P1_USE_INPUT_FIFO) */
 346:.\Generated_Source\PSoC5/P1.c **** 
 347:.\Generated_Source\PSoC5/P1.c **** 
 348:.\Generated_Source\PSoC5/P1.c **** #if(0u != P1_USE_OUTPUT_FIFO)
 349:.\Generated_Source\PSoC5/P1.c ****     /*******************************************************************************
ARM GAS  C:\Users\Thomas\AppData\Local\Temp\cc4WQuXD.s 			page 55


 350:.\Generated_Source\PSoC5/P1.c ****     * Function Name: P1_ReadData
 351:.\Generated_Source\PSoC5/P1.c ****     ********************************************************************************
 352:.\Generated_Source\PSoC5/P1.c ****     *
 353:.\Generated_Source\PSoC5/P1.c ****     * Summary:
 354:.\Generated_Source\PSoC5/P1.c ****     *  Returns state in FIFO due to Store input.
 355:.\Generated_Source\PSoC5/P1.c ****     *
 356:.\Generated_Source\PSoC5/P1.c ****     * Parameters:
 357:.\Generated_Source\PSoC5/P1.c ****     *  None.
 358:.\Generated_Source\PSoC5/P1.c ****     *
 359:.\Generated_Source\PSoC5/P1.c ****     * Return:
 360:.\Generated_Source\PSoC5/P1.c ****     *  Shift Register state
 361:.\Generated_Source\PSoC5/P1.c ****     *
 362:.\Generated_Source\PSoC5/P1.c ****     * Reentrant:
 363:.\Generated_Source\PSoC5/P1.c ****     *  No.
 364:.\Generated_Source\PSoC5/P1.c ****     *
 365:.\Generated_Source\PSoC5/P1.c ****     *******************************************************************************/
 366:.\Generated_Source\PSoC5/P1.c ****     uint16 P1_ReadData(void) 
 367:.\Generated_Source\PSoC5/P1.c ****     {
 368:.\Generated_Source\PSoC5/P1.c ****         return(CY_GET_REG16(P1_OUT_FIFO_VAL_LSB_PTR));
 369:.\Generated_Source\PSoC5/P1.c ****     }
 370:.\Generated_Source\PSoC5/P1.c **** #endif /* (0u != P1_USE_OUTPUT_FIFO) */
 371:.\Generated_Source\PSoC5/P1.c **** 
 372:.\Generated_Source\PSoC5/P1.c **** 
 373:.\Generated_Source\PSoC5/P1.c **** /*******************************************************************************
 374:.\Generated_Source\PSoC5/P1.c **** * Function Name: P1_ReadRegValue
 375:.\Generated_Source\PSoC5/P1.c **** ********************************************************************************
 376:.\Generated_Source\PSoC5/P1.c **** *
 377:.\Generated_Source\PSoC5/P1.c **** * Summary:
 378:.\Generated_Source\PSoC5/P1.c **** *  Directly returns current state in shift register, not data in FIFO due
 379:.\Generated_Source\PSoC5/P1.c **** *  to Store input.
 380:.\Generated_Source\PSoC5/P1.c **** *
 381:.\Generated_Source\PSoC5/P1.c **** * Parameters:
 382:.\Generated_Source\PSoC5/P1.c **** *  None.
 383:.\Generated_Source\PSoC5/P1.c **** *
 384:.\Generated_Source\PSoC5/P1.c **** * Return:
 385:.\Generated_Source\PSoC5/P1.c **** *  Shift Register state. Clears output FIFO.
 386:.\Generated_Source\PSoC5/P1.c **** *
 387:.\Generated_Source\PSoC5/P1.c **** * Reentrant:
 388:.\Generated_Source\PSoC5/P1.c **** *  No.
 389:.\Generated_Source\PSoC5/P1.c **** *
 390:.\Generated_Source\PSoC5/P1.c **** *******************************************************************************/
 391:.\Generated_Source\PSoC5/P1.c **** uint16 P1_ReadRegValue(void) 
 392:.\Generated_Source\PSoC5/P1.c **** {
 979              		.loc 1 392 0
 980              		.cfi_startproc
 981              		@ args = 0, pretend = 0, frame = 0
 982              		@ frame_needed = 0, uses_anonymous_args = 0
 983              		@ link register save eliminated.
 984              	.LBB55:
 985              	.LBB56:
 986              	.LBB57:
 987              	.LBB58:
 218:.\Generated_Source\PSoC5/P1.c ****         {
 988              		.loc 1 218 0
 989 0000 064A     		ldr	r2, .L49
 990              	.LBE58:
 991              	.LBE57:
ARM GAS  C:\Users\Thomas\AppData\Local\Temp\cc4WQuXD.s 			page 56


 992              	.LBE56:
 993              	.LBE55:
 393:.\Generated_Source\PSoC5/P1.c ****     uint16 result;
 394:.\Generated_Source\PSoC5/P1.c **** 
 395:.\Generated_Source\PSoC5/P1.c ****     /* Clear FIFO before software capture */
 396:.\Generated_Source\PSoC5/P1.c ****     while(P1_RET_FIFO_EMPTY != P1_GetFIFOStatus(P1_OUT_FIFO))
 397:.\Generated_Source\PSoC5/P1.c ****     {
 398:.\Generated_Source\PSoC5/P1.c ****         (void) CY_GET_REG16(P1_OUT_FIFO_VAL_LSB_PTR);
 994              		.loc 1 398 0
 995 0002 0749     		ldr	r1, .L49+4
 396:.\Generated_Source\PSoC5/P1.c ****     {
 996              		.loc 1 396 0
 997 0004 00E0     		b	.L45
 998              	.LVL20:
 999              	.L48:
 1000              		.loc 1 398 0
 1001 0006 0B88     		ldrh	r3, [r1]
 1002              	.LVL21:
 1003              	.L45:
 1004              	.LBB62:
 1005              	.LBB61:
 1006              	.LBB60:
 1007              	.LBB59:
 218:.\Generated_Source\PSoC5/P1.c ****         {
 1008              		.loc 1 218 0
 1009 0008 1378     		ldrb	r3, [r2]	@ zero_extendqisi2
 1010 000a 13F0600F 		tst	r3, #96
 1011 000e FAD1     		bne	.L48
 1012              	.LVL22:
 1013              	.LBE59:
 1014              	.LBE60:
 1015              	.LBE61:
 1016              	.LBE62:
 399:.\Generated_Source\PSoC5/P1.c ****     }
 400:.\Generated_Source\PSoC5/P1.c **** 
 401:.\Generated_Source\PSoC5/P1.c ****     /* Read of 8 bits from A1 causes capture to output FIFO */
 402:.\Generated_Source\PSoC5/P1.c ****     (void) CY_GET_REG8(P1_SHIFT_REG_CAPTURE_PTR);
 403:.\Generated_Source\PSoC5/P1.c **** 
 404:.\Generated_Source\PSoC5/P1.c ****     /* Read output FIFO */
 405:.\Generated_Source\PSoC5/P1.c ****     result  = CY_GET_REG16(P1_OUT_FIFO_VAL_LSB_PTR);
 1017              		.loc 1 405 0
 1018 0010 034B     		ldr	r3, .L49+4
 402:.\Generated_Source\PSoC5/P1.c **** 
 1019              		.loc 1 402 0
 1020 0012 044A     		ldr	r2, .L49+8
 1021 0014 1278     		ldrb	r2, [r2]	@ zero_extendqisi2
 1022              		.loc 1 405 0
 1023 0016 1888     		ldrh	r0, [r3]
 1024              	.LVL23:
 406:.\Generated_Source\PSoC5/P1.c ****     
 407:.\Generated_Source\PSoC5/P1.c ****     #if(0u != (P1_SR_SIZE % 8u))
 408:.\Generated_Source\PSoC5/P1.c ****         result &= ((uint16) P1_SR_MASK);
 409:.\Generated_Source\PSoC5/P1.c ****     #endif /* (0u != (P1_SR_SIZE % 8u)) */
 410:.\Generated_Source\PSoC5/P1.c ****     
 411:.\Generated_Source\PSoC5/P1.c ****     return(result);
 412:.\Generated_Source\PSoC5/P1.c **** }
 1025              		.loc 1 412 0
ARM GAS  C:\Users\Thomas\AppData\Local\Temp\cc4WQuXD.s 			page 57


 1026 0018 80B2     		uxth	r0, r0
 1027 001a 7047     		bx	lr
 1028              	.L50:
 1029              		.align	2
 1030              	.L49:
 1031 001c 69640040 		.word	1073767529
 1032 0020 58640040 		.word	1073767512
 1033 0024 18640040 		.word	1073767448
 1034              		.cfi_endproc
 1035              	.LFE10:
 1036              		.size	P1_ReadRegValue, .-P1_ReadRegValue
 1037              		.global	P1_initVar
 1038              		.bss
 1039              		.set	.LANCHOR0,. + 0
 1040              		.type	P1_initVar, %object
 1041              		.size	P1_initVar, 1
 1042              	P1_initVar:
 1043 0000 00       		.space	1
 1044              		.text
 1045              	.Letext0:
 1046              		.file 2 ".\\Generated_Source\\PSoC5\\cytypes.h"
 1047              		.file 3 ".\\Generated_Source\\PSoC5\\CyLib.h"