ARM GAS  C:\Users\Thomas\AppData\Local\Temp\cc1FltvD.s 			page 1


   1              		.syntax unified
   2              		.cpu cortex-m3
   3              		.fpu softvfp
   4              		.eabi_attribute 20, 1
   5              		.eabi_attribute 21, 1
   6              		.eabi_attribute 23, 3
   7              		.eabi_attribute 24, 1
   8              		.eabi_attribute 25, 1
   9              		.eabi_attribute 26, 1
  10              		.eabi_attribute 30, 2
  11              		.eabi_attribute 34, 1
  12              		.eabi_attribute 18, 4
  13              		.thumb
  14              		.file	"P1_1.c"
  15              		.text
  16              	.Ltext0:
  17              		.section	.gnu.lto_.profile.bb5ce9de,"",%progbits
  18 0000 789C6366 		.ascii	"x\234cf```e\200\000F\206\265\214!\000\002\347\001\014"
  18      60606065 
  18      80004686 
  18      B58C2100 
  18      02E7010C 
  19              		.text
  20              		.section	.gnu.lto_.jmpfuncs.bb5ce9de,"",%progbits
  21 0000 789C6366 		.ascii	"x\234cf\300\016,\2414\017\0203\002A=\003\023\003\003"
  21      C00E2CA1 
  21      340F1033 
  21      02413D03 
  21      130303
  22 0013 33900DE4 		.ascii	"3\220\015\344\263\0001+\020\263C\270\034@\314\011R\302"
  22      B300312B 
  22      10B343B8 
  22      1C40CC09 
  22      52C2
  23 0025 C5C0C00D 		.ascii	"\305\300\300\015\242Az\030\000;\201\002\031"
  23      A2417A18 
  23      003B8102 
  23      19
  24              		.text
  25              		.section	.gnu.lto_.inline.bb5ce9de,"",%progbits
  26 0000 789C7D50 		.ascii	"x\234}P;\012\302@\024\234\367v\223M\326\200\237\302"
  26      3B0AC240 
  26      149CF776 
  26      934DD680 
  26      9FC2
  27 0012 2216B981 		.ascii	"\"\026\271\201\367\260\311\015\354\3656)E\004\323y\007"
  27      F7B0C90D 
  27      ECF53629 
  27      4504D379 
  27      07
  28 0023 F11076B6 		.ascii	"\361\020v\2666\202\245\202\215\235\263\006\202\212\272"
  28      3682A582 
  28      8D9DB306 
  28      828ABA
  29 0032 2C6F60DE 		.ascii	",o`\336\314\354{k\360\375L\244\301\214\327\011tP\225"
  29      CCEC7B6B 
  29      F0FD4CA4 
ARM GAS  C:\Users\Thomas\AppData\Local\Temp\cc1FltvD.s 			page 2


  29      C18CD709 
  29      745095
  30 0045 88578506 		.ascii	"\210W\205\006N\340b1\230]U\226\207\323\315\234\365\256"
  30      4EE06231 
  30      985D5596 
  30      87D3CD9C 
  30      F5AE
  31 0057 50C84672 		.ascii	"P\310Fr`\336\000\355\206\322\270\246\305\326E/\370\264"
  31      60DE00ED 
  31      86D2B8A6 
  31      C5D6452F 
  31      F8B4
  32 0069 03CB8A34 		.ascii	"\003\313\2124a`v\2346]\004\245\037\221\212/\343\226"
  32      6160769C 
  32      365D04A5 
  32      1F918A2F 
  32      E396
  33 007b A2165295 		.ascii	"\242\026R\225\001hr\335\217\266x\226\010\375!\371|W"
  33      016872DD 
  33      8FB67896 
  33      08FD21F9 
  33      7C57
  34 008d CB7BC3FD 		.ascii	"\313{\303\375\317K~\344\245\360\251\310s\364v:\335w"
  34      CF4B7EE4 
  34      A5F0A9C8 
  34      73F4763A 
  34      DD77
  35 009f 6D107844 		.ascii	"m\020xD\226\036\256\322z\270\215!EEKe\360k&\250\337"
  35      961EAED2 
  35      7AB88D21 
  35      45454B65 
  35      F06B26A8 
  36 00b4 2EECCBD3 		.ascii	".\354\313\323\341/\037\023\322$\257"
  36      E12F1F13 
  36      D224AF
  37              		.text
  38              		.section	.gnu.lto_.pureconst.bb5ce9de,"",%progbits
  39 0000 789C6366 		.ascii	"x\234cf``\220d\200\000\036\006)F\011&)f)\026)V)v)\016"
  39      60609064 
  39      80001E06 
  39      29460926 
  39      29662916 
  40 001a 294E292E 		.ascii	")N).)n)\036)\000\025\325\001\247"
  40      296E291E 
  40      290015D5 
  40      01A7
  41              		.text
  42              		.section	.gnu.lto_P1_1_GetFIFOStatus.part.0.bb5ce9de,"",%progbits
  43 0000 789C6D92 		.ascii	"x\234m\222\333KTQ\024\306\327\332\373\2343\243ci=\311"
  43      DB4B5451 
  43      14C6D7DA 
  43      FB9C33A3 
  43      63693DC9 
  44 0014 10140CA2 		.ascii	"\020\024\014\242EH\022\375\005=D\364\"\370jX\350\010"
  44      454812FD 
  44      053D44F4 
  44      22F86A58 
ARM GAS  C:\Users\Thomas\AppData\Local\Temp\cc1FltvD.s 			page 3


  44      E808
  45 0026 4124983E 		.ascii	"A$\230>\370\3449\343\314\203QL\221tQ\004\243\274e\245"
  45      F8E439E3 
  45      CC83514C 
  45      91745104 
  45      A3BC65A5 
  46 003a DD2C2FD0 		.ascii	"\335,/\320d\221\026\246\350xK&\233\007\247\033EZ\246"
  46      649116A6 
  46      E8784B26 
  46      9B07A71B 
  46      455AA6
  47 004d 4D99D35A 		.ascii	"M\231\323Z\373La\324\206\263\367b\357\357\267\366\267"
  47      FB4C61D4 
  47      86B3F762 
  47      EFEFB7F6 
  47      B7
  48 005e D73A12FE 		.ascii	"\327:\022\376\035\007\350\363I\200]\264\242\003\320"
  48      1D07E8F3 
  48      49805DB4 
  48      A203D0
  49 006d 383D4281 		.ascii	"8=B\201\201B\255Bj\0017\230N\251f\335\216Q\3473\313"
  49      8142AD42 
  49      6A013798 
  49      4EA966DD 
  49      8E51E733 
  50 0082 A9FD0E74 		.ascii	"\251\375\016tD\016\000\241\332 B\307j|'\026\005\016"
  50      440E00A1 
  50      DA2042C7 
  50      6A7C2716 
  50      050E
  51 0094 F7AC8531 		.ascii	"\367\254\2051\273\3314}\013\237_F\\\201\314\270\000"
  51      BBD9347D 
  51      0B9F5F46 
  51      5C81CCB8 
  51      00
  52 00a5 F8220077 		.ascii	"\370\"\000w\272q\273\233\201V\314\006\022\266G\276\206"
  52      BA71BB9B 
  52      8156CC06 
  52      12B647BE 
  52      86
  53 00b6 364A0F72 		.ascii	"6J\017r|\376a\363\271T\317%\202\242\361\330\023\227"
  53      7CFE61F3 
  53      B954CF25 
  53      82A2F1D8 
  53      1397
  54 00c8 79C1F447 		.ascii	"y\301\364G\023\211\255\204b\033\312\3654\017\002\202"
  54      1389AD84 
  54      621BCAF5 
  54      340F0282 
  55 00d8 CF0722E9 		.ascii	"\317\007\"\351r\207\202'\332\206|\232\015\177\212\035"
  55      72878227 
  55      DA867C9A 
  55      0D7F8A1D 
  56 00e8 0C594DE6 		.ascii	"\014YM\346Z\"\201\314^\375/\273\350\3779\3552\374\246"
  56      5A2281CC 
  56      5EFD2FBB 
  56      E8FF39ED 
ARM GAS  C:\Users\Thomas\AppData\Local\Temp\cc1FltvD.s 			page 4


  56      32FCA6
  57 00fb 6966603B 		.ascii	"if`;z\260\003=l\220\234]\243\032\000\010\336\341\223"
  57      7AB0033D 
  57      6C909C5D 
  57      A31A0008 
  57      DEE193
  58 010e CECDA699 		.ascii	"\316\315\246\231H\274y\237\355@\210\013\024<I\232\204"
  58      48BC799F 
  58      ED40880B 
  58      143C499A 
  58      84
  59 011f C6930EAC 		.ascii	"\306\223\016\254\001\230'\224+\021\023\006\257r\012"
  59      01982794 
  59      2B111306 
  59      AF720A
  60 012e 7D9BF89A 		.ascii	"}\233\370\232\301\307\275\375zN\013]\323\324\3771\240"
  60      C1C7BDFD 
  60      7A4E0B5D 
  60      D3D4FF31 
  60      A0
  61 013f B1A1E4C0 		.ascii	"\261\241\344\300\353\230C\202\360\225\350rj\326e\345"
  61      EB984382 
  61      F095E872 
  61      6AD665E5 
  62 014f 3B30EE32 		.ascii	";0\35623\377X\306\244eF\360\006f\001\345\314\000e\213"
  62      33FF58C6 
  62      A46546F0 
  62      066601E5 
  62      CC00658B 
  63 0163 50E0BB84 		.ascii	"P\340\273\204\272k\026\007\226OL\365\345\263\363\025"
  63      BA6B1607 
  63      964F4CF5 
  63      E5B3F315 
  64 0173 7A99C0BA 		.ascii	"z\231\300\272\346\205\247\370V\304\205\214=\263L\215"
  64      E685A7F8 
  64      56C4858C 
  64      3DB34C8D 
  65 0183 8DBC9A1F 		.ascii	"\215\274\232\037\035s\252-\365\374\311\037\203\265i"
  65      1D73AA2D 
  65      F5FCC91F 
  65      83B569
  66 0192 8DD860D5 		.ascii	"\215\330`\325Y\316\270\320\260\023\335\330\205T\037"
  66      59CEB8D0 
  66      B013DDD8 
  66      85541F
  67 01a1 BC898D08 		.ascii	"\274\211\215\010\263X\363\315\260\363\011;e\327\203"
  67      B358F3CD 
  67      B0F3093B 
  67      65D783
  68 01b0 8EDA14E6 		.ascii	"\216\332\024\346\361\020\340-R\316\242o\316aK$\251\030"
  68      F110E02D 
  68      52CEA26F 
  68      CE614B24 
  68      A918
  69 01c2 994B221A 		.ascii	"\231K\"\032m\021\362!\334\320\233\306\210NU\272M\310"
  69      6D11F221 
  69      DCD09BC6 
ARM GAS  C:\Users\Thomas\AppData\Local\Temp\cc1FltvD.s 			page 5


  69      884E55BA 
  69      4DC8
  70 01d4 0BF49BBB 		.ascii	"\013\364\233\273\223\022:\037_]m\303 \236\262\374ft"
  70      93123A1F 
  70      5F5D6DC3 
  70      209EB2FC 
  70      6674
  71 01e6 A6D511A7 		.ascii	"\246\325\021\247\322\301\222\252\017\336\241}RX-}'\035"
  71      D2C192AA 
  71      0FDEA17D 
  71      52582D7D 
  71      271D
  72 01f8 9C4128D3 		.ascii	"\234A(\323#c\027G6\330@\323\020\353\361.e]\022\310H"
  72      23631747 
  72      36D840D3 
  72      10EBF12E 
  72      655D12C8 
  73 020d B78DD44F 		.ascii	"\267\215\324O\307\226\244B\004#g\272g\276\247$\221a"
  73      C796A442 
  73      042367BA 
  73      67BEA724 
  73      9161
  74 021f 85DC5388 		.ascii	"\205\334S\210\352\364}BT\035%\004\334r\006\255\0146"
  74      EAF47D42 
  74      541D2504 
  74      DC7206AD 
  74      0C36
  75 0231 C7F9A8D4 		.ascii	"\307\371\250\324\241\263\301-\352_\240\376R\242\321"
  75      A1B3C12D 
  75      EA5FA0FE 
  75      52A2D1
  76 0240 E8A3A07A 		.ascii	"\350\243\240z\014P\177z\270R\304i\177sBq\365\351\353"
  76      0C507F7A 
  76      B852C469 
  76      7F734271 
  76      F5E9EB
  77 0253 B0B1FA96 		.ascii	"\260\261\372\226\232t\205!`o\022\323!HmcN\275\327\356"
  77      9A748521 
  77      606F12D3 
  77      21486D63 
  77      4EBDD7EE 
  78 0267 2BE957E8 		.ascii	"+\351W\350d\016\255PxT\330U\322\001^\243\276\276{l\273"
  78      640EAD50 
  78      7854D855 
  78      D2015EA3 
  78      BEBE7B6C 
  79 027c 0FDD22B2 		.ascii	"\017\335\"\262\022E\266!\353\2528\2556QE\277 r^\222"
  79      1245B621 
  79      EBAA38AD 
  79      365145BF 
  79      20725E92 
  80 0290 6CCB2DDC 		.ascii	"l\313-\334\347=\346-?\\\341-)*(\253,/\366\026\346\027"
  80      E73DE62D 
  80      3F5CE12D 
  80      292A28AB 
  80      2C2FF616 
  81 02a6 94EDDD53 		.ascii	"\224\355\335S\230\237W\224\227[\014F\271\367x\345\321"
ARM GAS  C:\Users\Thomas\AppData\Local\Temp\cc1FltvD.s 			page 6


  81      989F5794 
  81      975B0C46 
  81      B9F778E5 
  81      D1
  82 02b7 0AA3F448 		.ascii	"\012\243\364Hi\331\376\222_\000\352B\356"
  82      69D9FE92 
  82      5F00EA42 
  82      EE
  83              		.text
  84              		.section	.gnu.lto_P1_1_GetFIFOStatus.bb5ce9de,"",%progbits
  85 0000 789C6590 		.ascii	"x\234e\220OHTQ\024\306\317w\356\363)3\3034\264\212\331"
  85      4F485451 
  85      14C6CF77 
  85      EEF32933 
  85      C334B48A 
  86 0015 140CA245 		.ascii	"\024\014\242EH\022mZ\011-\242\235\340v@B\237\020D\023"
  86      48126D5A 
  86      092DA29D 
  86      E0764042 
  86      9F104413 
  87 0029 932EC53B 		.ascii	"\223.\305;:\201\020T\266\250\010\022\242\254\254\034"
  87      3A811054 
  87      B6A80812 
  87      A2ACAC1C 
  88 0039 83DA14B3 		.ascii	"\203\332\024\263xF\324[\364g1\224.^5P\023\266\313\264"
  88      7846D45B 
  88      F4673194 
  88      2E5E3550 
  88      13B6CBB4 
  89 004d 06A99CCE 		.ascii	"\006\251\234\316yoQ\320\205\313\271\\\276\337w\276s"
  89      796F51D0 
  89      85CBB95C 
  89      BEDF77BE 
  89      73
  90 005e 0CFD7FF6 		.ascii	"\014\375\177\366\313]\005\321>\251h#\360\371WD\245\016"
  90      CB5D05D1 
  90      3EA96823 
  90      F0F95744 
  90      A50E
  91 0070 6613A4C8 		.ascii	"f\023\244\310&\234`\211\310\246\014\034\375\207\003"
  91      269C6089 
  91      C8A60C1C 
  91      FD8703
  92 007f 6825D004 		.ascii	"h%\320\004\033\007\023\370\302k\214\027\217\266j\350"
  92      1B0713F8 
  92      C26B8C17 
  92      8FB66AE8 
  93 008f 9AB376F2 		.ascii	"\232\263v\362\353\267wa\362\364\216M&Zg\302\336,vgU"
  93      EBB77761 
  93      F2F48E4D 
  93      265A67C2 
  93      DE2C7667 
  94 00a4 7E0B5DA2 		.ascii	"~\013]\242;\367\362I\270\315\344@\362\256\335\250\377"
  94      3BF7F249 
  94      B8CDE440 
  94      F2AEDDA8 
  94      FF
ARM GAS  C:\Users\Thomas\AppData\Local\Temp\cc1FltvD.s 			page 7


  95 00b5 48745E17 		.ascii	"Ht^\027\306\017*\266\017\202\3406\314_J=0\217N\025\317"
  95      C60F2AB6 
  95      0F82E036 
  95      CC5F4A3D 
  95      308F4E15 
  96 00ca 87DFFDB4 		.ascii	"\207\337\375\264\331\023\201\227\226\346.&r\327\004"
  96      D9138197 
  96      96E62E26 
  96      72D704
  97 00d9 AC6F369E 		.ascii	"\254o6\236%\355e[\256\267Z;\225\277\363/\037\037\001"
  97      25ED655B 
  97      AEB75A3B 
  97      95BFF32F 
  97      1F1F01
  98 00ec D6CABF97 		.ascii	"\326\312\277\227\223n\331Z\233\301]\3444\2308\337\203"
  98      936ED95A 
  98      9BC15DE4 
  98      349838DF 
  98      83
  99 00fd 2B53437F 		.ascii	"+SC\177\026\267\373\266\325z\360\353Bp\320\264\203\364"
  99      16B7FBB6 
  99      D57AF0EB 
  99      4270D0B4 
  99      83F4
 100 010f 8BA1ADDD 		.ascii	"\213\241\255\335\350M\364I\010\035\273\301\254\325\274"
 100      E84DF449 
 100      081DBBC1 
 100      ACD5BC
 101 011e C5A4DF3C 		.ascii	"\305\244\337<\223\216<D =ff\036\316\246WYBl\211\301"
 101      938E3C44 
 101      203D6666 
 101      1ECEA657 
 101      59426C89 
 102 0133 02B2F406 		.ascii	"\002\262\364\006\345\225\251\217W\333U\324d\335\322"
 102      E595A98F 
 102      57DB55D4 
 102      64DDD2
 103 0142 95E5C686 		.ascii	"\225\345\306\206Q\015$c\005q\302\006\033\012R\352\230"
 103      510D2463 
 103      0571C206 
 103      1B0A52EA 
 103      98
 104 0153 51A5C89E 		.ascii	"Q\245\310\236?}\\m\353\276)q\353\325\205\260\257C\367"
 104      3F7D5C6D 
 104      EBBE2971 
 104      EBD585B0 
 104      AF43F7
 105 0166 101F2CA2 		.ascii	"\020\037,\242[\254(\304T&\266U\375l\355l\205\307\177"
 105      5BAC28C4 
 105      5426B655 
 105      FD6CED6C 
 105      85C77F
 106 0179 DA692B52 		.ascii	"\332i+R^g\235\352>\306e\177&\362w\242\310+(ehC\254\264"
 106      5E679DEA 
 106      3EC6657F 
 106      26F277A2 
 106      C82B2865 
ARM GAS  C:\Users\Thomas\AppData\Local\Temp\cc1FltvD.s 			page 8


 107 0191 53345653 		.ascii	"S4VS\224\357Q\362k\25796\023\3603\240\341\271\372\341"
 107      94EF51F2 
 107      6BAF3936 
 107      13F033A0 
 107      E1B9FAE1 
 108 01a5 A4981BC8 		.ascii	"\244\230\033\310\344P\\\270]=\371\303\336\011\257xt"
 108      E4505CB8 
 108      5D3DF9C3 
 108      DE09AF78 
 108      74
 109 01b6 D41B1E1C 		.ascii	"\324\033\036\034(\214\025\207\274|\377@\341\320\201"
 109      288C1587 
 109      BC7CFF40 
 109      E1D081
 110 01c5 7C7FEF60 		.ascii	"|\177\357`o\317\020\271#\307F\012G\206\335\242wj\354"
 110      6FCF10B9 
 110      23C7460A 
 110      4786DDA2 
 110      776AEC
 111 01d8 F8E81FD4 		.ascii	"\370\350\037\324\340\266\034"
 111      E0B61C
 112              		.text
 113              		.section	.gnu.lto_P1_1_Init.bb5ce9de,"",%progbits
 114 0000 789C8D51 		.ascii	"x\234\215Q\317K\024q\024\177\237\367\035\207\215=(\235"
 114      CF4B1471 
 114      147F9FF7 
 114      1D878D3D 
 114      289D
 115 0012 644EC11E 		.ascii	"dN\301\036$\020A\241? :H7\301\353\206\204\316\241\213"
 115      241041A1 
 115      3F203A48 
 115      37C1EB86 
 115      84CEA18B 
 116 0026 C6B09E9D 		.ascii	"\306\260\236\235qUbOnt\210d!\241\037\346\317\322\302"
 116      7155624F 
 116      6E748864 
 116      21A11FE6 
 116      CFD2C2
 117 0039 83148382 		.ascii	"\203\024\203\202\005A\242\007\205\016m\320\006v\021"
 117      0541A207 
 117      850E6DD0 
 117      067611
 118 0048 C52817CA 		.ascii	"\305(\027\312\361\275\371\356\245\002i`\336\373\316"
 118      F1BDF9EE 
 118      A5026960 
 118      DEFBCE
 119 0057 7C3F9FCF 		.ascii	"|?\237\317\373\274\367\014\375\373x\362^e\242.\3110"
 119      FBBCF70C 
 119      FDFB78F2 
 119      5E65A22E 
 119      C930
 120 0069 049EFC40 		.ascii	"\004\236\374@\024e\030\320\003\201F\030#\370\306G\214"
 120      146518D0 
 120      03814618 
 120      23F8C647 
 120      8C
 121 007a C978EE7E 		.ascii	"\311x\356~\266\355q\030\206\207;\253\255\343\255u\241"
ARM GAS  C:\Users\Thomas\AppData\Local\Temp\cc1FltvD.s 			page 9


 121      B6ED7118 
 121      86873BAB 
 121      ADE3AD75 
 121      A1
 122 008b 1DB395C1 		.ascii	"\035\263\225\301S\264\221`\216\306~\357e\3351\301\264"
 122      53B49160 
 122      8EC67EEF 
 122      65DD31C1 
 122      B4
 123 009c D83BCCC0 		.ascii	"\330;\314\300\205\344\245\213q\230$+\325\362\235.d\014"
 123      85E4A58B 
 123      7198242B 
 123      D5F29D2E 
 123      640C
 124 00ae D5198E86 		.ascii	"\325\031\216\206&\015\256\006\242\232\340\265\350Wf"
 124      260DAE06 
 124      A29AE0B5 
 124      E85766
 125 00bd CD6617A3 		.ascii	"\315f\027\243-\252YzSZ\274`r\320\363n\365\321\204\311"
 125      2DAA597A 
 125      535ABC60 
 125      72D0F36E 
 125      F5D184C9 
 126 00d1 4D87E1E8 		.ascii	"M\207\341\350\347\327\0337\342\350ax\232$\2503\343\031"
 126      E7D71B37 
 126      E2E86178 
 126      9A24A833 
 126      E319
 127 00e3 8C1444BB 		.ascii	"\214\024D\273\207\313^\2437\314\"'\234\355\007O\212"
 127      87CB5EA3 
 127      37CC2227 
 127      9CED074F 
 127      8A
 128 00f4 CDFBAC20 		.ascii	"\315\373\254 \302\034<\372\210\365\037\245\323w\301"
 128      C21C3CFA 
 128      88F51FA5 
 128      D377C1
 129 0103 1F7EE364 		.ascii	"\037~\343d\223\225\220:>f\374\335\015\346\305'a\001"
 129      9395903A 
 129      3E66FCDD 
 129      0DE6C527 
 129      6101
 130 0115 EE4F363A 		.ascii	"\356O6:\215\325\362\216\243\252f\374}\024:\012\257\326"
 130      8DD5F28E 
 130      A3AA66FC 
 130      7D143A0A 
 130      AFD6
 131 0127 B6B633E9 		.ascii	"\266\2663\351/\322\317\231\362Z5[\301Tt/\312\324\331"
 131      2FD2CF99 
 131      F25A355B 
 131      C154742F 
 131      CAD4D9
 132 013a C1223C2C 		.ascii	"\301\"<,Iy\302sT .\212'\023\342\302J:V\365\340\313\257"
 132      4979C273 
 132      54202E8A 
 132      2713E2C2 
 132      4A3A56F5 
ARM GAS  C:\Users\Thomas\AppData\Local\Temp\cc1FltvD.s 			page 10


 133 0151 622AE19C 		.ascii	"b*\341\234\210\331\027\326\354](\346\\\305eQ\024\021"
 133      88D917D6 
 133      EC5D28E6 
 133      5CC56551 
 133      1411
 134 0163 DBDAFA75 		.ascii	"\333\332\372u\253\331t.e\245a\342\273k\321\015\302\333"
 134      ABD9742E 
 134      65A561E2 
 134      BB6BD10D 
 134      C2DB
 135 0175 CAFE72DA 		.ascii	"\312\376r\332\027\304\300\313\3776\360*5\340\322'Dq"
 135      17C4C0CB 
 135      FF36F02A 
 135      35E0D227 
 135      4471
 136 0187 B95B67A8 		.ascii	"\271[g\250\033\250\311\034e\225\262\330K\035\371n\177"
 136      1BA8C91C 
 136      6595B2D8 
 136      4B1DF96E 
 136      7F
 137 0198 D00F6E16 		.ascii	"\320\017n\026\374\201\276\336\241\341\240\337\317\367"
 137      FC81BEDE 
 137      A1E1A0DF 
 137      CFF7
 138 01a6 F40E5DBB 		.ascii	"\364\016]\273\222\357\351\354\353\354\350\247\346[\203"
 138      92EFE9EC 
 138      EBECE8A7 
 138      E65B83
 139 01b5 053F0886 		.ascii	"\005?\010\206o\027\354\355\031<\221\330\312"
 139      6F17ECED 
 139      193C91D8 
 139      CA
 140              		.text
 141              		.section	.gnu.lto_P1_1_EnableInt.bb5ce9de,"",%progbits
 142 0000 789C7D90 		.ascii	"x\234}\220\315K\033a\020\306\347\231M\342B\264\210\007"
 142      CD4B1B61 
 142      10C6E799 
 142      4DE242B4 
 142      8807
 143 0012 915C5AC8 		.ascii	"\221\\Z\310!\010\"\344\320\277\240\007\241'!\327\200"
 143      210822E4 
 143      D0BFA007 
 143      A12721D7 
 143      80
 144 0023 14DD432F 		.ascii	"\024\335C/\246,\361(\276\321\025\304\203\025\261\240"
 144      A62CF128 
 144      BED115C4 
 144      8315B1A0 
 145 0033 488422A5 		.ascii	"H\204\"\245\365\243\332R\301C\011,=\224\372\201\022"
 145      F5A3DA52 
 145      C143092C 
 145      3D94FA81 
 145      12
 146 0044 0483222A 		.ascii	"\004\203\"*bD\351\245\232R]k\211\363\356\366T\241/\274"
 146      6244E9A5 
 146      9A525D6B 
 146      89F3EEF6 
ARM GAS  C:\Users\Thomas\AppData\Local\Temp\cc1FltvD.s 			page 11


 146      54A12FBC 
 147 0058 5FC333BF 		.ascii	"_\3033\277yf\014\272\277b\262wA\224\224\033\006\201"
 147      79660CBA 
 147      BF62B277 
 147      4194941B 
 147      0681
 148 006a 47378972 		.ascii	"G7\211r&\003\372A\240>F\037\316\371\2021\352\316OD\023"
 148      2603FA41 
 148      A03E461F 
 148      CEF98231 
 148      EACE4F44 
 149 007f 6F94523F 		.ascii	"o\224R?.\213M\203M\036\023U8\300\340-\022$\232\322\371"
 149      2E8B4D83 
 149      4D1E1355 
 149      38C0E02D 
 149      12249AD2 
 150 0094 CD5ED888 		.ascii	"\315^\330\210C\277\313\253\313\343F\374\265R\375G\223"
 150      43BFCBAB 
 150      CBE346FC 
 150      B552FD47 
 150      93
 151 00a5 E5AF5135 		.ascii	"\345\257Q5\241\234\243j\365\241'\354w0$\023-14\307\376"
 151      A19CA36A 
 151      F5A127EC 
 151      77302413 
 151      2D3134C7 
 152 00ba 1A91840B 		.ascii	"\032\221\204\013\347O)\032q\244@=f\021\017\340\230C"
 152      E74F291A 
 152      71A4403D 
 152      66110FE0 
 152      9843
 153 00cc 44FC4147 		.ascii	"D\374AG\226\032\\U\255~\332\030\373\226`S\314J(D\036"
 153      961A5C55 
 153      AD7EDA18 
 153      FB966053 
 153      CC4A2844 
 154 00e1 73581F44 		.ascii	"sX\037D'\262\265\353\262|\3446\3661\340\256\0147j\302"
 154      27B2B5EB 
 154      B27CE436 
 154      F631E0AE 
 154      0C376AC2 
 155 00f5 151B5260 		.ascii	"\025\033R`z{d\221{\177\253!ez,\0164w\036\275\222\035"
 155      7A7B6491 
 155      7B7FAB21 
 155      657A2C0E 
 155      34771EBD 
 156 010b A21DB05F 		.ascii	"\242\035\260_J\230\"\246=|\3715|:k\007\311!I~y\353}"
 156      4A9822A6 
 156      3D7CF935 
 156      7C3A6B07 
 156      C921497E 
 157 0122 AF3D638F 		.ascii	"\257=c\217\303\257\326s*\244\015\037\236l\025M?\344"
 157      C3AFD673 
 157      2AA40D1F 
 157      9E6C154D 
 157      3FE4
 158 0134 FBBFBD9A 		.ascii	"\373\277\275\232)\324\3451\225s\340q\004\013\210\341"
ARM GAS  C:\Users\Thomas\AppData\Local\Temp\cc1FltvD.s 			page 12


 158      29D4E531 
 158      9573E071 
 158      040B88E1 
 159 0144 3DA43F2C 		.ascii	"=\244?,\"\017!\016\374\214\004\270p@\\?\276\256\370"
 159      220F210E 
 159      FC8C04B8 
 159      70405C3F 
 159      BEAEF8
 160 0157 44AE272C 		.ascii	"D\256',\211R\212\216AK\376\007\373 0A\320>\034\367\363"
 160      89528A8E 
 160      414BFE07 
 160      FB203041 
 160      D03E1CF7 
 161 016c 9A6F9AFE 		.ascii	"\232o\232\376\355\255\246\242\347\201\217\322\2334\343"
 161      EDADA6A2 
 161      E7818FD2 
 161      9B34E3
 162 017b B14907C8 		.ascii	"\261I\007\310\271\205\247\276\230\364\244\240'$\232"
 162      B985A7BE 
 162      98F4A4A0 
 162      27249A
 163 018a 47ADE936 		.ascii	"G\255\3516\253\333\262\237e\255\256\216T\246\307\356"
 163      ABDBB29F 
 163      65ADAE8E 
 163      54A6C7EE 
 164 019a B4D2EDA9 		.ascii	"\264\322\355\251\314\223\307\351\366dG\262\265\223\036"
 164      CC93C7E9 
 164      F66447B2 
 164      B5931E
 165 01a9 3CEFCE5A 		.ascii	"<\357\316Z\266\335\363\"\233\312\212\350\016\265V\266"
 165      B6DDF322 
 165      9BCA8AE8 
 165      0EB556B6 
 166 01b9 4A       		.ascii	"J"
 167              		.text
 168              		.section	.gnu.lto_P1_1_Enable.bb5ce9de,"",%progbits
 169 0000 789C7D8F 		.ascii	"x\234}\217\275KBQ\030\306\337\347\275v\023\\\242I\234"
 169      BD4B4251 
 169      18C6DFE7 
 169      BD76135C 
 169      A2499C
 170 0013 A2C54D70 		.ascii	"\242\305Mp\350/\010jLp\013A\302\356\232 5\212\367\246"
 170      E82F086A 
 170      4C700B41 
 170      C2EE9A20 
 170      358AF7A6 
 171 0027 81348435 		.ascii	"\2014\2045\025a[\364\241\031\325\020A\303\245!!\310"
 171      15615BF4 
 171      A119D510 
 171      41C3A521 
 171      21C8
 172 0039 A88642C2 		.ascii	"\250\206B\302 \014l\313\354\203K\204\275\307;\006\035"
 172      200C6CCB 
 172      EC834B84 
 172      BDC73B06 
 172      1D
 173 004a 38E73D1F 		.ascii	"8\347=\037\317\373{\316\243\321\337\021\2209\001\242"
ARM GAS  C:\Users\Thomas\AppData\Local\Temp\cc1FltvD.s 			page 13


 173      CFFB7BCE 
 173      A3D1DF11 
 173      903901A2 
 174 005a 61A9D008 		.ascii	"a\251\320\010\\\250\021Y^\006\324\206@\031F\006/\334"
 174      5CA81159 
 174      5E06D486 
 174      40194606 
 174      2FDC
 175 006c 6614ECD2 		.ascii	"f\024\354\322\252/\270i\232\346\353\315\201\177\301"
 175      AA2FB869 
 175      9AE6EBCD 
 175      817FC1
 176 007b EF305187 		.ascii	"\3570Q\207]\014\266\020$\321\264s?w>='\232\001\367\015"
 176      5D0CB610 
 176      24D1B473 
 176      3F773E3D 
 176      279A01F7 
 177 0090 DBD0054F 		.ascii	"\333\320\005O\373\203\266\331\355\036U\227\363A\350"
 177      FB83B6D9 
 177      ED1E5597 
 177      F341E8
 178 009f 4C0E8B99 		.ascii	"L\016\213\231,DMQ)\253gfU\265:\316>\027kk\223\252\361"
 178      2C444D51 
 178      29AB6766 
 178      55B53ACE 
 178      3E176B6B 
 179 00b6 8B956FF6 		.ascii	"\213\225o\366\376\364\215[\3540\177\\X\246G\331<6\257"
 179      FEF48D5B 
 179      EC307F5C 
 179      58A647D9 
 179      3C36AF
 180 00c9 AEBDBD2B 		.ascii	"\256\275\275+R\307\247\313\306|\177\021\353V\016\016"
 180      52C7A7CB 
 180      C67C7F11 
 180      EB560E0E 
 181 00d9 6BD84100 		.ascii	"k\330A\000\273\220d(\241\010\252#\373\256\2738\315%"
 181      BB906428 
 181      A108AA23 
 181      FBAEBB38 
 181      CD25
 182 00eb 568BAD43 		.ascii	"V\213\255C\217j\007\010eQ\212\351\012\224\344?\330\236"
 182      8F6A0708 
 182      65518AE9 
 182      0A94E43F 
 182      D89E
 183 00fd C004410F 		.ascii	"\300\004A\017\310\332\307\347\254\344\312|\343v\251"
 183      C8DAC7E7 
 183      ACE4CA7C 
 183      E376A9
 184 010c C2E96F33 		.ascii	"\302\351o3oz\035\366tT&T\220\226t}\324\200e\237\214"
 184      6F7A1DF6 
 184      74542654 
 184      9096747D 
 184      D480659F 
 185 0121 F594A4A2 		.ascii	"\365\224\244\242BE\224?\017\205b\343\306\214\221\232"
 185      4245943F 
 185      0F8562E3 
ARM GAS  C:\Users\Thomas\AppData\Local\Temp\cc1FltvD.s 			page 14


 185      C68C919A 
 186 0131 9A35A6E3 		.ascii	"\2325\246\343\321\344\\*a\304\"\321\344\350H,\022\216"
 186      D1E45C2A 
 186      61C422D1 
 186      E4E8482C 
 186      128E
 187 0143 874309FA 		.ascii	"\207C\011\372\005>\204\200;"
 187      053E8480 
 187      3B
 188              		.text
 189              		.section	.gnu.lto_P1_1_Start.bb5ce9de,"",%progbits
 190 0000 789C8D53 		.ascii	"x\234\215S]KTQ\024=\353\234;\037\316\004J\320\313\004"
 190      5D4B5451 
 190      143DEB9C 
 190      3B1FCE04 
 190      4AD0CB04 
 191 0014 22F82041 		.ascii	"\"\370 A(\026\375\202\036\2427\301\2670$l\036z\321\030"
 191      2816FD82 
 191      1EA237C1 
 191      B730246C 
 191      1E7AD118 
 192 0028 F4513C77 		.ascii	"\364Q<wf\222\220\010\225\010\3730\012\312,k4\265\254"
 192      66929008 
 192      9508FB30 
 192      0ACA2C6B 
 192      34B5AC
 193 003b FCBA1A54 		.ascii	"\374\272\032T$\030\226\251Id\220\201\275\204f\245R:"
 193      241896A9 
 193      49649081 
 193      BD8466A5 
 193      523A
 194 004d ED7DCF64 		.ascii	"\355}\317d\215\242ta\366\271\367\234}\326^k\355=Jl~"
 194      8DA27461 
 194      F6B9F79C 
 194      7DD65E6B 
 194      ED3D4A6C 
 195 0062 F6D32FC7 		.ascii	"\366\323/\307\022b\037\255\360\010\310\372Q!l\277\224"
 195      12621FAD 
 195      F008C8FA 
 195      51216CBF 
 195      94
 196 0073 6ABC40E8 		.ascii	"j\274@\350\200\325\227-\364\016\005\313l[\000\277\010"
 196      80D5972D 
 196      F40E05CB 
 196      6C5B00BF 
 196      08
 197 0084 881AA92C 		.ascii	"\210\032\251,\324\340\263\\\220\250w\332\232\202y7\264"
 197      D4E0B35C 
 197      90A877DA 
 197      9A827937 
 197      B4
 198 0095 D6F39D23 		.ascii	"\326\363\235#v\221\203\025)\304\2424\005p\023y\202\222"
 198      76918315 
 198      29C4A234 
 198      05701379 
 198      8292
 199 00a7 16E2AB93 		.ascii	"\026\342\253\223Ao\234\222\262\314\031Z\341\005\255"
ARM GAS  C:\Users\Thomas\AppData\Local\Temp\cc1FltvD.s 			page 15


 199      416F9C92 
 199      B2CC195A 
 199      E105AD
 200 00b6 ED3B1D9D 		.ascii	"\355;\035\235Lv%\206\246\220\251\304\212\204\305\301"
 200      4C762586 
 200      A690A9C4 
 200      8A84C5C1 
 201 00c6 C7C1CF21 		.ascii	"\307\301\317!\203C\200C\220\203\020\263t\233Y|\222\222"
 201      83438043 
 201      908310B3 
 201      749B597C 
 201      9292
 202 00d8 57358D68 		.ascii	"W5\215h\343Bb7\343-IE\245\256\274>\233\220\325?\365"
 202      E3426237 
 202      E32D4945 
 202      A5AEBC3E 
 202      9B90D53F 
 203 00ed 69ED5F91 		.ascii	"i\355_\221r\225\213\321\356\314\354\3131\377\234\244"
 203      72958BD1 
 203      EECCECCB 
 203      31FF9CA4 
 204 00fd 1DF7B3D5 		.ascii	"\035\367\263\325\216_F3.\331\232\263\024n\241\032\267"
 204      8E5F4633 
 204      2ED99AB3 
 204      146EA11A 
 204      B7
 205 010e 11225E6D 		.ascii	"\021\"^m\264-\336 >\025\313\376\213i\267\364\236\361"
 205      B42DDE20 
 205      3E15CBFE 
 205      8B69B7F4 
 205      9EF1
 206 0120 F16D2280 		.ascii	"\361m\"\200;\234'\230\201\022\343\005j\002\321,\206"
 206      3B9C2798 
 206      8112E305 
 206      6A02D12C 
 206      86
 207 0131 AC1BA84B 		.ascii	"\254\033\250Kd\250\\\360\373\304\314\365Z\225{M\353"
 207      64A85CF0 
 207      FBC4CCF5 
 207      5A957B4D 
 207      EB
 208 0142 E887FE27 		.ascii	"\350\207\376'G\035\373\252^K&\301\205\356B\221~\354"
 208      471DFBAA 
 208      5E4B26C1 
 208      85EE4291 
 208      7EEC
 209 0154 0D614F28 		.ascii	"\015aO(\325\004$\220Kw\306.\266\3042\271\206\202@;\325"
 209      D5042490 
 209      4B77C62E 
 209      B6C432B9 
 209      8682403B 
 210 0169 98C6F08F 		.ascii	"\230\306\360\217\272\265\347\2214\373\234\301\260\353"
 210      BAB5E791 
 210      34FB9CC1 
 210      B0EB
 211 0177 DDA244BA 		.ascii	"\335\242D\272\257N\362\251d$\201\016>\225\033]\307="
 211      AF4EF2A9 
ARM GAS  C:\Users\Thomas\AppData\Local\Temp\cc1FltvD.s 			page 16


 211      6424810E 
 211      3E951B5D 
 211      C73D
 212 0189 78A95627 		.ascii	"x\251V'K\362q\333z\032^Y\\\316:5bk+\315#\313x\324\320"
 212      4BF271DB 
 212      7A1A5E59 
 212      5CCE3A35 
 212      626B2BCD 
 213 01a2 3B13648F 		.ascii	";\023d\217\316\331\344\221\007]\010\241\333\365\350"
 213      CED9E491 
 213      075D08A1 
 213      DBF5E8
 214 01b1 3E7B348D 		.ascii	">{4\215\330r-\3213\220~\203\372\345\343\257\230\013"
 214      D8722DD1 
 214      33907E83 
 214      FAE5E3AF 
 214      980B
 215 01c3 E1592615 		.ascii	"\341Y&\025\017\214\212Fp\316\266\210=\204H F\363\360"
 215      0F8C8A46 
 215      70CEB688 
 215      3D844820 
 215      46F3F0
 216 01d6 618399B1 		.ascii	"a\203\231\261\355\225\207)\022\337\274&;`.<k\236\353"
 216      ED958729 
 216      12DFBC26 
 216      3B602E3C 
 216      6B9EEB
 217 01e9 74758108 		.ascii	"tu\201\010<\372o\002\217]\002\001\312\216\316wt\347"
 217      3CFA6F02 
 217      8F5D0201 
 217      CA8ECE77 
 217      74E7
 218 01fb B3C55BCE 		.ascii	"\263\305[\316\322\306\341\351]\037\236>\332v{\307\323"
 218      D2C6E1E9 
 218      5D1F9E3E 
 218      DA767BC7 
 218      D3
 219 020c 61A5E693 		.ascii	"a\245\346\223\024\215^8\222\336\254\311]\251.\252M}"
 219      148D5E38 
 219      92DEACC9 
 219      5DA92EAA 
 219      4D7D
 220 021e EA77FB34 		.ascii	"\352w\3734\300\222,:\213M\365}\225nS\276\277H\365i\251"
 220      C0922C3A 
 220      8B4DF57D 
 220      956E53BE 
 220      BF48F569 
 221 0233 F97C93EF 		.ascii	"\371|\223\357\037\025\203\353*\234?\236\324RE\203\021"
 221      1F1583EB 
 221      2A9C3F9E 
 221      D4524583 
 221      11
 222 0244 24987F7C 		.ascii	"$\230\177|\030pum\2150\344\372\020\024\357\020szh\242"
 222      1870756D 
 222      8D30E4FA 
 222      1014EF10 
 222      737A68A2 
ARM GAS  C:\Users\Thomas\AppData\Local\Temp\cc1FltvD.s 			page 17


 223 0258 285F6C34 		.ascii	"(_l4\202h[.M\014\243\232\376\225>\361\036\266\363\326"
 223      82685B2E 
 223      4D0CA39A 
 223      FE953EF1 
 223      1EB6F3D6 
 224 026c C38A78A0 		.ascii	"\303\212x\240gi6I:\271\225\223_r(\\\036\216\034\253"
 224      67693649 
 224      3AB99593 
 224      5F72285C 
 224      1E8E1CAB 
 225 0280 0C1F2F2D 		.ascii	"\014\037/-\256\250\212\224\205K\212\212+\016\036()*"
 225      AEA88A94 
 225      854B8A8A 
 225      2B0E1E28 
 225      292A
 226 0292 2C2DCC2F 		.ascii	",-\314/\023\231'\312+\303\221H\325\311Js\372\033\350"
 226      139927CA 
 226      2BC39148 
 226      D5C94A73 
 226      FA1BE8
 227 02a5 3683A3   		.ascii	"6\203\243"
 228              		.text
 229              		.section	.gnu.lto_P1_1_DisableInt.bb5ce9de,"",%progbits
 230 0000 789C7D90 		.ascii	"x\234}\220\315K\033Q\024\305\357\271\223\214\003\251"
 230      CD4B1B51 
 230      14C5EFB9 
 230      938C03A9 
 231 0010 52BA2892 		.ascii	"R\272(\222M\205,D\020!\224\376\005]\270\350F\3106\020"
 231      4D852C44 
 231      102194FE 
 231      055DB8E8 
 231      46C83610 
 232 0024 8ACEC24D 		.ascii	"\212\316\302M,C\\\212/:Bi\301\212(\006$\005\021iS?R"
 232      2C435C8A 
 232      2F3A4269 
 232      C18A2806 
 232      24051169 
 233 003b D1AD3074 		.ascii	"\321\2550tQ*\202\245\010\015\210\250\213Dj]\250\025"
 233      512A82A5 
 233      080D88A8 
 233      8B446A5D 
 233      A815
 234 004d 6AC72AF1 		.ascii	"j\307*\361\276\031W\012\016\274y\037\234\363\273\347"
 234      BE19570A 
 234      0EBC791F 
 234      9CF3BBE7 
 235 005d 5E83EE7E 		.ascii	"^\203\356~qY\333 J\312\016\203\300c\233Dy\213\001} "
 235      7159DB20 
 235      4ACA0E83 
 235      C0639B44 
 235      798B017D 
 236 0072 D0206310 		.ascii	"\320 c\020\207|\312\030\363\346\013\261\3269\245\324"
 236      877CCA18 
 236      F3E60BB1 
 236      D639A5D4 
 237 0082 C99F4AF3 		.ascii	"\311\237J\363H\263\317Dg\034b\360\001\255$\232\312\341"
 237      48B3CF44 
ARM GAS  C:\Users\Thomas\AppData\Local\Temp\cc1FltvD.s 			page 18


 237      671C62F0 
 237      01AD249A 
 237      CAE1
 238 0094 C576D448 		.ascii	"\305v\324H@\237k\353\253\023FbF\251\241\375\365\332"
 238      409F6BEB 
 238      AB134662 
 238      46A9A1FD 
 238      F5DA
 239 00a6 D7982A28 		.ascii	"\327\230*(w\277^\177\342\013\373#\014q\242=\216\266"
 239      77BF5E7F 
 239      E20BFB23 
 239      0C71A23D 
 239      8EB6
 240 00b8 F84D1031 		.ascii	"\370M\0201\234\272W\225\230\351J\201\207(!\021\302\361"
 240      9CBA5795 
 240      98E94A81 
 240      87282111 
 240      C2F1
 241 00ca 09A6E483 		.ascii	"\011\246\344\203~)?\362T\275\276R\035\377\366\224-\011"
 241      7E293FF2 
 241      54BDBE52 
 241      1DFFF694 
 241      2D09
 242 00dc 2B4F11F2 		.ascii	"+O\021\362\231\243\372GT\225\245S\327\344\"\273\261"
 242      99A3FA47 
 242      5495A553 
 242      D7E422BB 
 242      B1
 243 00ed 83616FEA 		.ascii	"\203ao\352\355cM8gC\012\274\337\032]\342\201\377\352"
 243      ED634D38 
 243      67430ABC 
 243      DF1A5DE2 
 243      81FFEA
 244 0100 B5B27C96 		.ascii	"\265\262|\226\004\232;\217\001qG\350'8(%L\021\313L\276"
 244      049A3B8F 
 244      017147E8 
 244      27382825 
 244      4C11CB4C 
 245 0115 FC7D73B0 		.ascii	"\374}s\260\340\204\346\210\230\337]\372G\017~\261\317"
 245      E084E688 
 245      98DF5DFA 
 245      470F7EB1 
 245      CF
 246 0126 D1C98DBC 		.ascii	"\321\311\215\274\212\350\300{\325\357?\254\340)\310"
 246      8AE8C07B 
 246      D5EF3FAC 
 246      E029C8
 247 0135 7F793EBB 		.ascii	"\177y>\273\326X\304t\336\205\317&\026\020\307\"\244"
 247      D658C474 
 247      DE85CF26 
 247      1610C722 
 247      A4
 248 0146 3F2CA108 		.ascii	"?,\241\010!\016\3773C\\4$\2266\013\277\233\264\335<"
 248      210EFF33 
 248      435C3424 
 248      96360BBF 
 248      9BB4DD3C 
ARM GAS  C:\Users\Thomas\AppData\Local\Temp\cc1FltvD.s 			page 19


 249 015a 06A12C52 		.ascii	"\006\241,R\251:\016\255\271\217\366Yh\302\240\035\270"
 249      A93A0EAD 
 249      B98FF659 
 249      68C2A01D 
 249      B8
 250 016b DEF44690 		.ascii	"\336\364F\220\232n7\327p\246\007\202eiN\272\361\331"
 250      9A6E37D7 
 250      70A60782 
 250      65694EBA 
 250      F1D9
 251 017d A25DE4BD 		.ascii	"\242]\344\275\342\213@LzT\320#\022MKG\272\323\316\332"
 251      E28B404C 
 251      7A54D023 
 251      124D4B47 
 251      BAD3CEDA 
 252 0191 CECB9CDD 		.ascii	"\316\313\234\335\223I\365\365;\335v\272+\325\367\374"
 252      9349F5F5 
 252      3BDD76BA 
 252      2BD5F7FC 
 253 01a1 59BA2B99 		.ascii	"Y\272+\231IvtSSo6g;N\377\253\\*'\242k\300\204\266\226"
 253      49767453 
 253      536F3667 
 253      3B4EFFAB 
 253      5C2A27A2 
 254              		.text
 255              		.section	.gnu.lto_P1_1_Stop.bb5ce9de,"",%progbits
 256 0000 789C7D8F 		.ascii	"x\234}\217?HBQ\024\306\317w\236\275\004!\242I\234\242"
 256      3F484251 
 256      14C6CF77 
 256      9EBD0421 
 256      A2499CA2 
 257 0014 C54D7068 		.ascii	"\305Mphjlp\025\334B\220\260\267&H\215\342{i\020\015"
 257      6A6C7015 
 257      DC4290B0 
 257      B726488D 
 257      E27B6910 
 258 0029 A14E41E8 		.ascii	"\241NA\350\026\375\261l\250\261\340\321R\004\025\321"
 258      16FDB16C 
 258      A8B1E0D1 
 258      520415D1 
 259 0039 50581984 		.ascii	"PX\031\204Em\231X=\242\354\\\337\030t\341\336s\377|"
 259      456D9958 
 259      3DA2EC5C 
 259      DF1874E1 
 259      DE73FF7C 
 260 004d E7F7DD4F 		.ascii	"\347\367\335O\243\277# 3\012\242\021\251\320\010\\8"
 260      A3BF2320 
 260      330AA211 
 260      A9D0085C 
 260      38
 261 005e 23B2BC0C 		.ascii	"#\262\274\014\250\015\201\262\214,^\270\305(\330\325"
 261      A80D81B2 
 261      8C2C5EB8 
 261      C528D8D5 
 262 006e 655F70D5 		.ascii	"e_p\3254\315\327\322\201\177\336\3570Q\233]\014\326"
 262      34CDD7D2 
 262      817FDEEF 
ARM GAS  C:\Users\Thomas\AppData\Local\Temp\cc1FltvD.s 			page 20


 262      30519B5D 
 262      0CD6
 263 0080 1024D1B4 		.ascii	"\020$\321\264\362\337W>=/\232A\367\015\353\320\005O"
 263      F2DF573E 
 263      3D2F9A41 
 263      F70DEBD0 
 263      054F
 264 0092 3B43B6D9 		.ascii	";C\266\331\355\356v\212\307c\320\231\034\0263Y\210\232"
 264      EDEE768A 
 264      C763D099 
 264      1C163359 
 264      889A
 265 00a4 A252568F 		.ascii	"\242RV\217\314\252ju\034\276/>U&T\343\007+\337\334\365"
 265      CCAA6A75 
 265      1CBE2F3E 
 265      552654E3 
 265      072BDFDC 
 266 00b9 FE1B3FB3 		.ascii	"\376\033?\263\303\3349\261L\217\262\271o\236_x{W\244"
 266      C3DC39B1 
 266      4C8FB2B9 
 266      6F9E5F78 
 266      7B57A4
 267 00cc 8E0FA78D 		.ascii	"\216\017\247\215\271\3762V\254<\034\326\260\201\000"
 267      B9FE3256 
 267      AC3C1CD6 
 267      B08100
 268 00db 3621C950 		.ascii	"6!\311PE\031TG\356Swq\232K,\026\367*\003\252]\373\001"
 268      45195447 
 268      EE537771 
 268      9A4B2C16 
 268      F72A03AA 
 269 00f2 614BA4E2 		.ascii	"aK\244\342Z\202\322\374G\333\026\2320\350\0269\373\346"
 269      5A82D2FC 
 269      47DB169A 
 269      30E81639 
 269      FBE6
 270 0104 88955CB9 		.ascii	"\210\225\\\271W.\227j\234\3712\027L\257\303\236\266"
 270      572E976A 
 270      9CF93217 
 270      4CAFC39E 
 270      B6
 271 0115 0A851A32 		.ascii	"\012\205\0322\022\257\217\032\260\354\273HOI*+TF\371"
 271      12AF8F1A 
 271      B0ECBB48 
 271      4F492A2B 
 271      5446F9
 272 0128 F470281E 		.ascii	"\364p(\0361\246\215\364\344\2141\225\210\245f\323I#"
 272      31A68DF4 
 272      E48C3195 
 272      88A566D3 
 272      4923
 273 013a 1E8DA5C6 		.ascii	"\036\215\245\306G\343\321p\"\034J\322/]/\201u"
 273      47E3D170 
 273      221C4AD2 
 273      2F5D2F81 
 273      75
 274              		.text
ARM GAS  C:\Users\Thomas\AppData\Local\Temp\cc1FltvD.s 			page 21


 275              		.section	.gnu.lto_P1_1_SetIntMode.bb5ce9de,"",%progbits
 276 0000 789C8D51 		.ascii	"x\234\215QM(DQ\024>\337\275\317\314c\026d\305\254\224"
 276      4D284451 
 276      143EDFBD 
 276      CFCC6316 
 276      64C5AC94 
 277 0014 90921A65 		.ascii	"\220\222\032e\257,d'\266S\022oa\203^c=o\314\314fV3\262"
 277      AF2C6427 
 277      B653126F 
 277      61835E63 
 277      3D6FCCCC 
 278 002c 50524AF2 		.ascii	"PRJ\362?\376\0266\322\2444J\021\033e\301\302La!\362"
 278      3FFE1636 
 278      D2A4344A 
 278      111B65C1 
 278      C24C6121 
 279 0041 33331AC6 		.ascii	"33\032\306\271\357YQ\362\352\236s\356}\337\317\271\347"
 279      B9EF5951 
 279      F2EA9E73 
 279      EE7DDFCF 
 279      B9E7
 280 0053 4AFAFD79 		.ascii	"J\372\375yyi\202\250\2153$A\304O\210B\272\000TA\240"
 280      796982A8 
 280      8D332441 
 280      C44F8842 
 280      BA005441 
 281 0068 A0401077 		.ascii	"\240@\020w\342I \236Z\235\3664-X\226\365x\236\250\215"
 281      E249209E 
 281      5A9DF634 
 281      2D5896F5 
 281      789EA88D 
 282 007c D61498F6 		.ascii	"\326\024\230\366,\034\031,\242\211!\261\375X\262\\\326"
 282      2C1C192C 
 282      A28921B1 
 282      FD58B25C 
 282      D6
 283 008d 83B89E7A 		.ascii	"\203\270\236zO\337\313\206y\313\232H\355%\255\016\024"
 283      4FDFCB86 
 283      79CB9A48 
 283      ED25AD0E 
 283      14
 284 009e 58730992 		.ascii	"Xs\011\222\031h\361\242\331K|@XF\203\002?E>.<\256\010"
 284      1968F1A2 
 284      D94B7C40 
 284      58468302 
 284      3F453E2E 
 285 00b5 6B57399A 		.ascii	"kW9\232X\201\013\2347\252SV\251\264\223\236Zj\324*\004"
 285      58810B9C 
 285      37AA5356 
 285      A9B4939E 
 285      5A6AD42A 
 286 00ca 738454A1 		.ascii	"s\204T\241L\005\027\024\335\255J]\005\242\014/\325w"
 286      4C051714 
 286      DDAD4A5D 
 286      05A20C2F 
 286      D577
 287 00dc 96379CE5 		.ascii	"\2267\234\345%\016\336b\237G\246R\313\011\373\022\273"
ARM GAS  C:\Users\Thomas\AppData\Local\Temp\cc1FltvD.s 			page 22


 287      250EDE62 
 287      9F47A652 
 287      CB09FB12 
 287      BB
 288 00ed 8973ED56 		.ascii	"\211s\355V\024\204\214\036\207,My_gN\317t\373\210\324"
 288      14848C1E 
 288      872C4D79 
 288      5F674ECF 
 288      74FB88D4 
 289 0101 F670EE35 		.ascii	"\366p\3565\353\231\305L(\302-kX\205\027k\3401a\035\263"
 289      EB99C54C 
 289      28C22D6B 
 289      5885176B 
 289      E031611D 
 290 0116 A04B84F3 		.ascii	"\240K\204\363.GN:\212\0177\305\260M\327\362|\237$C\331"
 290      2E474E3A 
 290      8A0F37C5 
 290      B04DD7F2 
 290      7C9F2443 
 291 012b 75120AF3 		.ascii	"u\022\012\363\227\332\006\253\261\006\331-\036t;\222"
 291      97DA06AB 
 291      B106D92D 
 291      1E743B92 
 292 013b 657F3136 		.ascii	"e\17716\177\370\273sB9\344\212\351h\245\355\357&l\331"
 292      7FF8BB73 
 292      4239E48A 
 292      E968A5ED 
 292      EF266CD9 
 293 014f F6E1976F 		.ascii	"\366\341\227o\210\316\222\014\374_G\333vG:]!\224\332"
 293      88CE920C 
 293      FC5F47DB 
 293      76473A5D 
 293      2194DA
 294 0162 E95568F5 		.ascii	"\351Uh\365\262\031~%\036%\017\266\256\325\337e\214\030"
 294      B2197E25 
 294      1E250FB6 
 294      AED5DF65 
 294      8C18
 295 0174 E640C018 		.ascii	"\346@\300\030\352\357\033\0357\007\015\177O\337hg\273"
 295      EAEF1B1D 
 295      37070D7F 
 295      4FDF6867 
 295      BB
 296 0185 BFC7D7EF 		.ascii	"\277\307\327\357k\035\244\312\341\221\200a\232\343c"
 296      6B1DA4CA 
 296      E1918061 
 296      9AE363
 297 0194 01E7EF17 		.ascii	"\001\347\357\027\3707\277V"
 297      F837BF56 
 298              		.text
 299              		.section	.gnu.lto_P1_1_GetIntStatus.bb5ce9de,"",%progbits
 300 0000 789C6366 		.ascii	"x\234cf\300\004R@\374\007\210\225\200\230\221\231\201"
 300      C0045240 
 300      FC078895 
 300      80989199 
 300      81
 301 0011 9169C239 		.ascii	"\221i\3029\006\206F\016&FF\020\203\201\221\241\236\211"
ARM GAS  C:\Users\Thomas\AppData\Local\Temp\cc1FltvD.s 			page 23


 301      0686460E 
 301      26464610 
 301      838191A1 
 301      9E89
 302 0023 B19EF125 		.ascii	"\261\236\361%\323G&\3063;\377]fT_\332\320\320\364a\321"
 302      D34726C6 
 302      333BFF5D 
 302      66545FDA 
 302      D0D0F461 
 303 0038 F4BBDCAD 		.ascii	"\364\273\334\255\022?\231\030\030>310\352H1j\202\314"
 303      123F9918 
 303      183E3331 
 303      30EA4831 
 303      6A82CC
 304 004b 615CCEA8 		.ascii	"a\\\316\250\316\000T\370\261\345\357un\266\226\206\206"
 304      CE0054F8 
 304      B1E5EF75 
 304      6EB69686 
 304      86
 305 005c 0601903C 		.ascii	"\006\001\220<Pb\005#\033#\220^/t\240\341\377\377\317"
 305      50620523 
 305      1B23905E 
 305      2F74A0E1 
 305      FFFFCF
 306 006f 77A7ACD0 		.ascii	"w\247\254\320gaab\370\311\004\264\021d\010\303\023 "
 306      67616162 
 306      F8C904B4 
 306      116408C3 
 306      1320
 307 0081 01B2EF29 		.ascii	"\001\262\357)\023\023\210f\276\305x\350[\327\263\323"
 307      13138866 
 307      BEC578E8 
 307      5BD7B3D3 
 308 0091 16208DDF 		.ascii	"\026 \215\337\231@\226OY\372\341$\343\013\246\237LL"
 308      9940964F 
 308      59FAE124 
 308      E30BA69F 
 308      4C4C
 309 00a3 4F4F3536 		.ascii	"OO56\260\200\254\271\377\344\374E\016\260\020\003\210"
 309      B080ACB9 
 309      FFE4FC45 
 309      0EB01003 
 309      88
 310 00b4 DBBAF0CA 		.ascii	"\333\272\360\312\024\356\271\214\263\033[\030\17721"
 310      14EEB98C 
 310      B31B5B18 
 310      7F3231
 311 00c3 33AE6494 		.ascii	"3\256d\224b\\\305\010t\026\343j\306\271\214\014\267"
 311      625CC508 
 311      7416E36A 
 311      C6B98C0C 
 311      B7
 312 00d4 189B7FB4 		.ascii	"\030\233\177\264\351@\314c\206\030\371\375\317\361V"
 312      E940CC63 
 312      8618F9FD 
 312      CFF156
 313 00e3 7E907E06 		.ascii	"~\220~\006v\006\3065@\245\367\030\031\241\012\300Nb"
ARM GAS  C:\Users\Thomas\AppData\Local\Temp\cc1FltvD.s 			page 24


 313      7606C635 
 313      40A5F718 
 313      19A10AC0 
 313      4E62
 314 00f5 04390568 		.ascii	"\0049\005h\266\202^\214{j^jQbIjJ|p~iQrjL@p\276\263i"
 314      B6825E8C 
 314      7B6A5E6A 
 314      5162496A 
 314      4A7C707E 
 315 0113 4C8061BC 		.ascii	"L\200a\274\241^2\003\000~+e^"
 315      A15E3203 
 315      007E2B65 
 315      5E
 316              		.text
 317              		.section	.gnu.lto_P1_1_WriteRegValue.bb5ce9de,"",%progbits
 318 0000 789C654F 		.ascii	"x\234eO\277KBQ\030\375\316}j\206A\322TNA\210K\010\016"
 318      BF4B4251 
 318      18FDCE7D 
 318      6A8641D2 
 318      544E4188 
 319 0017 2D4D4141 		.ascii	"-MAA\253`\243 b/jI0\233\275/^TT\340\020\021\211SD?\254"
 319      AB60A320 
 319      622F6A49 
 319      309BBD2F 
 319      5E5454E0 
 320 0032 0CFA071E 		.ascii	"\014\372\007\036\271HA\277 \304\206\004Q(hH\024\314"
 320      B94841BF 
 320      20C48604 
 320      51286848 
 320      14CC
 321 0044 21ECBB35 		.ascii	"!\354\2735v\341\362}\347p\3569\347j\364\377x\370\372"
 321      76E1F27D 
 321      E770EE39 
 321      E76AF4FF 
 321      78F8FA
 322 0057 4034CA13 		.ascii	"@4\312\023\032A\244\357\210\014\247\000\324B\240\224"
 322      1A41A4EF 
 322      880CA700 
 322      D442A094 
 323 0067 400AEFA2 		.ascii	"@\012\357\242!\220\266r{.\337\241\224\362\263\232\031"
 323      2190B672 
 323      7B2EDFA1 
 323      94F2B39A 
 323      19
 324 0078 5A1DEC08 		.ascii	"Z\035\354\010\242\246\370\263\301\021|,)\264?\326\354"
 324      A2A6F8B3 
 324      C1117C2C 
 324      29B43FD6 
 324      EC
 325 0089 DA0888F7 		.ascii	"\332\010\210\367\333\352W\263\357Mt\004\334\012\356"
 325      DBEA57B3 
 325      EF4D7404 
 325      DC0AEE
 326 0098 97EA2D4D 		.ascii	"\227\352-MA!\024,\227\237\266\234\336\003)W\254\342"
 326      4121142C 
 326      979FB69C 
 326      DE032957 
ARM GAS  C:\Users\Thomas\AppData\Local\Temp\cc1FltvD.s 			page 25


 326      ACE2
 327 00aa A59C605E 		.ascii	"\245\234`^\30314\366\303\011<8\205\207\230\"\344\340"
 327      C33134F6 
 327      C3093C38 
 327      85879822 
 327      E4E0
 328 00bc 55F286F9 		.ascii	"U\362\206\371]r9L\316v\377e\342\014\016\256M\371\001"
 328      5D72394C 
 328      CE76FF65 
 328      E20C0EAE 
 328      4DF901
 329 00cf 4B76BB57 		.ascii	"Kv\273W\255\235\342\270\315\306\255\225\236j\254P\365"
 329      AD9DE2B8 
 329      CDC6AD95 
 329      9E6AAC50 
 329      F5
 330 00e0 EB9CC553 		.ascii	"\353\234\305S{\301\365n\2435\243\336\260\327\346\272"
 330      7BC1F56E 
 330      A335A3DE 
 330      B0D7E6BA 
 331 00f0 F5D0A39A 		.ascii	"\365\320\243\232\330\314\033C\332\224}\245v\377\350"
 331      D8CC1B43 
 331      DA947DA5 
 331      76FFE8
 332 00ff FCA548C1 		.ascii	"\374\245H\301\215\355B\245?\213\214a\242#\3548\347B"
 332      8DED42A5 
 332      3F8B8C61 
 332      A223EC38 
 332      E742
 333 0111 175C8890 		.ascii	"\027\\\210\220G\026m6}\205a=\207\224\237\372|M@\305"
 333      47166D36 
 333      7D85613D 
 333      87949FFA 
 333      7C4D40C5 
 334 0125 70E8B03F 		.ascii	"p\350\260?<\255/\352\211hR\237\215\204\342\313\211\230"
 334      3CAD2FEA 
 334      8968529F 
 334      8D84E2CB 
 334      8998
 335 0137 1E0E86E2 		.ascii	"\036\016\206\342\223c\341` \022\360\307\250wi~a.9\025"
 335      9363E160 
 335      2012F0C7 
 335      A877697E 
 335      612E3915 
 336 014b 4D467F00 		.ascii	"MF\177\000\377\002y^"
 336      FF02795E 
 337              		.text
 338              		.section	.gnu.lto_P1_1_ReadRegValue.bb5ce9de,"",%progbits
 339 0000 789C6D52 		.ascii	"x\234mRmHSQ\030~\337s\356\275\256m\231\364s\177\014"
 339      6D485351 
 339      187EDF73 
 339      EEBDAE6D 
 339      99F4737F 
 340 0015 46681196 		.ascii	"Fh\021\226A\177\352O\020\021\375\023\374;\020\321\011"
 340      417FEA4F 
 340      1011FD13 
 340      FC3B10D1 
ARM GAS  C:\Users\Thomas\AppData\Local\Temp\cc1FltvD.s 			page 26


 340      09
 341 0026 41242CFD 		.ascii	"A$,\375)\236\351\245$\323%\210\232\241T`\315L\255\\"
 341      299EE9A5 
 341      24D32588 
 341      9AA15460 
 341      CD4CAD5C 
 342 003a 1F7E04D3 		.ascii	"\037~\004\323$\243\017E4%\0315\304A\032\204\266r\215"
 342      24A30F45 
 342      34251935 
 342      C4411A84 
 342      B6728D
 343 004d 3ED67BCE 		.ascii	">\326{\316u\320\262\013\333=\347\334\347}\316\373<\317"
 343      75D0B20B 
 343      DB3DE7DC 
 343      E77DCEFB 
 343      3CCF
 344 005f CB61FB73 		.ascii	"\313a\373s\222~U\034\340\020\275\321\000dW\246\001\374"
 344      927E551C 
 344      E010BDD1 
 344      006457A6 
 344      01FC
 345 0071 36869AB5 		.ascii	"6\206\232\265\340\326b\334\2461~y\012@\330u3\013\204"
 345      E0D662DC 
 345      A6317E79 
 345      0A40D875 
 345      330B84
 346 0084 534794E7 		.ascii	"SG\224\347\200P\313\270\246c-\323,\302U\266\301\360"
 346      8050CBB8 
 346      A6632DD3 
 346      2CC255B6 
 346      C1F0
 347 0096 D5F2F7B8 		.ascii	"\325\362\367\270\363#K2\310\001\332v.\306\276r\271E"
 347      F3234B32 
 347      C801DA76 
 347      2EC6BE72 
 347      B945
 348 00a8 26B7A3F1 		.ascii	"&\267\243\361\351e#\257G\210\272\365/\263\245\035\255"
 348      E96523AF 
 348      4788BAF5 
 348      2FB3A51D 
 348      AD
 349 00b9 D731C918 		.ascii	"\3271\311\030\304\031\340mta\020]\222\267\027\363$\266"
 349      C419E06D 
 349      7461105D 
 349      92B717F3 
 349      24B6
 350 00cb 37F22D9C 		.ascii	"7\362-\234\315\335(\327\201\306\356\271\235\356\033"
 350      CDDD28D7 
 350      81C6EEB9 
 350      9DEE1B
 351 00da 5417BDDA 		.ascii	"T\027\275\332t\321)\202\302\214\246R\271T\214w\220g"
 351      74D12982 
 351      C28CA652 
 351      B9548C77 
 351      9067
 352 00ec D6CB874A 		.ascii	"\326\313\207J6\314_\213\016\303\024B\344`\037\272\345"
 352      36CC5F8B 
ARM GAS  C:\Users\Thomas\AppData\Local\Temp\cc1FltvD.s 			page 27


 352      0EC31442 
 352      E4601FBA 
 352      E5
 353 00fd 25C47D17 		.ascii	"%\304}\027\015\004`\362\2040\355\343=mv\2136\031{\356"
 353      0D0460F2 
 353      8430EDE3 
 353      3D6D768B 
 353      36197BEE 
 354 0111 101D695A 		.ascii	"\020\035iZ\236\246=\340\302}iR\354G\367\340\356\260"
 354      9EA63DE0 
 354      C27D6952 
 354      EC47F7E0 
 354      EEB0
 355 0123 48A5865E 		.ascii	"H\245\206^\2675\0344l\034\222L\323\350O\327A2\032\012"
 355      B7351C34 
 355      6C1C924C 
 355      D3E84FD7 
 355      41321A0A 
 356 0137 02B04257 		.ascii	"\002\260BW\221U+$\315\314\3421\306\201\374\343K8\261"
 356      91552B24 
 356      CDCCE231 
 356      C681FCE3 
 356      4B38B1
 357 014a 796973F5 		.ascii	"yis\365\260\354!\3018]\337,.\2643i\2161\377\322/4\331"
 357      B0EC21C1 
 357      385DDF2C 
 357      2EB43369 
 357      8E31FFD2 
 358 0161 F5879599 		.ascii	"\365\207\225\231Y\233:R\"\372\002\237&Y\027^\363\233"
 358      599B3A52 
 358      22FA029F 
 358      2659175E 
 358      F39B
 359 0173 6454160E 		.ascii	"dT\026\016\220\310A)\022\357a\027\351\200\030yOa\360"
 359      90C84129 
 359      12EF6117 
 359      E9801879 
 359      4F61F0
 360 0186 05AC5376 		.ascii	"\005\254Sv\007\336LDv\361\375\312\263\371\340\213:\315"
 360      07DE4C44 
 360      76F1FDCA 
 360      B3F9E08B 
 360      3ACD
 361 0198 121768CA 		.ascii	"\022\027h\312\024w\377?\342\036(Gf\242\317\002*>N\337"
 361      1477FF3F 
 361      E21E2847 
 361      66A2CF02 
 361      2A3E4EDF 
 362 01ac 87E82A62 		.ascii	"\207\350*b\016'\032\2633\014\015\017w\356\225xeg\234"
 362      0E271AB3 
 362      330C0D0F 
 362      77EE9578 
 362      65679C
 363 01bf E1BF764B 		.ascii	"\341\277vK\0230D3\005\370\220\374\356W\314--\241\356"
 363      13304433 
 363      05F890FC 
 363      EE57CC2D 
ARM GAS  C:\Users\Thomas\AppData\Local\Temp\cc1FltvD.s 			page 28


 363      2DA1EE
 364 01d2 6CC5FC1B 		.ascii	"l\305\374\033\001\037Y\3249\022@\037\247&G\306\364\374"
 364      011F59D4 
 364      3912401F 
 364      A72647C6 
 364      F4FC
 365 01e4 5B541D1D 		.ascii	"[T\035\035\353\217\034\267\021*\335\327c\314W\215D\260"
 365      EB8F1CB7 
 365      112ADDD7 
 365      63CC578D 
 365      44B0
 366 01f6 5EA1134C 		.ascii	"^\241\023L\026t\3175\017\260\232\037\242A\020\326\026"
 366      1674CF35 
 366      0FB09A1F 
 366      A24110D6 
 366      16
 367 0207 A73990F7 		.ascii	"\2479\220\367\341\023\254\2418v(j\025\006\241\341-\232"
 367      E113ACA1 
 367      3876286A 
 367      1506A1E1 
 367      2D9A
 368 0219 EFEAE321 		.ascii	"\357\352\343!\227e\274\361\367T\352\244rxkjbL\227q\251"
 368      9765BCF1 
 368      F754EAA4 
 368      72786B6A 
 368      624C9771 
 369 022e 9816D6EC 		.ascii	"\230\026\326\354\026Z#\364\346\372\304O\025\223\275"
 369      165A23F4 
 369      E6FAC44F 
 369      1593BD
 370 023d 755B4C76 		.ascii	"u[Lv\025S\375\334\315Y#\035\223\003G(\246Q\025\323\230"
 370      1553FDDC 
 370      CD59231D 
 370      93034728 
 370      A65115D3 
 371 0252 8C49317E 		.ascii	"\214I1~^;j1\352\031\261\372\303\271\231\301>\225\025"
 371      5E3B6A31 
 371      EA19B1FA 
 371      C3B999C1 
 371      3E9515
 372 0265 D4BE38A6 		.ascii	"\324\2768\246f\265OJ\320\341=\372\303\211%\266\305\000"
 372      66B54F4A 
 372      D0E13DFA 
 372      C38925B6 
 372      C500
 373 0277 72C4909A 		.ascii	"r\304\220\232\2459\333S\3409\345=\347\365\225Vy\313"
 373      A539DB53 
 373      E039E53D 
 373      E7F59556 
 373      79CB
 374 0289 4B8A2BAB 		.ascii	"K\212+\253}e^OQq\345\211#\236\242\302\222\302\20220"
 374      7D655E4F 
 374      5171E589 
 374      239EA2C2 
 374      92C28232 
 375 029e 7CDEF3D5 		.ascii	"|\336\363\325g\253\214\2123\025\225\247\313\377\000"
 375      67AB8C8A 
ARM GAS  C:\Users\Thomas\AppData\Local\Temp\cc1FltvD.s 			page 29


 375      331595A7 
 375      CBFF00
 376 02ad 5D3A47C4 		.ascii	"]:G\304"
 377              		.text
 378              		.section	.gnu.lto_.symbol_nodes.bb5ce9de,"",%progbits
 379 0000 789C55CF 		.ascii	"x\234U\317\261\015\3020\024\004\320\263\177\034;\211"
 379      B10DC230 
 379      1404D0B3 
 379      7F1C3B89 
 380 0010 93929609 		.ascii	"\223\222\226\011`\305\213\322\320\262\000\210D\254A"
 380      60C58BD2 
 380      D0B20088 
 380      44AC41
 381 001f 13513303 		.ascii	"\023Q3\003\364\210\021\020FI\341\377\233\323\323]\363"
 381      F4881110 
 381      4649E1FF 
 381      9BD3D35D 
 381      F3
 382 0030 05C0DE60 		.ascii	"\005\300\336`9\333\0218>\000\322\234\246\000\353iV\343"
 382      39DB1138 
 382      3E00D29C 
 382      A600EB69 
 382      56E3
 383 0042 7C49165A 		.ascii	"|I\026ZeGQ\266,\224\015]n\007\214\226\260%K5+\350\225"
 383      654751B6 
 383      2C940D5D 
 383      6E078C96 
 383      B0254B35 
 384 0059 038372C5 		.ascii	"\003\203r\305J\271f\255\334\260\311mZ\306\305\350\373"
 384      4AB966AD 
 384      DCB0C96D 
 384      5AC6C5E8 
 384      FB
 385 006a C4C836A3 		.ascii	"\304\3106\243\244o\207q#\322\341\372\374\032\221\026"
 385      A46F8771 
 385      23D2E1FA 
 385      FC1A9116 
 386 007a F757CA42 		.ascii	"\367W\312B0\374\323\011\346\303{+~\355\375\332\007\277"
 386      30FCD309 
 386      E6C37B2B 
 386      7EEDFDDA 
 386      07BF
 387 008c F411986E 		.ascii	"\364\021\230n\237\035~\340<P7"
 387      9F1D7EE0 
 387      3C5037
 388              		.text
 389              		.section	.gnu.lto_.refs.bb5ce9de,"",%progbits
 390 0000 789C6366 		.ascii	"x\234cf``\340d\200\000&V\0066FF6.\006\000\001z\000,"
 390      6060E064 
 390      80002656 
 390      06364646 
 390      362E0600 
 391              		.text
 392              		.section	.gnu.lto_.decls.bb5ce9de,"",%progbits
 393 0000 789C9D56 		.ascii	"x\234\235ViLTW\024~w\35600\303\200\266I\2615M:\306\304"
 393      694C5457 
 393      147E77EE 
ARM GAS  C:\Users\Thomas\AppData\Local\Temp\cc1FltvD.s 			page 30


 393      3030C380 
 393      B649B135 
 394 0018 A48921DA 		.ascii	"\244\211!\332\246\306\376\252)uk\272\030I\355\017M\014"
 394      A6C6FEAA 
 394      29756BBA 
 394      1849ED0F 
 394      4D0C
 395 002a E28B9D84 		.ascii	"\342\213\235\204\200\3011\251\277z\025-\270UJk\004+"
 395      80C131A9 
 395      BF7A152D 
 395      B8554A6B 
 395      042B
 396 003c 3A2EB816 		.ascii	":.\270\026\035,\373\"\003\350\010\"\212:\202\210\262"
 396      1D2CFB22 
 396      03E80822 
 396      8A3A8288 
 396      B2
 397 004d 38822C8A 		.ascii	"8\202,\212\303\246(\342\364\334\3459\357MAMorf\336}"
 397      C3A628E2 
 397      F4DCE539 
 397      EF4D414D 
 397      6F7266DE 
 398 0062 73CEF77D 		.ascii	"s\316\367}\347\236\363\316\033,I\322q,I>Xi&I\372\005"
 398      E79EF3CE 
 398      1B2C49D2 
 398      712C493E 
 398      58692649 
 399 0078 495218DC 		.ascii	"IR\030\334[\002\006\227R\204\304W8X\016X\036X!X1X)\330"
 399      5B020697 
 399      5284C457 
 399      38580E58 
 399      1E582158 
 400 0090 39302758 		.ascii	"90'X%\230\013\254\006\314\015\326\010\326\004\326,p"
 400      25980BAC 
 400      06CC0DD6 
 400      08D604D6 
 400      2C70
 401 00a2 5A24EDA2 		.ascii	"Z$\355\242X\301`\247\004\307\"0\017X;\330\327\202\237"
 401      58C160A7 
 401      04C72230 
 401      0F583BD8 
 401      D7829F
 402 00b5 2E9D8A17 		.ascii	".\235\212\027dJ\367\301:\300:\003\360\350\357z\025\336"
 402      644AF7C1 
 402      3AC03A03 
 402      F0E8EF7A 
 402      15DE
 403 00c7 03B0332A 		.ascii	"\003\2603*\214<\201C\265t\005\304\322|\202\004g\204"
 403      8C3C8143 
 403      B57405C4 
 403      D27C8204 
 403      6784
 404 00d9 C050B428 		.ascii	"\300P\264(\361\205\"\277\300E\317\301(b\025\356n\260"
 404      F18522BF 
 404      C045CFC1 
 404      286215EE 
 404      6EB0
ARM GAS  C:\Users\Thomas\AppData\Local\Temp\cc1FltvD.s 			page 31


 405 00eb 8B2A8C1E 		.ascii	"\213*\214\036\260\363\302\037\213\230fq>\201\213\236"
 405      B0F3C21F 
 405      8B986671 
 405      3E818B9E 
 406 00fb A941A545 		.ascii	"\251A\245E\301\350\005\313W\351)\0258\201\213\326#D"
 406      C1E805CB 
 406      57E92915 
 406      38818BD6 
 406      2344
 407 010d 15FF3020 		.ascii	"\025\3770 \0375N\220\360WrS0\307\253\227\363\177\344"
 407      1F354E90 
 407      F0577253 
 407      30C7AB97 
 407      F37FE4
 408 0120 E97C4D9E 		.ascii	"\351|M\236\225o\231g\245\300\011\\.\311_3E\217\272f"
 408      956F9967 
 408      A5C0095C 
 408      2EC95F33 
 408      458FBA66 
 409 0134 481ABF5E 		.ascii	"H\032\277^\264?\365\257\211\251\031'\306\255\322J\237"
 409      B43FF5AF 
 409      89A91927 
 409      C6ADD24A 
 409      9F
 410 0145 0333583D 		.ascii	"\0033X=X?\230W\025\353\036'\266Q\370\253\343(\267E\360"
 410      583F9857 
 410      15EB1E27 
 410      B651F8AB 
 410      E328B745 
 411 015a 0F820D48 		.ascii	"\017\202\015H\376~\035\006\033\022\261X\304+\275\033"
 411      FE7E1D06 
 411      1B12B158 
 411      C42BBD1B 
 412 016a B8FA75A8 		.ascii	"\270\372u\250\241<99\004\353\020\275>\234\336\3566\315"
 412      A13C3939 
 412      04EB10BD 
 412      3E9CDEEE 
 412      36CD
 413 017c 3C490849 		.ascii	"<I\010I!N'\362;m<Z\262#\270K\207\"Ll\373[\355\336\012"
 413      214E27F2 
 413      3B6D3C5A 
 413      B223B84B 
 413      87224C6C 
 414 0195 CCB63E1A 		.ascii	"\314\266>\032\247kj\372\363\031F\246\031)\204l\"\336"
 414      A76B6AFA 
 414      F31946A6 
 414      1929846C 
 414      22DE
 415 01a7 3482DF97 		.ascii	"4\202\337\227\320\314\251\350\343\251\022\372\033\315"
 415      D0CCA9E8 
 415      E3A912FA 
 415      1BCD
 416 01b5 0037741C 		.ascii	"\0007t\034\315\224\320\0114\025\235DS\245#@\340=\340"
 416      CD94D009 
 416      34159D44 
 416      53A52340 
 416      E03DE0
ARM GAS  C:\Users\Thomas\AppData\Local\Temp\cc1FltvD.s 			page 32


 417 01c8 BEFD2121 		.ascii	"\276\375!!zt\012\231\3201\204\231\007\034\002e\020\244"
 417      7A740A99 
 417      D0318499 
 417      071C0265 
 417      10A4
 418 01da 45A787EA 		.ascii	"E\247\207\352B\201%\334d\241\333\342\264\352t\003l\315"
 418      428125DC 
 418      64A1DBE2 
 418      B4EA7403 
 418      6CCD
 419 01ec 263DDD6E 		.ascii	"&=\335n\335\354\300Sv\003\022IM\"\2239N6\020\234\006"
 419      DDECC053 
 419      76031249 
 419      4D229339 
 419      4E36109C 
 420 0201 02099D41 		.ascii	"\002\011\235AS\340s\271\236#\265<\367\366\207\341OY"
 420      53E073B9 
 420      9E23B53C 
 420      F7F687E1 
 420      4F59
 421 0213 8EB967BB 		.ascii	"\216\271g\273\343,\373\211\323\341\315\364\224|\236"
 421      E32CFB89 
 421      D3E1CDF4 
 421      947C9E
 422 0222 916ADF44 		.ascii	"\221j\337D^\372|\210\350h\014r\274R\"\321k^\230\034"
 422      5EFA7C88 
 422      E8680C72 
 422      BC5222D1 
 422      6B5E981C 
 423 0236 6481C0D4 		.ascii	"d\201\300\324-\025\251z=t\024\243Z\316D\324\273\266"
 423      2D15A97A 
 423      3D7414A3 
 423      5ACE44D4 
 423      BBB6
 424 0248 BA5EA3E2 		.ascii	"\272^\243\342\037\246\342,\0222\332\252\322\234\006"
 424      1FA6E22C 
 424      1232DAAA 
 424      D29C06
 425 0257 1CCF64D8 		.ascii	"\034\317d\330\311\225-:\320\321\346 \031\304\256#0<"
 425      C9952D3A 
 425      D0D1E620 
 425      19C4AE23 
 425      303C
 426 0269 410204A0 		.ascii	"A\002\004\240\\\225\204\\EB\036\223P2z\317\255W\323"
 426      5C95845C 
 426      45421E93 
 426      50327ACF 
 426      AD57D3
 427 027c 2D8950B1 		.ascii	"-\211P\261\345kr\276\365\370\245[\2177\"\306V1b?\217"
 427      E56B72BE 
 427      F5F8A55B 
 427      8F3722C6 
 427      5631623F 
 428 0291 185B5B59 		.ascii	"\030[[Y\225\354\334L^\370|I!,\004\025\250\370\012\024"
 428      95ECDC4C 
 428      5EF87C49 
 428      212C0415 
ARM GAS  C:\Users\Thomas\AppData\Local\Temp\cc1FltvD.s 			page 33


 428      A8F80A14 
 429 02a5 BE42C6D7 		.ascii	"\276B\306\327U4\332\245\307\3339F\307\205n\217\211a"
 429      5534DAA5 
 429      C7DB3946 
 429      C7856E8F 
 429      8961
 430 02b7 D8776519 		.ascii	"\330we\031\252\211\323\347\373\202\001\024\251\000\212"
 430      AA89D3E7 
 430      FB820114 
 430      A9008A
 431 02c6 14806206 		.ascii	"\024\200b\006p\350\334\305$#\336\313\001Z\262\236\356"
 431      70E8DCC5 
 431      2423DECB 
 431      015AB29E 
 431      EE
 432 02d7 0EE1003B 		.ascii	"\016\341\000;\017s\200r\202\030D\211\012\242D\201(e"
 432      0F738072 
 432      82184489 
 432      0AA24481 
 432      2865
 433 02e9 10BB4A2A 		.ascii	"\020\273J*\312\014\370(\207Hv<j\244\032\354\016{\363"
 433      CA0CF828 
 433      8748763C 
 433      6AA41AEC 
 433      0E7BF3
 434 02fc 59328FE5 		.ascii	"Y2\217\345\201\031B\231\012\241LA8\307\020\372^Tg`\234"
 434      81194299 
 434      0AA14C41 
 434      38C710FA 
 434      5E546760 
 435 0311 C3111EE5 		.ascii	"\303\021\036\345ev\360\223\260\227k\262(W\001\224+\000"
 435      6576F093 
 435      B0976BB2 
 435      28570194 
 435      2B00
 436 0323 4E065050 		.ascii	"N\006PP\226}'\014Wp\200\316\326\016V8\220\320}X\015"
 436      967D270C 
 436      577080CE 
 436      D60E5638 
 436      90D07D58 
 437 0338 50A102A8 		.ascii	"P\241\002\250P\000*'l\235a_{\226n\302Z\236g\265\254"
 437      50002A27 
 437      6C9D615F 
 437      7B966EC2 
 437      5A9E67B5 
 438 034d 523AA7A9 		.ascii	"R:\247\251oxg0\256\345\012\356\334\367\274\300\342\034"
 438      6F786730 
 438      AEE50AEE 
 438      DCF7BCC0 
 438      E21C
 439 035f 4FF8CF11 		.ascii	"O\370\317\021B\320\005\225\206\013\212\006\027\323\360"
 439      42D00595 
 439      860B8A06 
 439      17D3F0
 440 036e FAE7E5A2 		.ascii	"\372\347\345\242\246w\306\236U\355\013\303\315\234n"
 440      A677C69E 
 440      55ED0BC3 
ARM GAS  C:\Users\Thomas\AppData\Local\Temp\cc1FltvD.s 			page 34


 440      CD9C6E
 441 037d 60A0BD87 		.ascii	"`\240\275\207'\334V\334-z\007\263\010T\255\242\253V"
 441      27DC56DC 
 441      2D7A07B3 
 441      0854ADA2 
 441      AB56
 442 038f E86A185D 		.ascii	"\350j\030]\355\275\221A3{x'S\220\275\215\035C\230=\274"
 442      EDBD9141 
 442      337B7827 
 442      5390BD8D 
 442      1D43983D 
 443 03a4 3ABACD1C 		.ascii	":\272\315\034\350+5\342G\234@\031.\026>\\\366\364\216"
 443      E82B35E2 
 443      479C4019 
 443      2E163E5C 
 443      F6F48E
 444 03b7 E486B02D 		.ascii	"\344\206\260-\345\201\3512\3529}\314\200f\230\370\330"
 444      E581E932 
 444      EA397DCC 
 444      806698F8 
 444      D8
 445 03c8 68E063A3 		.ascii	"h\340c\243\036\344_\366\217\015\213\030\033l\002\221"
 445      1EE45FF6 
 445      8F0D8B18 
 445      1B6C0291 
 446 03d8 2412743C 		.ascii	"$\022t<\\B\227 \275ZH\017]\205!d\021C\250\016n^\201"
 446      5C429720 
 446      BD5A480F 
 446      5D852164 
 446      1143A80E 
 447 03ef 9BC0547A 		.ascii	"\233\300Tz\244\247/\224\225\245\376UYZ\363\236\024\230"
 447      A4A72F94 
 447      95A5FE55 
 447      595AF39E 
 447      1498
 448 0401 262CCB75 		.ascii	"&,\313uvL\327\224\262\034\333=\334\211\360\020O\243"
 448      764CD794 
 448      B21CDB3D 
 448      DC89F010 
 448      4FA3
 449 0413 7074471D 		.ascii	"ptG\035b\347\344\315\254*\370\004\236j>YX\024\272\241"
 449      62E7E4CD 
 449      AC2AF804 
 449      9E6A3E59 
 449      5814BAA1 
 450 0427 3AAA1BCA 		.ascii	":\252\033\312Q\271\331Q=\333R\327\252)M\275\246475\245"
 450      51B9D951 
 450      3DDB52D7 
 450      AA294DBD 
 450      A6343735 
 451 043c B93976FD 		.ascii	"\2719v\375F8N\346\363z\364L-\353\004(\315\256\235.3"
 451      46384EE6 
 451      F37AF44C 
 451      2DEB0428 
 451      CDAE9D2E 
 452 0451 E1DDC842 		.ascii	"\341\335\310BP\203\212\260A!ld\204\017\263s\034\241"
 452      50838AB0 
ARM GAS  C:\Users\Thomas\AppData\Local\Temp\cc1FltvD.s 			page 35


 452      41216C64 
 452      840FB373 
 452      1CA1
 453 0463 3843CCFC 		.ascii	"8C\314\374\324\322f\003\355&\342m\255\361\315\312 \007"
 453      D4D26603 
 453      ED26E26D 
 453      ADF1CDCA 
 453      2007
 454 0475 15D9B4A1 		.ascii	"\025\331\264\241n\251Pn)(M\014\345j\317\223\014\023"
 454      6EA9506E 
 454      29284D0C 
 454      E56ACF93 
 454      0C13
 455 0487 BEC6515A 		.ascii	"\276\306QZOe\3051\220\2661\217\\\251\356\221\333*\204"
 455      4F65C531 
 455      90B6318F 
 455      5CA9EE91 
 455      DB2A84
 456 049a DB0A4233 		.ascii	"\333\012B3C\360\226U>\016\243]A\021^6;\012\350x\207"
 456      43F09655 
 456      3E0EA35D 
 456      41115E36 
 456      3B0AE878 
 457 04af BE64893E 		.ascii	"\276d\211>\311y\320\205\247\037$\366C\216L\317\245P"
 457      C979D085 
 457      A71F24F6 
 457      438E4CCF 
 457      A550
 458 04c1 924E489B 		.ascii	"\222NH\233\317\367\021\353\333;\034S\274c$\272\207\317"
 458      CFF711EB 
 458      DB3B1C53 
 458      BC6324BA 
 458      87CF
 459 04d3 BBB4D42D 		.ascii	"\273\264\324-h:\004\223=\333\217\204\340a\216\234\367"
 459      683A0493 
 459      3DDB8F84 
 459      E0618E9C 
 459      F7
 460 04e4 645B5198 		.ascii	"d[Q\230)\205\266\305\233\337M\320o\356+\333\032\214"
 460      2985B6C5 
 460      9BDF4DD0 
 460      6FEE2BDB 
 460      1A8C
 461 04f6 FC6D1618 		.ascii	"\374m\026\030qo\302\267\331\210g\321f2\017\265\203\272"
 461      716FC2B7 
 461      D98867D1 
 461      66320FB5 
 461      83BA
 462 0508 567F5BB6 		.ascii	"V\177[\266!\377\353l\353\275\275uf\3636\332\240Pfcu"
 462      21FFEB6C 
 462      EBBDBD75 
 462      66F336DA 
 462      A0506663 
 463 051d 3873F6D7 		.ascii	"8s\366\327\331\203\314\354l\340\033\274\253\307\306"
 463      D983CCEC 
 463      6CE01BBC 
 463      ABC7C6
ARM GAS  C:\Users\Thomas\AppData\Local\Temp\cc1FltvD.s 			page 36


 464 052c 5CFA6907 		.ascii	"\\\372i\007\350\253\330\371%4!{\013\361\303\273\217"
 464      E8ABD8F9 
 464      2534217B 
 464      0BF1C3BB 
 464      8F
 465 053d A681C3D3 		.ascii	"\246\201\303\323g\335i\301\314\301\233\2314`\335\030"
 465      67DD69C1 
 465      CCC19B99 
 465      3460DD18 
 466 054d E8D5C1BC 		.ascii	"\350\325\301\274\362\177%7\014\314\313~9\231\004!\255"
 466      F27F2537 
 466      0CCCCB7E 
 466      39990421 
 466      AD
 467 055e 4F27F319 		.ascii	"O'\363\0319\330\3369I#\214\276\011\375\302\036\010a"
 467      39D8DE39 
 467      49238CBE 
 467      09FDC21E 
 467      0861
 468 0570 0F98B09A 		.ascii	"\017\230\260\232\261\344\306\020\215\260<\005\256k\002"
 468      B1E4C610 
 468      8DB03C05 
 468      AE6B02
 469 057f B88B1AB8 		.ascii	"\270\213\032\270n\001\327\315\340R\323\376:g\324x\237"
 469      6E01D7CD 
 469      E052D3FE 
 469      3A67D478 
 469      9F
 470 0590 D778F708 		.ascii	"\327x\367\010\357\036\346\335\222\356\334\246\327x\347"
 470      EF1EE6DD 
 470      92EEDCA6 
 470      D778E7
 471 059f 6BBC7B91 		.ascii	"k\274{\221Y9\372^\026\260g\277wT\013\257\235{\017\005"
 471      5939FA5E 
 471      16B067BF 
 471      77540BAF 
 471      9D7B0F05 
 472 05b3 FC43E65D 		.ascii	"\374C\346]t\245\271\005\343\347\274m\274);{\365\274"
 472      74A5B905 
 472      E3E7BC6D 
 472      BC293B7B 
 472      F5BC
 473 05c5 6DDE72A0 		.ascii	"m\336r\240\350\366d\337\205w\2352\251\236\363\226\360"
 473      E8F664DF 
 473      85779D32 
 473      A99EF396 
 473      F0
 474 05d6 02E1237F 		.ascii	"\002\341#\177K\364!\377\250\032\007\371\361\370\243"
 474      4BF421FF 
 474      A81A07F9 
 474      F1F8A3
 475 05e5 2AEB7717 		.ascii	"*\353w\027\326\244\341\325\244\321/\322\350gi\354\350"
 475      D6A4E1D5 
 475      A4D12FD2 
 475      E86769EC 
 475      E8
 476 05f6 1A3E1CAA 		.ascii	"\032>\034\252(Oy+\374\023\225E\373B5\004\003\032\202"
ARM GAS  C:\Users\Thomas\AppData\Local\Temp\cc1FltvD.s 			page 37


 476      284F792B 
 476      FC139545 
 476      FB423504 
 476      031A82
 477 0609 414130C8 		.ascii	"AA0\310\010\332S]\245F\345\211Jy\303\363A\377~\244\377"
 477      08DA535D 
 477      A546E589 
 477      4A79C3F3 
 477      41FF7EA4 
 478 061e 71324C83 		.ascii	"q2L\203>\244A\037\026\350\364;h\2755\3366\327\260\360"
 478      3EA4411F 
 478      16E8F43B 
 478      68BD35DE 
 478      36D7B0F0 
 479 0632 BB1F2C51 		.ascii	"\273\037,Q\322\364\310\025\013\345x91\306&\257^\031"
 479      D2F4C815 
 479      0BE57839 
 479      31C626AF 
 479      5E19
 480 0644 9DB03E31 		.ascii	"\235\260>1V^\261$:!\352\263\025\261\033l\033\326\312"
 480      565EB124 
 480      3A21EAB3 
 480      15B11B6C 
 480      1BD6CA
 481 0657 EB227F92 		.ascii	"\353\"\177\222>X2{\345\354\225\013e\333\202\305\013"
 481      3E58327B 
 481      E5EC950B 
 481      65DB82C5 
 481      0B
 482 0668 BE8FB6C5 		.ascii	"\276\217\266\305\330\326\257\213\\\033\223h\213\234"
 482      D8D6AF8B 
 482      5C1B9368 
 482      8B9C
 483 0676 6599309A 		.ascii	"e\2310\232\206D\306J\357\3767\324\310n-\216\267\332"
 483      8644C64A 
 483      EFFE37D4 
 483      C86E2D8E 
 483      B7DA
 484 0688 C2D9D5FC 		.ascii	"\302\331\325\374\370\230Uq\362\342x[\250jkb\327\020"
 484      F8985571 
 484      F2E2785B 
 484      A86A6B62 
 484      D710
 485 069a 90689BC4 		.ascii	"\220h\233\304.\277\262\256\023nF\361S\302Z\376K\264"
 485      2EBFB2AE 
 485      136E46F1 
 485      53C25AFE 
 485      4BB4
 486 06ac 6C83BBDF 		.ascii	"l\203\273\337&\254\226\337Q\310`\317\271\0144\325\331"
 486      26AC96DF 
 486      51C860CF 
 486      B90C34D5 
 486      D9
 487 06bd 73B88A1F 		.ascii	"s\270\212\037\023\2556y\251\274fYL\334z\341\273T\216"
 487      13AD3679 
 487      A9BC6659 
 487      4CDC7AE1 
ARM GAS  C:\Users\Thomas\AppData\Local\Temp\cc1FltvD.s 			page 38


 487      BB548E
 488 06d0 59ADDC79 		.ascii	"Y\255\334y/j\303\374\237\255\266(\360\262\306\306\304"
 488      2F6AC3FC 
 488      9FADB628 
 488      F0B2C6C6 
 488      C4
 489 06e1 45CBB136 		.ascii	"E\313\2616kB\374\264\0113\214\332\360\215u\025\234N"
 489      6B42FCB4 
 489      09338CDA 
 489      F08D7515 
 489      9C4E
 490 06f3 04C4C5DB 		.ascii	"\004\304\305\333\344\304\200@3#\260B\232\313b\022\365"
 490      E4C48040 
 490      3323B042 
 490      9ACB6212 
 490      F5
 491 0704 89F29AB9 		.ascii	"\211\362\232\271A\3601{\316\277\036\304,\372"
 491      41F0317B 
 491      CEBF1EC4 
 491      2CFA
 492              		.text
 493              		.section	.gnu.lto_.symtab.bb5ce9de,"",%progbits
 494 0000 50315F31 		.ascii	"P1_1_GetFIFOStatus\000\000\000\000\000\000\000\000\000"
 494      5F476574 
 494      4649464F 
 494      53746174 
 494      75730000 
 495 001b 000000B5 		.ascii	"\000\000\000\265\000\000\000P1_1_Init\000\000\000\000"
 495      00000050 
 495      315F315F 
 495      496E6974 
 495      00000000 
 496 002f 00000000 		.ascii	"\000\000\000\000\000\000\000\000\270\000\000\000P1_"
 496      00000000 
 496      B8000000 
 496      50315F
 497 003e 315F456E 		.ascii	"1_EnableInt\000\000\000\000\000\000\000\000\000\000"
 497      61626C65 
 497      496E7400 
 497      00000000 
 497      00000000 
 498 0053 0000BA00 		.ascii	"\000\000\272\000\000\000P1_1_Enable\000\000\000\000"
 498      00005031 
 498      5F315F45 
 498      6E61626C 
 498      65000000 
 499 0068 00000000 		.ascii	"\000\000\000\000\000\000\000\000\274\000\000\000P1_"
 499      00000000 
 499      BC000000 
 499      50315F
 500 0077 315F5374 		.ascii	"1_Start\000\000\000\000\000\000\000\000\000\000\000"
 500      61727400 
 500      00000000 
 500      00000000 
 500      0000
 501 0089 00BE0000 		.ascii	"\000\276\000\000\000P1_1_initVar\000\000\000\000\000"
 501      0050315F 
ARM GAS  C:\Users\Thomas\AppData\Local\Temp\cc1FltvD.s 			page 39


 501      315F696E 
 501      69745661 
 501      72000000 
 502 009f 00000000 		.ascii	"\000\000\000\000\000\000\000\336\000\000\000P1_1_Di"
 502      000000DE 
 502      00000050 
 502      315F315F 
 502      4469
 503 00b1 7361626C 		.ascii	"sableInt\000\000\000\000\000\000\000\000\000\000\000"
 503      65496E74 
 503      00000000 
 503      00000000 
 503      000000
 504 00c4 00C00000 		.ascii	"\000\300\000\000\000P1_1_Stop\000\000\000\000\000\000"
 504      0050315F 
 504      315F5374 
 504      6F700000 
 504      00000000 
 505 00d8 00000000 		.ascii	"\000\000\000\000\000\000\302\000\000\000P1_1_SetInt"
 505      0000C200 
 505      00005031 
 505      5F315F53 
 505      6574496E 
 506 00ed 4D6F6465 		.ascii	"Mode\000\000\000\000\000\000\000\000\000\000\000\000"
 506      00000000 
 506      00000000 
 506      00000000 
 507 00fd C6000000 		.ascii	"\306\000\000\000P1_1_GetIntStatus\000\000\000\000\000"
 507      50315F31 
 507      5F476574 
 507      496E7453 
 507      74617475 
 508 0117 00000000 		.ascii	"\000\000\000\000\000\000\000\311\000\000\000P1_1_Wr"
 508      000000C9 
 508      00000050 
 508      315F315F 
 508      5772
 509 0129 69746552 		.ascii	"iteRegValue\000\000\000\000\000\000\000\000\000\000"
 509      65675661 
 509      6C756500 
 509      00000000 
 509      00000000 
 510 013e 0000D400 		.ascii	"\000\000\324\000\000\000P1_1_ReadRegValue\000\000\000"
 510      00005031 
 510      5F315F52 
 510      65616452 
 510      65675661 
 511 0158 00000000 		.ascii	"\000\000\000\000\000\000\000\000\000\327\000\000\000"
 511      00000000 
 511      00D70000 
 511      00
 512 0165 43794578 		.ascii	"CyExitCriticalSection\000\000\002\000\000\000\000\000"
 512      69744372 
 512      69746963 
 512      616C5365 
 512      6374696F 
 513 0182 00000000 		.ascii	"\000\000\000\000\331\000\000\000CyEnterCriticalSect"
ARM GAS  C:\Users\Thomas\AppData\Local\Temp\cc1FltvD.s 			page 40


 513      D9000000 
 513      4379456E 
 513      74657243 
 513      72697469 
 514 019d 696F6E00 		.ascii	"ion\000\000\002\000\000\000\000\000\000\000\000\000"
 514      00020000 
 514      00000000 
 514      000000
 515 01ac DB000000 		.ascii	"\333\000\000\000"
 516              		.text
 517              		.section	.gnu.lto_.opts,"",%progbits
 518 0000 272D666E 		.ascii	"'-fno-trapv' '-mcpu=cortex-m3' '-mthumb' '-g' '-O3'"
 518      6F2D7472 
 518      61707627 
 518      20272D6D 
 518      6370753D 
 519 0033 20272D66 		.ascii	" '-ffunction-sections' '-finline-functions' '-flto'"
 519      66756E63 
 519      74696F6E 
 519      2D736563 
 519      74696F6E 
 520 0066 20272D66 		.ascii	" '-ffat-lto-objects'\000"
 520      6661742D 
 520      6C746F2D 
 520      6F626A65 
 520      63747327 
 521              		.text
 522              		.cfi_sections	.debug_frame
 523              		.section	.text.P1_1_Start,"ax",%progbits
 524              		.align	2
 525              		.global	P1_1_Start
 526              		.thumb
 527              		.thumb_func
 528              		.type	P1_1_Start, %function
 529              	P1_1_Start:
 530              	.LFB0:
 531              		.file 1 ".\\Generated_Source\\PSoC5\\P1_1.c"
   1:.\Generated_Source\PSoC5/P1_1.c **** /*******************************************************************************
   2:.\Generated_Source\PSoC5/P1_1.c **** * File Name: P1_1.c
   3:.\Generated_Source\PSoC5/P1_1.c **** * Version 2.30
   4:.\Generated_Source\PSoC5/P1_1.c **** *
   5:.\Generated_Source\PSoC5/P1_1.c **** * Description:
   6:.\Generated_Source\PSoC5/P1_1.c **** *  This file provides the API source code for the Shift Register component.
   7:.\Generated_Source\PSoC5/P1_1.c **** *
   8:.\Generated_Source\PSoC5/P1_1.c **** * Note: none
   9:.\Generated_Source\PSoC5/P1_1.c **** *
  10:.\Generated_Source\PSoC5/P1_1.c **** ********************************************************************************
  11:.\Generated_Source\PSoC5/P1_1.c **** * Copyright 2008-2013, Cypress Semiconductor Corporation.  All rights reserved.
  12:.\Generated_Source\PSoC5/P1_1.c **** * You may use this file only in accordance with the license, terms, conditions,
  13:.\Generated_Source\PSoC5/P1_1.c **** * disclaimers, and limitations in the end user license agreement accompanying
  14:.\Generated_Source\PSoC5/P1_1.c **** * the software package with which this file was provided.
  15:.\Generated_Source\PSoC5/P1_1.c **** ********************************************************************************/
  16:.\Generated_Source\PSoC5/P1_1.c **** 
  17:.\Generated_Source\PSoC5/P1_1.c **** #include "P1_1.h"
  18:.\Generated_Source\PSoC5/P1_1.c **** 
  19:.\Generated_Source\PSoC5/P1_1.c **** uint8 P1_1_initVar = 0u;
  20:.\Generated_Source\PSoC5/P1_1.c **** 
ARM GAS  C:\Users\Thomas\AppData\Local\Temp\cc1FltvD.s 			page 41


  21:.\Generated_Source\PSoC5/P1_1.c **** 
  22:.\Generated_Source\PSoC5/P1_1.c **** /*******************************************************************************
  23:.\Generated_Source\PSoC5/P1_1.c **** * Function Name: P1_1_Start
  24:.\Generated_Source\PSoC5/P1_1.c **** ********************************************************************************
  25:.\Generated_Source\PSoC5/P1_1.c **** *
  26:.\Generated_Source\PSoC5/P1_1.c **** * Summary:
  27:.\Generated_Source\PSoC5/P1_1.c **** *  Starts the Shift Register.
  28:.\Generated_Source\PSoC5/P1_1.c **** *
  29:.\Generated_Source\PSoC5/P1_1.c **** * Parameters:
  30:.\Generated_Source\PSoC5/P1_1.c **** *  None.
  31:.\Generated_Source\PSoC5/P1_1.c **** *
  32:.\Generated_Source\PSoC5/P1_1.c **** * Return:
  33:.\Generated_Source\PSoC5/P1_1.c **** *  None.
  34:.\Generated_Source\PSoC5/P1_1.c **** *
  35:.\Generated_Source\PSoC5/P1_1.c **** * Global Variables:
  36:.\Generated_Source\PSoC5/P1_1.c **** *  P1_1_initVar - used to check initial configuration, modified on
  37:.\Generated_Source\PSoC5/P1_1.c **** *  first function call.
  38:.\Generated_Source\PSoC5/P1_1.c **** *
  39:.\Generated_Source\PSoC5/P1_1.c **** * Reentrant:
  40:.\Generated_Source\PSoC5/P1_1.c **** *  No.
  41:.\Generated_Source\PSoC5/P1_1.c **** *
  42:.\Generated_Source\PSoC5/P1_1.c **** *******************************************************************************/
  43:.\Generated_Source\PSoC5/P1_1.c **** void P1_1_Start(void) 
  44:.\Generated_Source\PSoC5/P1_1.c **** {
 532              		.loc 1 44 0
 533              		.cfi_startproc
 534              		@ args = 0, pretend = 0, frame = 0
 535              		@ frame_needed = 0, uses_anonymous_args = 0
 536 0000 08B5     		push	{r3, lr}
 537              		.cfi_def_cfa_offset 8
 538              		.cfi_offset 3, -8
 539              		.cfi_offset 14, -4
  45:.\Generated_Source\PSoC5/P1_1.c ****     if(0u == P1_1_initVar)
 540              		.loc 1 45 0
 541 0002 0E4A     		ldr	r2, .L5
 542 0004 1378     		ldrb	r3, [r2]	@ zero_extendqisi2
 543 0006 4BB9     		cbnz	r3, .L2
 544              	.LVL0:
 545              	.LBB19:
 546              	.LBB20:
 547              	.LBB21:
  46:.\Generated_Source\PSoC5/P1_1.c ****     {
  47:.\Generated_Source\PSoC5/P1_1.c ****         P1_1_Init();
  48:.\Generated_Source\PSoC5/P1_1.c ****         P1_1_initVar = 1u; /* Component initialized */
  49:.\Generated_Source\PSoC5/P1_1.c ****     }
  50:.\Generated_Source\PSoC5/P1_1.c **** 
  51:.\Generated_Source\PSoC5/P1_1.c ****     P1_1_Enable();
  52:.\Generated_Source\PSoC5/P1_1.c **** }
  53:.\Generated_Source\PSoC5/P1_1.c **** 
  54:.\Generated_Source\PSoC5/P1_1.c **** 
  55:.\Generated_Source\PSoC5/P1_1.c **** /*******************************************************************************
  56:.\Generated_Source\PSoC5/P1_1.c **** * Function Name: P1_1_Enable
  57:.\Generated_Source\PSoC5/P1_1.c **** ********************************************************************************
  58:.\Generated_Source\PSoC5/P1_1.c **** *
  59:.\Generated_Source\PSoC5/P1_1.c **** * Summary:
  60:.\Generated_Source\PSoC5/P1_1.c **** *  Enables the Shift Register.
  61:.\Generated_Source\PSoC5/P1_1.c **** *
ARM GAS  C:\Users\Thomas\AppData\Local\Temp\cc1FltvD.s 			page 42


  62:.\Generated_Source\PSoC5/P1_1.c **** * Parameters:
  63:.\Generated_Source\PSoC5/P1_1.c **** *  void.
  64:.\Generated_Source\PSoC5/P1_1.c **** *
  65:.\Generated_Source\PSoC5/P1_1.c **** * Return:
  66:.\Generated_Source\PSoC5/P1_1.c **** *  void.
  67:.\Generated_Source\PSoC5/P1_1.c **** *
  68:.\Generated_Source\PSoC5/P1_1.c **** *******************************************************************************/
  69:.\Generated_Source\PSoC5/P1_1.c **** void P1_1_Enable(void) 
  70:.\Generated_Source\PSoC5/P1_1.c **** {
  71:.\Generated_Source\PSoC5/P1_1.c ****     /* Changing address in Datapath Control Store
  72:.\Generated_Source\PSoC5/P1_1.c ****        from NOP to component state machine commands space */
  73:.\Generated_Source\PSoC5/P1_1.c ****     P1_1_SR_CONTROL |= P1_1_CLK_EN;
  74:.\Generated_Source\PSoC5/P1_1.c **** 
  75:.\Generated_Source\PSoC5/P1_1.c ****     P1_1_EnableInt();
  76:.\Generated_Source\PSoC5/P1_1.c **** }
  77:.\Generated_Source\PSoC5/P1_1.c **** 
  78:.\Generated_Source\PSoC5/P1_1.c **** 
  79:.\Generated_Source\PSoC5/P1_1.c **** /*******************************************************************************
  80:.\Generated_Source\PSoC5/P1_1.c **** * Function Name: P1_1_Init
  81:.\Generated_Source\PSoC5/P1_1.c **** ********************************************************************************
  82:.\Generated_Source\PSoC5/P1_1.c **** *
  83:.\Generated_Source\PSoC5/P1_1.c **** * Summary:
  84:.\Generated_Source\PSoC5/P1_1.c **** *  Initializes Tx and/or Rx interrupt sources with initial values.
  85:.\Generated_Source\PSoC5/P1_1.c **** *
  86:.\Generated_Source\PSoC5/P1_1.c **** * Parameters:
  87:.\Generated_Source\PSoC5/P1_1.c **** *  void.
  88:.\Generated_Source\PSoC5/P1_1.c **** *
  89:.\Generated_Source\PSoC5/P1_1.c **** * Return:
  90:.\Generated_Source\PSoC5/P1_1.c **** *  void.
  91:.\Generated_Source\PSoC5/P1_1.c **** *
  92:.\Generated_Source\PSoC5/P1_1.c **** *******************************************************************************/
  93:.\Generated_Source\PSoC5/P1_1.c **** void P1_1_Init(void) 
  94:.\Generated_Source\PSoC5/P1_1.c **** {
  95:.\Generated_Source\PSoC5/P1_1.c ****     P1_1_SetIntMode(P1_1_INT_SRC);
  96:.\Generated_Source\PSoC5/P1_1.c **** }
  97:.\Generated_Source\PSoC5/P1_1.c **** 
  98:.\Generated_Source\PSoC5/P1_1.c **** 
  99:.\Generated_Source\PSoC5/P1_1.c **** /*******************************************************************************
 100:.\Generated_Source\PSoC5/P1_1.c **** * Function Name: P1_1_Stop
 101:.\Generated_Source\PSoC5/P1_1.c **** ********************************************************************************
 102:.\Generated_Source\PSoC5/P1_1.c **** *
 103:.\Generated_Source\PSoC5/P1_1.c **** * Summary:
 104:.\Generated_Source\PSoC5/P1_1.c **** *  Disables the Shift Register
 105:.\Generated_Source\PSoC5/P1_1.c **** *
 106:.\Generated_Source\PSoC5/P1_1.c **** * Parameters:
 107:.\Generated_Source\PSoC5/P1_1.c **** *  None.
 108:.\Generated_Source\PSoC5/P1_1.c **** *
 109:.\Generated_Source\PSoC5/P1_1.c **** * Return:
 110:.\Generated_Source\PSoC5/P1_1.c **** *  None.
 111:.\Generated_Source\PSoC5/P1_1.c **** *
 112:.\Generated_Source\PSoC5/P1_1.c **** *******************************************************************************/
 113:.\Generated_Source\PSoC5/P1_1.c **** void P1_1_Stop(void) 
 114:.\Generated_Source\PSoC5/P1_1.c **** {
 115:.\Generated_Source\PSoC5/P1_1.c ****     /*changing Datapath Control Store address to NOP space*/
 116:.\Generated_Source\PSoC5/P1_1.c ****     P1_1_SR_CONTROL &= ((uint8) ~P1_1_CLK_EN);
 117:.\Generated_Source\PSoC5/P1_1.c ****     P1_1_DisableInt();
 118:.\Generated_Source\PSoC5/P1_1.c **** }
ARM GAS  C:\Users\Thomas\AppData\Local\Temp\cc1FltvD.s 			page 43


 119:.\Generated_Source\PSoC5/P1_1.c **** 
 120:.\Generated_Source\PSoC5/P1_1.c **** 
 121:.\Generated_Source\PSoC5/P1_1.c **** /*******************************************************************************
 122:.\Generated_Source\PSoC5/P1_1.c **** * Function Name: P1_1_EnableInt
 123:.\Generated_Source\PSoC5/P1_1.c **** ********************************************************************************
 124:.\Generated_Source\PSoC5/P1_1.c **** *
 125:.\Generated_Source\PSoC5/P1_1.c **** * Summary:
 126:.\Generated_Source\PSoC5/P1_1.c **** *  Enables the Shift Register interrupt.
 127:.\Generated_Source\PSoC5/P1_1.c **** *
 128:.\Generated_Source\PSoC5/P1_1.c **** * Parameters:
 129:.\Generated_Source\PSoC5/P1_1.c **** *  None.
 130:.\Generated_Source\PSoC5/P1_1.c **** *
 131:.\Generated_Source\PSoC5/P1_1.c **** * Return:
 132:.\Generated_Source\PSoC5/P1_1.c **** *  None.
 133:.\Generated_Source\PSoC5/P1_1.c **** *
 134:.\Generated_Source\PSoC5/P1_1.c **** *******************************************************************************/
 135:.\Generated_Source\PSoC5/P1_1.c **** void P1_1_EnableInt(void) 
 136:.\Generated_Source\PSoC5/P1_1.c **** {
 137:.\Generated_Source\PSoC5/P1_1.c ****     uint8 interruptState;
 138:.\Generated_Source\PSoC5/P1_1.c **** 
 139:.\Generated_Source\PSoC5/P1_1.c ****     interruptState = CyEnterCriticalSection();
 140:.\Generated_Source\PSoC5/P1_1.c ****     P1_1_SR_AUX_CONTROL |= P1_1_INTERRUPTS_ENABLE;
 141:.\Generated_Source\PSoC5/P1_1.c ****     CyExitCriticalSection(interruptState);
 142:.\Generated_Source\PSoC5/P1_1.c **** }
 143:.\Generated_Source\PSoC5/P1_1.c **** 
 144:.\Generated_Source\PSoC5/P1_1.c **** 
 145:.\Generated_Source\PSoC5/P1_1.c **** /*******************************************************************************
 146:.\Generated_Source\PSoC5/P1_1.c **** * Function Name: P1_1_DisableInt
 147:.\Generated_Source\PSoC5/P1_1.c **** ********************************************************************************
 148:.\Generated_Source\PSoC5/P1_1.c **** *
 149:.\Generated_Source\PSoC5/P1_1.c **** * Summary:
 150:.\Generated_Source\PSoC5/P1_1.c **** *  Disables the Shift Register interrupt.
 151:.\Generated_Source\PSoC5/P1_1.c **** *
 152:.\Generated_Source\PSoC5/P1_1.c **** * Parameters:
 153:.\Generated_Source\PSoC5/P1_1.c **** *  None.
 154:.\Generated_Source\PSoC5/P1_1.c **** *
 155:.\Generated_Source\PSoC5/P1_1.c **** * Return:
 156:.\Generated_Source\PSoC5/P1_1.c **** *  None.
 157:.\Generated_Source\PSoC5/P1_1.c **** *
 158:.\Generated_Source\PSoC5/P1_1.c **** *******************************************************************************/
 159:.\Generated_Source\PSoC5/P1_1.c **** void P1_1_DisableInt(void) 
 160:.\Generated_Source\PSoC5/P1_1.c **** {
 161:.\Generated_Source\PSoC5/P1_1.c ****     uint8 interruptState;
 162:.\Generated_Source\PSoC5/P1_1.c **** 
 163:.\Generated_Source\PSoC5/P1_1.c ****     interruptState = CyEnterCriticalSection();
 164:.\Generated_Source\PSoC5/P1_1.c ****     P1_1_SR_AUX_CONTROL &= ((uint8) ~P1_1_INTERRUPTS_ENABLE);
 165:.\Generated_Source\PSoC5/P1_1.c ****     CyExitCriticalSection(interruptState);
 166:.\Generated_Source\PSoC5/P1_1.c **** }
 167:.\Generated_Source\PSoC5/P1_1.c **** 
 168:.\Generated_Source\PSoC5/P1_1.c **** 
 169:.\Generated_Source\PSoC5/P1_1.c **** /*******************************************************************************
 170:.\Generated_Source\PSoC5/P1_1.c **** * Function Name: P1_1_GetFIFOStatus
 171:.\Generated_Source\PSoC5/P1_1.c **** ********************************************************************************
 172:.\Generated_Source\PSoC5/P1_1.c **** *
 173:.\Generated_Source\PSoC5/P1_1.c **** * Summary:
 174:.\Generated_Source\PSoC5/P1_1.c **** *  Returns current status of input or output FIFO.
 175:.\Generated_Source\PSoC5/P1_1.c **** *
ARM GAS  C:\Users\Thomas\AppData\Local\Temp\cc1FltvD.s 			page 44


 176:.\Generated_Source\PSoC5/P1_1.c **** * Parameters:
 177:.\Generated_Source\PSoC5/P1_1.c **** *  fifoId.
 178:.\Generated_Source\PSoC5/P1_1.c **** *
 179:.\Generated_Source\PSoC5/P1_1.c **** * Return:
 180:.\Generated_Source\PSoC5/P1_1.c **** *  FIFO status.
 181:.\Generated_Source\PSoC5/P1_1.c **** *
 182:.\Generated_Source\PSoC5/P1_1.c **** *******************************************************************************/
 183:.\Generated_Source\PSoC5/P1_1.c **** uint8 P1_1_GetFIFOStatus(uint8 fifoId) 
 184:.\Generated_Source\PSoC5/P1_1.c **** {
 185:.\Generated_Source\PSoC5/P1_1.c ****     uint8 result;
 186:.\Generated_Source\PSoC5/P1_1.c **** 
 187:.\Generated_Source\PSoC5/P1_1.c ****     result = P1_1_RET_FIFO_NOT_DEFINED;
 188:.\Generated_Source\PSoC5/P1_1.c **** 
 189:.\Generated_Source\PSoC5/P1_1.c ****     #if(0u != P1_1_USE_INPUT_FIFO)
 190:.\Generated_Source\PSoC5/P1_1.c ****         if(P1_1_IN_FIFO == fifoId)
 191:.\Generated_Source\PSoC5/P1_1.c ****         {
 192:.\Generated_Source\PSoC5/P1_1.c ****             switch(P1_1_GET_IN_FIFO_STS)
 193:.\Generated_Source\PSoC5/P1_1.c ****             {
 194:.\Generated_Source\PSoC5/P1_1.c ****                 case P1_1_IN_FIFO_FULL :
 195:.\Generated_Source\PSoC5/P1_1.c ****                     result = P1_1_RET_FIFO_FULL;
 196:.\Generated_Source\PSoC5/P1_1.c ****                     break;
 197:.\Generated_Source\PSoC5/P1_1.c **** 
 198:.\Generated_Source\PSoC5/P1_1.c ****                 case P1_1_IN_FIFO_EMPTY :
 199:.\Generated_Source\PSoC5/P1_1.c ****                     result = P1_1_RET_FIFO_EMPTY;
 200:.\Generated_Source\PSoC5/P1_1.c ****                     break;
 201:.\Generated_Source\PSoC5/P1_1.c **** 
 202:.\Generated_Source\PSoC5/P1_1.c ****                 case P1_1_IN_FIFO_PARTIAL:
 203:.\Generated_Source\PSoC5/P1_1.c ****                     result = P1_1_RET_FIFO_PARTIAL;
 204:.\Generated_Source\PSoC5/P1_1.c ****                     break;
 205:.\Generated_Source\PSoC5/P1_1.c ****                     
 206:.\Generated_Source\PSoC5/P1_1.c ****                 default:
 207:.\Generated_Source\PSoC5/P1_1.c ****                     /* Initial result value, while 
 208:.\Generated_Source\PSoC5/P1_1.c ****                        IN_FIFO_EMPTY case is false 
 209:.\Generated_Source\PSoC5/P1_1.c ****                      */
 210:.\Generated_Source\PSoC5/P1_1.c ****                     result = P1_1_RET_FIFO_EMPTY;
 211:.\Generated_Source\PSoC5/P1_1.c ****                     break;
 212:.\Generated_Source\PSoC5/P1_1.c ****             }   
 213:.\Generated_Source\PSoC5/P1_1.c ****         }
 214:.\Generated_Source\PSoC5/P1_1.c ****     #endif /* (0u != P1_1_USE_INPUT_FIFO) */
 215:.\Generated_Source\PSoC5/P1_1.c **** 
 216:.\Generated_Source\PSoC5/P1_1.c ****     if(P1_1_OUT_FIFO == fifoId)
 217:.\Generated_Source\PSoC5/P1_1.c ****     {
 218:.\Generated_Source\PSoC5/P1_1.c ****         switch(P1_1_GET_OUT_FIFO_STS)
 219:.\Generated_Source\PSoC5/P1_1.c ****         {
 220:.\Generated_Source\PSoC5/P1_1.c ****             case P1_1_OUT_FIFO_FULL :
 221:.\Generated_Source\PSoC5/P1_1.c ****                 result = P1_1_RET_FIFO_FULL;
 222:.\Generated_Source\PSoC5/P1_1.c ****                 break;
 223:.\Generated_Source\PSoC5/P1_1.c **** 
 224:.\Generated_Source\PSoC5/P1_1.c ****             case P1_1_OUT_FIFO_EMPTY :
 225:.\Generated_Source\PSoC5/P1_1.c ****                 result = P1_1_RET_FIFO_EMPTY;
 226:.\Generated_Source\PSoC5/P1_1.c ****                 break;
 227:.\Generated_Source\PSoC5/P1_1.c **** 
 228:.\Generated_Source\PSoC5/P1_1.c ****             case P1_1_OUT_FIFO_PARTIAL :
 229:.\Generated_Source\PSoC5/P1_1.c ****                 result = P1_1_RET_FIFO_PARTIAL;
 230:.\Generated_Source\PSoC5/P1_1.c ****                 break;
 231:.\Generated_Source\PSoC5/P1_1.c **** 
 232:.\Generated_Source\PSoC5/P1_1.c ****             default:
ARM GAS  C:\Users\Thomas\AppData\Local\Temp\cc1FltvD.s 			page 45


 233:.\Generated_Source\PSoC5/P1_1.c ****                 /* Initial result value, while 
 234:.\Generated_Source\PSoC5/P1_1.c ****                    OUT_FIFO_FULL case is false 
 235:.\Generated_Source\PSoC5/P1_1.c ****                  */
 236:.\Generated_Source\PSoC5/P1_1.c ****                 result = P1_1_RET_FIFO_FULL;
 237:.\Generated_Source\PSoC5/P1_1.c ****                 break;
 238:.\Generated_Source\PSoC5/P1_1.c ****         }
 239:.\Generated_Source\PSoC5/P1_1.c ****     }
 240:.\Generated_Source\PSoC5/P1_1.c **** 
 241:.\Generated_Source\PSoC5/P1_1.c ****     return(result);
 242:.\Generated_Source\PSoC5/P1_1.c **** }
 243:.\Generated_Source\PSoC5/P1_1.c **** 
 244:.\Generated_Source\PSoC5/P1_1.c **** 
 245:.\Generated_Source\PSoC5/P1_1.c **** /*******************************************************************************
 246:.\Generated_Source\PSoC5/P1_1.c **** * Function Name: P1_1_SetIntMode
 247:.\Generated_Source\PSoC5/P1_1.c **** ********************************************************************************
 248:.\Generated_Source\PSoC5/P1_1.c **** *
 249:.\Generated_Source\PSoC5/P1_1.c **** * Summary:
 250:.\Generated_Source\PSoC5/P1_1.c **** *  Sets the Interrupt Source for the Shift Register interrupt. Multiple
 251:.\Generated_Source\PSoC5/P1_1.c **** *  sources may be ORed together
 252:.\Generated_Source\PSoC5/P1_1.c **** *
 253:.\Generated_Source\PSoC5/P1_1.c **** * Parameters:
 254:.\Generated_Source\PSoC5/P1_1.c **** *  interruptSource: Byte containing the constant for the selected interrupt
 255:.\Generated_Source\PSoC5/P1_1.c **** *  source/s.
 256:.\Generated_Source\PSoC5/P1_1.c **** *
 257:.\Generated_Source\PSoC5/P1_1.c **** * Return:
 258:.\Generated_Source\PSoC5/P1_1.c **** *  None.
 259:.\Generated_Source\PSoC5/P1_1.c **** *
 260:.\Generated_Source\PSoC5/P1_1.c **** *******************************************************************************/
 261:.\Generated_Source\PSoC5/P1_1.c **** void P1_1_SetIntMode(uint8 interruptSource) 
 262:.\Generated_Source\PSoC5/P1_1.c **** {
 263:.\Generated_Source\PSoC5/P1_1.c ****     P1_1_SR_STATUS_MASK &= ((uint8) ~P1_1_INTS_EN_MASK);          /* Clear existing int */
 548              		.loc 1 263 0
 549 0008 0D4B     		ldr	r3, .L5+4
 550              	.LBE21:
 551              	.LBE20:
 552              	.LBE19:
  48:.\Generated_Source\PSoC5/P1_1.c ****     }
 553              		.loc 1 48 0
 554 000a 0120     		movs	r0, #1
 555              	.LBB24:
 556              	.LBB23:
 557              	.LBB22:
 558              		.loc 1 263 0
 559 000c 1978     		ldrb	r1, [r3]	@ zero_extendqisi2
 560 000e 01F0F801 		and	r1, r1, #248
 561 0012 1970     		strb	r1, [r3]
 264:.\Generated_Source\PSoC5/P1_1.c ****     P1_1_SR_STATUS_MASK |= (interruptSource & P1_1_INTS_EN_MASK); /* Set int */
 562              		.loc 1 264 0
 563 0014 1978     		ldrb	r1, [r3]	@ zero_extendqisi2
 564 0016 0143     		orrs	r1, r1, r0
 565 0018 1970     		strb	r1, [r3]
 566              	.LBE22:
 567              	.LBE23:
 568              	.LBE24:
  48:.\Generated_Source\PSoC5/P1_1.c ****     }
 569              		.loc 1 48 0
 570 001a 1070     		strb	r0, [r2]
ARM GAS  C:\Users\Thomas\AppData\Local\Temp\cc1FltvD.s 			page 46


 571              	.LVL1:
 572              	.L2:
 573              	.LBB25:
 574              	.LBB26:
  73:.\Generated_Source\PSoC5/P1_1.c **** 
 575              		.loc 1 73 0
 576 001c 094A     		ldr	r2, .L5+8
 577 001e 1378     		ldrb	r3, [r2]	@ zero_extendqisi2
 578 0020 43F00103 		orr	r3, r3, #1
 579 0024 1370     		strb	r3, [r2]
 580              	.LBB27:
 581              	.LBB28:
 139:.\Generated_Source\PSoC5/P1_1.c ****     P1_1_SR_AUX_CONTROL |= P1_1_INTERRUPTS_ENABLE;
 582              		.loc 1 139 0
 583 0026 FFF7FEFF 		bl	CyEnterCriticalSection
 584              	.LVL2:
 140:.\Generated_Source\PSoC5/P1_1.c ****     CyExitCriticalSection(interruptState);
 585              		.loc 1 140 0
 586 002a 074A     		ldr	r2, .L5+12
 587 002c 1378     		ldrb	r3, [r2]	@ zero_extendqisi2
 588 002e 43F01003 		orr	r3, r3, #16
 589 0032 1370     		strb	r3, [r2]
 590              	.LBE28:
 591              	.LBE27:
 592              	.LBE26:
 593              	.LBE25:
  52:.\Generated_Source\PSoC5/P1_1.c **** 
 594              		.loc 1 52 0
 595 0034 BDE80840 		pop	{r3, lr}
 596              		.cfi_restore 14
 597              		.cfi_restore 3
 598              		.cfi_def_cfa_offset 0
 599              	.LBB32:
 600              	.LBB31:
 601              	.LBB30:
 602              	.LBB29:
 141:.\Generated_Source\PSoC5/P1_1.c **** }
 603              		.loc 1 141 0
 604 0038 FFF7FEBF 		b	CyExitCriticalSection
 605              	.LVL3:
 606              	.L6:
 607              		.align	2
 608              	.L5:
 609 003c 00000000 		.word	.LANCHOR0
 610 0040 85650040 		.word	1073767813
 611 0044 75650040 		.word	1073767797
 612 0048 95650040 		.word	1073767829
 613              	.LBE29:
 614              	.LBE30:
 615              	.LBE31:
 616              	.LBE32:
 617              		.cfi_endproc
 618              	.LFE0:
 619              		.size	P1_1_Start, .-P1_1_Start
 620              		.section	.text.P1_1_Enable,"ax",%progbits
 621              		.align	2
 622              		.global	P1_1_Enable
ARM GAS  C:\Users\Thomas\AppData\Local\Temp\cc1FltvD.s 			page 47


 623              		.thumb
 624              		.thumb_func
 625              		.type	P1_1_Enable, %function
 626              	P1_1_Enable:
 627              	.LFB1:
  70:.\Generated_Source\PSoC5/P1_1.c ****     /* Changing address in Datapath Control Store
 628              		.loc 1 70 0
 629              		.cfi_startproc
 630              		@ args = 0, pretend = 0, frame = 0
 631              		@ frame_needed = 0, uses_anonymous_args = 0
 632 0000 08B5     		push	{r3, lr}
 633              		.cfi_def_cfa_offset 8
 634              		.cfi_offset 3, -8
 635              		.cfi_offset 14, -4
  73:.\Generated_Source\PSoC5/P1_1.c **** 
 636              		.loc 1 73 0
 637 0002 084A     		ldr	r2, .L9
 638 0004 1378     		ldrb	r3, [r2]	@ zero_extendqisi2
 639 0006 43F00103 		orr	r3, r3, #1
 640 000a 1370     		strb	r3, [r2]
 641              	.LBB35:
 642              	.LBB36:
 139:.\Generated_Source\PSoC5/P1_1.c ****     P1_1_SR_AUX_CONTROL |= P1_1_INTERRUPTS_ENABLE;
 643              		.loc 1 139 0
 644 000c FFF7FEFF 		bl	CyEnterCriticalSection
 645              	.LVL4:
 140:.\Generated_Source\PSoC5/P1_1.c ****     CyExitCriticalSection(interruptState);
 646              		.loc 1 140 0
 647 0010 054A     		ldr	r2, .L9+4
 648 0012 1378     		ldrb	r3, [r2]	@ zero_extendqisi2
 649 0014 43F01003 		orr	r3, r3, #16
 650 0018 1370     		strb	r3, [r2]
 651              	.LBE36:
 652              	.LBE35:
  76:.\Generated_Source\PSoC5/P1_1.c **** 
 653              		.loc 1 76 0
 654 001a BDE80840 		pop	{r3, lr}
 655              		.cfi_restore 14
 656              		.cfi_restore 3
 657              		.cfi_def_cfa_offset 0
 658              	.LBB38:
 659              	.LBB37:
 141:.\Generated_Source\PSoC5/P1_1.c **** }
 660              		.loc 1 141 0
 661 001e FFF7FEBF 		b	CyExitCriticalSection
 662              	.LVL5:
 663              	.L10:
 664 0022 00BF     		.align	2
 665              	.L9:
 666 0024 75650040 		.word	1073767797
 667 0028 95650040 		.word	1073767829
 668              	.LBE37:
 669              	.LBE38:
 670              		.cfi_endproc
 671              	.LFE1:
 672              		.size	P1_1_Enable, .-P1_1_Enable
 673              		.section	.text.P1_1_Init,"ax",%progbits
ARM GAS  C:\Users\Thomas\AppData\Local\Temp\cc1FltvD.s 			page 48


 674              		.align	2
 675              		.global	P1_1_Init
 676              		.thumb
 677              		.thumb_func
 678              		.type	P1_1_Init, %function
 679              	P1_1_Init:
 680              	.LFB2:
  94:.\Generated_Source\PSoC5/P1_1.c ****     P1_1_SetIntMode(P1_1_INT_SRC);
 681              		.loc 1 94 0
 682              		.cfi_startproc
 683              		@ args = 0, pretend = 0, frame = 0
 684              		@ frame_needed = 0, uses_anonymous_args = 0
 685              		@ link register save eliminated.
 686              	.LVL6:
 687              	.LBB39:
 688              	.LBB40:
 263:.\Generated_Source\PSoC5/P1_1.c ****     P1_1_SR_STATUS_MASK |= (interruptSource & P1_1_INTS_EN_MASK); /* Set int */
 689              		.loc 1 263 0
 690 0000 044B     		ldr	r3, .L12
 691 0002 1A78     		ldrb	r2, [r3]	@ zero_extendqisi2
 692 0004 02F0F802 		and	r2, r2, #248
 693 0008 1A70     		strb	r2, [r3]
 694              		.loc 1 264 0
 695 000a 1A78     		ldrb	r2, [r3]	@ zero_extendqisi2
 696 000c 42F00102 		orr	r2, r2, #1
 697 0010 1A70     		strb	r2, [r3]
 698 0012 7047     		bx	lr
 699              	.L13:
 700              		.align	2
 701              	.L12:
 702 0014 85650040 		.word	1073767813
 703              	.LBE40:
 704              	.LBE39:
 705              		.cfi_endproc
 706              	.LFE2:
 707              		.size	P1_1_Init, .-P1_1_Init
 708              		.section	.text.P1_1_Stop,"ax",%progbits
 709              		.align	2
 710              		.global	P1_1_Stop
 711              		.thumb
 712              		.thumb_func
 713              		.type	P1_1_Stop, %function
 714              	P1_1_Stop:
 715              	.LFB3:
 114:.\Generated_Source\PSoC5/P1_1.c ****     /*changing Datapath Control Store address to NOP space*/
 716              		.loc 1 114 0
 717              		.cfi_startproc
 718              		@ args = 0, pretend = 0, frame = 0
 719              		@ frame_needed = 0, uses_anonymous_args = 0
 720 0000 08B5     		push	{r3, lr}
 721              		.cfi_def_cfa_offset 8
 722              		.cfi_offset 3, -8
 723              		.cfi_offset 14, -4
 116:.\Generated_Source\PSoC5/P1_1.c ****     P1_1_DisableInt();
 724              		.loc 1 116 0
 725 0002 084A     		ldr	r2, .L16
 726 0004 1378     		ldrb	r3, [r2]	@ zero_extendqisi2
ARM GAS  C:\Users\Thomas\AppData\Local\Temp\cc1FltvD.s 			page 49


 727 0006 03F0FE03 		and	r3, r3, #254
 728 000a 1370     		strb	r3, [r2]
 729              	.LBB43:
 730              	.LBB44:
 163:.\Generated_Source\PSoC5/P1_1.c ****     P1_1_SR_AUX_CONTROL &= ((uint8) ~P1_1_INTERRUPTS_ENABLE);
 731              		.loc 1 163 0
 732 000c FFF7FEFF 		bl	CyEnterCriticalSection
 733              	.LVL7:
 164:.\Generated_Source\PSoC5/P1_1.c ****     CyExitCriticalSection(interruptState);
 734              		.loc 1 164 0
 735 0010 054A     		ldr	r2, .L16+4
 736 0012 1378     		ldrb	r3, [r2]	@ zero_extendqisi2
 737 0014 03F0EF03 		and	r3, r3, #239
 738 0018 1370     		strb	r3, [r2]
 739              	.LBE44:
 740              	.LBE43:
 118:.\Generated_Source\PSoC5/P1_1.c **** 
 741              		.loc 1 118 0
 742 001a BDE80840 		pop	{r3, lr}
 743              		.cfi_restore 14
 744              		.cfi_restore 3
 745              		.cfi_def_cfa_offset 0
 746              	.LBB46:
 747              	.LBB45:
 165:.\Generated_Source\PSoC5/P1_1.c **** }
 748              		.loc 1 165 0
 749 001e FFF7FEBF 		b	CyExitCriticalSection
 750              	.LVL8:
 751              	.L17:
 752 0022 00BF     		.align	2
 753              	.L16:
 754 0024 75650040 		.word	1073767797
 755 0028 95650040 		.word	1073767829
 756              	.LBE45:
 757              	.LBE46:
 758              		.cfi_endproc
 759              	.LFE3:
 760              		.size	P1_1_Stop, .-P1_1_Stop
 761              		.section	.text.P1_1_EnableInt,"ax",%progbits
 762              		.align	2
 763              		.global	P1_1_EnableInt
 764              		.thumb
 765              		.thumb_func
 766              		.type	P1_1_EnableInt, %function
 767              	P1_1_EnableInt:
 768              	.LFB4:
 136:.\Generated_Source\PSoC5/P1_1.c ****     uint8 interruptState;
 769              		.loc 1 136 0
 770              		.cfi_startproc
 771              		@ args = 0, pretend = 0, frame = 0
 772              		@ frame_needed = 0, uses_anonymous_args = 0
 773 0000 08B5     		push	{r3, lr}
 774              		.cfi_def_cfa_offset 8
 775              		.cfi_offset 3, -8
 776              		.cfi_offset 14, -4
 139:.\Generated_Source\PSoC5/P1_1.c ****     P1_1_SR_AUX_CONTROL |= P1_1_INTERRUPTS_ENABLE;
 777              		.loc 1 139 0
ARM GAS  C:\Users\Thomas\AppData\Local\Temp\cc1FltvD.s 			page 50


 778 0002 FFF7FEFF 		bl	CyEnterCriticalSection
 779              	.LVL9:
 140:.\Generated_Source\PSoC5/P1_1.c ****     CyExitCriticalSection(interruptState);
 780              		.loc 1 140 0
 781 0006 044A     		ldr	r2, .L20
 782 0008 1378     		ldrb	r3, [r2]	@ zero_extendqisi2
 783 000a 43F01003 		orr	r3, r3, #16
 784 000e 1370     		strb	r3, [r2]
 142:.\Generated_Source\PSoC5/P1_1.c **** 
 785              		.loc 1 142 0
 786 0010 BDE80840 		pop	{r3, lr}
 787              		.cfi_restore 14
 788              		.cfi_restore 3
 789              		.cfi_def_cfa_offset 0
 141:.\Generated_Source\PSoC5/P1_1.c **** }
 790              		.loc 1 141 0
 791 0014 FFF7FEBF 		b	CyExitCriticalSection
 792              	.LVL10:
 793              	.L21:
 794              		.align	2
 795              	.L20:
 796 0018 95650040 		.word	1073767829
 797              		.cfi_endproc
 798              	.LFE4:
 799              		.size	P1_1_EnableInt, .-P1_1_EnableInt
 800              		.section	.text.P1_1_DisableInt,"ax",%progbits
 801              		.align	2
 802              		.global	P1_1_DisableInt
 803              		.thumb
 804              		.thumb_func
 805              		.type	P1_1_DisableInt, %function
 806              	P1_1_DisableInt:
 807              	.LFB5:
 160:.\Generated_Source\PSoC5/P1_1.c ****     uint8 interruptState;
 808              		.loc 1 160 0
 809              		.cfi_startproc
 810              		@ args = 0, pretend = 0, frame = 0
 811              		@ frame_needed = 0, uses_anonymous_args = 0
 812 0000 08B5     		push	{r3, lr}
 813              		.cfi_def_cfa_offset 8
 814              		.cfi_offset 3, -8
 815              		.cfi_offset 14, -4
 163:.\Generated_Source\PSoC5/P1_1.c ****     P1_1_SR_AUX_CONTROL &= ((uint8) ~P1_1_INTERRUPTS_ENABLE);
 816              		.loc 1 163 0
 817 0002 FFF7FEFF 		bl	CyEnterCriticalSection
 818              	.LVL11:
 164:.\Generated_Source\PSoC5/P1_1.c ****     CyExitCriticalSection(interruptState);
 819              		.loc 1 164 0
 820 0006 044A     		ldr	r2, .L24
 821 0008 1378     		ldrb	r3, [r2]	@ zero_extendqisi2
 822 000a 03F0EF03 		and	r3, r3, #239
 823 000e 1370     		strb	r3, [r2]
 166:.\Generated_Source\PSoC5/P1_1.c **** 
 824              		.loc 1 166 0
 825 0010 BDE80840 		pop	{r3, lr}
 826              		.cfi_restore 14
 827              		.cfi_restore 3
ARM GAS  C:\Users\Thomas\AppData\Local\Temp\cc1FltvD.s 			page 51


 828              		.cfi_def_cfa_offset 0
 165:.\Generated_Source\PSoC5/P1_1.c **** }
 829              		.loc 1 165 0
 830 0014 FFF7FEBF 		b	CyExitCriticalSection
 831              	.LVL12:
 832              	.L25:
 833              		.align	2
 834              	.L24:
 835 0018 95650040 		.word	1073767829
 836              		.cfi_endproc
 837              	.LFE5:
 838              		.size	P1_1_DisableInt, .-P1_1_DisableInt
 839              		.section	.text.P1_1_GetFIFOStatus,"ax",%progbits
 840              		.align	2
 841              		.global	P1_1_GetFIFOStatus
 842              		.thumb
 843              		.thumb_func
 844              		.type	P1_1_GetFIFOStatus, %function
 845              	P1_1_GetFIFOStatus:
 846              	.LFB6:
 184:.\Generated_Source\PSoC5/P1_1.c ****     uint8 result;
 847              		.loc 1 184 0
 848              		.cfi_startproc
 849              		@ args = 0, pretend = 0, frame = 0
 850              		@ frame_needed = 0, uses_anonymous_args = 0
 851              		@ link register save eliminated.
 852              	.LVL13:
 216:.\Generated_Source\PSoC5/P1_1.c ****     {
 853              		.loc 1 216 0
 854 0000 0228     		cmp	r0, #2
 855 0002 01D0     		beq	.L32
 187:.\Generated_Source\PSoC5/P1_1.c **** 
 856              		.loc 1 187 0
 857 0004 FE20     		movs	r0, #254
 858              	.LVL14:
 859              	.L27:
 242:.\Generated_Source\PSoC5/P1_1.c **** 
 860              		.loc 1 242 0
 861 0006 7047     		bx	lr
 862              	.LVL15:
 863              	.L32:
 864              	.LBB49:
 865              	.LBB50:
 218:.\Generated_Source\PSoC5/P1_1.c ****         {
 866              		.loc 1 218 0
 867 0008 054B     		ldr	r3, .L33
 868 000a 1B78     		ldrb	r3, [r3]	@ zero_extendqisi2
 869 000c C3F34113 		ubfx	r3, r3, #5, #2
 870 0010 002B     		cmp	r3, #0
 871 0012 F8D0     		beq	.L27
 221:.\Generated_Source\PSoC5/P1_1.c ****                 break;
 872              		.loc 1 221 0
 873 0014 A3F10200 		sub	r0, r3, #2
 874              	.LVL16:
 875 0018 B0FA80F0 		clz	r0, r0
 876 001c 4009     		lsrs	r0, r0, #5
 877 001e 7047     		bx	lr
ARM GAS  C:\Users\Thomas\AppData\Local\Temp\cc1FltvD.s 			page 52


 878              	.L34:
 879              		.align	2
 880              	.L33:
 881 0020 65650040 		.word	1073767781
 882              	.LBE50:
 883              	.LBE49:
 884              		.cfi_endproc
 885              	.LFE6:
 886              		.size	P1_1_GetFIFOStatus, .-P1_1_GetFIFOStatus
 887              		.section	.text.P1_1_SetIntMode,"ax",%progbits
 888              		.align	2
 889              		.global	P1_1_SetIntMode
 890              		.thumb
 891              		.thumb_func
 892              		.type	P1_1_SetIntMode, %function
 893              	P1_1_SetIntMode:
 894              	.LFB7:
 262:.\Generated_Source\PSoC5/P1_1.c ****     P1_1_SR_STATUS_MASK &= ((uint8) ~P1_1_INTS_EN_MASK);          /* Clear existing int */
 895              		.loc 1 262 0
 896              		.cfi_startproc
 897              		@ args = 0, pretend = 0, frame = 0
 898              		@ frame_needed = 0, uses_anonymous_args = 0
 899              		@ link register save eliminated.
 900              	.LVL17:
 263:.\Generated_Source\PSoC5/P1_1.c ****     P1_1_SR_STATUS_MASK |= (interruptSource & P1_1_INTS_EN_MASK); /* Set int */
 901              		.loc 1 263 0
 902 0000 054B     		ldr	r3, .L36
 903              		.loc 1 264 0
 904 0002 00F00700 		and	r0, r0, #7
 905              	.LVL18:
 263:.\Generated_Source\PSoC5/P1_1.c ****     P1_1_SR_STATUS_MASK |= (interruptSource & P1_1_INTS_EN_MASK); /* Set int */
 906              		.loc 1 263 0
 907 0006 1A78     		ldrb	r2, [r3]	@ zero_extendqisi2
 908 0008 02F0F802 		and	r2, r2, #248
 909 000c 1A70     		strb	r2, [r3]
 910              		.loc 1 264 0
 911 000e 1A78     		ldrb	r2, [r3]	@ zero_extendqisi2
 912 0010 1043     		orrs	r0, r0, r2
 913 0012 1870     		strb	r0, [r3]
 914 0014 7047     		bx	lr
 915              	.L37:
 916 0016 00BF     		.align	2
 917              	.L36:
 918 0018 85650040 		.word	1073767813
 919              		.cfi_endproc
 920              	.LFE7:
 921              		.size	P1_1_SetIntMode, .-P1_1_SetIntMode
 922              		.section	.text.P1_1_GetIntStatus,"ax",%progbits
 923              		.align	2
 924              		.global	P1_1_GetIntStatus
 925              		.thumb
 926              		.thumb_func
 927              		.type	P1_1_GetIntStatus, %function
 928              	P1_1_GetIntStatus:
 929              	.LFB8:
 265:.\Generated_Source\PSoC5/P1_1.c **** }
 266:.\Generated_Source\PSoC5/P1_1.c **** 
ARM GAS  C:\Users\Thomas\AppData\Local\Temp\cc1FltvD.s 			page 53


 267:.\Generated_Source\PSoC5/P1_1.c **** 
 268:.\Generated_Source\PSoC5/P1_1.c **** /*******************************************************************************
 269:.\Generated_Source\PSoC5/P1_1.c **** * Function Name: P1_1_GetIntStatus
 270:.\Generated_Source\PSoC5/P1_1.c **** ********************************************************************************
 271:.\Generated_Source\PSoC5/P1_1.c **** *
 272:.\Generated_Source\PSoC5/P1_1.c **** * Summary:
 273:.\Generated_Source\PSoC5/P1_1.c **** *  Gets the Shift Register Interrupt status.
 274:.\Generated_Source\PSoC5/P1_1.c **** *
 275:.\Generated_Source\PSoC5/P1_1.c **** * Parameters:
 276:.\Generated_Source\PSoC5/P1_1.c **** *  None.
 277:.\Generated_Source\PSoC5/P1_1.c **** *
 278:.\Generated_Source\PSoC5/P1_1.c **** * Return:
 279:.\Generated_Source\PSoC5/P1_1.c **** *  Byte containing the constant for the selected interrupt source/s.
 280:.\Generated_Source\PSoC5/P1_1.c **** *
 281:.\Generated_Source\PSoC5/P1_1.c **** *******************************************************************************/
 282:.\Generated_Source\PSoC5/P1_1.c **** uint8 P1_1_GetIntStatus(void) 
 283:.\Generated_Source\PSoC5/P1_1.c **** {
 930              		.loc 1 283 0
 931              		.cfi_startproc
 932              		@ args = 0, pretend = 0, frame = 0
 933              		@ frame_needed = 0, uses_anonymous_args = 0
 934              		@ link register save eliminated.
 284:.\Generated_Source\PSoC5/P1_1.c ****     return(P1_1_SR_STATUS & P1_1_INTS_EN_MASK);
 935              		.loc 1 284 0
 936 0000 024B     		ldr	r3, .L39
 937 0002 1878     		ldrb	r0, [r3]	@ zero_extendqisi2
 285:.\Generated_Source\PSoC5/P1_1.c **** }
 938              		.loc 1 285 0
 939 0004 00F00700 		and	r0, r0, #7
 940 0008 7047     		bx	lr
 941              	.L40:
 942 000a 00BF     		.align	2
 943              	.L39:
 944 000c 65650040 		.word	1073767781
 945              		.cfi_endproc
 946              	.LFE8:
 947              		.size	P1_1_GetIntStatus, .-P1_1_GetIntStatus
 948              		.section	.text.P1_1_WriteRegValue,"ax",%progbits
 949              		.align	2
 950              		.global	P1_1_WriteRegValue
 951              		.thumb
 952              		.thumb_func
 953              		.type	P1_1_WriteRegValue, %function
 954              	P1_1_WriteRegValue:
 955              	.LFB9:
 286:.\Generated_Source\PSoC5/P1_1.c **** 
 287:.\Generated_Source\PSoC5/P1_1.c **** 
 288:.\Generated_Source\PSoC5/P1_1.c **** /*******************************************************************************
 289:.\Generated_Source\PSoC5/P1_1.c **** * Function Name: P1_1_WriteRegValue
 290:.\Generated_Source\PSoC5/P1_1.c **** ********************************************************************************
 291:.\Generated_Source\PSoC5/P1_1.c **** *
 292:.\Generated_Source\PSoC5/P1_1.c **** * Summary:
 293:.\Generated_Source\PSoC5/P1_1.c **** *  Send state directly to shift register
 294:.\Generated_Source\PSoC5/P1_1.c **** *
 295:.\Generated_Source\PSoC5/P1_1.c **** * Parameters:
 296:.\Generated_Source\PSoC5/P1_1.c **** *  shiftData: containing shift register state.
 297:.\Generated_Source\PSoC5/P1_1.c **** *
ARM GAS  C:\Users\Thomas\AppData\Local\Temp\cc1FltvD.s 			page 54


 298:.\Generated_Source\PSoC5/P1_1.c **** * Return:
 299:.\Generated_Source\PSoC5/P1_1.c **** *  None.
 300:.\Generated_Source\PSoC5/P1_1.c **** *
 301:.\Generated_Source\PSoC5/P1_1.c **** *******************************************************************************/
 302:.\Generated_Source\PSoC5/P1_1.c **** void P1_1_WriteRegValue(uint16 shiftData)
 303:.\Generated_Source\PSoC5/P1_1.c ****                                                                      
 304:.\Generated_Source\PSoC5/P1_1.c **** {
 956              		.loc 1 304 0
 957              		.cfi_startproc
 958              		@ args = 0, pretend = 0, frame = 0
 959              		@ frame_needed = 0, uses_anonymous_args = 0
 960              		@ link register save eliminated.
 961              	.LVL19:
 305:.\Generated_Source\PSoC5/P1_1.c ****     CY_SET_REG16(P1_1_SHIFT_REG_LSB_PTR, shiftData);
 962              		.loc 1 305 0
 963 0000 014B     		ldr	r3, .L42
 964 0002 1880     		strh	r0, [r3]	@ movhi
 965 0004 7047     		bx	lr
 966              	.L43:
 967 0006 00BF     		.align	2
 968              	.L42:
 969 0008 04650040 		.word	1073767684
 970              		.cfi_endproc
 971              	.LFE9:
 972              		.size	P1_1_WriteRegValue, .-P1_1_WriteRegValue
 973              		.section	.text.P1_1_ReadRegValue,"ax",%progbits
 974              		.align	2
 975              		.global	P1_1_ReadRegValue
 976              		.thumb
 977              		.thumb_func
 978              		.type	P1_1_ReadRegValue, %function
 979              	P1_1_ReadRegValue:
 980              	.LFB10:
 306:.\Generated_Source\PSoC5/P1_1.c **** }
 307:.\Generated_Source\PSoC5/P1_1.c **** 
 308:.\Generated_Source\PSoC5/P1_1.c **** 
 309:.\Generated_Source\PSoC5/P1_1.c **** #if(0u != P1_1_USE_INPUT_FIFO)
 310:.\Generated_Source\PSoC5/P1_1.c ****     /*******************************************************************************
 311:.\Generated_Source\PSoC5/P1_1.c ****     * Function Name: P1_1_WriteData
 312:.\Generated_Source\PSoC5/P1_1.c ****     ********************************************************************************
 313:.\Generated_Source\PSoC5/P1_1.c ****     *
 314:.\Generated_Source\PSoC5/P1_1.c ****     * Summary:
 315:.\Generated_Source\PSoC5/P1_1.c ****     *  Send state to FIFO for later transfer to shift register based on the Load
 316:.\Generated_Source\PSoC5/P1_1.c ****     *  input
 317:.\Generated_Source\PSoC5/P1_1.c ****     *
 318:.\Generated_Source\PSoC5/P1_1.c ****     * Parameters:
 319:.\Generated_Source\PSoC5/P1_1.c ****     *  shiftData: containing shift register state.
 320:.\Generated_Source\PSoC5/P1_1.c ****     *
 321:.\Generated_Source\PSoC5/P1_1.c ****     * Return:
 322:.\Generated_Source\PSoC5/P1_1.c ****     *  Indicates: successful execution of function
 323:.\Generated_Source\PSoC5/P1_1.c ****     *  when FIFO is empty; and error when FIFO is full.
 324:.\Generated_Source\PSoC5/P1_1.c ****     *
 325:.\Generated_Source\PSoC5/P1_1.c ****     * Reentrant:
 326:.\Generated_Source\PSoC5/P1_1.c ****     *  No.
 327:.\Generated_Source\PSoC5/P1_1.c ****     *
 328:.\Generated_Source\PSoC5/P1_1.c ****     *******************************************************************************/
 329:.\Generated_Source\PSoC5/P1_1.c ****     cystatus P1_1_WriteData(uint16 shiftData)
ARM GAS  C:\Users\Thomas\AppData\Local\Temp\cc1FltvD.s 			page 55


 330:.\Generated_Source\PSoC5/P1_1.c ****                                                                          
 331:.\Generated_Source\PSoC5/P1_1.c ****     {
 332:.\Generated_Source\PSoC5/P1_1.c ****         cystatus result;
 333:.\Generated_Source\PSoC5/P1_1.c **** 
 334:.\Generated_Source\PSoC5/P1_1.c ****         result = CYRET_INVALID_STATE;
 335:.\Generated_Source\PSoC5/P1_1.c **** 
 336:.\Generated_Source\PSoC5/P1_1.c ****         /* Writes data into the input FIFO if it is not FULL */
 337:.\Generated_Source\PSoC5/P1_1.c ****         if(P1_1_RET_FIFO_FULL != (P1_1_GetFIFOStatus(P1_1_IN_FIFO)))
 338:.\Generated_Source\PSoC5/P1_1.c ****         {
 339:.\Generated_Source\PSoC5/P1_1.c ****             CY_SET_REG16(P1_1_IN_FIFO_VAL_LSB_PTR, shiftData);
 340:.\Generated_Source\PSoC5/P1_1.c ****             result = CYRET_SUCCESS;
 341:.\Generated_Source\PSoC5/P1_1.c ****         }
 342:.\Generated_Source\PSoC5/P1_1.c **** 
 343:.\Generated_Source\PSoC5/P1_1.c ****         return(result);
 344:.\Generated_Source\PSoC5/P1_1.c ****     }
 345:.\Generated_Source\PSoC5/P1_1.c **** #endif /* (0u != P1_1_USE_INPUT_FIFO) */
 346:.\Generated_Source\PSoC5/P1_1.c **** 
 347:.\Generated_Source\PSoC5/P1_1.c **** 
 348:.\Generated_Source\PSoC5/P1_1.c **** #if(0u != P1_1_USE_OUTPUT_FIFO)
 349:.\Generated_Source\PSoC5/P1_1.c ****     /*******************************************************************************
 350:.\Generated_Source\PSoC5/P1_1.c ****     * Function Name: P1_1_ReadData
 351:.\Generated_Source\PSoC5/P1_1.c ****     ********************************************************************************
 352:.\Generated_Source\PSoC5/P1_1.c ****     *
 353:.\Generated_Source\PSoC5/P1_1.c ****     * Summary:
 354:.\Generated_Source\PSoC5/P1_1.c ****     *  Returns state in FIFO due to Store input.
 355:.\Generated_Source\PSoC5/P1_1.c ****     *
 356:.\Generated_Source\PSoC5/P1_1.c ****     * Parameters:
 357:.\Generated_Source\PSoC5/P1_1.c ****     *  None.
 358:.\Generated_Source\PSoC5/P1_1.c ****     *
 359:.\Generated_Source\PSoC5/P1_1.c ****     * Return:
 360:.\Generated_Source\PSoC5/P1_1.c ****     *  Shift Register state
 361:.\Generated_Source\PSoC5/P1_1.c ****     *
 362:.\Generated_Source\PSoC5/P1_1.c ****     * Reentrant:
 363:.\Generated_Source\PSoC5/P1_1.c ****     *  No.
 364:.\Generated_Source\PSoC5/P1_1.c ****     *
 365:.\Generated_Source\PSoC5/P1_1.c ****     *******************************************************************************/
 366:.\Generated_Source\PSoC5/P1_1.c ****     uint16 P1_1_ReadData(void) 
 367:.\Generated_Source\PSoC5/P1_1.c ****     {
 368:.\Generated_Source\PSoC5/P1_1.c ****         return(CY_GET_REG16(P1_1_OUT_FIFO_VAL_LSB_PTR));
 369:.\Generated_Source\PSoC5/P1_1.c ****     }
 370:.\Generated_Source\PSoC5/P1_1.c **** #endif /* (0u != P1_1_USE_OUTPUT_FIFO) */
 371:.\Generated_Source\PSoC5/P1_1.c **** 
 372:.\Generated_Source\PSoC5/P1_1.c **** 
 373:.\Generated_Source\PSoC5/P1_1.c **** /*******************************************************************************
 374:.\Generated_Source\PSoC5/P1_1.c **** * Function Name: P1_1_ReadRegValue
 375:.\Generated_Source\PSoC5/P1_1.c **** ********************************************************************************
 376:.\Generated_Source\PSoC5/P1_1.c **** *
 377:.\Generated_Source\PSoC5/P1_1.c **** * Summary:
 378:.\Generated_Source\PSoC5/P1_1.c **** *  Directly returns current state in shift register, not data in FIFO due
 379:.\Generated_Source\PSoC5/P1_1.c **** *  to Store input.
 380:.\Generated_Source\PSoC5/P1_1.c **** *
 381:.\Generated_Source\PSoC5/P1_1.c **** * Parameters:
 382:.\Generated_Source\PSoC5/P1_1.c **** *  None.
 383:.\Generated_Source\PSoC5/P1_1.c **** *
 384:.\Generated_Source\PSoC5/P1_1.c **** * Return:
 385:.\Generated_Source\PSoC5/P1_1.c **** *  Shift Register state. Clears output FIFO.
 386:.\Generated_Source\PSoC5/P1_1.c **** *
ARM GAS  C:\Users\Thomas\AppData\Local\Temp\cc1FltvD.s 			page 56


 387:.\Generated_Source\PSoC5/P1_1.c **** * Reentrant:
 388:.\Generated_Source\PSoC5/P1_1.c **** *  No.
 389:.\Generated_Source\PSoC5/P1_1.c **** *
 390:.\Generated_Source\PSoC5/P1_1.c **** *******************************************************************************/
 391:.\Generated_Source\PSoC5/P1_1.c **** uint16 P1_1_ReadRegValue(void) 
 392:.\Generated_Source\PSoC5/P1_1.c **** {
 981              		.loc 1 392 0
 982              		.cfi_startproc
 983              		@ args = 0, pretend = 0, frame = 0
 984              		@ frame_needed = 0, uses_anonymous_args = 0
 985              		@ link register save eliminated.
 986              	.LBB55:
 987              	.LBB56:
 988              	.LBB57:
 989              	.LBB58:
 218:.\Generated_Source\PSoC5/P1_1.c ****         {
 990              		.loc 1 218 0
 991 0000 064A     		ldr	r2, .L49
 992              	.LBE58:
 993              	.LBE57:
 994              	.LBE56:
 995              	.LBE55:
 393:.\Generated_Source\PSoC5/P1_1.c ****     uint16 result;
 394:.\Generated_Source\PSoC5/P1_1.c **** 
 395:.\Generated_Source\PSoC5/P1_1.c ****     /* Clear FIFO before software capture */
 396:.\Generated_Source\PSoC5/P1_1.c ****     while(P1_1_RET_FIFO_EMPTY != P1_1_GetFIFOStatus(P1_1_OUT_FIFO))
 397:.\Generated_Source\PSoC5/P1_1.c ****     {
 398:.\Generated_Source\PSoC5/P1_1.c ****         (void) CY_GET_REG16(P1_1_OUT_FIFO_VAL_LSB_PTR);
 996              		.loc 1 398 0
 997 0002 0749     		ldr	r1, .L49+4
 396:.\Generated_Source\PSoC5/P1_1.c ****     {
 998              		.loc 1 396 0
 999 0004 00E0     		b	.L45
 1000              	.LVL20:
 1001              	.L48:
 1002              		.loc 1 398 0
 1003 0006 0B88     		ldrh	r3, [r1]
 1004              	.LVL21:
 1005              	.L45:
 1006              	.LBB62:
 1007              	.LBB61:
 1008              	.LBB60:
 1009              	.LBB59:
 218:.\Generated_Source\PSoC5/P1_1.c ****         {
 1010              		.loc 1 218 0
 1011 0008 1378     		ldrb	r3, [r2]	@ zero_extendqisi2
 1012 000a 13F0600F 		tst	r3, #96
 1013 000e FAD1     		bne	.L48
 1014              	.LVL22:
 1015              	.LBE59:
 1016              	.LBE60:
 1017              	.LBE61:
 1018              	.LBE62:
 399:.\Generated_Source\PSoC5/P1_1.c ****     }
 400:.\Generated_Source\PSoC5/P1_1.c **** 
 401:.\Generated_Source\PSoC5/P1_1.c ****     /* Read of 8 bits from A1 causes capture to output FIFO */
 402:.\Generated_Source\PSoC5/P1_1.c ****     (void) CY_GET_REG8(P1_1_SHIFT_REG_CAPTURE_PTR);
ARM GAS  C:\Users\Thomas\AppData\Local\Temp\cc1FltvD.s 			page 57


 403:.\Generated_Source\PSoC5/P1_1.c **** 
 404:.\Generated_Source\PSoC5/P1_1.c ****     /* Read output FIFO */
 405:.\Generated_Source\PSoC5/P1_1.c ****     result  = CY_GET_REG16(P1_1_OUT_FIFO_VAL_LSB_PTR);
 1019              		.loc 1 405 0
 1020 0010 034B     		ldr	r3, .L49+4
 402:.\Generated_Source\PSoC5/P1_1.c **** 
 1021              		.loc 1 402 0
 1022 0012 044A     		ldr	r2, .L49+8
 1023 0014 1278     		ldrb	r2, [r2]	@ zero_extendqisi2
 1024              		.loc 1 405 0
 1025 0016 1888     		ldrh	r0, [r3]
 1026              	.LVL23:
 406:.\Generated_Source\PSoC5/P1_1.c ****     
 407:.\Generated_Source\PSoC5/P1_1.c ****     #if(0u != (P1_1_SR_SIZE % 8u))
 408:.\Generated_Source\PSoC5/P1_1.c ****         result &= ((uint16) P1_1_SR_MASK);
 409:.\Generated_Source\PSoC5/P1_1.c ****     #endif /* (0u != (P1_1_SR_SIZE % 8u)) */
 410:.\Generated_Source\PSoC5/P1_1.c ****     
 411:.\Generated_Source\PSoC5/P1_1.c ****     return(result);
 412:.\Generated_Source\PSoC5/P1_1.c **** }
 1027              		.loc 1 412 0
 1028 0018 80B2     		uxth	r0, r0
 1029 001a 7047     		bx	lr
 1030              	.L50:
 1031              		.align	2
 1032              	.L49:
 1033 001c 65650040 		.word	1073767781
 1034 0020 54650040 		.word	1073767764
 1035 0024 14650040 		.word	1073767700
 1036              		.cfi_endproc
 1037              	.LFE10:
 1038              		.size	P1_1_ReadRegValue, .-P1_1_ReadRegValue
 1039              		.global	P1_1_initVar
 1040              		.bss
 1041              		.set	.LANCHOR0,. + 0
 1042              		.type	P1_1_initVar, %object
 1043              		.size	P1_1_initVar, 1
 1044              	P1_1_initVar:
 1045 0000 00       		.space	1
 1046              		.text
 1047              	.Letext0:
 1048              		.file 2 ".\\Generated_Source\\PSoC5\\cytypes.h"
 1049              		.file 3 ".\\Generated_Source\\PSoC5\\CyLib.h"