ARM GAS  C:\Users\Thomas\AppData\Local\Temp\ccBIIPWR.s 			page 1


   1              		.syntax unified
   2              		.cpu cortex-m3
   3              		.fpu softvfp
   4              		.eabi_attribute 20, 1
   5              		.eabi_attribute 21, 1
   6              		.eabi_attribute 23, 3
   7              		.eabi_attribute 24, 1
   8              		.eabi_attribute 25, 1
   9              		.eabi_attribute 26, 1
  10              		.eabi_attribute 30, 2
  11              		.eabi_attribute 34, 1
  12              		.eabi_attribute 18, 4
  13              		.thumb
  14              		.file	"P1_2.c"
  15              		.text
  16              	.Ltext0:
  17              		.section	.gnu.lto_.profile.bb5cdf8e,"",%progbits
  18 0000 789C6366 		.ascii	"x\234cf```e\200\000F\206\265\214!\000\002\347\001\014"
  18      60606065 
  18      80004686 
  18      B58C2100 
  18      02E7010C 
  19              		.text
  20              		.section	.gnu.lto_.jmpfuncs.bb5cdf8e,"",%progbits
  21 0000 789C6366 		.ascii	"x\234cf\300\016,\2414\017\0203\002A=\003\023\003\003"
  21      C00E2CA1 
  21      340F1033 
  21      02413D03 
  21      130303
  22 0013 33900DE4 		.ascii	"3\220\015\344\263\0001+\020\263C\270\034@\314\011R\302"
  22      B300312B 
  22      10B343B8 
  22      1C40CC09 
  22      52C2
  23 0025 C5C0C00D 		.ascii	"\305\300\300\015\242Az\030\000;\201\002\031"
  23      A2417A18 
  23      003B8102 
  23      19
  24              		.text
  25              		.section	.gnu.lto_.inline.bb5cdf8e,"",%progbits
  26 0000 789C7D50 		.ascii	"x\234}P;\012\302@\024\234\367v\223M\326\200\237\302"
  26      3B0AC240 
  26      149CF776 
  26      934DD680 
  26      9FC2
  27 0012 2216B981 		.ascii	"\"\026\271\201\367\260\311\015\354\3656)E\004\323y\007"
  27      F7B0C90D 
  27      ECF53629 
  27      4504D379 
  27      07
  28 0023 F11076B6 		.ascii	"\361\020v\2666\202\245\202\215\235\263\006\202\212\272"
  28      3682A582 
  28      8D9DB306 
  28      828ABA
  29 0032 2C6F60DE 		.ascii	",o`\336\314\354{k\360\375L\244\301\214\327\011tP\225"
  29      CCEC7B6B 
  29      F0FD4CA4 
ARM GAS  C:\Users\Thomas\AppData\Local\Temp\ccBIIPWR.s 			page 2


  29      C18CD709 
  29      745095
  30 0045 88578506 		.ascii	"\210W\205\006N\340b1\230]U\226\207\323\315\234\365\256"
  30      4EE06231 
  30      985D5596 
  30      87D3CD9C 
  30      F5AE
  31 0057 50C84672 		.ascii	"P\310Fr`\336\000\355\206\322\270\246\305\326E/\370\264"
  31      60DE00ED 
  31      86D2B8A6 
  31      C5D6452F 
  31      F8B4
  32 0069 03CB8A34 		.ascii	"\003\313\2124a`v\2346]\004\245\037\221\212/\343\226"
  32      6160769C 
  32      365D04A5 
  32      1F918A2F 
  32      E396
  33 007b A2165295 		.ascii	"\242\026R\225\001hr\335\217\266x\226\010\375!\371|W"
  33      016872DD 
  33      8FB67896 
  33      08FD21F9 
  33      7C57
  34 008d CB7BC3FD 		.ascii	"\313{\303\375\317K~\344\245\360\251\310s\364v:\335w"
  34      CF4B7EE4 
  34      A5F0A9C8 
  34      73F4763A 
  34      DD77
  35 009f 6D107844 		.ascii	"m\020xD\226\036\256\322z\270\215!EEKe\360k&\250\337"
  35      961EAED2 
  35      7AB88D21 
  35      45454B65 
  35      F06B26A8 
  36 00b4 2EECCBD3 		.ascii	".\354\313\323\341/\037\023\322$\257"
  36      E12F1F13 
  36      D224AF
  37              		.text
  38              		.section	.gnu.lto_.pureconst.bb5cdf8e,"",%progbits
  39 0000 789C6366 		.ascii	"x\234cf``\220d\200\000\036\006)F\011&)f)\026)V)v)\016"
  39      60609064 
  39      80001E06 
  39      29460926 
  39      29662916 
  40 001a 294E292E 		.ascii	")N).)n)\036)\000\025\325\001\247"
  40      296E291E 
  40      290015D5 
  40      01A7
  41              		.text
  42              		.section	.gnu.lto_P1_2_GetFIFOStatus.part.0.bb5cdf8e,"",%progbits
  43 0000 789C6D92 		.ascii	"x\234m\222\333K\324A\024\307\317\231\337eW7\323z\222"
  43      DB4BD441 
  43      14C7CF99 
  43      DF655737 
  43      D37A92
  44 0013 25285844 		.ascii	"%(XD\213\020+\372\013z\210\350E\360\325\260\320\025"
  44      8B102BFA 
  44      0B7A88E8 
  44      45F0D5B0 
ARM GAS  C:\Users\Thomas\AppData\Local\Temp\ccBIIPWR.s 			page 3


  44      D015
  45 0025 8248307D 		.ascii	"\202H0}\360\311\371\255\273D7\266H\272(\202Q\336\262"
  45      F0C9F9AD 
  45      BB4437B6 
  45      48BA2882 
  45      51DEB2
  46 0038 D26E9617 		.ascii	"\322n\226\027h3)\011StEMV\333\0077+\214\262L\3330\267"
  46      68332909 
  46      5374454D 
  46      56DB0737 
  46      2B8CB24C 
  47 004f 73E6B785 		.ascii	"s\346\267\205Q\003\277\231\303\314\367s\346;\347\374"
  47      5103BF99 
  47      C3CCF773 
  47      E63BE7FC 
  48 005f 34F8771C 		.ascii	"4\370w\034\244\317\247\001\344\321\212\016@\363\374"
  48      A4CFA701 
  48      E4D18A0E 
  48      40F3FC
  49 006e 3005260A 		.ascii	"0\005&\012\265\012M\017\270A:55\033v\214\006\237YN\375"
  49      B50A4D0F 
  49      B8413A35 
  49      351B768C 
  49      069F594E 
  50 0083 77602072 		.ascii	"w` r\000\010\325&\021\006V\343{\261(p\250{-\214\331"
  50      0008D526 
  50      110656E3 
  50      7BB12870 
  50      A87B2D8C 
  51 0098 4D52FA3E 		.ascii	"MR\372>\177\231\211\270\002\231q\001\360U\000\356t\343"
  51      7F9989B8 
  51      02997101 
  51      F05500EE 
  51      74E3
  52 00aa 7637032D 		.ascii	"v7\003-\230\015$l\213|\013m\324<\310\361\345\247M\227"
  52      980D246C 
  52      8B7C0B6D 
  52      D43CC8F1 
  52      E5A74D97 
  53 00be 523DD708 		.ascii	"R=\327\010\212\306c\317]\362\212\364G\023\211\255\204"
  53      8AC663CF 
  53      5DF28AF4 
  53      471389AD 
  53      84
  54 00cf 622B6AEB 		.ascii	"b+j\353i\036\004\004_\365G\322\265\035\012\036o\035"
  54      691E0404 
  54      5FF547D2 
  54      B51D0A1E 
  54      6F1D
  55 00e1 F4E936FC 		.ascii	"\364\3516\374)v(d5\312\265D\002\231\275\371_v\321\377"
  55      29762864 
  55      35CAB544 
  55      0299BDF9 
  55      5F76D1FF 
  56 00f5 73D265FA 		.ascii	"s\322e\372\245\224\031\330\206\036lG\017\033$g\267\250"
  56      A59419D8 
  56      861E6C47 
ARM GAS  C:\Users\Thomas\AppData\Local\Temp\ccBIIPWR.s 			page 4


  56      0F1B2467 
  56      B7A8
  57 0107 06008277 		.ascii	"\006\000\202w\370\244c\263\224\211\304\374\207l\007"
  57      F8A463B3 
  57      9489C4FC 
  57      876C07
  58 0116 425CA0E0 		.ascii	"B\\\240\340I\243I\350<\031\300\032\2009B\271\0221a\362"
  58      49A349E8 
  58      3C19C01A 
  58      803942B9 
  58      123161F2 
  59 012a AA4DA06F 		.ascii	"\252M\240o\023_\363b\240\247\317\310i\246k\032\373>"
  59      135FF362 
  59      A0A7CFC8 
  59      69A66B1A 
  59      FB3E
  60 013c 06743694 		.ascii	"\006t6\224\034x\033sH\020\276\021]N\315\272\256|\007"
  60      1C781B73 
  60      4810BE11 
  60      5D4ECDBA 
  60      AE7C07
  61 014f C65C32F3 		.ascii	"\306\\2\363\217eLZf\004\357`\026P\316\014P\266\010\005"
  61      8F654C5A 
  61      6604EF60 
  61      1650CE0C 
  61      50B60805 
  62 0163 BE4BA8BB 		.ascii	"\276K\250\273\246\261\177\371\364Do>;_\241\227\011\234"
  62      A6B17FF9 
  62      F4446F3E 
  62      3B5FA197 
  62      099C
  63 0175 1958E84C 		.ascii	"\031X\350Ly'\342B\233\177iI\235\215\274\231\033\031"
  63      7927E242 
  63      9B7F6949 
  63      9D8DBC99 
  63      1B19
  64 0187 75AA2DF5 		.ascii	"u\252-\365\374\360\311\2323i\015Xo\325Z\316\270\320"
  64      FCF0C99A 
  64      33690D58 
  64      6FD55ACE 
  64      B8D0
  65 0199 B103DDD8 		.ascii	"\261\003\335\330\211T\037\274\213\015\010\323X\363\335"
  65      89541FBC 
  65      8B0D08D3 
  65      58F3DD
  66 01a8 B4F3093B 		.ascii	"\264\363\011;e\347\223\366S*%\036\006\274G\312i\364"
  66      65E793F6 
  66      532A251E 
  66      06BC47CA 
  66      69F4
  67 01ba CD3A6C89 		.ascii	"\315:l\211F*Ff\223\210N[\204,\204\353{60bP\225\356\023"
  67      462A4666 
  67      93884E5B 
  67      842C84EB 
  67      7B363062 
  68 01d2 F21AFD72 		.ascii	"\362\032\375rORB\347c\253\253\255\030\304s\226_F\247"
  68      4F5242E7 
ARM GAS  C:\Users\Thomas\AppData\Local\Temp\ccBIIPWR.s 			page 5


  68      63ABABAD 
  68      18C47396 
  68      5F46A7
  69 01e5 5A1C712A 		.ascii	"Z\034q*\035,\251\372\340\003\332'\205\325\334{\326\301"
  69      1D2CA9FA 
  69      E003DA27 
  69      85D5DC7B 
  69      D6C1
  70 01f7 1984323D 		.ascii	"\031\2042=<zu8\315\006\032\007Y\217\017)\353\222@F\272"
  70      3C7A7538 
  70      CD061A07 
  70      598F0F29 
  70      EB924046 
  71 020c 6CA46E32 		.ascii	"l\244n2\266\244)D0r\241k\352GJ\022\031R\310#\205\250"
  71      B6A42944 
  71      3072A16B 
  71      EA474A12 
  71      1952C823 
  72 0222 4E3F2644 		.ascii	"N?&D\325Q\203\200[\233B+\203\315q>*u\350bp\213\372\027"
  72      D5518380 
  72      5B9B422B 
  72      83CD713E 
  72      2A75E862 
  73 023a A8BF9468 		.ascii	"\250\277\224h$\372,\250\036\003\324\237n\256\024q\372"
  73      24FA2CA8 
  73      1E03D49F 
  73      6EAE1471 
  73      FA
  74 024b DF9C505C 		.ascii	"\337\234P\\]\372:l\264\256\271&]a\010\330\223\304\014"
  74      5DFA3A6C 
  74      B4AEB926 
  74      5D6108D8 
  74      93C40C
  75 025e 0852DB98 		.ascii	"\010R\333\230S\357\265\373J\372\025:\231E+\024\036\021"
  75      53EFB5FB 
  75      4AFA153A 
  75      99452B14 
  75      1E11
  76 0270 76950C80 		.ascii	"v\225\014\200\267h\254\357\036\333\356E\267\210\254"
  76      B768ACEF 
  76      1EDBEE45 
  76      B788AC
  77 027f 44916D68 		.ascii	"D\221mh\265U\234V\037\257\242_\0209/I\266\345\026\356"
  77      B5559C56 
  77      1FAFA25F 
  77      10392F49 
  77      B6E516EE 
  78 0293 F71EF796 		.ascii	"\367\036\367\226\037\251\360\226\024\025\224U\226\027"
  78      1FA9F096 
  78      14159455 
  78      9617
  79 02a1 7B0BF30B 		.ascii	"{\013\363\013\312\366\355-\314\337U\264;\267\030\314"
  79      CAF6ED2D 
  79      CCDF55B4 
  79      3BB718CC 
  80 02b1 72EF89CA 		.ascii	"r\357\211\312c\025f\351\321\322\262\003%\277\000D\221"
  80      631566E9 
ARM GAS  C:\Users\Thomas\AppData\Local\Temp\ccBIIPWR.s 			page 6


  80      D1D2B203 
  80      25BF0044 
  80      91
  81 02c2 428D     		.ascii	"B\215"
  82              		.text
  83              		.section	.gnu.lto_P1_2_GetFIFOStatus.bb5cdf8e,"",%progbits
  84 0000 789C6590 		.ascii	"x\234e\220OHTQ\024\306\317w\356\363)3\3034\264\212\331"
  84      4F485451 
  84      14C6CF77 
  84      EEF32933 
  84      C334B48A 
  85 0015 140CA245 		.ascii	"\024\014\242EH\177h\323Jh\021\355\004\267\003\022\372"
  85      487F68D3 
  85      4A6811ED 
  85      04B70312 
  85      FA
  86 0026 84209A98 		.ascii	"\204 \232\230t)\336\321\021\202\240\262EE\220\020ee"
  86      7429DED1 
  86      1182A0B2 
  86      45459010 
  86      6565
  87 0038 E518D4A6 		.ascii	"\345\030\324\246\230\3053\242\336\242?\213\241t\361"
  87      98C533A2 
  87      DEA23F8B 
  87      A174F1
  88 0047 AA819AB0 		.ascii	"\252\201\232\260]\2465H\345t\316{\213\202.\\\316\345"
  88      5DA63548 
  88      E574CE7B 
  88      8B822E5C 
  88      CEE5
  89 0059 F2FDBEF3 		.ascii	"\362\375\276\363\235c\350\377\263_\356\012\210\366H"
  89      9D63E8FF 
  89      B35FEE0A 
  89      88F648
  90 0068 451B81CF 		.ascii	"E\033\201\317\277\"*u0\233 E6\341\004\213D6e\340\350"
  90      BF222A75 
  90      309B2045 
  90      36E1048B 
  90      443665E0 
  91 007d 3F1C402B 		.ascii	"?\034@+\201\306\3318\030\307\027^e\274x\264YC\327\254"
  91      81C6D938 
  91      18C7175E 
  91      65BC78B4 
  91      5943D7AC 
  92 0091 B5135FBF 		.ascii	"\265\023_\277\275\013\223S\3336\230h\215\011\273\263"
  92      BD0B9353 
  92      DB369868 
  92      8D09BBB3 
  93 00a1 D89955F9 		.ascii	"\330\231U\371-t\211\356\334\313'\341\026\223\003\311"
  93      2D7489EE 
  93      DCCB27E1 
  93      169303C9 
  94 00b1 BB76A3FE 		.ascii	"\273v\243\376#\321y]\030?\250\330^\010\202\3330\177"
  94      23D1795D 
  94      183FA8D8 
  94      5E0882DB 
  94      307F
ARM GAS  C:\Users\Thomas\AppData\Local\Temp\ccBIIPWR.s 			page 7


  95 00c3 29F5C01C 		.ascii	")\365\300\034:U<\027~\367\323fW\004^Z\234\275\230\310"
  95      3A553C17 
  95      7EF7D366 
  95      57045E5A 
  95      9CBD98C8 
  96 00d7 5D13B0BE 		.ascii	"]\023\260\276\321x\226\264\227m\271\336jmW\376\316\277"
  96      D17896B4 
  96      976DB9DE 
  96      6A6D57FE 
  96      CEBF
  97 00e9 7C7C0458 		.ascii	"||\004X-\377^J\272ekm\006w\221\323`\342|\017\256L\015"
  97      2DFF5E4A 
  97      BA656B6D 
  97      067791D3 
  97      60E27C0F 
  98 0100 FD59D8EA 		.ascii	"\375Y\330\352\333V\353\301\257\013\301A\323\016\322"
  98      DB56EBC1 
  98      AF0BC141 
  98      D30ED2
  99 010f 2F86B676 		.ascii	"/\206\266v\2437\321'!t\354\006\263V\363\026\023~\363"
  99      A337D127 
  99      2174EC06 
  99      B356F316 
  99      137EF3
 100 0122 4C3AF210 		.ascii	"L:\362\020\201\364\230\236~8\223^a\011\261)\006\363"
 100      81F4989E 
 100      7E38935E 
 100      6109B129 
 100      06F3
 101 0134 C8D21B94 		.ascii	"\310\322\033\224\227'?^mWQ\223uKW\226\032\353F5\220"
 101      97273F5E 
 101      6D575193 
 101      754B5796 
 101      1AEB4635 
 102 0149 8C15C409 		.ascii	"\214\025\304\011\033l(H\251cF\225\"{\376\364q\265\255"
 102      1B6C2848 
 102      A9634695 
 102      227BFEF4 
 102      71B5AD
 103 015c FBA6C4AD 		.ascii	"\373\246\304\255W\347\303\336\016\335C|\260\200n\261"
 103      57E7C3DE 
 103      0EDD437C 
 103      B0806EB1 
 104 016c A2109399 		.ascii	"\242\020\223\231\330V\3653\265\263\025\036\373iO[\221"
 104      D856F533 
 104      B5B3151E 
 104      FB694F5B 
 104      91
 105 017d F21AEB54 		.ascii	"\362\032\353T\3671&\3733\221\277\023E^F)C\353b\245\235"
 105      F73126FB 
 105      3391BF13 
 105      455E4629 
 105      43EB62A5 
 106 0192 A2B19AA2 		.ascii	"\242\261\232\242|\217\222_{\315\261\231\200\237\001"
 106      7C8F925F 
 106      7BCDB199 
 106      809F01
ARM GAS  C:\Users\Thomas\AppData\Local\Temp\ccBIIPWR.s 			page 8


 107 01a1 0DCFD50F 		.ascii	"\015\317\325\017'\305\334@&\207\342\302\355\350\311"
 107      27C5DC40 
 107      2687E2C2 
 107      EDE8C9
 108 01b0 1FF64E78 		.ascii	"\037\366Nx\305\243#\336\320@\177a\2648\350\345\373\372"
 108      C5A323DE 
 108      D0407F61 
 108      B438E8E5 
 108      FBFA
 109 01c2 0B870EE4 		.ascii	"\013\207\016\344\373\366\016\354\353\031$w\370\330p"
 109      FBF60EEC 
 109      EB192477 
 109      F8D870
 110 01d1 E1C8905B 		.ascii	"\341\310\220[\364N\215\036\037\371\003\324\362\266\035"
 110      F44E8D1E 
 110      1FF903D4 
 110      F2B61D
 111              		.text
 112              		.section	.gnu.lto_P1_2_Init.bb5cdf8e,"",%progbits
 113 0000 789C8D91 		.ascii	"x\234\215\221\317K\024a\030\307\237\357\363\216\303"
 113      CF4B1461 
 113      18C79FEF 
 113      F38EC3
 114 000f 8A81E249 		.ascii	"\212\201\342I\346\024\354A\202\020Z\350\017\010\017"
 114      E614EC41 
 114      82105AE8 
 114      0F080F
 115 001e E24DF0BA 		.ascii	"\342M\360\272!as\360\2421\254ggv\315bO\032\005\221,"
 115      216173F0 
 115      A231AC67 
 115      6776CD62 
 115      4F1A0591 
 116 0033 1468BFAC 		.ascii	"\024h\277\254\265\264\350\244\014\012%\010\205\035\014"
 116      B5B4E8A4 
 116      0C0A2508 
 116      851D0C
 117 0042 3AB8412B 		.ascii	":\270A+l\227P\214r\241\234\236g\337\275h \015\314\363"
 117      6C97508C 
 117      72A19C9E 
 117      67DFBD68 
 117      200DCCF3 
 118 0056 BE33EFF7 		.ascii	"\2763\357\367\371>\237\347}\014\375\373x\362^b\242\214"
 118      F93E9FE7 
 118      7D0CFDFB 
 118      78F25E62 
 118      A28C
 119 0068 AC30049E 		.ascii	"\2540\004\236~O\024\245\030\320\015\201&\030\023\370"
 119      7E4F14A5 
 119      18D00D81 
 119      261813F8 
 120 0078 C6FB8CE9 		.ascii	"\306\373\214\351x\341n[\367|\030\206{\037\337t]\357"
 120      78E16E5B 
 120      F77C1886 
 120      7B1FDF74 
 120      5DEF
 121 008a AA4BDA01 		.ascii	"\252K\332\001[\033<B7\211f\177\362\317\2476wR4\035\366"
 121      5B1B3C42 
ARM GAS  C:\Users\Thomas\AppData\Local\Temp\ccBIIPWR.s 			page 9


 121      3789667F 
 121      F2CFA736 
 121      7752341D 
 122 009f 0C8FE142 		.ascii	"\014\217\341B\326\305\3168L\222\345\312\314\315\014"
 122      D6C5CE38 
 122      4C92E5CA 
 122      CCCD0C
 123 00ae 5286EA0C 		.ascii	"R\206\352\014GC\213\006W\003QU\364Zt\227YW\263\215|"
 123      47438B06 
 123      57035155 
 123      F45A7497 
 123      5957B38D 
 124 00c3 877A1657 		.ascii	"\207z\026W\213\345V\223\206\356\267+sS&\375 \014\363"
 124      8BE55693 
 124      86EEB72B 
 124      735326FD 
 124      200CF3
 125 00d6 5F56D62F 		.ascii	"_V\326/\307\321\375\360(IPg\306\023\030)\210\363\036"
 125      C7D1FDF0 
 125      28495067 
 125      C6131829 
 125      88F31E
 126 00e9 CE79CDDE 		.ascii	"\316y\315\336\360\024i\311\331\272\367\260\320^c\025"
 126      F01469C9 
 126      D9BAF7B0 
 126      D05E6315 
 127 00f9 1116E0D1 		.ascii	"\021\026\340\321g\254\375,\036m\004\307x\343\344-kB"
 127      67ACFD2C 
 127      1E6D04C7 
 127      78E3E42D 
 127      6B42
 128 010b 83F88071 		.ascii	"\203\370\200q\262\033<\023N\302s\270\277\330\310\331"
 128      B21B3C13 
 128      4EC273B8 
 128      BFD8C8D9 
 129 011b 4A29BF7B 		.ascii	"J)\277{F]\315\215\315(tT^\251~\330J5~\221~\356\334\251"
 129      465DCD8D 
 129      CD287454 
 129      5EA97ED8 
 129      4A357E91 
 130 0133 95B984D9 		.ascii	"\225\271\204\331\350v\224\252\263\2032<,Jy\302\013\224"
 130      E87694AA 
 130      B383323C 
 130      2C4A79C2 
 130      0B94
 131 0145 201485C3 		.ascii	" \024\205\303)\241\260\226\216u\375\376\365w\241a\341"
 131      29A1B096 
 131      8E75FDFE 
 131      F577A161 
 131      E1
 132 0156 1C0AEC4B 		.ascii	"\034\012\354K\013{\013\2529\325qI\034\305\304\266\266"
 132      0B7B0BAA 
 132      39D57149 
 132      1CC5C4B6 
 132      B6
 133 0167 D66F3D5B 		.ascii	"\326o=[NMYnB\374p\255\272\231\360\256T[r\224\000\002"
 133      4E4D596E 
ARM GAS  C:\Users\Thomas\AppData\Local\Temp\ccBIIPWR.s 			page 10


 133      42FC70AD 
 133      BA99F0AE 
 133      545B7294 
 134 017d F0EABF01 		.ascii	"\360\352\277\001^7\000\\\332A\024\317\364\351\035\352"
 134      5E37005C 
 134      DA4114CF 
 134      F4E91DEA 
 135 018d 04AA728F 		.ascii	"\004\252r\2172J\031\354\331\236l\237?\352\007Wr\376"
 135      324A19EC 
 135      D99E6C9F 
 135      3FEA0757 
 135      72FE
 136 019f D5A1C1B1 		.ascii	"\325\241\301\261\361`\330\317\016\014\216\365^\314\016"
 136      F160D8CF 
 136      0E0C8EF5 
 136      5ECC0E
 137 01ae 5C18CAF4 		.ascii	"\\\030\312\364\014S\373\310h\316\017\202\361k9{\372"
 137      0C53FBC8 
 137      68CE0F82 
 137      F16B397B 
 137      FA
 138 01bf 17FFEAD9 		.ascii	"\027\377\352\331\240"
 138      A0
 139              		.text
 140              		.section	.gnu.lto_P1_2_EnableInt.bb5cdf8e,"",%progbits
 141 0000 789C7D90 		.ascii	"x\234}\220\315K\033Q\024\305\357\271\223\244\003\221"
 141      CD4B1B51 
 141      14C5EFB9 
 141      93A40391 
 142 0010 125C8864 		.ascii	"\022\\\210d\243\220E(\210`\241\177A\027\202+!\333\200"
 142      A3904528 
 142      8860A17F 
 142      4117822B 
 142      21DB80
 143 0023 149D4537 		.ascii	"\024\235E7Z\206\270\024_t\012\222\205\004)\250H\004"
 143      5A86B814 
 143      5F740A92 
 143      850429A8 
 143      4804
 144 0035 0B45ADF5 		.ascii	"\013E\255\365\243X\350B\013\203\013\361\243\264H\241"
 144      A358E842 
 144      0B830BF1 
 144      A3B448A1 
 145 0045 A2481531 		.ascii	"\242H\0251\322\354L#\332Q$\3367\343J\301\2017\357\203"
 145      D2EC4C23 
 145      DA5124DE 
 145      37E34AC1 
 145      8137EF83 
 146 0059 737EF7DC 		.ascii	"s~\367\334k\320\303/.k\017D-\262\303 p\376\007Q\326"
 146      6BD0C32F 
 146      2E6B0F44 
 146      2DB2C320 
 146      70FE0751 
 147 006e 64401F08 		.ascii	"d@\037\010\324\317\350G\211\313\214\274;7\026M~PJ\235"
 147      D4CFE847 
 147      89CB8CBC 
 147      3B37164D 
ARM GAS  C:\Users\Thomas\AppData\Local\Temp\ccBIIPWR.s 			page 11


 147      7E504A9D 
 148 0082 FDDBA97F 		.ascii	"\375\333\251\177[\3571Q\205\003\014\246\221$\321\354"
 148      5BEF3151 
 148      85030CA6 
 148      9124D1EC 
 149 0092 96AEF6C3 		.ascii	"\226\256\366\303F\002\372\\\334\374\362\316HL)5p4^\\"
 149      4602FA5C 
 149      DCFCF2CE 
 149      484C2935 
 149      70345E5C 
 150 00a6 8FAA31E5 		.ascii	"\217\2521\345\034U\253\015\236\260g`\210\023Mq<\213"
 150      1C55AB0D 
 150      9EB06760 
 150      88134D71 
 150      3C8B
 151 00b8 DF051143 		.ascii	"\337\005\021C\331\271\331\215F\034)\020\303,\022\001"
 151      D9B9D98D 
 151      461C2910 
 151      C32C1201 
 152 00c8 1C1F1191 		.ascii	"\034\037\021\221|\320/\213\265\256\252V\227\277\217"
 152      7CD02F8B 
 152      B5AEAA56 
 152      97BF8F
 153 00d7 6C24D994 		.ascii	"l$\331\224\260\362\024\"\2179\254\177D'\262t\352\242"
 153      B0F21422 
 153      8F39AC7F 
 153      4427B274 
 153      EAA2
 154 00e9 5C64370E 		.ascii	"\\d7\0160\350~\315\325i\302%\033R`\362\327\360\002\367"
 154      30E87ECD 
 154      D569C225 
 154      1B5260F2 
 154      D7F002F7 
 155 00fd 5DAB2165 		.ascii	"]\253!ez,\0114w\016}\342\016\321o\260_J\230\"\246}\254"
 155      7A2C0934 
 155      770E7DE2 
 155      0ED16FB0 
 155      5F4A9822 
 156 0114 5DE44E67 		.ascii	"]\344Ng\355\300\034\022\363\326e\241d\374e\217\303\243"
 156      EDC01C12 
 156      F3D665A1 
 156      64FC658F 
 156      C3A3
 157 0126 DB5915D2 		.ascii	"\333Y\025\322\201\017O~\356\230\376\223\237\177u\352"
 157      810F4F7E 
 157      EE98FE93 
 157      9F7F75EA 
 158 0136 7D315AC0 		.ascii	"}1Z\300D\326\201\307\021|B\034\363\220\376\260\200\002"
 158      44D681C7 
 158      117C421C 
 158      F390FEB0 
 158      8002
 159 0148 8438781E 		.ascii	"\2048x\036\011p\341\200\270}\374\277R\243\355\034#,"
 159      0970E180 
 159      B87DFCBF 
 159      52A3ED1C 
 159      232C
ARM GAS  C:\Users\Thomas\AppData\Local\Temp\ccBIIPWR.s 			page 12


 160 015a 8A528A8E 		.ascii	"\212R\212\216@K\036\203-\011L\020t\000\307]\331\362"
 160      404B1E83 
 160      2D094C10 
 160      7400C75D 
 160      D9F2
 161 016c 43D3FDDE 		.ascii	"C\323\375\336\236T\364<\360Yz\223f<6\351\017\262\356"
 161      9E54F43C 
 161      F0597A93 
 161      663C36E9 
 161      0FB2EE
 162 017f B7365F4C 		.ascii	"\2676_LzR\320\023\022Mcs\272\325\352\266\354W\031\253"
 162      7A52D013 
 162      124D6373 
 162      BAD5EAB6 
 162      EC5719AB 
 163 0193 AB23D5D3 		.ascii	"\253#\325\323kwZ\351\366T\317\313\027\351\366\226\216"
 163      6B775AE9 
 163      F654CFCB 
 163      17E9F696 
 163      8E
 164 01a4 E7CD9DF4 		.ascii	"\347\315\235\364\364uw\306\262\355\3367\231TFD\267\336"
 164      F47577C6 
 164      B2EDDE37 
 164      99544644 
 164      B7DE
 165 01b6 98B53A   		.ascii	"\230\265:"
 166              		.text
 167              		.section	.gnu.lto_P1_2_Enable.bb5cdf8e,"",%progbits
 168 0000 789C7D8F 		.ascii	"x\234}\217\277KBQ\024\307\317\367<{\011.\321$N\321\342"
 168      BF4B4251 
 168      14C7CFF7 
 168      3C7B092E 
 168      D1244ED1 
 169 0015 2614F417 		.ascii	"&\024\364\027\0045&\270\205 aoM\220\032\305\367\320"
 169      043526B8 
 169      8520616F 
 169      4D901AC5 
 169      F7D0
 170 0027 401CC29A 		.ascii	"@\034\302\232\212\260-\2624\243\032\244\355\325\220"
 170      8AB02DB2 
 170      34A31AA4 
 170      EDD590
 171 0036 D0605443 		.ascii	"\320`TC a\005\006\266%F\362\210\260s}c\320\205{\317"
 171      20610506 
 171      B62546F2 
 171      88B0737D 
 171      63D0857B 
 172 004b FDF13D9F 		.ascii	"\375\361=\237\357\375j\364w\004d.\200hR*4\002\027\032"
 172      EFFD6AF4 
 172      7704642E 
 172      8068522A 
 172      3402171A 
 173 005f 44969701 		.ascii	"D\226\227\001\265!P\232\221\306;w\031\005\273\274\355"
 173      B521509A 
 173      91C63B77 
 173      1905BBBC 
 173      ED
ARM GAS  C:\Users\Thomas\AppData\Local\Temp\ccBIIPWR.s 			page 13


 174 0070 0BEE9BA6 		.ascii	"\013\356\233\246\371q\177\352_\367;L\324c\027\203\003"
 174      F9717FEA 
 174      5FF73B4C 
 174      D4631783 
 174      03
 175 0081 044934DD 		.ascii	"\004I4\335\354\317\243O\317\212f\314}C\011\272\340\351"
 175      ECCFA34F 
 175      CF8A66CC 
 175      7D4309BA 
 175      E0E9
 176 0093 64DC3607 		.ascii	"d\3346\007\203\363\372f.\010\235\311a1\223\205\250-"
 176      83F3FA66 
 176      2E089DC9 
 176      61319385 
 176      A82D
 177 00a5 2A65F5C6 		.ascii	"*e\365\306\254\252\326\304\325W\276\261\263\250\032"
 177      ACAAD6C4 
 177      D557BEB1 
 177      B3A81A
 178 00b4 FBAC7C5F 		.ascii	"\373\254|_._k\276\016;\314\375\033\313\364(\233\347"
 178      2E5F6BBE 
 178      0E3BCCFD 
 178      1BCBF428 
 178      9BE7
 179 00c6 F6ED9D77 		.ascii	"\366\355\235wxE\352X\262\363\255\321\"v\255,\034\326"
 179      7845EA58 
 179      B2F3ADD1 
 179      2276AD2C 
 179      1CD6
 180 00d8 7088008E 		.ascii	"p\210\000\216 \311PF\021\324D\346Swq\232K\254\027;g"
 180      20C95046 
 180      11D444E6 
 180      5377719A 
 180      4BAC173B 
 181 00ed 1ED50E10 		.ascii	"\036\325\016\020*\242\024\323-(\311\177\260c\201\011"
 181      2AA214D3 
 181      2D28C97F 
 181      B0638109 
 182 00fd 829E90B1 		.ascii	"\202\236\220\261k\327\254\344\312|\357a\243\312\251"
 182      6BD7ACE4 
 182      CA7CEF61 
 182      A3CAA9
 183 010c 6F33677A 		.ascii	"o3gz\035\366\364T&T\221\222t#\324\202e_\314\015\225"
 183      1DF6F454 
 183      26549192 
 183      7423D482 
 183      655FCC0D 
 184 0121 A4A24245 		.ascii	"\244\242BE\224?O\204\242\363\306\212\221\\Z5\226c\221"
 184      943F4F84 
 184      A2F3C68A 
 184      915C5A35 
 184      966391
 185 0134 C45A326E 		.ascii	"\304Z2nD\303\221\304\354L4<\025\233\016\305\351\027"
 185      44C391C4 
 185      EC4C343C 
 185      159B0EC5 
 185      E917
ARM GAS  C:\Users\Thomas\AppData\Local\Temp\ccBIIPWR.s 			page 14


 186 0146 21E37FF9 		.ascii	"!\343\177\371"
 187              		.text
 188              		.section	.gnu.lto_P1_2_Start.bb5cdf8e,"",%progbits
 189 0000 789C8D53 		.ascii	"x\234\215S\337KTA\024>gf\366\207\273\222\022\364\262"
 189      DF4B5441 
 189      143E6766 
 189      F687BB92 
 189      12F4B2
 190 0013 81083E48 		.ascii	"\201\010>H\020JF\177A\017\321\233\340[lH\330>\364\242"
 190      104A467F 
 190      410FD19B 
 190      E05B6C48 
 190      D83EF4A2 
 191 0027 B1E8A338 		.ascii	"\261\350\2438ww\261\020\011\221\204~\031\005e\226\265"
 191      7777B110 
 191      0991847E 
 191      19056596 
 191      B5
 192 0038 9A5A56FE 		.ascii	"\232ZV\376\272\032T$\030\222\251I\250\221\302\326C("
 192      BA1A5424 
 192      1892A949 
 192      A891C2D6 
 192      4328
 193 004a 462AA5DB 		.ascii	"F*\245\3339s7s\025\245\013{\346\336\2313\337\371\276"
 193      39733773 
 193      15A50B7B 
 193      E6DE9933 
 193      DFF9BE
 194 005d EF9C95B0 		.ascii	"\357\234\225\260\3639J\277\\\005PD+\272\000E\303(\200"
 194      F3394ABF 
 194      5C055044 
 194      2BBA0045 
 194      C32880
 195 0070 E515428E 		.ascii	"\345\025B\216\027\202\366\251\276\034\320\231\022\225"
 195      1782F6A9 
 195      BE1CD099 
 195      1295
 196 007e B3AD10F9 		.ascii	"\263\255\020\371\005\020j\204TX\203_\305\222\300\006"
 196      05106A84 
 196      5458835F 
 196      C592C006 
 197 008e BBED8A3F 		.ascii	"\273\355\212?\377\256\326z\261s\304*\266qM\000,\013"
 197      FFAED67A 
 197      B173C42A 
 197      B6714D00 
 197      2C0B
 198 00a0 A700DEC3 		.ascii	"\247\000\336\303|\240\244\245\330\372\244\337\035\243"
 198      7CA0A4A5 
 198      D8FAA4DF 
 198      1DA3
 199 00ae A46CE70C 		.ascii	"\244l\347\014[\321\215\264\266\357\267u2\331\025\037"
 199      5BD18DB4 
 199      B6EFB775 
 199      32D9151F 
 200 00be 9AC22C09 		.ascii	"\232\302,\011k\002\025\007\017\007/\207\014\016>\016"
 200      6B021507 
 200      0F072F87 
ARM GAS  C:\Users\Thomas\AppData\Local\Temp\ccBIIPWR.s 			page 15


 200      0C0E3E0E 
 201 00ce 7E0E00F3 		.ascii	"~\016\000\363t\233Y,\010\301\253\234\306H\343R\374 "
 201      749B592C 
 201      08C1AB9C 
 201      C648E352 
 201      FC20
 202 00e0 E3AD0849 		.ascii	"\343\255\010I\245n\276\277\024\027\325\277\364E\355"
 202      A56EBEBF 
 202      1417D5BF 
 202      F445ED
 203 00ef 5D13629D 		.ascii	"]\023b\235\213\321\356\354\374\2731oB\320\216\371l\265"
 203      8BD1EEEC 
 203      FCBB316F 
 203      42D08EF9 
 203      6CB5
 204 0101 6237B019 		.ascii	"b7\260\031\257[\232\263$\336\307j|\200\001\342\325F"
 204      AF5B9AB3 
 204      24DEC76A 
 204      7C8001E2 
 204      D546
 205 0113 DBF00163 		.ascii	"\333\360\001cS\321\234\177\230VKo\275\207o\023\001|"
 205      53D19C7F 
 205      98564B6F 
 205      BD876F13 
 205      017C
 206 0125 C879C00C 		.ascii	"\310y\300\014$\214\027\312\011\214d3d\335@]<C\346!\277"
 206      248C17CA 
 206      098C6433 
 206      64DD405D 
 206      3C43E621 
 207 013a 4FCCDEA9 		.ascii	"O\314\336\251\225y\267\265\216\314\365\277<m[\267\364"
 207      9579B7B5 
 207      8ECCF5BF 
 207      3C6D5BB7 
 207      F4
 208 014b 4632895C 		.ascii	"F2\211\\\350\021J\322\217\207\003x(\220j\002\3061\217"
 208      E8114AD2 
 208      8F870378 
 208      28906A02 
 208      C6318F
 209 015e EE8C5D6B 		.ascii	"\356\214]k\211fq\015\211\200\355Tc\032\207\177\326m"
 209      8966710D 
 209      8980ED54 
 209      631A877F 
 209      D66D
 210 0170 BC09A7D9 		.ascii	"\274\011\247\331g\017\206\214w\313\002\323}\265\223"
 210      670F868C 
 210      77CB02D3 
 210      7DB593
 211 017f AF042301 		.ascii	"\257\004#\001v\360\251\330\356:>F7\325\352dI\036:\353"
 211      76F0A9D8 
 211      EE3A3E46 
 211      37D5EA64 
 211      491E3AEB 
 212 0193 6F8E2C64 		.ascii	"o\216,dr9ua\304\322*\315#e<\232iJ\304\005{t\331\"\217"
 212      72397561 
 212      C4D22ACD 
ARM GAS  C:\Users\Thomas\AppData\Local\Temp\ccBIIPWR.s 			page 16


 212      23653C9A 
 212      694AC405 
 213 01ac 5CD88501 		.ascii	"\\\330\205\001\3546\036=a\217\2461\272ZK\364\034H\257"
 213      EC361E3D 
 213      618FA631 
 213      BA5A4BF4 
 213      1C48AF
 214 01bf 83FAFDCB 		.ascii	"\203\372\375\313\357\250\201p\255\222\212\247\216\212"
 214      EFA88170 
 214      AD928AA7 
 214      8E8A
 215 01cd 46E49C3D 		.ascii	"F\344\234=\021{\010\221@\034\315\303'\035\314\214=\257"
 215      117B0891 
 215      401CCDC3 
 215      271DCC8C 
 215      3DAF
 216 01df 3C4B91F8 		.ascii	"<K\221\370\341v\262}\316\205\327\315\211NeZE\004\236"
 216      E176B27D 
 216      CE85D7CD 
 216      894E655A 
 216      45049E
 217 01f2 FF378117 		.ascii	"\3777\201\027\206\200\217\262#\213\035\335\005l\361"
 217      86808FB2 
 217      238B1DDD 
 217      056CF1
 218 0201 AEB3B47D 		.ascii	"\256\263\264}xz7\207\247\217\266M\357x:Tj>I\321\350"
 218      787A3787 
 218      A78FB64D 
 218      EF783A54 
 218      6A3E49D1 
 219 0216 D553E9CD 		.ascii	"\325S\351\315\232<\220\352\242\334\321\247~\323\247"
 219      9A3C90EA 
 219      A2DCD1A7 
 219      7ED3A7
 220 0225 0196A4E8 		.ascii	"\001\226\244\350ln\350s\217\3374e\345m\252O\355\215"
 220      6C6EE873 
 220      8FDF3465 
 220      E56DAA4F 
 220      ED8D
 221 0237 DF9AF66D 		.ascii	"\337\232\366mQ1\270\251\302\376\353I-Ut0\374\004\263"
 221      5131B8A9 
 221      C2FEEB49 
 221      2D557430 
 221      FC04B3
 222 024a C58701A3 		.ascii	"\305\207\001\243kw\204!\343\203\037>a\324\356\241\211"
 222      6B778421 
 222      E3831F3E 
 222      61D4EEA1 
 222      89
 223 025b A27CD86E 		.ascii	"\242|\330n\004\321V\206&\016c5\375+=0\203\226\375\321"
 223      04D15686 
 223      260E6335 
 223      FD2B3D30 
 223      8396FDD1 
 224 026f C58A78A0 		.ascii	"\305\212x\240\347i6I:\271\225[\020<\021*\017\205\317"
 224      E7693649 
 224      3AB9955B 
ARM GAS  C:\Users\Thomas\AppData\Local\Temp\ccBIIPWR.s 			page 17


 224      103C112A 
 224      0F85CF
 225 0282 5486CE96 		.ascii	"T\206\316\226\226TT\205\313B\301\342\222\212\343\307"
 225      96545485 
 225      CB42C1E2 
 225      928AE3C7 
 226 0292 82C5474A 		.ascii	"\202\305GJ\213\012\312 \353\\ye(\034\256:_\351\234\376"
 226      8B0ACA20 
 226      EB5C7965 
 226      281CAE3A 
 226      5FE99CFE 
 227 02a6 01EA9F84 		.ascii	"\001\352\237\204\276"
 227      BE
 228              		.text
 229              		.section	.gnu.lto_P1_2_DisableInt.bb5cdf8e,"",%progbits
 230 0000 789C7D90 		.ascii	"x\234}\220\315K\033Q\024\305\357\271\223L\007\002R\\"
 230      CD4B1B51 
 230      14C5EFB9 
 230      934C0702 
 230      525C
 231 0012 14C9A685 		.ascii	"\024\311\246\205,D\020\301\212\177\201\213.\272\011"
 231      2C4410C1 
 231      8A7F818B 
 231      2EBA09
 232 0021 641B9062 		.ascii	"d\033\220bg\321\215\312\020\227\342K3\202(\224\020\012"
 232      67D18DCA 
 232      1097E24B 
 232      33822894 
 232      100A
 233 0033 09480A16 		.ascii	"\011H\012\026Jk\223\372A]\272\030\\\210\037\240\224"
 233      4A6B93FA 
 233      415DBA18 
 233      5C881FA0 
 233      94
 234 0044 820111EB 		.ascii	"\202\001\021\353\")\215\033\215\202v\024I\357\233\351"
 234      22298D1B 
 234      8D827614 
 234      49EF9BE9 
 235 0054 AA0507DE 		.ascii	"\252\005\007\336\274\017\316\371\335s\257A\377\177q"
 235      BC0FCEF9 
 235      DD73AF41 
 235      FF7F71
 236 0063 598720EA 		.ascii	"Y\207 \352\227\035\006\201\363{DY\213\001} \320\024"
 236      971D0681 
 236      F37B4459 
 236      8B017D20 
 236      D014
 237 0075 630A4D6E 		.ascii	"c\012Mn1\362^\245\024\353\376\240\224:\277\250uMw\371"
 237      31F25EA5 
 237      14EBFEA0 
 237      943ABFA8 
 237      754D77F9 
 238 0089 4C74C921 		.ascii	"Lt\311!\006\037\321M\242\2515o\016\243F\002\372\334"
 238      061FD14D 
 238      A2A9356F 
 238      0EA34602 
 238      FADC
ARM GAS  C:\Users\Thomas\AppData\Local\Temp\ccBIIPWR.s 			page 18


 239 009b D85E7B6B 		.ascii	"\330^{k$\026\224z}\262\335\330\214\251\222rO\332\355"
 239      2416947A 
 239      7DB2DDD8 
 239      8CA99272 
 239      4FDAED
 240 00ae C7BEB03F 		.ascii	"\307\276\260?\301\020'z\343\350\211\377\015\"\206\226"
 240      C110277A 
 240      E3E889FF 
 240      0D228696 
 241 00be 7B578B99 		.ascii	"{W\213\231\256\024x\210E$B8>\303\224|\320/\313\235\236"
 241      AE147888 
 241      45244238 
 241      3EC3947C 
 241      D02FCB9D 
 242 00d3 6AB7BFD6 		.ascii	"j\267\277\326\013[\003lIXy\212\220\317\034\325?\242"
 242      0B5B036C 
 242      4958798A 
 242      90CF1CD5 
 242      3FA2
 243 00e5 BA2C9DBA 		.ascii	"\272,\235\272!\027\331\215#\344\274\342\334#M\270fC"
 243      2117D98D 
 243      23E4BCE2 
 243      DC234DB8 
 243      6643
 244 00f7 0ABCFBFE 		.ascii	"\012\274\373\376f\211'o\325\214\262|\226\004\232[\301"
 244      6689276F 
 244      D58CB27C 
 244      96049A5B 
 244      C1
 245 0108 A4B82374 		.ascii	"\244\270#t\000\016J\011S\3042\223\215\253\331\237U'"
 245      000E4A09 
 245      53C43293 
 245      8DABD99F 
 245      5527
 246 011a 3447C4BC 		.ascii	"4G\304\274s]n\032\277\330\347hq7\253\":\360\217\372"
 246      735D6E1A 
 246      BFD8E768 
 246      7137AB22 
 246      3AF08FFA 
 247 012e FE372B78 		.ascii	"\3767+x\012\362\257/\274o\304\312\230\317\272\360\331"
 247      0AF2AF2F 
 247      BC6FC4CA 
 247      98CFBAF0 
 247      D9
 248 013f 4415717C 		.ascii	"D\025q|\201\364\207%\224!\304\334o3\304EC\342\342^\351"
 248      81F48725 
 248      9421C4DC 
 248      6F33C445 
 248      43E2E25E 
 249 0154 B443DBCD 		.ascii	"\264C\333\3153\020\226E*U\013\320\232\373h+B\023\006"
 249      33109645 
 249      2A550BD0 
 249      9AFB682B 
 249      421306
 250 0167 1DC1F5E6 		.ascii	"\035\301\365\346w\203\324\364os\017.\365@\260*\315I"
 250      7783D4F4 
 250      6F730F2E 
ARM GAS  C:\Users\Thomas\AppData\Local\Temp\ccBIIPWR.s 			page 19


 250      F540B02A 
 250      CD49
 251 0179 373E5B74 		.ascii	"7>[t\214\254W~\036\210I\217\012zD\242y\322\227~f\217"
 251      8CAC577E 
 251      1E88498F 
 251      0A7A44A2 
 251      79D2977E 
 252 018f DACE8B8C 		.ascii	"\332\316\213\214\375r856\341\214\330\351djlh0\235\354"
 252      FD723835 
 252      36E18CD8 
 252      E9646A6C 
 252      68309DEC 
 253 01a3 1F7EDA37 		.ascii	"\037~\3327B\035\257F3\266\343L\214gR\031\021\375\001"
 253      421DAF46 
 253      33B6E34C 
 253      8C675219 
 253      11FD01
 254 01b6 E926B586 		.ascii	"\351&\265\206"
 255              		.text
 256              		.section	.gnu.lto_P1_2_Stop.bb5cdf8e,"",%progbits
 257 0000 789C7D8F 		.ascii	"x\234}\217?HBQ\024\306\317w\236\275\004!\242I\234\242"
 257      3F484251 
 257      14C6CF77 
 257      9EBD0421 
 257      A2499CA2 
 258 0014 C54D2868 		.ascii	"\305M(hjlp\025\334B\220\260\267&H\215\342{h\020\016"
 258      6A6C7015 
 258      DC4290B0 
 258      B726488D 
 258      E27B6810 
 259 0029 A14E41E8 		.ascii	"\241NA\350\026Y\226\015\005M\301\253\245h(\242!\260"
 259      1659960D 
 259      054DC1AB 
 259      A56828A2 
 259      21B0
 260 003b B2028BDA 		.ascii	"\262\002\213\332\022){D\331\271\2761\350\302\275\347"
 260      12297B44 
 260      D9B9BE31 
 260      E8C2BDE7 
 261 004b FEF9CEEF 		.ascii	"\376\371\316\357\273\237F\177G@f\004DcR\241\021\270"
 261      BB9F467F 
 261      47406604 
 261      446352A1 
 261      11B8
 262 005d 704E6479 		.ascii	"pNdy\031P\033\002e\030\031\274r\233Q\260k\253\276\340"
 262      19501B02 
 262      651819BC 
 262      729B51B0 
 262      6BABBEE0 
 263 0071 BA699A6F 		.ascii	"\272i\232o\245C\377\222\337a\242\016\273\030l H\242"
 263      A543FF92 
 263      DF61A20E 
 263      BB186C20 
 263      48A2
 264 0083 69E7BEAF 		.ascii	"i\347\276\257}zN4\303\356\033\252\320\005O\273#\266"
 264      7D7A4E34 
 264      C3EE1BAA 
ARM GAS  C:\Users\Thomas\AppData\Local\Temp\ccBIIPWR.s 			page 20


 264      D0054FBB 
 264      23B6
 265 0095 D9EBEDBD 		.ascii	"\331\353\355\275\027O\247\24039,f\262\020\265D\245\254"
 265      174FA7A0 
 265      33392C66 
 265      B210B544 
 265      A5AC
 266 00a7 9E9855D5 		.ascii	"\236\230U\325\0328\376\310?WfTc\227\225\357\303\321"
 266      1A38FEC8 
 266      3F576654 
 266      639795EF 
 266      C3D1
 267 00b9 E381EF85 		.ascii	"\343\201\357\205\035\346\356\231ez\224\315}\353\342"
 267      1DE6EE99 
 267      657A94CD 
 267      7DEBE2
 268 00c8 D2DBBF22 		.ascii	"\322\333\277\"u\254\332\371\346`\031kV\016\016k\330"
 268      75ACDAF9 
 268      E660196B 
 268      560E0E6B 
 268      D8
 269 00d9 44005B90 		.ascii	"D\000[\220d\250\241\014j \373\251\2738\315%\026\213"
 269      64A8A10C 
 269      6A20FBA9 
 269      BB38CD25 
 269      168B
 270 00eb FB9521D5 		.ascii	"\373\225!\325\256\375\200\260-Rq-Ai\376\243\355\010"
 270      AEFD80B0 
 270      2D52712D 
 270      4169FEA3 
 270      ED08
 271 00fd 4D18748B 		.ascii	"M\030t\213\254}s\302J\256\334+W+uN\177\231\313\246\327"
 271      AC7D73C2 
 271      4AAEDC2B 
 271      572B754E 
 271      7F99CBA6 
 272 0112 614F4785 		.ascii	"aOG\205B\035i\2117@MX\366]\270\257$\225\025*\243|z4"
 272      421D6989 
 272      37404D58 
 272      F65DB8AF 
 272      2495152A 
 273 012a 140B1BF3 		.ascii	"\024\013\033\363Fjv\301\230\213G\223\213\251\204\021"
 273      466A76C1 
 273      988B4793 
 273      8BA98411 
 274 013a 8B4493D3 		.ascii	"\213D\223\323\223\261\310x|\"\224\240_@\212\2013"
 274      93B1C878 
 274      7C2294A0 
 274      5F408A81 
 274      33
 275              		.text
 276              		.section	.gnu.lto_P1_2_SetIntMode.bb5cdf8e,"",%progbits
 277 0000 789C8D91 		.ascii	"x\234\215\221M(DQ\024\307\317\377\3361\363|\024Y1+%"
 277      4D284451 
 277      14C7CFFF 
 277      DE31F37C 
 277      1459312B 
ARM GAS  C:\Users\Thomas\AppData\Local\Temp\ccBIIPWR.s 			page 21


 278 0015 A4A4287B 		.ascii	"\244\244({e!;\231\355\224\304[\330\240\327X{cFjV\310"
 278      65213B99 
 278      ED94C45B 
 278      D8A0D758 
 278      7B63466A 
 279 002b 42695692 		.ascii	"BiV\222\217a|m\321d3J\021\033e\301\302(\037%\"c\204"
 279      8F617C6D 
 279      D164334A 
 279      111B65C1 
 279      C2281F25 
 280 0042 71CE7B56 		.ascii	"q\316{V\224\274z\347\234{\357\377\374\316\271\347j\372"
 280      94BC7AE7 
 280      9C7BEFFF 
 280      FCCEB9E7 
 280      6AFA
 281 0054 FDF9C528 		.ascii	"\375\371\305(\242fv\320\0045qH\0246\024 \001\201F\024"
 281      A26676D0 
 281      04357148 
 281      14361420 
 281      01814614 
 282 0068 4670A31E 		.ascii	"Fp\243\036\025&R\211\231\342\272y\333\266\037N&+\307"
 282      15265289 
 282      99E2BA79 
 282      DBB61F4E 
 282      262BC7
 283 007b 2A729CF6 		.ascii	"*r\234\366\244\\\014\026P\307\222\330n,Y\250\253A\034"
 283      A45C0C16 
 283      50C792D8 
 283      6E2C59A8 
 283      AB411C
 284 008e 4FBFA56F 		.ascii	"O\277\245ou\315\234m\217\246\266\223v+r\314\\\204\346"
 284      75CD9C6D 
 284      8FA6B693 
 284      762B72CC 
 284      5C84E6
 285 00a1 0C34F851 		.ascii	"\0144\370Q\357'\336 ,\241F\304\217\321\217\323bo\224"
 285      EF27DE20 
 285      2CA146C4 
 285      8FD18FD3 
 285      626F94
 286 00b4 D9652E13 		.ascii	"\331e.\023\313\360\202\375Zy\312\316\347\267\322\323"
 286      CBF082FD 
 286      5A79CACE 
 286      E7B7D2D3 
 287 00c4 8BB59E22 		.ascii	"\213\265\236\"\3059J\213)\020\343\205\244\373$4\304"
 287      C5394A8B 
 287      2910E385 
 287      A4FB2434 
 287      C4
 288 00d5 1065F897 		.ascii	"\020e\370\227\276\257x\301^\237a\357%\366\271o\011-"
 288      BEAF78C1 
 288      5E9F61EF 
 288      25F6B96F 
 288      092D
 289 00e7 ABE4123B 		.ascii	"\253\344\022;\361\321\253\222k\225Sz\374 l{\244\366"
 289      F1D1AB92 
 289      6B95537A 
ARM GAS  C:\Users\Thomas\AppData\Local\Temp\ccBIIPWR.s 			page 22


 289      FC206C7B 
 289      A4F6
 290 00f9 45E6E8D8 		.ascii	"E\346\350\330p\266H\226w\261|W\034\263\341(w\354A\002"
 290      70B64896 
 290      77B17C57 
 290      1CB3E128 
 290      77EC4102 
 291 010d 7EAC80A7 		.ascii	"~\254\200\247\204U\304Ag\210\274z]\232v\201\367\227"
 291      8455C441 
 291      6788BC7A 
 291      5D9A7681 
 291      F797
 292 011f EF1127DB 		.ascii	"\357\021'\333\363\312\327I\262\224\213NA4\177\300\326"
 292      F3CAD749 
 292      B2948B4E 
 292      41347FC0 
 292      D6
 293 0130 18C60872 		.ascii	"\030\306\010r\032\334\353p\211\005\177$\254\377\250"
 293      1ADCEB70 
 293      89057F24 
 293      ACFFA8
 294 013f EECB2AE1 		.ascii	"\356\313*\341g\337\323c\245Nu\037a\303)\036y\376\226"
 294      67DFD363 
 294      A54E751F 
 294      61C3291E 
 294      79FE96
 295 0152 184C64E1 		.ascii	"\030Ld\341\277\372\331t\3721\350\034\341\324V\227\210"
 295      BFFAD974 
 295      FA31E81C 
 295      E1D45697 
 295      88
 296 0163 E55533FC 		.ascii	"\345U3\374B<F\036jUc\260\335\0340\255\236\220\331\327"
 296      423C461E 
 296      6A5563B0 
 296      DD1C30AD 
 296      9E90D9D7 
 297 0177 1D181CB6 		.ascii	"\035\030\034\266z\315`g`\260\255%\330\331\324\335\334"
 297      7ACD6067 
 297      60B0AD25 
 297      D8D9D4DD 
 297      DC
 298 0188 D84BA5FD 		.ascii	"\330K\245\375\003!\323\262\206\207B\356\351\027vn\275"
 298      0321D3B2 
 298      868742EE 
 298      E917766E 
 298      BD
 299 0199 64       		.ascii	"d"
 300              		.text
 301              		.section	.gnu.lto_P1_2_GetIntStatus.bb5cdf8e,"",%progbits
 302 0000 789C6366 		.ascii	"x\234cf\300\004R@\374\033\210\225\200\230\221\231\201"
 302      C0045240 
 302      FC1B8895 
 302      80989199 
 302      81
 303 0011 9169C239 		.ascii	"\221i\3029\006\206F\016&FF\020\203\201\221\241\236\211"
 303      0686460E 
 303      26464610 
ARM GAS  C:\Users\Thomas\AppData\Local\Temp\ccBIIPWR.s 			page 23


 303      838191A1 
 303      9E89
 304 0023 B19EF125 		.ascii	"\261\236\361%\323G&\3063;\377]fT_\332\320\320\364a\321"
 304      D34726C6 
 304      333BFF5D 
 304      66545FDA 
 304      D0D0F461 
 305 0038 F4BBDCAD 		.ascii	"\364\273\334\255\022?\231\030\030>310\352H1j\202\314"
 305      123F9918 
 305      183E3331 
 305      30EA4831 
 305      6A82CC
 306 004b 615CCEA8 		.ascii	"a\\\316\250\316\000T\370\261\345\357un\266\226\206\206"
 306      CE0054F8 
 306      B1E5EF75 
 306      6EB69686 
 306      86
 307 005c 0601903C 		.ascii	"\006\001\220<Pb\005#\033#\220^/t\240\341\377\377\317"
 307      50620523 
 307      1B23905E 
 307      2F74A0E1 
 307      FFFFCF
 308 006f 77A7ACD0 		.ascii	"w\247\254\320gaab\370\311\004\264\021d\010\303\023 "
 308      67616162 
 308      F8C904B4 
 308      116408C3 
 308      1320
 309 0081 01B2EF29 		.ascii	"\001\262\357)\023\023\210f\276\305x\350[\327\263\323"
 309      13138866 
 309      BEC578E8 
 309      5BD7B3D3 
 310 0091 16208DDF 		.ascii	"\026 \215\337\231@\226\337=\362f\003\347\013\246\237"
 310      994096DF 
 310      3DF26603 
 310      E70BA69F 
 311 00a1 4C4CCF4F 		.ascii	"LL\317O56\260\200\254\271\377\344\374E\016\260\020\003"
 311      3536B080 
 311      ACB9FFE4 
 311      FC450EB0 
 311      1003
 312 00b3 887BF1C9 		.ascii	"\210{\361\311\021\377\271\214\263\033[\030\177213\256"
 312      11FFB98C 
 312      B31B5B18 
 312      7F323133 
 312      AE
 313 00c4 6494625C 		.ascii	"d\224b\\\305\010t\025\343j\306\271\214\014\267\030\233"
 313      C5087415 
 313      E36AC6B9 
 313      8C0CB718 
 313      9B
 314 00d5 7FB4E940 		.ascii	"\177\264\351@\214c\206\230\370\375\317\361V~\220v\006"
 314      8C638698 
 314      F8FDCFF1 
 314      567E9076 
 314      06
 315 00e6 7606C635 		.ascii	"v\006\3065@\245\367\030\031\241\012\300.b\004\271\004"
 315      40A5F718 
ARM GAS  C:\Users\Thomas\AppData\Local\Temp\ccBIIPWR.s 			page 24


 315      19A10AC0 
 315      2E6204B9 
 315      04
 316 00f7 68B4825E 		.ascii	"h\264\202^\214{j^jQbIjJ|p~iQrjL@p\276\263iL\200a\274"
 316      8C7B6A5E 
 316      6A516249 
 316      6A4A7C70 
 316      7E695172 
 317 0116 915E3203 		.ascii	"\221^2\003\000\204\220e\342"
 317      00849065 
 317      E2
 318              		.text
 319              		.section	.gnu.lto_P1_2_WriteRegValue.bb5cdf8e,"",%progbits
 320 0000 789C654F 		.ascii	"x\234eO1HBQ\024\275\347\375o\0306HS9\005!.!\024\264"
 320      31484251 
 320      14BDE7FD 
 320      6F183648 
 320      53390521 
 321 0018 340505AD 		.ascii	"4\005\005\255\202\215\202\210\375\250%\301l\366\375"
 321      828D8288 
 321      FDA825C1 
 321      6CF6FD
 322 0027 B05C1A1C 		.ascii	"\260\\\032\034\"\"q\212(\2632\250\245\355S\213\024\024"
 322      2222718A 
 322      28B332A8 
 322      A5ED538B 
 322      1414
 323 0039 05213624 		.ascii	"\005!6$\210BAC\242`\177\010\273O\307\036<\356=\207\363"
 323      88424143 
 323      A2607F08 
 323      BB4FC71E 
 323      3CEE3D87 
 324 004e CE394FA3 		.ascii	"\3169O\243\377\307\303\327\007\242\011\236\320\010\""
 324      FFC7C3D7 
 324      07A2099E 
 324      D00822
 325 005d F348643A 		.ascii	"\363Hd:\005\240\026\002%\005\222\370\024M\201\214U\330"
 325      05A01602 
 325      250592F8 
 325      144D818C 
 325      55D8
 326 006f 77F98EA4 		.ascii	"w\371\216\244\224\337\265\354\350\326\210-\210Z\242"
 326      94DFB5EC 
 326      E8D6882D 
 326      885AA2
 327 007e 6F8363F8 		.ascii	"o\203c\370Xr\327\371J;\264q\020\357\017\265\237\326"
 327      5872D7F9 
 327      4A3BB471 
 327      10EF0FB5 
 327      9FD6
 328 0090 D087B005 		.ascii	"\320\207\260\005\334\012\036\224\033mMA!\024\254T^v"
 328      DC0A1E94 
 328      1B6D4D41 
 328      2114AC54 
 328      5E76
 329 00a2 9CDE4329 		.ascii	"\234\336C)7\255\322\245\234e^\303\0114\366C\036\036"
 329      37ADD2A5 
ARM GAS  C:\Users\Thomas\AppData\Local\Temp\ccBIIPWR.s 			page 25


 329      9C655EC3 
 329      0934F643 
 329      1E1E
 330 00b4 9CC2434C 		.ascii	"\234\302CL\021\012\360*y3\365[v\015\2448\333\335\317"
 330      110AF02A 
 330      7933F55B 
 330      760DA438 
 330      DBDDCF
 331 00c7 C41906B8 		.ascii	"\304\031\006\2706\025\207-\331\355^\265wK3\272\316\255"
 331      3615872D 
 331      D9ED5EB5 
 331      774B33BA 
 331      CEAD
 332 00d9 959EEAAC 		.ascii	"\225\236\352\254P\365\033\234\305S{\303\355^\263\275"
 332      50F51B9C 
 332      C5537BC3 
 332      ED5EB3BD 
 333 00e9 A8DEB057 		.ascii	"\250\336\260W\365&\233\3575\321\267\357M\251+\373j\375"
 333      F5269BEF 
 333      35D1B7EF 
 333      4DA92BFB 
 333      6AFD
 334 00fb E9D9D9A3 		.ascii	"\351\331\331\243H\301z\372\332\326s\310\232)\330\302"
 334      48C17AFA 
 334      DAD673C8 
 334      9A29D8C2 
 335 010b 81732E74 		.ascii	"\201s.t\301\205\010E\344\320a\323w\230\326kP\371\251"
 335      C1850845 
 335      E4D061D3 
 335      7798D66B 
 335      50F9A9
 336 011e CFD70554 		.ascii	"\317\327\005T\014\207\216\371C\013\306\232\021\217$"
 336      0C878EF9 
 336      430BC69A 
 336      118F24
 337 012d 8CA57030 		.ascii	"\214\245p0\266\021\217\032\241@067\035\012L\206\247"
 337      B6118F1A 
 337      A1403036 
 337      371D0A4C 
 337      86A7
 338 013f FC511A5C 		.ascii	"\374Q\032\\_Y]N\314G\022\221?=\251y\353"
 338      5F595D4E 
 338      CC471291 
 338      3F3DA979 
 338      EB
 339              		.text
 340              		.section	.gnu.lto_P1_2_ReadRegValue.bb5cdf8e,"",%progbits
 341 0000 789C6D52 		.ascii	"x\234mR[HTQ\024\335\373\234{\257\323\250\223\3649?\006"
 341      5B485451 
 341      14DDFB9C 
 341      7BAFD3A8 
 341      93F4393F 
 342 0015 43681156 		.ascii	"Ch\021VB?\365\023DD\177\202\277\202\210\216\020D\202"
 342      423FF513 
 342      44447F82 
 342      BF82888E 
 342      104482
ARM GAS  C:\Users\Thomas\AppData\Local\Temp\ccBIIPWR.s 			page 26


 343 0028 8FFEC433 		.ascii	"\217\376\3043z\241!\263I\010SC\251\310\322L\255\264"
 343      7AA121B3 
 343      49085343 
 343      A9C8D24C 
 343      ADB4
 344 003a 873A03A3 		.ascii	"\207:\003\243FF\017E4%\031r\020\007\037\037\221M:\015"
 344      46460F45 
 344      34251972 
 344      10071F1F 
 344      914D3A0D 
 345 004e 51D33EE7 		.ascii	"Q\323>\347:\320d\027f\3569\347\256\275\316^km\016\273"
 345      3AD06417 
 345      66EE39E7 
 345      AEBDCE5E 
 345      6B6D0EBB 
 346 0062 9F33F4AB 		.ascii	"\2373\364\253\342\000G\351\215\006 \273>\005\340\261"
 346      E20047E9 
 346      8D0620BB 
 346      3E05E0B1 
 347 0072 31D4AC05 		.ascii	"1\324\254\005\267\026c6\215\361\253\223\000\302\256"
 347      B7166336 
 347      8DF1AB93 
 347      00C2AE
 348 0081 9B692032 		.ascii	"\233i 2tDy\016\010u\214k:\3261\315\"\\g\233\014\337"
 348      7444790E 
 348      08758C6B 
 348      3AD631CD 
 348      225C679B 
 349 0097 2DFF8866 		.ascii	"-\377\210f\254\2618\203,\240m\373B\344;\227[dr;\032"
 349      ACB13883 
 349      2CA06DFB 
 349      42E43B97 
 349      5B64723B 
 350 00ac 9D5A3672 		.ascii	"\235Z6r\272\204\250\377\372m\246\244\365\306m\2143\006"
 350      BA84A8FF 
 350      FA6DA6A4 
 350      F5C66D8C 
 350      3306
 351 00be 5106F800 		.ascii	"Q\006\370\000\235\330\215N\311\333\2039\022\333\023"
 351      9DD88D4E 
 351      C9DB8339 
 351      12DB13
 352 00cd DA0A3AB8 		.ascii	"\332\012:\270\013\345\332\327\3309\233\351\272Cu\341"
 352      0BE5DAD7 
 352      D8399BE9 
 352      BA4375E1 
 353 00dd B6A6CB19 		.ascii	"\266\246\313\031\242[\230\341D\"\233\212\361!\362\324"
 353      A25B98E1 
 353      44229B8A 
 353      F121F2D4 
 354 00ed 7AF950C9 		.ascii	"z\371P\311\246\371k!\3350\205\020Y\330\213.y\011q?B"
 354      A6F96B21 
 354      DD308510 
 354      59D88B2E 
 354      7909713F 
 355 0102 0301983C 		.ascii	"\003\001\230<!\314\315\261\256\026\273E\033\217\274"
 355      21CCCDB1 
ARM GAS  C:\Users\Thomas\AppData\Local\Temp\ccBIIPWR.s 			page 27


 355      AE16BB45 
 355      1B8FBC
 356 0111 4E17AD49 		.ascii	"N\027\255IZ\236\244=\354\304\203IR\354C\327\300\276"
 356      5A9EA43D 
 356      ECC48349 
 356      52EC43D7 
 356      C0BE
 357 0123 A0482406 		.ascii	"\240H$\006\337\267x\217\0306\016q\246i\364\247\353 "
 357      DFB7788F 
 357      18360E71 
 357      A669F4A7 
 357      EB20
 358 0135 190D0501 		.ascii	"\031\015\005\001X\241\253\310\252\025\222f\246\361\010"
 358      58A1ABC8 
 358      AA159266 
 358      A6F108
 359 0144 E340FEF1 		.ascii	"\343@\376\361E\034\337\276\262\275\236/{\2101N\327\017"
 359      451CDFBE 
 359      B2BD9E2F 
 359      7B88314E 
 359      D70F
 360 0156 74785751 		.ascii	"txWQ\232c\314\277\365\010Mv\275\2642=cSGJ\304V\333\332"
 360      9A63CCBF 
 360      F5084D76 
 360      BDB4323D 
 360      6353474A 
 361 016e 446607DE 		.ascii	"Df\007\336\362\230dT\032\366\223\310\001)\022\037c\007"
 361      F2986454 
 361      1AF693C8 
 361      0129121F 
 361      6307
 362 0180 E9800879 		.ascii	"\351\200\010yOa\360y\254Wv\373>\214\207\366\362C\312"
 362      4F61F079 
 362      AC5776FB 
 362      3E8C87F6 
 362      F243CA
 363 0193 B3B9EE37 		.ascii	"\263\271\3567\365\232%\316\327\224*\356\311\177\304"
 363      F59A25CE 
 363      D7942AEE 
 363      C97FC4
 364 01a2 3D558E4C 		.ascii	"=U\216L\207'|*>N\337\007\351*b\016\306\032\035)\206"
 364      87277C2A 
 364      3E4EDF07 
 364      E92A620E 
 364      C61A1D29 
 365 01b7 0687DB0F 		.ascii	"\006\207\333\017H\274\2623\312\360_\273\245\0118D3\005"
 365      48BCB233 
 365      CAF05FBB 
 365      A5093844 
 365      3305
 366 01c9 F88CFCEE 		.ascii	"\370\214\374\356S\314\315\315C\235\016\305\374\033\001"
 366      53CCCDCD 
 366      439D0EC5 
 366      FC1B01
 367 01d8 9F5BD459 		.ascii	"\237[\324Y\022@\037'_\215\370\365\334\373T\035\366\367"
 367      12401F27 
 367      5F8DF8F5 
ARM GAS  C:\Users\Thomas\AppData\Local\Temp\ccBIIPWR.s 			page 28


 367      DCFB541D 
 367      F6F7
 368 01ea 854ED908 		.ascii	"\205N\331\010\225\354\353\005\346\252FB\330\240\320"
 368      95ECEB05 
 368      E6AA4642 
 368      D8A0D0
 369 01f9 31260B3A 		.ascii	"1&\013:g\257\365\263\332\237\302+\010k\213\322\034\310"
 369      67AFF5B3 
 369      DA9FC22B 
 369      086B8BD2 
 369      1CC8
 370 020b FBF025D6 		.ascii	"\373\360%\326R\034{\024\265\012\203\320\360\021\315"
 370      521C7B14 
 370      B50A83D0 
 370      F011CD
 371 021a 4F0DD121 		.ascii	"O\015\321!\247e\274\361\367T\352\244rxgj\"L\227q\251"
 371      A765BCF1 
 371      F754EAA4 
 371      7278676A 
 371      224C9771 
 372 022f 98E637EC 		.ascii	"\230\3467\354\026Z#\364L\340\336%\011\266\267\354J\311"
 372      165A23F4 
 372      4CE0DE25 
 372      09B6B7EC 
 372      4AC9
 373 0241 AE525A0D 		.ascii	"\256RZ\015\334]\342\311\224\322q\204R\032U)\371eJ\212"
 373      DC5DE2C9 
 373      94D27184 
 373      521A5529 
 373      F9654A8A 
 374 0255 F0CBC609 		.ascii	"\360\313\306\011\213POI\325\023\314N\3155 +\250{qR\215"
 374      8B504F49 
 374      D513CC4E 
 374      CD35202B 
 374      A87B7152 
 375 026a 6AAF54A0 		.ascii	"j\257T\240\303g\364\004c\213l\207\001\344\204!\365J"
 375      C367F404 
 375      638B6C87 
 375      01E48421 
 375      F54A
 376 027c 63B63FAF 		.ascii	"c\266?\257\350\254\373\242\273\262\244\332]V\\XQSY\352"
 376      E8ACFBA2 
 376      BBB2A4DA 
 376      5D565C58 
 376      515359EA 
 377 0290 2E2A28AC 		.ascii	".*(\2548}\274\250\340Xq~^)\030\225\356\252\232\013\325"
 377      387DBCA8 
 377      E058717E 
 377      5E291895 
 377      EEAA9A0B 
 378 02a5 46F9F9F2 		.ascii	"F\371\371\362\212se\177\000(kHh"
 378      8A73657F 
 378      00286B48 
 378      68
 379              		.text
 380              		.section	.gnu.lto_.symbol_nodes.bb5cdf8e,"",%progbits
 381 0000 789C55CF 		.ascii	"x\234U\317\261\015\3020\024\004\320\263\177\034;\211"
ARM GAS  C:\Users\Thomas\AppData\Local\Temp\ccBIIPWR.s 			page 29


 381      B10DC230 
 381      1404D0B3 
 381      7F1C3B89 
 382 0010 93929609 		.ascii	"\223\222\226\011`\305\213\322\320\262\000\210D\254A"
 382      60C58BD2 
 382      D0B20088 
 382      44AC41
 383 001f 13513303 		.ascii	"\023Q3\003\364\210\021\020FI\341\377\233\323\323]\363"
 383      F4881110 
 383      4649E1FF 
 383      9BD3D35D 
 383      F3
 384 0030 05C0DE60 		.ascii	"\005\300\336`9\333\0218>\000\322\234\246\000\353iV\343"
 384      39DB1138 
 384      3E00D29C 
 384      A600EB69 
 384      56E3
 385 0042 7C49165A 		.ascii	"|I\026ZeGQ\266,\224\015]n\007\214\226\260%K5+\350\225"
 385      654751B6 
 385      2C940D5D 
 385      6E078C96 
 385      B0254B35 
 386 0059 038372C5 		.ascii	"\003\203r\305J\271f\255\334\260\311mZ\306\305\350\373"
 386      4AB966AD 
 386      DCB0C96D 
 386      5AC6C5E8 
 386      FB
 387 006a C4C836A3 		.ascii	"\304\3106\243\244o\207q#\322\341\372\374\032\221\026"
 387      A46F8771 
 387      23D2E1FA 
 387      FC1A9116 
 388 007a F757CA42 		.ascii	"\367W\312B0\374\323\011\346\303{+~\355\375\332\007\277"
 388      30FCD309 
 388      E6C37B2B 
 388      7EEDFDDA 
 388      07BF
 389 008c F411986E 		.ascii	"\364\021\230n\237\035~\340<P7"
 389      9F1D7EE0 
 389      3C5037
 390              		.text
 391              		.section	.gnu.lto_.refs.bb5cdf8e,"",%progbits
 392 0000 789C6366 		.ascii	"x\234cf``\340d\200\000&V\0066FF6.\006\000\001z\000,"
 392      6060E064 
 392      80002656 
 392      06364646 
 392      362E0600 
 393              		.text
 394              		.section	.gnu.lto_.decls.bb5cdf8e,"",%progbits
 395 0000 789C9D55 		.ascii	"x\234\235UiLTW\024~w\356\200\314\002\330&\305\3264\351"
 395      694C5457 
 395      147E77EE 
 395      80CC02D8 
 395      26C5D634 
 396 0015 18139326 		.ascii	"\030\023\223&\206\250M\215\376\252)uk\272\030I\355\017"
 396      86A84D8D 
 396      FEAA2975 
 396      6BBA1849 
ARM GAS  C:\Users\Thomas\AppData\Local\Temp\ccBIIPWR.s 			page 30


 396      ED0F
 397 0027 4D0CE28B 		.ascii	"M\014\342\213\235\204\014\006\307\244\376\352U0\"j\235"
 397      9D840C06 
 397      C7A4FEEA 
 397      5530226A 
 397      9D
 398 0038 6A95A545 		.ascii	"j\225\245EQ\304\015\301\321\012\210\2142\254\202\270"
 398      51C40DC1 
 398      D10A888C 
 398      32AC82B8 
 399 0048 A0525CA6 		.ascii	"\240R\\\246\312&\312&\035\201\241\210\313\364\334\345"
 399      CA26CA26 
 399      1D81A188 
 399      CBF4DCE5 
 400 0058 39EF4D41 		.ascii	"9\357MAMorf\336}\357\234\357;\333=\027K\222t\024K\222"
 400      4D6F7266 
 400      DE7DEF9C 
 400      EF3BDB3D 
 400      174B9274 
 401 006f 1F96C328 		.ascii	"\037\226\303(I?!I\012\207wK@\340Q\212\222\370\212\000"
 401      493F2149 
 401      0A87774B 
 401      40E0518A 
 401      92F88A00 
 402 0083 39055204 		.ascii	"9\005R\004r\026\344\034\210\013\344\002\210\033\244"
 402      7216E41C 
 402      880BE402 
 402      881BA4
 403 0092 12A416A4 		.ascii	"\022\244\026\244\036\244\011\344\026\310\035\020\217"
 403      1EA409E4 
 403      16C81D10 
 403      8F
 404 009f C0B92F69 		.ascii	"\300\271/i\027\305\232\000\222/8\026\201t\200\264\201"
 404      17C59A00 
 404      922F3816 
 404      817480B4 
 404      81
 405 00b0 7C29F8E9 		.ascii	"|)\370\351\322\251x\301M\351\001H'\310\303 <\372]\257"
 405      D2A978C1 
 405      4DE90148 
 405      27C8C320 
 405      3CFA5DAF 
 406 00c4 C27B0472 		.ascii	"\302{\004rR\205Q$p\250/]A\2664\236\020\301\031%0\024"
 406      52855124 
 406      70A82F5D 
 406      41B6349E 
 406      10C11925 
 407 00da 5F14FBB3 		.ascii	"_\024\373\263\"\276\340E\363`\020\266\012w7\310E\025"
 407      22BEE045 
 407      F36010B6 
 407      0A7737C8 
 407      4515
 408 00ec 460F48B5 		.ascii	"F\017H\265\320\307\302\306#\362\023\274hNCU\276(\030"
 408      D0C7C2C6 
 408      23F213BC 
 408      684E4355 
 408      BE2818
ARM GAS  C:\Users\Thomas\AppData\Local\Temp\ccBIIPWR.s 			page 31


 409 00ff BD20C52A 		.ascii	"\275 \305*\177\\\002'x\321z\204\251\354\373\202\342"
 409      7F5C0227 
 409      78D17A84 
 409      A9ECFB82 
 409      E2
 410 0110 51E38408 		.ascii	"Q\343\204\010}%6\005s\254z\271\377G\234\356\327\304"
 410      7D253605 
 410      73AC7AB9 
 410      FF479CEE 
 410      D7C4
 411 0122 59F99671 		.ascii	"Y\371\226qV\012\234\340U+\005j\246\370\243\256\031\222"
 411      560A9CE0 
 411      552B056A 
 411      A6F8A3AE 
 411      1992
 412 0134 C6AE17ED 		.ascii	"\306\256\027\355O\375kl\352\307\260iR\371J\317\201\031"
 412      4FFD6B6C 
 412      EAC7B069 
 412      52F94ACF 
 412      8119
 413 0146 A411E409 		.ascii	"\244\021\344\011\210We\3334\206\355-\241\257\266\243"
 413      885765DB 
 413      3486ED2D 
 413      A1AFB6A3 
 414 0156 DC16C13F 		.ascii	"\334\026\301?\0102 \005\372\325\0072$l\261\260Wz7x="
 414      08322005 
 414      FAD50732 
 414      246CB1B0 
 414      577A3778 
 415 016b D1A1E6F2 		.ascii	"\321\241\346\362-[\302\260\016\321\347\334\214\266&"
 415      2D5BC2B0 
 415      0ED1E7DC 
 415      8CB626
 416 017a E3F4E384 		.ascii	"\343\364\343\204\220T\342v\243\200\322\306\303e\333"
 416      9054E276 
 416      A380D2C6 
 416      C365DB
 417 0189 2774E950 		.ascii	"'t\351P\224\221m\177n\310\252\300l\353\247v\272;w~}"
 417      94916D7F 
 417      6EC8AAC0 
 417      6CEBA776 
 417      BA3B777E 
 418 019e 8A91715A 		.ascii	"\212\221qZ*!\233\210w\027\301\357Kh\372d\364\361d\011"
 418      2A219B88 
 418      7717C1EF 
 418      4B68FA64 
 418      F4F16409 
 419 01b2 9D40D340 		.ascii	"\235@\323@\015\035E\323%t\014MF\307\321d\351\020\020"
 419      0D1D45D3 
 419      25740C4D 
 419      46C7D164 
 419      E91010
 420 01c5 78F737DD 		.ascii	"x\3677\335\375\220\020=\312GFt\004a\246\001I\240\014"
 420      FD90103D 
 420      CA474674 
 420      0461A601 
 420      49A00C
ARM GAS  C:\Users\Thomas\AppData\Local\Temp\ccBIIPWR.s 			page 32


 421 01d8 82B4B470 		.ascii	"\202\264\264p\350\212\011X\"\214\026\272=\267\253.#"
 421      E88A0958 
 421      228C16BA 
 421      3DB7AB2E 
 421      23
 422 01e9 14B666A3 		.ascii	"\024\266f\243\236n\267\2468\361\244=\200D\034\311d\""
 422      9E6EB7A6 
 422      38F1A43D 
 422      80441CC9 
 422      6422
 423 01fb C7290082 		.ascii	"\307)\000\202B \220\320I4\011~\227\3539\222\357F\326"
 423      422090D0 
 423      4934097E 
 423      97EB3992 
 423      EF46D6
 424 020e 3CFC090B 		.ascii	"<\374\011\013\261l\350\340\355P\313>\342vz\263;\312"
 424      B16CE8E0 
 424      ED50CB3E 
 424      E2767AB3 
 424      3BCA
 425 0220 E6663A72 		.ascii	"\346f:r6\221\227~?\":j\203\234\257<\221\3503/\314)d"
 425      3691977E 
 425      3F223A6A 
 425      839CAF3C 
 425      91E8332F 
 426 0237 014BC7E6 		.ascii	"\001K\307\346\012\207^\017\035\305\250\2263'\032k\267"
 426      0A875E0F 
 426      1DC5A896 
 426      33271A6B 
 426      B7
 427 0248 D6BEC68B 		.ascii	"\326\276\306\213?\230\027\247\221p\343E\262\313\206"
 427      3F9817A7 
 427      9170E345 
 427      B2CB86
 428 0257 6DCC8D13 		.ascii	"m\314\215\023\311\3755\324\215V'\311$9:\002\263\023"
 428      C9FD35D4 
 428      8D5627C9 
 428      24393A02 
 428      B313
 429 0269 3C007D74 		.ascii	"<\000}tF\345\301\031\305\203\"\346A\331\263\366&\275"
 429      46E5C119 
 429      C58322E6 
 429      41D9B3F6 
 429      26BD
 430 027b 9A6D4994 		.ascii	"\232mI\224\212\254X\023ry\327\276\347\341x#bl\276\264"
 430      8AAC5813 
 430      7279D7BE 
 430      E7E17823 
 430      626CBEB4 
 431 028f 97174218 		.ascii	"\227\027B\030[\353\371*\331\235B\236\373\375\311a\314"
 431      5BEBF92A 
 431      D99D429E 
 431      FBFDC961 
 431      CC
 432 02a0 0495A8F8 		.ascii	"\004\225\250\370J\024\276\263\214o\324Q\220\202\361"
 432      4A14BEB3 
 432      8C6FD451 
ARM GAS  C:\Users\Thomas\AppData\Local\Temp\ccBIIPWR.s 			page 33


 432      9082F1
 433 02af 368E5154 		.ascii	"6\216QT\325[\202\031F\316\316\274\320:\342\366\373?"
 433      D55B8219 
 433      46CECEBC 
 433      D03AE2F6 
 433      FB3F
 434 02c1 6300A52A 		.ascii	"c\000\245*\200R\005\340\034\0038T\234>\027gq\373\354"
 434      805205E0 
 434      1C033854 
 434      9C3E1767 
 434      71FBEC
 435 02d4 9D9D7D26 		.ascii	"\235\235}&n\277#\227\333\227\023\304\020\312T\010e\012"
 435      6EBF2397 
 435      DB9713C4 
 435      10CA5408 
 435      650A
 436 02e6 828B215C 		.ascii	"\202\213!\\\032z\220\255\307\2079\304\336\007\305E:"
 436      1A7A90AD 
 436      C78739C4 
 436      DE07C545 
 436      3A
 437 02f7 80C871E6 		.ascii	"\200\310q\346xN\223y,\014\314\020\316\253\020\316+\010"
 437      784E9379 
 437      2C0CCC10 
 437      CEAB10CE 
 437      2B08
 438 0309 1718C2C8 		.ascii	"\027\030\302\310?\243\207\015\370\024G\310\313;\272"
 438      3FA3870D 
 438      F81447C8 
 438      CB3BBA
 439 0318 9BA73DA7 		.ascii	"\233\247=\247\\\023D\271\012\240\\\001p3\200\372\206"
 439      5C1344B9 
 439      0AA05C01 
 439      703380FA 
 439      86
 440 0329 D1AA105C 		.ascii	"\321\252\020\\\301\001.\0276>\015\343.t\347\252\001"
 440      C1012E17 
 440      363E0DE3 
 440      2E74E7AA 
 440      01
 441 033a 2A540015 		.ascii	"*T\000\025\012@\345\270\215\343\363\267\345\351\306"
 441      0A40E5B8 
 441      8DE3F3B7 
 441      E5E9C6
 442 0349 2D65352B 		.ascii	"-e5+e\225\3227\233S\207\313L\270\201{PWwu\000\211<\036"
 442      6595D237 
 442      9B5387CB 
 442      4CB8817B 
 442      50577775 
 443 0361 0BE4114C 		.ascii	"\013\344\021LP\215\312\207\032\305\207Z\346\303\353"
 443      508DCA87 
 443      1AC5875A 
 443      E6C3EB
 444 0370 4FCB454D 		.ascii	"O\313EM\353\224\016^\314\327a\017\247\313\310m\364\233"
 444      EB940E5E 
 444      CCD7610F 
 444      A7CBC86D 
ARM GAS  C:\Users\Thomas\AppData\Local\Temp\ccBIIPWR.s 			page 34


 444      F49B
 445 0382 59C0ADE7 		.ascii	"Y\300\255\347\272E\353`f\201\352Ttu\012]=\243kh\037"
 445      BA45EB60 
 445      6681EA54 
 445      74750A5D 
 445      3DA36B68 
 446 0397 1934B3A3 		.ascii	"\0314\263\243;\221\202d\335\352\034\302\354\350\352"
 446      3B918264 
 446      DDEA1CC2 
 446      ECE8EA
 447 03a6 582B0CF4 		.ascii	"X+\014\364\273\014\3701'PF\213\205\217\226\364\336\221"
 447      BB0CF831 
 447      2750468B 
 447      858F96F4 
 447      DE91
 448 03b8 33616C4B 		.ascii	"3alKy`\266<\353(<\022\212\246\031\371\320h\346C\243"
 448      7960B63C 
 448      EB283C12 
 448      8AA619F9 
 448      D068E643 
 449 03cd 11DCBF1C 		.ascii	"\021\334\277\034\030\032\02614\330\374!\311$\344h\204"
 449      181A1631 
 449      34D8FC21 
 449      C924E468 
 449      84
 450 03de 842E4178 		.ascii	"\204.Ax\015\020\036\272\006#\310\"F\320\025xy\025^\002"
 450      0D101EBA 
 450      0623C822 
 450      46D01578 
 450      79155E02 
 451 03f2 93EB504F 		.ascii	"\223\353PO\277\211\225\245\361UYZ\212\206K\214\343\226"
 451      BF8995A5 
 451      F155595A 
 451      8A864B8C 
 451      E396
 452 0404 E5064BD3 		.ascii	"\345\006K\323u\245,{\317n\363a<\304\303H~^_\023\311"
 452      75A52C7B 
 452      CF6EF361 
 452      3CC4C348 
 452      7E5E5F13 
 453 0419 F2E4CDAE 		.ascii	"\362\344\315\256*\231\005\207\232\317\025f\205n\252"
 453      2A990587 
 453      9ACF1566 
 453      856EAA
 454 0428 52755349 		.ascii	"RuSIU\023K\325\323\315WZ4\245i\324\224\346OMi\012\266"
 454      55134BD5 
 454      D3CD575A 
 454      34A569D4 
 454      94E64F4D 
 455 043f 799E99F1 		.ascii	"y\236\231\361\026>\255\207G[:\371qh\335\271\243\326"
 455      163EAD87 
 455      475B3AF9 
 455      7168DDB9 
 455      A3D6
 456 0451 4C783732 		.ascii	"Lx72\023\324\254\"lV\010o1\302\276\202SN\023\316\024"
 456      13D4AC22 
 456      6C56086F 
ARM GAS  C:\Users\Thomas\AppData\Local\Temp\ccBIIPWR.s 			page 35


 456      31C2BE82 
 456      534E13CE 
 457 0466 13DFE1F2 		.ascii	"\023\337\341\362\260\003A\274-\365\376\031\231\344\200"
 457      B00341BC 
 457      2DF5FE19 
 457      99E480
 458 0475 E2366DA8 		.ascii	"\3426m\250\333*\224\333\012\312\035\206r\255g8\323\210"
 458      DB2A94DB 
 458      0ACA1D86 
 458      72AD6738 
 458      D388
 459 0487 AF739496 		.ascii	"\257s\224\226\374\274\004\006\322\372\242C\256T\367"
 459      FCBC0406 
 459      D2FAA243 
 459      AE54F7
 460 0496 C85D15C2 		.ascii	"\310]\025\302]\005\301\303\020\216\324\264\344F\322"
 460      5D05C1C3 
 460      108ED4B4 
 460      E446D2
 461 04a5 AEA0082F 		.ascii	"\256\240\010/=\316\022:\334\241/Y\240\243{\\\243\372"
 461      3DCE123A 
 461      DCA12F59 
 461      A0A37B5C 
 461      A3FA
 462 04b7 A90748CE 		.ascii	"\251\007H\316Agv\307%\023\311 \244\325\357\377\210\365"
 462      416776C7 
 462      2513C920 
 462      A4D5EFFF 
 462      88F5
 463 04c9 ED5F1C53 		.ascii	"\355_\034S\3340\022\335\303\357=Z\352\373h*\030\223"
 463      DC3012DD 
 463      C3EF3D5A 
 463      EAFB682A 
 463      1893
 464 04db F46D87C2 		.ascii	"\364m\207\302\260\217#\027\015\247\225\206\033Si[\274"
 464      B08F2317 
 464      0DA79586 
 464      1B53695B 
 464      BC
 465 04ec F966827E 		.ascii	"\371f\202~k\272\232\326l\340wY\260E\373\270w\331H\307"
 465      6BBA9AD6 
 465      6CE07759 
 465      B045FBB8 
 465      77D948C7 
 466 0500 A214320F 		.ascii	"\242\0242\017\265\201w-\201\266lE\201\313lk{\326\025"
 466      B581772D 
 466      81B66C45 
 466      81CB6C6B 
 466      7BD615
 467 0513 B3398D36 		.ascii	"\2639\2156(\224\331P\027\301\224\003u\356@f\226\033"
 467      2894D950 
 467      17C19403 
 467      75EE4066 
 467      961B
 468 0525 F807EDFE 		.ascii	"\370\007\355\376#>\0226e?\275\210\335\237C\023\262;"
 468      233E1236 
 468      653FBD88 
ARM GAS  C:\Users\Thomas\AppData\Local\Temp\ccBIIPWR.s 			page 36


 468      DD9F4313 
 468      B23B
 469 0537 8827EF01 		.ascii	"\210'\357\001\232\002\012\373\367\273\234\341L\301\233"
 469      9A020AFB 
 469      F7BB9CE1 
 469      4CC19B
 470 0546 9D3C60DD 		.ascii	"\235<`\335\030\254\325\311\264\236V{\256s\230\234\313"
 470      18ACD5C9 
 470      B49E567B 
 470      AE73989C 
 470      CB
 471 0557 5B4808D2 		.ascii	"[H\010\322\352<d:#\007\332\036Fj\034\243\367`\300\261"
 471      EA3C643A 
 471      2307DA1E 
 471      466A1CA3 
 471      F760C0B1 
 472 056b 47C2B147 		.ascii	"G\302\261G\3141\347\313\314}F\215cE\012\\\3278p\027"
 472      CC31E7CB 
 472      CC7D468D 
 472      63450A5C 
 472      D7387017 
 473 057f 3570DD02 		.ascii	"5p\335\002\256\233\3019v\375v\301\240\321\256\326h\367"
 473      AE9BC139 
 473      76FD76C1 
 473      A0D1AED6 
 473      68F7
 474 0591 08ED1EA6 		.ascii	"\010\355\036\246}?\303\235\246\327h\027k\264{\221YI"
 474      7D3FC39D 
 474      A6D76817 
 474      6BB47B91 
 474      5949
 475 05a3 7D2F3348 		.ascii	"}/3H\337\347}\246\205\327\316\275>\001\337\307\264K"
 475      DFE77DA6 
 475      85D7CEBD 
 475      3E01DFC7 
 475      B44B
 476 05b5 AF7AEE63 		.ascii	"\257z\356c<\312\333\306\233\272\243W\317\333\346-\007"
 476      3CCADBC6 
 476      9BBAA357 
 476      CFDBE62D 
 476      07
 477 05c6 8A2EBDE0 		.ascii	"\212.\275\340\036\334u\312\244\032\345-\341\005\302"
 477      1EDC75CA 
 477      A41AE52D 
 477      E105C2
 478 05d5 C78196E8 		.ascii	"\307\201\226\350G\201Q5\006\362\337c\217\252\274_j\261"
 478      47815135 
 478      06F2DF63 
 478      8FAABC5F 
 478      6AB1
 479 05e7 260CAF26 		.ascii	"&\014\257&\214'\"\214',\214\355]\276\\\223\342y\352"
 479      8C27228C 
 479      272C8CED 
 479      5DBE5C93 
 479      E279EA
 480 05fa 5BE11FAB 		.ascii	"[\341\037\253,\375\335\244!\030\320\020\014\012\202"
 480      2CFDDDA4 
ARM GAS  C:\Users\Thomas\AppData\Local\Temp\ccBIIPWR.s 			page 37


 480      2118D010 
 480      0C0A82
 481 0609 4146D0E6 		.ascii	"AF\320\346\250u\031\224\023\225\372\206\363\001\372"
 481      A8751994 
 481      1395FA86 
 481      F301FA
 482 0618 1519BB8F 		.ascii	"\025\031\273\217\207k\320\2074\350>\201N\377C\326[m"
 482      876BD087 
 482      34E83E81 
 482      4EFF43D6 
 482      5B6D
 483 062a F639A10B 		.ascii	"\3669\241\013\277\371\316\022#M\215^\261P\266\311Iq"
 483      BFF9CE12 
 483      234D8D5E 
 483      B150B6C9 
 483      4971
 484 063c 7679F5CA 		.ascii	"vy\365\312\330\304\365I\361\362\212%\261\2111\237\256"
 484      D8C4F549 
 484      F1F28A25 
 484      B189319F 
 484      AE
 485 064d 88DF60DF 		.ascii	"\210\337`\337\260V^\027\375\203\364\301\222\231+g\255"
 485      B0565E17 
 485      FD83F4C1 
 485      92992B67 
 485      AD
 486 065e 5C28DB17 		.ascii	"\\(\333\027,^\360m\254=\316\276~]\364\332\270${\364"
 486      2C5EF06D 
 486      AC3DCEBE 
 486      7E5DF4DA 
 486      B8247BF4 
 487 0672 0CCBB8D6 		.ascii	"\014\313\270\326\324$:^z\367\277\246\006\366j\261\315"
 487      D4243A5E 
 487      7AF7BFA6 
 487      06F66AB1 
 487      CD
 488 0683 6A8F604F 		.ascii	"j\217`O\363mq\253\022\344\3056\273I\2655\262g0H\262"
 488      F36D71AB 
 488      12E4C536 
 488      BB49B535 
 488      B2673048 
 489 0698 47B2C72F 		.ascii	"G\262\307/\254\353\204\232A|J\\\313\277\304\312vx\373"
 489      ACEB849A 
 489      417C4A5C 
 489      CBBFC4CA 
 489      7678FB
 490 06ab 75E26AF9 		.ascii	"u\342j\371\035\205\014\366\234+\224\206:s6\367\342\373"
 490      1D850CF6 
 490      9C2B9486 
 490      3A7336F7 
 490      E2FB
 491 06bd 24AB5D5E 		.ascii	"$\253]^*\257Y\026\227\260^\350.\225\343V+o\336\213\331"
 491      2AAF5916 
 491      97B05EE8 
 491      2E95E356 
 491      2B6FDE8B 
 492 06d2 30FF47AB 		.ascii	"0\377G\253=\006\264\254\361q\011\261r\274\335\232h\233"
ARM GAS  C:\Users\Thomas\AppData\Local\Temp\ccBIIPWR.s 			page 38


 492      3D06B4AC 
 492      F17109B1 
 492      72BCDD9A 
 492      689B
 493 06e4 326E8431 		.ascii	"2n\2041\033\276\262\256\202\354D\201\235\315.'\005\031"
 493      1BBEB2AE 
 493      82EC4481 
 493      9DCD2E27 
 493      0519
 494 06f6 9A198115 		.ascii	"\232\031\201\025\302\\\026\227\244O\222\327\314\011"
 494      C25C1697 
 494      A44F92D7 
 494      CC09
 495 0704 819F99B3 		.ascii	"\201\237\231\263\377\005\367\242'\250"
 495      FF05F7A2 
 495      27A8
 496              		.text
 497              		.section	.gnu.lto_.symtab.bb5cdf8e,"",%progbits
 498 0000 50315F32 		.ascii	"P1_2_GetFIFOStatus\000\000\000\000\000\000\000\000\000"
 498      5F476574 
 498      4649464F 
 498      53746174 
 498      75730000 
 499 001b 000000B5 		.ascii	"\000\000\000\265\000\000\000P1_2_Init\000\000\000\000"
 499      00000050 
 499      315F325F 
 499      496E6974 
 499      00000000 
 500 002f 00000000 		.ascii	"\000\000\000\000\000\000\000\000\270\000\000\000P1_"
 500      00000000 
 500      B8000000 
 500      50315F
 501 003e 325F456E 		.ascii	"2_EnableInt\000\000\000\000\000\000\000\000\000\000"
 501      61626C65 
 501      496E7400 
 501      00000000 
 501      00000000 
 502 0053 0000BA00 		.ascii	"\000\000\272\000\000\000P1_2_Enable\000\000\000\000"
 502      00005031 
 502      5F325F45 
 502      6E61626C 
 502      65000000 
 503 0068 00000000 		.ascii	"\000\000\000\000\000\000\000\000\274\000\000\000P1_"
 503      00000000 
 503      BC000000 
 503      50315F
 504 0077 325F5374 		.ascii	"2_Start\000\000\000\000\000\000\000\000\000\000\000"
 504      61727400 
 504      00000000 
 504      00000000 
 504      0000
 505 0089 00BE0000 		.ascii	"\000\276\000\000\000P1_2_initVar\000\000\000\000\000"
 505      0050315F 
 505      325F696E 
 505      69745661 
 505      72000000 
 506 009f 00000000 		.ascii	"\000\000\000\000\000\000\000\336\000\000\000P1_2_Di"
ARM GAS  C:\Users\Thomas\AppData\Local\Temp\ccBIIPWR.s 			page 39


 506      000000DE 
 506      00000050 
 506      315F325F 
 506      4469
 507 00b1 7361626C 		.ascii	"sableInt\000\000\000\000\000\000\000\000\000\000\000"
 507      65496E74 
 507      00000000 
 507      00000000 
 507      000000
 508 00c4 00C00000 		.ascii	"\000\300\000\000\000P1_2_Stop\000\000\000\000\000\000"
 508      0050315F 
 508      325F5374 
 508      6F700000 
 508      00000000 
 509 00d8 00000000 		.ascii	"\000\000\000\000\000\000\302\000\000\000P1_2_SetInt"
 509      0000C200 
 509      00005031 
 509      5F325F53 
 509      6574496E 
 510 00ed 4D6F6465 		.ascii	"Mode\000\000\000\000\000\000\000\000\000\000\000\000"
 510      00000000 
 510      00000000 
 510      00000000 
 511 00fd C6000000 		.ascii	"\306\000\000\000P1_2_GetIntStatus\000\000\000\000\000"
 511      50315F32 
 511      5F476574 
 511      496E7453 
 511      74617475 
 512 0117 00000000 		.ascii	"\000\000\000\000\000\000\000\311\000\000\000P1_2_Wr"
 512      000000C9 
 512      00000050 
 512      315F325F 
 512      5772
 513 0129 69746552 		.ascii	"iteRegValue\000\000\000\000\000\000\000\000\000\000"
 513      65675661 
 513      6C756500 
 513      00000000 
 513      00000000 
 514 013e 0000D400 		.ascii	"\000\000\324\000\000\000P1_2_ReadRegValue\000\000\000"
 514      00005031 
 514      5F325F52 
 514      65616452 
 514      65675661 
 515 0158 00000000 		.ascii	"\000\000\000\000\000\000\000\000\000\327\000\000\000"
 515      00000000 
 515      00D70000 
 515      00
 516 0165 43794578 		.ascii	"CyExitCriticalSection\000\000\002\000\000\000\000\000"
 516      69744372 
 516      69746963 
 516      616C5365 
 516      6374696F 
 517 0182 00000000 		.ascii	"\000\000\000\000\331\000\000\000CyEnterCriticalSect"
 517      D9000000 
 517      4379456E 
 517      74657243 
 517      72697469 
ARM GAS  C:\Users\Thomas\AppData\Local\Temp\ccBIIPWR.s 			page 40


 518 019d 696F6E00 		.ascii	"ion\000\000\002\000\000\000\000\000\000\000\000\000"
 518      00020000 
 518      00000000 
 518      000000
 519 01ac DB000000 		.ascii	"\333\000\000\000"
 520              		.text
 521              		.section	.gnu.lto_.opts,"",%progbits
 522 0000 272D666E 		.ascii	"'-fno-trapv' '-mcpu=cortex-m3' '-mthumb' '-g' '-O3'"
 522      6F2D7472 
 522      61707627 
 522      20272D6D 
 522      6370753D 
 523 0033 20272D66 		.ascii	" '-ffunction-sections' '-finline-functions' '-flto'"
 523      66756E63 
 523      74696F6E 
 523      2D736563 
 523      74696F6E 
 524 0066 20272D66 		.ascii	" '-ffat-lto-objects'\000"
 524      6661742D 
 524      6C746F2D 
 524      6F626A65 
 524      63747327 
 525              		.text
 526              		.cfi_sections	.debug_frame
 527              		.section	.text.P1_2_Start,"ax",%progbits
 528              		.align	2
 529              		.global	P1_2_Start
 530              		.thumb
 531              		.thumb_func
 532              		.type	P1_2_Start, %function
 533              	P1_2_Start:
 534              	.LFB0:
 535              		.file 1 ".\\Generated_Source\\PSoC5\\P1_2.c"
   1:.\Generated_Source\PSoC5/P1_2.c **** /*******************************************************************************
   2:.\Generated_Source\PSoC5/P1_2.c **** * File Name: P1_2.c
   3:.\Generated_Source\PSoC5/P1_2.c **** * Version 2.30
   4:.\Generated_Source\PSoC5/P1_2.c **** *
   5:.\Generated_Source\PSoC5/P1_2.c **** * Description:
   6:.\Generated_Source\PSoC5/P1_2.c **** *  This file provides the API source code for the Shift Register component.
   7:.\Generated_Source\PSoC5/P1_2.c **** *
   8:.\Generated_Source\PSoC5/P1_2.c **** * Note: none
   9:.\Generated_Source\PSoC5/P1_2.c **** *
  10:.\Generated_Source\PSoC5/P1_2.c **** ********************************************************************************
  11:.\Generated_Source\PSoC5/P1_2.c **** * Copyright 2008-2013, Cypress Semiconductor Corporation.  All rights reserved.
  12:.\Generated_Source\PSoC5/P1_2.c **** * You may use this file only in accordance with the license, terms, conditions,
  13:.\Generated_Source\PSoC5/P1_2.c **** * disclaimers, and limitations in the end user license agreement accompanying
  14:.\Generated_Source\PSoC5/P1_2.c **** * the software package with which this file was provided.
  15:.\Generated_Source\PSoC5/P1_2.c **** ********************************************************************************/
  16:.\Generated_Source\PSoC5/P1_2.c **** 
  17:.\Generated_Source\PSoC5/P1_2.c **** #include "P1_2.h"
  18:.\Generated_Source\PSoC5/P1_2.c **** 
  19:.\Generated_Source\PSoC5/P1_2.c **** uint8 P1_2_initVar = 0u;
  20:.\Generated_Source\PSoC5/P1_2.c **** 
  21:.\Generated_Source\PSoC5/P1_2.c **** 
  22:.\Generated_Source\PSoC5/P1_2.c **** /*******************************************************************************
  23:.\Generated_Source\PSoC5/P1_2.c **** * Function Name: P1_2_Start
  24:.\Generated_Source\PSoC5/P1_2.c **** ********************************************************************************
ARM GAS  C:\Users\Thomas\AppData\Local\Temp\ccBIIPWR.s 			page 41


  25:.\Generated_Source\PSoC5/P1_2.c **** *
  26:.\Generated_Source\PSoC5/P1_2.c **** * Summary:
  27:.\Generated_Source\PSoC5/P1_2.c **** *  Starts the Shift Register.
  28:.\Generated_Source\PSoC5/P1_2.c **** *
  29:.\Generated_Source\PSoC5/P1_2.c **** * Parameters:
  30:.\Generated_Source\PSoC5/P1_2.c **** *  None.
  31:.\Generated_Source\PSoC5/P1_2.c **** *
  32:.\Generated_Source\PSoC5/P1_2.c **** * Return:
  33:.\Generated_Source\PSoC5/P1_2.c **** *  None.
  34:.\Generated_Source\PSoC5/P1_2.c **** *
  35:.\Generated_Source\PSoC5/P1_2.c **** * Global Variables:
  36:.\Generated_Source\PSoC5/P1_2.c **** *  P1_2_initVar - used to check initial configuration, modified on
  37:.\Generated_Source\PSoC5/P1_2.c **** *  first function call.
  38:.\Generated_Source\PSoC5/P1_2.c **** *
  39:.\Generated_Source\PSoC5/P1_2.c **** * Reentrant:
  40:.\Generated_Source\PSoC5/P1_2.c **** *  No.
  41:.\Generated_Source\PSoC5/P1_2.c **** *
  42:.\Generated_Source\PSoC5/P1_2.c **** *******************************************************************************/
  43:.\Generated_Source\PSoC5/P1_2.c **** void P1_2_Start(void) 
  44:.\Generated_Source\PSoC5/P1_2.c **** {
 536              		.loc 1 44 0
 537              		.cfi_startproc
 538              		@ args = 0, pretend = 0, frame = 0
 539              		@ frame_needed = 0, uses_anonymous_args = 0
 540 0000 08B5     		push	{r3, lr}
 541              		.cfi_def_cfa_offset 8
 542              		.cfi_offset 3, -8
 543              		.cfi_offset 14, -4
  45:.\Generated_Source\PSoC5/P1_2.c ****     if(0u == P1_2_initVar)
 544              		.loc 1 45 0
 545 0002 0E4A     		ldr	r2, .L5
 546 0004 1378     		ldrb	r3, [r2]	@ zero_extendqisi2
 547 0006 4BB9     		cbnz	r3, .L2
 548              	.LVL0:
 549              	.LBB19:
 550              	.LBB20:
 551              	.LBB21:
  46:.\Generated_Source\PSoC5/P1_2.c ****     {
  47:.\Generated_Source\PSoC5/P1_2.c ****         P1_2_Init();
  48:.\Generated_Source\PSoC5/P1_2.c ****         P1_2_initVar = 1u; /* Component initialized */
  49:.\Generated_Source\PSoC5/P1_2.c ****     }
  50:.\Generated_Source\PSoC5/P1_2.c **** 
  51:.\Generated_Source\PSoC5/P1_2.c ****     P1_2_Enable();
  52:.\Generated_Source\PSoC5/P1_2.c **** }
  53:.\Generated_Source\PSoC5/P1_2.c **** 
  54:.\Generated_Source\PSoC5/P1_2.c **** 
  55:.\Generated_Source\PSoC5/P1_2.c **** /*******************************************************************************
  56:.\Generated_Source\PSoC5/P1_2.c **** * Function Name: P1_2_Enable
  57:.\Generated_Source\PSoC5/P1_2.c **** ********************************************************************************
  58:.\Generated_Source\PSoC5/P1_2.c **** *
  59:.\Generated_Source\PSoC5/P1_2.c **** * Summary:
  60:.\Generated_Source\PSoC5/P1_2.c **** *  Enables the Shift Register.
  61:.\Generated_Source\PSoC5/P1_2.c **** *
  62:.\Generated_Source\PSoC5/P1_2.c **** * Parameters:
  63:.\Generated_Source\PSoC5/P1_2.c **** *  void.
  64:.\Generated_Source\PSoC5/P1_2.c **** *
  65:.\Generated_Source\PSoC5/P1_2.c **** * Return:
ARM GAS  C:\Users\Thomas\AppData\Local\Temp\ccBIIPWR.s 			page 42


  66:.\Generated_Source\PSoC5/P1_2.c **** *  void.
  67:.\Generated_Source\PSoC5/P1_2.c **** *
  68:.\Generated_Source\PSoC5/P1_2.c **** *******************************************************************************/
  69:.\Generated_Source\PSoC5/P1_2.c **** void P1_2_Enable(void) 
  70:.\Generated_Source\PSoC5/P1_2.c **** {
  71:.\Generated_Source\PSoC5/P1_2.c ****     /* Changing address in Datapath Control Store
  72:.\Generated_Source\PSoC5/P1_2.c ****        from NOP to component state machine commands space */
  73:.\Generated_Source\PSoC5/P1_2.c ****     P1_2_SR_CONTROL |= P1_2_CLK_EN;
  74:.\Generated_Source\PSoC5/P1_2.c **** 
  75:.\Generated_Source\PSoC5/P1_2.c ****     P1_2_EnableInt();
  76:.\Generated_Source\PSoC5/P1_2.c **** }
  77:.\Generated_Source\PSoC5/P1_2.c **** 
  78:.\Generated_Source\PSoC5/P1_2.c **** 
  79:.\Generated_Source\PSoC5/P1_2.c **** /*******************************************************************************
  80:.\Generated_Source\PSoC5/P1_2.c **** * Function Name: P1_2_Init
  81:.\Generated_Source\PSoC5/P1_2.c **** ********************************************************************************
  82:.\Generated_Source\PSoC5/P1_2.c **** *
  83:.\Generated_Source\PSoC5/P1_2.c **** * Summary:
  84:.\Generated_Source\PSoC5/P1_2.c **** *  Initializes Tx and/or Rx interrupt sources with initial values.
  85:.\Generated_Source\PSoC5/P1_2.c **** *
  86:.\Generated_Source\PSoC5/P1_2.c **** * Parameters:
  87:.\Generated_Source\PSoC5/P1_2.c **** *  void.
  88:.\Generated_Source\PSoC5/P1_2.c **** *
  89:.\Generated_Source\PSoC5/P1_2.c **** * Return:
  90:.\Generated_Source\PSoC5/P1_2.c **** *  void.
  91:.\Generated_Source\PSoC5/P1_2.c **** *
  92:.\Generated_Source\PSoC5/P1_2.c **** *******************************************************************************/
  93:.\Generated_Source\PSoC5/P1_2.c **** void P1_2_Init(void) 
  94:.\Generated_Source\PSoC5/P1_2.c **** {
  95:.\Generated_Source\PSoC5/P1_2.c ****     P1_2_SetIntMode(P1_2_INT_SRC);
  96:.\Generated_Source\PSoC5/P1_2.c **** }
  97:.\Generated_Source\PSoC5/P1_2.c **** 
  98:.\Generated_Source\PSoC5/P1_2.c **** 
  99:.\Generated_Source\PSoC5/P1_2.c **** /*******************************************************************************
 100:.\Generated_Source\PSoC5/P1_2.c **** * Function Name: P1_2_Stop
 101:.\Generated_Source\PSoC5/P1_2.c **** ********************************************************************************
 102:.\Generated_Source\PSoC5/P1_2.c **** *
 103:.\Generated_Source\PSoC5/P1_2.c **** * Summary:
 104:.\Generated_Source\PSoC5/P1_2.c **** *  Disables the Shift Register
 105:.\Generated_Source\PSoC5/P1_2.c **** *
 106:.\Generated_Source\PSoC5/P1_2.c **** * Parameters:
 107:.\Generated_Source\PSoC5/P1_2.c **** *  None.
 108:.\Generated_Source\PSoC5/P1_2.c **** *
 109:.\Generated_Source\PSoC5/P1_2.c **** * Return:
 110:.\Generated_Source\PSoC5/P1_2.c **** *  None.
 111:.\Generated_Source\PSoC5/P1_2.c **** *
 112:.\Generated_Source\PSoC5/P1_2.c **** *******************************************************************************/
 113:.\Generated_Source\PSoC5/P1_2.c **** void P1_2_Stop(void) 
 114:.\Generated_Source\PSoC5/P1_2.c **** {
 115:.\Generated_Source\PSoC5/P1_2.c ****     /*changing Datapath Control Store address to NOP space*/
 116:.\Generated_Source\PSoC5/P1_2.c ****     P1_2_SR_CONTROL &= ((uint8) ~P1_2_CLK_EN);
 117:.\Generated_Source\PSoC5/P1_2.c ****     P1_2_DisableInt();
 118:.\Generated_Source\PSoC5/P1_2.c **** }
 119:.\Generated_Source\PSoC5/P1_2.c **** 
 120:.\Generated_Source\PSoC5/P1_2.c **** 
 121:.\Generated_Source\PSoC5/P1_2.c **** /*******************************************************************************
 122:.\Generated_Source\PSoC5/P1_2.c **** * Function Name: P1_2_EnableInt
ARM GAS  C:\Users\Thomas\AppData\Local\Temp\ccBIIPWR.s 			page 43


 123:.\Generated_Source\PSoC5/P1_2.c **** ********************************************************************************
 124:.\Generated_Source\PSoC5/P1_2.c **** *
 125:.\Generated_Source\PSoC5/P1_2.c **** * Summary:
 126:.\Generated_Source\PSoC5/P1_2.c **** *  Enables the Shift Register interrupt.
 127:.\Generated_Source\PSoC5/P1_2.c **** *
 128:.\Generated_Source\PSoC5/P1_2.c **** * Parameters:
 129:.\Generated_Source\PSoC5/P1_2.c **** *  None.
 130:.\Generated_Source\PSoC5/P1_2.c **** *
 131:.\Generated_Source\PSoC5/P1_2.c **** * Return:
 132:.\Generated_Source\PSoC5/P1_2.c **** *  None.
 133:.\Generated_Source\PSoC5/P1_2.c **** *
 134:.\Generated_Source\PSoC5/P1_2.c **** *******************************************************************************/
 135:.\Generated_Source\PSoC5/P1_2.c **** void P1_2_EnableInt(void) 
 136:.\Generated_Source\PSoC5/P1_2.c **** {
 137:.\Generated_Source\PSoC5/P1_2.c ****     uint8 interruptState;
 138:.\Generated_Source\PSoC5/P1_2.c **** 
 139:.\Generated_Source\PSoC5/P1_2.c ****     interruptState = CyEnterCriticalSection();
 140:.\Generated_Source\PSoC5/P1_2.c ****     P1_2_SR_AUX_CONTROL |= P1_2_INTERRUPTS_ENABLE;
 141:.\Generated_Source\PSoC5/P1_2.c ****     CyExitCriticalSection(interruptState);
 142:.\Generated_Source\PSoC5/P1_2.c **** }
 143:.\Generated_Source\PSoC5/P1_2.c **** 
 144:.\Generated_Source\PSoC5/P1_2.c **** 
 145:.\Generated_Source\PSoC5/P1_2.c **** /*******************************************************************************
 146:.\Generated_Source\PSoC5/P1_2.c **** * Function Name: P1_2_DisableInt
 147:.\Generated_Source\PSoC5/P1_2.c **** ********************************************************************************
 148:.\Generated_Source\PSoC5/P1_2.c **** *
 149:.\Generated_Source\PSoC5/P1_2.c **** * Summary:
 150:.\Generated_Source\PSoC5/P1_2.c **** *  Disables the Shift Register interrupt.
 151:.\Generated_Source\PSoC5/P1_2.c **** *
 152:.\Generated_Source\PSoC5/P1_2.c **** * Parameters:
 153:.\Generated_Source\PSoC5/P1_2.c **** *  None.
 154:.\Generated_Source\PSoC5/P1_2.c **** *
 155:.\Generated_Source\PSoC5/P1_2.c **** * Return:
 156:.\Generated_Source\PSoC5/P1_2.c **** *  None.
 157:.\Generated_Source\PSoC5/P1_2.c **** *
 158:.\Generated_Source\PSoC5/P1_2.c **** *******************************************************************************/
 159:.\Generated_Source\PSoC5/P1_2.c **** void P1_2_DisableInt(void) 
 160:.\Generated_Source\PSoC5/P1_2.c **** {
 161:.\Generated_Source\PSoC5/P1_2.c ****     uint8 interruptState;
 162:.\Generated_Source\PSoC5/P1_2.c **** 
 163:.\Generated_Source\PSoC5/P1_2.c ****     interruptState = CyEnterCriticalSection();
 164:.\Generated_Source\PSoC5/P1_2.c ****     P1_2_SR_AUX_CONTROL &= ((uint8) ~P1_2_INTERRUPTS_ENABLE);
 165:.\Generated_Source\PSoC5/P1_2.c ****     CyExitCriticalSection(interruptState);
 166:.\Generated_Source\PSoC5/P1_2.c **** }
 167:.\Generated_Source\PSoC5/P1_2.c **** 
 168:.\Generated_Source\PSoC5/P1_2.c **** 
 169:.\Generated_Source\PSoC5/P1_2.c **** /*******************************************************************************
 170:.\Generated_Source\PSoC5/P1_2.c **** * Function Name: P1_2_GetFIFOStatus
 171:.\Generated_Source\PSoC5/P1_2.c **** ********************************************************************************
 172:.\Generated_Source\PSoC5/P1_2.c **** *
 173:.\Generated_Source\PSoC5/P1_2.c **** * Summary:
 174:.\Generated_Source\PSoC5/P1_2.c **** *  Returns current status of input or output FIFO.
 175:.\Generated_Source\PSoC5/P1_2.c **** *
 176:.\Generated_Source\PSoC5/P1_2.c **** * Parameters:
 177:.\Generated_Source\PSoC5/P1_2.c **** *  fifoId.
 178:.\Generated_Source\PSoC5/P1_2.c **** *
 179:.\Generated_Source\PSoC5/P1_2.c **** * Return:
ARM GAS  C:\Users\Thomas\AppData\Local\Temp\ccBIIPWR.s 			page 44


 180:.\Generated_Source\PSoC5/P1_2.c **** *  FIFO status.
 181:.\Generated_Source\PSoC5/P1_2.c **** *
 182:.\Generated_Source\PSoC5/P1_2.c **** *******************************************************************************/
 183:.\Generated_Source\PSoC5/P1_2.c **** uint8 P1_2_GetFIFOStatus(uint8 fifoId) 
 184:.\Generated_Source\PSoC5/P1_2.c **** {
 185:.\Generated_Source\PSoC5/P1_2.c ****     uint8 result;
 186:.\Generated_Source\PSoC5/P1_2.c **** 
 187:.\Generated_Source\PSoC5/P1_2.c ****     result = P1_2_RET_FIFO_NOT_DEFINED;
 188:.\Generated_Source\PSoC5/P1_2.c **** 
 189:.\Generated_Source\PSoC5/P1_2.c ****     #if(0u != P1_2_USE_INPUT_FIFO)
 190:.\Generated_Source\PSoC5/P1_2.c ****         if(P1_2_IN_FIFO == fifoId)
 191:.\Generated_Source\PSoC5/P1_2.c ****         {
 192:.\Generated_Source\PSoC5/P1_2.c ****             switch(P1_2_GET_IN_FIFO_STS)
 193:.\Generated_Source\PSoC5/P1_2.c ****             {
 194:.\Generated_Source\PSoC5/P1_2.c ****                 case P1_2_IN_FIFO_FULL :
 195:.\Generated_Source\PSoC5/P1_2.c ****                     result = P1_2_RET_FIFO_FULL;
 196:.\Generated_Source\PSoC5/P1_2.c ****                     break;
 197:.\Generated_Source\PSoC5/P1_2.c **** 
 198:.\Generated_Source\PSoC5/P1_2.c ****                 case P1_2_IN_FIFO_EMPTY :
 199:.\Generated_Source\PSoC5/P1_2.c ****                     result = P1_2_RET_FIFO_EMPTY;
 200:.\Generated_Source\PSoC5/P1_2.c ****                     break;
 201:.\Generated_Source\PSoC5/P1_2.c **** 
 202:.\Generated_Source\PSoC5/P1_2.c ****                 case P1_2_IN_FIFO_PARTIAL:
 203:.\Generated_Source\PSoC5/P1_2.c ****                     result = P1_2_RET_FIFO_PARTIAL;
 204:.\Generated_Source\PSoC5/P1_2.c ****                     break;
 205:.\Generated_Source\PSoC5/P1_2.c ****                     
 206:.\Generated_Source\PSoC5/P1_2.c ****                 default:
 207:.\Generated_Source\PSoC5/P1_2.c ****                     /* Initial result value, while 
 208:.\Generated_Source\PSoC5/P1_2.c ****                        IN_FIFO_EMPTY case is false 
 209:.\Generated_Source\PSoC5/P1_2.c ****                      */
 210:.\Generated_Source\PSoC5/P1_2.c ****                     result = P1_2_RET_FIFO_EMPTY;
 211:.\Generated_Source\PSoC5/P1_2.c ****                     break;
 212:.\Generated_Source\PSoC5/P1_2.c ****             }   
 213:.\Generated_Source\PSoC5/P1_2.c ****         }
 214:.\Generated_Source\PSoC5/P1_2.c ****     #endif /* (0u != P1_2_USE_INPUT_FIFO) */
 215:.\Generated_Source\PSoC5/P1_2.c **** 
 216:.\Generated_Source\PSoC5/P1_2.c ****     if(P1_2_OUT_FIFO == fifoId)
 217:.\Generated_Source\PSoC5/P1_2.c ****     {
 218:.\Generated_Source\PSoC5/P1_2.c ****         switch(P1_2_GET_OUT_FIFO_STS)
 219:.\Generated_Source\PSoC5/P1_2.c ****         {
 220:.\Generated_Source\PSoC5/P1_2.c ****             case P1_2_OUT_FIFO_FULL :
 221:.\Generated_Source\PSoC5/P1_2.c ****                 result = P1_2_RET_FIFO_FULL;
 222:.\Generated_Source\PSoC5/P1_2.c ****                 break;
 223:.\Generated_Source\PSoC5/P1_2.c **** 
 224:.\Generated_Source\PSoC5/P1_2.c ****             case P1_2_OUT_FIFO_EMPTY :
 225:.\Generated_Source\PSoC5/P1_2.c ****                 result = P1_2_RET_FIFO_EMPTY;
 226:.\Generated_Source\PSoC5/P1_2.c ****                 break;
 227:.\Generated_Source\PSoC5/P1_2.c **** 
 228:.\Generated_Source\PSoC5/P1_2.c ****             case P1_2_OUT_FIFO_PARTIAL :
 229:.\Generated_Source\PSoC5/P1_2.c ****                 result = P1_2_RET_FIFO_PARTIAL;
 230:.\Generated_Source\PSoC5/P1_2.c ****                 break;
 231:.\Generated_Source\PSoC5/P1_2.c **** 
 232:.\Generated_Source\PSoC5/P1_2.c ****             default:
 233:.\Generated_Source\PSoC5/P1_2.c ****                 /* Initial result value, while 
 234:.\Generated_Source\PSoC5/P1_2.c ****                    OUT_FIFO_FULL case is false 
 235:.\Generated_Source\PSoC5/P1_2.c ****                  */
 236:.\Generated_Source\PSoC5/P1_2.c ****                 result = P1_2_RET_FIFO_FULL;
ARM GAS  C:\Users\Thomas\AppData\Local\Temp\ccBIIPWR.s 			page 45


 237:.\Generated_Source\PSoC5/P1_2.c ****                 break;
 238:.\Generated_Source\PSoC5/P1_2.c ****         }
 239:.\Generated_Source\PSoC5/P1_2.c ****     }
 240:.\Generated_Source\PSoC5/P1_2.c **** 
 241:.\Generated_Source\PSoC5/P1_2.c ****     return(result);
 242:.\Generated_Source\PSoC5/P1_2.c **** }
 243:.\Generated_Source\PSoC5/P1_2.c **** 
 244:.\Generated_Source\PSoC5/P1_2.c **** 
 245:.\Generated_Source\PSoC5/P1_2.c **** /*******************************************************************************
 246:.\Generated_Source\PSoC5/P1_2.c **** * Function Name: P1_2_SetIntMode
 247:.\Generated_Source\PSoC5/P1_2.c **** ********************************************************************************
 248:.\Generated_Source\PSoC5/P1_2.c **** *
 249:.\Generated_Source\PSoC5/P1_2.c **** * Summary:
 250:.\Generated_Source\PSoC5/P1_2.c **** *  Sets the Interrupt Source for the Shift Register interrupt. Multiple
 251:.\Generated_Source\PSoC5/P1_2.c **** *  sources may be ORed together
 252:.\Generated_Source\PSoC5/P1_2.c **** *
 253:.\Generated_Source\PSoC5/P1_2.c **** * Parameters:
 254:.\Generated_Source\PSoC5/P1_2.c **** *  interruptSource: Byte containing the constant for the selected interrupt
 255:.\Generated_Source\PSoC5/P1_2.c **** *  source/s.
 256:.\Generated_Source\PSoC5/P1_2.c **** *
 257:.\Generated_Source\PSoC5/P1_2.c **** * Return:
 258:.\Generated_Source\PSoC5/P1_2.c **** *  None.
 259:.\Generated_Source\PSoC5/P1_2.c **** *
 260:.\Generated_Source\PSoC5/P1_2.c **** *******************************************************************************/
 261:.\Generated_Source\PSoC5/P1_2.c **** void P1_2_SetIntMode(uint8 interruptSource) 
 262:.\Generated_Source\PSoC5/P1_2.c **** {
 263:.\Generated_Source\PSoC5/P1_2.c ****     P1_2_SR_STATUS_MASK &= ((uint8) ~P1_2_INTS_EN_MASK);          /* Clear existing int */
 552              		.loc 1 263 0
 553 0008 0D4B     		ldr	r3, .L5+4
 554              	.LBE21:
 555              	.LBE20:
 556              	.LBE19:
  48:.\Generated_Source\PSoC5/P1_2.c ****     }
 557              		.loc 1 48 0
 558 000a 0120     		movs	r0, #1
 559              	.LBB24:
 560              	.LBB23:
 561              	.LBB22:
 562              		.loc 1 263 0
 563 000c 1978     		ldrb	r1, [r3]	@ zero_extendqisi2
 564 000e 01F0F801 		and	r1, r1, #248
 565 0012 1970     		strb	r1, [r3]
 264:.\Generated_Source\PSoC5/P1_2.c ****     P1_2_SR_STATUS_MASK |= (interruptSource & P1_2_INTS_EN_MASK); /* Set int */
 566              		.loc 1 264 0
 567 0014 1978     		ldrb	r1, [r3]	@ zero_extendqisi2
 568 0016 0143     		orrs	r1, r1, r0
 569 0018 1970     		strb	r1, [r3]
 570              	.LBE22:
 571              	.LBE23:
 572              	.LBE24:
  48:.\Generated_Source\PSoC5/P1_2.c ****     }
 573              		.loc 1 48 0
 574 001a 1070     		strb	r0, [r2]
 575              	.LVL1:
 576              	.L2:
 577              	.LBB25:
 578              	.LBB26:
ARM GAS  C:\Users\Thomas\AppData\Local\Temp\ccBIIPWR.s 			page 46


  73:.\Generated_Source\PSoC5/P1_2.c **** 
 579              		.loc 1 73 0
 580 001c 094A     		ldr	r2, .L5+8
 581 001e 1378     		ldrb	r3, [r2]	@ zero_extendqisi2
 582 0020 43F00103 		orr	r3, r3, #1
 583 0024 1370     		strb	r3, [r2]
 584              	.LBB27:
 585              	.LBB28:
 139:.\Generated_Source\PSoC5/P1_2.c ****     P1_2_SR_AUX_CONTROL |= P1_2_INTERRUPTS_ENABLE;
 586              		.loc 1 139 0
 587 0026 FFF7FEFF 		bl	CyEnterCriticalSection
 588              	.LVL2:
 140:.\Generated_Source\PSoC5/P1_2.c ****     CyExitCriticalSection(interruptState);
 589              		.loc 1 140 0
 590 002a 074A     		ldr	r2, .L5+12
 591 002c 1378     		ldrb	r3, [r2]	@ zero_extendqisi2
 592 002e 43F01003 		orr	r3, r3, #16
 593 0032 1370     		strb	r3, [r2]
 594              	.LBE28:
 595              	.LBE27:
 596              	.LBE26:
 597              	.LBE25:
  52:.\Generated_Source\PSoC5/P1_2.c **** 
 598              		.loc 1 52 0
 599 0034 BDE80840 		pop	{r3, lr}
 600              		.cfi_restore 14
 601              		.cfi_restore 3
 602              		.cfi_def_cfa_offset 0
 603              	.LBB32:
 604              	.LBB31:
 605              	.LBB30:
 606              	.LBB29:
 141:.\Generated_Source\PSoC5/P1_2.c **** }
 607              		.loc 1 141 0
 608 0038 FFF7FEBF 		b	CyExitCriticalSection
 609              	.LVL3:
 610              	.L6:
 611              		.align	2
 612              	.L5:
 613 003c 00000000 		.word	.LANCHOR0
 614 0040 87650040 		.word	1073767815
 615 0044 77650040 		.word	1073767799
 616 0048 97650040 		.word	1073767831
 617              	.LBE29:
 618              	.LBE30:
 619              	.LBE31:
 620              	.LBE32:
 621              		.cfi_endproc
 622              	.LFE0:
 623              		.size	P1_2_Start, .-P1_2_Start
 624              		.section	.text.P1_2_Enable,"ax",%progbits
 625              		.align	2
 626              		.global	P1_2_Enable
 627              		.thumb
 628              		.thumb_func
 629              		.type	P1_2_Enable, %function
 630              	P1_2_Enable:
ARM GAS  C:\Users\Thomas\AppData\Local\Temp\ccBIIPWR.s 			page 47


 631              	.LFB1:
  70:.\Generated_Source\PSoC5/P1_2.c ****     /* Changing address in Datapath Control Store
 632              		.loc 1 70 0
 633              		.cfi_startproc
 634              		@ args = 0, pretend = 0, frame = 0
 635              		@ frame_needed = 0, uses_anonymous_args = 0
 636 0000 08B5     		push	{r3, lr}
 637              		.cfi_def_cfa_offset 8
 638              		.cfi_offset 3, -8
 639              		.cfi_offset 14, -4
  73:.\Generated_Source\PSoC5/P1_2.c **** 
 640              		.loc 1 73 0
 641 0002 084A     		ldr	r2, .L9
 642 0004 1378     		ldrb	r3, [r2]	@ zero_extendqisi2
 643 0006 43F00103 		orr	r3, r3, #1
 644 000a 1370     		strb	r3, [r2]
 645              	.LBB35:
 646              	.LBB36:
 139:.\Generated_Source\PSoC5/P1_2.c ****     P1_2_SR_AUX_CONTROL |= P1_2_INTERRUPTS_ENABLE;
 647              		.loc 1 139 0
 648 000c FFF7FEFF 		bl	CyEnterCriticalSection
 649              	.LVL4:
 140:.\Generated_Source\PSoC5/P1_2.c ****     CyExitCriticalSection(interruptState);
 650              		.loc 1 140 0
 651 0010 054A     		ldr	r2, .L9+4
 652 0012 1378     		ldrb	r3, [r2]	@ zero_extendqisi2
 653 0014 43F01003 		orr	r3, r3, #16
 654 0018 1370     		strb	r3, [r2]
 655              	.LBE36:
 656              	.LBE35:
  76:.\Generated_Source\PSoC5/P1_2.c **** 
 657              		.loc 1 76 0
 658 001a BDE80840 		pop	{r3, lr}
 659              		.cfi_restore 14
 660              		.cfi_restore 3
 661              		.cfi_def_cfa_offset 0
 662              	.LBB38:
 663              	.LBB37:
 141:.\Generated_Source\PSoC5/P1_2.c **** }
 664              		.loc 1 141 0
 665 001e FFF7FEBF 		b	CyExitCriticalSection
 666              	.LVL5:
 667              	.L10:
 668 0022 00BF     		.align	2
 669              	.L9:
 670 0024 77650040 		.word	1073767799
 671 0028 97650040 		.word	1073767831
 672              	.LBE37:
 673              	.LBE38:
 674              		.cfi_endproc
 675              	.LFE1:
 676              		.size	P1_2_Enable, .-P1_2_Enable
 677              		.section	.text.P1_2_Init,"ax",%progbits
 678              		.align	2
 679              		.global	P1_2_Init
 680              		.thumb
 681              		.thumb_func
ARM GAS  C:\Users\Thomas\AppData\Local\Temp\ccBIIPWR.s 			page 48


 682              		.type	P1_2_Init, %function
 683              	P1_2_Init:
 684              	.LFB2:
  94:.\Generated_Source\PSoC5/P1_2.c ****     P1_2_SetIntMode(P1_2_INT_SRC);
 685              		.loc 1 94 0
 686              		.cfi_startproc
 687              		@ args = 0, pretend = 0, frame = 0
 688              		@ frame_needed = 0, uses_anonymous_args = 0
 689              		@ link register save eliminated.
 690              	.LVL6:
 691              	.LBB39:
 692              	.LBB40:
 263:.\Generated_Source\PSoC5/P1_2.c ****     P1_2_SR_STATUS_MASK |= (interruptSource & P1_2_INTS_EN_MASK); /* Set int */
 693              		.loc 1 263 0
 694 0000 044B     		ldr	r3, .L12
 695 0002 1A78     		ldrb	r2, [r3]	@ zero_extendqisi2
 696 0004 02F0F802 		and	r2, r2, #248
 697 0008 1A70     		strb	r2, [r3]
 698              		.loc 1 264 0
 699 000a 1A78     		ldrb	r2, [r3]	@ zero_extendqisi2
 700 000c 42F00102 		orr	r2, r2, #1
 701 0010 1A70     		strb	r2, [r3]
 702 0012 7047     		bx	lr
 703              	.L13:
 704              		.align	2
 705              	.L12:
 706 0014 87650040 		.word	1073767815
 707              	.LBE40:
 708              	.LBE39:
 709              		.cfi_endproc
 710              	.LFE2:
 711              		.size	P1_2_Init, .-P1_2_Init
 712              		.section	.text.P1_2_Stop,"ax",%progbits
 713              		.align	2
 714              		.global	P1_2_Stop
 715              		.thumb
 716              		.thumb_func
 717              		.type	P1_2_Stop, %function
 718              	P1_2_Stop:
 719              	.LFB3:
 114:.\Generated_Source\PSoC5/P1_2.c ****     /*changing Datapath Control Store address to NOP space*/
 720              		.loc 1 114 0
 721              		.cfi_startproc
 722              		@ args = 0, pretend = 0, frame = 0
 723              		@ frame_needed = 0, uses_anonymous_args = 0
 724 0000 08B5     		push	{r3, lr}
 725              		.cfi_def_cfa_offset 8
 726              		.cfi_offset 3, -8
 727              		.cfi_offset 14, -4
 116:.\Generated_Source\PSoC5/P1_2.c ****     P1_2_DisableInt();
 728              		.loc 1 116 0
 729 0002 084A     		ldr	r2, .L16
 730 0004 1378     		ldrb	r3, [r2]	@ zero_extendqisi2
 731 0006 03F0FE03 		and	r3, r3, #254
 732 000a 1370     		strb	r3, [r2]
 733              	.LBB43:
 734              	.LBB44:
ARM GAS  C:\Users\Thomas\AppData\Local\Temp\ccBIIPWR.s 			page 49


 163:.\Generated_Source\PSoC5/P1_2.c ****     P1_2_SR_AUX_CONTROL &= ((uint8) ~P1_2_INTERRUPTS_ENABLE);
 735              		.loc 1 163 0
 736 000c FFF7FEFF 		bl	CyEnterCriticalSection
 737              	.LVL7:
 164:.\Generated_Source\PSoC5/P1_2.c ****     CyExitCriticalSection(interruptState);
 738              		.loc 1 164 0
 739 0010 054A     		ldr	r2, .L16+4
 740 0012 1378     		ldrb	r3, [r2]	@ zero_extendqisi2
 741 0014 03F0EF03 		and	r3, r3, #239
 742 0018 1370     		strb	r3, [r2]
 743              	.LBE44:
 744              	.LBE43:
 118:.\Generated_Source\PSoC5/P1_2.c **** 
 745              		.loc 1 118 0
 746 001a BDE80840 		pop	{r3, lr}
 747              		.cfi_restore 14
 748              		.cfi_restore 3
 749              		.cfi_def_cfa_offset 0
 750              	.LBB46:
 751              	.LBB45:
 165:.\Generated_Source\PSoC5/P1_2.c **** }
 752              		.loc 1 165 0
 753 001e FFF7FEBF 		b	CyExitCriticalSection
 754              	.LVL8:
 755              	.L17:
 756 0022 00BF     		.align	2
 757              	.L16:
 758 0024 77650040 		.word	1073767799
 759 0028 97650040 		.word	1073767831
 760              	.LBE45:
 761              	.LBE46:
 762              		.cfi_endproc
 763              	.LFE3:
 764              		.size	P1_2_Stop, .-P1_2_Stop
 765              		.section	.text.P1_2_EnableInt,"ax",%progbits
 766              		.align	2
 767              		.global	P1_2_EnableInt
 768              		.thumb
 769              		.thumb_func
 770              		.type	P1_2_EnableInt, %function
 771              	P1_2_EnableInt:
 772              	.LFB4:
 136:.\Generated_Source\PSoC5/P1_2.c ****     uint8 interruptState;
 773              		.loc 1 136 0
 774              		.cfi_startproc
 775              		@ args = 0, pretend = 0, frame = 0
 776              		@ frame_needed = 0, uses_anonymous_args = 0
 777 0000 08B5     		push	{r3, lr}
 778              		.cfi_def_cfa_offset 8
 779              		.cfi_offset 3, -8
 780              		.cfi_offset 14, -4
 139:.\Generated_Source\PSoC5/P1_2.c ****     P1_2_SR_AUX_CONTROL |= P1_2_INTERRUPTS_ENABLE;
 781              		.loc 1 139 0
 782 0002 FFF7FEFF 		bl	CyEnterCriticalSection
 783              	.LVL9:
 140:.\Generated_Source\PSoC5/P1_2.c ****     CyExitCriticalSection(interruptState);
 784              		.loc 1 140 0
ARM GAS  C:\Users\Thomas\AppData\Local\Temp\ccBIIPWR.s 			page 50


 785 0006 044A     		ldr	r2, .L20
 786 0008 1378     		ldrb	r3, [r2]	@ zero_extendqisi2
 787 000a 43F01003 		orr	r3, r3, #16
 788 000e 1370     		strb	r3, [r2]
 142:.\Generated_Source\PSoC5/P1_2.c **** 
 789              		.loc 1 142 0
 790 0010 BDE80840 		pop	{r3, lr}
 791              		.cfi_restore 14
 792              		.cfi_restore 3
 793              		.cfi_def_cfa_offset 0
 141:.\Generated_Source\PSoC5/P1_2.c **** }
 794              		.loc 1 141 0
 795 0014 FFF7FEBF 		b	CyExitCriticalSection
 796              	.LVL10:
 797              	.L21:
 798              		.align	2
 799              	.L20:
 800 0018 97650040 		.word	1073767831
 801              		.cfi_endproc
 802              	.LFE4:
 803              		.size	P1_2_EnableInt, .-P1_2_EnableInt
 804              		.section	.text.P1_2_DisableInt,"ax",%progbits
 805              		.align	2
 806              		.global	P1_2_DisableInt
 807              		.thumb
 808              		.thumb_func
 809              		.type	P1_2_DisableInt, %function
 810              	P1_2_DisableInt:
 811              	.LFB5:
 160:.\Generated_Source\PSoC5/P1_2.c ****     uint8 interruptState;
 812              		.loc 1 160 0
 813              		.cfi_startproc
 814              		@ args = 0, pretend = 0, frame = 0
 815              		@ frame_needed = 0, uses_anonymous_args = 0
 816 0000 08B5     		push	{r3, lr}
 817              		.cfi_def_cfa_offset 8
 818              		.cfi_offset 3, -8
 819              		.cfi_offset 14, -4
 163:.\Generated_Source\PSoC5/P1_2.c ****     P1_2_SR_AUX_CONTROL &= ((uint8) ~P1_2_INTERRUPTS_ENABLE);
 820              		.loc 1 163 0
 821 0002 FFF7FEFF 		bl	CyEnterCriticalSection
 822              	.LVL11:
 164:.\Generated_Source\PSoC5/P1_2.c ****     CyExitCriticalSection(interruptState);
 823              		.loc 1 164 0
 824 0006 044A     		ldr	r2, .L24
 825 0008 1378     		ldrb	r3, [r2]	@ zero_extendqisi2
 826 000a 03F0EF03 		and	r3, r3, #239
 827 000e 1370     		strb	r3, [r2]
 166:.\Generated_Source\PSoC5/P1_2.c **** 
 828              		.loc 1 166 0
 829 0010 BDE80840 		pop	{r3, lr}
 830              		.cfi_restore 14
 831              		.cfi_restore 3
 832              		.cfi_def_cfa_offset 0
 165:.\Generated_Source\PSoC5/P1_2.c **** }
 833              		.loc 1 165 0
 834 0014 FFF7FEBF 		b	CyExitCriticalSection
ARM GAS  C:\Users\Thomas\AppData\Local\Temp\ccBIIPWR.s 			page 51


 835              	.LVL12:
 836              	.L25:
 837              		.align	2
 838              	.L24:
 839 0018 97650040 		.word	1073767831
 840              		.cfi_endproc
 841              	.LFE5:
 842              		.size	P1_2_DisableInt, .-P1_2_DisableInt
 843              		.section	.text.P1_2_GetFIFOStatus,"ax",%progbits
 844              		.align	2
 845              		.global	P1_2_GetFIFOStatus
 846              		.thumb
 847              		.thumb_func
 848              		.type	P1_2_GetFIFOStatus, %function
 849              	P1_2_GetFIFOStatus:
 850              	.LFB6:
 184:.\Generated_Source\PSoC5/P1_2.c ****     uint8 result;
 851              		.loc 1 184 0
 852              		.cfi_startproc
 853              		@ args = 0, pretend = 0, frame = 0
 854              		@ frame_needed = 0, uses_anonymous_args = 0
 855              		@ link register save eliminated.
 856              	.LVL13:
 216:.\Generated_Source\PSoC5/P1_2.c ****     {
 857              		.loc 1 216 0
 858 0000 0228     		cmp	r0, #2
 859 0002 01D0     		beq	.L32
 187:.\Generated_Source\PSoC5/P1_2.c **** 
 860              		.loc 1 187 0
 861 0004 FE20     		movs	r0, #254
 862              	.LVL14:
 863              	.L27:
 242:.\Generated_Source\PSoC5/P1_2.c **** 
 864              		.loc 1 242 0
 865 0006 7047     		bx	lr
 866              	.LVL15:
 867              	.L32:
 868              	.LBB49:
 869              	.LBB50:
 218:.\Generated_Source\PSoC5/P1_2.c ****         {
 870              		.loc 1 218 0
 871 0008 054B     		ldr	r3, .L33
 872 000a 1B78     		ldrb	r3, [r3]	@ zero_extendqisi2
 873 000c C3F34113 		ubfx	r3, r3, #5, #2
 874 0010 002B     		cmp	r3, #0
 875 0012 F8D0     		beq	.L27
 221:.\Generated_Source\PSoC5/P1_2.c ****                 break;
 876              		.loc 1 221 0
 877 0014 A3F10200 		sub	r0, r3, #2
 878              	.LVL16:
 879 0018 B0FA80F0 		clz	r0, r0
 880 001c 4009     		lsrs	r0, r0, #5
 881 001e 7047     		bx	lr
 882              	.L34:
 883              		.align	2
 884              	.L33:
 885 0020 67650040 		.word	1073767783
ARM GAS  C:\Users\Thomas\AppData\Local\Temp\ccBIIPWR.s 			page 52


 886              	.LBE50:
 887              	.LBE49:
 888              		.cfi_endproc
 889              	.LFE6:
 890              		.size	P1_2_GetFIFOStatus, .-P1_2_GetFIFOStatus
 891              		.section	.text.P1_2_SetIntMode,"ax",%progbits
 892              		.align	2
 893              		.global	P1_2_SetIntMode
 894              		.thumb
 895              		.thumb_func
 896              		.type	P1_2_SetIntMode, %function
 897              	P1_2_SetIntMode:
 898              	.LFB7:
 262:.\Generated_Source\PSoC5/P1_2.c ****     P1_2_SR_STATUS_MASK &= ((uint8) ~P1_2_INTS_EN_MASK);          /* Clear existing int */
 899              		.loc 1 262 0
 900              		.cfi_startproc
 901              		@ args = 0, pretend = 0, frame = 0
 902              		@ frame_needed = 0, uses_anonymous_args = 0
 903              		@ link register save eliminated.
 904              	.LVL17:
 263:.\Generated_Source\PSoC5/P1_2.c ****     P1_2_SR_STATUS_MASK |= (interruptSource & P1_2_INTS_EN_MASK); /* Set int */
 905              		.loc 1 263 0
 906 0000 054B     		ldr	r3, .L36
 907              		.loc 1 264 0
 908 0002 00F00700 		and	r0, r0, #7
 909              	.LVL18:
 263:.\Generated_Source\PSoC5/P1_2.c ****     P1_2_SR_STATUS_MASK |= (interruptSource & P1_2_INTS_EN_MASK); /* Set int */
 910              		.loc 1 263 0
 911 0006 1A78     		ldrb	r2, [r3]	@ zero_extendqisi2
 912 0008 02F0F802 		and	r2, r2, #248
 913 000c 1A70     		strb	r2, [r3]
 914              		.loc 1 264 0
 915 000e 1A78     		ldrb	r2, [r3]	@ zero_extendqisi2
 916 0010 1043     		orrs	r0, r0, r2
 917 0012 1870     		strb	r0, [r3]
 918 0014 7047     		bx	lr
 919              	.L37:
 920 0016 00BF     		.align	2
 921              	.L36:
 922 0018 87650040 		.word	1073767815
 923              		.cfi_endproc
 924              	.LFE7:
 925              		.size	P1_2_SetIntMode, .-P1_2_SetIntMode
 926              		.section	.text.P1_2_GetIntStatus,"ax",%progbits
 927              		.align	2
 928              		.global	P1_2_GetIntStatus
 929              		.thumb
 930              		.thumb_func
 931              		.type	P1_2_GetIntStatus, %function
 932              	P1_2_GetIntStatus:
 933              	.LFB8:
 265:.\Generated_Source\PSoC5/P1_2.c **** }
 266:.\Generated_Source\PSoC5/P1_2.c **** 
 267:.\Generated_Source\PSoC5/P1_2.c **** 
 268:.\Generated_Source\PSoC5/P1_2.c **** /*******************************************************************************
 269:.\Generated_Source\PSoC5/P1_2.c **** * Function Name: P1_2_GetIntStatus
 270:.\Generated_Source\PSoC5/P1_2.c **** ********************************************************************************
ARM GAS  C:\Users\Thomas\AppData\Local\Temp\ccBIIPWR.s 			page 53


 271:.\Generated_Source\PSoC5/P1_2.c **** *
 272:.\Generated_Source\PSoC5/P1_2.c **** * Summary:
 273:.\Generated_Source\PSoC5/P1_2.c **** *  Gets the Shift Register Interrupt status.
 274:.\Generated_Source\PSoC5/P1_2.c **** *
 275:.\Generated_Source\PSoC5/P1_2.c **** * Parameters:
 276:.\Generated_Source\PSoC5/P1_2.c **** *  None.
 277:.\Generated_Source\PSoC5/P1_2.c **** *
 278:.\Generated_Source\PSoC5/P1_2.c **** * Return:
 279:.\Generated_Source\PSoC5/P1_2.c **** *  Byte containing the constant for the selected interrupt source/s.
 280:.\Generated_Source\PSoC5/P1_2.c **** *
 281:.\Generated_Source\PSoC5/P1_2.c **** *******************************************************************************/
 282:.\Generated_Source\PSoC5/P1_2.c **** uint8 P1_2_GetIntStatus(void) 
 283:.\Generated_Source\PSoC5/P1_2.c **** {
 934              		.loc 1 283 0
 935              		.cfi_startproc
 936              		@ args = 0, pretend = 0, frame = 0
 937              		@ frame_needed = 0, uses_anonymous_args = 0
 938              		@ link register save eliminated.
 284:.\Generated_Source\PSoC5/P1_2.c ****     return(P1_2_SR_STATUS & P1_2_INTS_EN_MASK);
 939              		.loc 1 284 0
 940 0000 024B     		ldr	r3, .L39
 941 0002 1878     		ldrb	r0, [r3]	@ zero_extendqisi2
 285:.\Generated_Source\PSoC5/P1_2.c **** }
 942              		.loc 1 285 0
 943 0004 00F00700 		and	r0, r0, #7
 944 0008 7047     		bx	lr
 945              	.L40:
 946 000a 00BF     		.align	2
 947              	.L39:
 948 000c 67650040 		.word	1073767783
 949              		.cfi_endproc
 950              	.LFE8:
 951              		.size	P1_2_GetIntStatus, .-P1_2_GetIntStatus
 952              		.section	.text.P1_2_WriteRegValue,"ax",%progbits
 953              		.align	2
 954              		.global	P1_2_WriteRegValue
 955              		.thumb
 956              		.thumb_func
 957              		.type	P1_2_WriteRegValue, %function
 958              	P1_2_WriteRegValue:
 959              	.LFB9:
 286:.\Generated_Source\PSoC5/P1_2.c **** 
 287:.\Generated_Source\PSoC5/P1_2.c **** 
 288:.\Generated_Source\PSoC5/P1_2.c **** /*******************************************************************************
 289:.\Generated_Source\PSoC5/P1_2.c **** * Function Name: P1_2_WriteRegValue
 290:.\Generated_Source\PSoC5/P1_2.c **** ********************************************************************************
 291:.\Generated_Source\PSoC5/P1_2.c **** *
 292:.\Generated_Source\PSoC5/P1_2.c **** * Summary:
 293:.\Generated_Source\PSoC5/P1_2.c **** *  Send state directly to shift register
 294:.\Generated_Source\PSoC5/P1_2.c **** *
 295:.\Generated_Source\PSoC5/P1_2.c **** * Parameters:
 296:.\Generated_Source\PSoC5/P1_2.c **** *  shiftData: containing shift register state.
 297:.\Generated_Source\PSoC5/P1_2.c **** *
 298:.\Generated_Source\PSoC5/P1_2.c **** * Return:
 299:.\Generated_Source\PSoC5/P1_2.c **** *  None.
 300:.\Generated_Source\PSoC5/P1_2.c **** *
 301:.\Generated_Source\PSoC5/P1_2.c **** *******************************************************************************/
ARM GAS  C:\Users\Thomas\AppData\Local\Temp\ccBIIPWR.s 			page 54


 302:.\Generated_Source\PSoC5/P1_2.c **** void P1_2_WriteRegValue(uint16 shiftData)
 303:.\Generated_Source\PSoC5/P1_2.c ****                                                                      
 304:.\Generated_Source\PSoC5/P1_2.c **** {
 960              		.loc 1 304 0
 961              		.cfi_startproc
 962              		@ args = 0, pretend = 0, frame = 0
 963              		@ frame_needed = 0, uses_anonymous_args = 0
 964              		@ link register save eliminated.
 965              	.LVL19:
 305:.\Generated_Source\PSoC5/P1_2.c ****     CY_SET_REG16(P1_2_SHIFT_REG_LSB_PTR, shiftData);
 966              		.loc 1 305 0
 967 0000 014B     		ldr	r3, .L42
 968 0002 1880     		strh	r0, [r3]	@ movhi
 969 0004 7047     		bx	lr
 970              	.L43:
 971 0006 00BF     		.align	2
 972              	.L42:
 973 0008 06650040 		.word	1073767686
 974              		.cfi_endproc
 975              	.LFE9:
 976              		.size	P1_2_WriteRegValue, .-P1_2_WriteRegValue
 977              		.section	.text.P1_2_ReadRegValue,"ax",%progbits
 978              		.align	2
 979              		.global	P1_2_ReadRegValue
 980              		.thumb
 981              		.thumb_func
 982              		.type	P1_2_ReadRegValue, %function
 983              	P1_2_ReadRegValue:
 984              	.LFB10:
 306:.\Generated_Source\PSoC5/P1_2.c **** }
 307:.\Generated_Source\PSoC5/P1_2.c **** 
 308:.\Generated_Source\PSoC5/P1_2.c **** 
 309:.\Generated_Source\PSoC5/P1_2.c **** #if(0u != P1_2_USE_INPUT_FIFO)
 310:.\Generated_Source\PSoC5/P1_2.c ****     /*******************************************************************************
 311:.\Generated_Source\PSoC5/P1_2.c ****     * Function Name: P1_2_WriteData
 312:.\Generated_Source\PSoC5/P1_2.c ****     ********************************************************************************
 313:.\Generated_Source\PSoC5/P1_2.c ****     *
 314:.\Generated_Source\PSoC5/P1_2.c ****     * Summary:
 315:.\Generated_Source\PSoC5/P1_2.c ****     *  Send state to FIFO for later transfer to shift register based on the Load
 316:.\Generated_Source\PSoC5/P1_2.c ****     *  input
 317:.\Generated_Source\PSoC5/P1_2.c ****     *
 318:.\Generated_Source\PSoC5/P1_2.c ****     * Parameters:
 319:.\Generated_Source\PSoC5/P1_2.c ****     *  shiftData: containing shift register state.
 320:.\Generated_Source\PSoC5/P1_2.c ****     *
 321:.\Generated_Source\PSoC5/P1_2.c ****     * Return:
 322:.\Generated_Source\PSoC5/P1_2.c ****     *  Indicates: successful execution of function
 323:.\Generated_Source\PSoC5/P1_2.c ****     *  when FIFO is empty; and error when FIFO is full.
 324:.\Generated_Source\PSoC5/P1_2.c ****     *
 325:.\Generated_Source\PSoC5/P1_2.c ****     * Reentrant:
 326:.\Generated_Source\PSoC5/P1_2.c ****     *  No.
 327:.\Generated_Source\PSoC5/P1_2.c ****     *
 328:.\Generated_Source\PSoC5/P1_2.c ****     *******************************************************************************/
 329:.\Generated_Source\PSoC5/P1_2.c ****     cystatus P1_2_WriteData(uint16 shiftData)
 330:.\Generated_Source\PSoC5/P1_2.c ****                                                                          
 331:.\Generated_Source\PSoC5/P1_2.c ****     {
 332:.\Generated_Source\PSoC5/P1_2.c ****         cystatus result;
 333:.\Generated_Source\PSoC5/P1_2.c **** 
ARM GAS  C:\Users\Thomas\AppData\Local\Temp\ccBIIPWR.s 			page 55


 334:.\Generated_Source\PSoC5/P1_2.c ****         result = CYRET_INVALID_STATE;
 335:.\Generated_Source\PSoC5/P1_2.c **** 
 336:.\Generated_Source\PSoC5/P1_2.c ****         /* Writes data into the input FIFO if it is not FULL */
 337:.\Generated_Source\PSoC5/P1_2.c ****         if(P1_2_RET_FIFO_FULL != (P1_2_GetFIFOStatus(P1_2_IN_FIFO)))
 338:.\Generated_Source\PSoC5/P1_2.c ****         {
 339:.\Generated_Source\PSoC5/P1_2.c ****             CY_SET_REG16(P1_2_IN_FIFO_VAL_LSB_PTR, shiftData);
 340:.\Generated_Source\PSoC5/P1_2.c ****             result = CYRET_SUCCESS;
 341:.\Generated_Source\PSoC5/P1_2.c ****         }
 342:.\Generated_Source\PSoC5/P1_2.c **** 
 343:.\Generated_Source\PSoC5/P1_2.c ****         return(result);
 344:.\Generated_Source\PSoC5/P1_2.c ****     }
 345:.\Generated_Source\PSoC5/P1_2.c **** #endif /* (0u != P1_2_USE_INPUT_FIFO) */
 346:.\Generated_Source\PSoC5/P1_2.c **** 
 347:.\Generated_Source\PSoC5/P1_2.c **** 
 348:.\Generated_Source\PSoC5/P1_2.c **** #if(0u != P1_2_USE_OUTPUT_FIFO)
 349:.\Generated_Source\PSoC5/P1_2.c ****     /*******************************************************************************
 350:.\Generated_Source\PSoC5/P1_2.c ****     * Function Name: P1_2_ReadData
 351:.\Generated_Source\PSoC5/P1_2.c ****     ********************************************************************************
 352:.\Generated_Source\PSoC5/P1_2.c ****     *
 353:.\Generated_Source\PSoC5/P1_2.c ****     * Summary:
 354:.\Generated_Source\PSoC5/P1_2.c ****     *  Returns state in FIFO due to Store input.
 355:.\Generated_Source\PSoC5/P1_2.c ****     *
 356:.\Generated_Source\PSoC5/P1_2.c ****     * Parameters:
 357:.\Generated_Source\PSoC5/P1_2.c ****     *  None.
 358:.\Generated_Source\PSoC5/P1_2.c ****     *
 359:.\Generated_Source\PSoC5/P1_2.c ****     * Return:
 360:.\Generated_Source\PSoC5/P1_2.c ****     *  Shift Register state
 361:.\Generated_Source\PSoC5/P1_2.c ****     *
 362:.\Generated_Source\PSoC5/P1_2.c ****     * Reentrant:
 363:.\Generated_Source\PSoC5/P1_2.c ****     *  No.
 364:.\Generated_Source\PSoC5/P1_2.c ****     *
 365:.\Generated_Source\PSoC5/P1_2.c ****     *******************************************************************************/
 366:.\Generated_Source\PSoC5/P1_2.c ****     uint16 P1_2_ReadData(void) 
 367:.\Generated_Source\PSoC5/P1_2.c ****     {
 368:.\Generated_Source\PSoC5/P1_2.c ****         return(CY_GET_REG16(P1_2_OUT_FIFO_VAL_LSB_PTR));
 369:.\Generated_Source\PSoC5/P1_2.c ****     }
 370:.\Generated_Source\PSoC5/P1_2.c **** #endif /* (0u != P1_2_USE_OUTPUT_FIFO) */
 371:.\Generated_Source\PSoC5/P1_2.c **** 
 372:.\Generated_Source\PSoC5/P1_2.c **** 
 373:.\Generated_Source\PSoC5/P1_2.c **** /*******************************************************************************
 374:.\Generated_Source\PSoC5/P1_2.c **** * Function Name: P1_2_ReadRegValue
 375:.\Generated_Source\PSoC5/P1_2.c **** ********************************************************************************
 376:.\Generated_Source\PSoC5/P1_2.c **** *
 377:.\Generated_Source\PSoC5/P1_2.c **** * Summary:
 378:.\Generated_Source\PSoC5/P1_2.c **** *  Directly returns current state in shift register, not data in FIFO due
 379:.\Generated_Source\PSoC5/P1_2.c **** *  to Store input.
 380:.\Generated_Source\PSoC5/P1_2.c **** *
 381:.\Generated_Source\PSoC5/P1_2.c **** * Parameters:
 382:.\Generated_Source\PSoC5/P1_2.c **** *  None.
 383:.\Generated_Source\PSoC5/P1_2.c **** *
 384:.\Generated_Source\PSoC5/P1_2.c **** * Return:
 385:.\Generated_Source\PSoC5/P1_2.c **** *  Shift Register state. Clears output FIFO.
 386:.\Generated_Source\PSoC5/P1_2.c **** *
 387:.\Generated_Source\PSoC5/P1_2.c **** * Reentrant:
 388:.\Generated_Source\PSoC5/P1_2.c **** *  No.
 389:.\Generated_Source\PSoC5/P1_2.c **** *
 390:.\Generated_Source\PSoC5/P1_2.c **** *******************************************************************************/
ARM GAS  C:\Users\Thomas\AppData\Local\Temp\ccBIIPWR.s 			page 56


 391:.\Generated_Source\PSoC5/P1_2.c **** uint16 P1_2_ReadRegValue(void) 
 392:.\Generated_Source\PSoC5/P1_2.c **** {
 985              		.loc 1 392 0
 986              		.cfi_startproc
 987              		@ args = 0, pretend = 0, frame = 0
 988              		@ frame_needed = 0, uses_anonymous_args = 0
 989              		@ link register save eliminated.
 990              	.LBB55:
 991              	.LBB56:
 992              	.LBB57:
 993              	.LBB58:
 218:.\Generated_Source\PSoC5/P1_2.c ****         {
 994              		.loc 1 218 0
 995 0000 064A     		ldr	r2, .L49
 996              	.LBE58:
 997              	.LBE57:
 998              	.LBE56:
 999              	.LBE55:
 393:.\Generated_Source\PSoC5/P1_2.c ****     uint16 result;
 394:.\Generated_Source\PSoC5/P1_2.c **** 
 395:.\Generated_Source\PSoC5/P1_2.c ****     /* Clear FIFO before software capture */
 396:.\Generated_Source\PSoC5/P1_2.c ****     while(P1_2_RET_FIFO_EMPTY != P1_2_GetFIFOStatus(P1_2_OUT_FIFO))
 397:.\Generated_Source\PSoC5/P1_2.c ****     {
 398:.\Generated_Source\PSoC5/P1_2.c ****         (void) CY_GET_REG16(P1_2_OUT_FIFO_VAL_LSB_PTR);
 1000              		.loc 1 398 0
 1001 0002 0749     		ldr	r1, .L49+4
 396:.\Generated_Source\PSoC5/P1_2.c ****     {
 1002              		.loc 1 396 0
 1003 0004 00E0     		b	.L45
 1004              	.LVL20:
 1005              	.L48:
 1006              		.loc 1 398 0
 1007 0006 0B88     		ldrh	r3, [r1]
 1008              	.LVL21:
 1009              	.L45:
 1010              	.LBB62:
 1011              	.LBB61:
 1012              	.LBB60:
 1013              	.LBB59:
 218:.\Generated_Source\PSoC5/P1_2.c ****         {
 1014              		.loc 1 218 0
 1015 0008 1378     		ldrb	r3, [r2]	@ zero_extendqisi2
 1016 000a 13F0600F 		tst	r3, #96
 1017 000e FAD1     		bne	.L48
 1018              	.LVL22:
 1019              	.LBE59:
 1020              	.LBE60:
 1021              	.LBE61:
 1022              	.LBE62:
 399:.\Generated_Source\PSoC5/P1_2.c ****     }
 400:.\Generated_Source\PSoC5/P1_2.c **** 
 401:.\Generated_Source\PSoC5/P1_2.c ****     /* Read of 8 bits from A1 causes capture to output FIFO */
 402:.\Generated_Source\PSoC5/P1_2.c ****     (void) CY_GET_REG8(P1_2_SHIFT_REG_CAPTURE_PTR);
 403:.\Generated_Source\PSoC5/P1_2.c **** 
 404:.\Generated_Source\PSoC5/P1_2.c ****     /* Read output FIFO */
 405:.\Generated_Source\PSoC5/P1_2.c ****     result  = CY_GET_REG16(P1_2_OUT_FIFO_VAL_LSB_PTR);
 1023              		.loc 1 405 0
ARM GAS  C:\Users\Thomas\AppData\Local\Temp\ccBIIPWR.s 			page 57


 1024 0010 034B     		ldr	r3, .L49+4
 402:.\Generated_Source\PSoC5/P1_2.c **** 
 1025              		.loc 1 402 0
 1026 0012 044A     		ldr	r2, .L49+8
 1027 0014 1278     		ldrb	r2, [r2]	@ zero_extendqisi2
 1028              		.loc 1 405 0
 1029 0016 1888     		ldrh	r0, [r3]
 1030              	.LVL23:
 406:.\Generated_Source\PSoC5/P1_2.c ****     
 407:.\Generated_Source\PSoC5/P1_2.c ****     #if(0u != (P1_2_SR_SIZE % 8u))
 408:.\Generated_Source\PSoC5/P1_2.c ****         result &= ((uint16) P1_2_SR_MASK);
 409:.\Generated_Source\PSoC5/P1_2.c ****     #endif /* (0u != (P1_2_SR_SIZE % 8u)) */
 410:.\Generated_Source\PSoC5/P1_2.c ****     
 411:.\Generated_Source\PSoC5/P1_2.c ****     return(result);
 412:.\Generated_Source\PSoC5/P1_2.c **** }
 1031              		.loc 1 412 0
 1032 0018 80B2     		uxth	r0, r0
 1033 001a 7047     		bx	lr
 1034              	.L50:
 1035              		.align	2
 1036              	.L49:
 1037 001c 67650040 		.word	1073767783
 1038 0020 56650040 		.word	1073767766
 1039 0024 16650040 		.word	1073767702
 1040              		.cfi_endproc
 1041              	.LFE10:
 1042              		.size	P1_2_ReadRegValue, .-P1_2_ReadRegValue
 1043              		.global	P1_2_initVar
 1044              		.bss
 1045              		.set	.LANCHOR0,. + 0
 1046              		.type	P1_2_initVar, %object
 1047              		.size	P1_2_initVar, 1
 1048              	P1_2_initVar:
 1049 0000 00       		.space	1
 1050              		.text
 1051              	.Letext0:
 1052              		.file 2 ".\\Generated_Source\\PSoC5\\cytypes.h"
 1053              		.file 3 ".\\Generated_Source\\PSoC5\\CyLib.h"