ARM GAS  C:\Users\Thomas\AppData\Local\Temp\cch56NqE.s 			page 1


   1              		.syntax unified
   2              		.cpu cortex-m3
   3              		.fpu softvfp
   4              		.eabi_attribute 20, 1
   5              		.eabi_attribute 21, 1
   6              		.eabi_attribute 23, 3
   7              		.eabi_attribute 24, 1
   8              		.eabi_attribute 25, 1
   9              		.eabi_attribute 26, 1
  10              		.eabi_attribute 30, 2
  11              		.eabi_attribute 34, 1
  12              		.eabi_attribute 18, 4
  13              		.thumb
  14              		.file	"P1_D1.c"
  15              		.text
  16              	.Ltext0:
  17              		.section	.gnu.lto_.profile.c0d6a5e8,"",%progbits
  18 0000 789C6366 		.ascii	"x\234cf```a\200\000F\006IQ\000\000\273\0007"
  18      60606061 
  18      80004606 
  18      49510000 
  18      BB0037
  19              		.text
  20              		.section	.gnu.lto_.jmpfuncs.c0d6a5e8,"",%progbits
  21 0000 789C6366 		.ascii	"x\234cf\300\016\204\2404\013\003##c=#\210`b``\006\212"
  21      C00E84A0 
  21      340B0323 
  21      23633D23 
  21      88606260 
  22 0017 00000DC0 		.ascii	"\000\000\015\300\001$"
  22      0124
  23              		.text
  24              		.section	.gnu.lto_.inline.c0d6a5e8,"",%progbits
  25 0000 789C6366 		.ascii	"x\234cf\300\016\022\2404\013\003\003'\007##\003#\003"
  25      C00E12A0 
  25      340B0303 
  25      27072323 
  25      032303
  26 0013 0333C701 		.ascii	"\0033\307\001;\006\266\005\362L\014,\013\344Y@\222\214"
  26      3B06B605 
  26      F24C0C2C 
  26      0BE45940 
  26      928C
  27 0025 0C1CECE8 		.ascii	"\014\034\354\350rL\027\370\301rL\014l\254\214\014Ll"
  27      724C17F8 
  27      C1724C0C 
  27      6CAC8C0C 
  27      4C6C
  28 0037 1FF420E2 		.ascii	"\037\364 \342@\300\214)\304\000\000\333l\011\322"
  28      40C08C29 
  28      C40000DB 
  28      6C09D2
  29              		.text
  30              		.section	.gnu.lto_.pureconst.c0d6a5e8,"",%progbits
  31 0000 789C6366 		.ascii	"x\234cf``\340d\200\000\026\006)F)&)f)\000\002\305\000"
  31      6060E064 
  31      80001606 
ARM GAS  C:\Users\Thomas\AppData\Local\Temp\cch56NqE.s 			page 2


  31      29462926 
  31      29662900 
  32 0017 7F       		.ascii	"\177"
  33              		.text
  34              		.section	.gnu.lto_P1_D1_Write.c0d6a5e8,"",%progbits
  35 0000 789C6551 		.ascii	"x\234eQMH\033A\030\2357\263\233\365\357Pz\314M\254X"
  35      4D481B41 
  35      189D37B3 
  35      9BF5EF50 
  35      7ACC4DAC 
  36 0015 4B1184F6 		.ascii	"K\021\204\366^j\241\327\200\327\200\204t\017\202T\320"
  36      5E6AA1D7 
  36      80D78084 
  36      740F8254 
  36      D0
  37 0026 D8ABB336 		.ascii	"\330\253\2636\344 HE\004\013%\240\210\364'\255\332\010"
  37      E4204845 
  37      040B25A0 
  37      88F427AD 
  37      DA08
  38 0038 D283C2FA 		.ascii	"\322\203\302\372\203\036D\203\227\026l\210\012\321\332"
  38      831E4483 
  38      97166C88 
  38      0AD1DA
  39 0047 9B21526B 		.ascii	"\233!Rk\255\306\357\233\365P\351\300\3147\373\361\336"
  39      ADC6EF9B 
  39      F550E9C0 
  39      CC37FBF1 
  39      DE
  40 0058 FBDEBC55 		.ascii	"\373\336\274U\342\377\025\246}W\012\361\200*\224\200"
  40      E2FF15A6 
  40      7D570AF1 
  40      802A9480 
  41 0068 1CDE12C2 		.ascii	"\034\336\022\302\253\222\000_\004D\277D?~\312\222\304"
  41      AB92005F 
  41      0444BF44 
  41      3F7ECA92 
  41      C4
  42 0079 B09F795D 		.ascii	"\260\237y]\3334\245\265>\036\311y\021\037g\304+\313"
  42      DB34A5B5 
  42      3E1EC979 
  42      111F67C4 
  42      2BCB
  43 008b 40076FD1 		.ascii	"@\007o\321D\230rF\217*u\007\202\356\263\333\233\227"
  43      44987246 
  43      8F2A7507 
  43      82EEB3DB 
  43      9B97
  44 009d 4EE3A4D6 		.ascii	"N\343\244\326\003\376\227i\375\210\340\300;(b\340~\030"
  44      03FE9769 
  44      FD88E0C0 
  44      3B2862E0 
  44      7E18
  45 00af CD61410D 		.ascii	"\315aA\015\201\367hdpvhu^\252{\2068\261\261\277Z\327"
  45      81F76864 
  45      70766875 
  45      5EAA7B86 
ARM GAS  C:\Users\Thomas\AppData\Local\Temp\cch56NqE.s 			page 3


  45      38B1B1BF 
  46 00c5 3041C4BD 		.ascii	"0A\304\275\363\371\250\357\215\353\313J\305\320?\374"
  46      F3F9A8EF 
  46      8DEBCB4A 
  46      C5D03FFC 
  47 00d5 4B0F16E1 		.ascii	"K\017\026\341K\311\213o\265\241$\031\273\205\014\032"
  47      4BC98B6F 
  47      B5A12419 
  47      BB850C1A 
  48 00e5 024FF888 		.ascii	"\002O\370\210\020\250pg\346\266\257+\225\271\305\245"
  48      10A87067 
  48      E6B6AF2B 
  48      95B9C5A5 
  49 00f5 3FA89634 		.ascii	"?\250\2264V\322C\251m\201\247\333\334\010\361\341\360"
  49      56D243A9 
  49      6D81A7DB 
  49      DC08F1E1 
  49      F0
  50 0106 21449136 		.ascii	"!D\2216?\376\200>\250\252\035,\377\032,\2149\254x*9"
  50      3FFE803E 
  50      A8AA1D2C 
  50      FF1A2C8C 
  50      39AC782A 
  51 011b 89526A6D 		.ascii	"\211RjmQ\035\3113\251\374IO[\354a\267\230\333\2562-"
  51      511DC933 
  51      A9FC494F 
  51      5BEC61B7 
  51      98DBAE32 
  52 0130 63A9FC3D 		.ascii	"c\251\374=\377\327I\343\215\227$\337\026>!\214i\220"
  52      FFD749E3 
  52      8D9724DF 
  52      163E218C 
  52      6990
  53 0142 65CC200D 		.ascii	"e\314 \015\261\203\227\277Sy\004\202*\320\034_(\014"
  53      B18397BF 
  53      53790482 
  53      2AD01C5F 
  53      280C
  54 0154 D5B1002E 		.ascii	"\325\261\000.(\225Y\002\177\2054\217 \247\204bR>u\370"
  54      28955902 
  54      7F85348F 
  54      20A78462 
  54      523E75F8 
  55 0168 E3DA867D 		.ascii	"\343\332\206}*-b\255\247\217\262\026\2638\312\317D2"
  55      2A2D62AD 
  55      A78FB216 
  55      B338CACF 
  55      4432
  56 017a D227D7D2 		.ascii	"\322'\327\322\214#Pno\345\225\221\266(\273l\000:\011"
  56      8C23506E 
  56      6FE59591 
  56      B628BB6C 
  56      003A09
  57 018d 0510C7A0 		.ascii	"\005\020\307\240X}y\304\260n\230\367|\373\246\3759\262"
  57      587D79C4 
  57      B06E98F7 
  57      7CFBA6FD 
ARM GAS  C:\Users\Thomas\AppData\Local\Temp\cch56NqE.s 			page 4


  57      39B2
  58 019f 4F245180 		.ascii	"O$Q\200\347\237\333\214\347\177P\244\351\224\024\345"
  58      E79FDB8C 
  58      E77F50A4 
  58      E99414E5 
  59 01af 56DF127D 		.ascii	"V\337\022}\352>w{b\011\367YG{w_O\334\215F\332\273\333"
  59      EA3E777B 
  59      6209F759 
  59      477B775F 
  59      4FDC8D46 
  60 01c6 1E4623AD 		.ascii	"\036F#\255\035OZ[\342\302~\021\353\352skz\023\261Dg"
  60      1D4F5A5B 
  60      E2C27E11 
  60      EBEA736B 
  60      7A13B144 
  61 01db FC7167A2 		.ascii	"\374qg\242\367\012$9\316\271"
  61      F70A2439 
  61      CEB9
  62              		.text
  63              		.section	.gnu.lto_P1_D1_SetDriveMode.c0d6a5e8,"",%progbits
  64 0000 789C7D51 		.ascii	"x\234}QM(DQ\024>\337\275\357\275y\232HV\232\235\"\224"
  64      4D284451 
  64      143EDFBD 
  64      EFBD799A 
  64      48569A9D 
  65 0016 C8C25E11 		.ascii	"\310\302^\021[e;%\361\226LM\254\335aP6~VJS\"\315\370"
  65      5B653B25 
  65      F1964C4D 
  65      ACDD6150 
  65      367E564A 
  66 002e 9B511696 		.ascii	"\233Q\026\226^\262S\304F\246\214\324\370-2\021&i\234"
  66      5EB253C4 
  66      46A68CD4 
  66      F82D3211 
  66      26699C
  67 0041 FBC6624A 		.ascii	"\373\306bJ\271\275{\356\371N\337\367\275s\317\225\364"
  67      B9BD7BEE 
  67      F94EDFF7 
  67      BD73CF95 
  67      F4
  68 0052 7705783F 		.ascii	"w\005x?\202\250\201OH\202\230;&\212\330\002\320\011"
  68      82A8814F 
  68      4882983B 
  68      268AD802 
  68      D009
  69 0064 81C604C6 		.ascii	"\201\306\004\306\360 r\002s\356\346\242\277~M)\365\262"
  69      F0207202 
  69      73EEE6A2 
  69      BF7E4D29 
  69      F5B2
  70 0076 B2573D59 		.ascii	"\262W=Y\235\027D\257\242h\2038\352\231r\227\177\210"
  70      9D1744AF 
  70      A2688338 
  70      EA997297 
  70      7F88
  71 0088 97CB5A10 		.ascii	"\227\313Z\020\347\337\363\347g\242nU\251qw?\251\332"
  71      E7DFF3E7 
ARM GAS  C:\Users\Thomas\AppData\Local\Temp\cch56NqE.s 			page 5


  71      67A26E55 
  71      A971773F 
  71      A9DA
  72 009a 9167CF04 		.ascii	"\221g\317\004$+\320\024@c\200\270@XG\235&\347\242\337"
  72      242BD014 
  72      406380B8 
  72      4058479D 
  72      26E7A2DF 
  73 00ae E77E2BCA 		.ascii	"\347~+\312\336\225EOl\300\342\266(U\345\252B\341\365"
  73      DE95454F 
  73      6CC0E2B6 
  73      2855E5AA 
  73      42E1F5
  74 00c1 723ED102 		.ascii	"r>\321\002\277`\215\220\034\244\241\203\011-\267t\352"
  74      BF608D90 
  74      1CA4A183 
  74      092DB774 
  74      EA
  75 00d2 D3C1D6A1 		.ascii	"\323\301\326\241Ls\210\262\274\365\015n\030\360)\323"
  75      4C7388B2 
  75      BCF50D6E 
  75      18F029D3 
  76 00e2 38789FB9 		.ascii	"8x\237\271]2\264\357\207\320\327YX\237\312\210{\221"
  76      5D32B4EF 
  76      87D0D759 
  76      589FCA88 
  76      7B91
  77 00f4 17C6F572 		.ascii	"\027\306\365rD\031\272\213\253\354\311\251\355\225H"
  77      4419BA8B 
  77      ABECC9A9 
  77      ED9548
  78 0103 C3D9A7E9 		.ascii	"\303\331\247\3513#\206\245H\224\2337\261\211\000\266"
  78      332386A5 
  78      48949B37 
  78      B18900B6 
  79 0113 C003C336 		.ascii	"\300\003\3036b\2404\3063\276\242\235dG\306\023\237V"
  79      62A034C6 
  79      33BEA29D 
  79      6447C613 
  79      9F56
  80 0125 111B5C62 		.ascii	"\021\033\\b\375\305\363\313\221g's\205\337\305\263L"
  80      FDC5F3CB 
  80      91672773 
  80      85DFC5B3 
  80      4C
  81 0136 B2458996 		.ascii	"\262E\211\226?\263T\353\343\022kOw\237\016MO[AHy\222"
  81      3FB354EB 
  81      E3126B4F 
  81      779F0E4D 
  81      4F5B4148 
  82 014c 89B75F8A 		.ascii	"\211\267_\212\355\375\301W\352R\306U\306\007\013\320"
  82      EDFDC157 
  82      EA52C655 
  82      C6070BD0 
  83 015c F8BFDE77 		.ascii	"\370\277\336w\270w\346S\006\021\367\253K\263\365\373"
  83      B877E653 
  83      0611F7AB 
ARM GAS  C:\Users\Thomas\AppData\Local\Temp\cch56NqE.s 			page 6


  83      4BB3F5FB 
  84 016c 65F92D78 		.ascii	"e\371-xL<\264\232\346`\2673\354\204\373G\234\301\276"
  84      4C3CB49A 
  84      E660B733 
  84      EC84FB47 
  84      9CC1BE
  85 017f DED06878 		.ascii	"\336\320hx\300\011\366\364\206:\332\202=\255}\235\255"
  85      C009F6F4 
  85      863ADA82 
  85      3DAD7D9D 
  85      AD
  86 0190 CD03640C 		.ascii	"\315\003d\014\205\006\235\037bZ\266\304"
  86      85069D1F 
  86      625AB6C4 
  87              		.text
  88              		.section	.gnu.lto_P1_D1_Read.c0d6a5e8,"",%progbits
  89 0000 789C654F 		.ascii	"x\234eO=HBQ\030\375\316\367\236?\340\022M\341\026\005"
  89      3D484251 
  89      18FDCEF7 
  89      9E3FE012 
  89      4DE11605 
  90 0014 1288E0D0 		.ascii	"\022\210\340\320R[\005\255\202\253 aoM\220\232\275\232"
  90      525B05AD 
  90      82AB2061 
  90      6F4D909A 
  90      BD9A
  91 0026 59385543 		.ascii	"Y8UCCaK\204\375ACS\203\320\317\032E4\030\022\257!\205"
  91      43614B84 
  91      FD414353 
  91      83D0CF1A 
  91      45341812 
  92 003d DA12EDE7 		.ascii	"\332\022\355\347Ae\337\365\265u\341\236\357\336\363"
  92      4165DFF5 
  92      B575E19E 
  92      EFDEF3
  93 004c 9D7BCEFD 		.ascii	"\235{\316\375\014\372\277\202\262'@4$\025\006\201W\257"
  93      0CFABF82 
  93      B2274034 
  93      24150681 
  93      57AF
  94 005e 89727E06 		.ascii	"\211r~\006\364\201@YF\026/\334b\\\235\376\334!\264\253"
  94      F4814059 
  94      46162FDC 
  94      625C9DFE 
  94      DC21B4AB 
  95 0072 54FE75BD 		.ascii	"T\376u\275\372\020X\032p\230\250\315\204p\020#\332\007"
  95      FA10581A 
  95      7098A8CD 
  95      84701023 
  95      DA07
  96 0084 15844884 		.ascii	"\025\204H\204\255\302w-\340-(\245\372t_\032{\360J\006"
  96      ADC2772D 
  96      E02D28A5 
  96      FA745F1A 
  96      7BF04A06 
  97 0098 1DF79FA9 		.ascii	"\035\367\237\251n\367\344mme\034>\220\303\222(`\012"
  97      6EF7E46D 
ARM GAS  C:\Users\Thomas\AppData\Local\Temp\cch56NqE.s 			page 7


  97      6D651C3E 
  97      90C39228 
  97      600A
  98 00aa B0478397 		.ascii	"\260G\203\227\264'5\004t|\223YW\243\216\213\367\222"
  98      B4273504 
  98      747C9359 
  98      57A38E8B 
  98      F792
  99 00bc BD3DA67D 		.ascii	"\275=\246}>\330\220\010\347\251\372\345yf\207\215\363"
  99      3ED89008 
  99      E7A9FAE5 
  99      7966878D 
  99      F3
 100 00cd 9D9C3275 		.ascii	"\235\2342u\352c\343\346\326\337\243H_7J\355K\177\031"
 100      EA63E3E6 
 100      D6DFA348 
 100      5F374AED 
 100      4B7F19
 101 00e0 5BB9021C 		.ascii	"[\271\002\0346\261\217 \016 \277\304!\312\240:\026?"
 101      36B18F20 
 101      0E20BFC4 
 101      21CAA03A 
 101      163F
 102 00f2 8B1D760D 		.ascii	"\213\035v\015\341zn\326\232\035C\033@f:\022m\035y\333"
 102      E17A6ED6 
 102      9A1D431B 
 102      40663A12 
 102      6D1D79DB 
 103 0106 E74A4C51 		.ascii	"\347JLQ\351Gv\261a\272\214GH\014\367D\367\313a\227\323"
 103      E94776B1 
 103      61BA8C47 
 103      480CF744 
 103      F7CB6197 
 104 011b 34D9C0DF 		.ascii	"4\331\300\337\2557\011\364\0042\317`$1m\315Y\231\231"
 104      AD3709F4 
 104      0432CF60 
 104      24316DCD 
 104      599999
 105 012e 796B3619 		.ascii	"yk6\031O/dRV\"\026OO\216&b\321\344T4\222\242_\267\276"
 105      4F2F6452 
 105      5622164F 
 105      4F8E2662 
 105      D1E45434 
 106 0147 7A10     		.ascii	"z\020"
 107              		.text
 108              		.section	.gnu.lto_P1_D1_ReadDataReg.c0d6a5e8,"",%progbits
 109 0000 789C654F 		.ascii	"x\234eO=HBQ\030\375\316\367\236?\340\022M\341\026\005"
 109      3D484251 
 109      18FDCEF7 
 109      9E3FE012 
 109      4DE11605 
 110 0014 5288E0D0 		.ascii	"R\210\340\320\322XA\253\340*H\330[\023\244f\257f\026"
 110      D25841AB 
 110      E02A48D8 
 110      5B13A466 
 110      AF6616
 111 0027 4DD15838 		.ascii	"M\321X8E\224\026445\004\322\320\024I9\030&\266(\324"
ARM GAS  C:\Users\Thomas\AppData\Local\Temp\cch56NqE.s 			page 8


 111      45941634 
 111      343504D2 
 111      D0144939 
 111      1826B628 
 112 003c 9628D583 		.ascii	"\226(\325\203\322\276\373^[\027\356\371\356=\337\271"
 112      D2BEFB5E 
 112      5B17EEF9 
 112      EE3DDFB9 
 113 004c E7DCCFA0 		.ascii	"\347\334\317\240\377+({\001DSRa\020x\357\236(\347g@"
 113      FF2B287B 
 113      01445352 
 113      611078EF 
 113      9E28E767 
 114 0061 1F089465 		.ascii	"\037\010\224ed\361\306=\306\335\325\260\216\320\261"
 114      64F1C63D 
 114      C6DDD5B0 
 114      8ED0B1
 115 0070 52F9F7C7 		.ascii	"R\371\367\307z+\2605a3Q\237\011\341 f\264\017N\020\""
 115      7A2BB035 
 115      6133519F 
 115      09E12066 
 115      B40F4E10 
 116 0085 11F60A3F 		.ascii	"\021\366\012?\215\200\267\240\224\032\323}i\234\302"
 116      8D80B7A0 
 116      941AD37D 
 116      699CC2
 117 0094 2B197431 		.ascii	"+\031t1^U\243\321em\177g\226} \233%Q\300\024`\217\006"
 117      5E55A3D1 
 117      656D7F67 
 117      967D209B 
 117      2551C014 
 118 00ab 2F694FEA 		.ascii	"/iO\352\010\350\370.\263\256F\0237\037\273\303\362\274"
 118      08E8F82E 
 118      B3AE4613 
 118      371FBBC3 
 118      F2BC
 119 00bd F6F96443 		.ascii	"\366\371dCG\024o\257\215W\266\331\250\036\345\224\251"
 119      47146FAF 
 119      8D57B6D9 
 119      A81EE594 
 119      A9
 120 00ce 535F3AB5 		.ascii	"S_:\265\007\277C\221\276\366\237[\337\276\022\016s\005"
 120      07BF4391 
 120      BEF69F5B 
 120      DFBE120E 
 120      7305
 121 00e0 D86CA28C 		.ascii	"\330l\242\214 *\220_\342\014%P\023\233_\305\001\273"
 121      202A905F 
 121      E20C2550 
 121      139B5FC5 
 121      01BB
 122 00f2 86703D0F 		.ascii	"\206p=\017\032\335\201\343\011\231\351\\\264M\344\333"
 122      1ADD81E3 
 122      0999E95C 
 122      B44DE4DB 
 123 0102 3E57628A 		.ascii	">Wb\212J?j\027;\246\313x\204\304\264#z\332\016\273\234"
 123      4A3F6A17 
ARM GAS  C:\Users\Thomas\AppData\Local\Temp\cch56NqE.s 			page 9


 123      3BA6CB78 
 123      84C4B423 
 123      7ADA0EBB 
 124 0117 A6A90DFC 		.ascii	"\246\251\015\374\335\234I\240'\220y&#\211ek\315\312"
 124      DD9C49A0 
 124      27907926 
 124      2389656B 
 124      CDCA
 125 0129 ACAC5BAB 		.ascii	"\254\254[\253\311xz#\223\262\022\261xzq.\021\213&\227"
 125      C9787A23 
 125      93B212B1 
 125      787A712E 
 125      118B2697 
 126 013d A29114FD 		.ascii	"\242\221\024\375\002#\326z\215"
 126      0223D67A 
 126      8D
 127              		.text
 128              		.section	.gnu.lto_.symbol_nodes.c0d6a5e8,"",%progbits
 129 0000 789C6366 		.ascii	"x\234cf``pb\200\002&\206z\006\206\011\347\030\030\352"
 129      60607062 
 129      80022686 
 129      7A068609 
 129      E71818EA 
 130 0014 EB19E62D 		.ascii	"\353\031\346-\340``b\254gD\3413\3253\241\360\231\353"
 130      E0606062 
 130      AC6744E1 
 130      33D533A1 
 130      F099EB
 131 0027 9991F90C 		.ascii	"\231\221\371\014\0003\356\020\336"
 131      0033EE10 
 131      DE
 132              		.text
 133              		.section	.gnu.lto_.refs.c0d6a5e8,"",%progbits
 134 0000 789C6366 		.ascii	"x\234cf```d\200\002\000\000=\000\005"
 134      60606064 
 134      80020000 
 134      3D0005
 135              		.text
 136              		.section	.gnu.lto_.decls.c0d6a5e8,"",%progbits
 137 0000 789C8D92 		.ascii	"x\234\215\222]H\024Q\024\307\357\231;\356\352\270-\325"
 137      5D481451 
 137      14C7EF99 
 137      3BEEEAB8 
 137      2DD5
 138 0012 83CA12B4 		.ascii	"\203\312\022\264\021\010\201\010\026\201o\011\012\372"
 138      11088108 
 138      16816F09 
 138      0AFA
 139 0020 522C4AF4 		.ascii	"R,J\364\240 \213\016\346\213\3066\006>y\375\010?\262"
 139      A0208B0E 
 139      E68BC636 
 139      063E79FD 
 139      083FB2
 140 0033 32495A8C 		.ascii	"2IZ\214RP\363\2434S\327u\325t\026\221\204\260^dA!\310"
 140      5250F3A3 
 140      3453D775 
 140      D5741691 
ARM GAS  C:\Users\Thomas\AppData\Local\Temp\cch56NqE.s 			page 10


 140      84B05E64 
 141 004a B6077B5B 		.ascii	"\266\007{[#c\213`:sg\267Yl\005\017\234\231{f\316\357"
 141      23638B60 
 141      3A7367B7 
 141      596C050F 
 141      9C997B66 
 142 0060 7FCEBDF7 		.ascii	"\177\316\275\367PBH\026\020\242\241\025PB\3720NAw\021"
 142      50424816 
 142      10A2A115 
 142      5042FA30 
 142      4E417711 
 143 0074 D344F419 		.ascii	"\323D\364\031\3649t?z\200\374o3\011\334$z\006\372\012"
 143      F439743F 
 143      7A80FC6F 
 143      3309DC24 
 143      7A06FA0A 
 144 0088 FA72EC3F 		.ascii	"\372r\354?\304r\016\233\256i9\304\251I\330\271$\254"
 144      C4720E9B 
 144      AE6939C4 
 144      A949D8B9 
 144      24AC
 145 009a 3F5633CE 		.ascii	"?V3\316\225$\341\374I\270\3001\270d{\334\027 0\365c"
 145      9524E1FC 
 145      49B8C031 
 145      B8647BDC 
 145      172030F5 
 146 00af 337D4F00 		.ascii	"3}O\000\273\344\324\303\305\336\015\257\005C\233$\352"
 146      BBE4D4C3 
 146      C5DE0DAF 
 146      05439B24 
 146      EA
 147 00c0 6168B5BD 		.ascii	"ah\265\275=\225\012\240\257\207\274\273[R\316\004c\254"
 147      3D950AA0 
 147      AF87BCBB 
 147      5B52CE04 
 147      63AC
 148 00d2 83A92A98 		.ascii	"\203\251*\230\022\315/\226\272\255\310dH<|\360\276?"
 148      12CD2F96 
 148      BAADC864 
 148      483C7CF0 
 148      BE3F
 149 00e4 4879A8E9 		.ascii	"Hy\250\351\234\260\275\375\370\027\005)\273\203\261"
 149      9CB0BDFD 
 149      F8170529 
 149      BB83B1
 150 00f3 1616E965 		.ascii	"\026\026\351e4\213@\216\003.8\010LA6\246\301\004\344"
 150      348B408E 
 150      032E3808 
 150      4C4136A6 
 150      C104E4
 151 0106 1078090E 		.ascii	"\020x\011\016x\005\0162\214\005\"\003[;g\030\023a\022"
 151      78050E32 
 151      8C052203 
 151      5B3B6718 
 151      136112
 152 0119 241807CA 		.ascii	"$\030\007\3123p\033z\205X\321\236\273\301\036Q\024\360"
 152      33701B7A 
ARM GAS  C:\Users\Thomas\AppData\Local\Temp\cch56NqE.s 			page 11


 152      8558D19E 
 152      BBC11E51 
 152      14F0
 153 012b A39E53CE 		.ascii	"\243\236S\316\273=\320vG\204\314>\024`=\255\354\244"
 153      BB3DD076 
 153      4784CC3E 
 153      14603DAD 
 153      ECA4
 154 013d 08AE0C18 		.ascii	"\010\256\014\030E\3311\224%0\015\231\370|\015\242!\020"
 154      45D93194 
 154      25300D99 
 154      F87C0DA2 
 154      2110
 155 014f 0DDD5F4F 		.ascii	"\015\335_O\245\227\370\326F\006Ba\321\371\234\015NG"
 155      A597F8D6 
 155      46064261 
 155      D1F99C0D 
 155      4E47
 156 0161 B4EFDB36 		.ascii	"\264\357\3336\266\301TM\273\302\021x\363\257<\321\327"
 156      B6C1544D 
 156      BBC21178 
 156      F3AF3CD1 
 156      D7
 157 0172 C679CE80 		.ascii	"\306y\316\200\023\261\361O\335\277\255\324\315%\242"
 157      13B1F14F 
 157      DDBFADD4 
 157      CD25A2
 158 0181 3EDFA69D 		.ascii	">\337\246\235K\014.\016Y\014\001\316\317&\360\263q~"
 158      4B0C2E0E 
 158      590C01CE 
 158      CF26F0B3 
 158      717E
 159 0193 8EF39D6D 		.ascii	"\216\363\235m\3234\261]}'f\277>\336oy\254\335w\355O"
 159      D334B15D 
 159      7D2766BF 
 159      3EDE6F79 
 159      ACDD77ED 
 160 01a8 0F04AAF0 		.ascii	"\017\004\252\360Z\336\365\211f+\257\365\371[XV\333\330"
 160      5ADEF589 
 160      662BAFF5 
 160      F95B5856 
 160      DBD8
 161 01ba 1F4DA31C 		.ascii	"\037M\243\034\200\371\204j\363\361j~^-\3745\274\226"
 161      80F9846A 
 161      F3F16A7E 
 161      5E2DFC35 
 161      BC96
 162 01cc 4E9BB8C2 		.ascii	"N\233\270\302\307\376\261\213F\263\317F\342\315\352"
 162      C7FEB18B 
 162      46B3CF46 
 162      E2CDEA
 163 01db F84202BE 		.ascii	"\370B\002\276\020\307\003\034gO\356\015\247\322G\300"
 163      10C7031C 
 163      674FEE0D 
 163      A7D247C0 
 164 01eb 79DFCFAE 		.ascii	"y\337\317\256\300\011\011o\264\365\0307\2123\260\365"
 164      C009096F 
ARM GAS  C:\Users\Thomas\AppData\Local\Temp\cch56NqE.s 			page 12


 164      B4F51837 
 164      8A33B0F5 
 165 01fb A12B9466 		.ascii	"\241+\224f\314\300a\342\355\2213\020\015\227\264\261"
 165      CCC061E2 
 165      ED913310 
 165      0D97B4B1 
 166 020b 0258C653 		.ascii	"\002X\306SY4g`\011\314!\350\374\322\277i\263u\351\203"
 166      59346760 
 166      09CC21E8 
 166      FCD2BF69 
 166      B375E983 
 167 021f 852798B6 		.ascii	"\205'\230\266a\347\311\346\021\256\200\215\357\000\337"
 167      61E7C9E6 
 167      11AE808D 
 167      EF00DF
 168 022e FB020D8E 		.ascii	"\373\002\015\216\006w$pH\016/Np\364,\250\250\324\241"
 168      06772470 
 168      480E2F4E 
 168      70F42CA8 
 168      A8D4A1
 169 0241 9F7EA485 		.ascii	"\237~\244\205Q\257=\336\021\341?\010\004Qf\025e\364"
 169      51AF3DDE 
 169      11E13F08 
 169      04516615 
 169      65F4
 170 0253 6C754FD3 		.ascii	"luO\323\2324\303\036Zy\002\177\2444\324\326)\371\226"
 170      9A34C31E 
 170      5A79027F 
 170      A434D4D6 
 170      29F996
 171 0266 E26BD79D 		.ascii	"\342k\327\235\205\344|nE\261\\'{\334\212\\]YV\337\340"
 171      85E47C6E 
 171      45B15C27 
 171      7BDC8A5C 
 171      5D5956DF 
 172 027b A9922B5C 		.ascii	"\251\222+\\e\365\205\227+\252\032\225\306[\362\355\334"
 172      65F58597 
 172      2BAA1A95 
 172      C65BF2ED 
 172      DC
 173 028c 9B24DD95 		.ascii	"\233$\335\225WY\224Wy\303S\253\310\347\216\314\347I"
 173      57599457 
 173      79C353AB 
 173      C8E78ECC 
 173      E749
 174 029e B955E4B4 		.ascii	"\271U\344\264\221]&+E\236\332;\362\325\372jY2>\225\312"
 174      915D262B 
 174      459EDA3B 
 174      F2D5FA6A 
 174      59323E95 
 175 02b3 EEEA53E6 		.ascii	"\356\352S\346\262\310\255\270K\345\032\321#\327\344"
 175      B2C8ADB8 
 175      4BE51AD1 
 175      23D7E4
 176 02c2 FF05E3BB 		.ascii	"\377\005\343\273FW"
 176      4657
 177              		.text
ARM GAS  C:\Users\Thomas\AppData\Local\Temp\cch56NqE.s 			page 13


 178              		.section	.gnu.lto_.symtab.c0d6a5e8,"",%progbits
 179 0000 50315F44 		.ascii	"P1_D1_Write\000\000\000\000\000\000\000\000\000\000"
 179      315F5772 
 179      69746500 
 179      00000000 
 179      00000000 
 180 0015 0000B200 		.ascii	"\000\000\262\000\000\000P1_D1_SetDriveMode\000\000\000"
 180      00005031 
 180      5F44315F 
 180      53657444 
 180      72697665 
 181 0030 00000000 		.ascii	"\000\000\000\000\000\000\000\000\000\264\000\000\000"
 181      00000000 
 181      00B40000 
 181      00
 182 003d 50315F44 		.ascii	"P1_D1_Read\000\000\000\000\000\000\000\000\000\000\000"
 182      315F5265 
 182      61640000 
 182      00000000 
 182      00000000 
 183 0052 00B70000 		.ascii	"\000\267\000\000\000P1_D1_ReadDataReg\000\000\000\000"
 183      0050315F 
 183      44315F52 
 183      65616444 
 183      61746152 
 184 006c 00000000 		.ascii	"\000\000\000\000\000\000\000\000\271\000\000\000"
 184      00000000 
 184      B9000000 
 185              		.text
 186              		.section	.gnu.lto_.opts,"",%progbits
 187 0000 272D666E 		.ascii	"'-fno-trapv' '-mcpu=cortex-m3' '-mthumb' '-g' '-O3'"
 187      6F2D7472 
 187      61707627 
 187      20272D6D 
 187      6370753D 
 188 0033 20272D66 		.ascii	" '-ffunction-sections' '-finline-functions' '-flto'"
 188      66756E63 
 188      74696F6E 
 188      2D736563 
 188      74696F6E 
 189 0066 20272D66 		.ascii	" '-ffat-lto-objects'\000"
 189      6661742D 
 189      6C746F2D 
 189      6F626A65 
 189      63747327 
 190              		.text
 191              		.cfi_sections	.debug_frame
 192              		.section	.text.P1_D1_Write,"ax",%progbits
 193              		.align	2
 194              		.global	P1_D1_Write
 195              		.thumb
 196              		.thumb_func
 197              		.type	P1_D1_Write, %function
 198              	P1_D1_Write:
 199              	.LFB0:
 200              		.file 1 ".\\Generated_Source\\PSoC5\\P1_D1.c"
   1:.\Generated_Source\PSoC5/P1_D1.c **** /*******************************************************************************
ARM GAS  C:\Users\Thomas\AppData\Local\Temp\cch56NqE.s 			page 14


   2:.\Generated_Source\PSoC5/P1_D1.c **** * File Name: P1_D1.c  
   3:.\Generated_Source\PSoC5/P1_D1.c **** * Version 2.20
   4:.\Generated_Source\PSoC5/P1_D1.c **** *
   5:.\Generated_Source\PSoC5/P1_D1.c **** * Description:
   6:.\Generated_Source\PSoC5/P1_D1.c **** *  This file contains API to enable firmware control of a Pins component.
   7:.\Generated_Source\PSoC5/P1_D1.c **** *
   8:.\Generated_Source\PSoC5/P1_D1.c **** * Note:
   9:.\Generated_Source\PSoC5/P1_D1.c **** *
  10:.\Generated_Source\PSoC5/P1_D1.c **** ********************************************************************************
  11:.\Generated_Source\PSoC5/P1_D1.c **** * Copyright 2008-2015, Cypress Semiconductor Corporation.  All rights reserved.
  12:.\Generated_Source\PSoC5/P1_D1.c **** * You may use this file only in accordance with the license, terms, conditions, 
  13:.\Generated_Source\PSoC5/P1_D1.c **** * disclaimers, and limitations in the end user license agreement accompanying 
  14:.\Generated_Source\PSoC5/P1_D1.c **** * the software package with which this file was provided.
  15:.\Generated_Source\PSoC5/P1_D1.c **** *******************************************************************************/
  16:.\Generated_Source\PSoC5/P1_D1.c **** 
  17:.\Generated_Source\PSoC5/P1_D1.c **** #include "cytypes.h"
  18:.\Generated_Source\PSoC5/P1_D1.c **** #include "P1_D1.h"
  19:.\Generated_Source\PSoC5/P1_D1.c **** 
  20:.\Generated_Source\PSoC5/P1_D1.c **** /* APIs are not generated for P15[7:6] on PSoC 5 */
  21:.\Generated_Source\PSoC5/P1_D1.c **** #if !(CY_PSOC5A &&\
  22:.\Generated_Source\PSoC5/P1_D1.c **** 	 P1_D1__PORT == 15 && ((P1_D1__MASK & 0xC0) != 0))
  23:.\Generated_Source\PSoC5/P1_D1.c **** 
  24:.\Generated_Source\PSoC5/P1_D1.c **** 
  25:.\Generated_Source\PSoC5/P1_D1.c **** /*******************************************************************************
  26:.\Generated_Source\PSoC5/P1_D1.c **** * Function Name: P1_D1_Write
  27:.\Generated_Source\PSoC5/P1_D1.c **** ****************************************************************************//**
  28:.\Generated_Source\PSoC5/P1_D1.c **** *
  29:.\Generated_Source\PSoC5/P1_D1.c **** * \brief Writes the value to the physical port (data output register), masking
  30:.\Generated_Source\PSoC5/P1_D1.c **** *  and shifting the bits appropriately. 
  31:.\Generated_Source\PSoC5/P1_D1.c **** *
  32:.\Generated_Source\PSoC5/P1_D1.c **** * The data output register controls the signal applied to the physical pin in 
  33:.\Generated_Source\PSoC5/P1_D1.c **** * conjunction with the drive mode parameter. This function avoids changing 
  34:.\Generated_Source\PSoC5/P1_D1.c **** * other bits in the port by using the appropriate method (read-modify-write or
  35:.\Generated_Source\PSoC5/P1_D1.c **** * bit banding).
  36:.\Generated_Source\PSoC5/P1_D1.c **** *
  37:.\Generated_Source\PSoC5/P1_D1.c **** * <b>Note</b> This function should not be used on a hardware digital output pin 
  38:.\Generated_Source\PSoC5/P1_D1.c **** * as it is driven by the hardware signal attached to it.
  39:.\Generated_Source\PSoC5/P1_D1.c **** *
  40:.\Generated_Source\PSoC5/P1_D1.c **** * \param value
  41:.\Generated_Source\PSoC5/P1_D1.c **** *  Value to write to the component instance.
  42:.\Generated_Source\PSoC5/P1_D1.c **** *
  43:.\Generated_Source\PSoC5/P1_D1.c **** * \return 
  44:.\Generated_Source\PSoC5/P1_D1.c **** *  None 
  45:.\Generated_Source\PSoC5/P1_D1.c **** *
  46:.\Generated_Source\PSoC5/P1_D1.c **** * \sideeffect
  47:.\Generated_Source\PSoC5/P1_D1.c **** *  If you use read-modify-write operations that are not atomic; the Interrupt 
  48:.\Generated_Source\PSoC5/P1_D1.c **** *  Service Routines (ISR) can cause corruption of this function. An ISR that 
  49:.\Generated_Source\PSoC5/P1_D1.c **** *  interrupts this function and performs writes to the Pins component data 
  50:.\Generated_Source\PSoC5/P1_D1.c **** *  register can cause corrupted port data. To avoid this issue, you should 
  51:.\Generated_Source\PSoC5/P1_D1.c **** *  either use the Per-Pin APIs (primary method) or disable interrupts around 
  52:.\Generated_Source\PSoC5/P1_D1.c **** *  this function.
  53:.\Generated_Source\PSoC5/P1_D1.c **** *
  54:.\Generated_Source\PSoC5/P1_D1.c **** * \funcusage
  55:.\Generated_Source\PSoC5/P1_D1.c **** *  \snippet P1_D1_SUT.c usage_P1_D1_Write
  56:.\Generated_Source\PSoC5/P1_D1.c **** *******************************************************************************/
  57:.\Generated_Source\PSoC5/P1_D1.c **** void P1_D1_Write(uint8 value)
  58:.\Generated_Source\PSoC5/P1_D1.c **** {
ARM GAS  C:\Users\Thomas\AppData\Local\Temp\cch56NqE.s 			page 15


 201              		.loc 1 58 0
 202              		.cfi_startproc
 203              		@ args = 0, pretend = 0, frame = 0
 204              		@ frame_needed = 0, uses_anonymous_args = 0
 205              		@ link register save eliminated.
 206              	.LVL0:
  59:.\Generated_Source\PSoC5/P1_D1.c ****     uint8 staticBits = (P1_D1_DR & (uint8)(~P1_D1_MASK));
 207              		.loc 1 59 0
 208 0000 044A     		ldr	r2, .L2
  60:.\Generated_Source\PSoC5/P1_D1.c ****     P1_D1_DR = staticBits | ((uint8)(value << P1_D1_SHIFT) & P1_D1_MASK);
 209              		.loc 1 60 0
 210 0002 4000     		lsls	r0, r0, #1
 211              	.LVL1:
  59:.\Generated_Source\PSoC5/P1_D1.c ****     uint8 staticBits = (P1_D1_DR & (uint8)(~P1_D1_MASK));
 212              		.loc 1 59 0
 213 0004 1378     		ldrb	r3, [r2]	@ zero_extendqisi2
 214              	.LVL2:
 215              		.loc 1 60 0
 216 0006 00F00200 		and	r0, r0, #2
  59:.\Generated_Source\PSoC5/P1_D1.c ****     uint8 staticBits = (P1_D1_DR & (uint8)(~P1_D1_MASK));
 217              		.loc 1 59 0
 218 000a 03F0FD03 		and	r3, r3, #253
 219              	.LVL3:
 220              		.loc 1 60 0
 221 000e 1843     		orrs	r0, r0, r3
 222 0010 1070     		strb	r0, [r2]
 223 0012 7047     		bx	lr
 224              	.L3:
 225              		.align	2
 226              	.L2:
 227 0014 C0510040 		.word	1073762752
 228              		.cfi_endproc
 229              	.LFE0:
 230              		.size	P1_D1_Write, .-P1_D1_Write
 231              		.section	.text.P1_D1_SetDriveMode,"ax",%progbits
 232              		.align	2
 233              		.global	P1_D1_SetDriveMode
 234              		.thumb
 235              		.thumb_func
 236              		.type	P1_D1_SetDriveMode, %function
 237              	P1_D1_SetDriveMode:
 238              	.LFB1:
  61:.\Generated_Source\PSoC5/P1_D1.c **** }
  62:.\Generated_Source\PSoC5/P1_D1.c **** 
  63:.\Generated_Source\PSoC5/P1_D1.c **** 
  64:.\Generated_Source\PSoC5/P1_D1.c **** /*******************************************************************************
  65:.\Generated_Source\PSoC5/P1_D1.c **** * Function Name: P1_D1_SetDriveMode
  66:.\Generated_Source\PSoC5/P1_D1.c **** ****************************************************************************//**
  67:.\Generated_Source\PSoC5/P1_D1.c **** *
  68:.\Generated_Source\PSoC5/P1_D1.c **** * \brief Sets the drive mode for each of the Pins component's pins.
  69:.\Generated_Source\PSoC5/P1_D1.c **** * 
  70:.\Generated_Source\PSoC5/P1_D1.c **** * <b>Note</b> This affects all pins in the Pins component instance. Use the
  71:.\Generated_Source\PSoC5/P1_D1.c **** * Per-Pin APIs if you wish to control individual pin's drive modes.
  72:.\Generated_Source\PSoC5/P1_D1.c **** *
  73:.\Generated_Source\PSoC5/P1_D1.c **** * \param mode
  74:.\Generated_Source\PSoC5/P1_D1.c **** *  Mode for the selected signals. Valid options are documented in 
  75:.\Generated_Source\PSoC5/P1_D1.c **** *  \ref driveMode.
ARM GAS  C:\Users\Thomas\AppData\Local\Temp\cch56NqE.s 			page 16


  76:.\Generated_Source\PSoC5/P1_D1.c **** *
  77:.\Generated_Source\PSoC5/P1_D1.c **** * \return
  78:.\Generated_Source\PSoC5/P1_D1.c **** *  None
  79:.\Generated_Source\PSoC5/P1_D1.c **** *
  80:.\Generated_Source\PSoC5/P1_D1.c **** * \sideeffect
  81:.\Generated_Source\PSoC5/P1_D1.c **** *  If you use read-modify-write operations that are not atomic, the ISR can
  82:.\Generated_Source\PSoC5/P1_D1.c **** *  cause corruption of this function. An ISR that interrupts this function 
  83:.\Generated_Source\PSoC5/P1_D1.c **** *  and performs writes to the Pins component Drive Mode registers can cause 
  84:.\Generated_Source\PSoC5/P1_D1.c **** *  corrupted port data. To avoid this issue, you should either use the Per-Pin
  85:.\Generated_Source\PSoC5/P1_D1.c **** *  APIs (primary method) or disable interrupts around this function.
  86:.\Generated_Source\PSoC5/P1_D1.c **** *
  87:.\Generated_Source\PSoC5/P1_D1.c **** * \funcusage
  88:.\Generated_Source\PSoC5/P1_D1.c **** *  \snippet P1_D1_SUT.c usage_P1_D1_SetDriveMode
  89:.\Generated_Source\PSoC5/P1_D1.c **** *******************************************************************************/
  90:.\Generated_Source\PSoC5/P1_D1.c **** void P1_D1_SetDriveMode(uint8 mode)
  91:.\Generated_Source\PSoC5/P1_D1.c **** {
 239              		.loc 1 91 0
 240              		.cfi_startproc
 241              		@ args = 0, pretend = 0, frame = 0
 242              		@ frame_needed = 0, uses_anonymous_args = 0
 243              		@ link register save eliminated.
 244              	.LVL4:
  92:.\Generated_Source\PSoC5/P1_D1.c **** 	CyPins_SetPinDriveMode(P1_D1_0, mode);
 245              		.loc 1 92 0
 246 0000 044A     		ldr	r2, .L5
 247 0002 00F00E00 		and	r0, r0, #14
 248              	.LVL5:
 249 0006 1378     		ldrb	r3, [r2]	@ zero_extendqisi2
 250 0008 03F0F103 		and	r3, r3, #241
 251 000c 1843     		orrs	r0, r0, r3
 252 000e 1070     		strb	r0, [r2]
 253 0010 7047     		bx	lr
 254              	.L6:
 255 0012 00BF     		.align	2
 256              	.L5:
 257 0014 61500040 		.word	1073762401
 258              		.cfi_endproc
 259              	.LFE1:
 260              		.size	P1_D1_SetDriveMode, .-P1_D1_SetDriveMode
 261              		.section	.text.P1_D1_Read,"ax",%progbits
 262              		.align	2
 263              		.global	P1_D1_Read
 264              		.thumb
 265              		.thumb_func
 266              		.type	P1_D1_Read, %function
 267              	P1_D1_Read:
 268              	.LFB2:
  93:.\Generated_Source\PSoC5/P1_D1.c **** }
  94:.\Generated_Source\PSoC5/P1_D1.c **** 
  95:.\Generated_Source\PSoC5/P1_D1.c **** 
  96:.\Generated_Source\PSoC5/P1_D1.c **** /*******************************************************************************
  97:.\Generated_Source\PSoC5/P1_D1.c **** * Function Name: P1_D1_Read
  98:.\Generated_Source\PSoC5/P1_D1.c **** ****************************************************************************//**
  99:.\Generated_Source\PSoC5/P1_D1.c **** *
 100:.\Generated_Source\PSoC5/P1_D1.c **** * \brief Reads the associated physical port (pin status register) and masks 
 101:.\Generated_Source\PSoC5/P1_D1.c **** *  the required bits according to the width and bit position of the component
 102:.\Generated_Source\PSoC5/P1_D1.c **** *  instance. 
ARM GAS  C:\Users\Thomas\AppData\Local\Temp\cch56NqE.s 			page 17


 103:.\Generated_Source\PSoC5/P1_D1.c **** *
 104:.\Generated_Source\PSoC5/P1_D1.c **** * The pin's status register returns the current logic level present on the 
 105:.\Generated_Source\PSoC5/P1_D1.c **** * physical pin.
 106:.\Generated_Source\PSoC5/P1_D1.c **** *
 107:.\Generated_Source\PSoC5/P1_D1.c **** * \return 
 108:.\Generated_Source\PSoC5/P1_D1.c **** *  The current value for the pins in the component as a right justified number.
 109:.\Generated_Source\PSoC5/P1_D1.c **** *
 110:.\Generated_Source\PSoC5/P1_D1.c **** * \funcusage
 111:.\Generated_Source\PSoC5/P1_D1.c **** *  \snippet P1_D1_SUT.c usage_P1_D1_Read  
 112:.\Generated_Source\PSoC5/P1_D1.c **** *******************************************************************************/
 113:.\Generated_Source\PSoC5/P1_D1.c **** uint8 P1_D1_Read(void)
 114:.\Generated_Source\PSoC5/P1_D1.c **** {
 269              		.loc 1 114 0
 270              		.cfi_startproc
 271              		@ args = 0, pretend = 0, frame = 0
 272              		@ frame_needed = 0, uses_anonymous_args = 0
 273              		@ link register save eliminated.
 115:.\Generated_Source\PSoC5/P1_D1.c ****     return (P1_D1_PS & P1_D1_MASK) >> P1_D1_SHIFT;
 274              		.loc 1 115 0
 275 0000 024B     		ldr	r3, .L8
 276 0002 1878     		ldrb	r0, [r3]	@ zero_extendqisi2
 116:.\Generated_Source\PSoC5/P1_D1.c **** }
 277              		.loc 1 116 0
 278 0004 C0F34000 		ubfx	r0, r0, #1, #1
 279 0008 7047     		bx	lr
 280              	.L9:
 281 000a 00BF     		.align	2
 282              	.L8:
 283 000c C1510040 		.word	1073762753
 284              		.cfi_endproc
 285              	.LFE2:
 286              		.size	P1_D1_Read, .-P1_D1_Read
 287              		.section	.text.P1_D1_ReadDataReg,"ax",%progbits
 288              		.align	2
 289              		.global	P1_D1_ReadDataReg
 290              		.thumb
 291              		.thumb_func
 292              		.type	P1_D1_ReadDataReg, %function
 293              	P1_D1_ReadDataReg:
 294              	.LFB3:
 117:.\Generated_Source\PSoC5/P1_D1.c **** 
 118:.\Generated_Source\PSoC5/P1_D1.c **** 
 119:.\Generated_Source\PSoC5/P1_D1.c **** /*******************************************************************************
 120:.\Generated_Source\PSoC5/P1_D1.c **** * Function Name: P1_D1_ReadDataReg
 121:.\Generated_Source\PSoC5/P1_D1.c **** ****************************************************************************//**
 122:.\Generated_Source\PSoC5/P1_D1.c **** *
 123:.\Generated_Source\PSoC5/P1_D1.c **** * \brief Reads the associated physical port's data output register and masks 
 124:.\Generated_Source\PSoC5/P1_D1.c **** *  the correct bits according to the width and bit position of the component 
 125:.\Generated_Source\PSoC5/P1_D1.c **** *  instance. 
 126:.\Generated_Source\PSoC5/P1_D1.c **** *
 127:.\Generated_Source\PSoC5/P1_D1.c **** * The data output register controls the signal applied to the physical pin in 
 128:.\Generated_Source\PSoC5/P1_D1.c **** * conjunction with the drive mode parameter. This is not the same as the 
 129:.\Generated_Source\PSoC5/P1_D1.c **** * preferred P1_D1_Read() API because the 
 130:.\Generated_Source\PSoC5/P1_D1.c **** * P1_D1_ReadDataReg() reads the data register instead of the status 
 131:.\Generated_Source\PSoC5/P1_D1.c **** * register. For output pins this is a useful function to determine the value 
 132:.\Generated_Source\PSoC5/P1_D1.c **** * just written to the pin.
 133:.\Generated_Source\PSoC5/P1_D1.c **** *
ARM GAS  C:\Users\Thomas\AppData\Local\Temp\cch56NqE.s 			page 18


 134:.\Generated_Source\PSoC5/P1_D1.c **** * \return 
 135:.\Generated_Source\PSoC5/P1_D1.c **** *  The current value of the data register masked and shifted into a right 
 136:.\Generated_Source\PSoC5/P1_D1.c **** *  justified number for the component instance.
 137:.\Generated_Source\PSoC5/P1_D1.c **** *
 138:.\Generated_Source\PSoC5/P1_D1.c **** * \funcusage
 139:.\Generated_Source\PSoC5/P1_D1.c **** *  \snippet P1_D1_SUT.c usage_P1_D1_ReadDataReg 
 140:.\Generated_Source\PSoC5/P1_D1.c **** *******************************************************************************/
 141:.\Generated_Source\PSoC5/P1_D1.c **** uint8 P1_D1_ReadDataReg(void)
 142:.\Generated_Source\PSoC5/P1_D1.c **** {
 295              		.loc 1 142 0
 296              		.cfi_startproc
 297              		@ args = 0, pretend = 0, frame = 0
 298              		@ frame_needed = 0, uses_anonymous_args = 0
 299              		@ link register save eliminated.
 143:.\Generated_Source\PSoC5/P1_D1.c ****     return (P1_D1_DR & P1_D1_MASK) >> P1_D1_SHIFT;
 300              		.loc 1 143 0
 301 0000 024B     		ldr	r3, .L11
 302 0002 1878     		ldrb	r0, [r3]	@ zero_extendqisi2
 144:.\Generated_Source\PSoC5/P1_D1.c **** }
 303              		.loc 1 144 0
 304 0004 C0F34000 		ubfx	r0, r0, #1, #1
 305 0008 7047     		bx	lr
 306              	.L12:
 307 000a 00BF     		.align	2
 308              	.L11:
 309 000c C0510040 		.word	1073762752
 310              		.cfi_endproc
 311              	.LFE3:
 312              		.size	P1_D1_ReadDataReg, .-P1_D1_ReadDataReg
 313              		.text
 314              	.Letext0:
 315              		.file 2 ".\\Generated_Source\\PSoC5\\cytypes.h"