ARM GAS  C:\Users\Thomas\AppData\Local\Temp\ccaZv2Rq.s 			page 1


   1              		.syntax unified
   2              		.cpu cortex-m3
   3              		.fpu softvfp
   4              		.eabi_attribute 20, 1
   5              		.eabi_attribute 21, 1
   6              		.eabi_attribute 23, 3
   7              		.eabi_attribute 24, 1
   8              		.eabi_attribute 25, 1
   9              		.eabi_attribute 26, 1
  10              		.eabi_attribute 30, 2
  11              		.eabi_attribute 34, 1
  12              		.eabi_attribute 18, 4
  13              		.thumb
  14              		.file	"P1_Latch.c"
  15              		.text
  16              	.Ltext0:
  17              		.section	.gnu.lto_.profile.c0d694f7,"",%progbits
  18 0000 789C6366 		.ascii	"x\234cf```a\200\000F\006IQ\000\000\273\0007"
  18      60606061 
  18      80004606 
  18      49510000 
  18      BB0037
  19              		.text
  20              		.section	.gnu.lto_.jmpfuncs.c0d694f7,"",%progbits
  21 0000 789C6366 		.ascii	"x\234cf\300\016\204\2404\013\003##c=#\210`b``\006\212"
  21      C00E84A0 
  21      340B0323 
  21      23633D23 
  21      88606260 
  22 0017 00000DC0 		.ascii	"\000\000\015\300\001$"
  22      0124
  23              		.text
  24              		.section	.gnu.lto_.inline.c0d694f7,"",%progbits
  25 0000 789C6366 		.ascii	"x\234cf\300\016\022\2404\013\003\003'\007##\003#\003"
  25      C00E12A0 
  25      340B0303 
  25      27072323 
  25      032303
  26 0013 0333C701 		.ascii	"\0033\307\001;\006\266\005\362L\014,\013\344Y@\222\214"
  26      3B06B605 
  26      F24C0C2C 
  26      0BE45940 
  26      928C
  27 0025 0C1CECE8 		.ascii	"\014\034\354\350rL\027\370\301rL\014l\254\214\014Ll"
  27      724C17F8 
  27      C1724C0C 
  27      6CAC8C0C 
  27      4C6C
  28 0037 1FF420E2 		.ascii	"\037\364 \342@\300\214)\304\000\000\333l\011\322"
  28      40C08C29 
  28      C40000DB 
  28      6C09D2
  29              		.text
  30              		.section	.gnu.lto_.pureconst.c0d694f7,"",%progbits
  31 0000 789C6366 		.ascii	"x\234cf``\340d\200\000\026\006)F)&)f)\000\002\305\000"
  31      6060E064 
  31      80001606 
ARM GAS  C:\Users\Thomas\AppData\Local\Temp\ccaZv2Rq.s 			page 2


  31      29462926 
  31      29662900 
  32 0017 7F       		.ascii	"\177"
  33              		.text
  34              		.section	.gnu.lto_P1_Latch_Write.c0d694f7,"",%progbits
  35 0000 789C6591 		.ascii	"x\234e\221MHTQ\030\206\317{\316\2753N\032\210\313\331"
  35      4D485451 
  35      1886CF7B 
  35      CEBD334E 
  35      1A88CBD9 
  36 0014 AA4C4109 		.ascii	"\252LA\011-\242m\330\302M\213\001\267\0032\214\027\022"
  36      2DA26DD8 
  36      C24D8B01 
  36      B703328C 
  36      1712
  37 0026 2241AF6D 		.ascii	"\"A\257m=\327&\027\202$\022(\304\300X\204?\343_#\270"
  37      3DD72617 
  37      82241228 
  37      C4C05884 
  37      3FE35F23 
  38 003b E987DB24 		.ascii	"\351\207\333$\024\3643\270)\022\231\014\246\260]\242"
  38      14F433B8 
  38      2912990C 
  38      A6B05DA2 
  39 004b 68263A7D 		.ascii	"h&:}\3379\033\245\003\347\347~<\357{\336\363]%\376\037"
  39      DF391BA5 
  39      03E7E77E 
  39      3CEF7BDE 
  39      F35D25FE 
  40 0060 719A17A4 		.ascii	"q\232\027\244\020\327h\207\022\220c\237\204\010\352"
  40      10D76887 
  40      1290639F 
  40      8408EA
  41 006f 24C00701 		.ascii	"$\300\007\0011(1\210_rGb,,L\326'\236j\255\177\217\227"
  41      31283188 
  41      5F724762 
  41      2C2C4CD6 
  41      279E6AAD 
  42 0086 83648843 		.ascii	"\203d\210C\322\355J\353\203i$\210\331-\350\207J% \350"
  42      D2ED4AEB 
  42      83692488 
  42      D92DE887 
  42      4A2520E8 
  43 009a BCBCFEF1 		.ascii	"\274\274\376\361$\332\372D\353\241\360\371\242\276N"
  43      24DAFA44 
  43      EBA1F0F9 
  43      A2BE4E
  44 00a9 38300345 		.ascii	"80\003E\012\\\212\343b\\PA`\026\255\014\027G\327V\245"
  44      0A5C8AE3 
  44      625C5041 
  44      6016AD0C 
  44      1747D756 
  45 00be BA6C8453 		.ascii	"\272l\204S\357\277\25754O\221p\353h5\025\006y}R\253"
  45      EFBFAF35 
  45      344F9170 
  45      EB683515 
  45      06797D52 
ARM GAS  C:\Users\Thomas\AppData\Local\Temp\ccaZv2Rq.s 			page 3


  46 00d3 19F9DC69 		.ascii	"\031\371\334i\271\035\304\357d\217\277\324G\262\024"
  46      B91DC4EF 
  46      648FBFD4 
  46      47B214
  47 00e2 AC110534 		.ascii	"\254\021\0054\333L\230G\004\264qe\251)\324\265\332\312"
  47      DB4C9847 
  47      04B47165 
  47      A929D4B5 
  47      DACA
  48 00f4 CBD77F11 		.ascii	"\313\327\177\021\223t\255\244\207R\331\001\337\356r"
  48      9374ADA4 
  48      8752D901 
  48      DFEE72
  49 0103 21C24B94 		.ascii	"!\302K\224\027!\2524\371\361?\350\203v\265\201\322\376"
  49      1721AA34 
  49      F9F13FE8 
  49      8376B581 
  49      D2FE
  50 0115 486522CA 		.ascii	"He\"\312\216\007\222;q\377]i\350\374\266<\224*\3778"
  50      8E07923B 
  50      71FF5D69 
  50      E8FCB63C 
  50      942AFF38 
  51 0129 D00E67F8 		.ascii	"\320\016g\370V-\257\327\231\222\211\364u\244\362*\226"
  51      562DAFD7 
  51      999289F4 
  51      75A4F22A 
  51      96
  52 013a C3A3204B 		.ascii	"\303\243 K\271\035, \216EPd,!\007\261\201{\177\2067"
  52      B91D2C20 
  52      8E455064 
  52      2C2107B1 
  52      817B7F86 
  53 014f 610D95F5 		.ascii	"a\015\225\365\314\277\250\2146\260\001\216\251+\313"
  53      CCBFA88C 
  53      36B0018E 
  53      A92BCB
  54 015e 047F8634 		.ascii	"\004\177\2064\217\240\244D\261hs\370\347D\314\252\334"
  54      8FA0A444 
  54      B16873F8 
  54      E744CCAA 
  54      DC
  55 016f 03E990EA 		.ascii	"\003\351\220\352mn\273\350\260\212[\371\214D\306\372"
  55      6D6EBBE8 
  55      B08A5BF9 
  55      8C44C6FA 
  56 017f 83B41073 		.ascii	"\203\264\020s\004\225\267\336<0\326\016\365\256h\241"
  56      0495B7DE 
  56      3C30D60E 
  56      F5AE68A1 
  57 018f BD8845A2 		.ascii	"\275\210E\242\206b\367\322\270\011t&|\020\272g\343\257"
  57      8662F7D2 
  57      B8097426 
  57      7C10BA67 
  57      E3AF
  58 01a1 507C1289 		.ascii	"P|\022\211\012\202\360\310e\236\377A\225n\247NQ\337"
  58      0A82F0C8 
ARM GAS  C:\Users\Thomas\AppData\Local\Temp\ccaZv2Rq.s 			page 4


  58      659EFF41 
  58      956EA74E 
  58      51DF
  59 01b3 5ADA521D 		.ascii	"Z\332R\035\336\035\257/\355{\335]\235\275\003}\031/"
  59      DE1DAF2F 
  59      ED7BDD5D 
  59      9DBD037D 
  59      192F
  60 01c5 95ECECBD 		.ascii	"\225\354\354\275q5\225\274\322u3\355gn\265e\204{7}{"
  60      713595BC 
  60      D27533ED 
  60      676EB565 
  60      847B377D 
  61 01da C03BD7EF 		.ascii	"\300;\327\357\247\375\236L{\217\337\377\017\253\354"
  61      A7FD9E4C 
  61      7B8FDFFF 
  61      0FABEC
  62 01e9 CE00     		.ascii	"\316\000"
  63              		.text
  64              		.section	.gnu.lto_P1_Latch_SetDriveMode.c0d694f7,"",%progbits
  65 0000 789C7D51 		.ascii	"x\234}Q;H\003A\020\235\267{\371HP\304JR\033\202(\021"
  65      3B480341 
  65      109DB77B 
  65      F94850C4 
  65      4A521B82 
  66 0016 0B7B41D0 		.ascii	"\013{A\320\306\"`\033\220\220\034\330h@\264\366\362"
  66      C622601B 
  66      90901CD8 
  66      6840B4F6 
  66      F2
  67 0027 B1B13236 		.ascii	"\261\26126\012! \212\370\211\032\321\3026\004\261P\210"
  67      0A21208A 
  67      F8891AD1 
  67      C23604B1 
  67      5088
  68 0039 9F4614D4 		.ascii	"\237F\024\324&~\"(\206\210\032$\304\331K\212\200\340"
  68      267E2228 
  68      86881A24 
  68      C4D94B8A 
  68      80E0
  69 004b 723B3B6F 		.ascii	"r;;ox\357\335\354\254\244\277\313\311\373\005D]|B\022"
  69      78EFDDEC 
  69      ACA4BFCB 
  69      C9FB0544 
  69      5D7C4212 
  70 005f C47C8E28 		.ascii	"\304|\216(l\027\200J\0104#0\203\202(\012\314gRK\016"
  70      6C17804A 
  70      08342330 
  70      8382280A 
  70      CC67524B 
  71 0074 F79A6118 		.ascii	"\367\232a\030\357+\207\355\263\355eAT\0225\033\254\303"
  71      EF2B87ED 
  71      B3ED6541 
  71      5412351B 
  71      ACC3
  72 0086 CD94A772 		.ascii	"\315\224\247ra\275Y\272A\234W\342W\227\302\265j\030"
  72      61BD59BA 
ARM GAS  C:\Users\Thomas\AppData\Local\Temp\ccaZv2Rq.s 			page 5


  72      419C57E2 
  72      5797C2B5 
  72      6A18
  73 0098 91CCC9AE 		.ascii	"\221\314\311\256\321\2172{n@\262\002\335Nt:\211\013"
  73      D18F327B 
  73      6E40B202 
  73      DD4E743A 
  73      890B
  74 00aa 844DB814 		.ascii	"\204M\270\024\271\030\253\\9\2541\366n\255yb\013Vn\213"
  74      B918AB5C 
  74      39AC31F6 
  74      6EAD7962 
  74      0B566E8B 
  75 00be D26D19A3 		.ascii	"\322m\031\243Z-\335\3067z\340\020\254\021\222\203\324"
  75      5A2DDDC6 
  75      377AE010 
  75      AC119283 
  75      D4
  76 00cf 54B040C9 		.ascii	"T\260@\311\255*\265\251`W\241Iq\210\362\274\325\015"
  76      AD2AB5A9 
  76      6057A149 
  76      7188F2BC 
  76      D50D
  77 00e1 1E18F029 		.ascii	"\036\030\360)o\220\375\234{Lh\312\367K\250\353\034W"
  77      6F90FD9C 
  77      7B4C68CA 
  77      F74BA8EB 
  77      1C57
  78 00f3 4B29F92C 		.ascii	"K)\371,\312B\213/\207\015Muq\237?\273\260\233%Rp\177"
  78      CA428B2F 
  78      870D4D75 
  78      719F3FBB 
  78      B09B2552 
  79 0109 F13CA725 		.ascii	"\361<\247%\221\010\307\270y\013Rpb\033<0\354 \011\272"
  79      9108C7B8 
  79      790B5270 
  79      621B3C30 
  79      EC2009BA 
  80 011d 41E4CE56 		.ascii	"A\344\316V\263\223\354\3108\372m\255a\215K\254\277~"
  80      B393ECC8 
  80      38FA6DAD 
  80      618D4BAC 
  80      BF7E
  81 012f 7B3F35ED 		.ascii	"{?5\355d\261Z_<\313]\266h\320\362gi\324\332\270\304"
  81      64B15A5F 
  81      3CCB5DB6 
  81      68D0F267 
  81      69D4DAB8 
  82 0144 DA8B83D7 		.ascii	"\332\213\203\327#\213\251m!\244MI\364\243N\261\233\177"
  82      238BA96D 
  82      21A44D49 
  82      F4A34EB1 
  82      9B7F
  83 0156 B035BA34 		.ascii	"\2605\2724q\225qv\001\012\377\327\373\036\367\316|\272"
  83      71957176 
  83      010AFFD7 
  83      FB1EF7CE 
ARM GAS  C:\Users\Thomas\AppData\Local\Temp\ccaZv2Rq.s 			page 6


  83      7CBA
  84 0168 4338F333 		.ascii	"C8\3633\250\330\352\375\362\374\026<&\036Z\207\3077"
  84      A8D8EAFD 
  84      F2FC163C 
  84      261E5A87 
  84      C737
  85 017a A44FE893 		.ascii	"\244O\350\223\376)=8:\022\232\236\014\350>\357Hh\240"
  85      FE293D38 
  85      3A129A9E 
  85      0CE83EEF 
  85      4868A0
  86 018d CFE7ED1D 		.ascii	"\317\347\355\035\035\366O\005\306<\001\322\306CA\375"
  86      1DF64F05 
  86      C63C01D2 
  86      C64341FD 
  87 019d 17604BB8 		.ascii	"\027`K\270\350"
  87      E8
  88              		.text
  89              		.section	.gnu.lto_P1_Latch_Read.c0d694f7,"",%progbits
  90 0000 789C654F 		.ascii	"x\234eO=HBQ\030\375\316\367\236?\341\022M\341,I BCK"
  90      3D484251 
  90      18FDCEF7 
  90      9E3FE112 
  90      4DE12C49 
  91 0018 6D35B434 		.ascii	"m5\2644\010\256\202\210=hJ\020\233}\232Y4Uca\220 \375"
  91      08AE8288 
  91      3D684A10 
  91      9B7D9A59 
  91      34556361 
  92 002f 82432D0D 		.ascii	"\202C-\015A5K\321\017\030\022\257!\205\332\224~\337"
  92      41354BD1 
  92      0F1812AF 
  92      2185DA94 
  92      7EDF
  93 0041 50F65D5F 		.ascii	"P\366]_[\027\356\371\356=\337\271\347\334O\243\377\313"
  93      5B17EEF9 
  93      EE3DDFB9 
  93      E7DC4FA3 
  93      FFCB
  94 0053 2F7B0244 		.ascii	"/{\002DCR\241\021x\365\222(\347e@\035\010\224ed\361"
  94      4352A111 
  94      78F59228 
  94      E765401D 
  94      08946564 
  95 0068 C21D46ED 		.ascii	"\302\035F\355\344\347\026\301\212i\346\333\353\247\017"
  95      E4E716C1 
  95      8A69E6DB 
  95      EBA70F
  96 0077 BEC5419B 		.ascii	"\276\305A\233\211^\231\020\362cX\371`\007A\022a\247"
  96      895E9910 
  96      F26358F9 
  96      60074112 
  96      61A7
  97 0089 F05DF7B9 		.ascii	"\360]\367\271\013\246i\366\253\2764v\341\226\014\252"
  97      0BA669F6 
  97      ABBE3476 
  97      E1960CAA 
ARM GAS  C:\Users\Thomas\AppData\Local\Temp\ccaZv2Rq.s 			page 7


  98 0099 0E9C99DD 		.ascii	"\016\234\231\335\356\321\373\332\3628< \233%Q@\027`"
  98      EED1FBDA 
  98      F2383C20 
  98      9B255140 
  98      1760
  99 00ab 97023729 		.ascii	"\227\0027)Oj\012\250\370\026\263\252Z\003\027\037+\326"
  99      4F6A0AA8 
  99      F816B3AA 
  99      5A03171F 
  99      2BD6
 100 00bd D698F2F9 		.ascii	"\326\230\362\371dM\"\236n\312\355\276g\266Y\333.\347"
 100      644D229E 
 100      6ECAEDBE 
 100      67B659DB 
 100      2EE7
 101 00cf 4C5DA53E 		.ascii	"L]\245>6\257\256\275=\212\324\365\274S=\366\226\260"
 101      36AFAEBD 
 101      3D8AD4F5 
 101      BC533DF6 
 101      96B0
 102 00e1 992BC066 		.ascii	"\231+\300f\035{\360c\037\362K\034\240\004j`\341\253"
 102      1D7BF063 
 102      1FF24B1C 
 102      A0046A60 
 102      E1AB
 103 00f3 58D31C43 		.ascii	"X\323\034C8\236\033\365\326\233\246\014 3\035\212\266"
 103      389E1BF5 
 103      D69BA60C 
 103      20331D8A 
 103      B6
 104 0104 81BCE571 		.ascii	"\201\274\345q$\272\250\324#\253x\347r\030\227\220\010"
 104      24BAA8D4 
 104      23AB78E7 
 104      72189790 
 104      08
 105 0115 F444F74B 		.ascii	"\364D\367K!\207S4Y\300\337\2557\011\324\0042O \034\233"
 105      21875334 
 105      59C0DFAD 
 105      3709D404 
 105      324F201C 
 106 012a 32E68C74 		.ascii	"2\346\214t\"c\314\304\243\251\371t\322\210E\242\251"
 106      2263CCC4 
 106      A3A9F974 
 106      D28845A2 
 106      A9
 107 013b C9D15864 		.ascii	"\311\321Xd$>\235\310$g\303I\372\005\352\021{+"
 107      243E9DC8 
 107      2467C349 
 107      FA05EA11 
 107      7B2B
 108              		.text
 109              		.section	.gnu.lto_P1_Latch_ReadDataReg.c0d694f7,"",%progbits
 110 0000 789C654F 		.ascii	"x\234eO=HBQ\030\375\316\367\236?!A4\205\263$\205\010"
 110      3D484251 
 110      18FDCEF7 
 110      9E3F2141 
 110      3485B324 
ARM GAS  C:\Users\Thomas\AppData\Local\Temp\ccaZv2Rq.s 			page 8


 111 0016 0D2D8D35 		.ascii	"\015-\2155\2644\010\256\202\210=hJ\020\233}\232Z8Ec"
 111      B43408AE 
 111      82883D68 
 111      4A109B7D 
 111      9A5A3845 
 112 002b 21441065 		.ascii	"!D\020e\005\015M-\021N\015\222\224\201%\361Z\024jK\212"
 112      050D4D2D 
 112      114E0D92 
 112      948125F1 
 112      5A146A4B 
 113 0040 EA0D69DF 		.ascii	"\352\015i\337\365\265u\341\236\357\336\363\235{\316"
 113      F5B575E1 
 113      9EEFDEF3 
 113      9D7BCE
 114 004f FD34FABF 		.ascii	"\3754\372\277\374\262\347A4)\025\032\201\267n\210r^"
 114      FCB2E741 
 114      3429151A 
 114      81B76E88 
 114      725E
 115 0061 06D48140 		.ascii	"\006\324\201@YF\026\257\334c\324/\372M\004\017L3\377"
 115      594616AF 
 115      DC63D42F 
 115      FA4D040F 
 115      4C33FF
 116 0074 76D77CF2 		.ascii	"v\327|\362\025'l&zgB\310\217)\345\203C\004I\204\275"
 116      15276C26 
 116      7A6742C8 
 116      8F29E583 
 116      43044984 
 117 0089 C24FCBE7 		.ascii	"\302O\313\347.\230\2469\246\372\3228\202[2\350l\374"
 117      2E98A639 
 117      A6FAD238 
 117      825B32E8 
 117      6CFC
 118 009b CA1C0CCE 		.ascii	"\312\034\014\316\033\333\233\323\354\001\331,\211\002"
 118      1BDB9BD3 
 118      EC01D92C 
 118      8902
 119 00a9 BA00BB14 		.ascii	"\272\000\273\024\270IyRG@\305w\231U\325\332\250}\226"
 119      B8497952 
 119      4740C577 
 119      9955D5DA 
 119      A87D96
 120 00bc FBD539E5 		.ascii	"\373\3259\345\363\305\232D\024\257k\371\321\027\266"
 120      F3C59A44 
 120      14AF6BF9 
 120      D117B6
 121 00cb 59DBDBCF 		.ascii	"Y\333\333\317\231\272J}\3564n\275C\212\324\365\261l"
 121      99BA4A7D 
 121      EE346EBD 
 121      438AD4F5 
 121      B16C
 122 00dd 5D8E54B0 		.ascii	"]\216T\260\233+\300f\035U\370q\014\371%NP\001\265\261"
 122      9B2BC066 
 122      1D55F871 
 122      0CF9254E 
 122      5001B5B1 
ARM GAS  C:\Users\Thomas\AppData\Local\Temp\ccaZv2Rq.s 			page 9


 123 00f1 FE5DAA6B 		.ascii	"\376]\252k\216!\034\317\235V\367CS\006\220\231NE\333"
 123      8E211CCF 
 123      9D56F743 
 123      53069099 
 123      4E45DB
 124 0104 46DEF238 		.ascii	"F\336\3628\022]T\352\221U\272w9\214KH\004\206\242\207"
 124      125D54EA 
 124      9155BA77 
 124      398C4B48 
 124      0486A287 
 125 0118 8D90C329 		.ascii	"\215\220\303)\232,\340\3576\234\004j\002\231'\020\216"
 125      9A2CE0EF 
 125      369C046A 
 125      02992710 
 125      8E
 126 0129 2D1AAB46 		.ascii	"-\032\253F:\2211\226\343\321\324Z:i\304\"\321\324\302"
 126      3A913196 
 126      E3D1D45A 
 126      3A69C422 
 126      D1D4C2
 127 013c 6C2C3213 		.ascii	"l,2\023_Jd\222+\341$\375\002\245_z\257"
 127      5F4A6492 
 127      2BE124FD 
 127      02A55F7A 
 127      AF
 128              		.text
 129              		.section	.gnu.lto_.symbol_nodes.c0d694f7,"",%progbits
 130 0000 789C6366 		.ascii	"x\234cf``pb\200\002&\206z\006\206\011\347\030\030\352"
 130      60607062 
 130      80022686 
 130      7A068609 
 130      E71818EA 
 131 0014 EB19E62D 		.ascii	"\353\031\346-\340``b\254gD\3413\3253\241\360\231\353"
 131      E0606062 
 131      AC6744E1 
 131      33D533A1 
 131      F099EB
 132 0027 9991F90C 		.ascii	"\231\221\371\014\0003\356\020\336"
 132      0033EE10 
 132      DE
 133              		.text
 134              		.section	.gnu.lto_.refs.c0d694f7,"",%progbits
 135 0000 789C6366 		.ascii	"x\234cf```d\200\002\000\000=\000\005"
 135      60606064 
 135      80020000 
 135      3D0005
 136              		.text
 137              		.section	.gnu.lto_.decls.c0d694f7,"",%progbits
 138 0000 789C8D92 		.ascii	"x\234\215\222_HSq\024\307\177\347\376\256s\336\346\350"
 138      5F485371 
 138      14C77FE7 
 138      FEAE73DE 
 138      E6E8
 139 0012 A15446D0 		.ascii	"\241TF\320\240\020\002\021\"\002\337\212\024\364\241"
 139      A0100211 
 139      2202DF8A 
 139      14F4A1
ARM GAS  C:\Users\Thomas\AppData\Local\Temp\ccaZv2Rq.s 			page 10


 140 0021 6228D183 		.ascii	"b(\321\203\202\214y\321\275h\254\031\370P\375\232+u"
 140      828C79D1 
 140      BD68AC19 
 140      F850FD9A 
 140      2B75
 141 0033 4689142E 		.ascii	"F\211\024.#\035\3707K[\376\233\333\314m=\015\302\236"
 141      231DF837 
 141      4B5BFE9B 
 141      DBCC6D3D 
 141      0DC29E
 142 0046 44D027CD 		.ascii	"D\320'\315\027}\250&T,\250n\347\376\266\271e\023<p\356"
 142      177DA826 
 142      542CA86E 
 142      E7FEB6B9 
 142      65133C70 
 143 005b BDE7DEF3 		.ascii	"\275\347\336\363\371\236\363;\367PBH\021\020\242\240"
 143      F99EF33B 
 143      F7504248 
 143      1110A2A0 
 144 006b 5DA2840C 		.ascii	"]\242\204\014c\234\203n\"i\023\321\247\321g\321}\350"
 144      639C836E 
 144      226913D1 
 144      A7D167D1 
 144      7DE8
 145 007d 7EF2BF4D 		.ascii	"~\362\277Mgp\223\350\005\350K\350\213\311\357\220\314"
 145      677093E8 
 145      05E84BE8 
 145      8BC9EF90 
 145      CC
 146 008e D96FAAA6 		.ascii	"\331o\252\246f\037\027\316\302\316fa}\311\232)\256*"
 146      661F17CE 
 146      C2CE6661 
 146      7DC99A29 
 146      AE2A
 147 00a0 0BE7CBC2 		.ascii	"\013\347\313\302\371\017\301e;\343\256\000\376\251o"
 147      F90FC165 
 147      3BE3AE00 
 147      FEA96F
 148 00af CB47B605 		.ascii	"\313G\266\005\320KF5\014\364F\335\032\014u\222\250\206"
 148      D04B4635 
 148      0CF446DD 
 148      1A0C7592 
 148      A886
 149 00c1 ABA18E0E 		.ascii	"\253\241\216\016-\025@}\036ro\256H%\023\214\261N\026"
 149      2D15407D 
 149      1E726FAE 
 149      4825138C 
 149      B14E16
 150 00d4 0E435AE2 		.ascii	"\016CZ\342\336h\360a.2\005\022\017\037}\350\217P\036"
 150      DE68F061 
 150      2E320512 
 150      0F1F7DE8 
 150      8F501E
 151 00e7 2A2A27AC 		.ascii	"**'\254\255=\371IA*\356d\314\301b\275\214\026\021(1"
 151      AD3DF949 
 151      412AEE64 
 151      CCC162BD 
ARM GAS  C:\Users\Thomas\AppData\Local\Temp\ccaZv2Rq.s 			page 11


 151      8C161128 
 152 00fc C0190381 		.ascii	"\300\031\003\201)(\3064\230\200\022\002\257\300\000"
 152      2928C634 
 152      98801202 
 152      AFC000
 153 010b AFC14086 		.ascii	"\257\301@\206\261@lpe\375\004c\"L\202\004/\201\362\014"
 153      B1406C70 
 153      65FD0463 
 153      224C8204 
 153      2F81F20C 
 154 011f 3C865A21 		.ascii	"<\206Z!Y\264\347~\244G\024\005|\251\346\324\362n\277"
 154      59B4E77E 
 154      A4471405 
 154      7CA9E6D4 
 154      F26EBF
 155 0132 2B9B2342 		.ascii	"+\233#B\341S\024`=\355\354\250\010\246\002\030C\331"
 155      E1531460 
 155      3DEDECA8 
 155      08A60218 
 155      43D9
 156 0144 719425E0 		.ascii	"q\224%\340\205B\274\276\0011!\260\363 \030\324\323s"
 156      8542BCBE 
 156      013121B0 
 156      F32018D4 
 156      D373
 157 0156 FC68CF43 		.ascii	"\374h\317C_\327\264\306\001\346\361\306\\C\003\364\031"
 157      5FD7B4C6 
 157      01E6F1C6 
 157      5C4303F4 
 157      19
 158 0167 F338D81F 		.ascii	"\3638\330\037\005\333W!x\273\327\000Q\237\023\023\235"
 158      05DB5721 
 158      78BBD700 
 158      519F1313 
 158      9D
 159 0178 062382E3 		.ascii	"\006#\202\343\277\277Xi#\327x\037\367\006\200kx\002"
 159      BFBF5869 
 159      23D7781F 
 159      F706806B 
 159      7802
 160 018a 439A280B 		.ascii	"C\232(\013+\312\005\216\317d\3403)|\226\343]N/\315\354"
 160      2BCA058E 
 160      CF64E033 
 160      297C96E3 
 160      5D4E2FCD 
 161 019f 573D4ABA 		.ascii	"W=J\272\3419\336pm\262\337.\347\374\035z\233\227\332"
 161      E139DE70 
 161      6DB2DF2E 
 161      E7FC1D7A 
 161      9B97DA
 162 01b2 E8FB1CA5 		.ascii	"\350\373\034\245\274\324\306\316\226\034v\262_\212B"
 162      BCD4C6CE 
 162      961C76B2 
 162      5F8A42
 163 01c1 793ECC67 		.ascii	"y>\314g\024\233O\025\363\361b\361A\307\272\226v\003"
 163      149B4F15 
 163      F3F162F1 
ARM GAS  C:\Users\Thomas\AppData\Local\Temp\ccaZv2Rq.s 			page 12


 163      41C7BA96 
 163      7603
 164 01d3 9718D91C 		.ascii	"\227\030\331\034\035HHx^\214\244\272U\005\0262\004\026"
 164      1D484878 
 164      5E8CA4BA 
 164      55051632 
 164      0416
 165 01e5 52027E2E 		.ascii	"R\002~.\300\372\272\207\265\324\223\020\230\373\341"
 165      C0FABA87 
 165      B5D49310 
 165      98FBE1
 166 01f4 F2E74BF8 		.ascii	"\362\347K\370O\333\017\361Oq\013V>\272V\363\022[\260"
 166      4FDB0FF1 
 166      4F710B56 
 166      3EBA56F3 
 166      125BB0
 167 0207 9F7877E0 		.ascii	"\237xw\340\026\304\267\252\234\354\",\342X\002\351-"
 167      16C4B7AA 
 167      9CEC222C 
 167      E25802E9 
 167      2D
 168 0218 08427A0D 		.ascii	"\010Bz\015\272>\365/\353t.u\265p\204yQ=ON\317p\011t"
 168      BA3EF52F 
 168      EB742E75 
 168      B5708479 
 168      513D4F4E 
 169 0230 FC0478DF 		.ascii	"\374\004x\337\025hd,\262.\201A2\270q\207\343'!\214J"
 169      1568642C 
 169      B22E8141 
 169      32B87187 
 169      E327218C 
 170 0245 9DEAF863 		.ascii	"\235\352\370c\016F\335\372TG\204\177 \020A\231\020\312"
 170      0E46DDFA 
 170      5447847F 
 170      20104199 
 170      10CA
 171 0257 A8D9E16D 		.ascii	"\250\331\341mE\271\253$\354q.O\340\227\234Vk\263\275"
 171      45B9AB24 
 171      EC712E4F 
 171      E0979C56 
 171      6BB3BD
 172 026a 4C5379F5 		.ascii	"LSy\365\232\261\234\234*\255\253\224\233e\233\331.7"
 172      9AB19C9C 
 172      2AADAB94 
 172      9B659BD9 
 172      2E37
 173 027c D4D7B4B4 		.ascii	"\324\327\264\264\332,r\235\251\246\245\374|\235\245"
 173      DA2C729D 
 173      A9A6A5FC 
 173      7C9DA5
 174 028b CDDE7643 		.ascii	"\315\336vC\276Y\332D\364\246\263\365\227\315vKS\375"
 174      BE59DA44 
 174      F4A6B3F5 
 174      97CD764B 
 174      53FD
 175 029d 759BD52E 		.ascii	"u\233\325.\237>\020I\345\225Z\310\361=\246F\266W\330"
 175      9F3E1049 
ARM GAS  C:\Users\Thomas\AppData\Local\Temp\ccaZv2Rq.s 			page 13


 175      E5955AC8 
 175      F13DA646 
 175      B657D8
 176 02b0 ACB7E42B 		.ascii	"\254\267\344+-\015r\376\336\333j\331\334p\354\237\250"
 176      2D0D72FE 
 176      DEDB6AD9 
 176      DC70EC9F 
 176      A8
 177 02c1 C26C3757 		.ascii	"\302l7W\313\215\242Mn,\373\013\3034M\263"
 177      CB8DA24D 
 177      6E2CFB0B 
 177      C3344DB3 
 178              		.text
 179              		.section	.gnu.lto_.symtab.c0d694f7,"",%progbits
 180 0000 50315F4C 		.ascii	"P1_Latch_Write\000\000\000\000\000\000\000\000\000\000"
 180      61746368 
 180      5F577269 
 180      74650000 
 180      00000000 
 181 0018 0000B200 		.ascii	"\000\000\262\000\000\000P1_Latch_SetDriveMode\000\000"
 181      00005031 
 181      5F4C6174 
 181      63685F53 
 181      65744472 
 182 0035 00000000 		.ascii	"\000\000\000\000\000\000\000\000\000\000\264\000\000"
 182      00000000 
 182      0000B400 
 182      00
 183 0042 0050315F 		.ascii	"\000P1_Latch_Read\000\000\000\000\000\000\000\000\000"
 183      4C617463 
 183      685F5265 
 183      61640000 
 183      00000000 
 184 0059 000000B7 		.ascii	"\000\000\000\267\000\000\000P1_Latch_ReadDataReg\000"
 184      00000050 
 184      315F4C61 
 184      7463685F 
 184      52656164 
 185 0075 00000000 		.ascii	"\000\000\000\000\000\000\000\000\000\000\000\271\000"
 185      00000000 
 185      000000B9 
 185      00
 186 0082 0000     		.ascii	"\000\000"
 187              		.text
 188              		.section	.gnu.lto_.opts,"",%progbits
 189 0000 272D666E 		.ascii	"'-fno-trapv' '-mcpu=cortex-m3' '-mthumb' '-g' '-O3'"
 189      6F2D7472 
 189      61707627 
 189      20272D6D 
 189      6370753D 
 190 0033 20272D66 		.ascii	" '-ffunction-sections' '-finline-functions' '-flto'"
 190      66756E63 
 190      74696F6E 
 190      2D736563 
 190      74696F6E 
 191 0066 20272D66 		.ascii	" '-ffat-lto-objects'\000"
 191      6661742D 
ARM GAS  C:\Users\Thomas\AppData\Local\Temp\ccaZv2Rq.s 			page 14


 191      6C746F2D 
 191      6F626A65 
 191      63747327 
 192              		.text
 193              		.cfi_sections	.debug_frame
 194              		.section	.text.P1_Latch_Write,"ax",%progbits
 195              		.align	2
 196              		.global	P1_Latch_Write
 197              		.thumb
 198              		.thumb_func
 199              		.type	P1_Latch_Write, %function
 200              	P1_Latch_Write:
 201              	.LFB0:
 202              		.file 1 ".\\Generated_Source\\PSoC5\\P1_Latch.c"
   1:.\Generated_Source\PSoC5/P1_Latch.c **** /*******************************************************************************
   2:.\Generated_Source\PSoC5/P1_Latch.c **** * File Name: P1_Latch.c  
   3:.\Generated_Source\PSoC5/P1_Latch.c **** * Version 2.20
   4:.\Generated_Source\PSoC5/P1_Latch.c **** *
   5:.\Generated_Source\PSoC5/P1_Latch.c **** * Description:
   6:.\Generated_Source\PSoC5/P1_Latch.c **** *  This file contains API to enable firmware control of a Pins component.
   7:.\Generated_Source\PSoC5/P1_Latch.c **** *
   8:.\Generated_Source\PSoC5/P1_Latch.c **** * Note:
   9:.\Generated_Source\PSoC5/P1_Latch.c **** *
  10:.\Generated_Source\PSoC5/P1_Latch.c **** ********************************************************************************
  11:.\Generated_Source\PSoC5/P1_Latch.c **** * Copyright 2008-2015, Cypress Semiconductor Corporation.  All rights reserved.
  12:.\Generated_Source\PSoC5/P1_Latch.c **** * You may use this file only in accordance with the license, terms, conditions, 
  13:.\Generated_Source\PSoC5/P1_Latch.c **** * disclaimers, and limitations in the end user license agreement accompanying 
  14:.\Generated_Source\PSoC5/P1_Latch.c **** * the software package with which this file was provided.
  15:.\Generated_Source\PSoC5/P1_Latch.c **** *******************************************************************************/
  16:.\Generated_Source\PSoC5/P1_Latch.c **** 
  17:.\Generated_Source\PSoC5/P1_Latch.c **** #include "cytypes.h"
  18:.\Generated_Source\PSoC5/P1_Latch.c **** #include "P1_Latch.h"
  19:.\Generated_Source\PSoC5/P1_Latch.c **** 
  20:.\Generated_Source\PSoC5/P1_Latch.c **** /* APIs are not generated for P15[7:6] on PSoC 5 */
  21:.\Generated_Source\PSoC5/P1_Latch.c **** #if !(CY_PSOC5A &&\
  22:.\Generated_Source\PSoC5/P1_Latch.c **** 	 P1_Latch__PORT == 15 && ((P1_Latch__MASK & 0xC0) != 0))
  23:.\Generated_Source\PSoC5/P1_Latch.c **** 
  24:.\Generated_Source\PSoC5/P1_Latch.c **** 
  25:.\Generated_Source\PSoC5/P1_Latch.c **** /*******************************************************************************
  26:.\Generated_Source\PSoC5/P1_Latch.c **** * Function Name: P1_Latch_Write
  27:.\Generated_Source\PSoC5/P1_Latch.c **** ****************************************************************************//**
  28:.\Generated_Source\PSoC5/P1_Latch.c **** *
  29:.\Generated_Source\PSoC5/P1_Latch.c **** * \brief Writes the value to the physical port (data output register), masking
  30:.\Generated_Source\PSoC5/P1_Latch.c **** *  and shifting the bits appropriately. 
  31:.\Generated_Source\PSoC5/P1_Latch.c **** *
  32:.\Generated_Source\PSoC5/P1_Latch.c **** * The data output register controls the signal applied to the physical pin in 
  33:.\Generated_Source\PSoC5/P1_Latch.c **** * conjunction with the drive mode parameter. This function avoids changing 
  34:.\Generated_Source\PSoC5/P1_Latch.c **** * other bits in the port by using the appropriate method (read-modify-write or
  35:.\Generated_Source\PSoC5/P1_Latch.c **** * bit banding).
  36:.\Generated_Source\PSoC5/P1_Latch.c **** *
  37:.\Generated_Source\PSoC5/P1_Latch.c **** * <b>Note</b> This function should not be used on a hardware digital output pin 
  38:.\Generated_Source\PSoC5/P1_Latch.c **** * as it is driven by the hardware signal attached to it.
  39:.\Generated_Source\PSoC5/P1_Latch.c **** *
  40:.\Generated_Source\PSoC5/P1_Latch.c **** * \param value
  41:.\Generated_Source\PSoC5/P1_Latch.c **** *  Value to write to the component instance.
  42:.\Generated_Source\PSoC5/P1_Latch.c **** *
  43:.\Generated_Source\PSoC5/P1_Latch.c **** * \return 
ARM GAS  C:\Users\Thomas\AppData\Local\Temp\ccaZv2Rq.s 			page 15


  44:.\Generated_Source\PSoC5/P1_Latch.c **** *  None 
  45:.\Generated_Source\PSoC5/P1_Latch.c **** *
  46:.\Generated_Source\PSoC5/P1_Latch.c **** * \sideeffect
  47:.\Generated_Source\PSoC5/P1_Latch.c **** *  If you use read-modify-write operations that are not atomic; the Interrupt 
  48:.\Generated_Source\PSoC5/P1_Latch.c **** *  Service Routines (ISR) can cause corruption of this function. An ISR that 
  49:.\Generated_Source\PSoC5/P1_Latch.c **** *  interrupts this function and performs writes to the Pins component data 
  50:.\Generated_Source\PSoC5/P1_Latch.c **** *  register can cause corrupted port data. To avoid this issue, you should 
  51:.\Generated_Source\PSoC5/P1_Latch.c **** *  either use the Per-Pin APIs (primary method) or disable interrupts around 
  52:.\Generated_Source\PSoC5/P1_Latch.c **** *  this function.
  53:.\Generated_Source\PSoC5/P1_Latch.c **** *
  54:.\Generated_Source\PSoC5/P1_Latch.c **** * \funcusage
  55:.\Generated_Source\PSoC5/P1_Latch.c **** *  \snippet P1_Latch_SUT.c usage_P1_Latch_Write
  56:.\Generated_Source\PSoC5/P1_Latch.c **** *******************************************************************************/
  57:.\Generated_Source\PSoC5/P1_Latch.c **** void P1_Latch_Write(uint8 value)
  58:.\Generated_Source\PSoC5/P1_Latch.c **** {
 203              		.loc 1 58 0
 204              		.cfi_startproc
 205              		@ args = 0, pretend = 0, frame = 0
 206              		@ frame_needed = 0, uses_anonymous_args = 0
 207              		@ link register save eliminated.
 208              	.LVL0:
  59:.\Generated_Source\PSoC5/P1_Latch.c ****     uint8 staticBits = (P1_Latch_DR & (uint8)(~P1_Latch_MASK));
 209              		.loc 1 59 0
 210 0000 044A     		ldr	r2, .L2
  60:.\Generated_Source\PSoC5/P1_Latch.c ****     P1_Latch_DR = staticBits | ((uint8)(value << P1_Latch_SHIFT) & P1_Latch_MASK);
 211              		.loc 1 60 0
 212 0002 4000     		lsls	r0, r0, #1
 213              	.LVL1:
  59:.\Generated_Source\PSoC5/P1_Latch.c ****     uint8 staticBits = (P1_Latch_DR & (uint8)(~P1_Latch_MASK));
 214              		.loc 1 59 0
 215 0004 1378     		ldrb	r3, [r2]	@ zero_extendqisi2
 216              	.LVL2:
 217              		.loc 1 60 0
 218 0006 00F00200 		and	r0, r0, #2
  59:.\Generated_Source\PSoC5/P1_Latch.c ****     uint8 staticBits = (P1_Latch_DR & (uint8)(~P1_Latch_MASK));
 219              		.loc 1 59 0
 220 000a 03F0FD03 		and	r3, r3, #253
 221              	.LVL3:
 222              		.loc 1 60 0
 223 000e 1843     		orrs	r0, r0, r3
 224 0010 1070     		strb	r0, [r2]
 225 0012 7047     		bx	lr
 226              	.L3:
 227              		.align	2
 228              	.L2:
 229 0014 20510040 		.word	1073762592
 230              		.cfi_endproc
 231              	.LFE0:
 232              		.size	P1_Latch_Write, .-P1_Latch_Write
 233              		.section	.text.P1_Latch_SetDriveMode,"ax",%progbits
 234              		.align	2
 235              		.global	P1_Latch_SetDriveMode
 236              		.thumb
 237              		.thumb_func
 238              		.type	P1_Latch_SetDriveMode, %function
 239              	P1_Latch_SetDriveMode:
 240              	.LFB1:
ARM GAS  C:\Users\Thomas\AppData\Local\Temp\ccaZv2Rq.s 			page 16


  61:.\Generated_Source\PSoC5/P1_Latch.c **** }
  62:.\Generated_Source\PSoC5/P1_Latch.c **** 
  63:.\Generated_Source\PSoC5/P1_Latch.c **** 
  64:.\Generated_Source\PSoC5/P1_Latch.c **** /*******************************************************************************
  65:.\Generated_Source\PSoC5/P1_Latch.c **** * Function Name: P1_Latch_SetDriveMode
  66:.\Generated_Source\PSoC5/P1_Latch.c **** ****************************************************************************//**
  67:.\Generated_Source\PSoC5/P1_Latch.c **** *
  68:.\Generated_Source\PSoC5/P1_Latch.c **** * \brief Sets the drive mode for each of the Pins component's pins.
  69:.\Generated_Source\PSoC5/P1_Latch.c **** * 
  70:.\Generated_Source\PSoC5/P1_Latch.c **** * <b>Note</b> This affects all pins in the Pins component instance. Use the
  71:.\Generated_Source\PSoC5/P1_Latch.c **** * Per-Pin APIs if you wish to control individual pin's drive modes.
  72:.\Generated_Source\PSoC5/P1_Latch.c **** *
  73:.\Generated_Source\PSoC5/P1_Latch.c **** * \param mode
  74:.\Generated_Source\PSoC5/P1_Latch.c **** *  Mode for the selected signals. Valid options are documented in 
  75:.\Generated_Source\PSoC5/P1_Latch.c **** *  \ref driveMode.
  76:.\Generated_Source\PSoC5/P1_Latch.c **** *
  77:.\Generated_Source\PSoC5/P1_Latch.c **** * \return
  78:.\Generated_Source\PSoC5/P1_Latch.c **** *  None
  79:.\Generated_Source\PSoC5/P1_Latch.c **** *
  80:.\Generated_Source\PSoC5/P1_Latch.c **** * \sideeffect
  81:.\Generated_Source\PSoC5/P1_Latch.c **** *  If you use read-modify-write operations that are not atomic, the ISR can
  82:.\Generated_Source\PSoC5/P1_Latch.c **** *  cause corruption of this function. An ISR that interrupts this function 
  83:.\Generated_Source\PSoC5/P1_Latch.c **** *  and performs writes to the Pins component Drive Mode registers can cause 
  84:.\Generated_Source\PSoC5/P1_Latch.c **** *  corrupted port data. To avoid this issue, you should either use the Per-Pin
  85:.\Generated_Source\PSoC5/P1_Latch.c **** *  APIs (primary method) or disable interrupts around this function.
  86:.\Generated_Source\PSoC5/P1_Latch.c **** *
  87:.\Generated_Source\PSoC5/P1_Latch.c **** * \funcusage
  88:.\Generated_Source\PSoC5/P1_Latch.c **** *  \snippet P1_Latch_SUT.c usage_P1_Latch_SetDriveMode
  89:.\Generated_Source\PSoC5/P1_Latch.c **** *******************************************************************************/
  90:.\Generated_Source\PSoC5/P1_Latch.c **** void P1_Latch_SetDriveMode(uint8 mode)
  91:.\Generated_Source\PSoC5/P1_Latch.c **** {
 241              		.loc 1 91 0
 242              		.cfi_startproc
 243              		@ args = 0, pretend = 0, frame = 0
 244              		@ frame_needed = 0, uses_anonymous_args = 0
 245              		@ link register save eliminated.
 246              	.LVL4:
  92:.\Generated_Source\PSoC5/P1_Latch.c **** 	CyPins_SetPinDriveMode(P1_Latch_0, mode);
 247              		.loc 1 92 0
 248 0000 044A     		ldr	r2, .L5
 249 0002 00F00E00 		and	r0, r0, #14
 250              	.LVL5:
 251 0006 1378     		ldrb	r3, [r2]	@ zero_extendqisi2
 252 0008 03F0F103 		and	r3, r3, #241
 253 000c 1843     		orrs	r0, r0, r3
 254 000e 1070     		strb	r0, [r2]
 255 0010 7047     		bx	lr
 256              	.L6:
 257 0012 00BF     		.align	2
 258              	.L5:
 259 0014 11500040 		.word	1073762321
 260              		.cfi_endproc
 261              	.LFE1:
 262              		.size	P1_Latch_SetDriveMode, .-P1_Latch_SetDriveMode
 263              		.section	.text.P1_Latch_Read,"ax",%progbits
 264              		.align	2
 265              		.global	P1_Latch_Read
ARM GAS  C:\Users\Thomas\AppData\Local\Temp\ccaZv2Rq.s 			page 17


 266              		.thumb
 267              		.thumb_func
 268              		.type	P1_Latch_Read, %function
 269              	P1_Latch_Read:
 270              	.LFB2:
  93:.\Generated_Source\PSoC5/P1_Latch.c **** }
  94:.\Generated_Source\PSoC5/P1_Latch.c **** 
  95:.\Generated_Source\PSoC5/P1_Latch.c **** 
  96:.\Generated_Source\PSoC5/P1_Latch.c **** /*******************************************************************************
  97:.\Generated_Source\PSoC5/P1_Latch.c **** * Function Name: P1_Latch_Read
  98:.\Generated_Source\PSoC5/P1_Latch.c **** ****************************************************************************//**
  99:.\Generated_Source\PSoC5/P1_Latch.c **** *
 100:.\Generated_Source\PSoC5/P1_Latch.c **** * \brief Reads the associated physical port (pin status register) and masks 
 101:.\Generated_Source\PSoC5/P1_Latch.c **** *  the required bits according to the width and bit position of the component
 102:.\Generated_Source\PSoC5/P1_Latch.c **** *  instance. 
 103:.\Generated_Source\PSoC5/P1_Latch.c **** *
 104:.\Generated_Source\PSoC5/P1_Latch.c **** * The pin's status register returns the current logic level present on the 
 105:.\Generated_Source\PSoC5/P1_Latch.c **** * physical pin.
 106:.\Generated_Source\PSoC5/P1_Latch.c **** *
 107:.\Generated_Source\PSoC5/P1_Latch.c **** * \return 
 108:.\Generated_Source\PSoC5/P1_Latch.c **** *  The current value for the pins in the component as a right justified number.
 109:.\Generated_Source\PSoC5/P1_Latch.c **** *
 110:.\Generated_Source\PSoC5/P1_Latch.c **** * \funcusage
 111:.\Generated_Source\PSoC5/P1_Latch.c **** *  \snippet P1_Latch_SUT.c usage_P1_Latch_Read  
 112:.\Generated_Source\PSoC5/P1_Latch.c **** *******************************************************************************/
 113:.\Generated_Source\PSoC5/P1_Latch.c **** uint8 P1_Latch_Read(void)
 114:.\Generated_Source\PSoC5/P1_Latch.c **** {
 271              		.loc 1 114 0
 272              		.cfi_startproc
 273              		@ args = 0, pretend = 0, frame = 0
 274              		@ frame_needed = 0, uses_anonymous_args = 0
 275              		@ link register save eliminated.
 115:.\Generated_Source\PSoC5/P1_Latch.c ****     return (P1_Latch_PS & P1_Latch_MASK) >> P1_Latch_SHIFT;
 276              		.loc 1 115 0
 277 0000 024B     		ldr	r3, .L8
 278 0002 1878     		ldrb	r0, [r3]	@ zero_extendqisi2
 116:.\Generated_Source\PSoC5/P1_Latch.c **** }
 279              		.loc 1 116 0
 280 0004 C0F34000 		ubfx	r0, r0, #1, #1
 281 0008 7047     		bx	lr
 282              	.L9:
 283 000a 00BF     		.align	2
 284              	.L8:
 285 000c 21510040 		.word	1073762593
 286              		.cfi_endproc
 287              	.LFE2:
 288              		.size	P1_Latch_Read, .-P1_Latch_Read
 289              		.section	.text.P1_Latch_ReadDataReg,"ax",%progbits
 290              		.align	2
 291              		.global	P1_Latch_ReadDataReg
 292              		.thumb
 293              		.thumb_func
 294              		.type	P1_Latch_ReadDataReg, %function
 295              	P1_Latch_ReadDataReg:
 296              	.LFB3:
 117:.\Generated_Source\PSoC5/P1_Latch.c **** 
 118:.\Generated_Source\PSoC5/P1_Latch.c **** 
ARM GAS  C:\Users\Thomas\AppData\Local\Temp\ccaZv2Rq.s 			page 18


 119:.\Generated_Source\PSoC5/P1_Latch.c **** /*******************************************************************************
 120:.\Generated_Source\PSoC5/P1_Latch.c **** * Function Name: P1_Latch_ReadDataReg
 121:.\Generated_Source\PSoC5/P1_Latch.c **** ****************************************************************************//**
 122:.\Generated_Source\PSoC5/P1_Latch.c **** *
 123:.\Generated_Source\PSoC5/P1_Latch.c **** * \brief Reads the associated physical port's data output register and masks 
 124:.\Generated_Source\PSoC5/P1_Latch.c **** *  the correct bits according to the width and bit position of the component 
 125:.\Generated_Source\PSoC5/P1_Latch.c **** *  instance. 
 126:.\Generated_Source\PSoC5/P1_Latch.c **** *
 127:.\Generated_Source\PSoC5/P1_Latch.c **** * The data output register controls the signal applied to the physical pin in 
 128:.\Generated_Source\PSoC5/P1_Latch.c **** * conjunction with the drive mode parameter. This is not the same as the 
 129:.\Generated_Source\PSoC5/P1_Latch.c **** * preferred P1_Latch_Read() API because the 
 130:.\Generated_Source\PSoC5/P1_Latch.c **** * P1_Latch_ReadDataReg() reads the data register instead of the status 
 131:.\Generated_Source\PSoC5/P1_Latch.c **** * register. For output pins this is a useful function to determine the value 
 132:.\Generated_Source\PSoC5/P1_Latch.c **** * just written to the pin.
 133:.\Generated_Source\PSoC5/P1_Latch.c **** *
 134:.\Generated_Source\PSoC5/P1_Latch.c **** * \return 
 135:.\Generated_Source\PSoC5/P1_Latch.c **** *  The current value of the data register masked and shifted into a right 
 136:.\Generated_Source\PSoC5/P1_Latch.c **** *  justified number for the component instance.
 137:.\Generated_Source\PSoC5/P1_Latch.c **** *
 138:.\Generated_Source\PSoC5/P1_Latch.c **** * \funcusage
 139:.\Generated_Source\PSoC5/P1_Latch.c **** *  \snippet P1_Latch_SUT.c usage_P1_Latch_ReadDataReg 
 140:.\Generated_Source\PSoC5/P1_Latch.c **** *******************************************************************************/
 141:.\Generated_Source\PSoC5/P1_Latch.c **** uint8 P1_Latch_ReadDataReg(void)
 142:.\Generated_Source\PSoC5/P1_Latch.c **** {
 297              		.loc 1 142 0
 298              		.cfi_startproc
 299              		@ args = 0, pretend = 0, frame = 0
 300              		@ frame_needed = 0, uses_anonymous_args = 0
 301              		@ link register save eliminated.
 143:.\Generated_Source\PSoC5/P1_Latch.c ****     return (P1_Latch_DR & P1_Latch_MASK) >> P1_Latch_SHIFT;
 302              		.loc 1 143 0
 303 0000 024B     		ldr	r3, .L11
 304 0002 1878     		ldrb	r0, [r3]	@ zero_extendqisi2
 144:.\Generated_Source\PSoC5/P1_Latch.c **** }
 305              		.loc 1 144 0
 306 0004 C0F34000 		ubfx	r0, r0, #1, #1
 307 0008 7047     		bx	lr
 308              	.L12:
 309 000a 00BF     		.align	2
 310              	.L11:
 311 000c 20510040 		.word	1073762592
 312              		.cfi_endproc
 313              	.LFE3:
 314              		.size	P1_Latch_ReadDataReg, .-P1_Latch_ReadDataReg
 315              		.text
 316              	.Letext0:
 317              		.file 2 ".\\Generated_Source\\PSoC5\\cytypes.h"