ARM GAS  C:\Users\Thomas\AppData\Local\Temp\ccwGRabP.s 			page 1


   1              		.syntax unified
   2              		.cpu cortex-m3
   3              		.fpu softvfp
   4              		.eabi_attribute 20, 1
   5              		.eabi_attribute 21, 1
   6              		.eabi_attribute 23, 3
   7              		.eabi_attribute 24, 1
   8              		.eabi_attribute 25, 1
   9              		.eabi_attribute 26, 1
  10              		.eabi_attribute 30, 2
  11              		.eabi_attribute 34, 1
  12              		.eabi_attribute 18, 4
  13              		.thumb
  14              		.file	"P1_RegD1_PM.c"
  15              		.text
  16              	.Ltext0:
  17              		.section	.gnu.lto_.profile.c0d69b0b,"",%progbits
  18 0000 789C6366 		.ascii	"x\234cf```a\200\000F\006cY\000\000\367\000Y"
  18      60606061 
  18      80004606 
  18      63590000 
  18      F70059
  19              		.text
  20              		.section	.gnu.lto_.jmpfuncs.c0d69b0b,"",%progbits
  21 0000 789C6366 		.ascii	"x\234cf\300\016\004\2404\013\0203100C\231\014\000\002"
  21      C00E04A0 
  21      340B1033 
  21      31303043 
  21      990C0002 
  22 0014 C70021   		.ascii	"\307\000!"
  23              		.text
  24              		.section	.gnu.lto_.inline.c0d69b0b,"",%progbits
  25 0000 789C6366 		.ascii	"x\234cf\300\016\"\2404\013\003\003;\033#\003\023\307"
  25      C00E22A0 
  25      340B0303 
  25      3B1B2303 
  25      13C7
  26 0012 013B06B6 		.ascii	"\001;\006\266\005\362L 1&L!f\006\036\021\240\220@C-"
  26      05F24C20 
  26      31264C21 
  26      66061E11 
  26      A0904043 
  27 0027 5C88910B 		.ascii	"\\\210\221\013\254\235\233\027(\316\267!\027U\234\001"
  27      AC9D9B17 
  27      28CEB721 
  27      17559C01 
  28 0037 00917408 		.ascii	"\000\221t\010="
  28      3D
  29              		.text
  30              		.section	.gnu.lto_.pureconst.c0d69b0b,"",%progbits
  31 0000 789C6366 		.ascii	"x\234cf``\340d\200\000\026\006)&)f)\026)\000\002\321"
  31      6060E064 
  31      80001606 
  31      29262966 
  31      29162900 
  32 0016 0082     		.ascii	"\000\202"
  33              		.text
ARM GAS  C:\Users\Thomas\AppData\Local\Temp\ccwGRabP.s 			page 2


  34              		.section	.gnu.lto_P1_RegD1_SaveConfig.c0d69b0b,"",%progbits
  35 0000 789C8D91 		.ascii	"x\234\215\221\313+\005a\030\306\337\347=c\034Y\220\245"
  35      CB2B0561 
  35      18C6DFE7 
  35      3D631C59 
  35      90A5
  36 0012 BD4E0A65 		.ascii	"\275N\012e\341/\240\254\324\211\355\251\223\230\354"
  36      E12FA0AC 
  36      D489EDA9 
  36      9398EC
  37 0021 28B19419 		.ascii	"(\261\224\031f\341\222K\262P.\213Sr9\356\227\375`\247"
  37      66E1924B 
  37      B2502E8B 
  37      537239EE 
  37      97FD60A7 
  38 0035 DC529405 		.ascii	"\334R\224\005\251\243\330\310\245\216&\327\367\035\271"
  38      A9A3D8C8 
  38      A58E26D7 
  38      F71DB9
  39 0044 44C9D437 		.ascii	"D\311\3247\337|\337\373|\317\373{\276\011\321\357'_"
  39      DF7CDFFB 
  39      7CCFFB7B 
  39      BE09D1EF 
  39      275F
  40 0056 C625880A 		.ascii	"\306%\210\012eF\210\300\203\273DN\230\001\375 P;\243"
  40      654688C0 
  40      83BB444E 
  40      9801FD20 
  40      503BA3
  41 0069 1D577CCB 		.ascii	"\035W|\313\030\364\222#\331\221I\333\266o\022;N\324"
  41      18F49223 
  41      D99149DB 
  41      B66F123B 
  41      4ED4
  42 007b 83CF44F7 		.ascii	"\203\317D\367\374\356\203)DHD\267\356\363q\266\351\212"
  42      FCEE8329 
  42      444844B7 
  42      EEF371B6 
  42      E98A
  43 008d 28F7BD86 		.ascii	"(\367\275\206i\230\342O\213y\236\375\372z\277\276\221"
  43      6998E24F 
  43      8B799EFD 
  43      FA7ABFBE 
  43      91
  44 009e 86C9E433 		.ascii	"\206\311\3443\014}\021\245D\244\255.\230u\016\235`3"
  44      0C7D11A5 
  44      44A4AD2E 
  44      98750E9D 
  44      6033
  45 00b0 DD737D94 		.ascii	"\335s}\224\245\347\036X\373\366vy\373\231\227\3543\273"
  45      A5E71E58 
  45      FBF67679 
  45      FB9997EC 
  45      33BB
  46 00c2 DB8E6D68 		.ascii	"\333\216mh\227\263\324\336A8\330\"]v\367m\235\345\214"
  46      97B3D4DE 
  46      4138D822 
ARM GAS  C:\Users\Thomas\AppData\Local\Temp\ccwGRabP.s 			page 3


  46      5D76F76D 
  46      9DE58C
  47 00d5 63D47185 		.ascii	"c\324q\205)\204\031\344c\026\222\014I\214\203N\3201"
  47      298419E4 
  47      6316920C 
  47      498C834E 
  47      D031
  48 00e7 745EA07E 		.ascii	"t^\240~\"\2358\354_\340\266G\273\313\016\373l<+\341"
  48      229D38EC 
  48      5FE0B647 
  48      BBCB0EFB 
  48      6C3C2BE1 
  49 00fb 773F2358 		.ascii	"w?#XN;\356\030\324\317VU\006\346\320\206y5\224\332\313"
  49      4E3BEE18 
  49      D4CF5655 
  49      06E6D086 
  49      793594DA 
  50 0110 DCC08A59 		.ascii	"\334\300\212Y\234\224\200^\221\317&\026Dx\027\\\002"
  50      9C94805E 
  50      91CF2616 
  50      4478175C 
  50      02
  51 0121 16512CC4 		.ascii	"\026Q,\304\024$H\177$0\344L\372f\363\211\003\334\341"
  51      1424487F 
  51      2430E44C 
  51      FA66F389 
  51      03DCE1
  52 0134 8F049D87 		.ascii	"\217\004\235\207\211\003\363\013y\351\023y\371\237\310"
  52      8903F30B 
  52      79E91379 
  52      F99FC8
  53 0143 3F1957FE 		.ascii	"?\031W\376`\\\015\030\365/`M\031\015:\205\343=dh\003"
  53      605C0D18 
  53      F52F604D 
  53      190D3A85 
  53      E33D6468 
  54 0158 254F494D 		.ascii	"%OIM\356^\234#%\261J\253\321j\256m\261\352\3435M\255"
  54      EE5E9C23 
  54      25B14AAB 
  54      D16AAE6D 
  54      B1EAE335 
  55 016e CD75562C 		.ascii	"\315uV,Z\323T^\026\213\226\306\253\255\206\212\322x"
  55      5AD3545E 
  55      168B96C6 
  55      ABAD868A 
  55      D278
  56 0180 B4AAA48E 		.ascii	"\264\252\244\216\336\000H\361\275\253"
  56      DE0048F1 
  56      BDAB
  57              		.text
  58              		.section	.gnu.lto_P1_RegD1_RestoreConfig.c0d69b0b,"",%progbits
  59 0000 789C7590 		.ascii	"x\234u\220\313K\002Q\030\305\277\3639NB\213\242U\370"
  59      CB4B0251 
  59      18C5BFF3 
  59      394E428B 
  59      A255F8
  60 0013 0F484881 		.ascii	"\017HH\201\213\376\202\242V\201\325V\220\260\241]A\324"
ARM GAS  C:\Users\Thomas\AppData\Local\Temp\ccwGRabP.s 			page 4


  60      8BFE82A2 
  60      5681D556 
  60      90B0A15D 
  60      41D4
  61 0025 529AA909 		.ascii	"R\232\251\011\214\250,Z\004=\026Adi\366\244\265\330"
  61      8CA82C5A 
  61      043D1641 
  61      6469F6A4 
  61      B5D8
  62 0037 AE851606 		.ascii	"\256\205\026\006\201Am\014j\227\011\305Pf\367\216T\364"
  62      81416D0C 
  62      6A9709C5 
  62      5066F78E 
  62      54F4
  63 0049 BA709FDF 		.ascii	"\272p\237\337\271\347\374\356u\320\357\346\026=\017"
  63      B9E7FCEE 
  63      75D0EFE6 
  63      163D0F
  64 0058 A22631C3 		.ascii	"\242&1\303A\340h\206\310p1 \027\004\032c\214\341\236"
  64      41E06886 
  64      C8703120 
  64      17041A63 
  64      8CE19E
  65 006b 8B8C682A 		.ascii	"\213\214h*\276T\353\331\320u\375!}\3308\331h1Q\211\253"
  65      BE54EBD9 
  65      D075FD21 
  65      7DD838D9 
  65      68315189 
  66 0080 36D88487 		.ascii	"6\330\204\207\204\246h\226/kUSh\352\2535\304\240\012"
  66      84A66896 
  66      2F6B5553 
  66      68EAAB35 
  66      C4A00A
  67 0093 7BDA6D48 		.ascii	"{\332mH\351\225J)3\037\363Be\262\030\212\034\210\012"
  67      E9954A29 
  67      331FF342 
  67      65B2188A 
  67      1C880A
  68 00a6 4225A36E 		.ascii	"B%\243n\231\345\354\310c\374\270\230\355\226\367\236"
  68      99E5ECC8 
  68      63FCB898 
  68      ED96F79E 
  69 00b6 59C6AEE5 		.ascii	"Y\306\256\345f\223\034~\321#\272\313b.KSqzS\310\236"
  69      66931C7E 
  69      D123BACB 
  69      622E4B53 
  69      717A53C8 
  70 00cb BBEE589C 		.ascii	"\273\356X\234\330\333\230a\256`\025\313\206.U\016l!"
  70      D8DB9861 
  70      AE6015CB 
  70      862E550E 
  70      6C21
  71 00dd 8C6DB8ED 		.ascii	"\214m\270\355\332[b\356@m\366Z\254 .4\21762\022h\026"
  71      DA5B62EE 
  71      406DF65A 
  71      AC202E34 
  71      8F363212 
ARM GAS  C:\Users\Thomas\AppData\Local\Temp\ccwGRabP.s 			page 5


  72 00f3 0F4F2F40 		.ascii	"\017O/@&\011\325t$uV#\015\235\346\251\241+\3372\234"
  72      2609D574 
  72      24755623 
  72      0D9DE6A9 
  72      A12BDF32 
  73 0108 B6CFD4CC 		.ascii	"\266\317\324\314\311M\235\3140a\261\212\035\270\221"
  73      C94D9DCC 
  73      3061B18A 
  73      1DB891
  74 0117 9411D815 		.ascii	"\224\021\330\025\256\202\225$\372\374\005\252\350\312"
  74      AE829524 
  74      FAFC05AA 
  74      E8CA
  75 0125 BFE83F59 		.ascii	"\277\350?Y\367\376f\335\267Y\345\337\341\340\007\353"
  75      F7FE66DD 
  75      B759E5DF 
  75      E1E007EB 
  76 0135 D343FA95 		.ascii	"\323C\372\225m\260\305\017\326\211\334\372\271\372\005"
  76      6DB0C50F 
  76      D689DCFA 
  76      B9FA05
  77 0144 77F80977 		.ascii	"w\370\011wd\303)t\015#u\325!\015\344\363\013\302X\374"
  77      64C32974 
  77      0D2375D5 
  77      210DE4F3 
  77      0BC258FC 
  78 0158 B620F2B4 		.ascii	"\266 \362\264\004:\265Am\270oD\353\017\366\016\215\016"
  78      043AB541 
  78      6DB86F44 
  78      EB0FF60E 
  78      8D0E
  79 016a 87B480BF 		.ascii	"\207\264\200\277w\250\2555\340\367\005{\264\201v_\320"
  79      77A8AD35 
  79      E0F7057B 
  79      B481765F 
  79      D0
  80 017b DFD512A2 		.ascii	"\337\325\022\242w\357\340\263\022"
  80      77EFE0B3 
  80      12
  81              		.text
  82              		.section	.gnu.lto_P1_RegD1_Sleep.c0d69b0b,"",%progbits
  83 0000 789C9592 		.ascii	"x\234\225\222\337KSa\030\307\237\3479gg\277\024\242"
  83      DF4B5361 
  83      18C79FE7 
  83      396767BF 
  83      14A2
  84 0012 2BF1BA18 		.ascii	"+\361\272\030A\012^D\177@\201\027\021\214\274\035\214"
  84      410A5E44 
  84      7F408117 
  84      118CBC1D 
  84      8C
  85 0023 B0D14590 		.ascii	"\260\321E\220 u9<G\027I\226\331\330EQ\253n*k\2465\315"
  85      2075393C 
  85      47174996 
  85      D9D84551 
  85      AB6E2A6B 
  86 003a CC651EBC 		.ascii	"\314e\036\274\031$\331/0\030\261\020\026\254\213\302"
ARM GAS  C:\Users\Thomas\AppData\Local\Temp\ccwGRabP.s 			page 6


  86      1924D92F 
  86      3018B110 
  86      16AC8BC2 
  87 004a B5581ECC 		.ascii	"\265X\036\314\354y\336\223a\023\203\016\234\367\347"
  87      EC79DE93 
  87      6113830E 
  87      9CF7E7
  88 0059 F77D9ECF 		.ascii	"\367}\236\317\363}_\015\266~\315\374\237\320\000\366"
  88      F37D5F0D 
  88      B67ECDFC 
  88      9FD000F6 
  89 0069 708F1A20 		.ascii	"p\217\032 \015-\000X>B\224\001 \364\020\366\340'\252"
  89      0D2D0058 
  89      3E429401 
  89      20F410F6 
  89      E027AA
  90 007c 100ED999 		.ascii	"\020\016\331\231\313\301\320-\3234\227\223\271\2463"
  90      CBC1D02D 
  90      D3349793 
  90      B9A633
  91 008b 4D0E0154 		.ascii	"M\016\001T\311\015\203w0\004\254\251$\326\336\005\215"
  91      C90D8377 
  91      3004ACA9 
  91      24D6DE05 
  91      8D
  92 009c 046B76B8 		.ascii	"\004kv\270{8\214\006r?\266\3236\327\327\307?_*\357\307"
  92      7B388C06 
  92      723FB6D3 
  92      36D7D7C7 
  92      3F5F2AEF 
  93 00b1 06048738 		.ascii	"\006\004\2078\0317:7\344\221\221\237\033- \015@\211"
  93      19373A37 
  93      E491919F 
  93      1B2D200D 
  93      4089
  94 00c3 4F4AFA8F 		.ascii	"OJ\372\217D\322k\005\234\253\235+\246\247P\242}'\215"
  94      44D26B05 
  94      9CAB9D2B 
  94      A6A750A2 
  94      7D278D
  95 00d6 134DA726 		.ascii	"\023M\247&\026\032\313\344\220\376\355\271e\352\222"
  95      161ACBE4 
  95      90FEEDB9 
  95      65EA92
  96 00e5 FB43E9E5 		.ascii	"\373C\351\345k\237Z\002\231\276\230\177s\003\323x\325"
  96      6B9F5A02 
  96      99BE987F 
  96      7303D378 
  96      D5
  97 00f6 4AA0431E 		.ascii	"J\240C\036\274\213\315x\017\271\\\314\360*\024\260o"
  97      BC8BCD78 
  97      0FB95CCC 
  97      F02A14B0 
  97      6F
  98 0107 C570C3A1 		.ascii	"\305p\303\241\0331\237.gu9\216\0108\302J\226d\317\226"
  98      1B319F2E 
  98      6775398E 
ARM GAS  C:\Users\Thomas\AppData\Local\Temp\ccwGRabP.s 			page 7


  98      0838C24A 
  98      9664CF96 
  99 011b 7457A4B3 		.ascii	"tW\244\263\216E\326\355\334y\257\022q\240\373J\324["
  99      8E45D6ED 
  99      DC79AF12 
  99      71A0FB4A 
  99      D45B
 100 012d F4BA120F 		.ascii	"\364\272\022\017\253d\236\\\332%\013\254\276\376vp\224"
 100      AB649E5C 
 100      DA250BAC 
 100      BEFE7670 
 100      94
 101 013e E2AB66BF 		.ascii	"\342\253f\277\351s\310X\023?6s\032j:l%\256)NST^\034"
 101      E973C858 
 101      133F3673 
 101      1A6A3A6C 
 101      25AE294E 
 102 0156 C5388E09 		.ascii	"\3058\216\011(\357\375\034\271\2305Z2l\247\275\327!"
 102      28EFFD1C 
 102      B998355A 
 102      326CA7BD 
 102      D721
 103 0168 1F3E60E1 		.ascii	"\037>`\341We9>\304\026N\011\357\261\317\316\345I\022"
 103      5765393E 
 103      C4164E09 
 103      EFB1CFCE 
 103      E54912
 104 017b 427D467F 		.ascii	"B}F\177Uaf1\316\266\006@\271\370e\321\377\3275\3313"
 104      55616631 
 104      CEB60640 
 104      B9F865D1 
 104      FFD735D9 
 105 0190 79529754 		.ascii	"yR\227Te\257\353.\020\3079(\340\204\024'\247\006\372"
 105      65AFEB2E 
 105      10C73928 
 105      E0841427 
 105      A706FA
 106 01a3 ED57AAF8 		.ascii	"\355W\252\370`b\213\347A\305;P\274\342hRK\312\342\374"
 106      60628BE7 
 106      41C53B50 
 106      BCE26852 
 106      4BCAE2FC 
 107 01b7 0DF8884D 		.ascii	"\015\370\210M\237T\246?vM\357MV&\017I\304m\335\251\267"
 107      9F54A63F 
 107      764DEF4D 
 107      56260F49 
 107      C46DDDA9 
 108 01cc 636A5B3B 		.ascii	"cj[;\032\361\211\262\003]P\234\026G\374n\231\265E\277"
 108      1AF189B2 
 108      035D509C 
 108      1647FC6E 
 108      99B545BF 
 109 01e0 CB1DE063 		.ascii	"\313\035\340c\265\345\271\037\244 S\033\334\205\233"
 109      B5E5B91F 
 109      A420531B 
 109      DC859B
 110 01ef F3176813 		.ascii	"\363\027h\023h\356\017\350\323\015\320\245\335\377\305"
ARM GAS  C:\Users\Thomas\AppData\Local\Temp\ccwGRabP.s 			page 8


 110      68EE0FE8 
 110      D30DD0A5 
 110      DDFFC5
 111 01fe 39F30FCE 		.ascii	"9\363\017\316g\212\223~s\316\012g\000\212h\331\263\355"
 111      678A937E 
 111      73CE0A67 
 111      008A68D9 
 111      B3ED
 112 0210 EAE2409E 		.ascii	"\352\342@\236<\312S\347\340\241\326H{\354d\254\373\350"
 112      3CCA53E7 
 112      E0A1D648 
 112      7BEC64AC 
 112      FBE8
 113 0222 A9D8B168 		.ascii	"\251\330\261hG\327\351\356\316X$\334\321u`_$\334\026"
 113      47D7E9EE 
 113      CE5824DC 
 113      D175605F 
 113      24DC16
 114 0235 3D123B7E 		.ascii	"=\022;~\260-\032>\334\332\011\277\000{QD\005"
 114      B02D1A3E 
 114      DCDA09BF 
 114      007B5144 
 114      05
 115              		.text
 116              		.section	.gnu.lto_P1_RegD1_Wakeup.c0d69b0b,"",%progbits
 117 0000 789C8D92 		.ascii	"x\234\215\222\337K\024Q\024\307\317\367\3148\263\256"
 117      DF4B1451 
 117      14C7CFF7 
 117      CC38B3AE 
 118 0010 3E444FE2 		.ascii	">DO\342\303>\266DhH\364\027\024\004A\260\345\353\302"
 118      C33EB644 
 118      6848F417 
 118      140441B0 
 118      E5EBC2
 119 0023 1236F496 		.ascii	"\0226\364\226 \365\270xG'X\260\037&\373\220\230\345"
 119      20F5B878 
 119      472758B0 
 119      1F26FB90 
 119      98E5
 120 0035 4B65AD69 		.ascii	"Ke\255ike\265\276\014\022=\030d\366\223\226\260\027"
 120      6B65B5BE 
 120      0C123D18 
 120      64F69396 
 120      B017
 121 0047 837A735B 		.ascii	"\203zs[P\2062;\367n\277\\\013\032\270\367\314=\367\334"
 121      5086323B 
 121      F76EBF5C 
 121      0B1AB8F7 
 121      CC3DF7DC 
 122 005b EFF77367 		.ascii	"\357\367sg\216E[\237=2\312L\264S\"\032\010<\370\224"
 122      8E455B9F 
 122      3D32CA4C 
 122      B453221A 
 122      083CF894 
 123 006f C88F315B 		.ascii	"\310\2171[\245\004\251\270\375z7\251f\013v-m\003\372"
 123      A504A9B8 
 123      FD7A37A9 
ARM GAS  C:\Users\Thomas\AppData\Local\Temp\ccwGRabP.s 			page 9


 123      660B762D 
 123      6D03FA
 124 0082 8540BD6C 		.ascii	"\205@\275l\331\350\305'\2560\006\303\302\305\246\344"
 124      D9E8C527 
 124      AE3006C3 
 124      C2C5A6E4 
 125 0092 55A5D44A 		.ascii	"U\245\324J\337b\313\351\226H\364\252\\\323\307u$Ij*"
 125      DF62CBE9 
 125      9648F4AA 
 125      5CD3C775 
 125      24496A2A 
 126 00a6 C1FA9B26 		.ascii	"\301\372\233&'\220\232m\265=\214\303\201\304\251\355"
 126      27909A6D 
 126      B53D8CC3 
 126      81C4A9ED 
 127 00b6 A1DAD8A8 		.ascii	"\241\332\330\250>\032\312\355\340F\233\"\206#\023\273"
 127      3E1ACAED 
 127      E0469B22 
 127      862313BB 
 128 00c6 7A225A96 		.ascii	"z\"Z\226\241\035?\310B\242UF\337Le\341\360&\3010\037"
 128      A11D3FC8 
 128      42A25546 
 128      DF4C65E1 
 128      F026C130 
 129 00db 376A5546 		.ascii	"7jUF\275\023n\210\032\341&\2345vd\357\362\213s\223\234"
 129      BD136E88 
 129      1AE1269C 
 129      357664EF 
 129      F28B7393 
 130 00f0 FDA2722A 		.ascii	"\375\242r*\026\261\265\2569$\373~ya1\366\221%c\226\343"
 130      16B1B5AE 
 130      3924FB7E 
 130      796131F6 
 130      91256396 
 131 0105 7E7009A3 		.ascii	"~p\011\243\030\361\225\256\262Q@\026\023h5{\337&\316"
 131      18F195AE 
 131      B2514016 
 131      1368357B 
 131      DF26CE
 132 0118 4F3B6D05 		.ascii	"O;m\005\021\037\273bE\334\200[R\371Yt\214\023&\321F"
 132      111FBB62 
 132      45DC805B 
 132      52F95974 
 132      8C1326D1 
 133 012d 65CC0D41 		.ascii	"e\314\015A[J\371@.|\346je'\230\367\225\275\311\3141"
 133      5B4AF940 
 133      2E7CE66A 
 133      652798F7 
 133      95BDC9CC 
 134 0142 82034BC3 		.ascii	"\202\003K\303\221\245\315\362\276\230\271\230B+nk3\024"
 134      91A5CDF2 
 134      BE98B998 
 134      422B6E6B 
 134      3314
 135 0154 4559A849 		.ascii	"EY\250I_\371\302K\324.\341\376\363\022\365\324\323["
 135      5FF9C24B 
 135      D42EE1FE 
ARM GAS  C:\Users\Thomas\AppData\Local\Temp\ccwGRabP.s 			page 10


 135      F312F5D4 
 135      D35B
 136 0166 A87769DE 		.ascii	"\250wi\336;\206\027?x\357\326\361\256\256\314}e\003"
 136      3B86173F 
 136      78EFD6F1 
 136      AEAECC7D 
 136      6503
 137 0178 97FFC95B 		.ascii	"\227\377\311[\036{r\226\377\000\274\367\013p\306\000"
 137      1E7B7296 
 137      FF00BCF7 
 137      0B70C600 
 138 0188 BA06B0F8 		.ascii	"\272\006\260\370\370\271\253\377\301\032\333\377Mx\377"
 138      F8B9ABFF 
 138      C11ADBFF 
 138      4D78FF
 139 0197 6F84313C 		.ascii	"o\2041<0\204\246E\036\012\336+\004o\373\023\277\265"
 139      3084A645 
 139      1E0ADE2B 
 139      046FFB13 
 139      BFB5
 140 01a9 FD6BB367 		.ascii	"\375k\263g\314'\225\346AI\037'\335\036\026\225\022\326"
 140      CC2795E6 
 140      41491F27 
 140      DD1E1695 
 140      12D6
 141 01bb 3BF487A3 		.ascii	";\364\207\243\363\315\272\230\3521\032\253Z\023\263"
 141      F3CDBA98 
 141      EA311AAB 
 141      5A13B3
 142 01ca C84A67C5 		.ascii	"\310Jg\305\315\031\333\264\324\022\374\260x\320\234"
 142      CD19DBB4 
 142      D412FCB0 
 142      78D09C
 143 01d9 21DD70D0 		.ascii	"!\335p\320Y)M\266\247\017x'\274\236\243'\275c\231\316"
 143      59294DB6 
 143      A70F7827 
 143      BC9EA327 
 143      BD6399CE 
 144 01ed EE533D5D 		.ascii	"\356S=]^:\325\331\275oo:\325\2219\342\035\337\337\221"
 144      5E3AD5D9 
 144      BD6F6F3A 
 144      D59139E2 
 144      1DDFDF91 
 145 0201 491D6AEF 		.ascii	"I\035j\357\242\3576\274\015\213"
 145      A2EF36BC 
 145      0D8B
 146              		.text
 147              		.section	.gnu.lto_.symbol_nodes.c0d69b0b,"",%progbits
 148 0000 789C55C8 		.ascii	"x\234U\310A\015\2000\020\005\321\351n\267A\020\332\270"
 148      410D8030 
 148      1005D1E9 
 148      6EB74110 
 148      DAB8
 149 0012 FE4A4001 		.ascii	"\376J@\001\251\011\034p\306\003\011:\010$p(s{\343\300"
 149      A9091C70 
 149      C603093A 
 149      08247028 
ARM GAS  C:\Users\Thomas\AppData\Local\Temp\ccwGRabP.s 			page 11


 149      737BE3C0 
 150 0026 C49725C1 		.ascii	"\304\227%\301\274\203\304\322\006\002\232\311\315\224"
 150      BC83C4D2 
 150      06029AC9 
 150      CD94
 151 0034 FA6D2EFB 		.ascii	"\372m.\3739\313{\247P~M\255\017\213\242\243{\260\035"
 151      39CB7BA7 
 151      507E4DAD 
 151      0F8BA2A3 
 151      7BB01D
 152 0047 57F25C38 		.ascii	"W\362\\8\327\221\033\317\310\035\246"
 152      D7911BCF 
 152      C81DA6
 153              		.text
 154              		.section	.gnu.lto_.refs.c0d69b0b,"",%progbits
 155 0000 789C25C8 		.ascii	"x\234%\310\321\011\000 \014\304\320\244WA\\\304\375"
 155      D1090020 
 155      0CC4D0A4 
 155      57415CC4 
 155      FD
 156 0011 371469BE 		.ascii	"7\024i\276\036\011p\231\012-\355\372\300$\272t\353I"
 156      1E097099 
 156      0A2DEDFA 
 156      C024BA74 
 156      EB49
 157 0023 CFC2C503 		.ascii	"\317\302\305\003\015{\000w"
 157      0D7B0077 
 158              		.text
 159              		.section	.gnu.lto_.decls.c0d69b0b,"",%progbits
 160 0000 789C8D54 		.ascii	"x\234\215T}LSW\024\177\347\335\327\322\226ZMH\320\360"
 160      7D4C5357 
 160      147FE7DD 
 160      D7D2965A 
 160      4D48D0F0 
 161 0014 57830BFB 		.ascii	"W\203\013\373\010!\262d\304\377\2462c2\263\205\210f"
 161      0821B264 
 161      C4FFA632 
 161      6332B385 
 161      8866
 162 0026 7F8C8421 		.ascii	"\177\214\204!\2769\243\241\014a\211\331?W\210Z\361c"
 162      BE39A3A1 
 162      0C6189D9 
 162      3F57885A 
 162      F163
 163 0038 48DCA84C 		.ascii	"H\334\250L]\015:\004\265\242|\310\247\024u\210\260\202"
 163      5D0D3A04 
 163      B5A27CC8 
 163      A7147588 
 163      B082
 164 004a D30A1615 		.ascii	"\323\012\026\025\241\202\262\231-u:?\242[w\356}\257"
 164      A182B299 
 164      2D753A3F 
 164      A25B77EE 
 164      7DAF
 165 005c BC5703EA 		.ascii	"\274W\003\352MN{\317{\277\363;\277{\356y\207\010\202"
 165      4D4E7BCF 
 165      7BBFF33B 
ARM GAS  C:\Users\Thomas\AppData\Local\Temp\ccwGRabP.s 			page 12


 165      BF7BEE79 
 165      870882
 166 006f D0008210 		.ascii	"\320\000\202\020\306u5F\020>\306\275\001\237e\010\332"
 166      C6753546 
 166      103EC6BD 
 166      019F6508 
 166      DA
 167 0080 32A21D47 		.ascii	"2\242\035G\363\240\325\241\235f1hMh\010\027\256\010"
 167      F3A0D5A1 
 167      9D663168 
 167      4D680817 
 167      AE08
 168 0092 D18B6163 		.ascii	"\321\213acT\016;\332u\264!\264\000\332\000Z7\232\210"
 168      540E3BDA 
 168      75B421B4 
 168      00DA005A 
 168      379A88
 169 00a5 7609CDA7 		.ascii	"v\011\315\247r\034\237\201\313\363\022\227\236c\030"
 169      721C9F81 
 169      CBF31297 
 169      9E6318
 170 00b4 6D701A2E 		.ascii	"mp\032.\317\014\\L\273M\345\212G\273\245r\216\243\005"
 170      CF0C5C4C 
 170      BB4DE58A 
 170      47BBA572 
 170      8EA305
 171 00c7 75DC1D68 		.ascii	"u\334\035h\023h5:\355,\037A\353\325\345\"*g\303+\364"
 171      1368353A 
 171      ED2C1F41 
 171      EBD5E522 
 171      2A67C32B 
 172 00dc B35AC5EA 		.ascii	"\263Z\305\352r\316t\006}N\242\313\321\253\372\247\325"
 172      72CE7406 
 172      7D4EA2CB 
 172      D1ABFAA7 
 172      D5
 173 00ed 73CD54F3 		.ascii	"s\315T\363\007\"\264x\036\371b'E\260Y\354\314m-\357"
 173      0722B478 
 173      1EF96227 
 173      45B059EC 
 173      CC6D2DEF 
 174 0101 7119D1B5 		.ascii	"q\031\321\265Z$\346\266=\017\372\245\271\337S\\e%t\216"
 174      5A24E6B6 
 174      3D0FFAA5 
 174      B9DF535C 
 174      6525748E 
 175 0115 0419F150 		.ascii	"\004\031\361P\015\011p\024\022\220\261\006\346\342\357"
 175      0D097014 
 175      1290B106 
 175      E6E2EF
 176 0124 E792C2F4 		.ascii	"\347\222\302\364\344\356\243\335\022\021\201\355\253"
 176      E4EEA3DD 
 176      121181ED 
 176      AB
 177 0131 5C637E4B 		.ascii	"\\c~Kr-\2069\2517$j\351\276\033\032?`\266\037\244\243"
 177      722D8639 
 177      A937246A 
ARM GAS  C:\Users\Thomas\AppData\Local\Temp\ccwGRabP.s 			page 13


 177      E9BE1B1A 
 177      3F60B61F 
 178 0147 75A10E7F 		.ascii	"u\241\016\177\300J{\2507\034\356\244\300\311\240\026"
 178      C04A7BA8 
 178      371CEEA4 
 178      C0C9A016 
 179 0157 081C8364 		.ascii	"\010\034\203d\206e{\036\004\307\301\216\201]\335\277"
 179      86657B1E 
 179      04C7C18E 
 179      815DDDBF 
 180 0167 5F9E4D96 		.ascii	"_\236M\226r\366\275ww\0372p\022\367\376*c\204\2023\234"
 180      72F6BD77 
 180      771F3270 
 180      12F7FE2A 
 180      63848233 
 181 017c D0319C88 		.ascii	"\3201\234\2100x8\203\277\272\275\323L\2628C}\371\251"
 181      30783883 
 181      BFBABDD3 
 181      4CB23843 
 181      7DF9A9
 182 018f 7B466470 		.ascii	"{Fdp\327\271\003*\303\207<\376\244.\376d$\276\216\307"
 182      D7B9032A 
 182      C3873CFE 
 182      A42EFE64 
 182      24BE8EC7 
 183 01a3 979D990C 		.ascii	"\227\235\231\014\210d=\217\367\267\366?\023\225x\347"
 183      88643D8F 
 183      F7B7F63F 
 183      139578E7 
 184 01b3 117DFC29 		.ascii	"\021}\374)]\374\251H\374i\036\337sv\270J\"\337\362\370"
 184      5DFCA948 
 184      FC691EDF 
 184      7376B84A 
 184      22DFF2F8 
 185 01c7 9AF0D83D 		.ascii	"\232\360\330=~\002\032\3327\021\\\270\217\036*\246\377"
 185      7E021ADA 
 185      37115CB8 
 185      8F1E2AA6 
 185      FF
 186 01d8 85C36A19 		.ascii	"\205\303j\031\352u$\365\021\222\006N\022p\016\370\010"
 186      EA7524F5 
 186      1192064E 
 186      12700EF8 
 186      08
 187 01e9 F1006769 		.ascii	"\361\000gi\033\363\227I\234\305\275\253j\253]'\243Q"
 187      1BF39749 
 187      9CC5BDAB 
 187      6AAB5D27 
 187      A351
 188 01fb C7D01861 		.ascii	"\307\320\030ah\342\014\267\237\334>\027\303/|\001\343"
 188      68E20CB7 
 188      9FDC3E17 
 188      C32F7C01 
 188      E3
 189 020c 28DFD2DC 		.ascii	"(\337\322\334l\343\027ndn\350\316\343\016\221\234U\370"
 189      6CE3176E 
 189      646EE8CE 
ARM GAS  C:\Users\Thomas\AppData\Local\Temp\ccwGRabP.s 			page 14


 189      E30E919C 
 189      55F8
 190 021e 073BB76D 		.ascii	"\007;\267m3\221k\212\263\371\347\266\235,.\336\302/"
 190      33916B8A 
 190      B3F9E7B6 
 190      9D2C2EDE 
 190      C22F
 191 0230 72775F65 		.ascii	"rw_e\027\341n\230\275\026\003\201\275\317\010X\222\234"
 191      17E16E98 
 191      BD160381 
 191      BDCF0858 
 191      929C
 192 0242 9416D350 		.ascii	"\224\026\323P9%\363\004HN\200w\023\0048\013I\010\343"
 192      3925F304 
 192      484E8077 
 192      1304380B 
 192      4908E3
 193 0255 7AA00D9B 		.ascii	"z\240\015\233\247\035\233\3470\266F\250\355b\355\362"
 193      A71D9BE7 
 193      30B646A8 
 193      ED62EDF2 
 194 0265 12BA083A 		.ascii	"\022\272\010:\300\002\255S\212y\006\265]:=W]&\022V\024"
 194      C002AD53 
 194      8A7906B5 
 194      5D3A3D57 
 194      5D261256 
 195 027a F4059F3E 		.ascii	"\364\005\237>\264r\345s\230[94\361\210p\345\"s\017\374"
 195      B472E573 
 195      985B3934 
 195      F18870E5 
 195      22730FFC 
 196 028e FD57BB99 		.ascii	"\375W\273\231\354\020\243\304\332\025\261\025\367\237"
 196      EC10A3C4 
 196      DA15B115 
 196      F79F
 197 029c 3698B81B 		.ascii	"6\230\270\033\016\023\246\366\371\035O\265\021\222,"
 197      0E13A6F6 
 197      F91D4FB5 
 197      11922C
 198 02ab 4C86FBD8 		.ascii	"L\206\373\330,\200n\224pN\223`W%\360\323\320\022j8j"
 198      2C806E94 
 198      704E9360 
 198      5725F0D3 
 198      D0126A38 
 199 02c0 13C08BDA 		.ascii	"\023\300\213\332\273P;\374\202\007\262\253\007:\217"
 199      BB503BFC 
 199      8207B2AB 
 199      073A8F
 200 02cf 0F2FE043 		.ascii	"\017/\340C\314\322\336\333\363 \206\224+\012^4\227\224"
 200      CCD2DEDB 
 200      F3208694 
 200      2B0A5E34 
 200      9794
 201 02e1 88E42077 		.ascii	"\210\344 w\014\027\006\032wI\220\230\030\227\224\350"
 201      0C17061A 
 201      77499098 
 201      189794E8 
ARM GAS  C:\Users\Thomas\AppData\Local\Temp\ccwGRabP.s 			page 15


 202 02f1 46C6D0BE 		.ascii	"F\306\320\276-?\332\\\324\335\245\344\275\210y\373 "
 202      2D3FDA5C 
 202      D4DDA5E4 
 202      BD8879FB 
 202      20
 203 0302 4EE37F87 		.ascii	"N\343\177\207}\\^\366\211\011\014>\372GS\226w3\341e"
 203      7D5C5EF6 
 203      89090C3E 
 203      FA475396 
 203      7733E165 
 204 0316 EA54B16A 		.ascii	"\352T\261ji9\362=\006\334\303\277QJ\027\025\010p\006"
 204      6939F23D 
 204      06DCC3BF 
 204      514A1715 
 204      087006
 205 0329 899AF917 		.ascii	"\211\232\371\027\312\240(\023~E\305\275\220\010\227"
 205      CAA02813 
 205      7E45C5BD 
 205      900897
 206 0338 D07C90C8 		.ascii	"\320|\220\310\317\306\316>:\371\276\211\201\204H\267"
 206      CFC6CE3E 
 206      3AF9BE89 
 206      818448B7 
 207 0348 288B67FD 		.ascii	"(\213g\375\263\371\013o1\341\012{\246UX\315\025b5k\316"
 207      B3F90B6F 
 207      31E10A7B 
 207      A65558CD 
 207      1562356B 
 208 035d 6FFFC906 		.ascii	"o\377\311\006Iq\234\361\271\021`\000\261-Z5Y\002\276"
 208      49719CF1 
 208      B9116000 
 208      B12D5A35 
 208      5902BE
 209 0370 A61309FD 		.ascii	"\246\023\011\375\250\355U:\331u>l\334JH\255R\331\322"
 209      A8ED553A 
 209      D9753E6C 
 209      DC4A48AD 
 209      52D9D2
 210 0383 B1873E53 		.ascii	"\261\207>SZ\003u\272\347\361D\014\317\332\212\305\260"
 210      5A0375BA 
 210      E7F1440C 
 210      CFDA8AC5 
 210      B0
 211 0394 DBF029FF 		.ascii	"\333\360)\377\014z3td\\\232\177\010\3578\324q\375\005"
 211      0C7A3374 
 211      645C9A7F 
 211      08EF38D4 
 211      71FD05
 212 03a7 6CA66EBC 		.ascii	"l\246n\274M\366\215\360\300\313\212B]\271.\263O\005"
 212      4DF68DF0 
 212      C0CB8A42 
 212      5DB92EB3 
 212      4F05
 213 03b9 7E833401 		.ascii	"~\2034\001\256\300|6\035\373o\214\020\322\252$\0169"
 213      AEC07C36 
 213      1DFB6F8C 
 213      10D2AA24 
ARM GAS  C:\Users\Thomas\AppData\Local\Temp\ccwGRabP.s 			page 16


 213      0E39
 214 03cb 77DD972C 		.ascii	"w\335\227,N\326\017o\330\022b\305\211[\225\240\366Y"
 214      4ED60F6F 
 214      D81262C5 
 214      895B95A0 
 214      F659
 215 03dd A8ADBAD3 		.ascii	"\250\255\272\323z\211R\023\014bI\257j\345\361\203\326"
 215      7A895213 
 215      0C6249AF 
 215      6AE5F183 
 215      D6
 216 03ee 6DD3505F 		.ascii	"m\323P_\233\276\333vN\376S\025\033Q\343|\243\220\232"
 216      9BBEDB76 
 216      4EFE5315 
 216      1B51E37C 
 216      A3909A
 217 0401 732DFB63 		.ascii	"s-\373c\255\245\254\247q\232\233{l0\204J\264y~\035\254"
 217      ADA5ACA7 
 217      719A9B7B 
 217      6C30844A 
 217      B4797E1D 
 218 0416 7C50E03F 		.ascii	"|P\340?\242\377\255\364n\235\035\205fE\323\320\001\025"
 218      A2FFADF4 
 218      6E9D1D85 
 218      6645D3D0 
 218      0115
 219 0428 1DE0E823 		.ascii	"\035\340\350#{\272I\024x0\212zX\005\017sp\305\017}\373"
 219      7BBA4914 
 219      78308A7A 
 219      58050F73 
 219      70C50F7D 
 220 043d 63889797 		.ascii	"c\210\227\227U\032\1776\362$\006\022\314I\011.\254\315"
 220      551A7F36 
 220      F2240612 
 220      CC49092E 
 220      ACCD
 221 044f 2D300BDB 		.ascii	"-0\013\333\370\014).\233\363\365\324\014\031\301\023"
 221      F80C292E 
 221      9BF3F5D4 
 221      0C19C113 
 222 045f B15702DC 		.ascii	"\261W\002\334D\316\333\352\004q\342\360\300\247pC\035"
 222      44CEDBEA 
 222      0471E2F0 
 222      C0A77043 
 222      1D
 223 0470 71CA72E1 		.ascii	"q\312r\341s\205\210\375`:Z\261\343\260\211t+\267\330"
 223      738588FD 
 223      603A5AB1 
 223      E3B08974 
 223      2BB7D8
 224 0483 F8B8B465 		.ascii	"\370\270\264e\226R\267\327\217)\274B\177\177\351\240"
 224      9652B7D7 
 224      8F29BC42 
 224      7F7FE9A0 
 225 0493 59196C2F 		.ascii	"Y\031l/G\334\231a\260\271_\244\232 \210\347\037\325"
 225      47DC9961 
 225      B0B95FA4 
ARM GAS  C:\Users\Thomas\AppData\Local\Temp\ccwGRabP.s 			page 17


 225      9A2088E7 
 225      1FD5
 226 04a5 2E790CB4 		.ascii	".y\014\264\251\266=X\351\263F\025+\030U\254q\265X\343"
 226      A9B63D58 
 226      E9B34615 
 226      2B1855AC 
 226      71B558E3 
 227 04b9 BC58232E 		.ascii	"\274X#.o\251\024\205f\023^CO\2005\222\004\267B\\Fj\366"
 227      6FA91485 
 227      66135E43 
 227      4F803592 
 227      04B7425C 
 228 04d0 0A79ED47 		.ascii	"\012y\355G\251\331\2319\337\310\351\216\274/\327\255"
 228      A9D99939 
 228      DFC8E98E 
 228      BC2FD7AD 
 229 04e0 352EFB74 		.ascii	"5.\373t\225=]x;%k\231\234'\027\344\024\312k\2623\035"
 229      953D5D78 
 229      3B256B99 
 229      9C2717E4 
 229      14CA6BB2 
 230 04f6 4505B972 		.ascii	"E\005\271rVF\246#\375\203\254\251\230\214ORr\205\370"
 230      5646A623 
 230      FD83ACA9 
 230      988C4F52 
 230      7285F8
 231 0509 297785BC 		.ascii	")w\205\274\261\320Q\240\262\3304\346\015\262\234?{\312"
 231      B1D051A0 
 231      B2D834E6 
 231      0DB29C3F 
 231      7BCA
 232 051b FD2C67BD 		.ascii	"\375,g\275\\\224?K{]\350\310\177\353\265\271R\276\022"
 232      5C943F4B 
 232      7B5DE8C8 
 232      7FEBB5B9 
 232      52BE12
 233 052e 348AA579 		.ascii	"4\212\245y9\2537\310Z\342%\213\323\227\257\312\310\316"
 233      39AB37C8 
 233      5AE2258B 
 233      D397AFCA 
 233      C8CE
 234 0540 5CB96255 		.ascii	"\\\271bU\372JC\321\272\274\302\205\363gd\314\335T\270"
 234      FA4A43D1 
 234      BABCC285 
 234      F36764CC 
 234      DD54B8
 235 0553 295FDE88 		.ascii	")_\336\210\204\2612\347\311,D\220\221E\245\246\305n"
 235      84B132E7 
 235      C92C4490 
 235      9145A5A6 
 235      C56E
 236 0565 C4326416 		.ascii	"\3042d\026,^\200\304\221}*\356\265\334\253sr\327\027"
 236      2C5E80C4 
 236      917D2AEE 
 236      B5DCAB73 
 236      72D717
 237 0578 E51B0AE4 		.ascii	"\345\033\012\344\265\251i\206\354%\016\307\006\011\367"
ARM GAS  C:\Users\Thomas\AppData\Local\Temp\ccwGRabP.s 			page 18


 237      B5A96986 
 237      EC250EC7 
 237      0609F7
 238 0587 0BFF0770 		.ascii	"\013\377\007p1\364\275"
 238      31F4BD
 239              		.text
 240              		.section	.gnu.lto_.symtab.c0d69b0b,"",%progbits
 241 0000 50315F52 		.ascii	"P1_RegD1_SaveConfig\000\000\000\000\000\000\000\000"
 241      65674431 
 241      5F536176 
 241      65436F6E 
 241      66696700 
 242 001b 00000000 		.ascii	"\000\000\000\000\254\000\000\000P1_RegD1_RestoreCon"
 242      AC000000 
 242      50315F52 
 242      65674431 
 242      5F526573 
 243 0036 66696700 		.ascii	"fig\000\000\000\000\000\000\000\000\000\000\000\000"
 243      00000000 
 243      00000000 
 243      000000
 244 0045 AE000000 		.ascii	"\256\000\000\000P1_RegD1_Sleep\000\000\000\000\000\000"
 244      50315F52 
 244      65674431 
 244      5F536C65 
 244      65700000 
 245 005d 00000000 		.ascii	"\000\000\000\000\000\000\260\000\000\000P1_RegD1_Wa"
 245      0000B000 
 245      00005031 
 245      5F526567 
 245      44315F57 
 246 0072 6B657570 		.ascii	"keup\000\000\000\000\000\000\000\000\000\000\000\000"
 246      00000000 
 246      00000000 
 246      00000000 
 247 0082 B2000000 		.ascii	"\262\000\000\000P1_RegD1_Stop\000\000\002\000\000\000"
 247      50315F52 
 247      65674431 
 247      5F53746F 
 247      70000002 
 248 0099 00000000 		.ascii	"\000\000\000\000\000\000\264\000\000\000P1_RegD1_En"
 248      0000B400 
 248      00005031 
 248      5F526567 
 248      44315F45 
 249 00ae 61626C65 		.ascii	"able\000\000\002\000\000\000\000\000\000\000\000\000"
 249      00000200 
 249      00000000 
 249      00000000 
 250 00be B6000000 		.ascii	"\266\000\000\000"
 251              		.text
 252              		.section	.gnu.lto_.opts,"",%progbits
 253 0000 272D666E 		.ascii	"'-fno-trapv' '-mcpu=cortex-m3' '-mthumb' '-g' '-O3'"
 253      6F2D7472 
 253      61707627 
 253      20272D6D 
 253      6370753D 
ARM GAS  C:\Users\Thomas\AppData\Local\Temp\ccwGRabP.s 			page 19


 254 0033 20272D66 		.ascii	" '-ffunction-sections' '-finline-functions' '-flto'"
 254      66756E63 
 254      74696F6E 
 254      2D736563 
 254      74696F6E 
 255 0066 20272D66 		.ascii	" '-ffat-lto-objects'\000"
 255      6661742D 
 255      6C746F2D 
 255      6F626A65 
 255      63747327 
 256              		.text
 257              		.cfi_sections	.debug_frame
 258              		.section	.text.P1_RegD1_SaveConfig,"ax",%progbits
 259              		.align	2
 260              		.global	P1_RegD1_SaveConfig
 261              		.thumb
 262              		.thumb_func
 263              		.type	P1_RegD1_SaveConfig, %function
 264              	P1_RegD1_SaveConfig:
 265              	.LFB0:
 266              		.file 1 ".\\Generated_Source\\PSoC5\\P1_RegD1_PM.c"
   1:.\Generated_Source\PSoC5/P1_RegD1_PM.c **** /*******************************************************************************
   2:.\Generated_Source\PSoC5/P1_RegD1_PM.c **** * File Name: P1_RegD1_PM.c
   3:.\Generated_Source\PSoC5/P1_RegD1_PM.c **** * Version 2.30
   4:.\Generated_Source\PSoC5/P1_RegD1_PM.c **** *
   5:.\Generated_Source\PSoC5/P1_RegD1_PM.c **** * Description:
   6:.\Generated_Source\PSoC5/P1_RegD1_PM.c **** *  This file provides the API source code for sleep mode support for Shift
   7:.\Generated_Source\PSoC5/P1_RegD1_PM.c **** *  Register component.
   8:.\Generated_Source\PSoC5/P1_RegD1_PM.c **** *
   9:.\Generated_Source\PSoC5/P1_RegD1_PM.c **** * Note:
  10:.\Generated_Source\PSoC5/P1_RegD1_PM.c **** *
  11:.\Generated_Source\PSoC5/P1_RegD1_PM.c **** ********************************************************************************
  12:.\Generated_Source\PSoC5/P1_RegD1_PM.c **** * Copyright 2008-2013, Cypress Semiconductor Corporation.  All rights reserved.
  13:.\Generated_Source\PSoC5/P1_RegD1_PM.c **** * You may use this file only in accordance with the license, terms, conditions,
  14:.\Generated_Source\PSoC5/P1_RegD1_PM.c **** * disclaimers, and limitations in the end user license agreement accompanying
  15:.\Generated_Source\PSoC5/P1_RegD1_PM.c **** * the software package with which this file was provided.
  16:.\Generated_Source\PSoC5/P1_RegD1_PM.c **** *******************************************************************************/
  17:.\Generated_Source\PSoC5/P1_RegD1_PM.c **** 
  18:.\Generated_Source\PSoC5/P1_RegD1_PM.c **** #include "P1_RegD1.h"
  19:.\Generated_Source\PSoC5/P1_RegD1_PM.c **** 
  20:.\Generated_Source\PSoC5/P1_RegD1_PM.c **** static P1_RegD1_BACKUP_STRUCT P1_RegD1_backup =
  21:.\Generated_Source\PSoC5/P1_RegD1_PM.c **** {
  22:.\Generated_Source\PSoC5/P1_RegD1_PM.c ****     P1_RegD1_DISABLED,
  23:.\Generated_Source\PSoC5/P1_RegD1_PM.c **** 
  24:.\Generated_Source\PSoC5/P1_RegD1_PM.c ****     ((uint16) P1_RegD1_DEFAULT_A0),
  25:.\Generated_Source\PSoC5/P1_RegD1_PM.c ****     ((uint16) P1_RegD1_DEFAULT_A1),
  26:.\Generated_Source\PSoC5/P1_RegD1_PM.c **** 
  27:.\Generated_Source\PSoC5/P1_RegD1_PM.c ****     #if(CY_UDB_V0)
  28:.\Generated_Source\PSoC5/P1_RegD1_PM.c ****         ((uint16) P1_RegD1_INT_SRC),
  29:.\Generated_Source\PSoC5/P1_RegD1_PM.c ****     #endif /* (CY_UDB_V0) */
  30:.\Generated_Source\PSoC5/P1_RegD1_PM.c **** };
  31:.\Generated_Source\PSoC5/P1_RegD1_PM.c **** 
  32:.\Generated_Source\PSoC5/P1_RegD1_PM.c **** 
  33:.\Generated_Source\PSoC5/P1_RegD1_PM.c **** /*******************************************************************************
  34:.\Generated_Source\PSoC5/P1_RegD1_PM.c **** * Function Name: P1_RegD1_SaveConfig
  35:.\Generated_Source\PSoC5/P1_RegD1_PM.c **** ********************************************************************************
  36:.\Generated_Source\PSoC5/P1_RegD1_PM.c **** *
ARM GAS  C:\Users\Thomas\AppData\Local\Temp\ccwGRabP.s 			page 20


  37:.\Generated_Source\PSoC5/P1_RegD1_PM.c **** * Summary:
  38:.\Generated_Source\PSoC5/P1_RegD1_PM.c **** *  Saves Shift Register configuration.
  39:.\Generated_Source\PSoC5/P1_RegD1_PM.c **** *
  40:.\Generated_Source\PSoC5/P1_RegD1_PM.c **** * Parameters:
  41:.\Generated_Source\PSoC5/P1_RegD1_PM.c **** *  None.
  42:.\Generated_Source\PSoC5/P1_RegD1_PM.c **** *
  43:.\Generated_Source\PSoC5/P1_RegD1_PM.c **** * Return:
  44:.\Generated_Source\PSoC5/P1_RegD1_PM.c **** *  None.
  45:.\Generated_Source\PSoC5/P1_RegD1_PM.c **** *
  46:.\Generated_Source\PSoC5/P1_RegD1_PM.c **** * Reentrant:
  47:.\Generated_Source\PSoC5/P1_RegD1_PM.c **** *  No.
  48:.\Generated_Source\PSoC5/P1_RegD1_PM.c **** *
  49:.\Generated_Source\PSoC5/P1_RegD1_PM.c **** *******************************************************************************/
  50:.\Generated_Source\PSoC5/P1_RegD1_PM.c **** void P1_RegD1_SaveConfig(void) 
  51:.\Generated_Source\PSoC5/P1_RegD1_PM.c **** {
 267              		.loc 1 51 0
 268              		.cfi_startproc
 269              		@ args = 0, pretend = 0, frame = 0
 270              		@ frame_needed = 0, uses_anonymous_args = 0
 271              		@ link register save eliminated.
  52:.\Generated_Source\PSoC5/P1_RegD1_PM.c ****     /* Store working registers A0 and A1 */
  53:.\Generated_Source\PSoC5/P1_RegD1_PM.c ****     P1_RegD1_backup.saveSrA0Reg   = CY_GET_REG16(P1_RegD1_SHIFT_REG_LSB_PTR);
 272              		.loc 1 53 0
 273 0000 034B     		ldr	r3, .L2
  54:.\Generated_Source\PSoC5/P1_RegD1_PM.c ****     P1_RegD1_backup.saveSrA1Reg   = CY_GET_REG16(P1_RegD1_SHIFT_REG_VALUE_LSB_PTR);
 274              		.loc 1 54 0
 275 0002 044A     		ldr	r2, .L2+4
  53:.\Generated_Source\PSoC5/P1_RegD1_PM.c ****     P1_RegD1_backup.saveSrA1Reg   = CY_GET_REG16(P1_RegD1_SHIFT_REG_VALUE_LSB_PTR);
 276              		.loc 1 53 0
 277 0004 1988     		ldrh	r1, [r3]
 278 0006 044B     		ldr	r3, .L2+8
 279              		.loc 1 54 0
 280 0008 1288     		ldrh	r2, [r2]
  53:.\Generated_Source\PSoC5/P1_RegD1_PM.c ****     P1_RegD1_backup.saveSrA1Reg   = CY_GET_REG16(P1_RegD1_SHIFT_REG_VALUE_LSB_PTR);
 281              		.loc 1 53 0
 282 000a 5980     		strh	r1, [r3, #2]	@ movhi
 283              		.loc 1 54 0
 284 000c 9A80     		strh	r2, [r3, #4]	@ movhi
 285 000e 7047     		bx	lr
 286              	.L3:
 287              		.align	2
 288              	.L2:
 289 0010 04650040 		.word	1073767684
 290 0014 14650040 		.word	1073767700
 291 0018 00000000 		.word	.LANCHOR0
 292              		.cfi_endproc
 293              	.LFE0:
 294              		.size	P1_RegD1_SaveConfig, .-P1_RegD1_SaveConfig
 295              		.section	.text.P1_RegD1_RestoreConfig,"ax",%progbits
 296              		.align	2
 297              		.global	P1_RegD1_RestoreConfig
 298              		.thumb
 299              		.thumb_func
 300              		.type	P1_RegD1_RestoreConfig, %function
 301              	P1_RegD1_RestoreConfig:
 302              	.LFB1:
  55:.\Generated_Source\PSoC5/P1_RegD1_PM.c **** 
ARM GAS  C:\Users\Thomas\AppData\Local\Temp\ccwGRabP.s 			page 21


  56:.\Generated_Source\PSoC5/P1_RegD1_PM.c ****     #if(CY_UDB_V0)
  57:.\Generated_Source\PSoC5/P1_RegD1_PM.c ****         P1_RegD1_backup.saveSrIntMask = P1_RegD1_SR_STATUS_MASK;
  58:.\Generated_Source\PSoC5/P1_RegD1_PM.c ****     #endif /* (CY_UDB_V0) */
  59:.\Generated_Source\PSoC5/P1_RegD1_PM.c **** }
  60:.\Generated_Source\PSoC5/P1_RegD1_PM.c **** 
  61:.\Generated_Source\PSoC5/P1_RegD1_PM.c **** 
  62:.\Generated_Source\PSoC5/P1_RegD1_PM.c **** /*******************************************************************************
  63:.\Generated_Source\PSoC5/P1_RegD1_PM.c **** * Function Name: P1_RegD1_RestoreConfig
  64:.\Generated_Source\PSoC5/P1_RegD1_PM.c **** ********************************************************************************
  65:.\Generated_Source\PSoC5/P1_RegD1_PM.c **** *
  66:.\Generated_Source\PSoC5/P1_RegD1_PM.c **** * Summary:
  67:.\Generated_Source\PSoC5/P1_RegD1_PM.c **** *  Restores Shift Register configuration.
  68:.\Generated_Source\PSoC5/P1_RegD1_PM.c **** *
  69:.\Generated_Source\PSoC5/P1_RegD1_PM.c **** * Parameters:
  70:.\Generated_Source\PSoC5/P1_RegD1_PM.c **** *  None.
  71:.\Generated_Source\PSoC5/P1_RegD1_PM.c **** *
  72:.\Generated_Source\PSoC5/P1_RegD1_PM.c **** * Return:
  73:.\Generated_Source\PSoC5/P1_RegD1_PM.c **** *  None.
  74:.\Generated_Source\PSoC5/P1_RegD1_PM.c **** *
  75:.\Generated_Source\PSoC5/P1_RegD1_PM.c **** *******************************************************************************/
  76:.\Generated_Source\PSoC5/P1_RegD1_PM.c **** void P1_RegD1_RestoreConfig(void) 
  77:.\Generated_Source\PSoC5/P1_RegD1_PM.c **** {
 303              		.loc 1 77 0
 304              		.cfi_startproc
 305              		@ args = 0, pretend = 0, frame = 0
 306              		@ frame_needed = 0, uses_anonymous_args = 0
 307              		@ link register save eliminated.
  78:.\Generated_Source\PSoC5/P1_RegD1_PM.c ****     /* Restore working registers A0 and A1 */
  79:.\Generated_Source\PSoC5/P1_RegD1_PM.c ****     CY_SET_REG16(P1_RegD1_SHIFT_REG_LSB_PTR, P1_RegD1_backup.saveSrA0Reg);
 308              		.loc 1 79 0
 309 0000 034B     		ldr	r3, .L5
 310 0002 0449     		ldr	r1, .L5+4
  80:.\Generated_Source\PSoC5/P1_RegD1_PM.c ****     CY_SET_REG16(P1_RegD1_SHIFT_REG_VALUE_LSB_PTR, P1_RegD1_backup.saveSrA1Reg);
 311              		.loc 1 80 0
 312 0004 9A88     		ldrh	r2, [r3, #4]
  79:.\Generated_Source\PSoC5/P1_RegD1_PM.c ****     CY_SET_REG16(P1_RegD1_SHIFT_REG_VALUE_LSB_PTR, P1_RegD1_backup.saveSrA1Reg);
 313              		.loc 1 79 0
 314 0006 5888     		ldrh	r0, [r3, #2]
 315              		.loc 1 80 0
 316 0008 034B     		ldr	r3, .L5+8
  79:.\Generated_Source\PSoC5/P1_RegD1_PM.c ****     CY_SET_REG16(P1_RegD1_SHIFT_REG_VALUE_LSB_PTR, P1_RegD1_backup.saveSrA1Reg);
 317              		.loc 1 79 0
 318 000a 0880     		strh	r0, [r1]	@ movhi
 319              		.loc 1 80 0
 320 000c 1A80     		strh	r2, [r3]	@ movhi
 321 000e 7047     		bx	lr
 322              	.L6:
 323              		.align	2
 324              	.L5:
 325 0010 00000000 		.word	.LANCHOR0
 326 0014 04650040 		.word	1073767684
 327 0018 14650040 		.word	1073767700
 328              		.cfi_endproc
 329              	.LFE1:
 330              		.size	P1_RegD1_RestoreConfig, .-P1_RegD1_RestoreConfig
 331              		.section	.text.P1_RegD1_Sleep,"ax",%progbits
 332              		.align	2
ARM GAS  C:\Users\Thomas\AppData\Local\Temp\ccwGRabP.s 			page 22


 333              		.global	P1_RegD1_Sleep
 334              		.thumb
 335              		.thumb_func
 336              		.type	P1_RegD1_Sleep, %function
 337              	P1_RegD1_Sleep:
 338              	.LFB2:
  81:.\Generated_Source\PSoC5/P1_RegD1_PM.c **** 
  82:.\Generated_Source\PSoC5/P1_RegD1_PM.c ****     #if(CY_UDB_V0)
  83:.\Generated_Source\PSoC5/P1_RegD1_PM.c ****         P1_RegD1_SR_STATUS_MASK = ((uint8) P1_RegD1_backup.saveSrIntMask);
  84:.\Generated_Source\PSoC5/P1_RegD1_PM.c ****     #endif /* (CY_UDB_V0) */
  85:.\Generated_Source\PSoC5/P1_RegD1_PM.c **** }
  86:.\Generated_Source\PSoC5/P1_RegD1_PM.c **** 
  87:.\Generated_Source\PSoC5/P1_RegD1_PM.c **** 
  88:.\Generated_Source\PSoC5/P1_RegD1_PM.c **** /*******************************************************************************
  89:.\Generated_Source\PSoC5/P1_RegD1_PM.c **** * Function Name: P1_RegD1_Sleep
  90:.\Generated_Source\PSoC5/P1_RegD1_PM.c **** ********************************************************************************
  91:.\Generated_Source\PSoC5/P1_RegD1_PM.c **** *
  92:.\Generated_Source\PSoC5/P1_RegD1_PM.c **** * Summary:
  93:.\Generated_Source\PSoC5/P1_RegD1_PM.c **** *  Prepare the component to enter a Sleep mode.
  94:.\Generated_Source\PSoC5/P1_RegD1_PM.c **** *
  95:.\Generated_Source\PSoC5/P1_RegD1_PM.c **** * Parameters:
  96:.\Generated_Source\PSoC5/P1_RegD1_PM.c **** *  None.
  97:.\Generated_Source\PSoC5/P1_RegD1_PM.c **** *
  98:.\Generated_Source\PSoC5/P1_RegD1_PM.c **** * Return:
  99:.\Generated_Source\PSoC5/P1_RegD1_PM.c **** *  None.
 100:.\Generated_Source\PSoC5/P1_RegD1_PM.c **** *
 101:.\Generated_Source\PSoC5/P1_RegD1_PM.c **** * Reentrant:
 102:.\Generated_Source\PSoC5/P1_RegD1_PM.c **** *  No.
 103:.\Generated_Source\PSoC5/P1_RegD1_PM.c **** *
 104:.\Generated_Source\PSoC5/P1_RegD1_PM.c **** *******************************************************************************/
 105:.\Generated_Source\PSoC5/P1_RegD1_PM.c **** void P1_RegD1_Sleep(void) 
 106:.\Generated_Source\PSoC5/P1_RegD1_PM.c **** {
 339              		.loc 1 106 0
 340              		.cfi_startproc
 341              		@ args = 0, pretend = 0, frame = 0
 342              		@ frame_needed = 0, uses_anonymous_args = 0
 343 0000 10B5     		push	{r4, lr}
 344              		.cfi_def_cfa_offset 8
 345              		.cfi_offset 4, -8
 346              		.cfi_offset 14, -4
 107:.\Generated_Source\PSoC5/P1_RegD1_PM.c ****     P1_RegD1_backup.enableState = ((uint8) P1_RegD1_IS_ENABLED);
 347              		.loc 1 107 0
 348 0002 074B     		ldr	r3, .L9
 349 0004 074C     		ldr	r4, .L9+4
 350 0006 1B78     		ldrb	r3, [r3]	@ zero_extendqisi2
 351 0008 03F00103 		and	r3, r3, #1
 352 000c 2370     		strb	r3, [r4]
 108:.\Generated_Source\PSoC5/P1_RegD1_PM.c **** 
 109:.\Generated_Source\PSoC5/P1_RegD1_PM.c ****     P1_RegD1_Stop();
 353              		.loc 1 109 0
 354 000e FFF7FEFF 		bl	P1_RegD1_Stop
 355              	.LVL0:
 356              	.LBB6:
 357              	.LBB7:
  53:.\Generated_Source\PSoC5/P1_RegD1_PM.c ****     P1_RegD1_backup.saveSrA1Reg   = CY_GET_REG16(P1_RegD1_SHIFT_REG_VALUE_LSB_PTR);
 358              		.loc 1 53 0
 359 0012 054A     		ldr	r2, .L9+8
ARM GAS  C:\Users\Thomas\AppData\Local\Temp\ccwGRabP.s 			page 23


  54:.\Generated_Source\PSoC5/P1_RegD1_PM.c **** 
 360              		.loc 1 54 0
 361 0014 054B     		ldr	r3, .L9+12
  53:.\Generated_Source\PSoC5/P1_RegD1_PM.c ****     P1_RegD1_backup.saveSrA1Reg   = CY_GET_REG16(P1_RegD1_SHIFT_REG_VALUE_LSB_PTR);
 362              		.loc 1 53 0
 363 0016 1288     		ldrh	r2, [r2]
  54:.\Generated_Source\PSoC5/P1_RegD1_PM.c **** 
 364              		.loc 1 54 0
 365 0018 1B88     		ldrh	r3, [r3]
  53:.\Generated_Source\PSoC5/P1_RegD1_PM.c ****     P1_RegD1_backup.saveSrA1Reg   = CY_GET_REG16(P1_RegD1_SHIFT_REG_VALUE_LSB_PTR);
 366              		.loc 1 53 0
 367 001a 6280     		strh	r2, [r4, #2]	@ movhi
  54:.\Generated_Source\PSoC5/P1_RegD1_PM.c **** 
 368              		.loc 1 54 0
 369 001c A380     		strh	r3, [r4, #4]	@ movhi
 370 001e 10BD     		pop	{r4, pc}
 371              	.L10:
 372              		.align	2
 373              	.L9:
 374 0020 74650040 		.word	1073767796
 375 0024 00000000 		.word	.LANCHOR0
 376 0028 04650040 		.word	1073767684
 377 002c 14650040 		.word	1073767700
 378              	.LBE7:
 379              	.LBE6:
 380              		.cfi_endproc
 381              	.LFE2:
 382              		.size	P1_RegD1_Sleep, .-P1_RegD1_Sleep
 383              		.section	.text.P1_RegD1_Wakeup,"ax",%progbits
 384              		.align	2
 385              		.global	P1_RegD1_Wakeup
 386              		.thumb
 387              		.thumb_func
 388              		.type	P1_RegD1_Wakeup, %function
 389              	P1_RegD1_Wakeup:
 390              	.LFB3:
 110:.\Generated_Source\PSoC5/P1_RegD1_PM.c ****     P1_RegD1_SaveConfig();
 111:.\Generated_Source\PSoC5/P1_RegD1_PM.c **** }
 112:.\Generated_Source\PSoC5/P1_RegD1_PM.c **** 
 113:.\Generated_Source\PSoC5/P1_RegD1_PM.c **** 
 114:.\Generated_Source\PSoC5/P1_RegD1_PM.c **** /*******************************************************************************
 115:.\Generated_Source\PSoC5/P1_RegD1_PM.c **** * Function Name: P1_RegD1_Wakeup
 116:.\Generated_Source\PSoC5/P1_RegD1_PM.c **** ********************************************************************************
 117:.\Generated_Source\PSoC5/P1_RegD1_PM.c **** *
 118:.\Generated_Source\PSoC5/P1_RegD1_PM.c **** * Summary:
 119:.\Generated_Source\PSoC5/P1_RegD1_PM.c **** *  Restores and enables the user configuration.
 120:.\Generated_Source\PSoC5/P1_RegD1_PM.c **** *
 121:.\Generated_Source\PSoC5/P1_RegD1_PM.c **** * Parameters:
 122:.\Generated_Source\PSoC5/P1_RegD1_PM.c **** *  None.
 123:.\Generated_Source\PSoC5/P1_RegD1_PM.c **** *
 124:.\Generated_Source\PSoC5/P1_RegD1_PM.c **** * Return:
 125:.\Generated_Source\PSoC5/P1_RegD1_PM.c **** *  None.
 126:.\Generated_Source\PSoC5/P1_RegD1_PM.c **** *
 127:.\Generated_Source\PSoC5/P1_RegD1_PM.c **** *******************************************************************************/
 128:.\Generated_Source\PSoC5/P1_RegD1_PM.c **** void P1_RegD1_Wakeup(void) 
 129:.\Generated_Source\PSoC5/P1_RegD1_PM.c **** {
 391              		.loc 1 129 0
ARM GAS  C:\Users\Thomas\AppData\Local\Temp\ccwGRabP.s 			page 24


 392              		.cfi_startproc
 393              		@ args = 0, pretend = 0, frame = 0
 394              		@ frame_needed = 0, uses_anonymous_args = 0
 395              		@ link register save eliminated.
 396 0000 10B4     		push	{r4}
 397              		.cfi_def_cfa_offset 4
 398              		.cfi_offset 4, -4
 399              	.LBB8:
 400              	.LBB9:
  79:.\Generated_Source\PSoC5/P1_RegD1_PM.c ****     CY_SET_REG16(P1_RegD1_SHIFT_REG_VALUE_LSB_PTR, P1_RegD1_backup.saveSrA1Reg);
 401              		.loc 1 79 0
 402 0002 084B     		ldr	r3, .L16
 403 0004 0848     		ldr	r0, .L16+4
 404 0006 5C88     		ldrh	r4, [r3, #2]
  80:.\Generated_Source\PSoC5/P1_RegD1_PM.c **** 
 405              		.loc 1 80 0
 406 0008 9988     		ldrh	r1, [r3, #4]
 407 000a 084A     		ldr	r2, .L16+8
  79:.\Generated_Source\PSoC5/P1_RegD1_PM.c ****     CY_SET_REG16(P1_RegD1_SHIFT_REG_VALUE_LSB_PTR, P1_RegD1_backup.saveSrA1Reg);
 408              		.loc 1 79 0
 409 000c 0480     		strh	r4, [r0]	@ movhi
  80:.\Generated_Source\PSoC5/P1_RegD1_PM.c **** 
 410              		.loc 1 80 0
 411 000e 1180     		strh	r1, [r2]	@ movhi
 412              	.LBE9:
 413              	.LBE8:
 130:.\Generated_Source\PSoC5/P1_RegD1_PM.c ****     P1_RegD1_RestoreConfig();
 131:.\Generated_Source\PSoC5/P1_RegD1_PM.c **** 
 132:.\Generated_Source\PSoC5/P1_RegD1_PM.c ****     if(0u != P1_RegD1_backup.enableState)
 414              		.loc 1 132 0
 415 0010 1B78     		ldrb	r3, [r3]	@ zero_extendqisi2
 416 0012 13B9     		cbnz	r3, .L15
 133:.\Generated_Source\PSoC5/P1_RegD1_PM.c ****     {
 134:.\Generated_Source\PSoC5/P1_RegD1_PM.c ****         P1_RegD1_Enable();
 135:.\Generated_Source\PSoC5/P1_RegD1_PM.c ****     }
 136:.\Generated_Source\PSoC5/P1_RegD1_PM.c **** }
 417              		.loc 1 136 0
 418 0014 5DF8044B 		ldr	r4, [sp], #4
 419              		.cfi_remember_state
 420              		.cfi_restore 4
 421              		.cfi_def_cfa_offset 0
 422 0018 7047     		bx	lr
 423              	.L15:
 424              		.cfi_restore_state
 425 001a 5DF8044B 		ldr	r4, [sp], #4
 426              		.cfi_restore 4
 427              		.cfi_def_cfa_offset 0
 134:.\Generated_Source\PSoC5/P1_RegD1_PM.c ****     }
 428              		.loc 1 134 0
 429 001e FFF7FEBF 		b	P1_RegD1_Enable
 430              	.LVL1:
 431              	.L17:
 432 0022 00BF     		.align	2
 433              	.L16:
 434 0024 00000000 		.word	.LANCHOR0
 435 0028 04650040 		.word	1073767684
 436 002c 14650040 		.word	1073767700
ARM GAS  C:\Users\Thomas\AppData\Local\Temp\ccwGRabP.s 			page 25


 437              		.cfi_endproc
 438              	.LFE3:
 439              		.size	P1_RegD1_Wakeup, .-P1_RegD1_Wakeup
 440              		.bss
 441              		.align	2
 442              		.set	.LANCHOR0,. + 0
 443              		.type	P1_RegD1_backup, %object
 444              		.size	P1_RegD1_backup, 6
 445              	P1_RegD1_backup:
 446 0000 00000000 		.space	6
 446      0000
 447 0006 0000     		.text
 448              	.Letext0:
 449              		.file 2 ".\\Generated_Source\\PSoC5\\cytypes.h"
 450              		.file 3 ".\\Generated_Source\\PSoC5\\P1_RegD1.h"