ARM GAS  C:\Users\Thomas\AppData\Local\Temp\ccQu5SvA.s 			page 1


   1              		.syntax unified
   2              		.cpu cortex-m3
   3              		.fpu softvfp
   4              		.eabi_attribute 20, 1
   5              		.eabi_attribute 21, 1
   6              		.eabi_attribute 23, 3
   7              		.eabi_attribute 24, 1
   8              		.eabi_attribute 25, 1
   9              		.eabi_attribute 26, 1
  10              		.eabi_attribute 30, 2
  11              		.eabi_attribute 34, 1
  12              		.eabi_attribute 18, 4
  13              		.thumb
  14              		.file	"P1_WinTimer_PM.c"
  15              		.text
  16              	.Ltext0:
  17              		.section	.gnu.lto_.profile.c0d6bba8,"",%progbits
  18 0000 789C6366 		.ascii	"x\234cf```a\200\000F\206\034\005\000\001l\000\225"
  18      60606061 
  18      80004686 
  18      1C050001 
  18      6C0095
  19              		.text
  20              		.section	.gnu.lto_.jmpfuncs.c0d6bba8,"",%progbits
  21 0000 789C6366 		.ascii	"x\234cf\300\016\244\2404\013\230db``\004#f\204\030\000"
  21      C00EA4A0 
  21      340B9864 
  21      62606004 
  21      23668418 
  22 0015 0544002D 		.ascii	"\005D\000-"
  23              		.text
  24              		.section	.gnu.lto_.inline.c0d6bba8,"",%progbits
  25 0000 789C6366 		.ascii	"x\234cf\300\016\252\2404\013\003\003\267\014#\003\023"
  25      C00EAAA0 
  25      340B0303 
  25      B70C2303 
  25      13
  26 0011 C7013B06 		.ascii	"\307\001;\006\266\005\362L 1&n8\201]\222q\202\037\224"
  26      B605F24C 
  26      2031266E 
  26      38815D92 
  26      71821F94 
  27 0025 6266E092 		.ascii	"bf\340\222\002*\340\332\207P\300\310\005#X\0308\004"
  27      022AE0DA 
  27      8750C0C8 
  27      05235818 
  27      3804
  28 0037 81926C1F 		.ascii	"\201\222l\037\364\260H2\000\000\321n\012\222"
  28      F4B04832 
  28      0000D16E 
  28      0A92
  29              		.text
  30              		.section	.gnu.lto_.pureconst.c0d6bba8,"",%progbits
  31 0000 789C6366 		.ascii	"x\234cf``\340d\200\000\026\006)&)f)\026\011\000\002"
  31      6060E064 
  31      80001606 
  31      29262966 
ARM GAS  C:\Users\Thomas\AppData\Local\Temp\ccQu5SvA.s 			page 2


  31      29160900 
  32 0015 CF0080   		.ascii	"\317\000\200"
  33              		.text
  34              		.section	.gnu.lto_P1_WinTimer_SaveConfig.c0d6bba8,"",%progbits
  35 0000 789C9592 		.ascii	"x\234\225\222\313+DQ\034\307\317\367\\w\\\206\222\345"
  35      CB2B4451 
  35      1CC7CFF7 
  35      5C775C86 
  35      92E5
  36 0012 FC01943C 		.ascii	"\374\001\224<\262`#YXX\251\251Q6S\223\270\013\013\324"
  36      B2602359 
  36      5858A9A9 
  36      51365393 
  36      B80B0BD4 
  37 0026 C472722F 		.ascii	"\304rr/\243d\201\224R\036;y\014\203\361\332\230\272"
  37      A3648194 
  37      521E3B79 
  37      0C83F1DA 
  37      98BA
  38 0038 EC24240B 		.ascii	"\354$$\013\205H\215bgL\321\220\307\357w\357\312x\224"
  38      85488D62 
  38      674CD190 
  38      C7EF77EF 
  38      CA7894
  39 004b 5BE79E7B 		.ascii	"[\347\236{\316\371\376~\337\317\357w\256\"\276?\036"
  39      CEF9FE7E 
  39      DFCFEF77 
  39      AE22BE3F 
  39      1E
  40 005c 1A6D5288 		.ascii	"\032mR\210R\232\241\010\310\321#!LM\002\374! z%zq/\223"
  40      529AA108 
  40      C8D12321 
  40      4C4D02FC 
  40      21207A25 
  41 0074 12A35664 		.ascii	"\022\243Vd\302]<k\030\306C\354\300\364ZHS\\J:y0\207"
  41      C25D3C6B 
  41      18C643EC 
  41      C0F45A48 
  41      535C4A3A 
  42 008b 6241A264 		.ascii	"bA\242d\370\355\314\355\012\223\250\3009\303<\\\240"
  42      F8EDCCED 
  42      0A93A8C0 
  42      39C33C5C 
  42      A0
  43 009c 79A5D032 		.ascii	"y\245\3202>>\326\243\273\017\310UDZB\245\227\324\370"
  43      3E3ED6A3 
  43      BB0FC855 
  43      445A42A5 
  43      97D4F8
  44 00af 25448206 		.ascii	"%D\202\006\373\335\322\202f\345\022\375V<.9\366Y*\224"
  44      FBDDD282 
  44      66E512FD 
  44      563C2E39 
  44      F6592A94 
  45 00c3 76E67438 		.ascii	"v\346t8*C\257\306\240\241\245\245\222\222\224\021\013"
  45      2A43AFC6 
  45      A0A1A5A5 
ARM GAS  C:\Users\Thomas\AppData\Local\Temp\ccQu5SvA.s 			page 3


  45      92929411 
  45      0B
  46 00d4 08517496 		.ascii	"\010Qt\2268G\337\330M\021k3\205\352\033\023\320\356"
  46      3847DFD8 
  46      4D116B33 
  46      85EA1B13 
  46      D0EE
  47 00e6 75E2F844 		.ascii	"u\342\370D\273\223\264c/\347\315\360\024\2461i\032\254"
  47      BB93B463 
  47      2FE7CDF0 
  47      14A63169 
  47      1AAC
  48 00f8 72611121 		.ascii	"ra\021!D\340\261\317\336\227Fb\256\262\010\025`\325"
  48      44E0B1CF 
  48      DE974662 
  48      AEB20815 
  48      60D5
  49 010a A4653696 		.ascii	"\244e6\226H\370h\027\211e\224\021\015\371\355=\015\275"
  49      48F86817 
  49      89659411 
  49      0DF9ED3D 
  49      0DBD
  50 011c 8FE73B74 		.ascii	"\217\347;t*\305\254\015\034\326rvmh\3374\262\276\030"
  50      2AC5AC0D 
  50      1CD67276 
  50      6D68DF34 
  50      B2BE18
  51 012f 6A76D29D 		.ascii	"jv\322\235\344\302\213\233\015\303\324\264\034D\341"
  51      E4C28B9B 
  51      0DC3D4B4 
  51      1C44E1
  52 013e C10AFB61 		.ascii	"\301\012\373a\225\262;\005T\374Y@&\361\332\257\304\271"
  52      95B23B05 
  52      54FC5940 
  52      26F1DAAF 
  52      C4B9
  53 0150 88D9C4DC 		.ascii	"\210\331\304\334s\2543\261*\270\235\027q\305\001\326"
  53      73AC33B1 
  53      2AB89D17 
  53      71C501D6 
  54 0160 324DDC29 		.ascii	"2M\334)\276\002l\330\355\314sh\252\377E\263\3713M\035"
  54      BE026CD8 
  54      EDCC7368 
  54      AAFF45B3 
  54      F9334D1D 
  55 0174 D36CD934 		.ascii	"\323l\3314\366\237\260\3154\232\270\202i%U6\340\256"
  55      F69FB0CD 
  55      349AB882 
  55      69255536 
  55      E0AE
  56 0186 268894AE 		.ascii	"&\210\224\256\234\004%\345\376\006\275S\017\266t\353"
  56      9C0425E5 
  56      FE06BD53 
  56      0FB674EB 
  57 0196 6D015F57 		.ascii	"m\001_WO\260U\367{}]\365U~oe\240\271\275\263\251\275"
  57      4FB055F7 
  57      7B7D5DF5 
ARM GAS  C:\Users\Thomas\AppData\Local\Temp\ccQu5SvA.s 			page 4


  57      557E6F65 
  57      A0B9BDB3 
  58 01ac 430F06BC 		.ascii	"C\017\006\274\215\345\255\342\0230\376\350\245"
  58      8DE5ADE2 
  58      1330FEE8 
  58      A5
  59              		.text
  60              		.section	.gnu.lto_P1_WinTimer_RestoreConfig.c0d6bba8,"",%progbits
  61 0000 789C8D91 		.ascii	"x\234\215\221=H\034Q\020\307\347?\273nVO!X\231\253\003"
  61      3D481C51 
  61      10C7E73F 
  61      BB6E564F 
  61      215899AB 
  62 0015 428C0716 		.ascii	"B\214\007\026)\255\004\255\002\007F\322\034\034A\267"
  62      29AD04AD 
  62      020746D2 
  62      1C1C41B7 
  63 0025 B050E148 		.ascii	"\260P\341H\312\303]9AR\370U\0111\351B\374\326\363\374"
  63      CAC35D39 
  63      4152F855 
  63      0931E942 
  63      FCD6F3FC 
  64 0039 682CCE74 		.ascii	"h,\316t\026*jB@$AP\320\316\313\025\262\011\306\314\274"
  64      162A6A42 
  64      40244150 
  64      D0CECB15 
  64      B209C6CC 
  65 004e B3D1A864 		.ascii	"\263\321\250d\341\275\331\367\336\377\315\377\367f,"
  65      E1BDD9F7 
  65      DEFFCDFF 
  65      F7662C
  66 005d FAF78BCA 		.ascii	"\372\367\213\312hc\242\247\022a\021xx\213(p\031\320"
  66      6863A2A7 
  66      12611178 
  66      788B2870 
  66      19D0
  67 006f 1F02F532 		.ascii	"\037\002\3652zq\312\005\306p~z,R\373\321\367\375\263"
  67      7A71CA05 
  67      C6707E7A 
  67      2C52FBD1 
  67      F7FDB3
  68 0082 DD5C4D7F 		.ascii	"\335\\M\177M(\327\212\\J\203O\250%\321\0242\027\337"
  68      4D28D78A 
  68      5C4A834F 
  68      A825D114 
  68      3217DF
  69 0095 224E4634 		.ascii	"\"NF4\017Kg\230\200\003\211\363\325y\377\3622\267=r"
  69      0F4B6798 
  69      800389F3 
  69      D579FFF2 
  69      32B73D72 
  70 00a9 1283CB14 		.ascii	"\022\203\313\0242l\231\330\321\211\350H\206\372\035"
  70      326C99D8 
  70      D189E848 
  70      86FA1D
  71 00b8 CB42A2B5 		.ascii	"\313B\242\265\217\276\225\302\227\021Ko\237\263\232"
  71      8FBE95C2 
ARM GAS  C:\Users\Thomas\AppData\Local\Temp\ccQu5SvA.s 			page 5


  71      97114B6F 
  71      9FB39A
  72 00c7 7FD81B9C 		.ascii	"\177\330\033\234\343\364o\177\300wC\266.4\265\354\376"
  72      E3F46F7F 
  72      C07743B6 
  72      2E34B5EC 
  72      FE
  73 00d8 38DADE71 		.ascii	"8\332\336qOXv\314r\"\310\214\343=\336\005\276\252lL"
  73      4F5876CC 
  73      7222C88C 
  73      E33DDE05 
  73      BEAA6C4C 
  74 00ec 228D2944 		.ascii	"\"\215)D\315\331\237\231\241E\247\276.\3442L\213\346"
  74      CDD99F99 
  74      A145A7BE 
  74      2EE4324C 
  74      8BE6
  75 00fe A701C70C 		.ascii	"\247\001\307\014\352\351\000\266\372\320M\027\247\310"
  75      EAE900B6 
  75      FAD04D17 
  75      A7C8
  76 010c 428E59A4 		.ascii	"B\216Y\244I\030B~@\212\225\375\272^U\302\262\357\304"
  76      4918427E 
  76      408A95FD 
  76      BA5E55C2 
  76      B2EFC4
  77 011f BAC93177 		.ascii	"\272\3111w\033\207\213y\303\241\325\301\202p\354\343"
  77      1B878B79 
  77      C3A1D5C1 
  77      8270ECE3 
  78 012f F3E8E163 		.ascii	"\363\350\341c\315-\262l\377f\243>\254\374\355F\340\333"
  78      CD2DB26C 
  78      FF66A33E 
  78      ACFCED46 
  78      E0DB
  79 0141 D7DE5A6E 		.ascii	"\327\336Zn\362\254\025&\177E\324#\023\344\037\205\\"
  79      F2AC1526 
  79      7F45D423 
  79      13E41F85 
  79      5C
  80 0152 812CA258 		.ascii	"\201,\242XT\023\344$\257\340\225p\017v\256\252\350\374"
  80      5413E424 
  80      AFE09570 
  80      0F76AEAA 
  80      E8FC
  81 0164 37EED2ED 		.ascii	"7\356\322\355\270\313\006\3274u\345\236\262E\212\252"
  81      B8CB06D7 
  81      3475E59E 
  81      B2458AAA 
  82 0174 C1AA299B 		.ascii	"\301\252)\233\023r%}G\220?o6b\322^C{,\232'\261D\213"
  82      1372257D 
  82      47903F6F 
  82      3662D25E 
  82      437B2C9A 
  83 018c D7EDA55E 		.ascii	"\327\355\245^\275\366:\222\255=oR\355^\"\336\332\323"
  83      BDF63A92 
  83      AD3D6F52 
ARM GAS  C:\Users\Thomas\AppData\Local\Temp\ccQu5SvA.s 			page 6


  83      ED5E22DE 
  83      DAD3
  84 019e F42C116F 		.ascii	"\364,\021oH\276\354\354~\321\331\345\245\222\361\347"
  84      48BEECEC 
  84      7ED1D9E5 
  84      A592F1E7 
  85 01ae B176FA0B 		.ascii	"\261v\372\013y\246\335\226"
  85      79A6DD96 
  86              		.text
  87              		.section	.gnu.lto_P1_WinTimer_Sleep.c0d6bba8,"",%progbits
  88 0000 789C8592 		.ascii	"x\234\205\222Oh\023A\024\306\337\367\366O\322T\253x"
  88      4F681341 
  88      14C6DFF7 
  88      F64FD254 
  88      AB78
  89 0012 2A3D7A29 		.ascii	"*=z)\210-x\360(9x\020\004!P\301K H\335C\017\246\022"
  89      882D78F0 
  89      28397810 
  89      042150C1 
  89      4B2048DD 
  90 002a F4183A9B 		.ascii	"\364\030:\233\254(\0364\245\227`mo\325hb\033\353\277"
  90      AC281E34 
  90      A597606D 
  90      6FD56862 
  90      1BEBBF
  91 003d 83284B2F 		.ascii	"\203(K/\202\210RE\204\"\025$\225zK\215\330.\322\306"
  91      82885245 
  91      84221524 
  91      957A4B8D 
  91      D82ED2C6 
  92 0051 379B584B 		.ascii	"7\233XK\213vavf\336\374\346\373\276\235Y\203v>\307\244"
  92      8B766176 
  92      66DEFCE6 
  92      FBBE9D59 
  92      83763EC7 
  93 0066 5D60A2C3 		.ascii	"]`\242\303\322\303&p\341\015\221\033e6\326\272H\305"
  93      D2C32670 
  93      E10D911B 
  93      6536D6BA 
  93      48C5
  94 0078 CC629CD4 		.ascii	"\314b\234\324\036\003V\253l\376\031X\200\036\020h\204"
  94      1E0356AB 
  94      6CFE1958 
  94      801E1068 
  94      84
  95 0089 0DD3C208 		.ascii	"\015\323\302\010\276\361\012\243\340\227\213\235\275"
  95      BEF10AA3 
  95      E0978B9D 
  95      BD
  96 0096 534AA97A 		.ascii	"SJ\251z\356y\367\345\356@\224\033\334r\302\035\364\222"
  96      EE79F7E5 
  96      EE40941B 
  96      DC72C21D 
  96      F492
  97 00a8 302BDEFA 		.ascii	"0+\336\372\307N\333\023f\177k\015%\330\220~\346\200"
  97      C74EDB13 
  97      667F6B0D 
ARM GAS  C:\Users\Thomas\AppData\Local\Temp\ccQu5SvA.s 			page 7


  97      25D8907E 
  97      E680
  98 00ba AF9ACDC6 		.ascii	"\257\232\315\306\217\321\322A\3560(`\230\362\022\242"
  98      8FD1D241 
  98      EE302860 
  98      98F212A2 
  99 00ca 264DBB2D 		.ascii	"&M\273-\311Dzc\001s?\257}\235\254B\357\\eCD_T\336\315"
  99      C9447A63 
  99      01733FAF 
  99      7D9DAC42 
  99      EF5C6543 
 100 00e3 C5963990 		.ascii	"\305\2269\220\330\257\\ej\237\317\265\267\363\321\260"
 100      D8AF5C65 
 100      6A9FCFB5 
 100      B7F3D1B0 
 101 00f3 447AAA9E 		.ascii	"Dz\252\236}Y\216L`\334\365\020\260\211\273\350\301="
 101      7D598E4C 
 101      60DCF510 
 101      B089BBE8 
 101      C13D
 102 0105 F4887B19 		.ascii	"\364\210{\031\023\240\005\344\026\257\324\314\226\240"
 102      13A005E4 
 102      16AFD4CC 
 102      96A0
 103 0113 299AF401 		.ascii	")\232\364\001\336\353|\272]\330*'aP\321;I'2h\255K\002"
 103      DEEB7CBA 
 103      5DD82A27 
 103      6150D13B 
 103      49273268 
 104 012a E5EAF5D5 		.ascii	"\345\352\365\325\321\275\232\026t\362\375\365i\316\376"
 104      D1BD9A16 
 104      74F2FDF5 
 104      69CEFE
 105 0139 52575534 		.ascii	"RWU4`k]\177\343V\001+\234\226\\\357\026t\036\245)\033"
 105      606B5D7F 
 105      E356012B 
 105      9C965CEF 
 105      16741EA5 
 106 014f F791C5B4 		.ascii	"\367\221\305\264\226\225\265\215\312\215Y\273\257,G"
 106      9695B58D 
 106      CA8D59BB 
 106      AF2C47
 107 015e E4C7038E 		.ascii	"\344\307\003\216`F\300\357\3411\242\212>\001\346o\336"
 107      6046C0EF 
 107      E131A28A 
 107      3E01E66F 
 107      DE
 108 016f CEEFD35A 		.ascii	"\316\357\323Z\021\020\036\204a\226\330\244b<\214R\335"
 108      11101E84 
 108      6196D8A4 
 108      623C8C52 
 108      DD
 109 0180 D825CA76 		.ascii	"\330%\312v\357\331\377x?\374\353\375(\364\336\374\216"
 109      EFD9FF78 
 109      3FFCEBFD 
 109      28F4DEFC 
 109      8E
ARM GAS  C:\Users\Thomas\AppData\Local\Temp\ccQu5SvA.s 			page 8


 110 0191 88941EB7 		.ascii	"\210\224\036\267\275\255\360b>!\3577_\262\366\246\355"
 110      BDADF062 
 110      3E21EF37 
 110      5FB2F6A6 
 110      ED
 111 01a2 E6D106CB 		.ascii	"\346\321\006\313%\343\011\262r\251\035\244\321B\354"
 111      25E309B2 
 111      72A91DA4 
 111      D142EC
 112 01b1 5FA43EE3 		.ascii	"_\244>\343\247mr\021\256?v2$I\377\013\320V\002\034\352"
 112      A76D7211 
 112      AE3F7632 
 112      2449FF0B 
 112      D056021C 
 113 01c6 4F9E70D2 		.ascii	"O\236p\322N\346\354E\347\\j`\370Rf\320I&\006\206\217"
 113      4EE6EC45 
 113      E75C6A60 
 113      F85266D0 
 113      49260686 
 114 01db 1F4D268E 		.ascii	"\037M&\216\244\316\014\245O\017\235w2\251\304\251\376"
 114      A4CE0CA5 
 114      4F0F9D77 
 114      32A9C4A9 
 114      FE
 115 01ec 41FA0D1B 		.ascii	"A\372\015\033T\361\323"
 115      54F1D3
 116              		.text
 117              		.section	.gnu.lto_P1_WinTimer_Wakeup.c0d6bba8,"",%progbits
 118 0000 789C7550 		.ascii	"x\234uPM+DQ\030~\237\367\036\327\204\"Y\310\037\230"
 118      4D2B4451 
 118      187E9FF7 
 118      1ED78422 
 118      59C81F98 
 119 0014 C290646B 		.ascii	"\302\220dkc\241\224\232\242l\246&q\027\2630S\023v\223"
 119      63A1949A 
 119      A26CA626 
 119      7117B330 
 119      53137693 
 120 0028 73CD282B 		.ascii	"s\315(+&+\305\330\311\327\230\211\205\365\254F\315\202"
 120      262BC5D8 
 120      C9D79889 
 120      85F5AC46 
 120      CD82
 121 003a 24917C94 		.ascii	"$\221|\224\250\2613f\241\233\030\347\334Q\212\234:\275"
 121      A8B13366 
 121      A19B18E7 
 121      DC518A9C 
 121      3ABD
 122 004c E73CE7F9 		.ascii	"\347<\347\371\3509\006\375]\275j\317\202\250SM\324\020"
 122      E83906FD 
 122      5DBD6ACF 
 122      82A8534D 
 122      D410
 123 005e 38794264 		.ascii	"8yBd{\230\215|#\311:Q\350'\331`@Ta\001\350\003\201\346"
 123      7B988D7C 
 123      23C93A51 
 123      E827D960 
ARM GAS  C:\Users\Thomas\AppData\Local\Temp\ccQu5SvA.s 			page 9


 123      40546101 
 124 0076 D81098C3 		.ascii	"\330\020\230\3033\227\030\311\334\336j\275wSJ\371\362"
 124      339718C9 
 124      DCDE6ABD 
 124      77534AF9 
 124      F2
 125 0087 70D1BAD0 		.ascii	"p\321\272\320\3520Q\231\253\376\330\202\227\024\247"
 125      EA305199 
 125      ABFED882 
 125      9714A7
 126 0096 94F8B8AC 		.ascii	"\224\370\270\2547\023\212\323T}\3036L\225K\331\346\234"
 126      37138AD3 
 126      547DC336 
 126      4C954BD9 
 126      E69C
 127 00a8 AC54CA97 		.ascii	"\254T\312\227+\305n6\0059\254\300GE\3209O\314z\0327"
 127      2BC56E36 
 127      0539ACC0 
 127      4745D039 
 127      4FCC7A1A 
 128 00bd 88E74A05 		.ascii	"\210\347J\005\326\022\355\265q\276\224\341\330\273\\"
 128      D612EDB5 
 128      71BE94E1 
 128      D8BB5C
 129 00cc 941E87B9 		.ascii	"\224\036\207\271\254\025\330ALi\015\272\306\374\321"
 129      AC15D841 
 129      4C690DBA 
 129      C6FCD1
 130 00db C1ED43AD 		.ascii	"\301\355C\255\346\276\261\370\315\026\037:[\241\367"
 130      E6BEB1F8 
 130      CD161F3A 
 130      5BA1F7
 131 00ea 8FA7679E 		.ascii	"\217\247g\236\"+\304\275n\333\211u\244\260fK\315\252"
 131      222BC4BD 
 131      6EDB8975 
 131      A4B0664B 
 131      CDAA
 132 00fc C12E62D8 		.ascii	"\301.b\330C\233\373\366\231^>4}\035\016\233H+\316\253"
 132      439BFBF6 
 132      995E3E34 
 132      7D1D0E9B 
 132      482BCEAB 
 133 0110 DB0CFBF0 		.ascii	"\333\014\373\360\321\005\022W\361\360O\324q\252x(\264"
 133      D1051257 
 133      F1F04FD4 
 133      71AA7828 
 133      B4
 134 0121 2940C868 		.ascii	")@\310h9\351\022\006\345\033\335\016N\241\345\277\016"
 134      39E91206 
 134      E51BDD0E 
 134      4EA1E5BF 
 134      0E
 135 0132 CA14D9EF 		.ascii	"\312\024\331\357\016Z#\334\342w\260s\225!WC\372[\240"
 135      0E5A23DC 
 135      E277B073 
 135      95215743 
 135      FA5BA0
ARM GAS  C:\Users\Thomas\AppData\Local\Temp\ccQu5SvA.s 			page 10


 136 0145 51456DEF 		.ascii	"QEm\357\012\014Za+:>mM\006G\"3\321\011+\340\037\211"
 136      0A0C5A61 
 136      2B3A3E6D 
 136      4D064722 
 136      33D1092B 
 137 015c 0CF405FC 		.ascii	"\014\364\005\374=\301\261Px44eE\203\376\341\256\011"
 137      3DC1B150 
 137      78343465 
 137      4583FEE1 
 137      AE09
 138 016e FA02FC45 		.ascii	"\372\002\374E\226%"
 138      9625
 139              		.text
 140              		.section	.gnu.lto_.symbol_nodes.c0d6bba8,"",%progbits
 141 0000 789C55CF 		.ascii	"x\234U\317\273\015\302@\020\004\320\271\331\373\272"
 141      BB0DC240 
 141      1004D0B9 
 141      D9FBBA
 142 000f 067A1D07 		.ascii	"\006z\035\007\024@\005\310Bn\303\231c\327\000\024\202"
 142      144005C8 
 142      426EC399 
 142      63D70014 
 142      82
 143 0020 B8130E96 		.ascii	"\270\023\016\226MFo6\3315\000o\234\303 \340v\000\022"
 143      4D466F36 
 143      D935006F 
 143      9CC320E0 
 143      760012
 144 0033 EE4B4502 		.ascii	"\356KE\002\026\312H\005_\323\304?G\231w\310\212?c\236"
 144      16CA4805 
 144      5FD3C43F 
 144      479977C8 
 144      8A3F639E 
 145 0047 3B939267 		.ascii	";\223\222gU\366,*\236M\325sRs4d\254\317O\260~\332\372"
 145      55F62C2A 
 145      9E4DD573 
 145      52733464 
 145      ACCF4FB0 
 146 005e EAC98A7D 		.ascii	"\352\311\212}\230\005\373\260\2653\373W##\361\030\373"
 146      9805FBB0 
 146      B533FB57 
 146      2323F118 
 146      FB
 147 006f 38E1BA5D 		.ascii	"8\341\272]\360\005F\023;H"
 147      F0054613 
 147      3B48
 148              		.text
 149              		.section	.gnu.lto_.refs.c0d6bba8,"",%progbits
 150 0000 789C25C8 		.ascii	"x\234%\310\301\021\000 \014\204@\310E+\261\377\032\315"
 150      C1110020 
 150      0C8440C8 
 150      452BB1FF 
 150      1ACD
 151 0012 282F6603 		.ascii	"(/f\003\034~AK[wj\036GV\345\321\262\261\270\013\204"
 151      1C7E414B 
 151      5B776A1E 
 151      4756E5D1 
ARM GAS  C:\Users\Thomas\AppData\Local\Temp\ccQu5SvA.s 			page 11


 151      B2B1B80B 
 152 0027 0068     		.ascii	"\000h"
 153              		.text
 154              		.section	.gnu.lto_.decls.c0d6bba8,"",%progbits
 155 0000 789C8D56 		.ascii	"x\234\215VmLSW\030\276\247\247\024(\005\231.\350\370"
 155      6D4C5357 
 155      18BEA7A7 
 155      14280599 
 155      2EE8F8
 156 0013 63830973 		.ascii	"c\203\011s\306\030\375\261\305\1773!\213[\214\013\221"
 156      C618FDB1 
 156      C57F3321 
 156      8B5B8C0B 
 156      91
 157 0024 3993CDC4 		.ascii	"9\223\315\304T\274*\221\001)\355\026\177\355\002\242"
 157      54BC2A91 
 157      0129ED16 
 157      7FED02A2 
 158 0034 58A70306 		.ascii	"X\247\003\006\021\361cuE\276\304Z\025\371*\012E)\025"
 158      11F16375 
 158      45BEC45A 
 158      15F92A0A 
 158      452915
 159 0047 04DD441C 		.ascii	"\004\335D\034L\245\024\344[V\235\"\016\222\356=\347"
 159      4CA514E4 
 159      5B569D22 
 159      0E92EE3D 
 159      E7
 160 0058 DE4BEF55 		.ascii	"\336K\357U\032w\223\267\334s\356\363<\357\373>\347\234"
 160      1A7793B7 
 160      DC73EEF3 
 160      3CEFFB3E 
 160      E79C
 161 006a 7BC10CC3 		.ascii	"{\301\014\303<D\014\343\203\353\233P\206\231\200\373"
 161      3C440CE3 
 161      83EB9B50 
 161      869980FB 
 162 007a 20988B67 		.ascii	" \230\213g\374\227\032\242\012\302\012a\203\270\014"
 162      FC971AA2 
 162      0AC20A61 
 162      83B80C
 163 0089 D1007113 		.ascii	"\321\000q\023\302\005q\033\242\013\342.\004\320\031"
 163      C205711B 
 163      A20BE22E 
 163      04D019
 164 0098 0F23BF08 		.ascii	"\017#\277\0107\\\320\324BDA\014B\264@\014A\270!\034"
 164      375CD0D4 
 164      4244410C 
 164      42B4400C 
 164      41B8211C 
 165 00ac 10631023 		.ascii	"\020c\020#\0205\020\343\020u\020\030\242\217\324\010"
 165      103510E3 
 165      10751018 
 165      A28FD408 
 166 00bc D12B8CAB 		.ascii	"\321+\214\253\204\334\015\001\362Y\027\310'\3153\001"
 166      84DC0D01 
 166      F25917C8 
ARM GAS  C:\Users\Thomas\AppData\Local\Temp\ccQu5SvA.s 			page 12


 166      27CD3301 
 167 00cc D12EE411 		.ascii	"\321.\344\021sNB8\003\344\263\012=\272\002\344\263\011"
 167      734E4238 
 167      03E4B30A 
 167      3DBA02E4 
 167      B309
 168 00de 1EC50BB9 		.ascii	"\036\305\013\271\246$\272b^\222\313\013Q!h<\022\264"
 168      A624BA62 
 168      5E92CB0B 
 168      5121683C 
 168      12B4
 169 00f0 6D827755 		.ascii	"m\202wU\001\264\211\327\301\022mQC\252+\325\273,\324"
 169      01B489D7 
 169      C1126D51 
 169      43AA2BD5 
 169      BB2CD4
 170 0103 1B682D9E 		.ascii	"\033h-\236)P\275\365Eg\330\250\002E\250\265d\330\220"
 170      2950BDF5 
 170      4567D8A8 
 170      0245A8B5 
 170      64D890
 171 0116 EF2A52C1 		.ascii	"\357*R\301P\243V\222\241}\326\323\255\\Z\310\301\225"
 171      50A35692 
 171      A17DD6D3 
 171      AD5C5AC8 
 171      C195
 172 0128 9BC5452A 		.ascii	"\233\305E*Q|\024*C\321\250\034E\203b\005Z\012\277\337"
 172      517C142A 
 172      43D1A81C 
 172      45836205 
 172      5A0ABFDF 
 173 013c 2A79A5CC 		.ascii	"*y\245\314c\205\265*\254@\344\336R4\320\255^]\011\264"
 173      6385B52A 
 173      AC40E4DE 
 173      5234D0AD 
 173      5E5D09B4 
 174 0150 1CAED985 		.ascii	"\034\256\331\205\375\351\2349=\246 \355\031\316m\363"
 174      FDE99C39 
 174      3DA620ED 
 174      19CE6DF3 
 175 0160 BA6A7A35 		.ascii	"\272jz5\234\213k\366\371>\245R\250\022at\036\255&Hr"
 175      9C8B6BF6 
 175      F93EA552 
 175      A8126174 
 175      1EAD2648 
 176 0175 4F29A80A 		.ascii	"O)\250\012i\201\226\321\224a\016\302\233\250v\201e\356"
 176      698196D1 
 176      94610EC2 
 176      9BA87681 
 176      65EE
 177 0187 B7702A61 		.ascii	"\267p*a>mQ\361\002\224\177A\302\277 \362\255\224_h\317"
 177      3E6D51F1 
 177      02947F41 
 177      C2BF20F2 
 177      AD945F68 
 178 019c 7CBC08B3 		.ascii	"|\274\010\263\224\357\353,k\017\006\276\331f\036\225"
 178      94EFEB2C 
ARM GAS  C:\Users\Thomas\AppData\Local\Temp\ccQu5SvA.s 			page 13


 178      6B0F06BE 
 178      D9661E95 
 179 01ac F12F4AF8 		.ascii	"\361/J\370\027E\276\215\362\353l^{\020\376\201\362["
 179      1745BE8D 
 179      F2EB6C5E 
 179      7B10FE81 
 179      F25B
 180 01be 078AEFAB 		.ascii	"\007\212\357\253x\276\365\234\224\177I\302\277$\362"
 180      78BEF59C 
 180      947F49C2 
 180      BF24F2
 181 01cd 2F537E4F 		.ascii	"/S~O\323\241C!\330\204\250@F\251\375\247`\3608JM-9\326"
 181      D3A14321 
 181      D884A840 
 181      46A9FDA7 
 181      60F0384A 
 182 01e5 51ECC074 		.ascii	"Q\354\300t\350#\217\025\275\275\005\2571R\307\346p\\"
 182      E8238F15 
 182      BDBD05AF 
 182      3152C7E6 
 182      705C
 183 01f7 26E7CDE7 		.ascii	"&\347\315\347\3602\006\255\216F\037E3\250\026\305\002"
 183      F03206AD 
 183      8E461F45 
 183      33A816C5 
 183      02
 184 0208 8C2641D5 		.ascii	"\214&A\325\260\014Wa\031J\300doyk\345\246,n\003\252"
 184      B00C5761 
 184      194AC064 
 184      6F796BE5 
 184      A62C6E03 
 185 021d 416A7465 		.ascii	"Ajte\276\014\232A0\376\360\001\033\226.$A\372W\262N"
 185      BE0C9A41 
 185      30FEF001 
 185      1B962E24 
 185      41FA57B2 
 186 0232 B69279B3 		.ascii	"\266\222y\263/K\025\270\232\257v\322~\316\035B\354\346"
 186      2F4B15B8 
 186      9AAF76D2 
 186      7ECE1D42 
 186      ECE6
 187 0244 BC5523CF 		.ascii	"\274U#\317\367\346e\345\226pn\237o9%\241zI\317\365b"
 187      F7E665E5 
 187      96706E9F 
 187      6F3925A1 
 187      7A49CFF5 
 188 0259 CF0DB4E7 		.ascii	"\317\015\264\347\016\317\314?\032\272\263\"\211N\361"
 188      0ECFCC3F 
 188      1ABAB322 
 188      894EF1
 189 0268 83272F30 		.ascii	"\203'/0\335Y\0122<\375|\2521\024\317\311\035\321\362"
 189      DD590A32 
 189      3CFD7CAA 
 189      3114CFC9 
 189      1DD1F2
 190 027b 8E1C9F98 		.ascii	"\216\034\237\230\251\016\241C\237\017\023Kf\007\255"
 190      A90EA143 
ARM GAS  C:\Users\Thomas\AppData\Local\Temp\ccQu5SvA.s 			page 14


 190      9F0F134B 
 190      6607AD
 191 028a 652A14AB 		.ascii	"e*\024\253\346{}\302\367\352\200\016\256\371{\325\012"
 191      E67B7DC2 
 191      F7EA800E 
 191      AEF97BD5 
 191      0A
 192 029b BD52DBB8 		.ascii	"\275R\333\270,.\250<\202Av\350\260\021:D\315\340\234"
 192      2C2EA83C 
 192      824176E8 
 192      B0113A44 
 192      CDE09C
 193 02ae 5670EE3A 		.ascii	"Vp\356:L6\301$dz\235\335\331/\263\305!\263\245Ef\313"
 193      4C36C124 
 193      647A9DDD 
 193      D92FB3C5 
 193      21B3A545 
 194 02c4 ADF1CC1C 		.ascii	"\255\361\314\034\025\316\342wx\301\025\333n\301\225"
 194      15CEE277 
 194      78C115DB 
 194      6EC195
 195 02d3 B2E9CF25 		.ascii	"\262\351\317%\256\000\007\335\220\270rCt\345&u%7\333"
 195      AE0007DD 
 195      90B87243 
 195      74E52675 
 195      2537DB
 196 02e6 91AB542A 		.ascii	"\221\253T*`LV\340[z\312^\372\006\316)\002\2362'-\242"
 196      604C56E0 
 196      5B7ACA5E 
 196      FA06CE29 
 196      029E3227 
 197 02fc 150955E4 		.ascii	"\025\011U\344\234r\265k\360I\276\012\257\351\354\035"
 197      9C72B56B 
 197      F049BE0A 
 197      AFE9EC1D 
 198 030c 7A1638F7 		.ascii	"z\0268\367mK\233\306,\036'\340\2406I\021mb\021.ZDc\311"
 198      6D4B9BC6 
 198      2C1E27E0 
 198      A0364911 
 198      6D62112E 
 199 0324 F854182D 		.ascii	"\370T\030-\3021_D\377\325\351Zu\300\"\332i\021\267\304"
 199      C2315F44 
 199      FFD5E95A 
 199      75C022DA 
 199      6911B7C4 
 200 0338 22062AEF 		.ascii	"\"\006*\357U\204\342F\276\210\203C\257N\253\370\"\372"
 200      5584E246 
 200      BE888343 
 200      AF4EABF8 
 200      22FA
 201 034a 2C4E7F11 		.ascii	",N\177\021\300A\035\222\":\304\"n\323\"\356\3256r\301"
 201      C0411D92 
 201      223AC422 
 201      6ED322EE 
 201      D53672C1 
 202 035e F83EAF71 		.ascii	"\370>\257q\364p\3338\257a\266[\016j%\247\252S\242\320"
 202      F470DB38 
ARM GAS  C:\Users\Thomas\AppData\Local\Temp\ccQu5SvA.s 			page 15


 202      AF61B65B 
 202      0E6A25A7 
 202      AA53A2D0 
 203 0372 292A7451 		.ascii	")*tQ\205\231Kc\263Ax\230W0\333\1779(Xq\262\225m9\300"
 203      85994B63 
 203      B3417898 
 203      5730DB7F 
 203      39285871 
 204 038b CD91CD43 		.ascii	"\315\221\315C%\356H$\356\210\022w\251D\377\253\376\226"
 204      25EE4824 
 204      EE881277 
 204      A944FFAB 
 204      FE96
 205 039d 60BA49D7 		.ascii	"`\272I\327\022\221\374\354\272\272\010\272IUd\350qN"
 205      1291FCEC 
 205      BABA08BA 
 205      495564E8 
 205      714E
 206 03af CF45E0D7 		.ascii	"\317E\340\327|\202g\327\216Z\3248\037\323\301\361\266"
 206      7C8267D7 
 206      8E5AD438 
 206      1FD3C1F1 
 206      B6
 207 03c0 1BFF626C 		.ascii	"\033\377bl\341\007\007\256\225\346\006\343*~0|\346D"
 207      E10707AE 
 207      95E606E3 
 207      2A7E307C 
 207      E644
 208 03d2 CF22DCC4 		.ascii	"\317\"\334\304\017\312=]\371\341T~%\014UG\362\362\037"
 208      0FCA3D5D 
 208      F9E1547E 
 208      250C5547 
 208      F2F21F
 209 03e5 86A39898 		.ascii	"\206\243\230\230%11\261f\330\247\356_\007\333\303\270"
 209      253131B1 
 209      66D8A7EE 
 209      5F07DBC3 
 209      B8
 210 03f6 A2B5742F 		.ascii	"\242\265t/<\200*\377BK\304\263\276\222\330\376'1\237"
 210      3C802AFF 
 210      424BC4B3 
 210      BE92D8FE 
 210      27319F
 211 0409 A1D0A22C 		.ascii	"\241\320\242,\223\206+_KW\354\276\000\235\337\336\024"
 211      93862B5F 
 211      4B57ECBE 
 211      009DDFDE 
 211      14
 212 041a 6CA7E03C 		.ascii	"l\247\340<\272\202\034\267A\317\240\337\341\371\037"
 212      BA821CB7 
 212      41CFA0DF 
 212      E1F91F
 213 0429 74FD081A 		.ascii	"t\375\010\032,@\217\341\034<B1\250\017\342!D/\212\241"
 213      2C408FE1 
 213      1C3C4231 
 213      A80FE221 
 213      442F8AA1 
ARM GAS  C:\Users\Thomas\AppData\Local\Temp\ccQu5SvA.s 			page 16


 214 043d 76D01427 		.ascii	"v\320\024'\006\333\346\253\351Y\240\2322\1775G\007\235"
 214      06DBE6AB 
 214      E959A09A 
 214      327F3547 
 214      079D
 215 044f F3D0EE05 		.ascii	"\363\320\356\005\240\253\010\222\034W\367\021\213\212"
 215      A0AB0892 
 215      1C57F711 
 215      8B8A
 216 045d 43E43923 		.ascii	"C\3449#\256\201\370NRT\217s\005a(v\011\305\235\217\013"
 216      AE81F84E 
 216      52548F73 
 216      05612876 
 216      09C59D8F 
 217 0472 416E50B9 		.ascii	"AnP\271\347?\322\204D\257\205zB\375\320\312\273\332"
 217      E73FD284 
 217      44AF857A 
 217      42FDD0CA 
 217      BBDA
 218 0484 224B5A7A 		.ascii	"\"KZz\321\031\216\273\371\365\0301\235z\246Yq\226\343"
 218      D1198EBB 
 218      F9F51831 
 218      9D7AA659 
 218      7196E3
 219 0497 CC5E575F 		.ascii	"\314^W_\211\"\2033\303\273\202\3544\232z\200O-\261m"
 219      89228333 
 219      C3BB82EC 
 219      349A7A80 
 219      4F2DB16D 
 220 04ab 80DF2DC8 		.ascii	"\200\337-\310\203V\000\373\251\2472W\2451\221\027\014"
 220      835600FB 
 220      A9A73257 
 220      A5319117 
 220      0C
 221 04bc 1C915057 		.ascii	"\034\221PW\004=\354\376C2\2104\024\015\177\001]\323"
 221      043DECFE 
 221      43328834 
 221      140D7F01 
 221      5DD3
 222 04ce 5359A894 		.ascii	"SY\250\224\241I\016?zH@\017Q4w\374HI\010\036\341\313"
 222      A1490E3F 
 222      7A48400F 
 222      513477FC 
 222      4849081E 
 223 04e4 BC3A6DAA 		.ascii	"\274:m\252\017W\347\220\327\330\273?\000`dw\227\251"
 223      0F57E790 
 223      D7D8BB3F 
 223      00606477 
 223      97A9
 224 04f6 2794FF64 		.ascii	"'\224\377d\274\311\030\015\360\311\260\225g7i8N\211"
 224      BCC9180D 
 224      F0C9B095 
 224      67376938 
 224      4E89
 225 0508 4660059F 		.ascii	"F`\005\237\370=\037F\222o\206\247\270S#\353`D\366z\034"
 225      F83D1F46 
 225      926F86A7 
ARM GAS  C:\Users\Thomas\AppData\Local\Temp\ccQu5SvA.s 			page 17


 225      B85323EB 
 225      6044F67A 
 226 051d 133A18A3 		.ascii	"\023:\030\243\035\314\234\035\030^$C\327\311\334\031"
 226      1DCC9C1D 
 226      185E2443 
 226      D7C9DC19 
 227 052d 17D0E314 		.ascii	"\027\320\343\024\335\327\340x\024.C\267\313\320\023"
 227      DDD7E078 
 227      142E43B7 
 227      CBD013
 228 053c 027A82A2 		.ascii	"\002z\202\242s\363O^\017\225\241\2352\364\244\200\236"
 228      73F34F5E 
 228      0F95A19D 
 228      32F4A480 
 228      9E
 229 054d 2468EC28 		.ascii	"$h\354(s\364\251Q\264:\272\010\376\375\230Y\216\246"
 229      73F4A951 
 229      B43ABA08 
 229      FEFD9859 
 229      8EA6
 230 055f A0A71CB2 		.ascii	"\240\247\034\262\205\274\231\034.\212\020\275a\350\003"
 230      85BC991C 
 230      2E8A10BD 
 230      61E803
 231 056e 06FD0D32 		.ascii	"\006\375\0152OA\206\240\233G}\276\037}\374\365s0\005"
 231      4F4186A0 
 231      9B477DBE 
 231      1F7DFCF5 
 231      733005
 232 0581 901F28E1 		.ascii	"\220\037(\341qQ\263I\276\234\025\262\022\274H#z\010"
 232      7151B349 
 232      BE9C15B2 
 232      12BC4823 
 232      7A08
 233 0593 B74C54FC 		.ascii	"\267LT\374\272\035\333\222R\276J\372\216\325\357H\320"
 233      BA1DDB92 
 233      52BE4AFA 
 233      8ED5EF48 
 233      D0
 234 05a4 7DCFC6A5 		.ascii	"}\317\306\245\246\354N\332\243\332\370\345Vm\034\263"
 234      A6EC4EDA 
 234      A3DAF8E5 
 234      566D1CB3 
 235 05b4 6ACDF68D 		.ascii	"j\315\366\215l\012\253\327\031\330];\022R\215\372Dv"
 235      6C0AABD7 
 235      19D85D3B 
 235      12528DFA 
 235      4476
 236 05c6 7B7C426A 		.ascii	"{|Bj\334\307\333\245\264\370\315k\022\231\017\2443["
 236      DCC7DBA5 
 236      B4F8CD6B 
 236      12990FA4 
 236      335B
 237 05d8 D87443AA 		.ascii	"\330tC\252^\320zO\226\"\231e\323\026Kg\266\351\366\261"
 237      5ED07A4F 
 237      96229965 
 237      D3164B67 
ARM GAS  C:\Users\Thomas\AppData\Local\Temp\ccQu5SvA.s 			page 18


 237      B6E9F6B1 
 238 05ec C6B42063 		.ascii	"\306\264 cR\212a\375\212\200\371\022\367\033\366\247"
 238      528A61FD 
 238      8A80F912 
 238      F71BF6A7 
 239 05fc B1E96BF6 		.ascii	"\261\351k\3662\313\345\211t\273 \213A\237\232\274\205"
 239      32CBE589 
 239      74BB208B 
 239      419F9ABC 
 239      85
 240 060d DD93946E 		.ascii	"\335\223\224n`\365\037\376\237\232AGE2\256\373d\351"
 240      60F51FFE 
 240      9F9A4147 
 240      4532AEFB 
 240      64E9
 241 061f DB72C614 		.ascii	"\333r\306\024\220\321\312j\324'\031\3307\362,[\000@"
 241      90D1CA6A 
 241      D42719D8 
 241      37F22C5B 
 241      0040
 242 0631 9991B27E 		.ascii	"\231\221\262~\015\251\362v?K\321\355Lfe\344\235\272"
 242      0DA9F276 
 242      3F4BD1ED 
 242      4C6665E4 
 242      9DBA
 243 0643 C47DC6B4 		.ascii	"\304}\306\264\004\203\336\230h\210\244S<(\301\000=\204"
 243      0483DE98 
 243      6888A453 
 243      3C28C100 
 243      3D84
 244 0655 D089ADBB 		.ascii	"\320\211\255\273v.\376\202\210\353\215i\206\315\272"
 244      762EFE82 
 244      88EB8D69 
 244      86CDBA
 245 0664 F47D5FEB 		.ascii	"\364}_\353\222\215\354\373\364\331\033u-~[Z\251g\367"
 245      928DECFB 
 245      F4D91B75 
 245      2D7E5B5A 
 245      A967F7
 246 0677 ACFF0FC9 		.ascii	"\254\377\017\311\261\312\261"
 246      B1CAB1
 247              		.text
 248              		.section	.gnu.lto_.symtab.c0d6bba8,"",%progbits
 249 0000 50315F57 		.ascii	"P1_WinTimer_SaveConfig\000\000\000\000\000\000\000\000"
 249      696E5469 
 249      6D65725F 
 249      53617665 
 249      436F6E66 
 250 001e 00000000 		.ascii	"\000\000\000\000\254\000\000\000P1_WinTimer_Restore"
 250      AC000000 
 250      50315F57 
 250      696E5469 
 250      6D65725F 
 251 0039 436F6E66 		.ascii	"Config\000\000\000\000\000\000\000\000\000\000\000\000"
 251      69670000 
 251      00000000 
 251      00000000 
ARM GAS  C:\Users\Thomas\AppData\Local\Temp\ccQu5SvA.s 			page 19


 251      0000
 252 004b AE000000 		.ascii	"\256\000\000\000P1_WinTimer_Sleep\000\000\000\000\000"
 252      50315F57 
 252      696E5469 
 252      6D65725F 
 252      536C6565 
 253 0065 00000000 		.ascii	"\000\000\000\000\000\000\000\260\000\000\000P1_WinT"
 253      000000B0 
 253      00000050 
 253      315F5769 
 253      6E54
 254 0077 696D6572 		.ascii	"imer_Wakeup\000\000\000\000\000\000\000\000\000\000"
 254      5F57616B 
 254      65757000 
 254      00000000 
 254      00000000 
 255 008c 0000B200 		.ascii	"\000\000\262\000\000\000P1_WinTimer_ReadControlRegi"
 255      00005031 
 255      5F57696E 
 255      54696D65 
 255      725F5265 
 256 00ad 73746572 		.ascii	"ster\000\000\002\000\000\000\000\000\000\000\000\000"
 256      00000200 
 256      00000000 
 256      00000000 
 257 00bd BA000000 		.ascii	"\272\000\000\000P1_WinTimer_ReadCounter\000\000\002"
 257      50315F57 
 257      696E5469 
 257      6D65725F 
 257      52656164 
 258 00db 00000000 		.ascii	"\000\000\000\000\000\000\000\000\000\304\000\000\000"
 258      00000000 
 258      00C40000 
 258      00
 259 00e8 50315F57 		.ascii	"P1_WinTimer_WriteControlRegister\000\000\002\000\000"
 259      696E5469 
 259      6D65725F 
 259      57726974 
 259      65436F6E 
 260 010d 00000000 		.ascii	"\000\000\000\000\000\000\000\310\000\000\000P1_WinT"
 260      000000C8 
 260      00000050 
 260      315F5769 
 260      6E54
 261 011f 696D6572 		.ascii	"imer_WriteCounter\000\000\002\000\000\000\000\000\000"
 261      5F577269 
 261      7465436F 
 261      756E7465 
 261      72000002 
 262 0139 000000CC 		.ascii	"\000\000\000\314\000\000\000P1_WinTimer_Stop\000\000"
 262      00000050 
 262      315F5769 
 262      6E54696D 
 262      65725F53 
 263 0152 02000000 		.ascii	"\002\000\000\000\000\000\000\000\000\000\316\000\000"
 263      00000000 
 263      0000CE00 
ARM GAS  C:\Users\Thomas\AppData\Local\Temp\ccQu5SvA.s 			page 20


 263      00
 264 015f 0050315F 		.ascii	"\000P1_WinTimer_Enable\000\000\002\000\000\000\000\000"
 264      57696E54 
 264      696D6572 
 264      5F456E61 
 264      626C6500 
 265 017a 00000000 		.ascii	"\000\000\000\000\320\000\000\000"
 265      D0000000 
 266              		.text
 267              		.section	.gnu.lto_.opts,"",%progbits
 268 0000 272D666E 		.ascii	"'-fno-trapv' '-mcpu=cortex-m3' '-mthumb' '-g' '-O3'"
 268      6F2D7472 
 268      61707627 
 268      20272D6D 
 268      6370753D 
 269 0033 20272D66 		.ascii	" '-ffunction-sections' '-finline-functions' '-flto'"
 269      66756E63 
 269      74696F6E 
 269      2D736563 
 269      74696F6E 
 270 0066 20272D66 		.ascii	" '-ffat-lto-objects'\000"
 270      6661742D 
 270      6C746F2D 
 270      6F626A65 
 270      63747327 
 271              		.text
 272              		.cfi_sections	.debug_frame
 273              		.section	.text.P1_WinTimer_SaveConfig,"ax",%progbits
 274              		.align	2
 275              		.global	P1_WinTimer_SaveConfig
 276              		.thumb
 277              		.thumb_func
 278              		.type	P1_WinTimer_SaveConfig, %function
 279              	P1_WinTimer_SaveConfig:
 280              	.LFB0:
 281              		.file 1 ".\\Generated_Source\\PSoC5\\P1_WinTimer_PM.c"
   1:.\Generated_Source\PSoC5/P1_WinTimer_PM.c **** /*******************************************************************************
   2:.\Generated_Source\PSoC5/P1_WinTimer_PM.c **** * File Name: P1_WinTimer_PM.c
   3:.\Generated_Source\PSoC5/P1_WinTimer_PM.c **** * Version 2.70
   4:.\Generated_Source\PSoC5/P1_WinTimer_PM.c **** *
   5:.\Generated_Source\PSoC5/P1_WinTimer_PM.c **** *  Description:
   6:.\Generated_Source\PSoC5/P1_WinTimer_PM.c **** *     This file provides the power management source code to API for the
   7:.\Generated_Source\PSoC5/P1_WinTimer_PM.c **** *     Timer.
   8:.\Generated_Source\PSoC5/P1_WinTimer_PM.c **** *
   9:.\Generated_Source\PSoC5/P1_WinTimer_PM.c **** *   Note:
  10:.\Generated_Source\PSoC5/P1_WinTimer_PM.c **** *     None
  11:.\Generated_Source\PSoC5/P1_WinTimer_PM.c **** *
  12:.\Generated_Source\PSoC5/P1_WinTimer_PM.c **** *******************************************************************************
  13:.\Generated_Source\PSoC5/P1_WinTimer_PM.c **** * Copyright 2008-2014, Cypress Semiconductor Corporation.  All rights reserved.
  14:.\Generated_Source\PSoC5/P1_WinTimer_PM.c **** * You may use this file only in accordance with the license, terms, conditions,
  15:.\Generated_Source\PSoC5/P1_WinTimer_PM.c **** * disclaimers, and limitations in the end user license agreement accompanying
  16:.\Generated_Source\PSoC5/P1_WinTimer_PM.c **** * the software package with which this file was provided.
  17:.\Generated_Source\PSoC5/P1_WinTimer_PM.c **** ********************************************************************************/
  18:.\Generated_Source\PSoC5/P1_WinTimer_PM.c **** 
  19:.\Generated_Source\PSoC5/P1_WinTimer_PM.c **** #include "P1_WinTimer.h"
  20:.\Generated_Source\PSoC5/P1_WinTimer_PM.c **** 
  21:.\Generated_Source\PSoC5/P1_WinTimer_PM.c **** static P1_WinTimer_backupStruct P1_WinTimer_backup;
ARM GAS  C:\Users\Thomas\AppData\Local\Temp\ccQu5SvA.s 			page 21


  22:.\Generated_Source\PSoC5/P1_WinTimer_PM.c **** 
  23:.\Generated_Source\PSoC5/P1_WinTimer_PM.c **** 
  24:.\Generated_Source\PSoC5/P1_WinTimer_PM.c **** /*******************************************************************************
  25:.\Generated_Source\PSoC5/P1_WinTimer_PM.c **** * Function Name: P1_WinTimer_SaveConfig
  26:.\Generated_Source\PSoC5/P1_WinTimer_PM.c **** ********************************************************************************
  27:.\Generated_Source\PSoC5/P1_WinTimer_PM.c **** *
  28:.\Generated_Source\PSoC5/P1_WinTimer_PM.c **** * Summary:
  29:.\Generated_Source\PSoC5/P1_WinTimer_PM.c **** *     Save the current user configuration
  30:.\Generated_Source\PSoC5/P1_WinTimer_PM.c **** *
  31:.\Generated_Source\PSoC5/P1_WinTimer_PM.c **** * Parameters:
  32:.\Generated_Source\PSoC5/P1_WinTimer_PM.c **** *  void
  33:.\Generated_Source\PSoC5/P1_WinTimer_PM.c **** *
  34:.\Generated_Source\PSoC5/P1_WinTimer_PM.c **** * Return:
  35:.\Generated_Source\PSoC5/P1_WinTimer_PM.c **** *  void
  36:.\Generated_Source\PSoC5/P1_WinTimer_PM.c **** *
  37:.\Generated_Source\PSoC5/P1_WinTimer_PM.c **** * Global variables:
  38:.\Generated_Source\PSoC5/P1_WinTimer_PM.c **** *  P1_WinTimer_backup:  Variables of this global structure are modified to
  39:.\Generated_Source\PSoC5/P1_WinTimer_PM.c **** *  store the values of non retention configuration registers when Sleep() API is
  40:.\Generated_Source\PSoC5/P1_WinTimer_PM.c **** *  called.
  41:.\Generated_Source\PSoC5/P1_WinTimer_PM.c **** *
  42:.\Generated_Source\PSoC5/P1_WinTimer_PM.c **** *******************************************************************************/
  43:.\Generated_Source\PSoC5/P1_WinTimer_PM.c **** void P1_WinTimer_SaveConfig(void) 
  44:.\Generated_Source\PSoC5/P1_WinTimer_PM.c **** {
 282              		.loc 1 44 0
 283              		.cfi_startproc
 284              		@ args = 0, pretend = 0, frame = 0
 285              		@ frame_needed = 0, uses_anonymous_args = 0
 286 0000 10B5     		push	{r4, lr}
 287              		.cfi_def_cfa_offset 8
 288              		.cfi_offset 4, -8
 289              		.cfi_offset 14, -4
  45:.\Generated_Source\PSoC5/P1_WinTimer_PM.c ****     #if (!P1_WinTimer_UsingFixedFunction)
  46:.\Generated_Source\PSoC5/P1_WinTimer_PM.c ****         P1_WinTimer_backup.TimerUdb = P1_WinTimer_ReadCounter();
 290              		.loc 1 46 0
 291 0002 FFF7FEFF 		bl	P1_WinTimer_ReadCounter
 292              	.LVL0:
  47:.\Generated_Source\PSoC5/P1_WinTimer_PM.c ****         P1_WinTimer_backup.InterruptMaskValue = P1_WinTimer_STATUS_MASK;
 293              		.loc 1 47 0
 294 0006 044B     		ldr	r3, .L3
  46:.\Generated_Source\PSoC5/P1_WinTimer_PM.c ****         P1_WinTimer_backup.InterruptMaskValue = P1_WinTimer_STATUS_MASK;
 295              		.loc 1 46 0
 296 0008 044C     		ldr	r4, .L3+4
 297              		.loc 1 47 0
 298 000a 1B78     		ldrb	r3, [r3]	@ zero_extendqisi2
  46:.\Generated_Source\PSoC5/P1_WinTimer_PM.c ****         P1_WinTimer_backup.InterruptMaskValue = P1_WinTimer_STATUS_MASK;
 299              		.loc 1 46 0
 300 000c 6080     		strh	r0, [r4, #2]	@ movhi
 301              		.loc 1 47 0
 302 000e 2371     		strb	r3, [r4, #4]
  48:.\Generated_Source\PSoC5/P1_WinTimer_PM.c ****         #if (P1_WinTimer_UsingHWCaptureCounter)
  49:.\Generated_Source\PSoC5/P1_WinTimer_PM.c ****             P1_WinTimer_backup.TimerCaptureCounter = P1_WinTimer_ReadCaptureCount();
  50:.\Generated_Source\PSoC5/P1_WinTimer_PM.c ****         #endif /* Back Up capture counter register  */
  51:.\Generated_Source\PSoC5/P1_WinTimer_PM.c **** 
  52:.\Generated_Source\PSoC5/P1_WinTimer_PM.c ****         #if(!P1_WinTimer_UDB_CONTROL_REG_REMOVED)
  53:.\Generated_Source\PSoC5/P1_WinTimer_PM.c ****             P1_WinTimer_backup.TimerControlRegister = P1_WinTimer_ReadControlRegister();
 303              		.loc 1 53 0
 304 0010 FFF7FEFF 		bl	P1_WinTimer_ReadControlRegister
ARM GAS  C:\Users\Thomas\AppData\Local\Temp\ccQu5SvA.s 			page 22


 305              	.LVL1:
 306 0014 6071     		strb	r0, [r4, #5]
 307 0016 10BD     		pop	{r4, pc}
 308              	.L4:
 309              		.align	2
 310              	.L3:
 311 0018 8A640040 		.word	1073767562
 312 001c 00000000 		.word	.LANCHOR0
 313              		.cfi_endproc
 314              	.LFE0:
 315              		.size	P1_WinTimer_SaveConfig, .-P1_WinTimer_SaveConfig
 316              		.section	.text.P1_WinTimer_RestoreConfig,"ax",%progbits
 317              		.align	2
 318              		.global	P1_WinTimer_RestoreConfig
 319              		.thumb
 320              		.thumb_func
 321              		.type	P1_WinTimer_RestoreConfig, %function
 322              	P1_WinTimer_RestoreConfig:
 323              	.LFB1:
  54:.\Generated_Source\PSoC5/P1_WinTimer_PM.c ****         #endif /* Backup the enable state of the Timer component */
  55:.\Generated_Source\PSoC5/P1_WinTimer_PM.c ****     #endif /* Backup non retention registers in UDB implementation. All fixed function registers ar
  56:.\Generated_Source\PSoC5/P1_WinTimer_PM.c **** }
  57:.\Generated_Source\PSoC5/P1_WinTimer_PM.c **** 
  58:.\Generated_Source\PSoC5/P1_WinTimer_PM.c **** 
  59:.\Generated_Source\PSoC5/P1_WinTimer_PM.c **** /*******************************************************************************
  60:.\Generated_Source\PSoC5/P1_WinTimer_PM.c **** * Function Name: P1_WinTimer_RestoreConfig
  61:.\Generated_Source\PSoC5/P1_WinTimer_PM.c **** ********************************************************************************
  62:.\Generated_Source\PSoC5/P1_WinTimer_PM.c **** *
  63:.\Generated_Source\PSoC5/P1_WinTimer_PM.c **** * Summary:
  64:.\Generated_Source\PSoC5/P1_WinTimer_PM.c **** *  Restores the current user configuration.
  65:.\Generated_Source\PSoC5/P1_WinTimer_PM.c **** *
  66:.\Generated_Source\PSoC5/P1_WinTimer_PM.c **** * Parameters:
  67:.\Generated_Source\PSoC5/P1_WinTimer_PM.c **** *  void
  68:.\Generated_Source\PSoC5/P1_WinTimer_PM.c **** *
  69:.\Generated_Source\PSoC5/P1_WinTimer_PM.c **** * Return:
  70:.\Generated_Source\PSoC5/P1_WinTimer_PM.c **** *  void
  71:.\Generated_Source\PSoC5/P1_WinTimer_PM.c **** *
  72:.\Generated_Source\PSoC5/P1_WinTimer_PM.c **** * Global variables:
  73:.\Generated_Source\PSoC5/P1_WinTimer_PM.c **** *  P1_WinTimer_backup:  Variables of this global structure are used to
  74:.\Generated_Source\PSoC5/P1_WinTimer_PM.c **** *  restore the values of non retention registers on wakeup from sleep mode.
  75:.\Generated_Source\PSoC5/P1_WinTimer_PM.c **** *
  76:.\Generated_Source\PSoC5/P1_WinTimer_PM.c **** *******************************************************************************/
  77:.\Generated_Source\PSoC5/P1_WinTimer_PM.c **** void P1_WinTimer_RestoreConfig(void) 
  78:.\Generated_Source\PSoC5/P1_WinTimer_PM.c **** {   
 324              		.loc 1 78 0
 325              		.cfi_startproc
 326              		@ args = 0, pretend = 0, frame = 0
 327              		@ frame_needed = 0, uses_anonymous_args = 0
 328 0000 10B5     		push	{r4, lr}
 329              		.cfi_def_cfa_offset 8
 330              		.cfi_offset 4, -8
 331              		.cfi_offset 14, -4
  79:.\Generated_Source\PSoC5/P1_WinTimer_PM.c ****     #if (!P1_WinTimer_UsingFixedFunction)
  80:.\Generated_Source\PSoC5/P1_WinTimer_PM.c **** 
  81:.\Generated_Source\PSoC5/P1_WinTimer_PM.c ****         P1_WinTimer_WriteCounter(P1_WinTimer_backup.TimerUdb);
 332              		.loc 1 81 0
 333 0002 064C     		ldr	r4, .L7
ARM GAS  C:\Users\Thomas\AppData\Local\Temp\ccQu5SvA.s 			page 23


 334 0004 6088     		ldrh	r0, [r4, #2]
 335 0006 FFF7FEFF 		bl	P1_WinTimer_WriteCounter
 336              	.LVL2:
  82:.\Generated_Source\PSoC5/P1_WinTimer_PM.c ****         P1_WinTimer_STATUS_MASK =P1_WinTimer_backup.InterruptMaskValue;
 337              		.loc 1 82 0
 338 000a 2279     		ldrb	r2, [r4, #4]	@ zero_extendqisi2
 339 000c 044B     		ldr	r3, .L7+4
  83:.\Generated_Source\PSoC5/P1_WinTimer_PM.c ****         #if (P1_WinTimer_UsingHWCaptureCounter)
  84:.\Generated_Source\PSoC5/P1_WinTimer_PM.c ****             P1_WinTimer_SetCaptureCount(P1_WinTimer_backup.TimerCaptureCounter);
  85:.\Generated_Source\PSoC5/P1_WinTimer_PM.c ****         #endif /* Restore Capture counter register*/
  86:.\Generated_Source\PSoC5/P1_WinTimer_PM.c **** 
  87:.\Generated_Source\PSoC5/P1_WinTimer_PM.c ****         #if(!P1_WinTimer_UDB_CONTROL_REG_REMOVED)
  88:.\Generated_Source\PSoC5/P1_WinTimer_PM.c ****             P1_WinTimer_WriteControlRegister(P1_WinTimer_backup.TimerControlRegister);
 340              		.loc 1 88 0
 341 000e 6079     		ldrb	r0, [r4, #5]	@ zero_extendqisi2
  82:.\Generated_Source\PSoC5/P1_WinTimer_PM.c ****         P1_WinTimer_STATUS_MASK =P1_WinTimer_backup.InterruptMaskValue;
 342              		.loc 1 82 0
 343 0010 1A70     		strb	r2, [r3]
  89:.\Generated_Source\PSoC5/P1_WinTimer_PM.c ****         #endif /* Restore the enable state of the Timer component */
  90:.\Generated_Source\PSoC5/P1_WinTimer_PM.c ****     #endif /* Restore non retention registers in the UDB implementation only */
  91:.\Generated_Source\PSoC5/P1_WinTimer_PM.c **** }
 344              		.loc 1 91 0
 345 0012 BDE81040 		pop	{r4, lr}
 346              		.cfi_restore 14
 347              		.cfi_restore 4
 348              		.cfi_def_cfa_offset 0
  88:.\Generated_Source\PSoC5/P1_WinTimer_PM.c ****         #endif /* Restore the enable state of the Timer component */
 349              		.loc 1 88 0
 350 0016 FFF7FEBF 		b	P1_WinTimer_WriteControlRegister
 351              	.LVL3:
 352              	.L8:
 353 001a 00BF     		.align	2
 354              	.L7:
 355 001c 00000000 		.word	.LANCHOR0
 356 0020 8A640040 		.word	1073767562
 357              		.cfi_endproc
 358              	.LFE1:
 359              		.size	P1_WinTimer_RestoreConfig, .-P1_WinTimer_RestoreConfig
 360              		.section	.text.P1_WinTimer_Sleep,"ax",%progbits
 361              		.align	2
 362              		.global	P1_WinTimer_Sleep
 363              		.thumb
 364              		.thumb_func
 365              		.type	P1_WinTimer_Sleep, %function
 366              	P1_WinTimer_Sleep:
 367              	.LFB2:
  92:.\Generated_Source\PSoC5/P1_WinTimer_PM.c **** 
  93:.\Generated_Source\PSoC5/P1_WinTimer_PM.c **** 
  94:.\Generated_Source\PSoC5/P1_WinTimer_PM.c **** /*******************************************************************************
  95:.\Generated_Source\PSoC5/P1_WinTimer_PM.c **** * Function Name: P1_WinTimer_Sleep
  96:.\Generated_Source\PSoC5/P1_WinTimer_PM.c **** ********************************************************************************
  97:.\Generated_Source\PSoC5/P1_WinTimer_PM.c **** *
  98:.\Generated_Source\PSoC5/P1_WinTimer_PM.c **** * Summary:
  99:.\Generated_Source\PSoC5/P1_WinTimer_PM.c **** *     Stop and Save the user configuration
 100:.\Generated_Source\PSoC5/P1_WinTimer_PM.c **** *
 101:.\Generated_Source\PSoC5/P1_WinTimer_PM.c **** * Parameters:
 102:.\Generated_Source\PSoC5/P1_WinTimer_PM.c **** *  void
ARM GAS  C:\Users\Thomas\AppData\Local\Temp\ccQu5SvA.s 			page 24


 103:.\Generated_Source\PSoC5/P1_WinTimer_PM.c **** *
 104:.\Generated_Source\PSoC5/P1_WinTimer_PM.c **** * Return:
 105:.\Generated_Source\PSoC5/P1_WinTimer_PM.c **** *  void
 106:.\Generated_Source\PSoC5/P1_WinTimer_PM.c **** *
 107:.\Generated_Source\PSoC5/P1_WinTimer_PM.c **** * Global variables:
 108:.\Generated_Source\PSoC5/P1_WinTimer_PM.c **** *  P1_WinTimer_backup.TimerEnableState:  Is modified depending on the
 109:.\Generated_Source\PSoC5/P1_WinTimer_PM.c **** *  enable state of the block before entering sleep mode.
 110:.\Generated_Source\PSoC5/P1_WinTimer_PM.c **** *
 111:.\Generated_Source\PSoC5/P1_WinTimer_PM.c **** *******************************************************************************/
 112:.\Generated_Source\PSoC5/P1_WinTimer_PM.c **** void P1_WinTimer_Sleep(void) 
 113:.\Generated_Source\PSoC5/P1_WinTimer_PM.c **** {
 368              		.loc 1 113 0
 369              		.cfi_startproc
 370              		@ args = 0, pretend = 0, frame = 0
 371              		@ frame_needed = 0, uses_anonymous_args = 0
 372 0000 10B5     		push	{r4, lr}
 373              		.cfi_def_cfa_offset 8
 374              		.cfi_offset 4, -8
 375              		.cfi_offset 14, -4
 114:.\Generated_Source\PSoC5/P1_WinTimer_PM.c ****     #if(!P1_WinTimer_UDB_CONTROL_REG_REMOVED)
 115:.\Generated_Source\PSoC5/P1_WinTimer_PM.c ****         /* Save Counter's enable state */
 116:.\Generated_Source\PSoC5/P1_WinTimer_PM.c ****         if(P1_WinTimer_CTRL_ENABLE == (P1_WinTimer_CONTROL & P1_WinTimer_CTRL_ENABLE))
 376              		.loc 1 116 0
 377 0002 084B     		ldr	r3, .L11
 378 0004 084C     		ldr	r4, .L11+4
 379 0006 1B78     		ldrb	r3, [r3]	@ zero_extendqisi2
 380 0008 DB09     		lsrs	r3, r3, #7
 381 000a 2370     		strb	r3, [r4]
 117:.\Generated_Source\PSoC5/P1_WinTimer_PM.c ****         {
 118:.\Generated_Source\PSoC5/P1_WinTimer_PM.c ****             /* Timer is enabled */
 119:.\Generated_Source\PSoC5/P1_WinTimer_PM.c ****             P1_WinTimer_backup.TimerEnableState = 1u;
 120:.\Generated_Source\PSoC5/P1_WinTimer_PM.c ****         }
 121:.\Generated_Source\PSoC5/P1_WinTimer_PM.c ****         else
 122:.\Generated_Source\PSoC5/P1_WinTimer_PM.c ****         {
 123:.\Generated_Source\PSoC5/P1_WinTimer_PM.c ****             /* Timer is disabled */
 124:.\Generated_Source\PSoC5/P1_WinTimer_PM.c ****             P1_WinTimer_backup.TimerEnableState = 0u;
 125:.\Generated_Source\PSoC5/P1_WinTimer_PM.c ****         }
 126:.\Generated_Source\PSoC5/P1_WinTimer_PM.c ****     #endif /* Back up enable state from the Timer control register */
 127:.\Generated_Source\PSoC5/P1_WinTimer_PM.c ****     P1_WinTimer_Stop();
 382              		.loc 1 127 0
 383 000c FFF7FEFF 		bl	P1_WinTimer_Stop
 384              	.LVL4:
 385              	.LBB4:
 386              	.LBB5:
  46:.\Generated_Source\PSoC5/P1_WinTimer_PM.c ****         P1_WinTimer_backup.InterruptMaskValue = P1_WinTimer_STATUS_MASK;
 387              		.loc 1 46 0
 388 0010 FFF7FEFF 		bl	P1_WinTimer_ReadCounter
 389              	.LVL5:
  47:.\Generated_Source\PSoC5/P1_WinTimer_PM.c ****         #if (P1_WinTimer_UsingHWCaptureCounter)
 390              		.loc 1 47 0
 391 0014 054B     		ldr	r3, .L11+8
  46:.\Generated_Source\PSoC5/P1_WinTimer_PM.c ****         P1_WinTimer_backup.InterruptMaskValue = P1_WinTimer_STATUS_MASK;
 392              		.loc 1 46 0
 393 0016 6080     		strh	r0, [r4, #2]	@ movhi
  47:.\Generated_Source\PSoC5/P1_WinTimer_PM.c ****         #if (P1_WinTimer_UsingHWCaptureCounter)
 394              		.loc 1 47 0
 395 0018 1B78     		ldrb	r3, [r3]	@ zero_extendqisi2
ARM GAS  C:\Users\Thomas\AppData\Local\Temp\ccQu5SvA.s 			page 25


 396 001a 2371     		strb	r3, [r4, #4]
  53:.\Generated_Source\PSoC5/P1_WinTimer_PM.c ****         #endif /* Backup the enable state of the Timer component */
 397              		.loc 1 53 0
 398 001c FFF7FEFF 		bl	P1_WinTimer_ReadControlRegister
 399              	.LVL6:
 400 0020 6071     		strb	r0, [r4, #5]
 401 0022 10BD     		pop	{r4, pc}
 402              	.L12:
 403              		.align	2
 404              	.L11:
 405 0024 78650040 		.word	1073767800
 406 0028 00000000 		.word	.LANCHOR0
 407 002c 8A640040 		.word	1073767562
 408              	.LBE5:
 409              	.LBE4:
 410              		.cfi_endproc
 411              	.LFE2:
 412              		.size	P1_WinTimer_Sleep, .-P1_WinTimer_Sleep
 413              		.section	.text.P1_WinTimer_Wakeup,"ax",%progbits
 414              		.align	2
 415              		.global	P1_WinTimer_Wakeup
 416              		.thumb
 417              		.thumb_func
 418              		.type	P1_WinTimer_Wakeup, %function
 419              	P1_WinTimer_Wakeup:
 420              	.LFB3:
 128:.\Generated_Source\PSoC5/P1_WinTimer_PM.c ****     P1_WinTimer_SaveConfig();
 129:.\Generated_Source\PSoC5/P1_WinTimer_PM.c **** }
 130:.\Generated_Source\PSoC5/P1_WinTimer_PM.c **** 
 131:.\Generated_Source\PSoC5/P1_WinTimer_PM.c **** 
 132:.\Generated_Source\PSoC5/P1_WinTimer_PM.c **** /*******************************************************************************
 133:.\Generated_Source\PSoC5/P1_WinTimer_PM.c **** * Function Name: P1_WinTimer_Wakeup
 134:.\Generated_Source\PSoC5/P1_WinTimer_PM.c **** ********************************************************************************
 135:.\Generated_Source\PSoC5/P1_WinTimer_PM.c **** *
 136:.\Generated_Source\PSoC5/P1_WinTimer_PM.c **** * Summary:
 137:.\Generated_Source\PSoC5/P1_WinTimer_PM.c **** *  Restores and enables the user configuration
 138:.\Generated_Source\PSoC5/P1_WinTimer_PM.c **** *
 139:.\Generated_Source\PSoC5/P1_WinTimer_PM.c **** * Parameters:
 140:.\Generated_Source\PSoC5/P1_WinTimer_PM.c **** *  void
 141:.\Generated_Source\PSoC5/P1_WinTimer_PM.c **** *
 142:.\Generated_Source\PSoC5/P1_WinTimer_PM.c **** * Return:
 143:.\Generated_Source\PSoC5/P1_WinTimer_PM.c **** *  void
 144:.\Generated_Source\PSoC5/P1_WinTimer_PM.c **** *
 145:.\Generated_Source\PSoC5/P1_WinTimer_PM.c **** * Global variables:
 146:.\Generated_Source\PSoC5/P1_WinTimer_PM.c **** *  P1_WinTimer_backup.enableState:  Is used to restore the enable state of
 147:.\Generated_Source\PSoC5/P1_WinTimer_PM.c **** *  block on wakeup from sleep mode.
 148:.\Generated_Source\PSoC5/P1_WinTimer_PM.c **** *
 149:.\Generated_Source\PSoC5/P1_WinTimer_PM.c **** *******************************************************************************/
 150:.\Generated_Source\PSoC5/P1_WinTimer_PM.c **** void P1_WinTimer_Wakeup(void) 
 151:.\Generated_Source\PSoC5/P1_WinTimer_PM.c **** {
 421              		.loc 1 151 0
 422              		.cfi_startproc
 423              		@ args = 0, pretend = 0, frame = 0
 424              		@ frame_needed = 0, uses_anonymous_args = 0
 425 0000 10B5     		push	{r4, lr}
 426              		.cfi_def_cfa_offset 8
 427              		.cfi_offset 4, -8
ARM GAS  C:\Users\Thomas\AppData\Local\Temp\ccQu5SvA.s 			page 26


 428              		.cfi_offset 14, -4
 429              	.LBB8:
 430              	.LBB9:
  81:.\Generated_Source\PSoC5/P1_WinTimer_PM.c ****         P1_WinTimer_STATUS_MASK =P1_WinTimer_backup.InterruptMaskValue;
 431              		.loc 1 81 0
 432 0002 094C     		ldr	r4, .L18
 433 0004 6088     		ldrh	r0, [r4, #2]
 434 0006 FFF7FEFF 		bl	P1_WinTimer_WriteCounter
 435              	.LVL7:
  82:.\Generated_Source\PSoC5/P1_WinTimer_PM.c ****         #if (P1_WinTimer_UsingHWCaptureCounter)
 436              		.loc 1 82 0
 437 000a 084B     		ldr	r3, .L18+4
 438 000c 2279     		ldrb	r2, [r4, #4]	@ zero_extendqisi2
  88:.\Generated_Source\PSoC5/P1_WinTimer_PM.c ****         #endif /* Restore the enable state of the Timer component */
 439              		.loc 1 88 0
 440 000e 6079     		ldrb	r0, [r4, #5]	@ zero_extendqisi2
  82:.\Generated_Source\PSoC5/P1_WinTimer_PM.c ****         #if (P1_WinTimer_UsingHWCaptureCounter)
 441              		.loc 1 82 0
 442 0010 1A70     		strb	r2, [r3]
  88:.\Generated_Source\PSoC5/P1_WinTimer_PM.c ****         #endif /* Restore the enable state of the Timer component */
 443              		.loc 1 88 0
 444 0012 FFF7FEFF 		bl	P1_WinTimer_WriteControlRegister
 445              	.LVL8:
 446              	.LBE9:
 447              	.LBE8:
 152:.\Generated_Source\PSoC5/P1_WinTimer_PM.c ****     P1_WinTimer_RestoreConfig();
 153:.\Generated_Source\PSoC5/P1_WinTimer_PM.c ****     #if(!P1_WinTimer_UDB_CONTROL_REG_REMOVED)
 154:.\Generated_Source\PSoC5/P1_WinTimer_PM.c ****         if(P1_WinTimer_backup.TimerEnableState == 1u)
 448              		.loc 1 154 0
 449 0016 2378     		ldrb	r3, [r4]	@ zero_extendqisi2
 450 0018 012B     		cmp	r3, #1
 451 001a 00D0     		beq	.L17
 452 001c 10BD     		pop	{r4, pc}
 453              	.L17:
 155:.\Generated_Source\PSoC5/P1_WinTimer_PM.c ****         {     /* Enable Timer's operation */
 156:.\Generated_Source\PSoC5/P1_WinTimer_PM.c ****                 P1_WinTimer_Enable();
 157:.\Generated_Source\PSoC5/P1_WinTimer_PM.c ****         } /* Do nothing if Timer was disabled before */
 158:.\Generated_Source\PSoC5/P1_WinTimer_PM.c ****     #endif /* Remove this code section if Control register is removed */
 159:.\Generated_Source\PSoC5/P1_WinTimer_PM.c **** }
 454              		.loc 1 159 0
 455 001e BDE81040 		pop	{r4, lr}
 456              		.cfi_restore 14
 457              		.cfi_restore 4
 458              		.cfi_def_cfa_offset 0
 156:.\Generated_Source\PSoC5/P1_WinTimer_PM.c ****         } /* Do nothing if Timer was disabled before */
 459              		.loc 1 156 0
 460 0022 FFF7FEBF 		b	P1_WinTimer_Enable
 461              	.LVL9:
 462              	.L19:
 463 0026 00BF     		.align	2
 464              	.L18:
 465 0028 00000000 		.word	.LANCHOR0
 466 002c 8A640040 		.word	1073767562
 467              		.cfi_endproc
 468              	.LFE3:
 469              		.size	P1_WinTimer_Wakeup, .-P1_WinTimer_Wakeup
 470              		.bss
ARM GAS  C:\Users\Thomas\AppData\Local\Temp\ccQu5SvA.s 			page 27


 471              		.align	2
 472              		.set	.LANCHOR0,. + 0
 473              		.type	P1_WinTimer_backup, %object
 474              		.size	P1_WinTimer_backup, 6
 475              	P1_WinTimer_backup:
 476 0000 00000000 		.space	6
 476      0000
 477 0006 0000     		.text
 478              	.Letext0:
 479              		.file 2 ".\\Generated_Source\\PSoC5\\cytypes.h"
 480              		.file 3 ".\\Generated_Source\\PSoC5\\P1_WinTimer.h"