ARM GAS  C:\Users\Thomas\AppData\Local\Temp\cc6XWboc.s 			page 1


   1              		.syntax unified
   2              		.cpu cortex-m3
   3              		.fpu softvfp
   4              		.eabi_attribute 20, 1
   5              		.eabi_attribute 21, 1
   6              		.eabi_attribute 23, 3
   7              		.eabi_attribute 24, 1
   8              		.eabi_attribute 25, 1
   9              		.eabi_attribute 26, 1
  10              		.eabi_attribute 30, 2
  11              		.eabi_attribute 34, 1
  12              		.eabi_attribute 18, 4
  13              		.thumb
  14              		.file	"P2.c"
  15              		.text
  16              	.Ltext0:
  17              		.section	.gnu.lto_.profile.b949bf82,"",%progbits
  18 0000 789C6366 		.ascii	"x\234cf```e\200\000F\206\265\214!\000\002\347\001\014"
  18      60606065 
  18      80004686 
  18      B58C2100 
  18      02E7010C 
  19              		.text
  20              		.section	.gnu.lto_.jmpfuncs.b949bf82,"",%progbits
  21 0000 789C6366 		.ascii	"x\234cf\300\016,\2414\017\0203\002A=\003\023\003\003"
  21      C00E2CA1 
  21      340F1033 
  21      02413D03 
  21      130303
  22 0013 33900DE4 		.ascii	"3\220\015\344\263\0001+\020\263C\270\034@\314\011R\302"
  22      B300312B 
  22      10B343B8 
  22      1C40CC09 
  22      52C2
  23 0025 C5C0C00D 		.ascii	"\305\300\300\015\242Az\030\000;\201\002\031"
  23      A2417A18 
  23      003B8102 
  23      19
  24              		.text
  25              		.section	.gnu.lto_.inline.b949bf82,"",%progbits
  26 0000 789C7D50 		.ascii	"x\234}P;\012\302@\024\234\367v\223M\326\200\237\302"
  26      3B0AC240 
  26      149CF776 
  26      934DD680 
  26      9FC2
  27 0012 2216B981 		.ascii	"\"\026\271\201\367\260\311\015\354\3656)E\004\323y\007"
  27      F7B0C90D 
  27      ECF53629 
  27      4504D379 
  27      07
  28 0023 F11076B6 		.ascii	"\361\020v\2666\202\245\202\215\235\263\006\202\212\272"
  28      3682A582 
  28      8D9DB306 
  28      828ABA
  29 0032 2C6F60DE 		.ascii	",o`\336\314\354{k\360\375L\244\301\214\327\011tP\225"
  29      CCEC7B6B 
  29      F0FD4CA4 
ARM GAS  C:\Users\Thomas\AppData\Local\Temp\cc6XWboc.s 			page 2


  29      C18CD709 
  29      745095
  30 0045 88578506 		.ascii	"\210W\205\006N\340b1\230]U\226\207\323\315\234\365\256"
  30      4EE06231 
  30      985D5596 
  30      87D3CD9C 
  30      F5AE
  31 0057 50C84672 		.ascii	"P\310Fr`\336\000\355\206\322\270\246\305\326E/\370\264"
  31      60DE00ED 
  31      86D2B8A6 
  31      C5D6452F 
  31      F8B4
  32 0069 03CB8A34 		.ascii	"\003\313\2124a`v\2346]\004\245\037\221\212/\343\226"
  32      6160769C 
  32      365D04A5 
  32      1F918A2F 
  32      E396
  33 007b A2165295 		.ascii	"\242\026R\225\001hr\335\217\266x\226\010\375!\371|W"
  33      016872DD 
  33      8FB67896 
  33      08FD21F9 
  33      7C57
  34 008d CB7BC3FD 		.ascii	"\313{\303\375\317K~\344\245\360\251\310s\364v:\335w"
  34      CF4B7EE4 
  34      A5F0A9C8 
  34      73F4763A 
  34      DD77
  35 009f 6D107844 		.ascii	"m\020xD\226\036\256\322z\270\215!EEKe\360k&\250\337"
  35      961EAED2 
  35      7AB88D21 
  35      45454B65 
  35      F06B26A8 
  36 00b4 2EECCBD3 		.ascii	".\354\313\323\341/\037\023\322$\257"
  36      E12F1F13 
  36      D224AF
  37              		.text
  38              		.section	.gnu.lto_.pureconst.b949bf82,"",%progbits
  39 0000 789C6366 		.ascii	"x\234cf``\220d\200\000\036\006)F\011&)f)\026)V)v)\016"
  39      60609064 
  39      80001E06 
  39      29460926 
  39      29662916 
  40 001a 294E292E 		.ascii	")N).)n)\036)\000\025\325\001\247"
  40      296E291E 
  40      290015D5 
  40      01A7
  41              		.text
  42              		.section	.gnu.lto_P2_GetFIFOStatus.part.0.b949bf82,"",%progbits
  43 0000 789C6D92 		.ascii	"x\234m\222\337KTA\024\307\317\231\271wwu3\255'Y\242"
  43      DF4B5441 
  43      14C7CF99 
  43      B9777775 
  43      33AD2759 
  44 0015 08110DC2 		.ascii	"\010\021\015\302\207\242\277\240\207\210^\004_\215\012"
  44      87A2BFA0 
  44      87885E04 
  44      5F8D0A
ARM GAS  C:\Users\Thomas\AppData\Local\Temp\cc6XWboc.s 			page 3


  45 0024 5D218804 		.ascii	"]!\210\004\323\007\237\234\273\356\022\375b\213\244"
  45      D3079F9C 
  45      BBEE12FD 
  45      628BA4
  46 0033 1F8A6094 		.ascii	"\037\212`\224\277\262\322~Y\376\2006\263\2220\027[Q"
  46      BFB2D27E 
  46      59FE8036 
  46      B3923017 
  46      5B51
  47 0045 93D5F6C1 		.ascii	"\223\325\366\301\315\012\243,\3236\314\355\234\271["
  47      CD0AA32C 
  47      D336CCED 
  47      9CB95B
  48 0054 18357067 		.ascii	"\0305pg\0163\337\317\231\357\234s%\374;\366\321\347"
  48      0E33DFCF 
  48      99EF9C73 
  48      25FC3BF6 
  48      D1E7
  49 0066 930005B4 		.ascii	"\223\000\005\264\242\023\320qv\204\002\007\012\275\012"
  49      A213D071 
  49      76840207 
  49      0ABD0A
  50 0075 69043CA0 		.ascii	"i\004<\240\\R\317\246\035\243\311g\226\313\370\035\230"
  50      5C52CFA6 
  50      1DA3C967 
  50      96CBF81D 
  50      98
  51 0086 881C0042 		.ascii	"\210\034\000B\215\203\010\023k\360\275X\0208\334\263"
  51      8D830813 
  51      6BF0BD58 
  51      1038DCB3 
  52 0096 1AC1BC66 		.ascii	"\032\301\274f\245|\237\277LG\335\201\354\204\000\370"
  52      A57C9FBF 
  52      4C47DD81 
  52      EC8400F8 
  53 00a6 2A00B77B 		.ascii	"*\000\267{p\233\207\201V\314\003\022\266G\277\205\326"
  53      709B8781 
  53      56CC0312 
  53      B647BF85 
  53      D6
  54 00b7 CBADC8F1 		.ascii	"\313\255\310\361\305\307\315\027\322s\256\020\024K\304"
  54      C5C7CD17 
  54      D273AE10 
  54      144BC4
  55 00c6 9FB9D525 		.ascii	"\237\271\325%\345\217%\223[\010\3056\224ki\036\004\004"
  55      E58F2593 
  55      5B08C536 
  55      946B691E 
  55      0404
  56 00d8 5F0E4433 		.ascii	"_\016D3e\276\206\307\332\206|\206\015\177\212\357\017"
  56      65BE86C7 
  56      DA867C86 
  56      0D7F8AEF 
  56      0F
  57 00e9 594D6A35 		.ascii	"YMj5\231Df\257\377\227]\360\377\234p;\374J\251,l\307"
  57      994466AF 
  57      FF975DF0 
ARM GAS  C:\Users\Thomas\AppData\Local\Temp\cc6XWboc.s 			page 4


  57      FF9C703B 
  57      FC4AA92C 
  58 00ff 1CECC01C 		.ascii	"\034\354\300\0346H\316nP\015\000\004\357\360I\347F\245"
  58      3648CE6E 
  58      500D0004 
  58      EFF049E7 
  58      46A5
  59 0111 92C9B90F 		.ascii	"\222\311\271\017yN\204\204@\301\223\244I\030<\231\300"
  59      794E8484 
  59      40C193A4 
  59      49183C99 
  59      C0
  60 0122 1A805942 		.ascii	"\032\200YB\271\022q\341\340U\216\243o\003_\363|\260"
  60      B91271E1 
  60      E0558EA3 
  60      6F035FF3 
  60      7CB0
  61 0134 B7DFCC6F 		.ascii	"\267\337\314o\241k\232\372?\006\0146\224\032x\023\363"
  61      A16B9AFA 
  61      3F060C36 
  61      941A7813 
  61      F3
  62 0145 4910B916 		.ascii	"I\020\271\026[J\317\275\252}?\015\273U\366\037\313\230"
  62      5B4ACFBD 
  62      AA7D3F0D 
  62      BB55F61F 
  62      CB98
  63 0157 B2CC08DE 		.ascii	"\262\314\010\336\302\\\240\234Y\240m\021\012|\227\320"
  63      C25CA09C 
  63      59A06D11 
  63      0A7C97D0 
  64 0167 774DE1C0 		.ascii	"wM\341\300\322\311\361\276Bv\276L/\0238=8\337\225\366"
  64      D2C9F1BE 
  64      4276BE4C 
  64      2F13383D 
  64      38DF95F6 
  65 017b 4E24849C 		.ascii	"N$\204\234{a)\203\215\274\231\015\217\272\364\226~~"
  65      7B612983 
  65      8DBC990D 
  65      8FBAF496 
  65      7E7E
  66 018d E478EDA9 		.ascii	"\344x\355\251\214Fl\260\352,WB\030\330\211\036\354B"
  66      8C466CB0 
  66      EA2C5742 
  66      18D8891E 
  66      EC42
  67 019f AA0FDEC6 		.ascii	"\252\017\336\306F\204)\254\375\356\260\363\011;e\327"
  67      468429AC 
  67      FDEEB0F3 
  67      093B65D7 
  68 01af A38E133A 		.ascii	"\243\216\023:%\036\004\274C\312)\364\3158m\211$\025"
  68      251E04BC 
  68      43CA29F4 
  68      CD386D89 
  68      2415
  69 01c1 233329C4 		.ascii	"#3)\304\240-B\346#\015\275\353\0301\251Jw\011y\215~"
  69      A02D42E6 
ARM GAS  C:\Users\Thomas\AppData\Local\Temp\cc6XWboc.s 			page 5


  69      230DBDEB 
  69      1831A94A 
  69      7709798D 
  70 01d6 B53325A1 		.ascii	"\2653%\241\363W++m\030\3043\226_\305&[\235\011*\035"
  70      F3572B2B 
  70      6D18C433 
  70      965FC526 
  70      5B9D092A 
  71 01eb 2CEAFAE0 		.ascii	",\352\372\340=\332'\205\325\322w\332\311\031\2046=2"
  71      3DDA2785 
  71      D5D277DA 
  71      C9198436 
  71      3D32
  72 01fd 7A7924C3 		.ascii	"zy$\303\006\232\206X\217\367)\353\242@F\272m\244~\""
  72      069A8658 
  72      8FF729EB 
  72      A24046BA 
  72      6DA47E22 
  73 0211 BE283522 		.ascii	"\276(5\"\0309\327=\371#-\205\014k\344\201Ft\247\037"
  73      1839D73D 
  73      F9232D85 
  73      0C6BE481 
  73      4674A71F 
  74 0225 12A2EB28 		.ascii	"\022\242\353(!\340\221\223he\2619\316G\245\016\235\017"
  74      21E09193 
  74      6865B139 
  74      CE47A50E 
  74      9D0F
  75 0237 6ED2FF02 		.ascii	"n\322\377\002\365\227\022\205cO\202\3721@\375\351\341"
  75      F5971285 
  75      634F82FA 
  75      3140FDE9 
  75      E1
  76 0248 4A1167FC 		.ascii	"J\021g\374\315\011\315\325g\256\301F\353[j35\206\200"
  76      CD09CDD5 
  76      67AEC146 
  76      EB5B6A33 
  76      358680
  77 025b BD29CC84 		.ascii	"\275)\314\204 \265\2159\375^\273\257\244_\246\223\031"
  77      20B58D39 
  77      FD5EBBAF 
  77      A45FA693 
  77      19
  78 026c B44291B0 		.ascii	"\264B\221\260\260\253d\002\274Esm\367\330v\037zDt9\206"
  78      B0AB6402 
  78      BC45736D 
  78      F7D8761F 
  78      7A447439 
  79 0281 6C43D655 		.ascii	"lC\326UsZc\254\232~A\344\274$\331\\P\274\307{\324[q"
  79      735A63AC 
  79      9A7E41E4 
  79      BC24D95C 
  79      50BCC77B 
  80 0298 A8D25B7A 		.ascii	"\250\322[z\240\250\274\252\242\304[\\XT\276{Wq\341\216"
  80      A0A8BCAA 
  80      A2C45B5C 
  80      5854BE7B 
ARM GAS  C:\Users\Thomas\AppData\Local\Temp\cc6XWboc.s 			page 6


  80      5771E18E 
  81 02ac 82127054 		.ascii	"\202\022pTx\217U\035\251t\224\035.+\337[\372\013AJB"
  81      788F551D 
  81      A974941D 
  81      2E2BDF5B 
  81      FA0B414A 
  82 02c1 32       		.ascii	"2"
  83              		.text
  84              		.section	.gnu.lto_P2_GetFIFOStatus.b949bf82,"",%progbits
  85 0000 789C6590 		.ascii	"x\234e\220OHTQ\024\306\317w\356\363)3\3034\264\212Y"
  85      4F485451 
  85      14C6CF77 
  85      EEF32933 
  85      C334B48A 
  86 0015 1421E204 		.ascii	"\024!\342\0041\213\242M+\241E\270\023\334\016D\350\023"
  86      318BA24D 
  86      2BA145B8 
  86      13DC0E44 
  86      E813
  87 0027 826862D2 		.ascii	"\202hb\322\245xG'\010\204\314\026\025BB\224\225\225"
  87      A5784727 
  87      0884CC16 
  87      15424294 
  87      9595
  88 0039 63509B62 		.ascii	"cP\233b\210gD\315\242?\213\241t\361\252\201\232\260"
  88      886744CD 
  88      A23F8BA1 
  88      74F1AA81 
  88      9AB0
  89 004b 5DA63548 		.ascii	"]\2465H\351t\316{\213\202.\\\316\345\362\375\276\363"
  89      E974CE7B 
  89      8B822E5C 
  89      CEE5F2FD 
  89      BEF3
  90 005d 9D63E8FF 		.ascii	"\235c\350\377sP\356*\210\262R\321F\340\013\257\211\212"
  90      7350EE2A 
  90      88B252D1 
  90      46E00BAF 
  90      898A
  91 006f 1DCCA69A 		.ascii	"\035\314\246\232 \033s\252KD6a\340\350?\034@+\201\306"
  91      201B73AA 
  91      4B443661 
  91      E0E83F1C 
  91      402B81C6 
  92 0083 D83818C3 		.ascii	"\3308\030\303W^c\274|\264]C\367\234\265\343\337\276"
  92      575E63BC 
  92      7CB45D43 
  92      F79CB5E3 
  92      DFBE
  93 0095 BF0FE267 		.ascii	"\277\017\342gwm2\321:\023\366\247\261/\255\362[\350"
  93      776D32D1 
  93      3A13F6A7 
  93      B12FADF2 
  93      5BE8
  94 00a7 16DDD4AB 		.ascii	"\026\335\324\253\247\301\016\263\027$\357\332\215\372"
  94      A7C10EB3 
  94      1724EFDA 
ARM GAS  C:\Users\Thomas\AppData\Local\Temp\cc6XWboc.s 			page 7


  94      8DFA
  95 00b5 CF58D775 		.ascii	"\317X\327ua\374'e\333\003Ap\033\346/\245\036\230G\227"
  95      61FC2765 
  95      DB034170 
  95      1BE62FA5 
  95      1E984797 
  96 00c9 8AE7831F 		.ascii	"\212\347\203\037~\322dB\360\362\322\334\245X\3475\001"
  96      7ED26442 
  96      F0F2D2DC 
  96      A558E735 
  96      01
  97 00da EB9B8DE7 		.ascii	"\353\233\215\347q{\305\226\352\255\326\036\345\357\374"
  97      717BC596 
  97      EAADD61E 
  97      E5EFFC
  98 00e9 CB474780 		.ascii	"\313GG\200\265\322\326r\334-YkS\270\213N\015&\316\367"
  98      B5D2D672 
  98      DC2D596B 
  98      53B88B4E 
  98      0D26CEF7 
  99 00fd E0CAD4D0 		.ascii	"\340\312\324\320\237\305\235\276m\265\036\374\276X="
  99      9FC59DBE 
  99      6DB51EFC 
  99      BE583D
 100 010c 6CDA41FA 		.ascii	"l\332A\372\305\320\326n\370&\372,\204\216\335`\326j"
 100      C5D0D66E 
 100      F826FA2C 
 100      848EDD60 
 100      D66A
 101 011e DE61DC6F 		.ascii	"\336a\334oN&C\017\021H\217\351\351\207\263\311U\226"
 101      4E26430F 
 101      11488FE9 
 101      E987B3C9 
 101      5596
 102 0130 10DB62B0 		.ascii	"\020\333b\260\2004\275Eie\342\323\325v\0255Y\2674\263"
 102      8034BD45 
 102      6965E2D3 
 102      D5761535 
 102      59B734B3 
 103 0144 DCD830AA 		.ascii	"\334\3300\252\201d,#J\330`C\325\204:\246T)\262\027\317"
 103      81642C23 
 103      4AD86043 
 103      D5843AA6 
 103      5429B217 
 104 0159 1E57DA32 		.ascii	"\036W\33227%n\275\262\020\364t\350\036\242\203Ed\304"
 104      37256EBD 
 104      B210F474 
 104      E81EA283 
 104      4564C4
 105 016c 8A024CA4 		.ascii	"\212\002L\244\"[\325\317\326\316\227y\364\227=gE\312"
 105      225BD5CF 
 105      D6CE9779 
 105      F4973D67 
 105      45CA
 106 017e EBAC53DD 		.ascii	"\353\254S\335\307\250\354\317\204\376N\030y\005\305"
 106      C7A8ECCF 
 106      84FE4E18 
ARM GAS  C:\Users\Thomas\AppData\Local\Temp\cc6XWboc.s 			page 8


 106      7905C5
 107 018d 146D8895 		.ascii	"\024m\210\225v\012\307j\212\362\003\212~\355\015Gf\002"
 107      760AC76A 
 107      8AF2038A 
 107      7EED0D47 
 107      6602
 108 019f 7E01343C 		.ascii	"~\0014<W>\236\026s\003\231\034\212\013\267;\233;\352"
 108      573E9E16 
 108      7303991C 
 108      8A0BB73B 
 108      9B3BEA
 109 01b2 9DF20AC7 		.ascii	"\235\362\012\307\207\275\301c\375\371\221\302\200\227"
 109      87BDC163 
 109      FDF991C2 
 109      8097
 110 01c0 EBEBCF1F 		.ascii	"\353\353\317\0379\224\353;\220\035 w\350\304P\276w\320"
 110      3994EB3B 
 110      901D2077 
 110      E8C450BE 
 110      77D0
 111 01d2 2D786746 		.ascii	"-xgFN\016\377\001L$\265{"
 111      4E0EFF01 
 111      4C24B57B 
 112              		.text
 113              		.section	.gnu.lto_P2_Init.b949bf82,"",%progbits
 114 0000 789C8D91 		.ascii	"x\234\215\221\301K\024q\024\307\337\367\375\306a\305"
 114      C14B1471 
 114      14C7DFF7 
 114      FDC661C5 
 115 0010 40E92473 		.ascii	"@\351$s\020\302\203\004\"!\364\007D\007\351&x]\225\320"
 115      10C28304 
 115      2221F407 
 115      4407E926 
 115      785D95D0 
 116 0024 39785159 		.ascii	"9xQY\326\2633\273f\262'\015\203(\026\024J-k-5<)\203"
 116      D6B333BB 
 116      66B2270D 
 116      83281614 
 116      4A2D6B2D 
 117 003c 41054161 		.ascii	"A\005Aa\007\203\016n\320\012\333%\024\243\\(\307\367"
 117      07830E6E 
 117      D00ADB25 
 117      14A35C28 
 117      C7F7
 118 004e F6B79712 		.ascii	"\366\267\227\022\244\201y\277\337\314\357\373\276\357"
 118      A48179BF 
 118      DFCCEFFB 
 118      BEEF
 119 005c F37ECFD0 		.ascii	"\363~\317\320\331\307\223\367\032\023]\221\025\206\300"
 119      D9C793F7 
 119      1A135D91 
 119      1586C0
 120 006b D3EF89C2 		.ascii	"\323\357\211\302\004\003\272!\3208c\034\337\370\220"
 120      0403BA21 
 120      D038631C 
 120      DFF890
 121 007a 311D2DDF 		.ascii	"1\035-\337kh{\024\004\301\301\307\215\346[\315\025I"
ARM GAS  C:\Users\Thomas\AppData\Local\Temp\cc6XWboc.s 			page 9


 121      6B687B14 
 121      04C1C1C7 
 121      8DE65BCD 
 121      1549
 122 008c 3B626B83 		.ascii	";bk\203E\264\221h\016'\376|jp'D\323d\317\260\004\027"
 122      45B49168 
 122      0E27FE7C 
 122      6A702744 
 122      D364CFB0 
 123 00a2 B2AE5C8C 		.ascii	"\262\256\\\214\2028^+\316Lu\"a\250\302p4\324ip5\020"
 123      82385E2B 
 123      CE4C7522 
 123      61A8C270 
 123      34D46970 
 124 00b8 9544AF45 		.ascii	"\225D\257E\367\231u5\273\3104\251gn+W\2507\227\240\373"
 124      F7997535 
 124      BBC834A9 
 124      676E2B57 
 124      A83797A0 
 125 00cd DDE2C349 		.ascii	"\335\342\303I\323:\037\004\231/\233\257z\243p.8\211"
 125      D33A1F04 
 125      992F9BAF 
 125      7AA3702E 
 125      3889
 126 00df 635498F1 		.ascii	"cT\230\361\030F\012\242\335\303e\257\326\033\236\240"
 126      18460AA2 
 126      DDC365AF 
 126      D61B9EA0 
 127 00ef 557276EE 		.ascii	"Urv\356/d\033\313\254\"\3022<\372\214\355\237\271\223"
 127      2F641BCB 
 127      AC22C232 
 127      3CFA8CED 
 127      9FB993
 128 0102 B77D7FF1 		.ascii	"\267}\177\361F\361k\326\204*\361\021\343\337n\360T8"
 128      46F16BD6 
 128      842AF111 
 128      E3DF6EF0 
 128      5438
 129 0114 09CFE0FE 		.ascii	"\011\317\340\376b#g\233\371\314\376\005u5\267\337\205"
 129      6223679B 
 129      F9CCFE05 
 129      7535B7DF 
 129      85
 130 0125 81A3F262 		.ascii	"\201\243\362b\351\303N\242\372\213\364s\357n\271\300"
 130      E9C34EA2 
 130      FA8BF473 
 130      EF6EB9C0 
 131 0135 793C0867 		.ascii	"y<\010g\303D\205\035\024\340aE\312\023\236#\017\241"
 131      C344851D 
 131      14E06145 
 131      CA139E23 
 131      0FA1
 132 0147 C81E4F0A 		.ascii	"\310\036O\012\205\265t\254\353\367\257\277\263U\013"
 132      85B574AC 
 132      EBF7AFBF 
 132      B3550B
 133 0156 E758605F 		.ascii	"\347X`_X\330;P\315\271\216\253\342(&\266\265\355\033"
ARM GAS  C:\Users\Thomas\AppData\Local\Temp\cc6XWboc.s 			page 10


 133      58D83B50 
 133      CDB98EAB 
 133      E22826B6 
 133      B5ED1B
 134 0169 D6B3EEDC 		.ascii	"\326\263\356\334\224\265\032\304\017\327\252k\011o\362"
 134      94B51AC4 
 134      0FD7AA6B 
 134      096FF2
 135 0178 E5554709 		.ascii	"\345UG\011 \000\353\377\015\360\262\012\340\322\036"
 135      2000EBFF 
 135      0DF0B20A 
 135      E0D21E
 136 0187 C268A64B 		.ascii	"\302h\246K\357P'P\222{\224Q\312`[:\222]\376\260\237"
 136      EF502750 
 136      927B9451 
 136      CA605B3A 
 136      925DFEB0 
 137 019c BA99F607 		.ascii	"\272\231\366\007\373{F\306R\003~\262\273g\344\372\325"
 137      FB7B46C6 
 137      52037EB2 
 137      BB67E4FA 
 137      D5
 138 01ad 647767C7 		.ascii	"dwg\307\0005\016\015\247\375Tjl4m\317N\001\020\332\330"
 138      00350E0D 
 138      A7FD546A 
 138      6C346DCF 
 138      4E0110DA 
 139 01c2 E2       		.ascii	"\342"
 140              		.text
 141              		.section	.gnu.lto_P2_EnableInt.b949bf82,"",%progbits
 142 0000 789C7D90 		.ascii	"x\234}\220\315K\033Q\024\305\357\271\223\244\003)\""
 142      CD4B1B51 
 142      14C5EFB9 
 142      93A40329 
 142      22
 143 0011 2E8A6461 		.ascii	".\212da\021\027\241 \026\204\376\005.\204\256\002\331"
 143      1117A120 
 143      1684FE05 
 143      2E84AE02 
 143      D9
 144 0022 86164967 		.ascii	"\206\026Ig\341\306\224\020\227\301\227:\005q!\"\202"
 144      E1C69410 
 144      97C1973A 
 144      05712122 
 144      82
 145 0033 96124141 		.ascii	"\226\022AAZ\233\326\017Zp\241\302\320\205\330X\224 "
 145      5A9BD60F 
 145      5A70A1C2 
 145      D085D858 
 145      9420
 146 0045 288A5829 		.ascii	"(\212X)\246\230\2356\242\216\245\304\373f\\)8\360\346"
 146      A6989D36 
 146      A28EA5C4 
 146      FB665C29 
 146      38F0E6
 147 0058 7D70CEEF 		.ascii	"}p\316\357\236{\015\272\373Ed\355\202\350\251\3540\010"
 147      9E7B0DBA 
ARM GAS  C:\Users\Thomas\AppData\Local\Temp\cc6XWboc.s 			page 11


 147      FB4564ED 
 147      82E8A9EC 
 147      3008
 148 006a 3CBC4194 		.ascii	"<\274A\2243\031\320\007\002\3651\372P\341S\306\260S"
 148      3319D007 
 148      02F531FA 
 148      50E153C6 
 148      B053
 149 007c 180F47A7 		.ascii	"\030\017G\247\225R'\177K\215o\033]&\252\262\217\301"
 149      9552277F 
 149      4B8D6F1B 
 149      5D26AAB2 
 149      8FC1
 150 008e 07444934 		.ascii	"\007DI4;\225\253\275\240\321\014}.\377\3706j\264L*\365"
 150      3B95ABBD 
 150      A0D10C7D 
 150      2EFFF836 
 150      6AB44C2A 
 151 00a3 E6F05D79 		.ascii	"\346\360]y5\254\306\225}X\253=v\205\375\021\2068\321"
 151      35ACC695 
 151      7D58AB3D 
 151      7685FD11 
 151      8638D1
 152 00b6 1AC193C8 		.ascii	"\032\301\223\310M\0201\234\332\377w\302![\012\324c\006"
 152      4D10319C 
 152      DAFF77C2 
 152      215B0AD4 
 152      6306
 153 00c8 2D3E1C9F 		.ascii	"->\034\237\020\222|\320/s\015\216\252\325\276\376\034"
 153      10927CD0 
 153      2F730D8E 
 153      AAD5BEFE 
 153      1C
 154 00d9 598BB229 		.ascii	"Y\213\262)a\345)@.sP\377\210\216d\351\324e\271\310n"
 154      61E52940 
 154      2E7350FF 
 154      888E64E9 
 154      D465B9C8 
 155 00ee ECA3DF59 		.ascii	"\354\243\337Y\034|\244\011\027lH\201\211\255\241Y\316"
 155      1C7CA409 
 155      176C4881 
 155      89ADA159 
 155      CE
 156 00ff FE5303CA 		.ascii	"\376S\003\312tY\022hn\001Yq\007h\033\354\225\022\246"
 156      74591268 
 156      6E015971 
 156      07681BEC 
 156      9512A6
 157 0112 88690FDF 		.ascii	"\210i\017\337\317\007\377\314\274\360\315\0011\027/"
 157      CF07FFCC 
 157      BCF0CD01 
 157      31172F
 158 0121 F215E398 		.ascii	"\362\025\343\230]\016\216\255\347T@\007\376u\264Y2\275"
 158      5D0E8EAD 
 158      E7544007 
 158      FE75B459 
 158      32BD
ARM GAS  C:\Users\Thomas\AppData\Local\Temp\cc6XWboc.s 			page 12


 159 0133 272FFFF2 		.ascii	"'/\377\362\344T9\234\307\373\234\015\227C\370\214\010"
 159      E454399C 
 159      C7FB9C0D 
 159      9743F88C 
 159      08
 160 0144 BE40FAC3 		.ascii	"\276@\372\303,\362\020b\377Y\310\307\005}\342\372\357"
 160      2CF21062 
 160      FF59C8C7 
 160      057DE2FA 
 160      EF
 161 0155 CBEA436D 		.ascii	"\313\352Cm\347z\302\234(\245\350\010\264\344>\330\274"
 161      E77AC29C 
 161      28A5E808 
 161      B4E43ED8 
 161      BC
 162 0166 C00441FB 		.ascii	"\300\004A\373\260\235\245\242\027\232n\367\366\240\252"
 162      B09DA5A2 
 162      179A6EF7 
 162      F6A0AA
 163 0175 E78105E9 		.ascii	"\347\201\005\351M\232q\331\244\003\344\234\225\347\236"
 163      4D9A71D9 
 163      A403E49C 
 163      95E79E
 164 0184 98F4A4A0 		.ascii	"\230\364\244\240'$\232\246\266D\247\325c\245\2732\326"
 164      27249AA6 
 164      B644A7D5 
 164      63A5BB32 
 164      D6
 165 0195 AB97F154 		.ascii	"\253\227\361To:i%b\361T\307\263D\254\275-Iu\335=\031"
 165      6F3A6925 
 165      62F154C7 
 165      B344ACBD 
 165      2D4975DD 
 166 01ab 2B9DEE7D 		.ascii	"+\235\356}\235\211gDr\015Y\274\264\220"
 166      9D896744 
 166      720D59BC 
 166      B490
 167              		.text
 168              		.section	.gnu.lto_P2_Enable.b949bf82,"",%progbits
 169 0000 789C7D8F 		.ascii	"x\234}\217\277KBQ\024\307\317\367<{\011.\321$\016\321"
 169      BF4B4251 
 169      14C7CFF7 
 169      3C7B092E 
 169      D1240ED1 
 170 0014 E6E610F4 		.ascii	"\346\346\020\364\027\0045&\010MBD\2755Aj\024\357C\003"
 170      17043526 
 170      084D4244 
 170      BD35416A 
 170      14EF4303 
 171 0028 71086B2A 		.ascii	"q\010k*\302\266\310\262\214j\220\266WCB\203Q\015\201"
 171      C2B6C8B2 
 171      8C6A90B6 
 171      57434283 
 171      510D81
 172 003b 841518D8 		.ascii	"\204\025\030\330\226\030\311#\302\316\365\215A\027\356"
 172      9618C923 
 172      C2CEF58D 
ARM GAS  C:\Users\Thomas\AppData\Local\Temp\cc6XWboc.s 			page 13


 172      4117EE
 173 004a 3DF7C7F7 		.ascii	"=\367\307\367|\276\367k\320\337\021\2229\013\242q\251"
 173      7CBEF76B 
 173      D0DF1192 
 173      390BA271 
 173      A9
 174 005b 30085CA8 		.ascii	"0\010\\\250\023\331~\006\364\206@iF\032\357\334a\024"
 174      13D97E06 
 174      F4864069 
 174      461AEFDC 
 174      6114
 175 006d 9CF25620 		.ascii	"\234\362V \274\247\224\372\270?\015\256\005]&\352\262"
 175      BCA794FA 
 175      B83F0DAE 
 175      055D26EA 
 175      B2
 176 007e 87C13EC2 		.ascii	"\207\301>\302$\232N\366\3471`fE3\342\275\241\004S\360"
 176      249A4EF6 
 176      E7316066 
 176      4533E2BD 
 176      A10453F0 
 177 0092 7432EAA8 		.ascii	"t2\352\250~\377\274\266\221\013\303drY\314d!j\211J["
 177      7EFFBCB6 
 177      910BC364 
 177      7259CC64 
 177      216A894A 
 178 00a7 BD31EB6A 		.ascii	"\2751\353j4p\365\225\257o\317\351\306\036k\337\227\313"
 178      3470F595 
 178      AF6FCFE9 
 178      C61E6BDF 
 178      97CB
 179 00b9 D76AA0CD 		.ascii	"\327j\240\315.s\357\306V>m\363\334\272\275\363\017\256"
 179      2E73EFC6 
 179      563E6DF3 
 179      DCBABDF3 
 179      0FAE
 180 00cb 481F4B4E 		.ascii	"H\037KN\2769\\\304\216\235\205\313\006\016\020\302!"
 180      BE395CC4 
 180      8E9D85CB 
 180      060E10C2 
 180      21
 181 00dc 2419CA28 		.ascii	"$\031\312(\202\032\310|\232\036\316\360\210\265b\373"
 181      821AC87C 
 181      9A1ECEF0 
 181      88B562FB 
 182 00ec CCA7DB01 		.ascii	"\314\247\333\001\302\221(\305t\023Z\362\037\354X`\202"
 182      C29128C5 
 182      74135AF2 
 182      1FEC5860 
 182      82
 183 00fd A027649C 		.ascii	"\240'd\234\3525k\2716\337}X\257p\352[\345\224\337e_"
 183      EA356BB9 
 183      36DF7D58 
 183      AF70EA5B 
 183      E594DF65 
 184 0112 57674205 		.ascii	"WgB\005)I7DM\330\316\305\364@I:*tD\371\363X$>c-[\311"
 184      29493744 
ARM GAS  C:\Users\Thomas\AppData\Local\Temp\cc6XWboc.s 			page 14


 184      4DD8CEC5 
 184      F440493A 
 184      2A7444F9 
 185 012e 85156B69 		.ascii	"\205\025ki>\226XM.Z\361h,15\031\217ND\026\351\027\032"
 185      3E96584D 
 185      2E5AF168 
 185      2C313519 
 185      8F4E4416 
 186 0145 3B7F61   		.ascii	";\177a"
 187              		.text
 188              		.section	.gnu.lto_P2_Start.b949bf82,"",%progbits
 189 0000 789C8D53 		.ascii	"x\234\215S\337KTA\024>gf\366\267\244\004\275l \205\017"
 189      DF4B5441 
 189      143E6766 
 189      F6B7A404 
 189      BD6C2085 
 190 0015 128846D1 		.ascii	"\022\210F\321_\320C\364&\010=Y\021\266\017\275h,\372"
 190      5FD043F4 
 190      26083D59 
 190      11B60FBD 
 190      682CFA
 191 0028 28CEDD5D 		.ascii	"(\316\335],$B$\241_\033\005e\226\265\232ZV\376\272\032"
 191      2C244224 
 191      A15F1B05 
 191      6596B59A 
 191      5A56FEBA 
 192 003d 54241892 		.ascii	"T$\030\222\251\211\250\221\202\365\020\212\221J\351"
 192      A989A891 
 192      82F5108A 
 192      914AE9
 193 004c 76CEDCCD 		.ascii	"v\316\334\315\\E\351\302\236\271w\346\314w\276\357;"
 193      5C45E9C2 
 193      9EB977E6 
 193      CC77BEEF 
 193      3B
 194 005d 67256C7D 		.ascii	"g%l}\016\323o\237\0028H+\272\000E\355 \200\345\025B"
 194      0ED36F9F 
 194      0238482B 
 194      BA0045ED 
 194      2080E515 
 195 0072 0E1780F6 		.ascii	"\016\027\200\366\253\256l\320\031\022\225\263\255\020"
 195      ABAE6CD0 
 195      191295B3 
 195      AD10
 196 0080 F90510AA 		.ascii	"\371\005\020\252\204TX\205_\305\202\300Z\273\351j \367"
 196      84545885 
 196      5FC582C0 
 196      5ABBE96A 
 196      20F7
 197 0092 9ED67ABE 		.ascii	"\236\326z\276u\300*\264qE\000,\012\247\000\336\307\\"
 197      75C02AB4 
 197      7145002C 
 197      0AA700DE 
 197      C75C
 198 00a4 A0A485D8 		.ascii	"\240\244\205\330\352h\300\035\243\244,\347\014\033\321"
 198      EA68C01D 
 198      A3A42CE7 
ARM GAS  C:\Users\Thomas\AppData\Local\Temp\cc6XWboc.s 			page 15


 198      0C1BD1
 199 00b3 8DB436EF 		.ascii	"\215\2646\357\266u2\331\226\350\033\303L\011+\002\025"
 199      B67532D9 
 199      96E81BC3 
 199      4C092B02 
 199      15
 200 00c4 070F072F 		.ascii	"\007\017\007/\007\037\007?\207\000\007\200\031\272\315"
 200      071F073F 
 200      87000780 
 200      19BACD
 201 00d3 2C6685E0 		.ascii	",f\205\340U\216c\244n!\261\227\361\226\204\244R\267"
 201      558E63A4 
 201      6E21B197 
 201      F19684A4 
 201      52B7
 202 00e5 3E5C4E88 		.ascii	">\\N\210\312_\372\242\366\256\010\261\312\305hwj\346"
 202      CA5FFAA2 
 202      F6AE08B1 
 202      CAC56877 
 202      6AE6
 203 00f7 FD90774E 		.ascii	"\375\220wN\320\216\371l\264b71\2167,\315Y\022\037`%"
 203      D08EF96C 
 203      B4623731 
 203      8E372CCD 
 203      59121F60 
 204 010c 3EC420F1 		.ascii	">\304 \361j\242m\370\210\261\261h\366?L\253\241\363"
 204      6AA26DF8 
 204      88B1B168 
 204      F63F4CAB 
 204      A1F3
 205 011e 92876F13 		.ascii	"\222\207o\023\001|\304y\300\014$\014\027\310\021\214"
 205      017CC479 
 205      C00C240C 
 205      17C8118C 
 206 012e 6431644D 		.ascii	"d1dMOM\302'\367#\277\217L\335\255\2269w\264\216Lw\277"
 206      4F4DC227 
 206      F723BF8F 
 206      4CDDAD96 
 206      3977B48E 
 207 0145 3A695BB7 		.ascii	":i[\267\365Z2\211\\\3501J\322\217yA<\020L5\001\023\230"
 207      F55A3289 
 207      5CE8314A 
 207      D28F7941 
 207      3C104C35 
 208 015c 437786AE 		.ascii	"Cw\206\2567D3\271\206D\300f\2521\216\375?k\326\336\236"
 208      374433B9 
 208      8644C066 
 208      AA318EFD 
 208      3F6BD6DE 
 209 0171 4AB3CFEE 		.ascii	"J\263\317\356\015\031\357\026\005\246\373j'_\013F\002"
 209      0D19EF16 
 209      05A6FB6A 
 209      275F0B46 
 209      02
 210 0182 6CE153B1 		.ascii	"l\341S\261\331u|\202n\252\325\312\222<t\326\035\217"
 210      D9757C82 
 210      6EAAD5CA 
ARM GAS  C:\Users\Thomas\AppData\Local\Temp\cc6XWboc.s 			page 16


 210      923C74D6 
 210      1D8F
 211 0194 CC667039 		.ascii	"\314fp9ua\300\322*\315#e<\232\254\237K\010\366\350\212"
 211      7561C0D2 
 211      2ACD2365 
 211      3C9AAC9F 
 211      4B08F6E8 
 212 01a9 451EB9B0 		.ascii	"E\036\271\260\015\203\330n<z\312\036\215ct\271\232\350"
 212      0D83D86E 
 212      3C7ACA1E 
 212      8D6374B9 
 212      9AE8
 213 01bb 39905E07 		.ascii	"9\220^\007\365\373\227\337Q\003\341Z&\025\317\034\025"
 213      F5FB97DF 
 213      5103E15A 
 213      2615CF1C 
 213      15
 214 01cc 75C8393B 		.ascii	"u\3109;\"v\020\"\2018\232\373\217;\230\276\035\257<"
 214      22761022 
 214      81389AFB 
 214      8F3B98BE 
 214      1DAF3C
 215 01df 4F91F8E1 		.ascii	"O\221\370\341v\262\375\316\2057\361\271VeZE\004^\374"
 215      76B2FDCE 
 215      8537F1B9 
 215      56655A45 
 215      045EFC
 216 01f2 37819786 		.ascii	"7\201\227\206\200\237\262#\363-\355yl\361\266\263\264"
 216      809FB223 
 216      F32DED79 
 216      6CF1B6B3 
 216      B4
 217 0203 79783AD7 		.ascii	"yx:\327\207\247\213\266M\357x:Tj>I\321\340\265\023\351"
 217      87A78BB6 
 217      4DEF783A 
 217      546A3E49 
 217      D1E0B513 
 218 0218 CD1ADD93 		.ascii	"\315\032\335\223\352\242\334\322\247n\323\247\036\226"
 218      EAA2DCD2 
 218      A76ED3A7 
 218      1E96
 219 0226 A4E86CBA 		.ascii	"\244\350l\272\357sG\3004e\351]\252O\315u\337\352wmP"
 219      EF7347C0 
 219      3465E95D 
 219      AA4FCD75 
 219      DFEA776D 
 220 023b D1BBAEC2 		.ascii	"\321\273\256\302\376\353I5Ut0\002\004\263\301\207\036"
 220      FEEB4935 
 220      55743002 
 220      04B3C187 
 220      1E
 221 024c A36B7B84 		.ascii	"\243k{\204>\343C\000&0jw\320DQ>l6\202h+C\023\373\261"
 221      3EE34300 
 221      26306A77 
 221      D044513E 
 221      6C368268 
 222 0265 92FE951E 		.ascii	"\222\376\225\036\230D\313\376\344bE<\32034\233$\235"
ARM GAS  C:\Users\Thomas\AppData\Local\Temp\cc6XWboc.s 			page 17


 222      9844CBFE 
 222      E462453C 
 222      D033349B 
 222      249D
 223 0277 DCCACE2F 		.ascii	"\334\312\316/>\026*\015\205\317\224\207\316\236.*\253"
 223      3E162A0D 
 223      85CF9487 
 223      CE9E2E2A 
 223      AB
 224 0288 0897848A 		.ascii	"\010\227\204\212\013\213\312\216\036).<\224_\002\231"
 224      0B8BCA8E 
 224      1E292E3C 
 224      945F0299 
 225 0298 E74ACB43 		.ascii	"\347J\313C\341p\305\371r\347\354\017b\023\203\366"
 225      E170C5F9 
 225      72E7EC0F 
 225      621383F6 
 226              		.text
 227              		.section	.gnu.lto_P2_DisableInt.b949bf82,"",%progbits
 228 0000 789C7D90 		.ascii	"x\234}\220\315K\033Q\024\305\357\271\223\214\003\201"
 228      CD4B1B51 
 228      14C5EFB9 
 228      938C0381 
 229 0010 50BA2892 		.ascii	"P\272(\222\205\245\270\020ARh\351_\340\302\205\233@"
 229      85A5B810 
 229      415268E9 
 229      5FE0C285 
 229      9B40
 230 0022 B6A12276 		.ascii	"\266\241\"v\026nTB\262\014y\321)H\013\"\"$ \021\024"
 230      166E5442 
 230      B20C79D1 
 230      29480B22 
 230      22242011 
 231 0037 A47E555B 		.ascii	"\244~U[t\351bp!~@D\204\006$\264.\222b\272i\255\240\235"
 231      74E96270 
 231      217E4044 
 231      840624B4 
 231      2E9262BA 
 232 004f 9692DE37 		.ascii	"\226\222\3367\343\252\202\003o\336\007\347\374\356\271"
 232      E3AA8203 
 232      6FDE07E7 
 232      FCEEB9
 233 005e D7A0BB5F 		.ascii	"\327\240\273_L\326\031\210\236\312\016\203\300\323\025"
 233      4CD61988 
 233      9ECA0E83 
 233      C0D315
 234 006d A282C580 		.ascii	"\242\202\305\200>\020(\317\310\243\311\227\214iw\255"
 234      3E1028CF 
 234      C8A3C997 
 234      8C6977AD 
 235 007d 14E95A52 		.ascii	"\024\351ZRJ\375\370Ym\177\335\3561\321\025\007\030\274"
 235      4AFDF859 
 235      6D7FDDEE 
 235      31D11507 
 235      18BC
 236 008f 431789A6 		.ascii	"C\027\211\246\332\374}\0266\236@\237\033\007\333\263"
 236      DAFC7D16 
ARM GAS  C:\Users\Thomas\AppData\Local\Temp\cc6XWboc.s 			page 18


 236      369E409F 
 236      1B07DBB3 
 237 009f 46E78252 		.ascii	"F\347\202R\343\347\007\215\275\210*)\347\274\325z\354"
 237      E3E7078D 
 237      BD882A29 
 237      E7BCD57A 
 237      EC
 238 00b0 097B1986 		.ascii	"\011{\031\2068\321\023Cw\3546\210\030.\235\277\325\210"
 238      38D11343 
 238      77EC3688 
 238      182E9DBF 
 238      D588
 239 00c2 E9488107 		.ascii	"\351H\201\007XAg\000\307*L\311\007\375\262\371\320U"
 239      58416700 
 239      C72A4CC9 
 239      07FDB2F9 
 239      D055
 240 00d4 ADD6567D 		.ascii	"\255\326V}f\3779[\022V\236B\3441\207\365\217\250.K\247"
 240      66FF395B 
 240      12569E42 
 240      E43187F5 
 240      8FA82E4B 
 241 00e9 6EC84576 		.ascii	"n\310Ev\243\206\011\267\370\366\221&\334\260!\005\346"
 241      A38609B7 
 241      F8F69126 
 241      DCB02105 
 241      E6
 242 00fa 4FA73638 		.ascii	"O\24768\367GM*\313cI\240\271k\310\211;D\237\300~)a\212"
 242      F7474D2A 
 242      CB6349A0 
 242      B96BC889 
 242      3B449FC0 
 243 0112 5866B27B 		.ascii	"Xf\262{\375\346\353\372\313\300\034\022\363\341M\271"
 243      FDE6EBFA 
 243      CBC01C12 
 243      F3E14DB9 
 244 0122 695CB0C7 		.ascii	"i\\\260\307\341\342QA\205t\340/\365\343\023\313\177"
 244      E1E25141 
 244      8574E02F 
 244      F5E313CB 
 244      7F
 245 0133 F2F3EF2C 		.ascii	"\362\363\357,,6\"e\314\025\034xlb\0351\274\207\364\207"
 245      2C362265 
 245      CC151C78 
 245      6C621D31 
 245      BC87F487 
 246 0147 0D9421C4 		.ascii	"\015\224!\304\211_f\200\013\007\304\225J\351[T\333\315"
 246      895F6680 
 246      0B07C495 
 246      4AE95B54 
 246      DBCD
 247 0159 EF206C8A 		.ascii	"\357 l\212T\252\316@k\356\243}\020\2320\250\006\307"
 247      54AACE40 
 247      6BEEA37D 
 247      109A30A8 
 247      06C7
 248 016b 9D3BF253 		.ascii	"\235;\362S\323\377\315\265]\351\201\340\2434'\335xl"
ARM GAS  C:\Users\Thomas\AppData\Local\Temp\cc6XWboc.s 			page 19


 248      D3FFCDB5 
 248      5DE981E0 
 248      A33427DD 
 248      786C
 249 017d D16714DC 		.ascii	"\321g\024\334r\277/&=*\350\021\211\246#\236\352\263"
 249      72BF2F26 
 249      3D2AE811 
 249      89A6239E 
 249      EAB3
 250 018f 47ECF460 		.ascii	"G\354\364`\306~5\220\034\315\246\207\354T\"9\332\373"
 250      C67E3590 
 250      1CCDA687 
 250      EC542239 
 250      DAFB
 251 01a1 22957816 		.ascii	"\"\225x\026\037\242\350\360H\306N\247\263c\231dF$\377"
 251      1FA2E8F0 
 251      48C64EA7 
 251      B3639964 
 251      4624FF
 252 01b4 00639AB4 		.ascii	"\000c\232\264\334"
 252      DC
 253              		.text
 254              		.section	.gnu.lto_P2_Stop.b949bf82,"",%progbits
 255 0000 789C7D8F 		.ascii	"x\234}\217?HBQ\024\306\317w\236\275\204\007\021M\342"
 255      3F484251 
 255      14C6CF77 
 255      9EBD8407 
 255      114DE2
 256 0013 106D6E0E 		.ascii	"\020mn\016ASc\203\253 4\011\021\366\326\004\251Q|\017"
 256      41536383 
 256      AB203409 
 256      11F6D604 
 256      A9517C0F 
 257 0027 0DC221D4 		.ascii	"\015\302!\324)\010\335\"\313\262\241\240)x\265\024\015"
 257      2908DD22 
 257      CBB2A1A0 
 257      2978B514 
 257      0D
 258 0038 45340456 		.ascii	"E4\004VV`Q[\"e\217(;\3277\006]\270\367\334?\337\371"
 258      5660515B 
 258      22658F28 
 258      3BD73706 
 258      5DB8F7DC 
 259 004f 7DF7D3E8 		.ascii	"}\367\323\350\357\010\312\214\202hL*4\002\027\316\211"
 259      EF08CA8C 
 259      82684C2A 
 259      340217CE 
 259      89
 260 0060 6C3F036A 		.ascii	"l?\003jC\240\014#\203Wn3\012Nm\325\010\255[\226\365"
 260      43A00C23 
 260      83576E33 
 260      0A4E6DD5 
 260      08AD5B96 
 261 0075 563A0C2C 		.ascii	"V:\014,\005\\&\352\260\207\301\006B$\232v\356\373\332"
 261      055C26EA 
 261      B087C106 
 261      42249A76 
ARM GAS  C:\Users\Thomas\AppData\Local\Temp\cc6XWboc.s 			page 20


 261      EEFBDA
 262 0088 D073A219 		.ascii	"\320s\242\031\366\336P\205.x\332\035q\254^o\357\275"
 262      F6DE5085 
 262      2E78DA1D 
 262      71AC5E6F 
 262      EFBD
 263 009a 783A099D 		.ascii	"x:\011\235\311e1\223\205\250%*e\365\304\254\252\326"
 263      C9653193 
 263      85A8252A 
 263      65F5C4AC 
 263      AAD6
 264 00ac C0F147FE 		.ascii	"\300\361G\376\2712\255\032\273\254|\037\216\036\017"
 264      B932AD1A 
 264      BBAC7C1F 
 264      8E1E0F
 265 00bb 8C177699 		.ascii	"\214\027v\231\273g\266\345S6\367\255\213K\177\377\212"
 265      BB67B6E5 
 265      5336F7AD 
 265      8B4B7FFF 
 265      8A
 266 00cc D4B1EAE4 		.ascii	"\324\261\352\344\233\203e\254\3319\270\254a\023AlA\222"
 266      9B8365AC 
 266      D939B8AC 
 266      6113416C 
 266      4192
 267 00de A18632A8 		.ascii	"\241\2062\250\201\354\247\356\3414\217X,\356W\206T\273"
 267      81ECA7EE 
 267      E1348F58 
 267      2CEE5786 
 267      54BB
 268 00f0 F603C2B6 		.ascii	"\366\003\302\266H\305\265\004\245\371\217\266#4a\320"
 268      48C5B504 
 268      A5F98FB6 
 268      233461D0 
 269 0100 2DB2CECD 		.ascii	"-\262\316\315\011+\271r\257\\\255\3249\375e-[~\227}"
 269      092BB972 
 269      AF5CADD4 
 269      39FD652D 
 269      5B7E977D 
 270 0114 1D150A75 		.ascii	"\035\025\012u\244%\336\0005a;w\221\276\222TV\250\214"
 270      A425DE00 
 270      35613B77 
 270      91BE9254 
 270      56A88C
 271 0127 F2E9D170 		.ascii	"\362\351\321p<b\316\233\251\331\005sn&\226\\L%\314x"
 271      3C62CE9B 
 271      A9D90573 
 271      6E26965C 
 271      4C25CC78 
 272 013b 34969C9A 		.ascii	"4\226\234\232\210G\307\303\011\372\0056h\200\233"
 272      8847C7C3 
 272      09FA0536 
 272      68809B
 273              		.text
 274              		.section	.gnu.lto_P2_SetIntMode.b949bf82,"",%progbits
 275 0000 789C8D91 		.ascii	"x\234\215\221M(DQ\024\307\317\377\3361\363|\024Y1\013"
 275      4D284451 
ARM GAS  C:\Users\Thomas\AppData\Local\Temp\cc6XWboc.s 			page 21


 275      14C7CFFF 
 275      DE31F37C 
 275      1459310B 
 276 0014 65819424 		.ascii	"e\201\224$e\257,d7\231\355D\342-l\3204\326\336\230\221"
 276      65AF2C64 
 276      3799ED44 
 276      E22D6CD0 
 276      34D6DE98 
 277 0029 9A15B250 		.ascii	"\232\025\262P\232\225\344c\030_;E\223\315(El\224\005"
 277      9A95E463 
 277      185F3B45 
 277      93CD2845 
 277      6C9405
 278 003c 0BA37C94 		.ascii	"\013\243|\224\210\214\021\3069\357YQ\362\352\235s\356"
 278      888C11C6 
 278      39EF5951 
 278      F2EA9D73 
 278      EE
 279 004d BDFFF33B 		.ascii	"\275\377\363;\347\236\253\351\367\347\025\243\210\232"
 279      E79EABE9 
 279      F7E715A3 
 279      889A
 280 005b D84113D4 		.ascii	"\330A\023\324\304!Q\330P\200\004\004\032Q\030\301\215"
 280      C42151D8 
 280      50800404 
 280      1A5118C1 
 280      8D
 281 006c 7A549848 		.ascii	"zT\230H%f\212\353\346-\313z8\231\254\034\253\310q\332"
 281      25668AEB 
 281      E62DCB7A 
 281      3899AC1C 
 281      ABC871DA 
 282 0080 93723058 		.ascii	"\223r0X@\035Kb\273\261d\241\256\006q<\375\226\276\325"
 282      401D4B62 
 282      BBB164A1 
 282      AE06713C 
 282      FD96BED5 
 283 0094 35739635 		.ascii	"5s\2265\232\332NZ\255\3101s\021\2323\320\340E\275\227"
 283      9ADA4E5A 
 283      ADC83173 
 283      119A33D0 
 283      E045BD97 
 284 00a8 7883B084 		.ascii	"x\203\260\204\032\021?F?N\213\335Qf\2279L,\303\015\366"
 284      1A113F46 
 284      3F4E8BDD 
 284      51669739 
 284      4C2CC30D 
 285 00bd 6BE5292B 		.ascii	"k\345)+\237\337JO/\326\272\212\024\347(-\246@\214\033"
 285      9FDF4A4F 
 285      2FD6BA8A 
 285      14E7282D 
 285      A6408C1B 
 286 00d1 92EE91D0 		.ascii	"\222\356\221\320\020C\224\341_\372\276\342\005{}\206"
 286      104394E1 
 286      5FFABEE2 
 286      057B7D86 
 287 00e1 BD97D8E7 		.ascii	"\275\227\330\347~\227\320\262J.\261\023\037\275*\271"
ARM GAS  C:\Users\Thomas\AppData\Local\Temp\cc6XWboc.s 			page 22


 287      7E97D0B2 
 287      4A2EB113 
 287      1FBD2AB9 
 288 00f1 5639A5C7 		.ascii	"V9\245\307\017\302\226Kj_d\216\216\015{\213dy\027\313"
 288      0FC2964B 
 288      6A5F648E 
 288      8E0D7B8B 
 288      647917CB 
 289 0105 77C6311B 		.ascii	"w\3061\033\216r\307.$\340\305\012xJXE\034t\206\310\253"
 289      8E72C72E 
 289      24E0C50A 
 289      784A5845 
 289      1C7486C8 
 290 011a DBA16907 		.ascii	"\333\241i\007x\177\371\036\261\263]\257|\235$K\271\350"
 290      787FF91E 
 290      B1B35DAF 
 290      7C9D244B 
 290      B9E8
 291 012c 1444F307 		.ascii	"\024D\363\007l\215a\214 \273\301\275\016\207X\360G\302"
 291      6C8D618C 
 291      20BBC1BD 
 291      0E8758F0 
 291      47C2
 292 013e FA8FEA9E 		.ascii	"\372\217\352\236\254\022~\366==VjW\367\0206\354\342"
 292      AC127EF6 
 292      3D3D566A 
 292      57F71036 
 292      ECE2
 293 0150 91E76F89 		.ascii	"\221\347o\211\301D\026\376\253\237M\273\037\203\316"
 293      C14416FE 
 293      AB9F4DBB 
 293      1F83CE
 294 015f 114E6D75 		.ascii	"\021Nmu\212X^5\303/\304c\344\241V5\006\332\315\0013"
 294      8A585E35 
 294      C32FC463 
 294      E4A15635 
 294      06DACD01 
 295 0174 D81332FB 		.ascii	"\330\0232\373\272\375\203\303\301^3\340\363\017\266"
 295      BAFD83C3 
 295      C15E33E0 
 295      F30FB6
 296 0183 B5047CCD 		.ascii	"\265\004|\315\215\275T\332?\0202\203\301\341\241\220"
 296      8DBD54DA 
 296      3F103283 
 296      C1E1A190 
 297 0193 73F605D5 		.ascii	"s\366\005\325S\274\270"
 297      53BCB8
 298              		.text
 299              		.section	.gnu.lto_P2_GetIntStatus.b949bf82,"",%progbits
 300 0000 789C6366 		.ascii	"x\234cf\300\004R@\374\033\210\025\200\230\221\231\201"
 300      C0045240 
 300      FC1B8815 
 300      80989199 
 300      81
 301 0011 9169C239 		.ascii	"\221i\3029\006\206F\016&FF\020\203\201\221\241\236\211"
 301      0686460E 
 301      26464610 
ARM GAS  C:\Users\Thomas\AppData\Local\Temp\cc6XWboc.s 			page 23


 301      838191A1 
 301      9E89
 302 0023 B19EF125 		.ascii	"\261\236\361%\323G&\3063;\377]fT_\332\320\320\364a\321"
 302      D34726C6 
 302      333BFF5D 
 302      66545FDA 
 302      D0D0F461 
 303 0038 F4BBDCAD 		.ascii	"\364\273\334\255\022?\231\030\030>310\352H1j\202\314"
 303      123F9918 
 303      183E3331 
 303      30EA4831 
 303      6A82CC
 304 004b 615CCEA8 		.ascii	"a\\\316\250\316\000T\370\261\345\357un\266\226\206\206"
 304      CE0054F8 
 304      B1E5EF75 
 304      6EB69686 
 304      86
 305 005c 0601903C 		.ascii	"\006\001\220<Pb\005#\033#\220^/t\240\341\377\377\317"
 305      50620523 
 305      1B23905E 
 305      2F74A0E1 
 305      FFFFCF
 306 006f 77A7ACD0 		.ascii	"w\247\254\320gaab\370\311\004\264\021d\010\303\023 "
 306      67616162 
 306      F8C904B4 
 306      116408C3 
 306      1320
 307 0081 01B2EF29 		.ascii	"\001\262\357)\023\023\210f\276\305x\350[\327\263\323"
 307      13138866 
 307      BEC578E8 
 307      5BD7B3D3 
 308 0091 16208DDF 		.ascii	"\026 \215\337\231@\226\337=\362f\003\347\013\246\237"
 308      994096DF 
 308      3DF26603 
 308      E70BA69F 
 309 00a1 4C4CCF4F 		.ascii	"LL\317O56\260\200\254\271\377\344\374E\016\260\020\003"
 309      3536B080 
 309      ACB9FFE4 
 309      FC450EB0 
 309      1003
 310 00b3 887BF1C9 		.ascii	"\210{\361\311\021\377\271\214\263\033[\030\177213\256"
 310      11FFB98C 
 310      B31B5B18 
 310      7F323133 
 310      AE
 311 00c4 6494625C 		.ascii	"d\224b\\\305\010t\025\343j\306\271\214\014\267\030\233"
 311      C5087415 
 311      E36AC6B9 
 311      8C0CB718 
 311      9B
 312 00d5 7FB4E940 		.ascii	"\177\264\351@\214c\206\230\370\375\317\361V~\220v\006"
 312      8C638698 
 312      F8FDCFF1 
 312      567E9076 
 312      06
 313 00e6 7606C635 		.ascii	"v\006\3065@\245\367\030\031\241\012\300.b\004\271\004"
 313      40A5F718 
ARM GAS  C:\Users\Thomas\AppData\Local\Temp\cc6XWboc.s 			page 24


 313      19A10AC0 
 313      2E6204B9 
 313      04
 314 00f7 68B49C5E 		.ascii	"h\264\234^\214{j^jQbIjJ|p~iQrjL@p\276\263iL\200\221"
 314      8C7B6A5E 
 314      6A516249 
 314      6A4A7C70 
 314      7E695172 
 315 0115 5E320300 		.ascii	"^2\003\000\265\262eN"
 315      B5B2654E 
 316              		.text
 317              		.section	.gnu.lto_P2_WriteRegValue.b949bf82,"",%progbits
 318 0000 789C654F 		.ascii	"x\234eO1HBQ\024\275\347\375\257\0306HS9\004\015\"48"
 318      31484251 
 318      14BDE7FD 
 318      AF183648 
 318      5339040D 
 319 0017 042D4D41 		.ascii	"\004-MAA\253`\243\020b?jI0\233}?,\227\006\207\210H\232"
 319      41AB60A3 
 319      10623F6A 
 319      49309B7D 
 319      3F2C9706 
 320 002f 22CAAC0C 		.ascii	"\"\312\254\014ji\211O-QP\024\204\330\220 _(hH\024\354"
 320      6A69894F 
 320      2D515014 
 320      84D89020 
 320      5F286848 
 321 0045 0F61F7E9 		.ascii	"\017a\367\351\330\203\307\275\347p\3369\347i\364\377"
 321      D883C7BD 
 321      E770DE39 
 321      E769F4FF 
 322 0055 F8F90641 		.ascii	"\370\371\006A4\312\023\032A\344\036\211L\217\000\324"
 322      34CA131A 
 322      41E41E89 
 322      4C8F00D4 
 323 0065 42A0B440 		.ascii	"B\240\264@\032\237\242!\220\263\212;\336\340\201\224"
 323      1A9FA221 
 323      90B38A3B 
 323      DEE08194 
 324 0075 F2BB961F 		.ascii	"\362\273\226\037Z\037t\004QS\364lp\210 Kn\333_Y\227"
 324      5A1F7404 
 324      5153F46C 
 324      7088204B 
 324      6EDB5F59 
 325 008a 3602E2FD 		.ascii	"6\002\342\375\241\366\323\354\377\020\216\200O\301\335"
 325      A1F6D3EC 
 325      FF108E80 
 325      4FC1DD
 326 0099 72BDA529 		.ascii	"r\275\245)(\204\202\225\312\313\246'\260/\345\232u}"
 326      28848295 
 326      CACBA627 
 326      B02FE59A 
 326      757D
 327 00ab 2E2799D7 		.ascii	".'\231\327p\004\215\375P\200\037\307\360\023S\204\""
 327      70048DFD 
 327      50801FC7 
 327      F0135384 
ARM GAS  C:\Users\Thomas\AppData\Local\Temp\cc6XWboc.s 			page 25


 327      22
 328 00bc 024ADEC8 		.ascii	"\002J\336\310\374\226\275\356\014g\373z\2318\201\233"
 328      FC96BDEE 
 328      0C67FB7A 
 328      9938819B 
 329 00cc 6B5369C0 		.ascii	"kSi\300\222\235\316Ek\353nB\327\271\265\322\223\315"
 329      929DCE45 
 329      6BEB6E42 
 329      D7B9B5D2 
 329      93CD
 330 00de 0A55BFCE 		.ascii	"\012U\277\316Y<\2657\334l7Z\263\352\015{U\257\362\205"
 330      593CB537 
 330      DC6C375A 
 330      B3EA0D7B 
 330      55AFF285 
 331 00f2 6E137DE3 		.ascii	"n\023}\343\336\224\272\262\257\332O\317\236.E\012\332"
 331      DE94BAB2 
 331      AFDA4FCF 
 331      9E2E450A 
 331      DA
 332 0103 D94B47DF 		.ascii	"\331KG\337C\336\314\300\021.\234r\2413.D(a\017m6}\207"
 332      43DECCC0 
 332      112E9C72 
 332      A1332E44 
 332      28610F6D 
 333 011a 69BD4694 		.ascii	"i\275F\224\237\372\274-\240b8t8\024\2351\226\215d,e"
 333      9FFABC2D 
 333      A0623874 
 333      38149D31 
 333      968D642C 
 334 012f CCCF4512 		.ascii	"\314\317E\022\253\311\270\021\015G\022S\343\321\360"
 334      ABC9B811 
 334      0D471253 
 334      E3D1F0
 335 013e 58284E7D 		.ascii	"X(N}+\213K\013\251\351X*\366\007<\015yK"
 335      2B8B4B0B 
 335      A9E9582A 
 335      F6073C0D 
 335      794B
 336              		.text
 337              		.section	.gnu.lto_P2_ReadRegValue.b949bf82,"",%progbits
 338 0000 789C6D52 		.ascii	"x\234mR[HTQ\024\335\373\234{\257\323\370h\350s>\222"
 338      5B485451 
 338      14DDFB9C 
 338      7BAFD3F8 
 338      68E8733E 
 339 0015 30D0200C 		.ascii	"0\320 \014\204~\352'\210\210\376\004\177\205\020\035"
 339      847EEA27 
 339      8888FE04 
 339      7F85101D 
 340 0025 2188067C 		.ascii	"!\210\006|\364'\236\031/$\231MBLj(\025Y\232\351T\332"
 340      F4279E19 
 340      2F24994D 
 340      424C6A28 
 340      15599AE9 
 341 003b C3178C1A 		.ascii	"\303\027\214\032\031=\024\261F\222!\007\231\301\307"
 341      193D14B1 
ARM GAS  C:\Users\Thomas\AppData\Local\Temp\cc6XWboc.s 			page 26


 341      46922107 
 341      99C1C7
 342 004a 4764934E 		.ascii	"Gd\223NC\324\264\317\271\0164\331\205\231{\316\271k"
 342      43D4B4CF 
 342      B90E34D9 
 342      85997BCE 
 342      B96B
 343 005c AFB3D75A 		.ascii	"\257\263\327Z\233\303\356\347\024\375j9@1\275\321\000"
 343      9BC3EEE7 
 343      14FD6A39 
 343      4031BDD1 
 343      00
 344 006d 64D76601 		.ascii	"d\327f\001<6\206\232\265\340\326b\322\2461~e\006@\330"
 344      3C36869A 
 344      B5E0D662 
 344      D2A6317E 
 344      650640D8 
 345 0081 75330B44 		.ascii	"u3\013D\216\216(\317\001\241\221qM\307F\246Y\204\353"
 345      8E8E28CF 
 345      01A19171 
 345      4DC746A6 
 345      5984EB
 346 0094 6C93E1DB 		.ascii	"l\223\341\333\225\037\361\2345\226d\340\000\332v.\306"
 346      951FF19C 
 346      359664E0 
 346      00DA762E 
 346      C6
 347 00a5 BE73B945 		.ascii	"\276s\271E&\267c\361\331\025\243\260G\010\357\327o\363"
 347      26B763F1 
 347      D915A3B0 
 347      4708EFD7 
 347      6FF3
 348 00b7 15EDD76F 		.ascii	"\025\355\327oa\2221\2103\300\373\350\304^tJ\336>,\224"
 348      61923188 
 348      33C0FBE8 
 348      C45E744A 
 348      DE3E2C94 
 349 00cb D8BEF056 		.ascii	"\330\276\360V0\217\037@\271\366\265t/\344\026\334\246"
 349      308F1F40 
 349      B9F6B574 
 349      2FE416DC 
 349      A6
 350 00dc BA4847EB 		.ascii	"\272HG\353\245\034\321+\314H*\225O\305\370\000yf\275"
 350      A51CD12B 
 350      CC482A95 
 350      4FC5F800 
 350      7966BD
 351 00ef 7CA864D3 		.ascii	"|\250d\323\374\265\230m\230B\010\007\366c\201\274\204"
 351      FCB5986D 
 351      98420807 
 351      F66381BC 
 351      84
 352 0100 B81FA281 		.ascii	"\270\037\242\201\000L\236\020\346\306d\217\337n\321"
 352      004C9E10 
 352      E6C6648F 
 352      DF6ED1
 353 010f 2663AFB2 		.ascii	"&c\257\262E{\232\226\247i\017;\361P\232\024\007\260"
ARM GAS  C:\Users\Thomas\AppData\Local\Temp\cc6XWboc.s 			page 27


 353      457B9A96 
 353      A7690F3B 
 353      F1509A14 
 353      07B0
 354 0121 20B02F28 		.ascii	" \260/(R\251\241w\376\346#\206\215C\222i\032\375\351"
 354      52A9A177 
 354      FEE62386 
 354      8D439269 
 354      1AFDE9
 355 0134 3A484643 		.ascii	":HFCA\000\242t\025Y\025%if\026\2171\016\344\037_\302"
 355      4100A274 
 355      15591525 
 355      6966168F 
 355      310EE41F 
 356 014a A9EDCBDB 		.ascii	"\251\355\313\333\353%\262\207\004\343t}\240\253y\025"
 356      EB25B287 
 356      04E3747D 
 356      A0AB7915 
 357 015a A53946E8 		.ascii	"\2459F\350\215Gh\262\353\345\350\334\274M\035)\021["
 357      8D4768B2 
 357      EBE5E8DC 
 357      BC4D1D29 
 357      115B
 358 016c 1D6BD3B9 		.ascii	"\035k\323\271]x\323c\222QY8H\"\003R$>\302.\322\0011"
 358      5D78D363 
 358      92515938 
 358      48220352 
 358      243EC22E 
 359 0183 F29EC2E0 		.ascii	"\362\236\302\340!\364*\273}\357\247\302{y\221\362\354"
 359      21F42ABB 
 359      7DEFA7C2 
 359      7B7991F2 
 359      EC
 360 0194 43EF6BAF 		.ascii	"C\357k\257f\211\363\265f\212{\374\037qO\224#s\221i\237"
 360      6689F3B5 
 360      668A7BFC 
 360      1F714F94 
 360      23739169 
 361 01a9 8A8FD3F7 		.ascii	"\212\217\323\367!\272\212\230\203\211\226\274\014C\203"
 361      21BA8A98 
 361      838996BC 
 361      0C4383
 362 01b8 239D0725 		.ascii	"#\235\007%^\331\031g\370\257\335\322\004\034\246\231"
 362      5ED91967 
 362      F8AFDDD2 
 362      041CA699 
 363 01c8 027C4A7E 		.ascii	"\002|J~\017(\346\266\266\341\356<\305\374\033\001\237"
 363      0F28E6B6 
 363      B6E1EE3C 
 363      C5FC1B01 
 363      9F
 364 01d9 59D40E09 		.ascii	"Y\324\016\011\240\2173/G\307\365\242{T\035\031\037\010"
 364      A08F332F 
 364      47C7F5A2 
 364      7B541D19 
 364      1F08
 365 01eb 9FB0112A 		.ascii	"\237\260\021*\335\327s,R\215\204\261I\241\023L\026t"
ARM GAS  C:\Users\Thomas\AppData\Local\Temp\cc6XWboc.s 			page 28


 365      DDD7732C 
 365      528D84B1 
 365      49A1134C 
 365      1674
 366 01fd 2F5C1D64 		.ascii	"/\\\035d\015?E\263 \254-Ns \357\303\027\330@q\354Q\324"
 366      0D3F45B3 
 366      20AC2D4E 
 366      7320EFC3 
 366      17D84071 
 367 0214 2A0C42C3 		.ascii	"*\014B\303G4?5\305\207\235\226\361\306\337S\251\223"
 367      47343F35 
 367      C5879D96 
 367      F1C6DF53 
 367      A993
 368 0226 CA919DA9 		.ascii	"\312\221\235\251\2111]\306\245b\012m\330-\264F\350\371"
 368      89315DC6 
 368      A5620A6D 
 368      D82DB446 
 368      E8F9
 369 0238 89BB1725 		.ascii	"\211\273\027%\330\356\337\225\222]\245\264:qg\231\247"
 369      D8EEDF95 
 369      925DA5B4 
 369      3A716799 
 369      A7
 370 0249 53CAC651 		.ascii	"S\312\306QJiL\2454.SR\204_6\216Y\204zF\252\236`~f\256"
 370      4A694CA5 
 370      342E5352 
 370      845F368E 
 370      59847A46 
 371 0263 13B282BA 		.ascii	"\023\262\202\272\027\307\325\250\366K\005:|FO0\261\304"
 371      17C7D5A8 
 371      F64B053A 
 371      7C464F30 
 371      B1C4
 372 0275 7618404E 		.ascii	"v\030@N\030R\2574f\373\213\313O\273.\270j*\352\\Ug\313"
 372      1852AF34 
 372      66FB8BCB 
 372      4FBB2EB8 
 372      6A2AEA5C 
 373 028c DCF53595 		.ascii	"\334\3655\225\256\362\3222\367\311\243\345\245%\305"
 373      AEF2D232 
 373      F7C9A3E5 
 373      A525C5
 374 029b 9560D4B8 		.ascii	"\225`\324\270j\353\317\327\031\325\347\252\335g\252"
 374      6AEBCFD7 
 374      19D5E7AA 
 374      DD67AA
 375 02aa FE00849E 		.ascii	"\376\000\204\236G\317"
 375      47CF
 376              		.text
 377              		.section	.gnu.lto_.symbol_nodes.b949bf82,"",%progbits
 378 0000 789C55CF 		.ascii	"x\234U\317\261\015\3020\024\004\320\263\177\034;\211"
 378      B10DC230 
 378      1404D0B3 
 378      7F1C3B89 
 379 0010 93929609 		.ascii	"\223\222\226\011`\305\213\322\320\262\000\210D\254A"
 379      60C58BD2 
ARM GAS  C:\Users\Thomas\AppData\Local\Temp\cc6XWboc.s 			page 29


 379      D0B20088 
 379      44AC41
 380 001f 13513303 		.ascii	"\023Q3\003\364\210\021\020FI\341\377\233\323\323]\363"
 380      F4881110 
 380      4649E1FF 
 380      9BD3D35D 
 380      F3
 381 0030 05C0DE60 		.ascii	"\005\300\336`9\333\0218>\000\322\234\246\000\353iV\343"
 381      39DB1138 
 381      3E00D29C 
 381      A600EB69 
 381      56E3
 382 0042 7C49165A 		.ascii	"|I\026ZeGQ\266,\224\015]n\007\214\226\260%K5+\350\225"
 382      654751B6 
 382      2C940D5D 
 382      6E078C96 
 382      B0254B35 
 383 0059 038372C5 		.ascii	"\003\203r\305J\271f\255\334\260\311mZ\306\305\350\373"
 383      4AB966AD 
 383      DCB0C96D 
 383      5AC6C5E8 
 383      FB
 384 006a C4C836A3 		.ascii	"\304\3106\243\244o\207q#\322\341\372\374\032\221\026"
 384      A46F8771 
 384      23D2E1FA 
 384      FC1A9116 
 385 007a F757CA42 		.ascii	"\367W\312B0\374\323\011\346\303{+~\355\375\332\007\277"
 385      30FCD309 
 385      E6C37B2B 
 385      7EEDFDDA 
 385      07BF
 386 008c F411986E 		.ascii	"\364\021\230n\237\035~\340<P7"
 386      9F1D7EE0 
 386      3C5037
 387              		.text
 388              		.section	.gnu.lto_.refs.b949bf82,"",%progbits
 389 0000 789C6366 		.ascii	"x\234cf``\340d\200\000&V\0066FF6.\006\000\001z\000,"
 389      6060E064 
 389      80002656 
 389      06364646 
 389      362E0600 
 390              		.text
 391              		.section	.gnu.lto_.decls.b949bf82,"",%progbits
 392 0000 789C9D55 		.ascii	"x\234\235UiLTW\024~w\356\0003\303\010\376)6\246i1&&"
 392      694C5457 
 392      147E77EE 
 392      0033C308 
 392      FE2936A6 
 393 0018 4D0C519B 		.ascii	"M\014Q\233\032\373\253\246\324\255\351B$\265Ikb\020"
 393      1AFBABA6 
 393      D4ADE942 
 393      24B5496B 
 393      6210
 394 002a 5FEC3404 		.ascii	"_\3544\004\014\016IM\377\\Y*.T\3246\242\270\200\200"
 394      0C0E494D 
 394      FF5C592A 
 394      2E54D436 
ARM GAS  C:\Users\Thomas\AppData\Local\Temp\cc6XWboc.s 			page 30


 394      A2B88080 
 395 003e 3B382A88 		.ascii	";8*\210\300(\303\342\000*\210udUV\221\2652\250\020-"
 395      C028C3E2 
 395      002A8875 
 395      64555691 
 395      B532A810 
 396 0053 EAF4DCE5 		.ascii	"\352\364\334\3459\357M@Mor\230w\037\347|\337w\3569\357"
 396      39EF4D40 
 396      4D6F7298 
 396      771FE77C 
 396      DF77EE39 
 397 0068 5C2C49D2 		.ascii	"\\,I\322I,I\036X{L\222\024\215$i\006\274\213\000\203"
 397      492C491E 
 397      587B4C92 
 397      148D2469 
 397      06BC8B00 
 398 007d 472944E2 		.ascii	"G)D\342+\010\354<X\021\330e\260R0;\330U0\007X%\230\023"
 398      2B08EC3C 
 398      5811D865 
 398      B052303B 
 398      D8553007 
 399 0095 AC0ECC05 		.ascii	"\254\016\314\005\326\014\326\012\326.p:$\355\242X\001"
 399      D60CD60A 
 399      D62E703A 
 399      24EDA258 
 399      01
 400 00a6 606704C7 		.ascii	"`g\004\307J\260^\260n\260\257\004?]:\025/\310\224\036"
 400      4AB05EB0 
 400      6EB0AF04 
 400      3F5D3A15 
 400      2FC8941E 
 401 00ba 80F5813D 		.ascii	"\200\365\201=\364\301\243\377\327\253\360\372\301\316"
 401      F4C1A3FF 
 401      D7ABF0FA 
 401      C1CE
 402 00c8 A9308A04 		.ascii	"\2510\212\004\016\3252\340\023K\363\361\023\234!\002"
 402      0ED532E0 
 402      134BF3F1 
 402      139C2102 
 403 00d8 43D1A2C4 		.ascii	"C\321\242\304_\026\371\371.z\016F\021\253p\017\202\325"
 403      5F16F9F9 
 403      2E7A0E46 
 403      11AB700F 
 403      82D5
 404 00ea A83086C0 		.ascii	"\2500\206\300\252\205?\0261\355\342||\027=S\177\225"
 404      AA853F16 
 404      31EDE27C 
 404      7C173D53 
 404      7F95
 405 00fc 16056318 		.ascii	"\026\005c\030\354\222J\217]\340\370.Z\017\203*~\304"
 405      EC924A8F 
 405      5DE0F82E 
 405      5A0F832A 
 405      7EC4
 406 010e 271F358E 		.ascii	"'\0375\216\237\360WrS0\247\252\227\343\177\344\351x"
 406      9FF05772 
 406      5330A7AA 
ARM GAS  C:\Users\Thomas\AppData\Local\Temp\cc6XWboc.s 			page 31


 406      97E37FE4 
 406      E978
 407 0120 439E95EF 		.ascii	"C\236\225\357\230g\245\300\361]N\311[3E\217\272fH\232"
 407      9867A5C0 
 407      F15D4EC9 
 407      5B33458F 
 407      BA66489A 
 408 0134 BA5EB43F 		.ascii	"\272^\264?\365o\210\251\233\"\306\245\322J\277\0033"
 408      F56F88A9 
 408      9B22C6A5 
 408      D24ABF03 
 408      33
 409 0145 5823D818 		.ascii	"X#\330\030\230[\025\353\232\"\266Y\370\253\343(w\250"
 409      985B15EB 
 409      9A22B659 
 409      F8ABE328 
 409      77A8
 410 0157 E07F02F6 		.ascii	"\340\177\002\366X\362\366\3538\330S\021\213E\274\322"
 410      58F2F6EB 
 410      38D85311 
 410      8B45BCD2 
 411 0167 BBBE6B4C 		.ascii	"\273\276kL\207\232\312\267m3`\035\242\3179\031\335."
 411      879ACAB7 
 411      6D33601D 
 411      A2CF3919 
 411      DD2E
 412 0179 D3FCD384 		.ascii	"\323\374\323\204\220T\342p \257\323\326\343e\273\002"
 412      9054E270 
 412      20AFD3D6 
 412      E365BB02 
 413 0189 067428C4 		.ascii	"\006t(\304\304\266\177\3348X\201\331\326C\343t\255\255"
 413      C4B67FDC 
 413      385881D9 
 413      D643E374 
 413      ADAD
 414 019b 7F3EC7C8 		.ascii	"\177>\307\3104/\225\220D\342\336K\360\373\022\232?\033"
 414      342F9590 
 414      44E2DE4B 
 414      F0FB129A 
 414      3F1B
 415 01ad 7D3C5B42 		.ascii	"}<[Bg\321<pC'\321|\011\235B\263\321i4[\312\005\002\367"
 415      67D13C70 
 415      4327D17C 
 415      099D42B3 
 415      D169345B 
 416 01c5 5157DB07 		.ascii	"QW\333\007\204\350\321\031dB'\020f\036p\010\224A\220"
 416      84E8D119 
 416      64422710 
 416      661E7008 
 416      944190
 417 01d8 96143CAD 		.ascii	"\226\024<\255\017\004\226 S(\335\226\356\255\315\360"
 417      0F049620 
 417      5328DD96 
 417      EEADCDF0 
 418 01e8 87ADD9A4 		.ascii	"\207\255\331\244\247\333\355\3116<\353/@\"\351Id&\307"
 418      A7DBEDC9 
 418      363CEB2F 
ARM GAS  C:\Users\Thomas\AppData\Local\Temp\cc6XWboc.s 			page 32


 418      4022E949 
 418      6426C7
 419 01fb C9078202 		.ascii	"\311\007\202\002 \220\32094\013\376\376\244\347H\266"
 419      2090D039 
 419      340BFEFE 
 419      A4E748B6 
 420 020b 8B8EC318 		.ascii	"\213\216\303\030\177\302r\254-|\376c\350\021\342\260"
 420      7FC272AC 
 420      2D7CFE63 
 420      E811E2B0 
 421 021b B9337BCB 		.ascii	"\2713{\313>;\220\236\225H^y<\210\350h\014\262\275V\""
 421      3E3B909E 
 421      95485E79 
 421      3C88E868 
 421      0CB2BD56 
 422 0230 D1675E98 		.ascii	"\321g^\230\363(\024\002\323S*\322\365z\350(F\365\023"
 422      F3281402 
 422      D3532AD2 
 422      F57AE828 
 422      46F513
 423 0243 13D1E8DC 		.ascii	"\023\321\350\334\356|\203\212\213L\305\005$d\354\035"
 423      EE7C838A 
 423      8B4CC505 
 423      2464EC1D 
 424 0253 6DCB30E1 		.ascii	"m\3130\341_\230\214\276\011\373a\003\350\350\262\221"
 424      5F988CBE 
 424      09FB6103 
 424      E8E8B291 
 425 0263 03244B47 		.ascii	"\003$KG`x\202\004\010@\205*\011\205\212\204\"&\241l"
 425      60788204 
 425      0840852A 
 425      09858A84 
 425      2226A16C 
 426 0277 B2C7A557 		.ascii	"\262\307\245W\323E\204\250\330.ir\356\036\256\236\364"
 426      D34584A8 
 426      D82E6972 
 426      EE1EAE9E 
 426      F4
 427 0288 C3BF31B2 		.ascii	"\303\2771\262\224\302\321G\376\214\254\353J\225\354"
 427      94C2D147 
 427      FE8CACEB 
 427      4A95EC
 428 0297 48262F3C 		.ascii	"H&/<\236$\003\213@\305*\272b\205\3562\243\313\337}!"
 428      9E24038B 
 428      40C52ABA 
 428      6285EE32 
 428      A3CBDF7D 
 429 02ac D7809310 		.ascii	"\327\200\223\020\303\270;\2368\036\3040\262v\347\371"
 429      C3B83B9E 
 429      381EC430 
 429      B276E7F9 
 430 02bc D71287C7 		.ascii	"\327\022\207\307\3639\003(Q\001\224(\000\245\014\240"
 430      F3390328 
 430      51019428 
 430      00A50CA0 
 431 02cc E5F8F142 		.ascii	"\345\370\361B\177\234\316\001~\337V^j\344\000i9\034"
 431      7F9CCE01 
ARM GAS  C:\Users\Thomas\AppData\Local\Temp\cc6XWboc.s 			page 33


 431      7EDF565E 
 431      6AE40069 
 431      391C
 432 02de A09C2006 		.ascii	"\240\234 \006Q\246\202(S \354\014\342^\317\241R\214"
 432      51A68228 
 432      5320EC0C 
 432      E25ECFA1 
 432      528C
 433 02f0 0F728891 		.ascii	"\017r\210\221\3526\027\315#\313\226\325~\201,ey`\206"
 433      EA3617CD 
 433      23CB96D5 
 433      7E812C65 
 433      796086
 434 0303 70458570 		.ascii	"pE\205pEA\270\312\020\272vu\364\004\343\034\216P3\372"
 434      4541B8CA 
 434      10BA7675 
 434      F404E31C 
 434      8E5033FA 
 435 0317 D019C045 		.ascii	"\320\031\300E\224k\262(W\001\224+\000\016\006p,'\271"
 435      946BB228 
 435      5701942B 
 435      000E0670 
 435      2C27B9
 436 032a 3F089FE7 		.ascii	"?\010\237\347\000\305\223\2673\205\204\301\0345@\205"
 436      00C593B7 
 436      338584C1 
 436      1C354085 
 437 033a 0AA04201 		.ascii	"\012\240B\001\250\234\266s\306=\335y\272iKY\315JY\245"
 437      A89CB673 
 437      C63DDD79 
 437      BA694B59 
 437      CD4A59A5 
 438 034e 34CECECA 		.ascii	"4\316\316\312\334\027F\\\302\025<\030H{.RH;\345=G\010"
 438      DC17465C 
 438      C2153C18 
 438      487B2E52 
 438      483BE53D 
 439 0364 41D7541A 		.ascii	"A\327T\032\256)\032\234L\303\233?\227\032M\353\220\255"
 439      AE291A9C 
 439      4CC39B3F 
 439      971A4DEB 
 439      90AD
 440 0376 37274CB8 		.ascii	"7'L\270\206\323\275<\333\227\030\310\022\356*\035\024"
 440      86D3BD3C 
 440      DB9718C8 
 440      12EE2A1D 
 440      14
 441 0387 BD835904 		.ascii	"\275\203Y\004\252U\321\325*tu\214\356F\317\263'f\366"
 441      AA55D1D5 
 441      2A74758C 
 441      EE46CFB3 
 441      2766F6
 442 039a EDCEA420 		.ascii	"\355\316\244 \007\233\373\236b\366\355\352\350\366\360"
 442      079BFB9E 
 442      62F6EDEA 
 442      E8F6F0
 443 03a9 E3477623 		.ascii	"\343Gv#n\346\004\312l\011\345\263e\377\360\263B\003"
ARM GAS  C:\Users\Thomas\AppData\Local\Temp\cc6XWboc.s 			page 34


 443      6EE604CA 
 443      6C09E5B3 
 443      65FFF0B3 
 443      4203
 444 03bb DB521E18 		.ascii	"\333R\036\030.\223\275\005'\374\321<\023\237\032M|j"
 444      2E93BD05 
 444      27FCD13C 
 444      139F1A4D 
 444      7C6A
 445 03cd 3482FC9B 		.ascii	"4\202\374\233\336\251\021*\246\006\033@$\211\370\235"
 445      DEA9112A 
 445      A6061B40 
 445      2489F89D 
 446 03dd 0C92D075 		.ascii	"\014\222\320uH\357\006\244\207n\301\014\012\0253\250"
 446      48EF06A4 
 446      876EC10C 
 446      0A1533A8 
 447 03ed 1E5E36C0 		.ascii	"\036^6\300K`\262\347\016=\012dei|]\226\316\242\211b"
 447      4B60B2E7 
 447      0E3D0A64 
 447      65697C5D 
 447      96CEA289 
 448 0402 D3B465F9 		.ascii	"\323\264e\371\233\035\323m\245,U\245\331#f\334\301\323"
 448      9B1DD36D 
 448      A52C55A5 
 448      D92366DC 
 448      C1D3
 449 0414 C8CF2C28 		.ascii	"\310\317,(\010f\347\344\316\254*^\004\0375\037,,\012"
 449      0866E7E4 
 449      CEAC2A5E 
 449      041F351F 
 449      2C2C0A
 450 0427 DD511DD5 		.ascii	"\335Q\035\325\035\345\250\\\354\250\236\247\324wjJ\323"
 450      1DE5A85C 
 450      ECA89EA7 
 450      D4776A4A 
 450      D3
 451 0438 A829CD5D 		.ascii	"\250)\315]Mi\354\331\203'\014x\224S\246\364'\272\314"
 451      4D69ECD9 
 451      83270C78 
 451      9453A6F4 
 451      27BACC
 452 044b BC34BBD3 		.ascii	"\2744\273\323\234f\302\273\221\205\240&\025a\223B\330"
 452      9C66C2BB 
 452      9185A026 
 452      15619342 
 452      D8
 453 045c CC0847F2 		.ascii	"\314\010G\362\317\333\002\261\207c\344\244\333\333\331"
 453      CFDB02B1 
 453      8763E4A4 
 453      DBDBD9
 454 046b 6820EEFC 		.ascii	"h \356\374:\317\202\003$[\221M\033\252E\205\322\242"
 454      3ACF8203 
 454      245B914D 
 454      1BAA4585 
 454      D2A2
 455 047d A0B43294 		.ascii	"\240\2642\224[C\023\007L\270\230_\034\235g\362b\030"
ARM GAS  C:\Users\Thomas\AppData\Local\Temp\cc6XWboc.s 			page 35


 455      5B431307 
 455      4CB8985F 
 455      1C9D67F2 
 455      6218
 456 048f 48D7CB5E 		.ascii	"H\327\313^\271R\335#m*\2046\005\241\235!\234\035n\331"
 456      B952DD23 
 456      6D2A8436 
 456      05A19D21 
 456      9C1D6ED9 
 457 04a3 67C20D1C 		.ascii	"g\302\015\034\341U\273\255\230Nw\350K\226h\313\235\222"
 457      E155BBAD 
 457      984E77E8 
 457      4B9668CB 
 457      9D92
 458 04b5 E2C0B9D9 		.ascii	"\342\300\271\331$\353\230-\263\367z \311 \244\313\343"
 458      24EB982D 
 458      B3F77A20 
 458      C920A4CB 
 458      E3
 459 04c6 F988F5ED 		.ascii	"\371\210\365\355=\216)\256\030\211\356\341\357}Z\352"
 459      3D8E29AE 
 459      1889EEE1 
 459      EF7D5AEA 
 460 04d6 0E349736 		.ascii	"\0164\2276\360\376\2350\270Z9r\321\304\216\222\031\246"
 460      F0FE9D30 
 460      B85A3972 
 460      D1C48E92 
 460      19A6
 461 04e8 54DA166F 		.ascii	"T\332\026o\277\232\240\337\\\015;\232\214\3742\363\215"
 461      BF9AA0DF 
 461      5C0D3B9A 
 461      8CFC32F3 
 461      8D
 462 04f9 E899F632 		.ascii	"\350\231\3662{\326\2732\231,E\335\240\256\323\333\226"
 462      7BD6BB32 
 462      992C45DD 
 462      A0AED3DB 
 462      96
 463 050a 5DC87B9B 		.ascii	"]\310{\233m\3579Xo6\357\240\015\012e6\326\0061go\235"
 463      6DEF3958 
 463      6F36EFA0 
 463      0D0A6536 
 463      D6063167 
 464 0520 7B91999D 		.ascii	"{\221\231\235\015\374\202\367df\273;x\316Qz\023;\276"
 464      0DFC82F7 
 464      6466BB3B 
 464      78CE517A 
 464      133BBE
 465 0533 80266497 		.ascii	"\200&d\227\020?\274\007h\016\235\037U\205w\214\314\301"
 465      103FBC07 
 465      680E9D1F 
 465      5585778C 
 465      CCC1
 466 0545 9D99F4D8 		.ascii	"\235\231\364\330\262\325\327\253\217y\335M\251\331\255"
 466      B2D5D7AB 
 466      8F79DD4D 
 466      A9D9AD
ARM GAS  C:\Users\Thomas\AppData\Local\Temp\cc6XWboc.s 			page 36


 467 0554 675E5937 		.ascii	"g^Y7\267\021?\244\365y\310|\236ew?\014\326\010\243\027"
 467      B7113FA4 
 467      F579C87C 
 467      9E65773F 
 467      0CD608A3 
 468 0569 A15758BF 		.ascii	"\241WX\277\020\326\317\2045\025\224\2762h\204\025)p"
 468      10D6CF84 
 468      351594BE 
 468      32688415 
 468      2970
 469 057b 03D3C0D5 		.ascii	"\003\323\300\325h\340\006\005\334 \203K\337\233y\325"
 469      68E00605 
 469      DC20834B 
 469      DF9B79D5 
 470 058b A8F1AED6 		.ascii	"\250\361\256\326x\017\011\357!\346\335\221\341\330\241"
 470      780F09EF 
 470      21E6DD91 
 470      E1D8A1
 471 059a D7785FD2 		.ascii	"\327x_\322x\017#\263r\364\303,`\377\021\367\244\026"
 471      780F23B3 
 471      72F4C32C 
 471      60FF11F7 
 471      A416
 472 05ac 5E3BF746 		.ascii	"^;\367F\004\374\010\363.ih\357\300\270\203\267\215;"
 472      04FC08F3 
 472      2E6968EF 
 472      C0B883B7 
 472      8D3B
 473 05be 356D58CF 		.ascii	"5mX\317\333\346\035\007\212n\177\376}\270\250\224I\365"
 473      DBE61D07 
 473      8A6E7FFE 
 473      7DB8A894 
 473      49F5
 474 05d0 2F6F0937 		.ascii	"/o\0117\020\376\343m\211G\310;\252\246@\036\235zT\345"
 474      10FEE36D 
 474      8947C83B 
 474      AAA6401E 
 474      9D7A54E5 
 475 05e4 ED71624D 		.ascii	"\355qbM\032nM\032c\"\2151\226\306\256\201\361\234@E"
 475      1A6E4D1A 
 475      63228D31 
 475      96C6AE81 
 475      F19C4045 
 476 05f8 79EA3BE1 		.ascii	"y\352;\341\237\252,9\024\250!x\254!x\"\010\2360\202"
 476      9FAA2C39 
 476      14A82178 
 476      AC217822 
 476      089E3082 
 477 060c EE74A7DD 		.ascii	"\356t\247\335\250|Q\251o\371>\300\277\"c\337\351\031"
 477      A87C51A9 
 477      6FF93EC0 
 477      BF2263DF 
 477      E919
 478 061e 1AF4A71A 		.ascii	"\032\364\247\032\364q\201N\177\375\022,\261\326%\376"
 478      F471814E 
 478      7FFD122C 
 478      B1D625FE 
ARM GAS  C:\Users\Thomas\AppData\Local\Temp\cc6XWboc.s 			page 37


 479 062e 2BBEFD3E 		.ascii	"+\276\375>4\\\232\033\266v\205\034+\307GY\345\015\353"
 479      345C9A1B 
 479      B676851C 
 479      2BC74759 
 479      E50DEB
 480 0641 22E312E2 		.ascii	"\"\343\022\342\243\345\265\021\221q\341\237\256\215"
 480      A3E5B511 
 480      9171E19F 
 480      AE8D
 481 064f DE62DDB2 		.ascii	"\336b\335\262I\336\034\366\2634+b\321\272\025\262u\371"
 481      49DE1CF6 
 481      B3342B62 
 481      D1BA15B2 
 481      75F9
 482 0661 AAE5DF45 		.ascii	"\252\345\337EZ\243\254\011\233\3036E\305[\303\026|8"
 482      5AA3AC09 
 482      9BC33645 
 482      C55BC316 
 482      7C38
 483 0673 6D6CC4A2 		.ascii	"ml\304\242\260hi\246oX\000\274X\025k\261\232\341wYl"
 483      B06869A6 
 483      6F5800BC 
 483      58156BB1 
 483      9AE17759 
 484 0688 D4FA1879 		.ascii	"\324\372\030yU\254\325\370zc\200'p\214\267\316\200\207"
 484      55ACD5F8 
 484      7A638027 
 484      708CB7CE 
 484      8087
 485 069a 2F2D9B85 		.ascii	"/-\233\205C\000{\035\267\211\276\215\224\255\360\346"
 485      43007B1D 
 485      B789BE8D 
 485      94ADF0E6 
 486 06aa 9BB80D72 		.ascii	"\233\270\015r0\007\207\035\307\366\247I-\\L9\177\210"
 486      3007871D 
 486      C7F6A749 
 486      2D5C4C39 
 486      7F88
 487 06bc B758E5D5 		.ascii	"\267X\345\325\362\3065Q1\011\314o\265\034\265A\331\277"
 487      F2C63551 
 487      3109CC6F 
 487      B51CB541 
 487      D9BF
 488 06ce 17BE65D9 		.ascii	"\027\276e\331\257\026k8\370X\242\243b\"\345h\253%.v"
 488      AF166B38 
 488      F858A2A3 
 488      6222E568 
 488      AB252E76 
 489 06e2 CEB49984 		.ascii	"\316\264\231\204o\371\332\262\036\316 \004\342b\255"
 489      6FF9DAB2 
 489      1ECE2004 
 489      E262AD
 490 06f1 72BC4FA0 		.ascii	"r\274O\240\011\340-\220\322\232\250x}\274\274q\211\037"
 490      09E02D90 
 490      D29AA878 
 490      7DBCBC71 
 490      891F
ARM GAS  C:\Users\Thomas\AppData\Local\Temp\cc6XWboc.s 			page 38


 491 0703 FC59B8F8 		.ascii	"\374Y\270\370?\342\214\037*"
 491      3FE28C1F 
 491      2A
 492              		.text
 493              		.section	.gnu.lto_.symtab.b949bf82,"",%progbits
 494 0000 50325F47 		.ascii	"P2_GetFIFOStatus\000\000\000\000\000\000\000\000\000"
 494      65744649 
 494      464F5374 
 494      61747573 
 494      00000000 
 495 0019 000000B5 		.ascii	"\000\000\000\265\000\000\000P2_Init\000\000\000\000"
 495      00000050 
 495      325F496E 
 495      69740000 
 495      0000
 496 002b 00000000 		.ascii	"\000\000\000\000\000\000\000\000\270\000\000\000P2_"
 496      00000000 
 496      B8000000 
 496      50325F
 497 003a 456E6162 		.ascii	"EnableInt\000\000\000\000\000\000\000\000\000\000\000"
 497      6C65496E 
 497      74000000 
 497      00000000 
 497      00000000 
 498 004e 00BA0000 		.ascii	"\000\272\000\000\000P2_Enable\000\000\000\000\000\000"
 498      0050325F 
 498      456E6162 
 498      6C650000 
 498      00000000 
 499 0062 00000000 		.ascii	"\000\000\000\000\000\000\274\000\000\000P2_Start\000"
 499      0000BC00 
 499      00005032 
 499      5F537461 
 499      727400
 500 0075 00000000 		.ascii	"\000\000\000\000\000\000\000\000\000\000\000\276\000"
 500      00000000 
 500      000000BE 
 500      00
 501 0082 00005032 		.ascii	"\000\000P2_initVar\000\000\000\000\000\000\000\000\000"
 501      5F696E69 
 501      74566172 
 501      00000000 
 501      00000000 
 502 0097 000000DE 		.ascii	"\000\000\000\336\000\000\000P2_DisableInt\000\000\000"
 502      00000050 
 502      325F4469 
 502      7361626C 
 502      65496E74 
 503 00ae 00000000 		.ascii	"\000\000\000\000\000\000\000\000\000\300\000\000\000"
 503      00000000 
 503      00C00000 
 503      00
 504 00bb 50325F53 		.ascii	"P2_Stop\000\000\000\000\000\000\000\000\000\000\000"
 504      746F7000 
 504      00000000 
 504      00000000 
 504      0000
ARM GAS  C:\Users\Thomas\AppData\Local\Temp\cc6XWboc.s 			page 39


 505 00cd 00C20000 		.ascii	"\000\302\000\000\000P2_SetIntMode\000\000\000\000\000"
 505      0050325F 
 505      53657449 
 505      6E744D6F 
 505      64650000 
 506 00e4 00000000 		.ascii	"\000\000\000\000\000\000\000\306\000\000\000P2_GetI"
 506      000000C6 
 506      00000050 
 506      325F4765 
 506      7449
 507 00f6 6E745374 		.ascii	"ntStatus\000\000\000\000\000\000\000\000\000\000\000"
 507      61747573 
 507      00000000 
 507      00000000 
 507      000000
 508 0109 00C90000 		.ascii	"\000\311\000\000\000P2_WriteRegValue\000\000\000\000"
 508      0050325F 
 508      57726974 
 508      65526567 
 508      56616C75 
 509 0122 00000000 		.ascii	"\000\000\000\000\000\000\000\000\324\000\000\000P2_"
 509      00000000 
 509      D4000000 
 509      50325F
 510 0131 52656164 		.ascii	"ReadRegValue\000\000\000\000\000\000\000\000\000\000"
 510      52656756 
 510      616C7565 
 510      00000000 
 510      00000000 
 511 0147 0000D700 		.ascii	"\000\000\327\000\000\000CyExitCriticalSection\000\000"
 511      00004379 
 511      45786974 
 511      43726974 
 511      6963616C 
 512 0164 02000000 		.ascii	"\002\000\000\000\000\000\000\000\000\000\331\000\000"
 512      00000000 
 512      0000D900 
 512      00
 513 0171 00437945 		.ascii	"\000CyEnterCriticalSection\000\000\002\000\000\000\000"
 513      6E746572 
 513      43726974 
 513      6963616C 
 513      53656374 
 514 018f 00000000 		.ascii	"\000\000\000\000\000\333\000\000\000"
 514      00DB0000 
 514      00
 515              		.text
 516              		.section	.gnu.lto_.opts,"",%progbits
 517 0000 272D666E 		.ascii	"'-fno-trapv' '-mcpu=cortex-m3' '-mthumb' '-g' '-O3'"
 517      6F2D7472 
 517      61707627 
 517      20272D6D 
 517      6370753D 
 518 0033 20272D66 		.ascii	" '-ffunction-sections' '-finline-functions' '-flto'"
 518      66756E63 
 518      74696F6E 
 518      2D736563 
ARM GAS  C:\Users\Thomas\AppData\Local\Temp\cc6XWboc.s 			page 40


 518      74696F6E 
 519 0066 20272D66 		.ascii	" '-ffat-lto-objects'\000"
 519      6661742D 
 519      6C746F2D 
 519      6F626A65 
 519      63747327 
 520              		.text
 521              		.cfi_sections	.debug_frame
 522              		.section	.text.P2_Start,"ax",%progbits
 523              		.align	2
 524              		.global	P2_Start
 525              		.thumb
 526              		.thumb_func
 527              		.type	P2_Start, %function
 528              	P2_Start:
 529              	.LFB0:
 530              		.file 1 ".\\Generated_Source\\PSoC5\\P2.c"
   1:.\Generated_Source\PSoC5/P2.c **** /*******************************************************************************
   2:.\Generated_Source\PSoC5/P2.c **** * File Name: P2.c
   3:.\Generated_Source\PSoC5/P2.c **** * Version 2.30
   4:.\Generated_Source\PSoC5/P2.c **** *
   5:.\Generated_Source\PSoC5/P2.c **** * Description:
   6:.\Generated_Source\PSoC5/P2.c **** *  This file provides the API source code for the Shift Register component.
   7:.\Generated_Source\PSoC5/P2.c **** *
   8:.\Generated_Source\PSoC5/P2.c **** * Note: none
   9:.\Generated_Source\PSoC5/P2.c **** *
  10:.\Generated_Source\PSoC5/P2.c **** ********************************************************************************
  11:.\Generated_Source\PSoC5/P2.c **** * Copyright 2008-2013, Cypress Semiconductor Corporation.  All rights reserved.
  12:.\Generated_Source\PSoC5/P2.c **** * You may use this file only in accordance with the license, terms, conditions,
  13:.\Generated_Source\PSoC5/P2.c **** * disclaimers, and limitations in the end user license agreement accompanying
  14:.\Generated_Source\PSoC5/P2.c **** * the software package with which this file was provided.
  15:.\Generated_Source\PSoC5/P2.c **** ********************************************************************************/
  16:.\Generated_Source\PSoC5/P2.c **** 
  17:.\Generated_Source\PSoC5/P2.c **** #include "P2.h"
  18:.\Generated_Source\PSoC5/P2.c **** 
  19:.\Generated_Source\PSoC5/P2.c **** uint8 P2_initVar = 0u;
  20:.\Generated_Source\PSoC5/P2.c **** 
  21:.\Generated_Source\PSoC5/P2.c **** 
  22:.\Generated_Source\PSoC5/P2.c **** /*******************************************************************************
  23:.\Generated_Source\PSoC5/P2.c **** * Function Name: P2_Start
  24:.\Generated_Source\PSoC5/P2.c **** ********************************************************************************
  25:.\Generated_Source\PSoC5/P2.c **** *
  26:.\Generated_Source\PSoC5/P2.c **** * Summary:
  27:.\Generated_Source\PSoC5/P2.c **** *  Starts the Shift Register.
  28:.\Generated_Source\PSoC5/P2.c **** *
  29:.\Generated_Source\PSoC5/P2.c **** * Parameters:
  30:.\Generated_Source\PSoC5/P2.c **** *  None.
  31:.\Generated_Source\PSoC5/P2.c **** *
  32:.\Generated_Source\PSoC5/P2.c **** * Return:
  33:.\Generated_Source\PSoC5/P2.c **** *  None.
  34:.\Generated_Source\PSoC5/P2.c **** *
  35:.\Generated_Source\PSoC5/P2.c **** * Global Variables:
  36:.\Generated_Source\PSoC5/P2.c **** *  P2_initVar - used to check initial configuration, modified on
  37:.\Generated_Source\PSoC5/P2.c **** *  first function call.
  38:.\Generated_Source\PSoC5/P2.c **** *
  39:.\Generated_Source\PSoC5/P2.c **** * Reentrant:
  40:.\Generated_Source\PSoC5/P2.c **** *  No.
ARM GAS  C:\Users\Thomas\AppData\Local\Temp\cc6XWboc.s 			page 41


  41:.\Generated_Source\PSoC5/P2.c **** *
  42:.\Generated_Source\PSoC5/P2.c **** *******************************************************************************/
  43:.\Generated_Source\PSoC5/P2.c **** void P2_Start(void) 
  44:.\Generated_Source\PSoC5/P2.c **** {
 531              		.loc 1 44 0
 532              		.cfi_startproc
 533              		@ args = 0, pretend = 0, frame = 0
 534              		@ frame_needed = 0, uses_anonymous_args = 0
 535 0000 08B5     		push	{r3, lr}
 536              		.cfi_def_cfa_offset 8
 537              		.cfi_offset 3, -8
 538              		.cfi_offset 14, -4
  45:.\Generated_Source\PSoC5/P2.c ****     if(0u == P2_initVar)
 539              		.loc 1 45 0
 540 0002 0E4A     		ldr	r2, .L5
 541 0004 1378     		ldrb	r3, [r2]	@ zero_extendqisi2
 542 0006 4BB9     		cbnz	r3, .L2
 543              	.LVL0:
 544              	.LBB19:
 545              	.LBB20:
 546              	.LBB21:
  46:.\Generated_Source\PSoC5/P2.c ****     {
  47:.\Generated_Source\PSoC5/P2.c ****         P2_Init();
  48:.\Generated_Source\PSoC5/P2.c ****         P2_initVar = 1u; /* Component initialized */
  49:.\Generated_Source\PSoC5/P2.c ****     }
  50:.\Generated_Source\PSoC5/P2.c **** 
  51:.\Generated_Source\PSoC5/P2.c ****     P2_Enable();
  52:.\Generated_Source\PSoC5/P2.c **** }
  53:.\Generated_Source\PSoC5/P2.c **** 
  54:.\Generated_Source\PSoC5/P2.c **** 
  55:.\Generated_Source\PSoC5/P2.c **** /*******************************************************************************
  56:.\Generated_Source\PSoC5/P2.c **** * Function Name: P2_Enable
  57:.\Generated_Source\PSoC5/P2.c **** ********************************************************************************
  58:.\Generated_Source\PSoC5/P2.c **** *
  59:.\Generated_Source\PSoC5/P2.c **** * Summary:
  60:.\Generated_Source\PSoC5/P2.c **** *  Enables the Shift Register.
  61:.\Generated_Source\PSoC5/P2.c **** *
  62:.\Generated_Source\PSoC5/P2.c **** * Parameters:
  63:.\Generated_Source\PSoC5/P2.c **** *  void.
  64:.\Generated_Source\PSoC5/P2.c **** *
  65:.\Generated_Source\PSoC5/P2.c **** * Return:
  66:.\Generated_Source\PSoC5/P2.c **** *  void.
  67:.\Generated_Source\PSoC5/P2.c **** *
  68:.\Generated_Source\PSoC5/P2.c **** *******************************************************************************/
  69:.\Generated_Source\PSoC5/P2.c **** void P2_Enable(void) 
  70:.\Generated_Source\PSoC5/P2.c **** {
  71:.\Generated_Source\PSoC5/P2.c ****     /* Changing address in Datapath Control Store
  72:.\Generated_Source\PSoC5/P2.c ****        from NOP to component state machine commands space */
  73:.\Generated_Source\PSoC5/P2.c ****     P2_SR_CONTROL |= P2_CLK_EN;
  74:.\Generated_Source\PSoC5/P2.c **** 
  75:.\Generated_Source\PSoC5/P2.c ****     P2_EnableInt();
  76:.\Generated_Source\PSoC5/P2.c **** }
  77:.\Generated_Source\PSoC5/P2.c **** 
  78:.\Generated_Source\PSoC5/P2.c **** 
  79:.\Generated_Source\PSoC5/P2.c **** /*******************************************************************************
  80:.\Generated_Source\PSoC5/P2.c **** * Function Name: P2_Init
  81:.\Generated_Source\PSoC5/P2.c **** ********************************************************************************
ARM GAS  C:\Users\Thomas\AppData\Local\Temp\cc6XWboc.s 			page 42


  82:.\Generated_Source\PSoC5/P2.c **** *
  83:.\Generated_Source\PSoC5/P2.c **** * Summary:
  84:.\Generated_Source\PSoC5/P2.c **** *  Initializes Tx and/or Rx interrupt sources with initial values.
  85:.\Generated_Source\PSoC5/P2.c **** *
  86:.\Generated_Source\PSoC5/P2.c **** * Parameters:
  87:.\Generated_Source\PSoC5/P2.c **** *  void.
  88:.\Generated_Source\PSoC5/P2.c **** *
  89:.\Generated_Source\PSoC5/P2.c **** * Return:
  90:.\Generated_Source\PSoC5/P2.c **** *  void.
  91:.\Generated_Source\PSoC5/P2.c **** *
  92:.\Generated_Source\PSoC5/P2.c **** *******************************************************************************/
  93:.\Generated_Source\PSoC5/P2.c **** void P2_Init(void) 
  94:.\Generated_Source\PSoC5/P2.c **** {
  95:.\Generated_Source\PSoC5/P2.c ****     P2_SetIntMode(P2_INT_SRC);
  96:.\Generated_Source\PSoC5/P2.c **** }
  97:.\Generated_Source\PSoC5/P2.c **** 
  98:.\Generated_Source\PSoC5/P2.c **** 
  99:.\Generated_Source\PSoC5/P2.c **** /*******************************************************************************
 100:.\Generated_Source\PSoC5/P2.c **** * Function Name: P2_Stop
 101:.\Generated_Source\PSoC5/P2.c **** ********************************************************************************
 102:.\Generated_Source\PSoC5/P2.c **** *
 103:.\Generated_Source\PSoC5/P2.c **** * Summary:
 104:.\Generated_Source\PSoC5/P2.c **** *  Disables the Shift Register
 105:.\Generated_Source\PSoC5/P2.c **** *
 106:.\Generated_Source\PSoC5/P2.c **** * Parameters:
 107:.\Generated_Source\PSoC5/P2.c **** *  None.
 108:.\Generated_Source\PSoC5/P2.c **** *
 109:.\Generated_Source\PSoC5/P2.c **** * Return:
 110:.\Generated_Source\PSoC5/P2.c **** *  None.
 111:.\Generated_Source\PSoC5/P2.c **** *
 112:.\Generated_Source\PSoC5/P2.c **** *******************************************************************************/
 113:.\Generated_Source\PSoC5/P2.c **** void P2_Stop(void) 
 114:.\Generated_Source\PSoC5/P2.c **** {
 115:.\Generated_Source\PSoC5/P2.c ****     /*changing Datapath Control Store address to NOP space*/
 116:.\Generated_Source\PSoC5/P2.c ****     P2_SR_CONTROL &= ((uint8) ~P2_CLK_EN);
 117:.\Generated_Source\PSoC5/P2.c ****     P2_DisableInt();
 118:.\Generated_Source\PSoC5/P2.c **** }
 119:.\Generated_Source\PSoC5/P2.c **** 
 120:.\Generated_Source\PSoC5/P2.c **** 
 121:.\Generated_Source\PSoC5/P2.c **** /*******************************************************************************
 122:.\Generated_Source\PSoC5/P2.c **** * Function Name: P2_EnableInt
 123:.\Generated_Source\PSoC5/P2.c **** ********************************************************************************
 124:.\Generated_Source\PSoC5/P2.c **** *
 125:.\Generated_Source\PSoC5/P2.c **** * Summary:
 126:.\Generated_Source\PSoC5/P2.c **** *  Enables the Shift Register interrupt.
 127:.\Generated_Source\PSoC5/P2.c **** *
 128:.\Generated_Source\PSoC5/P2.c **** * Parameters:
 129:.\Generated_Source\PSoC5/P2.c **** *  None.
 130:.\Generated_Source\PSoC5/P2.c **** *
 131:.\Generated_Source\PSoC5/P2.c **** * Return:
 132:.\Generated_Source\PSoC5/P2.c **** *  None.
 133:.\Generated_Source\PSoC5/P2.c **** *
 134:.\Generated_Source\PSoC5/P2.c **** *******************************************************************************/
 135:.\Generated_Source\PSoC5/P2.c **** void P2_EnableInt(void) 
 136:.\Generated_Source\PSoC5/P2.c **** {
 137:.\Generated_Source\PSoC5/P2.c ****     uint8 interruptState;
 138:.\Generated_Source\PSoC5/P2.c **** 
ARM GAS  C:\Users\Thomas\AppData\Local\Temp\cc6XWboc.s 			page 43


 139:.\Generated_Source\PSoC5/P2.c ****     interruptState = CyEnterCriticalSection();
 140:.\Generated_Source\PSoC5/P2.c ****     P2_SR_AUX_CONTROL |= P2_INTERRUPTS_ENABLE;
 141:.\Generated_Source\PSoC5/P2.c ****     CyExitCriticalSection(interruptState);
 142:.\Generated_Source\PSoC5/P2.c **** }
 143:.\Generated_Source\PSoC5/P2.c **** 
 144:.\Generated_Source\PSoC5/P2.c **** 
 145:.\Generated_Source\PSoC5/P2.c **** /*******************************************************************************
 146:.\Generated_Source\PSoC5/P2.c **** * Function Name: P2_DisableInt
 147:.\Generated_Source\PSoC5/P2.c **** ********************************************************************************
 148:.\Generated_Source\PSoC5/P2.c **** *
 149:.\Generated_Source\PSoC5/P2.c **** * Summary:
 150:.\Generated_Source\PSoC5/P2.c **** *  Disables the Shift Register interrupt.
 151:.\Generated_Source\PSoC5/P2.c **** *
 152:.\Generated_Source\PSoC5/P2.c **** * Parameters:
 153:.\Generated_Source\PSoC5/P2.c **** *  None.
 154:.\Generated_Source\PSoC5/P2.c **** *
 155:.\Generated_Source\PSoC5/P2.c **** * Return:
 156:.\Generated_Source\PSoC5/P2.c **** *  None.
 157:.\Generated_Source\PSoC5/P2.c **** *
 158:.\Generated_Source\PSoC5/P2.c **** *******************************************************************************/
 159:.\Generated_Source\PSoC5/P2.c **** void P2_DisableInt(void) 
 160:.\Generated_Source\PSoC5/P2.c **** {
 161:.\Generated_Source\PSoC5/P2.c ****     uint8 interruptState;
 162:.\Generated_Source\PSoC5/P2.c **** 
 163:.\Generated_Source\PSoC5/P2.c ****     interruptState = CyEnterCriticalSection();
 164:.\Generated_Source\PSoC5/P2.c ****     P2_SR_AUX_CONTROL &= ((uint8) ~P2_INTERRUPTS_ENABLE);
 165:.\Generated_Source\PSoC5/P2.c ****     CyExitCriticalSection(interruptState);
 166:.\Generated_Source\PSoC5/P2.c **** }
 167:.\Generated_Source\PSoC5/P2.c **** 
 168:.\Generated_Source\PSoC5/P2.c **** 
 169:.\Generated_Source\PSoC5/P2.c **** /*******************************************************************************
 170:.\Generated_Source\PSoC5/P2.c **** * Function Name: P2_GetFIFOStatus
 171:.\Generated_Source\PSoC5/P2.c **** ********************************************************************************
 172:.\Generated_Source\PSoC5/P2.c **** *
 173:.\Generated_Source\PSoC5/P2.c **** * Summary:
 174:.\Generated_Source\PSoC5/P2.c **** *  Returns current status of input or output FIFO.
 175:.\Generated_Source\PSoC5/P2.c **** *
 176:.\Generated_Source\PSoC5/P2.c **** * Parameters:
 177:.\Generated_Source\PSoC5/P2.c **** *  fifoId.
 178:.\Generated_Source\PSoC5/P2.c **** *
 179:.\Generated_Source\PSoC5/P2.c **** * Return:
 180:.\Generated_Source\PSoC5/P2.c **** *  FIFO status.
 181:.\Generated_Source\PSoC5/P2.c **** *
 182:.\Generated_Source\PSoC5/P2.c **** *******************************************************************************/
 183:.\Generated_Source\PSoC5/P2.c **** uint8 P2_GetFIFOStatus(uint8 fifoId) 
 184:.\Generated_Source\PSoC5/P2.c **** {
 185:.\Generated_Source\PSoC5/P2.c ****     uint8 result;
 186:.\Generated_Source\PSoC5/P2.c **** 
 187:.\Generated_Source\PSoC5/P2.c ****     result = P2_RET_FIFO_NOT_DEFINED;
 188:.\Generated_Source\PSoC5/P2.c **** 
 189:.\Generated_Source\PSoC5/P2.c ****     #if(0u != P2_USE_INPUT_FIFO)
 190:.\Generated_Source\PSoC5/P2.c ****         if(P2_IN_FIFO == fifoId)
 191:.\Generated_Source\PSoC5/P2.c ****         {
 192:.\Generated_Source\PSoC5/P2.c ****             switch(P2_GET_IN_FIFO_STS)
 193:.\Generated_Source\PSoC5/P2.c ****             {
 194:.\Generated_Source\PSoC5/P2.c ****                 case P2_IN_FIFO_FULL :
 195:.\Generated_Source\PSoC5/P2.c ****                     result = P2_RET_FIFO_FULL;
ARM GAS  C:\Users\Thomas\AppData\Local\Temp\cc6XWboc.s 			page 44


 196:.\Generated_Source\PSoC5/P2.c ****                     break;
 197:.\Generated_Source\PSoC5/P2.c **** 
 198:.\Generated_Source\PSoC5/P2.c ****                 case P2_IN_FIFO_EMPTY :
 199:.\Generated_Source\PSoC5/P2.c ****                     result = P2_RET_FIFO_EMPTY;
 200:.\Generated_Source\PSoC5/P2.c ****                     break;
 201:.\Generated_Source\PSoC5/P2.c **** 
 202:.\Generated_Source\PSoC5/P2.c ****                 case P2_IN_FIFO_PARTIAL:
 203:.\Generated_Source\PSoC5/P2.c ****                     result = P2_RET_FIFO_PARTIAL;
 204:.\Generated_Source\PSoC5/P2.c ****                     break;
 205:.\Generated_Source\PSoC5/P2.c ****                     
 206:.\Generated_Source\PSoC5/P2.c ****                 default:
 207:.\Generated_Source\PSoC5/P2.c ****                     /* Initial result value, while 
 208:.\Generated_Source\PSoC5/P2.c ****                        IN_FIFO_EMPTY case is false 
 209:.\Generated_Source\PSoC5/P2.c ****                      */
 210:.\Generated_Source\PSoC5/P2.c ****                     result = P2_RET_FIFO_EMPTY;
 211:.\Generated_Source\PSoC5/P2.c ****                     break;
 212:.\Generated_Source\PSoC5/P2.c ****             }   
 213:.\Generated_Source\PSoC5/P2.c ****         }
 214:.\Generated_Source\PSoC5/P2.c ****     #endif /* (0u != P2_USE_INPUT_FIFO) */
 215:.\Generated_Source\PSoC5/P2.c **** 
 216:.\Generated_Source\PSoC5/P2.c ****     if(P2_OUT_FIFO == fifoId)
 217:.\Generated_Source\PSoC5/P2.c ****     {
 218:.\Generated_Source\PSoC5/P2.c ****         switch(P2_GET_OUT_FIFO_STS)
 219:.\Generated_Source\PSoC5/P2.c ****         {
 220:.\Generated_Source\PSoC5/P2.c ****             case P2_OUT_FIFO_FULL :
 221:.\Generated_Source\PSoC5/P2.c ****                 result = P2_RET_FIFO_FULL;
 222:.\Generated_Source\PSoC5/P2.c ****                 break;
 223:.\Generated_Source\PSoC5/P2.c **** 
 224:.\Generated_Source\PSoC5/P2.c ****             case P2_OUT_FIFO_EMPTY :
 225:.\Generated_Source\PSoC5/P2.c ****                 result = P2_RET_FIFO_EMPTY;
 226:.\Generated_Source\PSoC5/P2.c ****                 break;
 227:.\Generated_Source\PSoC5/P2.c **** 
 228:.\Generated_Source\PSoC5/P2.c ****             case P2_OUT_FIFO_PARTIAL :
 229:.\Generated_Source\PSoC5/P2.c ****                 result = P2_RET_FIFO_PARTIAL;
 230:.\Generated_Source\PSoC5/P2.c ****                 break;
 231:.\Generated_Source\PSoC5/P2.c **** 
 232:.\Generated_Source\PSoC5/P2.c ****             default:
 233:.\Generated_Source\PSoC5/P2.c ****                 /* Initial result value, while 
 234:.\Generated_Source\PSoC5/P2.c ****                    OUT_FIFO_FULL case is false 
 235:.\Generated_Source\PSoC5/P2.c ****                  */
 236:.\Generated_Source\PSoC5/P2.c ****                 result = P2_RET_FIFO_FULL;
 237:.\Generated_Source\PSoC5/P2.c ****                 break;
 238:.\Generated_Source\PSoC5/P2.c ****         }
 239:.\Generated_Source\PSoC5/P2.c ****     }
 240:.\Generated_Source\PSoC5/P2.c **** 
 241:.\Generated_Source\PSoC5/P2.c ****     return(result);
 242:.\Generated_Source\PSoC5/P2.c **** }
 243:.\Generated_Source\PSoC5/P2.c **** 
 244:.\Generated_Source\PSoC5/P2.c **** 
 245:.\Generated_Source\PSoC5/P2.c **** /*******************************************************************************
 246:.\Generated_Source\PSoC5/P2.c **** * Function Name: P2_SetIntMode
 247:.\Generated_Source\PSoC5/P2.c **** ********************************************************************************
 248:.\Generated_Source\PSoC5/P2.c **** *
 249:.\Generated_Source\PSoC5/P2.c **** * Summary:
 250:.\Generated_Source\PSoC5/P2.c **** *  Sets the Interrupt Source for the Shift Register interrupt. Multiple
 251:.\Generated_Source\PSoC5/P2.c **** *  sources may be ORed together
 252:.\Generated_Source\PSoC5/P2.c **** *
ARM GAS  C:\Users\Thomas\AppData\Local\Temp\cc6XWboc.s 			page 45


 253:.\Generated_Source\PSoC5/P2.c **** * Parameters:
 254:.\Generated_Source\PSoC5/P2.c **** *  interruptSource: Byte containing the constant for the selected interrupt
 255:.\Generated_Source\PSoC5/P2.c **** *  source/s.
 256:.\Generated_Source\PSoC5/P2.c **** *
 257:.\Generated_Source\PSoC5/P2.c **** * Return:
 258:.\Generated_Source\PSoC5/P2.c **** *  None.
 259:.\Generated_Source\PSoC5/P2.c **** *
 260:.\Generated_Source\PSoC5/P2.c **** *******************************************************************************/
 261:.\Generated_Source\PSoC5/P2.c **** void P2_SetIntMode(uint8 interruptSource) 
 262:.\Generated_Source\PSoC5/P2.c **** {
 263:.\Generated_Source\PSoC5/P2.c ****     P2_SR_STATUS_MASK &= ((uint8) ~P2_INTS_EN_MASK);          /* Clear existing int */
 547              		.loc 1 263 0
 548 0008 0D4B     		ldr	r3, .L5+4
 549              	.LBE21:
 550              	.LBE20:
 551              	.LBE19:
  48:.\Generated_Source\PSoC5/P2.c ****     }
 552              		.loc 1 48 0
 553 000a 0120     		movs	r0, #1
 554              	.LBB24:
 555              	.LBB23:
 556              	.LBB22:
 557              		.loc 1 263 0
 558 000c 1978     		ldrb	r1, [r3]	@ zero_extendqisi2
 559 000e 01F0F801 		and	r1, r1, #248
 560 0012 1970     		strb	r1, [r3]
 264:.\Generated_Source\PSoC5/P2.c ****     P2_SR_STATUS_MASK |= (interruptSource & P2_INTS_EN_MASK); /* Set int */
 561              		.loc 1 264 0
 562 0014 1978     		ldrb	r1, [r3]	@ zero_extendqisi2
 563 0016 0143     		orrs	r1, r1, r0
 564 0018 1970     		strb	r1, [r3]
 565              	.LBE22:
 566              	.LBE23:
 567              	.LBE24:
  48:.\Generated_Source\PSoC5/P2.c ****     }
 568              		.loc 1 48 0
 569 001a 1070     		strb	r0, [r2]
 570              	.LVL1:
 571              	.L2:
 572              	.LBB25:
 573              	.LBB26:
  73:.\Generated_Source\PSoC5/P2.c **** 
 574              		.loc 1 73 0
 575 001c 094A     		ldr	r2, .L5+8
 576 001e 1378     		ldrb	r3, [r2]	@ zero_extendqisi2
 577 0020 43F00103 		orr	r3, r3, #1
 578 0024 1370     		strb	r3, [r2]
 579              	.LBB27:
 580              	.LBB28:
 139:.\Generated_Source\PSoC5/P2.c ****     P2_SR_AUX_CONTROL |= P2_INTERRUPTS_ENABLE;
 581              		.loc 1 139 0
 582 0026 FFF7FEFF 		bl	CyEnterCriticalSection
 583              	.LVL2:
 140:.\Generated_Source\PSoC5/P2.c ****     CyExitCriticalSection(interruptState);
 584              		.loc 1 140 0
 585 002a 074A     		ldr	r2, .L5+12
 586 002c 1378     		ldrb	r3, [r2]	@ zero_extendqisi2
ARM GAS  C:\Users\Thomas\AppData\Local\Temp\cc6XWboc.s 			page 46


 587 002e 43F01003 		orr	r3, r3, #16
 588 0032 1370     		strb	r3, [r2]
 589              	.LBE28:
 590              	.LBE27:
 591              	.LBE26:
 592              	.LBE25:
  52:.\Generated_Source\PSoC5/P2.c **** 
 593              		.loc 1 52 0
 594 0034 BDE80840 		pop	{r3, lr}
 595              		.cfi_restore 14
 596              		.cfi_restore 3
 597              		.cfi_def_cfa_offset 0
 598              	.LBB32:
 599              	.LBB31:
 600              	.LBB30:
 601              	.LBB29:
 141:.\Generated_Source\PSoC5/P2.c **** }
 602              		.loc 1 141 0
 603 0038 FFF7FEBF 		b	CyExitCriticalSection
 604              	.LVL3:
 605              	.L6:
 606              		.align	2
 607              	.L5:
 608 003c 00000000 		.word	.LANCHOR0
 609 0040 87650040 		.word	1073767815
 610 0044 77650040 		.word	1073767799
 611 0048 97650040 		.word	1073767831
 612              	.LBE29:
 613              	.LBE30:
 614              	.LBE31:
 615              	.LBE32:
 616              		.cfi_endproc
 617              	.LFE0:
 618              		.size	P2_Start, .-P2_Start
 619              		.section	.text.P2_Enable,"ax",%progbits
 620              		.align	2
 621              		.global	P2_Enable
 622              		.thumb
 623              		.thumb_func
 624              		.type	P2_Enable, %function
 625              	P2_Enable:
 626              	.LFB1:
  70:.\Generated_Source\PSoC5/P2.c ****     /* Changing address in Datapath Control Store
 627              		.loc 1 70 0
 628              		.cfi_startproc
 629              		@ args = 0, pretend = 0, frame = 0
 630              		@ frame_needed = 0, uses_anonymous_args = 0
 631 0000 08B5     		push	{r3, lr}
 632              		.cfi_def_cfa_offset 8
 633              		.cfi_offset 3, -8
 634              		.cfi_offset 14, -4
  73:.\Generated_Source\PSoC5/P2.c **** 
 635              		.loc 1 73 0
 636 0002 084A     		ldr	r2, .L9
 637 0004 1378     		ldrb	r3, [r2]	@ zero_extendqisi2
 638 0006 43F00103 		orr	r3, r3, #1
 639 000a 1370     		strb	r3, [r2]
ARM GAS  C:\Users\Thomas\AppData\Local\Temp\cc6XWboc.s 			page 47


 640              	.LBB35:
 641              	.LBB36:
 139:.\Generated_Source\PSoC5/P2.c ****     P2_SR_AUX_CONTROL |= P2_INTERRUPTS_ENABLE;
 642              		.loc 1 139 0
 643 000c FFF7FEFF 		bl	CyEnterCriticalSection
 644              	.LVL4:
 140:.\Generated_Source\PSoC5/P2.c ****     CyExitCriticalSection(interruptState);
 645              		.loc 1 140 0
 646 0010 054A     		ldr	r2, .L9+4
 647 0012 1378     		ldrb	r3, [r2]	@ zero_extendqisi2
 648 0014 43F01003 		orr	r3, r3, #16
 649 0018 1370     		strb	r3, [r2]
 650              	.LBE36:
 651              	.LBE35:
  76:.\Generated_Source\PSoC5/P2.c **** 
 652              		.loc 1 76 0
 653 001a BDE80840 		pop	{r3, lr}
 654              		.cfi_restore 14
 655              		.cfi_restore 3
 656              		.cfi_def_cfa_offset 0
 657              	.LBB38:
 658              	.LBB37:
 141:.\Generated_Source\PSoC5/P2.c **** }
 659              		.loc 1 141 0
 660 001e FFF7FEBF 		b	CyExitCriticalSection
 661              	.LVL5:
 662              	.L10:
 663 0022 00BF     		.align	2
 664              	.L9:
 665 0024 77650040 		.word	1073767799
 666 0028 97650040 		.word	1073767831
 667              	.LBE37:
 668              	.LBE38:
 669              		.cfi_endproc
 670              	.LFE1:
 671              		.size	P2_Enable, .-P2_Enable
 672              		.section	.text.P2_Init,"ax",%progbits
 673              		.align	2
 674              		.global	P2_Init
 675              		.thumb
 676              		.thumb_func
 677              		.type	P2_Init, %function
 678              	P2_Init:
 679              	.LFB2:
  94:.\Generated_Source\PSoC5/P2.c ****     P2_SetIntMode(P2_INT_SRC);
 680              		.loc 1 94 0
 681              		.cfi_startproc
 682              		@ args = 0, pretend = 0, frame = 0
 683              		@ frame_needed = 0, uses_anonymous_args = 0
 684              		@ link register save eliminated.
 685              	.LVL6:
 686              	.LBB39:
 687              	.LBB40:
 263:.\Generated_Source\PSoC5/P2.c ****     P2_SR_STATUS_MASK |= (interruptSource & P2_INTS_EN_MASK); /* Set int */
 688              		.loc 1 263 0
 689 0000 044B     		ldr	r3, .L12
 690 0002 1A78     		ldrb	r2, [r3]	@ zero_extendqisi2
ARM GAS  C:\Users\Thomas\AppData\Local\Temp\cc6XWboc.s 			page 48


 691 0004 02F0F802 		and	r2, r2, #248
 692 0008 1A70     		strb	r2, [r3]
 693              		.loc 1 264 0
 694 000a 1A78     		ldrb	r2, [r3]	@ zero_extendqisi2
 695 000c 42F00102 		orr	r2, r2, #1
 696 0010 1A70     		strb	r2, [r3]
 697 0012 7047     		bx	lr
 698              	.L13:
 699              		.align	2
 700              	.L12:
 701 0014 87650040 		.word	1073767815
 702              	.LBE40:
 703              	.LBE39:
 704              		.cfi_endproc
 705              	.LFE2:
 706              		.size	P2_Init, .-P2_Init
 707              		.section	.text.P2_Stop,"ax",%progbits
 708              		.align	2
 709              		.global	P2_Stop
 710              		.thumb
 711              		.thumb_func
 712              		.type	P2_Stop, %function
 713              	P2_Stop:
 714              	.LFB3:
 114:.\Generated_Source\PSoC5/P2.c ****     /*changing Datapath Control Store address to NOP space*/
 715              		.loc 1 114 0
 716              		.cfi_startproc
 717              		@ args = 0, pretend = 0, frame = 0
 718              		@ frame_needed = 0, uses_anonymous_args = 0
 719 0000 08B5     		push	{r3, lr}
 720              		.cfi_def_cfa_offset 8
 721              		.cfi_offset 3, -8
 722              		.cfi_offset 14, -4
 116:.\Generated_Source\PSoC5/P2.c ****     P2_DisableInt();
 723              		.loc 1 116 0
 724 0002 084A     		ldr	r2, .L16
 725 0004 1378     		ldrb	r3, [r2]	@ zero_extendqisi2
 726 0006 03F0FE03 		and	r3, r3, #254
 727 000a 1370     		strb	r3, [r2]
 728              	.LBB43:
 729              	.LBB44:
 163:.\Generated_Source\PSoC5/P2.c ****     P2_SR_AUX_CONTROL &= ((uint8) ~P2_INTERRUPTS_ENABLE);
 730              		.loc 1 163 0
 731 000c FFF7FEFF 		bl	CyEnterCriticalSection
 732              	.LVL7:
 164:.\Generated_Source\PSoC5/P2.c ****     CyExitCriticalSection(interruptState);
 733              		.loc 1 164 0
 734 0010 054A     		ldr	r2, .L16+4
 735 0012 1378     		ldrb	r3, [r2]	@ zero_extendqisi2
 736 0014 03F0EF03 		and	r3, r3, #239
 737 0018 1370     		strb	r3, [r2]
 738              	.LBE44:
 739              	.LBE43:
 118:.\Generated_Source\PSoC5/P2.c **** 
 740              		.loc 1 118 0
 741 001a BDE80840 		pop	{r3, lr}
 742              		.cfi_restore 14
ARM GAS  C:\Users\Thomas\AppData\Local\Temp\cc6XWboc.s 			page 49


 743              		.cfi_restore 3
 744              		.cfi_def_cfa_offset 0
 745              	.LBB46:
 746              	.LBB45:
 165:.\Generated_Source\PSoC5/P2.c **** }
 747              		.loc 1 165 0
 748 001e FFF7FEBF 		b	CyExitCriticalSection
 749              	.LVL8:
 750              	.L17:
 751 0022 00BF     		.align	2
 752              	.L16:
 753 0024 77650040 		.word	1073767799
 754 0028 97650040 		.word	1073767831
 755              	.LBE45:
 756              	.LBE46:
 757              		.cfi_endproc
 758              	.LFE3:
 759              		.size	P2_Stop, .-P2_Stop
 760              		.section	.text.P2_EnableInt,"ax",%progbits
 761              		.align	2
 762              		.global	P2_EnableInt
 763              		.thumb
 764              		.thumb_func
 765              		.type	P2_EnableInt, %function
 766              	P2_EnableInt:
 767              	.LFB4:
 136:.\Generated_Source\PSoC5/P2.c ****     uint8 interruptState;
 768              		.loc 1 136 0
 769              		.cfi_startproc
 770              		@ args = 0, pretend = 0, frame = 0
 771              		@ frame_needed = 0, uses_anonymous_args = 0
 772 0000 08B5     		push	{r3, lr}
 773              		.cfi_def_cfa_offset 8
 774              		.cfi_offset 3, -8
 775              		.cfi_offset 14, -4
 139:.\Generated_Source\PSoC5/P2.c ****     P2_SR_AUX_CONTROL |= P2_INTERRUPTS_ENABLE;
 776              		.loc 1 139 0
 777 0002 FFF7FEFF 		bl	CyEnterCriticalSection
 778              	.LVL9:
 140:.\Generated_Source\PSoC5/P2.c ****     CyExitCriticalSection(interruptState);
 779              		.loc 1 140 0
 780 0006 044A     		ldr	r2, .L20
 781 0008 1378     		ldrb	r3, [r2]	@ zero_extendqisi2
 782 000a 43F01003 		orr	r3, r3, #16
 783 000e 1370     		strb	r3, [r2]
 142:.\Generated_Source\PSoC5/P2.c **** 
 784              		.loc 1 142 0
 785 0010 BDE80840 		pop	{r3, lr}
 786              		.cfi_restore 14
 787              		.cfi_restore 3
 788              		.cfi_def_cfa_offset 0
 141:.\Generated_Source\PSoC5/P2.c **** }
 789              		.loc 1 141 0
 790 0014 FFF7FEBF 		b	CyExitCriticalSection
 791              	.LVL10:
 792              	.L21:
 793              		.align	2
ARM GAS  C:\Users\Thomas\AppData\Local\Temp\cc6XWboc.s 			page 50


 794              	.L20:
 795 0018 97650040 		.word	1073767831
 796              		.cfi_endproc
 797              	.LFE4:
 798              		.size	P2_EnableInt, .-P2_EnableInt
 799              		.section	.text.P2_DisableInt,"ax",%progbits
 800              		.align	2
 801              		.global	P2_DisableInt
 802              		.thumb
 803              		.thumb_func
 804              		.type	P2_DisableInt, %function
 805              	P2_DisableInt:
 806              	.LFB5:
 160:.\Generated_Source\PSoC5/P2.c ****     uint8 interruptState;
 807              		.loc 1 160 0
 808              		.cfi_startproc
 809              		@ args = 0, pretend = 0, frame = 0
 810              		@ frame_needed = 0, uses_anonymous_args = 0
 811 0000 08B5     		push	{r3, lr}
 812              		.cfi_def_cfa_offset 8
 813              		.cfi_offset 3, -8
 814              		.cfi_offset 14, -4
 163:.\Generated_Source\PSoC5/P2.c ****     P2_SR_AUX_CONTROL &= ((uint8) ~P2_INTERRUPTS_ENABLE);
 815              		.loc 1 163 0
 816 0002 FFF7FEFF 		bl	CyEnterCriticalSection
 817              	.LVL11:
 164:.\Generated_Source\PSoC5/P2.c ****     CyExitCriticalSection(interruptState);
 818              		.loc 1 164 0
 819 0006 044A     		ldr	r2, .L24
 820 0008 1378     		ldrb	r3, [r2]	@ zero_extendqisi2
 821 000a 03F0EF03 		and	r3, r3, #239
 822 000e 1370     		strb	r3, [r2]
 166:.\Generated_Source\PSoC5/P2.c **** 
 823              		.loc 1 166 0
 824 0010 BDE80840 		pop	{r3, lr}
 825              		.cfi_restore 14
 826              		.cfi_restore 3
 827              		.cfi_def_cfa_offset 0
 165:.\Generated_Source\PSoC5/P2.c **** }
 828              		.loc 1 165 0
 829 0014 FFF7FEBF 		b	CyExitCriticalSection
 830              	.LVL12:
 831              	.L25:
 832              		.align	2
 833              	.L24:
 834 0018 97650040 		.word	1073767831
 835              		.cfi_endproc
 836              	.LFE5:
 837              		.size	P2_DisableInt, .-P2_DisableInt
 838              		.section	.text.P2_GetFIFOStatus,"ax",%progbits
 839              		.align	2
 840              		.global	P2_GetFIFOStatus
 841              		.thumb
 842              		.thumb_func
 843              		.type	P2_GetFIFOStatus, %function
 844              	P2_GetFIFOStatus:
 845              	.LFB6:
ARM GAS  C:\Users\Thomas\AppData\Local\Temp\cc6XWboc.s 			page 51


 184:.\Generated_Source\PSoC5/P2.c ****     uint8 result;
 846              		.loc 1 184 0
 847              		.cfi_startproc
 848              		@ args = 0, pretend = 0, frame = 0
 849              		@ frame_needed = 0, uses_anonymous_args = 0
 850              		@ link register save eliminated.
 851              	.LVL13:
 216:.\Generated_Source\PSoC5/P2.c ****     {
 852              		.loc 1 216 0
 853 0000 0228     		cmp	r0, #2
 854 0002 01D0     		beq	.L32
 187:.\Generated_Source\PSoC5/P2.c **** 
 855              		.loc 1 187 0
 856 0004 FE20     		movs	r0, #254
 857              	.LVL14:
 858              	.L27:
 242:.\Generated_Source\PSoC5/P2.c **** 
 859              		.loc 1 242 0
 860 0006 7047     		bx	lr
 861              	.LVL15:
 862              	.L32:
 863              	.LBB49:
 864              	.LBB50:
 218:.\Generated_Source\PSoC5/P2.c ****         {
 865              		.loc 1 218 0
 866 0008 054B     		ldr	r3, .L33
 867 000a 1B78     		ldrb	r3, [r3]	@ zero_extendqisi2
 868 000c C3F34113 		ubfx	r3, r3, #5, #2
 869 0010 002B     		cmp	r3, #0
 870 0012 F8D0     		beq	.L27
 221:.\Generated_Source\PSoC5/P2.c ****                 break;
 871              		.loc 1 221 0
 872 0014 A3F10200 		sub	r0, r3, #2
 873              	.LVL16:
 874 0018 B0FA80F0 		clz	r0, r0
 875 001c 4009     		lsrs	r0, r0, #5
 876 001e 7047     		bx	lr
 877              	.L34:
 878              		.align	2
 879              	.L33:
 880 0020 67650040 		.word	1073767783
 881              	.LBE50:
 882              	.LBE49:
 883              		.cfi_endproc
 884              	.LFE6:
 885              		.size	P2_GetFIFOStatus, .-P2_GetFIFOStatus
 886              		.section	.text.P2_SetIntMode,"ax",%progbits
 887              		.align	2
 888              		.global	P2_SetIntMode
 889              		.thumb
 890              		.thumb_func
 891              		.type	P2_SetIntMode, %function
 892              	P2_SetIntMode:
 893              	.LFB7:
 262:.\Generated_Source\PSoC5/P2.c ****     P2_SR_STATUS_MASK &= ((uint8) ~P2_INTS_EN_MASK);          /* Clear existing int */
 894              		.loc 1 262 0
 895              		.cfi_startproc
ARM GAS  C:\Users\Thomas\AppData\Local\Temp\cc6XWboc.s 			page 52


 896              		@ args = 0, pretend = 0, frame = 0
 897              		@ frame_needed = 0, uses_anonymous_args = 0
 898              		@ link register save eliminated.
 899              	.LVL17:
 263:.\Generated_Source\PSoC5/P2.c ****     P2_SR_STATUS_MASK |= (interruptSource & P2_INTS_EN_MASK); /* Set int */
 900              		.loc 1 263 0
 901 0000 054B     		ldr	r3, .L36
 902              		.loc 1 264 0
 903 0002 00F00700 		and	r0, r0, #7
 904              	.LVL18:
 263:.\Generated_Source\PSoC5/P2.c ****     P2_SR_STATUS_MASK |= (interruptSource & P2_INTS_EN_MASK); /* Set int */
 905              		.loc 1 263 0
 906 0006 1A78     		ldrb	r2, [r3]	@ zero_extendqisi2
 907 0008 02F0F802 		and	r2, r2, #248
 908 000c 1A70     		strb	r2, [r3]
 909              		.loc 1 264 0
 910 000e 1A78     		ldrb	r2, [r3]	@ zero_extendqisi2
 911 0010 1043     		orrs	r0, r0, r2
 912 0012 1870     		strb	r0, [r3]
 913 0014 7047     		bx	lr
 914              	.L37:
 915 0016 00BF     		.align	2
 916              	.L36:
 917 0018 87650040 		.word	1073767815
 918              		.cfi_endproc
 919              	.LFE7:
 920              		.size	P2_SetIntMode, .-P2_SetIntMode
 921              		.section	.text.P2_GetIntStatus,"ax",%progbits
 922              		.align	2
 923              		.global	P2_GetIntStatus
 924              		.thumb
 925              		.thumb_func
 926              		.type	P2_GetIntStatus, %function
 927              	P2_GetIntStatus:
 928              	.LFB8:
 265:.\Generated_Source\PSoC5/P2.c **** }
 266:.\Generated_Source\PSoC5/P2.c **** 
 267:.\Generated_Source\PSoC5/P2.c **** 
 268:.\Generated_Source\PSoC5/P2.c **** /*******************************************************************************
 269:.\Generated_Source\PSoC5/P2.c **** * Function Name: P2_GetIntStatus
 270:.\Generated_Source\PSoC5/P2.c **** ********************************************************************************
 271:.\Generated_Source\PSoC5/P2.c **** *
 272:.\Generated_Source\PSoC5/P2.c **** * Summary:
 273:.\Generated_Source\PSoC5/P2.c **** *  Gets the Shift Register Interrupt status.
 274:.\Generated_Source\PSoC5/P2.c **** *
 275:.\Generated_Source\PSoC5/P2.c **** * Parameters:
 276:.\Generated_Source\PSoC5/P2.c **** *  None.
 277:.\Generated_Source\PSoC5/P2.c **** *
 278:.\Generated_Source\PSoC5/P2.c **** * Return:
 279:.\Generated_Source\PSoC5/P2.c **** *  Byte containing the constant for the selected interrupt source/s.
 280:.\Generated_Source\PSoC5/P2.c **** *
 281:.\Generated_Source\PSoC5/P2.c **** *******************************************************************************/
 282:.\Generated_Source\PSoC5/P2.c **** uint8 P2_GetIntStatus(void) 
 283:.\Generated_Source\PSoC5/P2.c **** {
 929              		.loc 1 283 0
 930              		.cfi_startproc
 931              		@ args = 0, pretend = 0, frame = 0
ARM GAS  C:\Users\Thomas\AppData\Local\Temp\cc6XWboc.s 			page 53


 932              		@ frame_needed = 0, uses_anonymous_args = 0
 933              		@ link register save eliminated.
 284:.\Generated_Source\PSoC5/P2.c ****     return(P2_SR_STATUS & P2_INTS_EN_MASK);
 934              		.loc 1 284 0
 935 0000 024B     		ldr	r3, .L39
 936 0002 1878     		ldrb	r0, [r3]	@ zero_extendqisi2
 285:.\Generated_Source\PSoC5/P2.c **** }
 937              		.loc 1 285 0
 938 0004 00F00700 		and	r0, r0, #7
 939 0008 7047     		bx	lr
 940              	.L40:
 941 000a 00BF     		.align	2
 942              	.L39:
 943 000c 67650040 		.word	1073767783
 944              		.cfi_endproc
 945              	.LFE8:
 946              		.size	P2_GetIntStatus, .-P2_GetIntStatus
 947              		.section	.text.P2_WriteRegValue,"ax",%progbits
 948              		.align	2
 949              		.global	P2_WriteRegValue
 950              		.thumb
 951              		.thumb_func
 952              		.type	P2_WriteRegValue, %function
 953              	P2_WriteRegValue:
 954              	.LFB9:
 286:.\Generated_Source\PSoC5/P2.c **** 
 287:.\Generated_Source\PSoC5/P2.c **** 
 288:.\Generated_Source\PSoC5/P2.c **** /*******************************************************************************
 289:.\Generated_Source\PSoC5/P2.c **** * Function Name: P2_WriteRegValue
 290:.\Generated_Source\PSoC5/P2.c **** ********************************************************************************
 291:.\Generated_Source\PSoC5/P2.c **** *
 292:.\Generated_Source\PSoC5/P2.c **** * Summary:
 293:.\Generated_Source\PSoC5/P2.c **** *  Send state directly to shift register
 294:.\Generated_Source\PSoC5/P2.c **** *
 295:.\Generated_Source\PSoC5/P2.c **** * Parameters:
 296:.\Generated_Source\PSoC5/P2.c **** *  shiftData: containing shift register state.
 297:.\Generated_Source\PSoC5/P2.c **** *
 298:.\Generated_Source\PSoC5/P2.c **** * Return:
 299:.\Generated_Source\PSoC5/P2.c **** *  None.
 300:.\Generated_Source\PSoC5/P2.c **** *
 301:.\Generated_Source\PSoC5/P2.c **** *******************************************************************************/
 302:.\Generated_Source\PSoC5/P2.c **** void P2_WriteRegValue(uint16 shiftData)
 303:.\Generated_Source\PSoC5/P2.c ****                                                                      
 304:.\Generated_Source\PSoC5/P2.c **** {
 955              		.loc 1 304 0
 956              		.cfi_startproc
 957              		@ args = 0, pretend = 0, frame = 0
 958              		@ frame_needed = 0, uses_anonymous_args = 0
 959              		@ link register save eliminated.
 960              	.LVL19:
 305:.\Generated_Source\PSoC5/P2.c ****     CY_SET_REG16(P2_SHIFT_REG_LSB_PTR, shiftData);
 961              		.loc 1 305 0
 962 0000 014B     		ldr	r3, .L42
 963 0002 1880     		strh	r0, [r3]	@ movhi
 964 0004 7047     		bx	lr
 965              	.L43:
 966 0006 00BF     		.align	2
ARM GAS  C:\Users\Thomas\AppData\Local\Temp\cc6XWboc.s 			page 54


 967              	.L42:
 968 0008 06650040 		.word	1073767686
 969              		.cfi_endproc
 970              	.LFE9:
 971              		.size	P2_WriteRegValue, .-P2_WriteRegValue
 972              		.section	.text.P2_ReadRegValue,"ax",%progbits
 973              		.align	2
 974              		.global	P2_ReadRegValue
 975              		.thumb
 976              		.thumb_func
 977              		.type	P2_ReadRegValue, %function
 978              	P2_ReadRegValue:
 979              	.LFB10:
 306:.\Generated_Source\PSoC5/P2.c **** }
 307:.\Generated_Source\PSoC5/P2.c **** 
 308:.\Generated_Source\PSoC5/P2.c **** 
 309:.\Generated_Source\PSoC5/P2.c **** #if(0u != P2_USE_INPUT_FIFO)
 310:.\Generated_Source\PSoC5/P2.c ****     /*******************************************************************************
 311:.\Generated_Source\PSoC5/P2.c ****     * Function Name: P2_WriteData
 312:.\Generated_Source\PSoC5/P2.c ****     ********************************************************************************
 313:.\Generated_Source\PSoC5/P2.c ****     *
 314:.\Generated_Source\PSoC5/P2.c ****     * Summary:
 315:.\Generated_Source\PSoC5/P2.c ****     *  Send state to FIFO for later transfer to shift register based on the Load
 316:.\Generated_Source\PSoC5/P2.c ****     *  input
 317:.\Generated_Source\PSoC5/P2.c ****     *
 318:.\Generated_Source\PSoC5/P2.c ****     * Parameters:
 319:.\Generated_Source\PSoC5/P2.c ****     *  shiftData: containing shift register state.
 320:.\Generated_Source\PSoC5/P2.c ****     *
 321:.\Generated_Source\PSoC5/P2.c ****     * Return:
 322:.\Generated_Source\PSoC5/P2.c ****     *  Indicates: successful execution of function
 323:.\Generated_Source\PSoC5/P2.c ****     *  when FIFO is empty; and error when FIFO is full.
 324:.\Generated_Source\PSoC5/P2.c ****     *
 325:.\Generated_Source\PSoC5/P2.c ****     * Reentrant:
 326:.\Generated_Source\PSoC5/P2.c ****     *  No.
 327:.\Generated_Source\PSoC5/P2.c ****     *
 328:.\Generated_Source\PSoC5/P2.c ****     *******************************************************************************/
 329:.\Generated_Source\PSoC5/P2.c ****     cystatus P2_WriteData(uint16 shiftData)
 330:.\Generated_Source\PSoC5/P2.c ****                                                                          
 331:.\Generated_Source\PSoC5/P2.c ****     {
 332:.\Generated_Source\PSoC5/P2.c ****         cystatus result;
 333:.\Generated_Source\PSoC5/P2.c **** 
 334:.\Generated_Source\PSoC5/P2.c ****         result = CYRET_INVALID_STATE;
 335:.\Generated_Source\PSoC5/P2.c **** 
 336:.\Generated_Source\PSoC5/P2.c ****         /* Writes data into the input FIFO if it is not FULL */
 337:.\Generated_Source\PSoC5/P2.c ****         if(P2_RET_FIFO_FULL != (P2_GetFIFOStatus(P2_IN_FIFO)))
 338:.\Generated_Source\PSoC5/P2.c ****         {
 339:.\Generated_Source\PSoC5/P2.c ****             CY_SET_REG16(P2_IN_FIFO_VAL_LSB_PTR, shiftData);
 340:.\Generated_Source\PSoC5/P2.c ****             result = CYRET_SUCCESS;
 341:.\Generated_Source\PSoC5/P2.c ****         }
 342:.\Generated_Source\PSoC5/P2.c **** 
 343:.\Generated_Source\PSoC5/P2.c ****         return(result);
 344:.\Generated_Source\PSoC5/P2.c ****     }
 345:.\Generated_Source\PSoC5/P2.c **** #endif /* (0u != P2_USE_INPUT_FIFO) */
 346:.\Generated_Source\PSoC5/P2.c **** 
 347:.\Generated_Source\PSoC5/P2.c **** 
 348:.\Generated_Source\PSoC5/P2.c **** #if(0u != P2_USE_OUTPUT_FIFO)
 349:.\Generated_Source\PSoC5/P2.c ****     /*******************************************************************************
ARM GAS  C:\Users\Thomas\AppData\Local\Temp\cc6XWboc.s 			page 55


 350:.\Generated_Source\PSoC5/P2.c ****     * Function Name: P2_ReadData
 351:.\Generated_Source\PSoC5/P2.c ****     ********************************************************************************
 352:.\Generated_Source\PSoC5/P2.c ****     *
 353:.\Generated_Source\PSoC5/P2.c ****     * Summary:
 354:.\Generated_Source\PSoC5/P2.c ****     *  Returns state in FIFO due to Store input.
 355:.\Generated_Source\PSoC5/P2.c ****     *
 356:.\Generated_Source\PSoC5/P2.c ****     * Parameters:
 357:.\Generated_Source\PSoC5/P2.c ****     *  None.
 358:.\Generated_Source\PSoC5/P2.c ****     *
 359:.\Generated_Source\PSoC5/P2.c ****     * Return:
 360:.\Generated_Source\PSoC5/P2.c ****     *  Shift Register state
 361:.\Generated_Source\PSoC5/P2.c ****     *
 362:.\Generated_Source\PSoC5/P2.c ****     * Reentrant:
 363:.\Generated_Source\PSoC5/P2.c ****     *  No.
 364:.\Generated_Source\PSoC5/P2.c ****     *
 365:.\Generated_Source\PSoC5/P2.c ****     *******************************************************************************/
 366:.\Generated_Source\PSoC5/P2.c ****     uint16 P2_ReadData(void) 
 367:.\Generated_Source\PSoC5/P2.c ****     {
 368:.\Generated_Source\PSoC5/P2.c ****         return(CY_GET_REG16(P2_OUT_FIFO_VAL_LSB_PTR));
 369:.\Generated_Source\PSoC5/P2.c ****     }
 370:.\Generated_Source\PSoC5/P2.c **** #endif /* (0u != P2_USE_OUTPUT_FIFO) */
 371:.\Generated_Source\PSoC5/P2.c **** 
 372:.\Generated_Source\PSoC5/P2.c **** 
 373:.\Generated_Source\PSoC5/P2.c **** /*******************************************************************************
 374:.\Generated_Source\PSoC5/P2.c **** * Function Name: P2_ReadRegValue
 375:.\Generated_Source\PSoC5/P2.c **** ********************************************************************************
 376:.\Generated_Source\PSoC5/P2.c **** *
 377:.\Generated_Source\PSoC5/P2.c **** * Summary:
 378:.\Generated_Source\PSoC5/P2.c **** *  Directly returns current state in shift register, not data in FIFO due
 379:.\Generated_Source\PSoC5/P2.c **** *  to Store input.
 380:.\Generated_Source\PSoC5/P2.c **** *
 381:.\Generated_Source\PSoC5/P2.c **** * Parameters:
 382:.\Generated_Source\PSoC5/P2.c **** *  None.
 383:.\Generated_Source\PSoC5/P2.c **** *
 384:.\Generated_Source\PSoC5/P2.c **** * Return:
 385:.\Generated_Source\PSoC5/P2.c **** *  Shift Register state. Clears output FIFO.
 386:.\Generated_Source\PSoC5/P2.c **** *
 387:.\Generated_Source\PSoC5/P2.c **** * Reentrant:
 388:.\Generated_Source\PSoC5/P2.c **** *  No.
 389:.\Generated_Source\PSoC5/P2.c **** *
 390:.\Generated_Source\PSoC5/P2.c **** *******************************************************************************/
 391:.\Generated_Source\PSoC5/P2.c **** uint16 P2_ReadRegValue(void) 
 392:.\Generated_Source\PSoC5/P2.c **** {
 980              		.loc 1 392 0
 981              		.cfi_startproc
 982              		@ args = 0, pretend = 0, frame = 0
 983              		@ frame_needed = 0, uses_anonymous_args = 0
 984              		@ link register save eliminated.
 985              	.LBB55:
 986              	.LBB56:
 987              	.LBB57:
 988              	.LBB58:
 218:.\Generated_Source\PSoC5/P2.c ****         {
 989              		.loc 1 218 0
 990 0000 064A     		ldr	r2, .L49
 991              	.LBE58:
 992              	.LBE57:
ARM GAS  C:\Users\Thomas\AppData\Local\Temp\cc6XWboc.s 			page 56


 993              	.LBE56:
 994              	.LBE55:
 393:.\Generated_Source\PSoC5/P2.c ****     uint16 result;
 394:.\Generated_Source\PSoC5/P2.c **** 
 395:.\Generated_Source\PSoC5/P2.c ****     /* Clear FIFO before software capture */
 396:.\Generated_Source\PSoC5/P2.c ****     while(P2_RET_FIFO_EMPTY != P2_GetFIFOStatus(P2_OUT_FIFO))
 397:.\Generated_Source\PSoC5/P2.c ****     {
 398:.\Generated_Source\PSoC5/P2.c ****         (void) CY_GET_REG16(P2_OUT_FIFO_VAL_LSB_PTR);
 995              		.loc 1 398 0
 996 0002 0749     		ldr	r1, .L49+4
 396:.\Generated_Source\PSoC5/P2.c ****     {
 997              		.loc 1 396 0
 998 0004 00E0     		b	.L45
 999              	.LVL20:
 1000              	.L48:
 1001              		.loc 1 398 0
 1002 0006 0B88     		ldrh	r3, [r1]
 1003              	.LVL21:
 1004              	.L45:
 1005              	.LBB62:
 1006              	.LBB61:
 1007              	.LBB60:
 1008              	.LBB59:
 218:.\Generated_Source\PSoC5/P2.c ****         {
 1009              		.loc 1 218 0
 1010 0008 1378     		ldrb	r3, [r2]	@ zero_extendqisi2
 1011 000a 13F0600F 		tst	r3, #96
 1012 000e FAD1     		bne	.L48
 1013              	.LVL22:
 1014              	.LBE59:
 1015              	.LBE60:
 1016              	.LBE61:
 1017              	.LBE62:
 399:.\Generated_Source\PSoC5/P2.c ****     }
 400:.\Generated_Source\PSoC5/P2.c **** 
 401:.\Generated_Source\PSoC5/P2.c ****     /* Read of 8 bits from A1 causes capture to output FIFO */
 402:.\Generated_Source\PSoC5/P2.c ****     (void) CY_GET_REG8(P2_SHIFT_REG_CAPTURE_PTR);
 403:.\Generated_Source\PSoC5/P2.c **** 
 404:.\Generated_Source\PSoC5/P2.c ****     /* Read output FIFO */
 405:.\Generated_Source\PSoC5/P2.c ****     result  = CY_GET_REG16(P2_OUT_FIFO_VAL_LSB_PTR);
 1018              		.loc 1 405 0
 1019 0010 034B     		ldr	r3, .L49+4
 402:.\Generated_Source\PSoC5/P2.c **** 
 1020              		.loc 1 402 0
 1021 0012 044A     		ldr	r2, .L49+8
 1022 0014 1278     		ldrb	r2, [r2]	@ zero_extendqisi2
 1023              		.loc 1 405 0
 1024 0016 1888     		ldrh	r0, [r3]
 1025              	.LVL23:
 406:.\Generated_Source\PSoC5/P2.c ****     
 407:.\Generated_Source\PSoC5/P2.c ****     #if(0u != (P2_SR_SIZE % 8u))
 408:.\Generated_Source\PSoC5/P2.c ****         result &= ((uint16) P2_SR_MASK);
 409:.\Generated_Source\PSoC5/P2.c ****     #endif /* (0u != (P2_SR_SIZE % 8u)) */
 410:.\Generated_Source\PSoC5/P2.c ****     
 411:.\Generated_Source\PSoC5/P2.c ****     return(result);
 412:.\Generated_Source\PSoC5/P2.c **** }
 1026              		.loc 1 412 0
ARM GAS  C:\Users\Thomas\AppData\Local\Temp\cc6XWboc.s 			page 57


 1027 0018 80B2     		uxth	r0, r0
 1028 001a 7047     		bx	lr
 1029              	.L50:
 1030              		.align	2
 1031              	.L49:
 1032 001c 67650040 		.word	1073767783
 1033 0020 56650040 		.word	1073767766
 1034 0024 16650040 		.word	1073767702
 1035              		.cfi_endproc
 1036              	.LFE10:
 1037              		.size	P2_ReadRegValue, .-P2_ReadRegValue
 1038              		.global	P2_initVar
 1039              		.bss
 1040              		.set	.LANCHOR0,. + 0
 1041              		.type	P2_initVar, %object
 1042              		.size	P2_initVar, 1
 1043              	P2_initVar:
 1044 0000 00       		.space	1
 1045              		.text
 1046              	.Letext0:
 1047              		.file 2 ".\\Generated_Source\\PSoC5\\cytypes.h"
 1048              		.file 3 ".\\Generated_Source\\PSoC5\\CyLib.h"