ARM GAS  C:\Users\Thomas\AppData\Local\Temp\ccjk6mHM.s 			page 1


   1              		.syntax unified
   2              		.cpu cortex-m3
   3              		.fpu softvfp
   4              		.eabi_attribute 20, 1
   5              		.eabi_attribute 21, 1
   6              		.eabi_attribute 23, 3
   7              		.eabi_attribute 24, 1
   8              		.eabi_attribute 25, 1
   9              		.eabi_attribute 26, 1
  10              		.eabi_attribute 30, 2
  11              		.eabi_attribute 34, 1
  12              		.eabi_attribute 18, 4
  13              		.thumb
  14              		.file	"P2_1.c"
  15              		.text
  16              	.Ltext0:
  17              		.section	.gnu.lto_.profile.b949bba8,"",%progbits
  18 0000 789C6366 		.ascii	"x\234cf```e\200\000F\206\265\214!\000\002\347\001\014"
  18      60606065 
  18      80004686 
  18      B58C2100 
  18      02E7010C 
  19              		.text
  20              		.section	.gnu.lto_.jmpfuncs.b949bba8,"",%progbits
  21 0000 789C6366 		.ascii	"x\234cf\300\016,\2414\017\0203\002A=\003\023\003\003"
  21      C00E2CA1 
  21      340F1033 
  21      02413D03 
  21      130303
  22 0013 33900DE4 		.ascii	"3\220\015\344\263\0001+\020\263C\270\034@\314\011R\302"
  22      B300312B 
  22      10B343B8 
  22      1C40CC09 
  22      52C2
  23 0025 C5C0C00D 		.ascii	"\305\300\300\015\242Az\030\000;\201\002\031"
  23      A2417A18 
  23      003B8102 
  23      19
  24              		.text
  25              		.section	.gnu.lto_.inline.b949bba8,"",%progbits
  26 0000 789C7D50 		.ascii	"x\234}P;\012\302@\024\234\367v\223M\326\200\237\302"
  26      3B0AC240 
  26      149CF776 
  26      934DD680 
  26      9FC2
  27 0012 2216B981 		.ascii	"\"\026\271\201\367\260\311\015\354\3656)E\004\323y\007"
  27      F7B0C90D 
  27      ECF53629 
  27      4504D379 
  27      07
  28 0023 F11076B6 		.ascii	"\361\020v\2666\202\245\202\215\235\263\006\202\212\272"
  28      3682A582 
  28      8D9DB306 
  28      828ABA
  29 0032 2C6F60DE 		.ascii	",o`\336\314\354{k\360\375L\244\301\214\327\011tP\225"
  29      CCEC7B6B 
  29      F0FD4CA4 
ARM GAS  C:\Users\Thomas\AppData\Local\Temp\ccjk6mHM.s 			page 2


  29      C18CD709 
  29      745095
  30 0045 88578506 		.ascii	"\210W\205\006N\340b1\230]U\226\207\323\315\234\365\256"
  30      4EE06231 
  30      985D5596 
  30      87D3CD9C 
  30      F5AE
  31 0057 50C84672 		.ascii	"P\310Fr`\336\000\355\206\322\270\246\305\326E/\370\264"
  31      60DE00ED 
  31      86D2B8A6 
  31      C5D6452F 
  31      F8B4
  32 0069 03CB8A34 		.ascii	"\003\313\2124a`v\2346]\004\245\037\221\212/\343\226"
  32      6160769C 
  32      365D04A5 
  32      1F918A2F 
  32      E396
  33 007b A2165295 		.ascii	"\242\026R\225\001hr\335\217\266x\226\010\375!\371|W"
  33      016872DD 
  33      8FB67896 
  33      08FD21F9 
  33      7C57
  34 008d CB7BC3FD 		.ascii	"\313{\303\375\317K~\344\245\360\251\310s\364v:\335w"
  34      CF4B7EE4 
  34      A5F0A9C8 
  34      73F4763A 
  34      DD77
  35 009f 6D107844 		.ascii	"m\020xD\226\036\256\322z\270\215!EEKe\360k&\250\337"
  35      961EAED2 
  35      7AB88D21 
  35      45454B65 
  35      F06B26A8 
  36 00b4 2EECCBD3 		.ascii	".\354\313\323\341/\037\023\322$\257"
  36      E12F1F13 
  36      D224AF
  37              		.text
  38              		.section	.gnu.lto_.pureconst.b949bba8,"",%progbits
  39 0000 789C6366 		.ascii	"x\234cf``\220d\200\000\036\006)F\011&)f)\026)V)v)\016"
  39      60609064 
  39      80001E06 
  39      29460926 
  39      29662916 
  40 001a 294E292E 		.ascii	")N).)n)\036)\000\025\325\001\247"
  40      296E291E 
  40      290015D5 
  40      01A7
  41              		.text
  42              		.section	.gnu.lto_P2_1_GetFIFOStatus.part.0.b949bba8,"",%progbits
  43 0000 789C6D92 		.ascii	"x\234m\222\333K\324A\024\307\317\231\337eW\267\322z"
  43      DB4BD441 
  43      14C7CF99 
  43      DF6557B7 
  43      D27A
  44 0012 92252858 		.ascii	"\222%(XD\213\220.\364\027\364\020\321\213\340\253a\241"
  44      448B902E 
  44      F417F410 
  44      D18BE0AB 
ARM GAS  C:\Users\Thomas\AppData\Local\Temp\ccjk6mHM.s 			page 3


  44      61A1
  45 0024 2B049160 		.ascii	"+\004\221`\372\340S\363[w\037\212b\213\244\313\232`"
  45      FAE053F3 
  45      5B771F8A 
  45      628BA4CB 
  45      9A60
  46 0036 94B7ACB4 		.ascii	"\224\267\254\264\233\345\005\334,\314\007[\321\0255"
  46      9BE505DC 
  46      2CCC075B 
  46      D11535
  47 0045 D9741FDC 		.ascii	"\331t\037\334\312\350f\231\266an\347\314o\013\243\006"
  47      CAE86699 
  47      B6616EE7 
  47      CC6F0BA3 
  47      06
  48 0056 7E338799 		.ascii	"~3\207\231\357\347\314w\316\371i\360\3578H\237O\003"
  48      EFE7CC77 
  48      CEF969F0 
  48      EF38489F 
  48      4F03
  49 0068 D8492B3A 		.ascii	"\330I+:\000\315s\021\012L\024j\025\232\036p\203tjj6"
  49      00CD7311 
  49      0A4C146A 
  49      159A1E70 
  49      83746A6A 
  50 007d EC180D3E 		.ascii	"\354\030\015>\263\234\372\357\300@\344\000\020N\232"
  50      B39CFAEF 
  50      C040E400 
  50      104E9A
  51 008c 44187812 		.ascii	"D\030x\022\347\305\202\300\341\356\325(\3465I\351\373"
  51      E7C582C0 
  51      E1EED528 
  51      E63549E9 
  51      FB
  52 009d FCE555CC 		.ascii	"\374\345U\314\025\310I\012\200\257\002p\207\033\267"
  52      15C8490A 
  52      80AF0270 
  52      871BB7
  53 00ac B91968C1 		.ascii	"\271\031h\301< a[\354[x\203\346A\216/=i\272\230\351"
  53      3C20615B 
  53      EC5B7883 
  53      E6418E2F 
  53      3D69BA98 
  54 00c1 B946503C 		.ascii	"\271FP<\231\030t\311\313\322\037O\245\266\020\212\255"
  54      991874C9 
  54      CBD21F4F 
  54      A5B6108A 
  54      AD
  55 00d2 A8ADA579 		.ascii	"\250\255\245y\020\020|1\020\313\322\266+x\274u\310\247"
  55      10107C31 
  55      10CBD2B6 
  55      2B78BC75 
  55      C8A7
  56 00e4 DBF0A7C4 		.ascii	"\333\360\247\304\241\260\325(WS)d\366\346\177\331\005"
  56      A1B0D528 
  56      57532964 
  56      F6E67FD9 
ARM GAS  C:\Users\Thomas\AppData\Local\Temp\ccjk6mHM.s 			page 4


  56      05
  57 00f5 FFCF4997 		.ascii	"\377\317I\227\351\227Rfc\033z\260\035=l\220\234\335"
  57      E9975266 
  57      631B7AB0 
  57      1D3D6C90 
  57      9CDD
  58 0107 A21A0008 		.ascii	"\242\032\000\010\336\341\223\216MR\246Ro\336\3459\020"
  58      DEE1938E 
  58      4D52A652 
  58      6FDEE539 
  58      10
  59 0118 9202054F 		.ascii	"\222\002\005O\032MB\347\311\000\326\000\314\021\312"
  59      1A4D42E7 
  59      C900D600 
  59      CC11CA
  60 0127 95480893 		.ascii	"\225H\010\223Wm\002}\033\371\232\347\317z\372\214\374"
  60      576D027D 
  60      1BF99AE7 
  60      CF7AFA8C 
  60      FC
  61 0138 66BAA6B1 		.ascii	"f\272\246\261\357C@gC\351\201\2671\237\004\321\033\361"
  61      EF434067 
  61      43E981B7 
  61      319F04D1 
  61      1BF1
  62 014a A5CCDCEB 		.ascii	"\245\314\334\353\312w`\314%s\376X\306\264eF\360\016"
  62      CA7760CC 
  62      2573FE58 
  62      C6B46546 
  62      F00E
  63 015c E602E5CC 		.ascii	"\346\002\345\314\006e\213P\340\273\204\272k\032\007"
  63      06658B50 
  63      E0BB84BA 
  63      6B1A07
  64 016b 964E4FF4 		.ascii	"\226NO\364\026\262\363ez\231\300H\377\325\331\214\267"
  64      16B2F365 
  64      7A99C048 
  64      FFD5D98C 
  64      B7
  65 017c 2229B4F9 		.ascii	"\")\264\371!K\352ldvnd\324\251\266\324\363?\016\206"
  65      214BEA6C 
  65      64766E64 
  65      D4A9B6D4 
  65      F33F0E86 
  66 0190 C64503D6 		.ascii	"\306E\003\326[u\2263)t\354@7v\"\325\007\357b\003\302"
  66      5B759633 
  66      2974EC40 
  66      377622D5 
  66      07EF6203 
  67 01a5 34D67E37 		.ascii	"4\326~7\355|\302N\331\331\337~J\245\304\303\200\367"
  67      ED7CC24E 
  67      D9D9DF7E 
  67      4AA5C4C3 
  67      80F7
  68 01b7 48398DBE 		.ascii	"H9\215\276\031\207-\321H\305\310L\032\321i\213\220\367"
  68      19872DD1 
  68      48C5C84C 
ARM GAS  C:\Users\Thomas\AppData\Local\Temp\ccjk6mHM.s 			page 5


  68      1AD1698B 
  68      90F7
  69 01c9 D1FA9E75 		.ascii	"\321\372\236u\214\030T\245\373\204\274D\277\334\223"
  69      8C1854A5 
  69      FB84BC44 
  69      BFDC93
  70 01d8 96D0F9D8 		.ascii	"\226\320\371\330\312J+\006\361\254\345\227\361\251\026"
  70      CA4A2B06 
  70      F1ACE597 
  70      F1A916
  71 01e7 47924A07 		.ascii	"G\222J\007\213\252>\370\200\366Ia5\367\236qp\006\241"
  71      8BAA3EF8 
  71      80F64961 
  71      35F79E71 
  71      7006A1
  72 01fa 4C4746AF 		.ascii	"LGF\257D\326\333@\343\020\353\361!e]\024\310H\227\215"
  72      44D6DB40 
  72      E310EBF1 
  72      21655D14 
  72      C848978D 
  73 020e 8426138B 		.ascii	"\204&\023\213\232B\004#\347\273\246~d\244\221a\205<"
  73      9A420423 
  73      E7BBA67E 
  73      64A49161 
  73      853C
  74 0220 5288EAF4 		.ascii	"R\210\352\364cBT\0355\010\270\265)\264\262\331\034\347"
  74      6342541D 
  74      3508B8B5 
  74      29B4B2D9 
  74      1CE7
  75 0232 A352872F 		.ascii	"\243R\207/\0047\253\177\201\372K\211F\342O\203\3521"
  75      0437AB7F 
  75      81FA4B89 
  75      46E24F83 
  75      EA31
  76 0244 40FDE9E6 		.ascii	"@\375\351\346J\021\247\377\315\011\305\205\262\326`"
  76      4A11A7FF 
  76      CD09C585 
  76      B2D660
  77 0253 A3A1E6DA 		.ascii	"\243\241\346\332,\205!`O\0323 HmcN\275\327\356+\351"
  77      2C852160 
  77      4F1A3320 
  77      486D634E 
  77      BDD7EE2B 
  78 0268 97E96406 		.ascii	"\227\351d\006\255ptD\330U2\000^\243\261\266{l\273\027"
  78      AD707444 
  78      D8553200 
  78      5EA3B1B6 
  78      7B6CBB17 
  79 027c DD22B61C 		.ascii	"\335\"\266\034G\266\241\325\325pZ}\274\206~A\344\274"
  79      47B6A1D5 
  79      D5705A7D 
  79      BC867E41 
  79      E4BC
  80 028e 24D95A50 		.ascii	"$\331ZP\274\337{\334[y\244\312[VRTQ]Y\352-.,\252\330"
  80      BCDF7BDC 
  80      5B79A4CA 
ARM GAS  C:\Users\Thomas\AppData\Local\Temp\ccjk6mHM.s 			page 6


  80      5B565254 
  80      515D59EA 
  81 02a7 B7B7B870 		.ascii	"\267\267\270pw\311\256\202R0+\275'\252\217U\231\345"
  81      77C9AE82 
  81      52302BBD 
  81      27AA8F55 
  81      99E5
  82 02b9 47CB2B0E 		.ascii	"G\313+\016\224\375\0026NC\007"
  82      94FD0236 
  82      4E4307
  83              		.text
  84              		.section	.gnu.lto_P2_1_GetFIFOStatus.b949bba8,"",%progbits
  85 0000 789C6590 		.ascii	"x\234e\220OHTQ\024\306\317w\356\363)3\3034\264\212\331"
  85      4F485451 
  85      14C6CF77 
  85      EEF32933 
  85      C334B48A 
  86 0015 140CA245 		.ascii	"\024\014\242EH\177h\323Jh\021\355\004\267\003\022\372"
  86      487F68D3 
  86      4A6811ED 
  86      04B70312 
  86      FA
  87 0026 84209A98 		.ascii	"\204 \232\230t)\336\321\021\202\240\262EE\220\020ee"
  87      7429DED1 
  87      1182A0B2 
  87      45459010 
  87      6565
  88 0038 E518D4A6 		.ascii	"\345\030\324\246\230\3053\242\336\242?\213\241t\361"
  88      98C533A2 
  88      DEA23F8B 
  88      A174F1
  89 0047 AA819AB0 		.ascii	"\252\201\232\260]\2465H\345t\316{\213\202.\\\316\345"
  89      5DA63548 
  89      E574CE7B 
  89      8B822E5C 
  89      CEE5
  90 0059 F2FDBEF3 		.ascii	"\362\375\276\363\235c\350\377\263_\356\012\210\366H"
  90      9D63E8FF 
  90      B35FEE0A 
  90      88F648
  91 0068 451B81CF 		.ascii	"E\033\201\317\277\"*u0\233 E6\341\004\213D6e\340\350"
  91      BF222A75 
  91      309B2045 
  91      36E1048B 
  91      443665E0 
  92 007d 3F1C402B 		.ascii	"?\034@+\201\306\3318\030\307\027^e\274x\264YC\327\254"
  92      81C6D938 
  92      18C7175E 
  92      65BC78B4 
  92      5943D7AC 
  93 0091 B5135FBF 		.ascii	"\265\023_\277\275\013\223S\3336\230h\215\011\273\263"
  93      BD0B9353 
  93      DB369868 
  93      8D09BBB3 
  94 00a1 D89955F9 		.ascii	"\330\231U\371-t\211\356\334\313'\341\026\223\003\311"
  94      2D7489EE 
  94      DCCB27E1 
ARM GAS  C:\Users\Thomas\AppData\Local\Temp\ccjk6mHM.s 			page 7


  94      169303C9 
  95 00b1 BB76A3FE 		.ascii	"\273v\243\376#\321y]\030?\250\330^\010\202\3330\177"
  95      23D1795D 
  95      183FA8D8 
  95      5E0882DB 
  95      307F
  96 00c3 29F5C01C 		.ascii	")\365\300\034:U<\027~\367\323fW\004^Z\234\275\230\310"
  96      3A553C17 
  96      7EF7D366 
  96      57045E5A 
  96      9CBD98C8 
  97 00d7 5D13B0BE 		.ascii	"]\023\260\276\321x\226\264\227m\271\336jmW\376\316\277"
  97      D17896B4 
  97      976DB9DE 
  97      6A6D57FE 
  97      CEBF
  98 00e9 7C7C0458 		.ascii	"||\004X-\377^J\272ekm\006w\221\323`\342|\017\256L\015"
  98      2DFF5E4A 
  98      BA656B6D 
  98      067791D3 
  98      60E27C0F 
  99 0100 FD59D8EA 		.ascii	"\375Y\330\352\333V\353\301\257\013\301A\323\016\322"
  99      DB56EBC1 
  99      AF0BC141 
  99      D30ED2
 100 010f 2F86B676 		.ascii	"/\206\266v\2437\321'!t\354\006\263V\363\026\023~\363"
 100      A337D127 
 100      2174EC06 
 100      B356F316 
 100      137EF3
 101 0122 4C3AF210 		.ascii	"L:\362\020\201\364\230\236~8\223^a\011\261)\006\363"
 101      81F4989E 
 101      7E38935E 
 101      6109B129 
 101      06F3
 102 0134 C8D21B94 		.ascii	"\310\322\033\224\227'?^mWQ\223uKW\226\032\353F5\220"
 102      97273F5E 
 102      6D575193 
 102      754B5796 
 102      1AEB4635 
 103 0149 8C15C409 		.ascii	"\214\025\304\011\033l(H\251cF\225\"{\376\364q\265\255"
 103      1B6C2848 
 103      A9634695 
 103      227BFEF4 
 103      71B5AD
 104 015c FBA6C4AD 		.ascii	"\373\246\304\255W\347\303\336\016\335C|\260\200n\261"
 104      57E7C3DE 
 104      0EDD437C 
 104      B0806EB1 
 105 016c A2109399 		.ascii	"\242\020\223\231\330V\3653\265\263\025\036\373iO[\221"
 105      D856F533 
 105      B5B3151E 
 105      FB694F5B 
 105      91
 106 017d F21AEB54 		.ascii	"\362\032\353T\3671&\3733\221\277\023E^F)C\353b\245\235"
 106      F73126FB 
 106      3391BF13 
ARM GAS  C:\Users\Thomas\AppData\Local\Temp\ccjk6mHM.s 			page 8


 106      455E4629 
 106      43EB62A5 
 107 0192 A2B19AA2 		.ascii	"\242\261\232\242|\217\222_{\315\261\231\200\237\001"
 107      7C8F925F 
 107      7BCDB199 
 107      809F01
 108 01a1 0DCFD50F 		.ascii	"\015\317\325\017'\305\334@&\207\342\302\355\350\311"
 108      27C5DC40 
 108      2687E2C2 
 108      EDE8C9
 109 01b0 1FF64E78 		.ascii	"\037\366Nx\305\243#\336\320@\177a\2648\350\345\373\372"
 109      C5A323DE 
 109      D0407F61 
 109      B438E8E5 
 109      FBFA
 110 01c2 0B870EE4 		.ascii	"\013\207\016\344\373\366\015\354\355\031$w\370\330p"
 110      FBF60DEC 
 110      ED192477 
 110      F8D870
 111 01d1 E1C8905B 		.ascii	"\341\310\220[\364N\215\036\037\371\003\324\364\266\035"
 111      F44E8D1E 
 111      1FF903D4 
 111      F4B61D
 112              		.text
 113              		.section	.gnu.lto_P2_1_Init.b949bba8,"",%progbits
 114 0000 789C8D91 		.ascii	"x\234\215\221\317K\024a\030\307\237\357\363\216\303"
 114      CF4B1461 
 114      18C79FEF 
 114      F38EC3
 115 000f 8684D249 		.ascii	"\206\204\322I\346\024\354A\202\020Z\350\017\220\016"
 115      E614EC41 
 115      82105AE8 
 115      0F900E
 116 001e D24DF0BA 		.ascii	"\322M\360\272\"as\350\2421\254gg\\\223\332K\032\"\242"
 116      226173E8 
 116      A231AC67 
 116      675C93DA 
 116      4B1A22A2 
 117 0032 2C245856 		.ascii	",$XV\226\277\305S1\030T^\022=\030th\0037\260K(F\271"
 117      96BFC553 
 117      3118545E 
 117      123D1874 
 117      680337B0 
 118 004a 508ECFB3 		.ascii	"P\216\317\263\357^L\220\006\346y\337\231\367\373|\237"
 118      EF5E4C90 
 118      06E679DF 
 118      99F7FB7C 
 118      9F
 119 005b CFF33E86 		.ascii	"\317\363>\206\316>\236\274\255L\224\221\025\206\300"
 119      CE3E9EBC 
 119      AD4C9491 
 119      1586C0
 120 006a C31F89A2 		.ascii	"\303\037\211\242\024\003\272!P?\243\037\337\371\200"
 120      1403BA21 
 120      503FA31F 
 120      DFF980
 121 0079 311CCF8E 		.ascii	"1\034\317\216\3277?\011\303p\177{\255\351^SE\322\016"
ARM GAS  C:\Users\Thomas\AppData\Local\Temp\ccjk6mHM.s 			page 9


 121      D7373F09 
 121      C3707F7B 
 121      ADE95E53 
 121      45D20E
 122 008c D9DA6006 		.ascii	"\331\332`\006\315$\232\203\301\277\237\352\335A\321"
 122      CD249A83 
 122      C1BF9FEA 
 122      DD41D1
 123 009b 34DA333C 		.ascii	"4\3323<\203\013Y\347/\305a\222,\227F\356g\2202Ta8\032"
 123      830B59E7 
 123      2FC56192 
 123      2C9746EE 
 123      67903254 
 124 00b2 EA34B81A 		.ascii	"\3524\270\032\210\312\242\327\242\337\230u5;\030hT\317"
 124      88CAA2D7 
 124      A2DF9875 
 124      353B1868 
 124      54CF
 125 00c4 C29BC2DC 		.ascii	"\302\233\302\334\005\223\206\356wJ\323C&=\025\206\003"
 125      059386EE 
 125      774AD343 
 125      263D1586 
 125      03
 126 00d5 5F5FBFED 		.ascii	"__\277\355\214\243\307\341q\222\240\302\214\3470R\020"
 126      8CA3C7E1 
 126      7192A0C2 
 126      8CE73052 
 126      10
 127 00e6 573D5CF1 		.ascii	"W=\\\361j\275\341\005\322\222\2635\3614\337\260\307"
 127      6ABDE105 
 127      D292B335 
 127      F134DFB0 
 127      C7
 128 00f7 2A22CCC2 		.ascii	"*\"\314\302\243\317X\377U8\376\020\234\342\215\223w"
 128      A3CF58FF 
 128      5538FE10 
 128      9CE28D93 
 128      77
 129 0108 AC0955E2 		.ascii	"\254\011U\342C\306\277\335\340\245p\022^\301\375\315"
 129      43C6BFDD 
 129      E0A57012 
 129      5EC1FDCD 
 130 0118 46CEA295 		.ascii	"F\316\242\225\207\033\256\272\232\007\033Q\350\250\274"
 130      871BAEBA 
 130      9A071B51 
 130      E8A8BC
 131 0127 54DEDC4A 		.ascii	"T\336\334JU\177\221~\216\355O\317\\,b2\032\215R\025"
 131      557F917E 
 131      8EED4FCF 
 131      5C2C6232 
 131      1A8D5215 
 132 013b 7630070F 		.ascii	"v0\007\017\363R\236\260\200\"\204\"\1774$\024\326\322"
 132      F3529EB0 
 132      80228422 
 132      7F342414 
 132      D6D2
 133 014d B1AE3F76 		.ascii	"\261\256?v\377\344\253\026\316\221\300.Z\330GP\315\271"
ARM GAS  C:\Users\Thomas\AppData\Local\Temp\ccjk6mHM.s 			page 10


 133      FFE4AB16 
 133      CE91C02E 
 133      5AD84750 
 133      CDB9
 134 015f 8E4BE228 		.ascii	"\216K\342(&\266\265\365\233\326\263\356\334\224\345"
 134      26B6B5F5 
 134      9BD6B3EE 
 134      DC94E5
 135 016e 1AC44FD7 		.ascii	"\032\304O\327\252k\011\357\213{K\216\022@\000V\376\033"
 135      AA6B09EF 
 135      8B7B4B8E 
 135      12400056 
 135      FE1B
 136 0180 60B50AE0 		.ascii	"`\265\012\340\322\027D\361H\233\336\241N\240,\367(\243"
 136      D21744F1 
 136      489BDEA1 
 136      4EA02CF7 
 136      28A3
 137 0192 94C15E6E 		.ascii	"\224\301^n\311\266\371=~p+\347\337\356\352\350\355\013"
 137      C9B6F93D 
 137      7E702BE7 
 137      DFEEEAE8 
 137      ED0B
 138 01a4 BAFD6C7B 		.ascii	"\272\375l{G\357\215\353\331\366L\327\265\226nj\270\323"
 138      47EF8DEB 
 138      D9F64CD7 
 138      B5966E6A 
 138      B8D3
 139 01b6 93F383A0 		.ascii	"\223\363\203\240\357n\316\236\236\000\034\013\330\262"
 139      EF6ECE9E 
 139      9E001C0B 
 139      D8B2
 140              		.text
 141              		.section	.gnu.lto_P2_1_EnableInt.b949bba8,"",%progbits
 142 0000 789C7D90 		.ascii	"x\234}\220\315K\033Q\024\305\357\271\223\214\003)\""
 142      CD4B1B51 
 142      14C5EFB9 
 142      938C0329 
 142      22
 143 0011 2E44B2B1 		.ascii	".D\262\261\220E\020\212\240\340_\320\205\320\225\220"
 143      9045108A 
 143      A0E05FD0 
 143      85D09590 
 144 0021 6D4024CE 		.ascii	"m@$\316\242\033\225!Y\212/:\205\342BDJQ$\202\212\264"
 144      A21B9521 
 144      598A2F3A 
 144      85E24244 
 144      4A512482 
 145 0037 69DA58B1 		.ascii	"i\332X\261\320E)\014.J5\245\"\202\242\210J1Vw\332\210"
 145      D045290C 
 145      2E4A35A5 
 145      2282A288 
 145      4A315677 
 146 004d ED5824BD 		.ascii	"\355X$\275/\343\312\202\003o\336\007\347\374\356\271"
 146      2FE3CA82 
 146      036FDE07 
 146      E7FCEEB9 
ARM GAS  C:\Users\Thomas\AppData\Local\Temp\ccjk6mHM.s 			page 11


 147 005d D7A0FFBF 		.ascii	"\327\240\377\277\250\254]\020\265\313\016\203\300\023"
 147      A8AC5D10 
 147      B5CB0E83 
 147      C013
 148 006b DF89B216 		.ascii	"\337\211\262\026\003\372@\240a\3060\316\370\2021\341"
 148      03FA40A0 
 148      61C630CE 
 148      F88231E1 
 149 007b 15A622F1 		.ascii	"\025\246\"\361E\245\324\371\257\315\346g\315>\023U8"
 149      45A5D4F9 
 149      AFCDE667 
 149      CD3E1355 
 149      38
 150 008c C0E015E2 		.ascii	"\300\340\025\342$\232\235\263\353\275\260\021\203>\227"
 150      249A9DB3 
 150      EBBDB011 
 150      833E97
 151 009b D73EBC30 		.ascii	"\327>\2740bsJ\215\034M\227\277D\324\224r\217\252\325"
 151      62734A8D 
 151      1C4D97BF 
 151      44D49472 
 151      8FAAD5
 152 00ae 165FD8AF 		.ascii	"\026_\330\257a\210\023\217\242h\215\336\006\021\303"
 152      6188138F 
 152      A2688DDE 
 152      0611C3
 153 00bd 857BB313 		.ascii	"\205{\263\0231])\320\200<b\001\034o`J>\350\227\245F"
 153      315D29D0 
 153      803C6201 
 153      1C6F604A 
 153      3EE897A5 
 154 00d2 4F55AB2B 		.ascii	"OU\253+\337&\277\306\331\222\260\362\024\"\2379\254"
 154      DF26BFC6 
 154      D992B0F2 
 154      14229F39 
 154      AC
 155 00e3 7F44C7B2 		.ascii	"\177D\307\262t\352\262\\d7\3661\352}\034k\322\204\337"
 155      74EAB25C 
 155      6437F631 
 155      EA7D1C6B 
 155      D284DF
 156 00f6 6C4881D9 		.ascii	"lH\201\331\255\361\"\017\375U\317\225\345\263$\320\334"
 156      ADF1220F 
 156      FD55CF95 
 156      E5B324D0 
 156      DC
 157 0107 0286C41D 		.ascii	"\002\206\304\035\242mp\255\2240EL{X\275\032;\311;\201"
 157      A26D70AD 
 157      9430454C 
 157      7B58BD1A 
 157      3BC93B81 
 158 011b 3924E6F9 		.ascii	"9$\346\371\237\013\327\326)\373\034\236^\313\252\220"
 158      9F0BD7D6 
 158      29FB1C9E 
 158      5ECBAA90 
 159 012b 0E7C78BC 		.ascii	"\016|x\274\261\031<\325\362o\224v_\2329\314d]\370l\342"
 159      B1193CD5 
ARM GAS  C:\Users\Thomas\AppData\Local\Temp\ccjk6mHM.s 			page 12


 159      F26F9476 
 159      5F9A39CC 
 159      645DF86C 
 160 0140 2DA27807 		.ascii	"-\242x\007\351\017E\344 \304\321K3\300\205\003b\351"
 160      E90F45E4 
 160      20C4D14B 
 160      33C08503 
 160      62E9
 161 0152 C79FCA03 		.ascii	"\307\237\312\003m\347\006\302\222(\245\350$\264\344"
 161      6DE706C2 
 161      9228A5E8 
 161      24B4E4
 162 0161 3ED87B81 		.ascii	">\330{\201\011\202\366\341z\237\326k\241\351nou\025"
 162      0982F6E1 
 162      7A9FD66B 
 162      A1E96E6F 
 162      7515
 163 0173 3D0F2C4B 		.ascii	"=\017,Ko\322\214\317\026\035 \353}~R\023\223\236\024"
 163      6FD28CCF 
 163      161D20EB 
 163      7D7E5213 
 163      939E14
 164 0186 F48444F3 		.ascii	"\364\204D\363\260-\331e\367\333No\332\356\353I\014d"
 164      B02DD965 
 164      F7DB4E6F 
 164      DAEEEB49 
 164      0C64
 165 0198 9C949DEC 		.ascii	"\234\224\235\354N\014<\356Lvw\364\264\267\245\250\376"
 165      4E0C3CEE 
 165      4C7677F4 
 165      B4B7A5A8 
 165      FE
 166 01a9 697FDA76 		.ascii	"i\177\332v\234\314`:\221\026\321?\361\343\265^"
 166      9CCC603A 
 166      9116D13F 
 166      F1E3B55E 
 167              		.text
 168              		.section	.gnu.lto_P2_1_Enable.b949bba8,"",%progbits
 169 0000 789C7D8F 		.ascii	"x\234}\217\315K\002Q\024\305\357\2713\015\202\004\321"
 169      CD4B0251 
 169      14C5EFB9 
 169      330D8204 
 169      D1
 170 0011 4A5C451B 		.ascii	"J\\E\033wBA\177AP\313\004w!H\330l\023\244\226\342\014"
 170      7742417F 
 170      4150CB04 
 170      772148D8 
 170      6C13A496 
 171 0027 1A485058 		.ascii	"\032HPX\020Xa;\373\262\214j\021\355\206\026\331\312"
 171      1058613B 
 171      FBB28C6A 
 171      11ED8616 
 171      D9CA
 172 0039 A8168148 		.ascii	"\250\026\201Hm\014l\227\030\305\020a\3679\313\240\007"
 172      6D0C6C97 
 172      18C51061 
 172      F739CBA0 
ARM GAS  C:\Users\Thomas\AppData\Local\Temp\ccjk6mHM.s 			page 13


 172      07
 173 004a EFDDF771 		.ascii	"\357\335\367q\356\357\274\243\321\337\021\2249\003\242"
 173      EEEFBCA3 
 173      D1DF1194 
 173      3903A2
 174 0059 51A9D008 		.ascii	"Q\251\320\010\\\250\023\331>\006\324\206@\031F\006o"
 174      5CA813D9 
 174      3E06D486 
 174      40194606 
 174      6F
 175 006a DC61149C 		.ascii	"\334a\024\234J\321\037*[\226\365\376p\026X\016\270L"
 175      4AD11F2A 
 175      5B96F5FE 
 175      7016580E 
 175      B84C
 176 007c D4650F83 		.ascii	"\324e\017\203}\204H4\235\334\317\223\337\310\211f\310"
 176      7D844834 
 176      9DDCCF93 
 176      DFC88966 
 176      C8
 177 008d 7BC3010C 		.ascii	"{\303\001\014\301\323\351\260c\365z\027\265\365|\010"
 177      C1D3E9B0 
 177      63F57A17 
 177      B5F57C08 
 178 009d 0693CB62 		.ascii	"\006\223\313b&\013QKT\312\352\225YU\255\201\353\317"
 178      260B514B 
 178      54CAEA95 
 178      5955AD81 
 178      EBCF
 179 00af 95FAD6AC 		.ascii	"\225\372\326\254j\374b\345\273\335)\357\015\266\331"
 179      6AFC62E5 
 179      BBDD29EF 
 179      0DB6D9
 180 00be 65766F6D 		.ascii	"evomKW6/\255\273{_\377\212\324\261Y\334\\\345\022v\354"
 180      4B57362F 
 180      ADBB7B5F 
 180      FF8AD4B1 
 180      59DC5CE5 
 181 00d5 1C5CD670 		.ascii	"\034\\\326p\210 \216 \311PA\011\324@\366\303\360p\232"
 181      88208E20 
 181      C9504109 
 181      D440F6C3 
 181      F0709A
 182 00e8 47AC95DA 		.ascii	"G\254\225\332\347\272j\007\010\307\242\024\323\015("
 182      E7BA6A07 
 182      08C7A214 
 182      D30D28
 183 00f7 C97FB013 		.ascii	"\311\177\260\023\201\011\202\232\310:\2277\254\344\312"
 183      8109829A 
 183      C83A9737 
 183      ACE4CA
 184 0106 7CF771AD 		.ascii	"|\367q\255\312\351o+o\371\\\326\273*\023\252HK\272\001"
 184      CAE96F2B 
 184      6FF95CD6 
 184      BB2A13AA 
 184      484BBA01 
 185 011a 7A86ED5C 		.ascii	"z\206\355\\M\365\225\244\242BE\224?\217\204c\323\346"
ARM GAS  C:\Users\Thomas\AppData\Local\Temp\ccjk6mHM.s 			page 14


 185      4DF595A4 
 185      A2424594 
 185      3F8F8463 
 185      D3E6
 186 012c 82999A5B 		.ascii	"\202\231\232[4\347\343\321\344R*a\306\"\321\344\344"
 186      34E7E3D1 
 186      E4522A61 
 186      C622D1E4 
 186      E4
 187 013d 442C321E 		.ascii	"D,2\036\037\013'\350\027s\240\177\032"
 187      1F0B27E8 
 187      1773A07F 
 187      1A
 188              		.text
 189              		.section	.gnu.lto_P2_1_Start.b949bba8,"",%progbits
 190 0000 789C8D53 		.ascii	"x\234\215S\337KTA\024>gf\366\207\273\211\022\364\262"
 190      DF4B5441 
 190      143E6766 
 190      F687BB89 
 190      12F4B2
 191 0013 81083E48 		.ascii	"\201\010>H\020JF\177A\017\321\233\340[\030\022\266\017"
 191      104A467F 
 191      410FD19B 
 191      E05B1812 
 191      B60F
 192 0025 BD682CFA 		.ascii	"\275h,\372(\316\335]\244$J$\244,\243\300_e\255\246\226"
 192      28CEDD5D 
 192      A4244A24 
 192      A42CA3C0 
 192      5F65ADA6 
 193 003a 95BFAE06 		.ascii	"\225\277\256\006\245D\206dj\"\031d`/\341b\224K\351v"
 193      A5448664 
 193      6A221964 
 193      602FE162 
 193      944BE976 
 194 004e CEDCCD5C 		.ascii	"\316\334\315\\\305\350\302\236\271w\346\314w\276\357"
 194      C5E8C29E 
 194      B977E6CC 
 194      77BEEF
 195 005d 3B6725EC 		.ascii	";g%\354~\216\322/W\001\024\321\212.@\3210\005`y\205"
 195      7E8ED22F 
 195      570114D1 
 195      8A2E40D1 
 195      30056079 
 196 0072 903385A0 		.ascii	"\2203\205\240}j(\007\364>\211\312\331V\210\374\002\010"
 196      7D6A2807 
 196      F43E89CA 
 196      D95688FC 
 196      0208
 197 0084 B5422AAC 		.ascii	"\265B*\254\305/\".\260\301\356\272\346\317o\323Z\257"
 197      C52F222E 
 197      B0C1EEBA 
 197      E6CF6FD3 
 197      5AAF
 198 0096 F6BEB28A 		.ascii	"\366\276\262\212mL\010\2005\341\024\300\016\314\007"
 198      6D4C0880 
 198      35E114C0 
ARM GAS  C:\Users\Thomas\AppData\Local\Temp\ccjk6mHM.s 			page 15


 198      0ECC07
 199 00a5 4A8A4737 		.ascii	"J\212G7\346\374\356(%e;g\330\211n\244\265{\277\255\223"
 199      E6FCEE28 
 199      25653B67 
 199      D8896EA4 
 199      B57BBFAD 
 200 00ba C9BED8D8 		.ascii	"\311\276\330\330<fIH\010T\034<\034\274\03428\3708\370"
 200      3C664948 
 200      08541C3C 
 200      1CBC1C32 
 200      38F838F8 
 201 00ce 39002CD3 		.ascii	"9\000,\323mf\361Y\010^\345\002\206\033\343\261\203\214"
 201      6D66F159 
 201      085EE502 
 201      861BE3B1 
 201      838C
 202 00e0 F743482A 		.ascii	"\367CH*u\353\355\345\230\250\371\251/hoB\210\015.F\273"
 202      75EBEDE5 
 202      98A8F9A9 
 202      2F686F42 
 202      880D2E46 
 203 00f5 4BCB6FA6 		.ascii	"K\313o\246\275+\202v\314g\247\025\275\211-x\303\322"
 203      BD2B8276 
 203      CC67A715 
 203      BD892D78 
 203      C3D2
 204 0107 9C25F12E 		.ascii	"\234%\361.\326\340=\014\020\257.\332\206w\030\235\217"
 204      D6E03D0C 
 204      10AF2EDA 
 204      8677189D 
 204      8F
 205 0118 E4FCC5B4 		.ascii	"\344\374\305\264\332\007/y\3706\021\300\373\234\007"
 205      DA072F79 
 205      F83611C0 
 205      FB9C07
 206 0127 CC40C24C 		.ascii	"\314@\302L\241\234\305p6C\326\217\324\3072d\036\362"
 206      A19CC570 
 206      3643D68F 
 206      D4C73264 
 206      1EF2
 207 0139 FBEC526B 		.ascii	"\373\354Rk\235\314\273\243u\370\343\360\363\323\266"
 207      9DCCBBA3 
 207      75F8E3F0 
 207      F3D3B6
 208 0148 755B6F26 		.ascii	"u[o&\223\310\205\036\240$\375x8\200\207\002\251&`\014"
 208      93C8851E 
 208      A024FD78 
 208      38808702 
 208      A926600C 
 209 015c F3E8CE74 		.ascii	"\363\350\316ts{$\213kH\004\354\246\032\0138\376\275"
 209      737B248B 
 209      6B4804EC 
 209      A61A0B38 
 209      FEBD
 210 016e 7E732294 		.ascii	"~s\"\224f\237=\0324\336\255\011L\367\325N\276\020\214"
 210      669F3D1A 
 210      34DEAD09 
ARM GAS  C:\Users\Thomas\AppData\Local\Temp\ccjk6mHM.s 			page 16


 210      4CF7D54E 
 210      BE108C
 211 0181 04D8C3A7 		.ascii	"\004\330\303\247b\247\353\370\020\335T\253\227%yXR\377"
 211      62A7EBF8 
 211      10DD54AB 
 211      97257958 
 211      52FF
 212 0193 95493797 		.ascii	"\225I7\227S\027'-\255\322<R\306\243\246\325\326\216"
 212      5317272D 
 212      ADD23C52 
 212      C6A3A6D5 
 212      D68E
 213 01a5 4CF6E8AA 		.ascii	"L\366\350\252E\036\271\260\017\003\330o<z\304\036-`"
 213      451EB9B0 
 213      0F03D86F 
 213      3C7AC41E 
 213      2D60
 214 01b7 64BD8EE8 		.ascii	"d\275\216\3509\220^\007\365\353\247_\021\003\341Z'\025"
 214      39905E07 
 214      F5EBA75F 
 214      1103E15A 
 214      2715
 215 01c9 8F1D158D 		.ascii	"\217\035\025\215\3109\377D\034 D\002q4\217\237t03\376"
 215      C839FF44 
 215      1C204402 
 215      71348F9F 
 215      743033FE 
 216 01dd 79E5498A 		.ascii	"y\345I\212\3047\267\223\355s.\274lY\351U\246UD\340\351"
 216      C437B793 
 216      ED732EBC 
 216      6C59E955 
 216      A65544E0 
 217 01f2 7F137866 		.ascii	"\177\023xf\010\370(;\274\332\323_\300\026\3579K;\207"
 217      08F8283B 
 217      BCDAD35F 
 217      C016EF39 
 217      4B3B87
 218 0205 67706B78 		.ascii	"gpkx\206h\333\364\216\247C\245\346\223\024M]?\225\336"
 218      8668DBF4 
 218      8EA743A5 
 218      E693144D 
 218      5D3F95DE 
 219 0219 ACB903A9 		.ascii	"\254\271\003\251.\312]}\0326}\032aI\212\316\232\343"
 219      2ECA5D7D 
 219      1A367D1A 
 219      61498ACE 
 219      9AE3
 220 022b 6DED99A6 		.ascii	"m\355\231\246)\211\211T\237:\232^/\272\266\251\030\335"
 220      29898954 
 220      9F3A9A5E 
 220      2FBAB6A9 
 220      18DD
 221 023d 5261FFF1 		.ascii	"Ra\377\361\244\216*:\030~\202\331\346\303\210\321\265"
 221      A48E2A3A 
 221      187E82D9 
 221      E6C388D1 
 221      B5
ARM GAS  C:\Users\Thomas\AppData\Local\Temp\ccjk6mHM.s 			page 17


 222 024e 37C298F1 		.ascii	"7\302\230\361\301\017\213\030\261\007h\242(\037v\032"
 222      C10F8B18 
 222      B10768A2 
 222      281F761A 
 223 025e 41B495A1 		.ascii	"A\264\225\241\211\343XC\377J\017|@\313~\357bE<\320\313"
 223      89E35843 
 223      FF4A0F7C 
 223      40CB7EEF 
 223      62453CD0 
 224 0273 349B249D 		.ascii	"4\233$\235\334\312-(=\021\254\010\206\316T\005\317\226"
 224      DCCA2D28 
 224      3D11AC08 
 224      86CE5405 
 224      CF96
 225 0285 95545687 		.ascii	"\225TV\207\312\203\245\305%\225\307\217\225\026\027"
 225      CA83A5C5 
 225      2595C78F 
 225      951617
 226 0294 951D2928 		.ascii	"\225\035)(\207\254s\025U\301P\250\372|\225s\372\033"
 226      87AC7315 
 226      55C150A8 
 226      FA7C9573 
 226      FA1B
 227 02a6 B5E383A9 		.ascii	"\265\343\203\251"
 228              		.text
 229              		.section	.gnu.lto_P2_1_DisableInt.b949bba8,"",%progbits
 230 0000 789C7D90 		.ascii	"x\234}\220\315K\033Q\024\305\357\271\223\214\003\001"
 230      CD4B1B51 
 230      14C5EFB9 
 230      938C0301 
 231 0010 292E44B2 		.ascii	").D\262Q\310B\204\"X\361/p\341\302\215\220m@Dg\321\215"
 231      51C84284 
 231      2258F12F 
 231      70E1C28D 
 231      906D4044 
 232 0027 96212EC5 		.ascii	"\226!.\305\027\035A*\024\021\251\021I\241\212\370\255"
 232      171D412A 
 232      1411A911 
 232      49A18AF8 
 232      AD
 233 0038 2DED1F30 		.ascii	"-\355\0370\270\020\203\240\024\301\240\210\272H\374"
 233      B81083A0 
 233      14C1A088 
 233      BA48FC
 234 0047 DA5815AA 		.ascii	"\332X\025\252\243Hz_\306\225\202\003o\336\007\347\374"
 234      A3487A5F 
 234      C6958203 
 234      6FDE07E7 
 234      FC
 235 0058 EEB9D7A0 		.ascii	"\356\271\327\240\327_T\326\001\210\032d\207A\340\321"
 235      D75F54D6 
 235      01881A64 
 235      8741E0D1 
 236 0068 6DA294C5 		.ascii	"m\242\224\305\200>\020\250\237\321\217\013\276f\214"
 236      803E10A8 
 236      9FD18F0B 
 236      BE668C
ARM GAS  C:\Users\Thomas\AppData\Local\Temp\ccjk6mHM.s 			page 18


 237 0077 7A4BE948 		.ascii	"zK\351H\355\254R\352\357M\256j\250\312g\242[\0160\230"
 237      EDAC52EA 
 237      EF4DAE6A 
 237      A8CA67A2 
 237      5B0E3098 
 238 008b 432D8926 		.ascii	"C-\211&w\361p\0206b\320\347B\366\367\270\021\373\256"
 238      77F17010 
 238      3662D0E7 
 238      42F6F7B8 
 238      11FBAE
 239 009e D4C049B6 		.ascii	"\324\300I\266\260\021Qi\345\236\024\213\325\276\260"
 239      B0115169 
 239      E59E148B 
 239      D5BEB0
 240 00ad E7618813 		.ascii	"\347a\210\023\357\243\250\213>\007\021\303\265\373\224"
 240      EFA3A88B 
 240      3E0711C3 
 240      B5FB94
 241 00bc 8B98AE14 		.ascii	"\213\230\256\024x\207\005\304\0028\026aJ>\350\227\265"
 241      788705C4 
 241      02381661 
 241      4A3EE897 
 241      B5
 242 00cd 0A4F158B 		.ascii	"\012O\025\213\277\362c\233\215lIXy\012\221\317\034\326"
 242      BFF2639B 
 242      8D6C4958 
 242      790A91CF 
 242      1CD6
 243 00df 3FA2BC2C 		.ascii	"?\242\274,\235\272 \027\331\215C\014z\023#\225\232p"
 243      9DBA2017 
 243      D98D430C 
 243      7A132395 
 243      9A70
 244 00f1 C78614F8 		.ascii	"\307\206\024\370\266\373e\225\373\036\325\260\262|\226"
 244      B6FB6595 
 244      FB1ED5B0 
 244      B27C96
 245 0100 049ABB84 		.ascii	"\004\232\273\204>q\207h\017\\*%L\021\313L\326\377}>"
 245      3E718768 
 245      0F5C2A25 
 245      4C11CB4C 
 245      D6FF7D3E 
 246 0114 5D760273 		.ascii	"]v\002sH\314\323g3\017\3269\373\034\236\314\246TH\007"
 246      48CCD367 
 246      330FD639 
 246      FB1C9ECC 
 246      A6544807 
 247 0128 3ECEEFFC 		.ascii	">\316\357\374\011\236J\371w\266\366\277\232\031L\245"
 247      099E4AF9 
 247      77B6F6BF 
 247      9A194CA5 
 248 0138 5CF86C62 		.ascii	"\\\370lb\031Q\254@\372\303*2\020\342\340\275\031\340"
 248      1951AC40 
 248      FAC32A32 
 248      10E2E0BD 
 248      19E0
 249 014a C2017161 		.ascii	"\302\001qa;}Y\256\355\346\025\010k\"\225\252c\320\232"
ARM GAS  C:\Users\Thomas\AppData\Local\Temp\ccjk6mHM.s 			page 19


 249      3B7D59AE 
 249      EDE61508 
 249      6B2295AA 
 249      63D09A
 250 015d B7683F84 		.ascii	"\267h?\204&\014:\204\353Mm\225R\323\313\346\312n\365"
 250      260C3A84 
 250      EB4D6D95 
 250      52D3CBE6 
 250      CA6EF5
 251 0170 40F0539A 		.ascii	"@\360S\232\223n|\266\350\010)/\323Z\022\223\036\025"
 251      936E7CB6 
 251      E808292F 
 251      D35A1293 
 251      1E15
 252 0182 F4884453 		.ascii	"\364\210DSS\237h\261\273m\247#iw\265\307{z\235N;\321"
 252      539F68B1 
 252      BB6DA723 
 252      6977B5C7 
 252      7B7A9D4E 
 253 0198 16EF696E 		.ascii	"\026\357inJ\264}ho\250\357\244\362\217\335I\333qz?%"
 253      4AB47D68 
 253      6FA8EFA4 
 253      F28FDD49 
 253      DB717A3F 
 254 01ad E34911FD 		.ascii	"\343I\021\375\007\374u\265\252"
 254      07FC75B5 
 254      AA
 255              		.text
 256              		.section	.gnu.lto_P2_1_Stop.b949bba8,"",%progbits
 257 0000 789C7D8F 		.ascii	"x\234}\217?HBQ\024\306\317w\236=\004)\242I\234\242\305"
 257      3F484251 
 257      14C6CF77 
 257      9E3D0429 
 257      A2499CA2 
 258 0015 4D28686A 		.ascii	"M(hjlp\025\334B\220\260\267&H\215\342{h\020A\241B \205"
 258      6C7015DC 
 258      4290B0B7 
 258      26488DE2 
 258      7B681041 
 259 002d 6E5666D9 		.ascii	"nVf\331Pk\360h\311\251\210\206\300\254\026\213\332\022"
 259      506BF068 
 259      C9A98886 
 259      C0AC168B 
 259      DA12
 260 003f E9CF23CA 		.ascii	"\351\317#\312\316\365\215A\027\356=\367\317w~\337\375"
 260      CEF58D41 
 260      17EE3DF7 
 260      CF777EDF 
 260      FD
 261 0050 34FA3B02 		.ascii	"4\372;\0022# \232\220\012\215\300\371\013\"\313\313"
 261      3223209A 
 261      900A8DC0 
 261      F90B22CB 
 261      CB
 262 0061 80DA1028 		.ascii	"\200\332\020(\303\310\340\205\273\214\274]/\371\202"
 262      C3C8E085 
 262      BB8CBC5D 
ARM GAS  C:\Users\Thomas\AppData\Local\Temp\ccjk6mHM.s 			page 20


 262      2FF982
 263 0070 55D3345F 		.ascii	"U\3234_\213\247\376\025\277\303D=v1\330E\220D\323\315"
 263      8BA7FE15 
 263      BFC3443D 
 263      7631D845 
 263      9044D3CD 
 264 0084 7DDFF8F4 		.ascii	"}\337\370\364\234hF\3357\354A\027<\035\215\331f\277"
 264      9C6846DD 
 264      37EC4117 
 264      3C1D8DD9 
 264      66BF
 265 0096 7FFC5668 		.ascii	"\177\374Vh\316@grX\314d!\352\210JY=2\253\252\265p\366"
 265      CE406772 
 265      58CC6421 
 265      EA884A59 
 265      3D32ABAA 
 266 00ad BEF65499 		.ascii	"\276\366T\231S\215\037\254|\267\272\325\235\341gv\230"
 266      538D1FAC 
 266      7CB7BAD5 
 266      9DE16776 
 266      98
 267 00be 9DA6657A 		.ascii	"\235\246ez\224\315C\347\362\312;\270\"ul\2276\327\271"
 267      94CD43E7 
 267      F2CA3BB8 
 267      22756C97 
 267      36D7B9
 268 00d1 8C6D2B07 		.ascii	"\214m+\007\2075\324\020\300>$\031\352(\203Z\310~\352"
 268      8735D410 
 268      C03E2419 
 268      EA28835A 
 268      C87EEA
 269 00e4 2E4E7389 		.ascii	".Ns\211\205\302IeD\265k? \034\210T\\\213P\232\377h\207"
 269      85C24965 
 269      44B56B3F 
 269      201C8854 
 269      5C8B509A 
 270 00fb 421306B5 		.ascii	"B\023\006\265\221\265o\317Y\311\225{\345z\243\301\351"
 270      91B56FCF 
 270      59C9957B 
 270      E57AA3C1 
 270      E9
 271 010c 2F73D5F4 		.ascii	"/s\325\364:\354\351\251Ph -\361\206\350\036\226}\027"
 271      3AECE9A9 
 271      5068202D 
 271      F186E81E 
 271      967D17
 272 011f 1E284965 		.ascii	"\036(Ie\205\312(\237\036\017\305\302\306\242\221\232"
 272      85CA289F 
 272      1E0FC5C2 
 272      C6A2919A 
 273 012f 5F3216E2 		.ascii	"_2\026\342\321\344r*a\304\"\321\344\354t,2\025\237\014"
 273      D1E4722A 
 273      61C422D1 
 273      E4EC742C 
 273      32159F0C 
 274 0143 25E81791 		.ascii	"%\350\027\221\247\200T"
 274      A78054
ARM GAS  C:\Users\Thomas\AppData\Local\Temp\ccjk6mHM.s 			page 21


 275              		.text
 276              		.section	.gnu.lto_P2_1_SetIntMode.b949bba8,"",%progbits
 277 0000 789C8D51 		.ascii	"x\234\215QM(DQ\024>\337\275\317\233\307,\310\212Y)1"
 277      4D284451 
 277      143EDFBD 
 277      CF9BC72C 
 277      C88A5929 
 278 0015 2929CA5E 		.ascii	"))\312^Y\310Nl\247$\336\302\306\3505\263\366\236\031"
 278      59C84E6C 
 278      A724DEC2 
 278      C6E835B3 
 278      F69E19
 279 0028 0BB3F193 		.ascii	"\013\263\361\223\205\222\225\344\177\374\226\2154\331"
 279      859295E4 
 279      7FFC968D 
 279      34D9
 280 0036 0C1B6241 		.ascii	"\014\033bA\315\202\205QX\210\310\030\371;\367=+J^\335"
 280      CD828551 
 280      5888C818 
 280      F93BF73D 
 280      2B4A5EDD 
 281 004a 73CEBDEF 		.ascii	"s\316\275\357\3739\367\\I\277\277\000/M\0205p\206$\210"
 281      FB39F75C 
 281      49BFBF00 
 281      2F4D1035 
 281      70862488 
 282 005e D14322C7 		.ascii	"\321C\"\307\020\200*\0104 0\200\033\361 0\232Z\232\364"
 282      10802A08 
 282      34203080 
 282      1BF12030 
 282      9A5A9AF4 
 283 0072 07676DDB 		.ascii	"\007gm\333\276?\031+\037*\3133\355Qx2\230C\220!\211"
 283      BE3F192B 
 283      1F2ACB33 
 283      ED517832 
 283      98439021 
 284 0087 DD44B250 		.ascii	"\335D\262PV\202\270\236xM\337\312\252\031\333\036L\355"
 284      5682B89E 
 284      784DDFCA 
 284      AA19DB1E 
 284      4CED
 285 0099 24ED26E4 		.ascii	"$\355&\344Ys\036\222\031\250\015\240&@|@X@\225\002?"
 285      59731E92 
 285      19A80DA0 
 285      26407C40 
 285      58409502 
 286 00ae C4DFCFFC 		.ascii	"\304\337\317\374z\234\265K<M,B\007\347\325\322\224\375"
 286      7A9CB54B 
 286      3C4D2C42 
 286      07E7D5D2 
 286      94FD
 287 00c0 F9B9999E 		.ascii	"\371\271\231\236\230\257\326\212\004s\204T\241@\005"
 287      98AFD68A 
 287      04738454 
 287      A14005
 288 00cf 1D8AEE53 		.ascii	"\035\212\356S\245\241\002Q\226\227\352\373\2127\234"
 288      A5A10251 
ARM GAS  C:\Users\Thomas\AppData\Local\Temp\ccjk6mHM.s 			page 22


 288      9697EAFB 
 288      8A379C
 289 00de 65067BCF 		.ascii	"e\006{\317\211\217}K\251\345\204\272\204\2635r\240_"
 289      898F7D4B 
 289      A9E584BA 
 289      84B33572 
 289      A05F
 290 00f0 8BBC90C3 		.ascii	"\213\274\220\303\007\216\255)\357\213\354\321\261\341"
 290      078EAD29 
 290      EF8BECD1 
 290      B1E1
 291 00fe 1E91DA2E 		.ascii	"\036\221\332.fO\267\375\323\230r\342\334\262\206%\004"
 291      664FB7FD 
 291      D39872E2 
 291      DCB28625 
 291      04
 292 010f B00C1E13 		.ascii	"\260\014\036\023V0\015\312 \366\242{r\322S\274\273|"
 292      56300DCA 
 292      20F6A27B 
 292      72D253BC 
 292      BB7C
 293 0121 8BB974ED 		.ascii	"\213\271t\355\205\357\223d(\273\216Ca\376R[e5\326 \267"
 293      85EF9364 
 293      28BB8E43 
 293      61FE525B 
 293      6535D620 
 294 0136 C5BD564F 		.ascii	"\305\275VO\262\340/\306\332\017\177_N(\207\334[z\250"
 294      B2E02FC6 
 294      DA0F7F5F 
 294      4E2887DC 
 294      5B7AA8
 295 0149 D8F5F711 		.ascii	"\330\365\367\021\326]\373\330\3237\304`I\006\376\257"
 295      D65DFBD8 
 295      D337C460 
 295      4906FEAF 
 296 0159 A30DB723 		.ascii	"\243\015\267#\203\316\341\2446\333\025Z\275l\226_\211"
 296      83CEE1A4 
 296      36DB155A 
 296      BD6C965F 
 296      89
 297 016a 47C983AD 		.ascii	"G\311\203\255\250\013\265\230}\246\325\0251{:;\302Q"
 297      A80BB598 
 297      7DA6D515 
 297      317B3A3B 
 297      C251
 298 017c ABDB0CB5 		.ascii	"\253\333\014\265u\204\233\033Cm\015\235\365u\335T\334"
 298      75849B1B 
 298      436D0D9D 
 298      F575DD54 
 298      DC
 299 018d DB17312D 		.ascii	"\333\0271-+\332\037\361\376~\001Y\261\276\256"
 299      2BDA1FF1 
 299      FE7E0159 
 299      B1BEAE
 300              		.text
 301              		.section	.gnu.lto_P2_1_GetIntStatus.b949bba8,"",%progbits
 302 0000 789C6366 		.ascii	"x\234cf\300\004R@\374\007\210\225\200\230\221\231\201"
ARM GAS  C:\Users\Thomas\AppData\Local\Temp\ccjk6mHM.s 			page 23


 302      C0045240 
 302      FC078895 
 302      80989199 
 302      81
 303 0011 9169C239 		.ascii	"\221i\3029\006\206F\016&FF\020\203\201\221\241\236\211"
 303      0686460E 
 303      26464610 
 303      838191A1 
 303      9E89
 304 0023 B19EF125 		.ascii	"\261\236\361%\323G&\3063;\377]fT_\332\320\320\364a\321"
 304      D34726C6 
 304      333BFF5D 
 304      66545FDA 
 304      D0D0F461 
 305 0038 F4BBDCAD 		.ascii	"\364\273\334\255\022?\231\030\030>310\352H1j\202\314"
 305      123F9918 
 305      183E3331 
 305      30EA4831 
 305      6A82CC
 306 004b 615CCEA8 		.ascii	"a\\\316\250\316\000T\370\261\345\357un\266\226\206\206"
 306      CE0054F8 
 306      B1E5EF75 
 306      6EB69686 
 306      86
 307 005c 0601903C 		.ascii	"\006\001\220<Pb\005#\033#\220^/t\240\341\377\377\317"
 307      50620523 
 307      1B23905E 
 307      2F74A0E1 
 307      FFFFCF
 308 006f 77A7ACD0 		.ascii	"w\247\254\320gaab\370\311\004\264\021d\010\303\023 "
 308      67616162 
 308      F8C904B4 
 308      116408C3 
 308      1320
 309 0081 01B2EF29 		.ascii	"\001\262\357)\023\023\210f\276\305x\350[\327\263\323"
 309      13138866 
 309      BEC578E8 
 309      5BD7B3D3 
 310 0091 16208DDF 		.ascii	"\026 \215\337\231@\226\237\333?\347>\347\013\246\237"
 310      9940969F 
 310      DB3FE73E 
 310      E70BA69F 
 311 00a1 4C4C2F4F 		.ascii	"LL/O46\260\200\254\271\377\344\374E\016\260\020\003"
 311      3436B080 
 311      ACB9FFE4 
 311      FC450EB0 
 311      1003
 312 00b3 883B63E2 		.ascii	"\210;c\342\224\036\226\271\214\263\033[\030\177213\256"
 312      941E96B9 
 312      8CB31B5B 
 312      187F3231 
 312      33AE
 313 00c5 6494625C 		.ascii	"d\224b\\\305\010t\026\343j\306\271\214\014\267\030\233"
 313      C5087416 
 313      E36AC6B9 
 313      8C0CB718 
 313      9B
ARM GAS  C:\Users\Thomas\AppData\Local\Temp\ccjk6mHM.s 			page 24


 314 00d6 7FB4E940 		.ascii	"\177\264\351@\314c\206\030\371\375\317\361V~\220~\006"
 314      CC638618 
 314      F9FDCFF1 
 314      567E907E 
 314      06
 315 00e7 7606C635 		.ascii	"v\006\3065@\245\367\030\031\241\012\300Nb\0049\005h"
 315      40A5F718 
 315      19A10AC0 
 315      4E620439 
 315      0568
 316 00f9 B6825E8C 		.ascii	"\266\202^\214{j^jQbIjJ|p~iQrjL@p\276\263iL\200Q\274"
 316      7B6A5E6A 
 316      5162496A 
 316      4A7C707E 
 316      6951726A 
 317 0117 A15E3203 		.ascii	"\241^2\003\000nWe3"
 317      006E5765 
 317      33
 318              		.text
 319              		.section	.gnu.lto_P2_1_WriteRegValue.b949bba8,"",%progbits
 320 0000 789C654F 		.ascii	"x\234eO=HBQ\030\375\316}O1l\220\246r\012B\\B(hi\012"
 320      3D484251 
 320      18FDCE7D 
 320      4F316C90 
 320      A6720A42 
 321 001a 0A5A051B 		.ascii	"\012Z\005\033\005\021{QK\202\331\354}a\324\340\340\020"
 321      05117B51 
 321      4B82D9EC 
 321      7D61D4E0 
 321      E010
 322 002c 118993F4 		.ascii	"\021\211\223\364\253e\020\355\217B\020\202\242\240\304"
 322      AB6510ED 
 322      8F421082 
 322      A2A0C4
 323 003b 86025128 		.ascii	"\206\002Q(hH\024\314!\354\2739v\341\362}\347p\3569\347"
 323      684814CC 
 323      21ECBB39 
 323      76E1F27D 
 323      E770EE39 
 324 0050 6AF4FFB8 		.ascii	"j\364\377\270\371zA4\316\023\032A\244\357\210L\207\000"
 324      F97A4134 
 324      CE131A41 
 324      A4EF884C 
 324      8700
 325 0062 D442A084 		.ascii	"\324B\240\204@\002\037\242)\220\266\362{N\357\201\224"
 325      40021FA2 
 325      2990B6F2 
 325      7B4EEF81 
 325      94
 326 0073 F2AB9619 		.ascii	"\362\253\226\031\331\034\356\012\242\226\350\333\340"
 326      D91CEE0A 
 326      A296E8DB 
 326      E0
 327 0080 085E96DC 		.ascii	"\010^\226\334t>\267l\332\030\210\367\333\332wk\360]"
 327      743EB76C 
 327      DA1888F7 
 327      DBDA776B 
ARM GAS  C:\Users\Thomas\AppData\Local\Temp\ccjk6mHM.s 			page 25


 327      F05D
 328 0092 74055C0A 		.ascii	"t\005\\\012\356W\032mMA!\024\254V\037S\016ON\312\015"
 328      EE571A6D 
 328      4D412114 
 328      AC561F53 
 328      0E4F4ECA 
 329 00a7 AB7C2167 		.ascii	"\253|!g\230\327p\014\215\375p\0027N\341&\246\010yx\224"
 329      98D7700C 
 329      8DFD7002 
 329      374EE126 
 329      A6087978 
 330 00bc BC99FCA9 		.ascii	"\274\231\374\2518\355I\316v\3653Q\200\235kSq\310\222"
 330      38ED49CE 
 330      76F53351 
 330      809D6B53 
 330      71C892
 331 00cf BDDE657B 		.ascii	"\275\336e{\247<\255\353\334Z\351\251\316\012U\277\301"
 331      A73CADEB 
 331      DC5AE9A9 
 331      CE0A55BF 
 331      C1
 332 00e0 593CB517 		.ascii	"Y<\265\027\\\3576\333\013\352\015{\225J\317)\241\232"
 332      5CEF36DB 
 332      0BEA0D7B 
 332      954ACF29 
 332      A19A
 333 00f2 E8DB6553 		.ascii	"\350\333eS\352\312\376\255~\377\340\370\243H\301\303"
 333      EACAFEAD 
 333      7EFFE0F8 
 333      A348C1C3 
 334 0102 AB52C196 		.ascii	"\253R\301\226E\306L\242+l8\343B\347\\\210PD\026\035"
 334      45C64CA2 
 334      2B6C38E3 
 334      42E75C88 
 334      5044161D 
 335 0116 367D8569 		.ascii	"6}\205i=\005\224\237\372|]@\305p\350\250/8o\254\032"
 335      3D05949F 
 335      FA7C5D40 
 335      C570E8A8 
 335      2F386FAC 
 336 012b B170DC58 		.ascii	"\261p\334X\014\005\242\353\261\210\021\364\007\242\263"
 336      0C05A2EB 
 336      B18811F4 
 336      07A2B3
 337 013a 5341FF64 		.ascii	"SA\377dh\302\027\241\201\265\345\225\245\370\\8\036"
 337      68C217A1 
 337      81B5E595 
 337      A5F85C38 
 337      1E
 338 014b FE0528A7 		.ascii	"\376\005(\247y\257"
 338      79AF
 339              		.text
 340              		.section	.gnu.lto_P2_1_ReadRegValue.b949bba8,"",%progbits
 341 0000 789C6D52 		.ascii	"x\234mR]HTA\024>g\346\336\353\272\376$=\356\213\301"
 341      5D485441 
 341      143E67E6 
 341      DEEBBAFE 
ARM GAS  C:\Users\Thomas\AppData\Local\Temp\ccjk6mHM.s 			page 26


 341      243DEE8B 
 342 0015 125A8495 		.ascii	"\022Z\204\225\320K\275\004\021\321\233\340\353\202\210"
 342      D04BBD04 
 342      11D19BE0 
 342      EB8288
 343 0024 AE104482 		.ascii	"\256\020D\202?\217\342\254^H2\333$13\264zP\327L\255"
 343      3F8FE2AC 
 343      5E4832DB 
 343      243133B4 
 343      7A50D74C 
 344 0039 34CD9F60 		.ascii	"4\315\237`\327\"\205L\021MK\026\333\304\205\364!\262"
 344      D722854C 
 344      114D4B16 
 344      DBC485F4 
 344      21B2
 345 004b 2DB7456A 		.ascii	"-\267Ej;3\327\2056\273\260{g\346~\347\233\363}\337\341"
 345      3B33D785 
 345      36BBB07B 
 345      67E67EE7 
 345      9BF37DDF 
 346 0060 B0FF394F 		.ascii	"\260\3779O\277J\016p\202\336h\000\262\233s\000\036\033"
 346      BF4A0E70 
 346      82DE6800 
 346      B29B7300 
 346      1E1B
 347 0072 43CD5A70 		.ascii	"C\315Zpk\021\260i\214_\237\006\020v\335L\001\221\256"
 347      6B11B069 
 347      8C5F9F06 
 347      1076DD4C 
 347      0191AE
 348 0085 23CA7340 		.ascii	"#\312s@\250e\\\323\261\226i\026\341&\333f\370f\375g"
 348      A8655CD3 
 348      B1966916 
 348      E126DB66 
 348      F866FD67 
 349 0099 24FD338B 		.ascii	"$\3753\2131\310\002\332\266\257\204\277s\271E&\267\023"
 349      31C802DA 
 349      B6AF84BF 
 349      73B94526 
 349      B713
 350 00ab 91B97523 		.ascii	"\221\271u#\247K\210\272\257\337\026\212\333Z\356c\214"
 350      A74B88BA 
 350      AFDF168A 
 350      DB5AEE63 
 350      8C
 351 00bc 318830C0 		.ascii	"1\2100\300\036t\240\017\035\222\267\027s$\2667\370\303"
 351      1E74A00F 
 351      1D92B717 
 351      7324B637 
 351      F8C3
 352 00ce 9FC99D28 		.ascii	"\237\311\235(\327\336\306\316\305\014\347\003\252\013"
 352      D7DEC6CE 
 352      C50CE703 
 352      AA0B
 353 00dc DD69BA9A 		.ascii	"\335i\272\232.|\302\014\305\343\331T\214\017\221'\327"
 353      2E7CC20C 
 353      C5E3D954 
ARM GAS  C:\Users\Thomas\AppData\Local\Temp\ccjk6mHM.s 			page 27


 353      8C0F9127 
 353      D7
 354 00ed CB874AB6 		.ascii	"\313\207J\266\315_+i\206)\204\310\302>t\312K\210\373"
 354      CD5F2B69 
 354      862984C8 
 354      C23E74CA 
 354      4B88FB
 355 0100 111A08C0 		.ascii	"\021\032\010\300\344\011an\007\272Z\355\026m,\374:M"
 355      E409616E 
 355      07BA5AED 
 355      166D2CFC 
 355      3A4D
 356 0112 B4256879 		.ascii	"\264%hy\202\366\230\003\217$H\261\037\235\203\007\375"
 356      82F69803 
 356      8F2448B1 
 356      1F9D8307 
 356      FD
 357 0123 221E1F9A 		.ascii	"\"\036\037\232mm8n\3308\304\230\246\321\237\256\203"
 357      6D6D386E 
 357      D838C498 
 357      A6D19FAE 
 357      83
 358 0134 64341404 		.ascii	"d4\024\004`\203\256\"\2536H\232\231\302\303\214\003"
 358      6083AE22 
 358      AB36489A 
 358      99C2C38C 
 358      03
 359 0145 F9C75771 		.ascii	"\371\307Wqj\347\332\316f\276\354!\3128]\2776;\022\260"
 359      6AE7DACE 
 359      66BEEC21 
 359      CA385DBF 
 359      363B12B0 
 360 0159 4B738CF7 		.ascii	"Ks\214\3673\036\241\311\256?n\314/\330\324\221\0221"
 360      331EA1C9 
 360      AE3F6ECC 
 360      2FD8D491 
 360      1231
 361 016b DA12FA94 		.ascii	"\332\022\372\224\321\201w=&\031\225\202\003$rP\212\304"
 361      D181773D 
 361      26199582 
 361      03247250 
 361      8AC4
 362 017d C7D8413A 		.ascii	"\307\330A: L\336S\030|\031\353\224\335\336\267S\301"
 362      204CDE53 
 362      187C19EB 
 362      94DDDEB7 
 362      53C1
 363 018f 03FCA8F2 		.ascii	"\003\374\250\362l\3117S\247Y\342\274M\311\342\236\374"
 363      6CC93753 
 363      A759E2BC 
 363      4DC9E29E 
 363      FC
 364 01a0 47DC53E5 		.ascii	"G\334S\345\310|\350\245W\305\307\351\373\020]E\314\376"
 364      C87CE8A5 
 364      57C5C7E9 
 364      FB105D45 
 364      CCFE
ARM GAS  C:\Users\Thomas\AppData\Local\Temp\ccjk6mHM.s 			page 28


 365 01b2 68636692 		.ascii	"hcf\222\241\376\261\366\303\022\257\354\2140\374\327"
 365      A1FEB1F6 
 365      C312AFEC 
 365      8C30FCD7 
 366 01c2 6E69020E 		.ascii	"ni\002\016\323L\001>#\277\373\025ss\363pg\246b\376\215"
 366      D34C013E 
 366      23BFFB15 
 366      7373F370 
 366      67A662FE 
 367 01d7 80231675 		.ascii	"\200#\026u\226\004\320\307\351W\343\223zn7U\207&\373"
 367      9604D0C7 
 367      E957E393 
 367      7A6E3755 
 367      8726FB
 368 01ea 83676D84 		.ascii	"\203gm\204J\3645\212\271\252\221 \326+t\224\311\202"
 368      4AF4358A 
 368      B9AA9120 
 368      D62B7494 
 368      C982
 369 01fc CEC51B03 		.ascii	"\316\305\033\003\254fW4\010\302\332\"4\007\362>|\216"
 369      AC665734 
 369      08C2DA22 
 369      3407F23E 
 369      7C8E
 370 020e 351447AA 		.ascii	"5\024G\252\242Va\020\032\336\241\371\241>2\354\260\214"
 370      A2566110 
 370      1ADEA1F9 
 370      A13E32EC 
 370      B08C
 371 0220 37FE9E4A 		.ascii	"7\376\236J\235T\216\355MM\230\3512.\025\323\362\226"
 371      9D548EED 
 371      4D4D98E9 
 371      322E15D3 
 371      F296
 372 0232 DD426B84 		.ascii	"\335Bk\204\276\327\263\313$\330\336\266/%\273J\251{"
 372      BED7B3CB 
 372      24D8DEB6 
 372      2F25BB4A 
 372      A97B
 373 0244 62E9566A 		.ascii	"b\351Vj\"\2454\034\247\224&TJ\2232%E\370e\353\264E\250"
 373      22A5341C 
 373      A7942654 
 373      4A933225 
 373      45F865EB 
 374 025b 27A5EAF1 		.ascii	"'\245\352\361g'\347\372BVP\367\342\214\032\325>\251"
 374      6727E7FA 
 374      425650F7 
 374      E28C1AD5 
 374      3EA9
 375 026d 408735F4 		.ascii	"@\2075\364\370\243\253l\217\001\344\204!\365Jcv(\317"
 375      F8A3AB6C 
 375      8F01E484 
 375      21F54A63 
 375      7628CF
 376 0280 75C17DC5 		.ascii	"u\301}\305]Q\\\345.-*,\257\256(q\273\012\012\313\317"
 376      5D515CE5 
 376      2E2D2A2C 
ARM GAS  C:\Users\Thomas\AppData\Local\Temp\ccjk6mHM.s 			page 29


 376      AFAE2871 
 376      BB0A0ACB 
 377 0295 9D7215E4 		.ascii	"\235r\025\344\027\235\314+\001\243\302]Y}\271\312(\273"
 377      179DCC2B 
 377      01A3C25D 
 377      597DB9CA 
 377      28BB
 378 02a7 54567EB1 		.ascii	"TV~\261\364\0170\347G\301"
 378      F40F30E7 
 378      47C1
 379              		.text
 380              		.section	.gnu.lto_.symbol_nodes.b949bba8,"",%progbits
 381 0000 789C55CF 		.ascii	"x\234U\317\261\015\3020\024\004\320\263\177\034;\211"
 381      B10DC230 
 381      1404D0B3 
 381      7F1C3B89 
 382 0010 93929609 		.ascii	"\223\222\226\011`\305\213\322\320\262\000\210D\254A"
 382      60C58BD2 
 382      D0B20088 
 382      44AC41
 383 001f 13513303 		.ascii	"\023Q3\003\364\210\021\020FI\341\377\233\323\323]\363"
 383      F4881110 
 383      4649E1FF 
 383      9BD3D35D 
 383      F3
 384 0030 05C0DE60 		.ascii	"\005\300\336`9\333\0218>\000\322\234\246\000\353iV\343"
 384      39DB1138 
 384      3E00D29C 
 384      A600EB69 
 384      56E3
 385 0042 7C49165A 		.ascii	"|I\026ZeGQ\266,\224\015]n\007\214\226\260%K5+\350\225"
 385      654751B6 
 385      2C940D5D 
 385      6E078C96 
 385      B0254B35 
 386 0059 038372C5 		.ascii	"\003\203r\305J\271f\255\334\260\311mZ\306\305\350\373"
 386      4AB966AD 
 386      DCB0C96D 
 386      5AC6C5E8 
 386      FB
 387 006a C4C836A3 		.ascii	"\304\3106\243\244o\207q#\322\341\372\374\032\221\026"
 387      A46F8771 
 387      23D2E1FA 
 387      FC1A9116 
 388 007a F757CA42 		.ascii	"\367W\312B0\374\323\011\346\303{+~\355\375\332\007\277"
 388      30FCD309 
 388      E6C37B2B 
 388      7EEDFDDA 
 388      07BF
 389 008c F411986E 		.ascii	"\364\021\230n\237\035~\340<P7"
 389      9F1D7EE0 
 389      3C5037
 390              		.text
 391              		.section	.gnu.lto_.refs.b949bba8,"",%progbits
 392 0000 789C6366 		.ascii	"x\234cf``\340d\200\000&V\0066FF6.\006\000\001z\000,"
 392      6060E064 
 392      80002656 
ARM GAS  C:\Users\Thomas\AppData\Local\Temp\ccjk6mHM.s 			page 30


 392      06364646 
 392      362E0600 
 393              		.text
 394              		.section	.gnu.lto_.decls.b949bba8,"",%progbits
 395 0000 789C9D55 		.ascii	"x\234\235UiLTW\024~w\33600\013`\233\024[\323\244cLL"
 395      694C5457 
 395      147E77DE 
 395      30300B60 
 395      9B145BD3 
 396 0018 9A18A236 		.ascii	"\232\030\24265\366WM\251[\323\305Hj\177hb\020_\354$"
 396      35F6574D 
 396      A95BD3C5 
 396      486A7F68 
 396      62105FEC 
 397 002d 060C0E49 		.ascii	"\006\014\016I\371\325\213\240\262h\245\250\025\250("
 397      F9D58BA0 
 397      B268A5A8 
 397      15A828
 398 003c 2EB82F03 		.ascii	".\270/\003\202\310>,\216\240\242\250\010\002\012\003"
 398      82C83E2C 
 398      8EA0A2A8 
 398      08020A03 
 399 004c 23B2AAC3 		.ascii	"#\262\252\303fP\253\323s\227\347\2747\0055\275\311\201"
 399      6650ABD3 
 399      7397E7BC 
 399      370535BD 
 399      C981
 400 005e 77DF9CF3 		.ascii	"w\337\234\363}\337\271\347\274sEA\020N\210\202\340\201"
 400      7DDFB9E7 
 400      BC734541 
 400      104E8882 
 400      E081
 401 0070 956E1084 		.ascii	"\225n\020\204\337\221 \004\302\273\025`\360(\204\010"
 401      DF912004 
 401      C2BB1560 
 401      F0288408 
 402 0080 6C0581E5 		.ascii	"l\005\201\345\201\025\202]\002+\001+\003\253\000\263"
 402      8115825D 
 402      022B012B 
 402      03AB00B3 
 403 0090 83558339 		.ascii	"\203U\2039\300\352\301\232\300Z\300Z\301\3329N\207\240"
 403      C0EAC19A 
 403      C05AC05A 
 403      C1DA394E 
 403      87A0
 404 00a2 5E04CB1F 		.ascii	"^\004\313\037\3544\347X\006\346\002\353\002\373\216"
 404      EC34E758 
 404      06E602EB 
 404      02FB8E
 405 00b1 F393A551 		.ascii	"\363\223\245Q\360\202L\341!X\017\330#\037<\362\273V"
 405      F0824CE1 
 405      21580FD8 
 405      231F3CF2 
 405      BB56
 406 00c3 81D70B76 		.ascii	"\201\327\013v^\201Q\310q\210\226>\237X\222\217\037\347"
 406      5E8151C8 
 406      7188963E 
ARM GAS  C:\Users\Thomas\AppData\Local\Temp\ccjk6mHM.s 			page 31


 406      9F58928F 
 406      1FE7
 407 00d5 0CE118B2 		.ascii	"\014\341\030\262\0269\376\022\317\317w\221s\320\363"
 407      1639FE12 
 407      CFCF7791 
 407      73D0F3
 408 00e4 5899BB1F 		.ascii	"X\231\273\037\354\212\002c\000\254\226\373\213<\246"
 408      EC8A0263 
 408      00AC96FB 
 408      8B3CA6
 409 00f3 9D9F8FEF 		.ascii	"\235\237\217\357\"g\252Sh\2211\006\301.*\364\224q\034"
 409      2267AA53 
 409      68913106 
 409      C12E2AF4 
 409      94711C
 410 0106 DF45EA11 		.ascii	"\337E\352\021\240\210\037\362\311G\211\343\307\375\345"
 410      A0881FF2 
 410      C94789E3 
 410      C7FDE5
 411 0115 DC64CCC9 		.ascii	"\334d\314\311\352e\377\037y\332\337\222g\365{\346Y\315"
 411      EA65FF1F 
 411      79DADF92 
 411      67F57BE6 
 411      59CD
 412 0127 717C9743 		.ascii	"q|\227C\360\326L\326\243\254\031\022&\257\027\351O\355"
 412      F0D64CD6 
 412      A3AC1912 
 412      26AF17E9 
 412      4FED
 413 0139 5B62EA27 		.ascii	"[b\352'\211iRh%\337\201\011\254\021l\030\314\255\210"
 413      89695268 
 413      25DF8109 
 413      AC116C18 
 413      CCAD88
 414 014c 6D9A24B6 		.ascii	"m\232$\266\205\373+\343\010\267\231\363\217\202\215"
 414      85FB2BE3 
 414      08B799F3 
 414      8F828D
 415 015b 08DE7E1D 		.ascii	"\010\336~\035\007\033\343\261\"\217\227{\327w\015kP"
 415      071BE3B1 
 415      228F977B 
 415      D7770D6B 
 415      50
 416 016c 73E5F6ED 		.ascii	"s\345\366\355\001\242\006\221\347#\031]M\2069\2470\306"
 416      01A20691 
 416      E723195D 
 416      4D8639A7 
 416      30C6
 417 017e 49D86E47 		.ascii	"I\330nG^\247\370c\245;\374\3734(\304@\267\177\\\313"
 417      5EA7F863 
 417      A53BFCFB 
 417      3428C440 
 417      B77F5CCB 
 418 0192 AA12E9D6 		.ascii	"\252\022\351\326C\3424\255\255{\236\213\3100;\011\343"
 418      43E234AD 
 418      AD7B9E8B 
 418      C8303B09 
ARM GAS  C:\Users\Thomas\AppData\Local\Temp\ccjk6mHM.s 			page 32


 418      E3
 419 01a3 2DD89D8E 		.ascii	"-\330\235\216\305\217\0054g\006\372|\206\200\316\240"
 419      C58F0534 
 419      6706FA7C 
 419      8680CEA0 
 420 01b3 D9E0864E 		.ascii	"\331\340\206N\2409\002:\211f\240Sh\206p\024\010\334"
 420      A039023A 
 420      8966A053 
 420      68867014 
 420      08DC
 421 01c5 079BDA3E 		.ascii	"\007\233\332>\305X\213N#\003:\216D\352\001\207@\030"
 421      C5588B4E 
 421      23033A8E 
 421      44EA0187 
 421      4018
 422 01d7 3869F1B9 		.ascii	"8i\361\271\261\006#\260\004\031\314d[\222^\227\241\203"
 422      B10623B0 
 422      0419CC64 
 422      5B925E97 
 422      A183
 423 01e9 ADC9A025 		.ascii	"\255\311\240%\333\344D\2338}/ \341\264\004<\215\341"
 423      DBE4449B 
 423      387D2F20 
 423      E1B4043C 
 423      8DE1
 424 01fb 9C058273 		.ascii	"\234\005\202s@ \240\363h:\374]\255eH\325\011\215\365"
 424      4020A0F3 
 424      683AFC5D 
 424      AD6548D5 
 424      098DF5
 425 020e 01E21734 		.ascii	"\001\342\0274\307;\265\365\367t\346\003\330nsg\273J"
 425      C73BB5F5 
 425      F774E603 
 425      D86E7367 
 425      BB4A
 426 0220 BFCA4CCB 		.ascii	"\277\312L\313\331\202_{<\010kH\020\262\275\221\"\220"
 426      D9825F7B 
 426      3C086B48 
 426      10B2BD91 
 426      2290
 427 0232 6756993C 		.ascii	"gV\231<d\206\310\264\255UiZ-\264\024\345ZMU4:\222\035"
 427      6486C8B4 
 427      AD55695A 
 427      2DB414E5 
 427      5A4D5534 
 428 0249 6F917181 		.ascii	"o\221q\201\312\310G\\G\356\251\370<\275\030Eu<\356\335"
 428      CAC8475C 
 428      47EEA9F8 
 428      3CBD1845 
 428      753CEEDD 
 429 025d 3BE10F3A 		.ascii	";\341\017:\2346\234\211s4\030\246'H\200\000T\240\220"
 429      9C369C89 
 429      733418A6 
 429      27488000 
 429      54A090
 430 0270 50204B28 		.ascii	"P K(\244\022J_v7i\225t+B\024l\027UI\017\365t\325\004"
 430      A4124A5F 
ARM GAS  C:\Users\Thomas\AppData\Local\Temp\ccjk6mHM.s 			page 33


 430      76376995 
 430      742B4214 
 430      6C175549 
 431 0289 8BF188B2 		.ascii	"\213\361\210\262\035\250\335\022B\311\234\3455\222="
 431      1DA8DD12 
 431      42C99CE5 
 431      35923D
 432 0298 11FFE3F1 		.ascii	"\021\377\343\361$\004\320\010T\244\240+\222\351.Q\272"
 432      2404D008 
 432      54A4A02B 
 432      92E92E51 
 432      BA
 433 02a9 9B0DAE72 		.ascii	"\233\015\256r\275\230\312 z<\031'\364\024#gW\256\256"
 433      BD98CA20 
 433      7A3C1927 
 433      F4142367 
 433      57AEAE
 434 02bc 0EDB3D9E 		.ascii	"\016\333=\236\257)@\261\002\240X\006(\241\000\273\262"
 434      AF2940B1 
 434      02A05806 
 434      28A100BB 
 434      B2
 435 02cd DCF783C5 		.ascii	"\334\367\203\305,\0060\332R\375W\000\003\330y\204\001"
 435      2C0630DA 
 435      52FD5700 
 435      03D87984 
 435      01
 436 02de 54624421 		.ascii	"TbD!J\025\020\2452D\031\205\310,\263\345\006\212\307"
 436      4A1510A5 
 436      32441985 
 436      C82CB3E5 
 436      068AC7
 437 02f1 18C4BDC4 		.ascii	"\030\304\275\304\343UF\200\310\261\345\264\347\343E"
 437      E3554680 
 437      C8B1E5B4 
 437      E7E345
 438 0300 340F9122 		.ascii	"4\017\221\"\224+\020\312e\204\012\212\220?v\373\256"
 438      942B10CA 
 438      65840A8A 
 438      903F76FB 
 438      AE
 439 0311 56CC6308 		.ascii	"V\314c\010\256\324\334\375~LD\245*\213J\005@\245\014"
 439      AED4DCFD 
 439      7E4C44A5 
 439      2A8B4A05 
 439      40A50C
 440 0324 60A7006D 		.ascii	"`\247\000mO\223k\365b\025\003\250q\236iDLB\377\021%"
 440      4F936BF5 
 440      621503A8 
 440      719E6944 
 440      4C42FF11 
 441 0339 409502A0 		.ascii	"@\225\002\240J\006\250\236\262s\306=]\271\232)KYKKY"
 441      4A06A89E 
 441      B273C63D 
 441      5DB99A29 
 441      4B594B4B 
 442 034e 23374EE1 		.ascii	"#7N\341\356\324W\376\3425\246 \257\361\202\303\304\317"
ARM GAS  C:\Users\Thomas\AppData\Local\Temp\ccjk6mHM.s 			page 34


 442      EED457FE 
 442      E235A620 
 442      AFF182C3 
 442      C4CF
 443 0360 F1A4F71C 		.ascii	"\361\244\367\034!\004]Vh\270,kpP\015o\377^\256\250Z"
 443      21045D56 
 443      68B82C6B 
 443      70500D6F 
 443      FF5EAEA8 
 444 0375 C779EBF8 		.ascii	"\307y\353\370\260Qlgtm\031O\307\375i\302\316\222~\336"
 444      B0516C67 
 444      746D194F 
 444      C7FD69C2 
 444      CE927EDE 
 445 0389 3B228D40 		.ascii	";\"\215@u\012\272:\231\256\236\322]\353\236\0305\321"
 445      750ABA3A 
 445      99AE9ED2 
 445      5DEB9E18 
 445      35D1
 446 039b 8F771A01 		.ascii	"\217w\032\001\311j\351\031\023\351\307\253!\333\354"
 446      C96AE919 
 446      13E9C7AB 
 446      21DBEC
 447 03aa 9127657A 		.ascii	"\221'ez\3611#\220\207\213\231\015\227}\203\023\005\001"
 447      F1312390 
 447      878B990D 
 447      977D8313 
 447      0501
 448 03bc 744B7860 		.ascii	"tKx`\272\274t\235;\256C\263\015ll4\263\261\321\010\362"
 448      BABC749D 
 448      3BAE43B3 
 448      0D6C6C34 
 448      B3B1D108 
 449 03d1 AF7BC786 		.ascii	"\257{\307\206\231\217\015:\201p\002\366;\021$\240\253"
 449      998F0D3A 
 449      817002F6 
 449      3B1124A0 
 449      AB
 450 03e2 90DE3548 		.ascii	"\220\3365H\017\335\204!d\346C\250\001^\336\200\227\300"
 450      0FDD8421 
 450      64E643A8 
 450      015EDE80 
 450      97C0
 451 03f4 547674E0 		.ascii	"Tvt\340\211\221\226\245\361MY:\013\237\025\031\246,"
 451      899196A5 
 451      F14D593A 
 451      0B9F1519 
 451      A62C
 452 0406 CB6D7A4C 		.ascii	"\313mzL\267\344\262$_\310y\242\023\307xo\326V\330\202"
 452      B7E4B224 
 452      5FC879A2 
 452      13C7786F 
 452      D656D882 
 453 041a E939B9B3 		.ascii	"\3519\271\263k\212\346\303G\315\006\013\215Bw\024Gu"
 453      6B8AE6C3 
 453      47CD060B 
 453      8D427714 
ARM GAS  C:\Users\Thomas\AppData\Local\Temp\ccjk6mHM.s 			page 35


 453      4775
 454 042c 473EAA26 		.ascii	"G>\252&zT\317\2676t\252J\323\250*\315]Ui\006:\356\\"
 454      7A54CFB7 
 454      3674AA4A 
 454      D3A82ACD 
 454      5D556906 
 455 0443 D688DBD9 		.ascii	"\326\210\333\331\274\336\235\225\276G\307J\263k\247"
 455      BCDE9D95 
 455      BE47C74A 
 455      B36BA7
 456 0452 C3845937 		.ascii	"\303\204Y7\322\020\324\254 l\226\011[(\341\320\331<"
 456      D210D4AC 
 456      206C9609 
 456      5B28E1D0 
 456      D93C
 457 0464 9B51CCE4 		.ascii	"\233Q\314\3443?\255\254\235`8\261\273\263\33637\023"
 457      333FADAC 
 457      9D6038B1 
 457      BBB3DE33 
 457      3713
 458 0476 1F926593 		.ascii	"\037\222e\223\206\272\247@\271'\243\264\262\3410\360"
 458      86BAA740 
 458      B927A3B4 
 458      B2E130F0 
 459 0486 2CD320DE 		.ascii	",\323 \336b(\235\247s7R\020\347+\227T\255\354\2216\005"
 459      62289DA7 
 459      73375210 
 459      E72B9754 
 459      ADEC9136 
 460 049b 429B8CD0 		.ascii	"B\233\214\320N\021\216\035\033)D\244+\010\302\353v["
 460      4E118E1D 
 460      1B2944A4 
 460      2B08C2EB 
 460      765B
 461 04ad 1119EFD0 		.ascii	"\021\031\357\320\2274\321G\366s\207\215\263\016\341"
 461      9734D147 
 461      F673878D 
 461      B30EE1
 462 04bc 9CC3B66C 		.ascii	"\234\303\266l\327U#\316\300\330\351\361|F\373\366>\303"
 462      D75523CE 
 462      C0D8E9F1 
 462      7C46FBF6 
 462      3EC3
 463 04ce E4778C40 		.ascii	"\344w\214@\366\360\367\001)u\007\232\005\301x_\352\321"
 463      F6F0F701 
 463      2975079A 
 463      05C1785F 
 463      EAD1
 464 04e0 00719C21 		.ascii	"\000q\234!\027>K)\0164$\221\266x\367\335\004\375\326"
 464      173E4B29 
 464      0E342491 
 464      B678F7DD 
 464      04FDD6
 465 04f3 7423A559 		.ascii	"t#\245Y\317n3\337\210\356)o\263\011\327\262D\274\010"
 465      CF6E33DF 
 465      88EE296F 
 465      B309D7B2 
ARM GAS  C:\Users\Thomas\AppData\Local\Temp\ccjk6mHM.s 			page 36


 465      44BC08
 466 0506 7581BA4E 		.ascii	"u\201\272No[:\221\367:K\356\316j0\231RH\203B\231\365"
 466      6F5B3A91 
 466      F73A4BEE 
 466      CE6A3099 
 466      52488342 
 467 051c 7541D4D9 		.ascii	"uA\324\331[g\0272\321\263\201\377\340=8\324\320\347"
 467      5B671732 
 467      D1B381FF 
 467      E03D38D4 
 467      D0E7
 468 052e 3FF320B9 		.ascii	"?\363 \271\212\355\337@\023\322K\210\035\336C4\223L"
 468      8AEDDF40 
 468      13D24B88 
 468      1DDE4334 
 468      934C
 469 0540 81FC6DB9 		.ascii	"\201\374m\271\210:\270\263\023F,\361\276^=\324k[j~A"
 469      883AB8B3 
 469      13462CF1 
 469      BE5E3DD4 
 469      6B5B6A7E 
 470 0555 20F5CAB9 		.ascii	" \365\312\271\276\035\373!\265\317#\3523q\250\353Q\260"
 470      BE1DFB21 
 470      B5CF23EA 
 470      3371A8EB 
 470      51B0
 471 0567 4A18B908 		.ascii	"J\030\271\010\275\302z\271\260^*,\241\270\252-@%\254"
 471      BDC27AB9 
 471      B05E2A2C 
 471      A1B8AA2D 
 471      4025AC
 472 057a 5086EB9B 		.ascii	"P\206\353\233\002\356\212\012\256\237\303\365S\270\264"
 472      02EE8A0A 
 472      AE9FC3F5 
 472      53B8B4
 473 0589 F4BF2BF4 		.ascii	"\364\277+\364*\357Z\225\367\000\367\036\240\336\035"
 473      2AEF5A95 
 473      F700F71E 
 473      A0DE1D
 474 0598 19F614AD 		.ascii	"\031\366\024\255\312\373\242\312{\020\231\344\243\037"
 474      CAFBA2CA 
 474      7B1099E4 
 474      A31F
 475 05a6 A401FB0E 		.ascii	"\244\001\373\016\270_\252\341\325so\210\303\017Q\357"
 475      B85FAAE1 
 475      D5736F88 
 475      C30F51EF 
 476 05b6 E21BED1D 		.ascii	"\342\033\355\035\242\370\202\265\215;i\347\240\226\265"
 476      A2F882B5 
 476      8D3B69E7 
 476      A096B5
 477 05c5 CD7B0E14 		.ascii	"\315{\016\024\315\276\263\017\340\256\223'\325\013\326"
 477      CDBEB30F 
 477      E0AE9327 
 477      D50BD6
 478 05d4 126E207C 		.ascii	"\022n |\354m\211'\310;\252&A~:\371\250\312\375\323!"
 478      EC6D8927 
ARM GAS  C:\Users\Thomas\AppData\Local\Temp\ccjk6mHM.s 			page 37


 478      C83BAA26 
 478      417E3AF9 
 478      A8CAFDD3 
 479 05e9 AAD270AB 		.ascii	"\252\322p\253\322\030\346i\014\3234v\364\215\0371\312"
 479      D218E669 
 479      0CD33476 
 479      F48D1F31 
 479      CA
 480 05fa CA93DE0B 		.ascii	"\312\223\336\013\377du\361~\243\212`DE0\312\011F)AW"
 480      FF6475F1 
 480      7EA38A60 
 480      444530CA 
 480      09462941 
 481 060f 9AA34C2F 		.ascii	"\232\243L/\177QI\357\370>\300\277*c\367\251@\025\372"
 481      7F5149EF 
 481      F83EC0BF 
 481      2A63F7A9 
 481      4015FA
 482 0622 980A7D9C 		.ascii	"\230\012}\234\243\223\377~\261\226(\353B\335\322\037"
 482      A393FF7E 
 482      B19628EB 
 482      42DDD21F 
 483 0632 7F368709 		.ascii	"\1776\207\011\263B\327,\225\242\244\230\010\253\264"
 483      B342D72C 
 483      95A2A498 
 483      08ABB4
 484 0641 7E6D7874 		.ascii	"~mxtlL\244\264fExt\330\227k\"\343\254q\233\244\315\241"
 484      6C4CA4B4 
 484      66457874 
 484      D8976B22 
 484      E3AC719B 
 485 0658 BF0A9FAC 		.ascii	"\277\012\237\254\230\277v\336\332\245\222u\311\362%"
 485      98BF76DE 
 485      DAA59275 
 485      C9F225
 486 0667 3F855B23 		.ascii	"?\205[#\254\261\233C7E\304XC\347\232\247\214&!\241\221"
 486      ACB19B43 
 486      3745C458 
 486      43E79AA7 
 486      8C2621A1 
 487 067c C287FF0D 		.ascii	"\302\207\377\015\325\323W\313\243,\326 \372\2648*b\335"
 487      D5D357CB 
 487      A32CD620 
 487      FAB4382A 
 487      62DD
 488 068e 46697994 		.ascii	"Fiy\224\325\250\330\032\3503\004\304X\203\351\343\267"
 488      D5A8D81A 
 488      E83304C4 
 488      5883E9E3 
 488      B7
 489 069f 96CDDC4D 		.ascii	"\226\315\334M\317\177\212\336\304~\011\227\254\360\366"
 489      CF7F8ADE 
 489      C47E0997 
 489      ACF0F6
 490 06ae 87E8F5D2 		.ascii	"\207\350\365\322\0072\031\354\031\227\216\244:o\001"
 490      073219EC 
 490      19978EA4 
ARM GAS  C:\Users\Thomas\AppData\Local\Temp\ccjk6mHM.s 			page 38


 490      3A6F01
 491 06bd 53F14B8C 		.ascii	"S\361K\214\305*\255\2246\254\212\330\030\313}WJ\021"
 491      C52AAD94 
 491      36AC8AD8 
 491      18CB7D57 
 491      4A11
 492 06cf EBE5371F 		.ascii	"\353\3457\037\205\305-\376\315b\015\003/Kd\304\306p"
 492      85C52DFE 
 492      CD620D03 
 492      2F4B64C4 
 492      C670
 493 06e1 29D26A89 		.ascii	")\322j\211\216\2329e\206aq\337[\326\301\351\204@\\\224"
 493      8E9A3965 
 493      866171DF 
 493      5BD6C1E9 
 493      84405C94 
 494 06f5 558AF109 		.ascii	"U\212\361\0114Q\002\013\244\271*\"F\033#mX\350\007\177"
 494      3451020B 
 494      A4B92A22 
 494      461B236D 
 494      58E8077F 
 495 0709 E62DF817 		.ascii	"\346-\370\027\024+%\355"
 495      142B25ED 
 496              		.text
 497              		.section	.gnu.lto_.symtab.b949bba8,"",%progbits
 498 0000 50325F31 		.ascii	"P2_1_GetFIFOStatus\000\000\000\000\000\000\000\000\000"
 498      5F476574 
 498      4649464F 
 498      53746174 
 498      75730000 
 499 001b 000000B5 		.ascii	"\000\000\000\265\000\000\000P2_1_Init\000\000\000\000"
 499      00000050 
 499      325F315F 
 499      496E6974 
 499      00000000 
 500 002f 00000000 		.ascii	"\000\000\000\000\000\000\000\000\270\000\000\000P2_"
 500      00000000 
 500      B8000000 
 500      50325F
 501 003e 315F456E 		.ascii	"1_EnableInt\000\000\000\000\000\000\000\000\000\000"
 501      61626C65 
 501      496E7400 
 501      00000000 
 501      00000000 
 502 0053 0000BA00 		.ascii	"\000\000\272\000\000\000P2_1_Enable\000\000\000\000"
 502      00005032 
 502      5F315F45 
 502      6E61626C 
 502      65000000 
 503 0068 00000000 		.ascii	"\000\000\000\000\000\000\000\000\274\000\000\000P2_"
 503      00000000 
 503      BC000000 
 503      50325F
 504 0077 315F5374 		.ascii	"1_Start\000\000\000\000\000\000\000\000\000\000\000"
 504      61727400 
 504      00000000 
 504      00000000 
ARM GAS  C:\Users\Thomas\AppData\Local\Temp\ccjk6mHM.s 			page 39


 504      0000
 505 0089 00BE0000 		.ascii	"\000\276\000\000\000P2_1_initVar\000\000\000\000\000"
 505      0050325F 
 505      315F696E 
 505      69745661 
 505      72000000 
 506 009f 00000000 		.ascii	"\000\000\000\000\000\000\000\336\000\000\000P2_1_Di"
 506      000000DE 
 506      00000050 
 506      325F315F 
 506      4469
 507 00b1 7361626C 		.ascii	"sableInt\000\000\000\000\000\000\000\000\000\000\000"
 507      65496E74 
 507      00000000 
 507      00000000 
 507      000000
 508 00c4 00C00000 		.ascii	"\000\300\000\000\000P2_1_Stop\000\000\000\000\000\000"
 508      0050325F 
 508      315F5374 
 508      6F700000 
 508      00000000 
 509 00d8 00000000 		.ascii	"\000\000\000\000\000\000\302\000\000\000P2_1_SetInt"
 509      0000C200 
 509      00005032 
 509      5F315F53 
 509      6574496E 
 510 00ed 4D6F6465 		.ascii	"Mode\000\000\000\000\000\000\000\000\000\000\000\000"
 510      00000000 
 510      00000000 
 510      00000000 
 511 00fd C6000000 		.ascii	"\306\000\000\000P2_1_GetIntStatus\000\000\000\000\000"
 511      50325F31 
 511      5F476574 
 511      496E7453 
 511      74617475 
 512 0117 00000000 		.ascii	"\000\000\000\000\000\000\000\311\000\000\000P2_1_Wr"
 512      000000C9 
 512      00000050 
 512      325F315F 
 512      5772
 513 0129 69746552 		.ascii	"iteRegValue\000\000\000\000\000\000\000\000\000\000"
 513      65675661 
 513      6C756500 
 513      00000000 
 513      00000000 
 514 013e 0000D400 		.ascii	"\000\000\324\000\000\000P2_1_ReadRegValue\000\000\000"
 514      00005032 
 514      5F315F52 
 514      65616452 
 514      65675661 
 515 0158 00000000 		.ascii	"\000\000\000\000\000\000\000\000\000\327\000\000\000"
 515      00000000 
 515      00D70000 
 515      00
 516 0165 43794578 		.ascii	"CyExitCriticalSection\000\000\002\000\000\000\000\000"
 516      69744372 
 516      69746963 
ARM GAS  C:\Users\Thomas\AppData\Local\Temp\ccjk6mHM.s 			page 40


 516      616C5365 
 516      6374696F 
 517 0182 00000000 		.ascii	"\000\000\000\000\331\000\000\000CyEnterCriticalSect"
 517      D9000000 
 517      4379456E 
 517      74657243 
 517      72697469 
 518 019d 696F6E00 		.ascii	"ion\000\000\002\000\000\000\000\000\000\000\000\000"
 518      00020000 
 518      00000000 
 518      000000
 519 01ac DB000000 		.ascii	"\333\000\000\000"
 520              		.text
 521              		.section	.gnu.lto_.opts,"",%progbits
 522 0000 272D666E 		.ascii	"'-fno-trapv' '-mcpu=cortex-m3' '-mthumb' '-g' '-O3'"
 522      6F2D7472 
 522      61707627 
 522      20272D6D 
 522      6370753D 
 523 0033 20272D66 		.ascii	" '-ffunction-sections' '-finline-functions' '-flto'"
 523      66756E63 
 523      74696F6E 
 523      2D736563 
 523      74696F6E 
 524 0066 20272D66 		.ascii	" '-ffat-lto-objects'\000"
 524      6661742D 
 524      6C746F2D 
 524      6F626A65 
 524      63747327 
 525              		.text
 526              		.cfi_sections	.debug_frame
 527              		.section	.text.P2_1_Start,"ax",%progbits
 528              		.align	2
 529              		.global	P2_1_Start
 530              		.thumb
 531              		.thumb_func
 532              		.type	P2_1_Start, %function
 533              	P2_1_Start:
 534              	.LFB0:
 535              		.file 1 ".\\Generated_Source\\PSoC5\\P2_1.c"
   1:.\Generated_Source\PSoC5/P2_1.c **** /*******************************************************************************
   2:.\Generated_Source\PSoC5/P2_1.c **** * File Name: P2_1.c
   3:.\Generated_Source\PSoC5/P2_1.c **** * Version 2.30
   4:.\Generated_Source\PSoC5/P2_1.c **** *
   5:.\Generated_Source\PSoC5/P2_1.c **** * Description:
   6:.\Generated_Source\PSoC5/P2_1.c **** *  This file provides the API source code for the Shift Register component.
   7:.\Generated_Source\PSoC5/P2_1.c **** *
   8:.\Generated_Source\PSoC5/P2_1.c **** * Note: none
   9:.\Generated_Source\PSoC5/P2_1.c **** *
  10:.\Generated_Source\PSoC5/P2_1.c **** ********************************************************************************
  11:.\Generated_Source\PSoC5/P2_1.c **** * Copyright 2008-2013, Cypress Semiconductor Corporation.  All rights reserved.
  12:.\Generated_Source\PSoC5/P2_1.c **** * You may use this file only in accordance with the license, terms, conditions,
  13:.\Generated_Source\PSoC5/P2_1.c **** * disclaimers, and limitations in the end user license agreement accompanying
  14:.\Generated_Source\PSoC5/P2_1.c **** * the software package with which this file was provided.
  15:.\Generated_Source\PSoC5/P2_1.c **** ********************************************************************************/
  16:.\Generated_Source\PSoC5/P2_1.c **** 
  17:.\Generated_Source\PSoC5/P2_1.c **** #include "P2_1.h"
ARM GAS  C:\Users\Thomas\AppData\Local\Temp\ccjk6mHM.s 			page 41


  18:.\Generated_Source\PSoC5/P2_1.c **** 
  19:.\Generated_Source\PSoC5/P2_1.c **** uint8 P2_1_initVar = 0u;
  20:.\Generated_Source\PSoC5/P2_1.c **** 
  21:.\Generated_Source\PSoC5/P2_1.c **** 
  22:.\Generated_Source\PSoC5/P2_1.c **** /*******************************************************************************
  23:.\Generated_Source\PSoC5/P2_1.c **** * Function Name: P2_1_Start
  24:.\Generated_Source\PSoC5/P2_1.c **** ********************************************************************************
  25:.\Generated_Source\PSoC5/P2_1.c **** *
  26:.\Generated_Source\PSoC5/P2_1.c **** * Summary:
  27:.\Generated_Source\PSoC5/P2_1.c **** *  Starts the Shift Register.
  28:.\Generated_Source\PSoC5/P2_1.c **** *
  29:.\Generated_Source\PSoC5/P2_1.c **** * Parameters:
  30:.\Generated_Source\PSoC5/P2_1.c **** *  None.
  31:.\Generated_Source\PSoC5/P2_1.c **** *
  32:.\Generated_Source\PSoC5/P2_1.c **** * Return:
  33:.\Generated_Source\PSoC5/P2_1.c **** *  None.
  34:.\Generated_Source\PSoC5/P2_1.c **** *
  35:.\Generated_Source\PSoC5/P2_1.c **** * Global Variables:
  36:.\Generated_Source\PSoC5/P2_1.c **** *  P2_1_initVar - used to check initial configuration, modified on
  37:.\Generated_Source\PSoC5/P2_1.c **** *  first function call.
  38:.\Generated_Source\PSoC5/P2_1.c **** *
  39:.\Generated_Source\PSoC5/P2_1.c **** * Reentrant:
  40:.\Generated_Source\PSoC5/P2_1.c **** *  No.
  41:.\Generated_Source\PSoC5/P2_1.c **** *
  42:.\Generated_Source\PSoC5/P2_1.c **** *******************************************************************************/
  43:.\Generated_Source\PSoC5/P2_1.c **** void P2_1_Start(void) 
  44:.\Generated_Source\PSoC5/P2_1.c **** {
 536              		.loc 1 44 0
 537              		.cfi_startproc
 538              		@ args = 0, pretend = 0, frame = 0
 539              		@ frame_needed = 0, uses_anonymous_args = 0
 540 0000 08B5     		push	{r3, lr}
 541              		.cfi_def_cfa_offset 8
 542              		.cfi_offset 3, -8
 543              		.cfi_offset 14, -4
  45:.\Generated_Source\PSoC5/P2_1.c ****     if(0u == P2_1_initVar)
 544              		.loc 1 45 0
 545 0002 0E4A     		ldr	r2, .L5
 546 0004 1378     		ldrb	r3, [r2]	@ zero_extendqisi2
 547 0006 4BB9     		cbnz	r3, .L2
 548              	.LVL0:
 549              	.LBB19:
 550              	.LBB20:
 551              	.LBB21:
  46:.\Generated_Source\PSoC5/P2_1.c ****     {
  47:.\Generated_Source\PSoC5/P2_1.c ****         P2_1_Init();
  48:.\Generated_Source\PSoC5/P2_1.c ****         P2_1_initVar = 1u; /* Component initialized */
  49:.\Generated_Source\PSoC5/P2_1.c ****     }
  50:.\Generated_Source\PSoC5/P2_1.c **** 
  51:.\Generated_Source\PSoC5/P2_1.c ****     P2_1_Enable();
  52:.\Generated_Source\PSoC5/P2_1.c **** }
  53:.\Generated_Source\PSoC5/P2_1.c **** 
  54:.\Generated_Source\PSoC5/P2_1.c **** 
  55:.\Generated_Source\PSoC5/P2_1.c **** /*******************************************************************************
  56:.\Generated_Source\PSoC5/P2_1.c **** * Function Name: P2_1_Enable
  57:.\Generated_Source\PSoC5/P2_1.c **** ********************************************************************************
  58:.\Generated_Source\PSoC5/P2_1.c **** *
ARM GAS  C:\Users\Thomas\AppData\Local\Temp\ccjk6mHM.s 			page 42


  59:.\Generated_Source\PSoC5/P2_1.c **** * Summary:
  60:.\Generated_Source\PSoC5/P2_1.c **** *  Enables the Shift Register.
  61:.\Generated_Source\PSoC5/P2_1.c **** *
  62:.\Generated_Source\PSoC5/P2_1.c **** * Parameters:
  63:.\Generated_Source\PSoC5/P2_1.c **** *  void.
  64:.\Generated_Source\PSoC5/P2_1.c **** *
  65:.\Generated_Source\PSoC5/P2_1.c **** * Return:
  66:.\Generated_Source\PSoC5/P2_1.c **** *  void.
  67:.\Generated_Source\PSoC5/P2_1.c **** *
  68:.\Generated_Source\PSoC5/P2_1.c **** *******************************************************************************/
  69:.\Generated_Source\PSoC5/P2_1.c **** void P2_1_Enable(void) 
  70:.\Generated_Source\PSoC5/P2_1.c **** {
  71:.\Generated_Source\PSoC5/P2_1.c ****     /* Changing address in Datapath Control Store
  72:.\Generated_Source\PSoC5/P2_1.c ****        from NOP to component state machine commands space */
  73:.\Generated_Source\PSoC5/P2_1.c ****     P2_1_SR_CONTROL |= P2_1_CLK_EN;
  74:.\Generated_Source\PSoC5/P2_1.c **** 
  75:.\Generated_Source\PSoC5/P2_1.c ****     P2_1_EnableInt();
  76:.\Generated_Source\PSoC5/P2_1.c **** }
  77:.\Generated_Source\PSoC5/P2_1.c **** 
  78:.\Generated_Source\PSoC5/P2_1.c **** 
  79:.\Generated_Source\PSoC5/P2_1.c **** /*******************************************************************************
  80:.\Generated_Source\PSoC5/P2_1.c **** * Function Name: P2_1_Init
  81:.\Generated_Source\PSoC5/P2_1.c **** ********************************************************************************
  82:.\Generated_Source\PSoC5/P2_1.c **** *
  83:.\Generated_Source\PSoC5/P2_1.c **** * Summary:
  84:.\Generated_Source\PSoC5/P2_1.c **** *  Initializes Tx and/or Rx interrupt sources with initial values.
  85:.\Generated_Source\PSoC5/P2_1.c **** *
  86:.\Generated_Source\PSoC5/P2_1.c **** * Parameters:
  87:.\Generated_Source\PSoC5/P2_1.c **** *  void.
  88:.\Generated_Source\PSoC5/P2_1.c **** *
  89:.\Generated_Source\PSoC5/P2_1.c **** * Return:
  90:.\Generated_Source\PSoC5/P2_1.c **** *  void.
  91:.\Generated_Source\PSoC5/P2_1.c **** *
  92:.\Generated_Source\PSoC5/P2_1.c **** *******************************************************************************/
  93:.\Generated_Source\PSoC5/P2_1.c **** void P2_1_Init(void) 
  94:.\Generated_Source\PSoC5/P2_1.c **** {
  95:.\Generated_Source\PSoC5/P2_1.c ****     P2_1_SetIntMode(P2_1_INT_SRC);
  96:.\Generated_Source\PSoC5/P2_1.c **** }
  97:.\Generated_Source\PSoC5/P2_1.c **** 
  98:.\Generated_Source\PSoC5/P2_1.c **** 
  99:.\Generated_Source\PSoC5/P2_1.c **** /*******************************************************************************
 100:.\Generated_Source\PSoC5/P2_1.c **** * Function Name: P2_1_Stop
 101:.\Generated_Source\PSoC5/P2_1.c **** ********************************************************************************
 102:.\Generated_Source\PSoC5/P2_1.c **** *
 103:.\Generated_Source\PSoC5/P2_1.c **** * Summary:
 104:.\Generated_Source\PSoC5/P2_1.c **** *  Disables the Shift Register
 105:.\Generated_Source\PSoC5/P2_1.c **** *
 106:.\Generated_Source\PSoC5/P2_1.c **** * Parameters:
 107:.\Generated_Source\PSoC5/P2_1.c **** *  None.
 108:.\Generated_Source\PSoC5/P2_1.c **** *
 109:.\Generated_Source\PSoC5/P2_1.c **** * Return:
 110:.\Generated_Source\PSoC5/P2_1.c **** *  None.
 111:.\Generated_Source\PSoC5/P2_1.c **** *
 112:.\Generated_Source\PSoC5/P2_1.c **** *******************************************************************************/
 113:.\Generated_Source\PSoC5/P2_1.c **** void P2_1_Stop(void) 
 114:.\Generated_Source\PSoC5/P2_1.c **** {
 115:.\Generated_Source\PSoC5/P2_1.c ****     /*changing Datapath Control Store address to NOP space*/
ARM GAS  C:\Users\Thomas\AppData\Local\Temp\ccjk6mHM.s 			page 43


 116:.\Generated_Source\PSoC5/P2_1.c ****     P2_1_SR_CONTROL &= ((uint8) ~P2_1_CLK_EN);
 117:.\Generated_Source\PSoC5/P2_1.c ****     P2_1_DisableInt();
 118:.\Generated_Source\PSoC5/P2_1.c **** }
 119:.\Generated_Source\PSoC5/P2_1.c **** 
 120:.\Generated_Source\PSoC5/P2_1.c **** 
 121:.\Generated_Source\PSoC5/P2_1.c **** /*******************************************************************************
 122:.\Generated_Source\PSoC5/P2_1.c **** * Function Name: P2_1_EnableInt
 123:.\Generated_Source\PSoC5/P2_1.c **** ********************************************************************************
 124:.\Generated_Source\PSoC5/P2_1.c **** *
 125:.\Generated_Source\PSoC5/P2_1.c **** * Summary:
 126:.\Generated_Source\PSoC5/P2_1.c **** *  Enables the Shift Register interrupt.
 127:.\Generated_Source\PSoC5/P2_1.c **** *
 128:.\Generated_Source\PSoC5/P2_1.c **** * Parameters:
 129:.\Generated_Source\PSoC5/P2_1.c **** *  None.
 130:.\Generated_Source\PSoC5/P2_1.c **** *
 131:.\Generated_Source\PSoC5/P2_1.c **** * Return:
 132:.\Generated_Source\PSoC5/P2_1.c **** *  None.
 133:.\Generated_Source\PSoC5/P2_1.c **** *
 134:.\Generated_Source\PSoC5/P2_1.c **** *******************************************************************************/
 135:.\Generated_Source\PSoC5/P2_1.c **** void P2_1_EnableInt(void) 
 136:.\Generated_Source\PSoC5/P2_1.c **** {
 137:.\Generated_Source\PSoC5/P2_1.c ****     uint8 interruptState;
 138:.\Generated_Source\PSoC5/P2_1.c **** 
 139:.\Generated_Source\PSoC5/P2_1.c ****     interruptState = CyEnterCriticalSection();
 140:.\Generated_Source\PSoC5/P2_1.c ****     P2_1_SR_AUX_CONTROL |= P2_1_INTERRUPTS_ENABLE;
 141:.\Generated_Source\PSoC5/P2_1.c ****     CyExitCriticalSection(interruptState);
 142:.\Generated_Source\PSoC5/P2_1.c **** }
 143:.\Generated_Source\PSoC5/P2_1.c **** 
 144:.\Generated_Source\PSoC5/P2_1.c **** 
 145:.\Generated_Source\PSoC5/P2_1.c **** /*******************************************************************************
 146:.\Generated_Source\PSoC5/P2_1.c **** * Function Name: P2_1_DisableInt
 147:.\Generated_Source\PSoC5/P2_1.c **** ********************************************************************************
 148:.\Generated_Source\PSoC5/P2_1.c **** *
 149:.\Generated_Source\PSoC5/P2_1.c **** * Summary:
 150:.\Generated_Source\PSoC5/P2_1.c **** *  Disables the Shift Register interrupt.
 151:.\Generated_Source\PSoC5/P2_1.c **** *
 152:.\Generated_Source\PSoC5/P2_1.c **** * Parameters:
 153:.\Generated_Source\PSoC5/P2_1.c **** *  None.
 154:.\Generated_Source\PSoC5/P2_1.c **** *
 155:.\Generated_Source\PSoC5/P2_1.c **** * Return:
 156:.\Generated_Source\PSoC5/P2_1.c **** *  None.
 157:.\Generated_Source\PSoC5/P2_1.c **** *
 158:.\Generated_Source\PSoC5/P2_1.c **** *******************************************************************************/
 159:.\Generated_Source\PSoC5/P2_1.c **** void P2_1_DisableInt(void) 
 160:.\Generated_Source\PSoC5/P2_1.c **** {
 161:.\Generated_Source\PSoC5/P2_1.c ****     uint8 interruptState;
 162:.\Generated_Source\PSoC5/P2_1.c **** 
 163:.\Generated_Source\PSoC5/P2_1.c ****     interruptState = CyEnterCriticalSection();
 164:.\Generated_Source\PSoC5/P2_1.c ****     P2_1_SR_AUX_CONTROL &= ((uint8) ~P2_1_INTERRUPTS_ENABLE);
 165:.\Generated_Source\PSoC5/P2_1.c ****     CyExitCriticalSection(interruptState);
 166:.\Generated_Source\PSoC5/P2_1.c **** }
 167:.\Generated_Source\PSoC5/P2_1.c **** 
 168:.\Generated_Source\PSoC5/P2_1.c **** 
 169:.\Generated_Source\PSoC5/P2_1.c **** /*******************************************************************************
 170:.\Generated_Source\PSoC5/P2_1.c **** * Function Name: P2_1_GetFIFOStatus
 171:.\Generated_Source\PSoC5/P2_1.c **** ********************************************************************************
 172:.\Generated_Source\PSoC5/P2_1.c **** *
ARM GAS  C:\Users\Thomas\AppData\Local\Temp\ccjk6mHM.s 			page 44


 173:.\Generated_Source\PSoC5/P2_1.c **** * Summary:
 174:.\Generated_Source\PSoC5/P2_1.c **** *  Returns current status of input or output FIFO.
 175:.\Generated_Source\PSoC5/P2_1.c **** *
 176:.\Generated_Source\PSoC5/P2_1.c **** * Parameters:
 177:.\Generated_Source\PSoC5/P2_1.c **** *  fifoId.
 178:.\Generated_Source\PSoC5/P2_1.c **** *
 179:.\Generated_Source\PSoC5/P2_1.c **** * Return:
 180:.\Generated_Source\PSoC5/P2_1.c **** *  FIFO status.
 181:.\Generated_Source\PSoC5/P2_1.c **** *
 182:.\Generated_Source\PSoC5/P2_1.c **** *******************************************************************************/
 183:.\Generated_Source\PSoC5/P2_1.c **** uint8 P2_1_GetFIFOStatus(uint8 fifoId) 
 184:.\Generated_Source\PSoC5/P2_1.c **** {
 185:.\Generated_Source\PSoC5/P2_1.c ****     uint8 result;
 186:.\Generated_Source\PSoC5/P2_1.c **** 
 187:.\Generated_Source\PSoC5/P2_1.c ****     result = P2_1_RET_FIFO_NOT_DEFINED;
 188:.\Generated_Source\PSoC5/P2_1.c **** 
 189:.\Generated_Source\PSoC5/P2_1.c ****     #if(0u != P2_1_USE_INPUT_FIFO)
 190:.\Generated_Source\PSoC5/P2_1.c ****         if(P2_1_IN_FIFO == fifoId)
 191:.\Generated_Source\PSoC5/P2_1.c ****         {
 192:.\Generated_Source\PSoC5/P2_1.c ****             switch(P2_1_GET_IN_FIFO_STS)
 193:.\Generated_Source\PSoC5/P2_1.c ****             {
 194:.\Generated_Source\PSoC5/P2_1.c ****                 case P2_1_IN_FIFO_FULL :
 195:.\Generated_Source\PSoC5/P2_1.c ****                     result = P2_1_RET_FIFO_FULL;
 196:.\Generated_Source\PSoC5/P2_1.c ****                     break;
 197:.\Generated_Source\PSoC5/P2_1.c **** 
 198:.\Generated_Source\PSoC5/P2_1.c ****                 case P2_1_IN_FIFO_EMPTY :
 199:.\Generated_Source\PSoC5/P2_1.c ****                     result = P2_1_RET_FIFO_EMPTY;
 200:.\Generated_Source\PSoC5/P2_1.c ****                     break;
 201:.\Generated_Source\PSoC5/P2_1.c **** 
 202:.\Generated_Source\PSoC5/P2_1.c ****                 case P2_1_IN_FIFO_PARTIAL:
 203:.\Generated_Source\PSoC5/P2_1.c ****                     result = P2_1_RET_FIFO_PARTIAL;
 204:.\Generated_Source\PSoC5/P2_1.c ****                     break;
 205:.\Generated_Source\PSoC5/P2_1.c ****                     
 206:.\Generated_Source\PSoC5/P2_1.c ****                 default:
 207:.\Generated_Source\PSoC5/P2_1.c ****                     /* Initial result value, while 
 208:.\Generated_Source\PSoC5/P2_1.c ****                        IN_FIFO_EMPTY case is false 
 209:.\Generated_Source\PSoC5/P2_1.c ****                      */
 210:.\Generated_Source\PSoC5/P2_1.c ****                     result = P2_1_RET_FIFO_EMPTY;
 211:.\Generated_Source\PSoC5/P2_1.c ****                     break;
 212:.\Generated_Source\PSoC5/P2_1.c ****             }   
 213:.\Generated_Source\PSoC5/P2_1.c ****         }
 214:.\Generated_Source\PSoC5/P2_1.c ****     #endif /* (0u != P2_1_USE_INPUT_FIFO) */
 215:.\Generated_Source\PSoC5/P2_1.c **** 
 216:.\Generated_Source\PSoC5/P2_1.c ****     if(P2_1_OUT_FIFO == fifoId)
 217:.\Generated_Source\PSoC5/P2_1.c ****     {
 218:.\Generated_Source\PSoC5/P2_1.c ****         switch(P2_1_GET_OUT_FIFO_STS)
 219:.\Generated_Source\PSoC5/P2_1.c ****         {
 220:.\Generated_Source\PSoC5/P2_1.c ****             case P2_1_OUT_FIFO_FULL :
 221:.\Generated_Source\PSoC5/P2_1.c ****                 result = P2_1_RET_FIFO_FULL;
 222:.\Generated_Source\PSoC5/P2_1.c ****                 break;
 223:.\Generated_Source\PSoC5/P2_1.c **** 
 224:.\Generated_Source\PSoC5/P2_1.c ****             case P2_1_OUT_FIFO_EMPTY :
 225:.\Generated_Source\PSoC5/P2_1.c ****                 result = P2_1_RET_FIFO_EMPTY;
 226:.\Generated_Source\PSoC5/P2_1.c ****                 break;
 227:.\Generated_Source\PSoC5/P2_1.c **** 
 228:.\Generated_Source\PSoC5/P2_1.c ****             case P2_1_OUT_FIFO_PARTIAL :
 229:.\Generated_Source\PSoC5/P2_1.c ****                 result = P2_1_RET_FIFO_PARTIAL;
ARM GAS  C:\Users\Thomas\AppData\Local\Temp\ccjk6mHM.s 			page 45


 230:.\Generated_Source\PSoC5/P2_1.c ****                 break;
 231:.\Generated_Source\PSoC5/P2_1.c **** 
 232:.\Generated_Source\PSoC5/P2_1.c ****             default:
 233:.\Generated_Source\PSoC5/P2_1.c ****                 /* Initial result value, while 
 234:.\Generated_Source\PSoC5/P2_1.c ****                    OUT_FIFO_FULL case is false 
 235:.\Generated_Source\PSoC5/P2_1.c ****                  */
 236:.\Generated_Source\PSoC5/P2_1.c ****                 result = P2_1_RET_FIFO_FULL;
 237:.\Generated_Source\PSoC5/P2_1.c ****                 break;
 238:.\Generated_Source\PSoC5/P2_1.c ****         }
 239:.\Generated_Source\PSoC5/P2_1.c ****     }
 240:.\Generated_Source\PSoC5/P2_1.c **** 
 241:.\Generated_Source\PSoC5/P2_1.c ****     return(result);
 242:.\Generated_Source\PSoC5/P2_1.c **** }
 243:.\Generated_Source\PSoC5/P2_1.c **** 
 244:.\Generated_Source\PSoC5/P2_1.c **** 
 245:.\Generated_Source\PSoC5/P2_1.c **** /*******************************************************************************
 246:.\Generated_Source\PSoC5/P2_1.c **** * Function Name: P2_1_SetIntMode
 247:.\Generated_Source\PSoC5/P2_1.c **** ********************************************************************************
 248:.\Generated_Source\PSoC5/P2_1.c **** *
 249:.\Generated_Source\PSoC5/P2_1.c **** * Summary:
 250:.\Generated_Source\PSoC5/P2_1.c **** *  Sets the Interrupt Source for the Shift Register interrupt. Multiple
 251:.\Generated_Source\PSoC5/P2_1.c **** *  sources may be ORed together
 252:.\Generated_Source\PSoC5/P2_1.c **** *
 253:.\Generated_Source\PSoC5/P2_1.c **** * Parameters:
 254:.\Generated_Source\PSoC5/P2_1.c **** *  interruptSource: Byte containing the constant for the selected interrupt
 255:.\Generated_Source\PSoC5/P2_1.c **** *  source/s.
 256:.\Generated_Source\PSoC5/P2_1.c **** *
 257:.\Generated_Source\PSoC5/P2_1.c **** * Return:
 258:.\Generated_Source\PSoC5/P2_1.c **** *  None.
 259:.\Generated_Source\PSoC5/P2_1.c **** *
 260:.\Generated_Source\PSoC5/P2_1.c **** *******************************************************************************/
 261:.\Generated_Source\PSoC5/P2_1.c **** void P2_1_SetIntMode(uint8 interruptSource) 
 262:.\Generated_Source\PSoC5/P2_1.c **** {
 263:.\Generated_Source\PSoC5/P2_1.c ****     P2_1_SR_STATUS_MASK &= ((uint8) ~P2_1_INTS_EN_MASK);          /* Clear existing int */
 552              		.loc 1 263 0
 553 0008 0D4B     		ldr	r3, .L5+4
 554              	.LBE21:
 555              	.LBE20:
 556              	.LBE19:
  48:.\Generated_Source\PSoC5/P2_1.c ****     }
 557              		.loc 1 48 0
 558 000a 0120     		movs	r0, #1
 559              	.LBB24:
 560              	.LBB23:
 561              	.LBB22:
 562              		.loc 1 263 0
 563 000c 1978     		ldrb	r1, [r3]	@ zero_extendqisi2
 564 000e 01F0F801 		and	r1, r1, #248
 565 0012 1970     		strb	r1, [r3]
 264:.\Generated_Source\PSoC5/P2_1.c ****     P2_1_SR_STATUS_MASK |= (interruptSource & P2_1_INTS_EN_MASK); /* Set int */
 566              		.loc 1 264 0
 567 0014 1978     		ldrb	r1, [r3]	@ zero_extendqisi2
 568 0016 0143     		orrs	r1, r1, r0
 569 0018 1970     		strb	r1, [r3]
 570              	.LBE22:
 571              	.LBE23:
 572              	.LBE24:
ARM GAS  C:\Users\Thomas\AppData\Local\Temp\ccjk6mHM.s 			page 46


  48:.\Generated_Source\PSoC5/P2_1.c ****     }
 573              		.loc 1 48 0
 574 001a 1070     		strb	r0, [r2]
 575              	.LVL1:
 576              	.L2:
 577              	.LBB25:
 578              	.LBB26:
  73:.\Generated_Source\PSoC5/P2_1.c **** 
 579              		.loc 1 73 0
 580 001c 094A     		ldr	r2, .L5+8
 581 001e 1378     		ldrb	r3, [r2]	@ zero_extendqisi2
 582 0020 43F00103 		orr	r3, r3, #1
 583 0024 1370     		strb	r3, [r2]
 584              	.LBB27:
 585              	.LBB28:
 139:.\Generated_Source\PSoC5/P2_1.c ****     P2_1_SR_AUX_CONTROL |= P2_1_INTERRUPTS_ENABLE;
 586              		.loc 1 139 0
 587 0026 FFF7FEFF 		bl	CyEnterCriticalSection
 588              	.LVL2:
 140:.\Generated_Source\PSoC5/P2_1.c ****     CyExitCriticalSection(interruptState);
 589              		.loc 1 140 0
 590 002a 074A     		ldr	r2, .L5+12
 591 002c 1378     		ldrb	r3, [r2]	@ zero_extendqisi2
 592 002e 43F01003 		orr	r3, r3, #16
 593 0032 1370     		strb	r3, [r2]
 594              	.LBE28:
 595              	.LBE27:
 596              	.LBE26:
 597              	.LBE25:
  52:.\Generated_Source\PSoC5/P2_1.c **** 
 598              		.loc 1 52 0
 599 0034 BDE80840 		pop	{r3, lr}
 600              		.cfi_restore 14
 601              		.cfi_restore 3
 602              		.cfi_def_cfa_offset 0
 603              	.LBB32:
 604              	.LBB31:
 605              	.LBB30:
 606              	.LBB29:
 141:.\Generated_Source\PSoC5/P2_1.c **** }
 607              		.loc 1 141 0
 608 0038 FFF7FEBF 		b	CyExitCriticalSection
 609              	.LVL3:
 610              	.L6:
 611              		.align	2
 612              	.L5:
 613 003c 00000000 		.word	.LANCHOR0
 614 0040 89640040 		.word	1073767561
 615 0044 79640040 		.word	1073767545
 616 0048 99640040 		.word	1073767577
 617              	.LBE29:
 618              	.LBE30:
 619              	.LBE31:
 620              	.LBE32:
 621              		.cfi_endproc
 622              	.LFE0:
 623              		.size	P2_1_Start, .-P2_1_Start
ARM GAS  C:\Users\Thomas\AppData\Local\Temp\ccjk6mHM.s 			page 47


 624              		.section	.text.P2_1_Enable,"ax",%progbits
 625              		.align	2
 626              		.global	P2_1_Enable
 627              		.thumb
 628              		.thumb_func
 629              		.type	P2_1_Enable, %function
 630              	P2_1_Enable:
 631              	.LFB1:
  70:.\Generated_Source\PSoC5/P2_1.c ****     /* Changing address in Datapath Control Store
 632              		.loc 1 70 0
 633              		.cfi_startproc
 634              		@ args = 0, pretend = 0, frame = 0
 635              		@ frame_needed = 0, uses_anonymous_args = 0
 636 0000 08B5     		push	{r3, lr}
 637              		.cfi_def_cfa_offset 8
 638              		.cfi_offset 3, -8
 639              		.cfi_offset 14, -4
  73:.\Generated_Source\PSoC5/P2_1.c **** 
 640              		.loc 1 73 0
 641 0002 084A     		ldr	r2, .L9
 642 0004 1378     		ldrb	r3, [r2]	@ zero_extendqisi2
 643 0006 43F00103 		orr	r3, r3, #1
 644 000a 1370     		strb	r3, [r2]
 645              	.LBB35:
 646              	.LBB36:
 139:.\Generated_Source\PSoC5/P2_1.c ****     P2_1_SR_AUX_CONTROL |= P2_1_INTERRUPTS_ENABLE;
 647              		.loc 1 139 0
 648 000c FFF7FEFF 		bl	CyEnterCriticalSection
 649              	.LVL4:
 140:.\Generated_Source\PSoC5/P2_1.c ****     CyExitCriticalSection(interruptState);
 650              		.loc 1 140 0
 651 0010 054A     		ldr	r2, .L9+4
 652 0012 1378     		ldrb	r3, [r2]	@ zero_extendqisi2
 653 0014 43F01003 		orr	r3, r3, #16
 654 0018 1370     		strb	r3, [r2]
 655              	.LBE36:
 656              	.LBE35:
  76:.\Generated_Source\PSoC5/P2_1.c **** 
 657              		.loc 1 76 0
 658 001a BDE80840 		pop	{r3, lr}
 659              		.cfi_restore 14
 660              		.cfi_restore 3
 661              		.cfi_def_cfa_offset 0
 662              	.LBB38:
 663              	.LBB37:
 141:.\Generated_Source\PSoC5/P2_1.c **** }
 664              		.loc 1 141 0
 665 001e FFF7FEBF 		b	CyExitCriticalSection
 666              	.LVL5:
 667              	.L10:
 668 0022 00BF     		.align	2
 669              	.L9:
 670 0024 79640040 		.word	1073767545
 671 0028 99640040 		.word	1073767577
 672              	.LBE37:
 673              	.LBE38:
 674              		.cfi_endproc
ARM GAS  C:\Users\Thomas\AppData\Local\Temp\ccjk6mHM.s 			page 48


 675              	.LFE1:
 676              		.size	P2_1_Enable, .-P2_1_Enable
 677              		.section	.text.P2_1_Init,"ax",%progbits
 678              		.align	2
 679              		.global	P2_1_Init
 680              		.thumb
 681              		.thumb_func
 682              		.type	P2_1_Init, %function
 683              	P2_1_Init:
 684              	.LFB2:
  94:.\Generated_Source\PSoC5/P2_1.c ****     P2_1_SetIntMode(P2_1_INT_SRC);
 685              		.loc 1 94 0
 686              		.cfi_startproc
 687              		@ args = 0, pretend = 0, frame = 0
 688              		@ frame_needed = 0, uses_anonymous_args = 0
 689              		@ link register save eliminated.
 690              	.LVL6:
 691              	.LBB39:
 692              	.LBB40:
 263:.\Generated_Source\PSoC5/P2_1.c ****     P2_1_SR_STATUS_MASK |= (interruptSource & P2_1_INTS_EN_MASK); /* Set int */
 693              		.loc 1 263 0
 694 0000 044B     		ldr	r3, .L12
 695 0002 1A78     		ldrb	r2, [r3]	@ zero_extendqisi2
 696 0004 02F0F802 		and	r2, r2, #248
 697 0008 1A70     		strb	r2, [r3]
 698              		.loc 1 264 0
 699 000a 1A78     		ldrb	r2, [r3]	@ zero_extendqisi2
 700 000c 42F00102 		orr	r2, r2, #1
 701 0010 1A70     		strb	r2, [r3]
 702 0012 7047     		bx	lr
 703              	.L13:
 704              		.align	2
 705              	.L12:
 706 0014 89640040 		.word	1073767561
 707              	.LBE40:
 708              	.LBE39:
 709              		.cfi_endproc
 710              	.LFE2:
 711              		.size	P2_1_Init, .-P2_1_Init
 712              		.section	.text.P2_1_Stop,"ax",%progbits
 713              		.align	2
 714              		.global	P2_1_Stop
 715              		.thumb
 716              		.thumb_func
 717              		.type	P2_1_Stop, %function
 718              	P2_1_Stop:
 719              	.LFB3:
 114:.\Generated_Source\PSoC5/P2_1.c ****     /*changing Datapath Control Store address to NOP space*/
 720              		.loc 1 114 0
 721              		.cfi_startproc
 722              		@ args = 0, pretend = 0, frame = 0
 723              		@ frame_needed = 0, uses_anonymous_args = 0
 724 0000 08B5     		push	{r3, lr}
 725              		.cfi_def_cfa_offset 8
 726              		.cfi_offset 3, -8
 727              		.cfi_offset 14, -4
 116:.\Generated_Source\PSoC5/P2_1.c ****     P2_1_DisableInt();
ARM GAS  C:\Users\Thomas\AppData\Local\Temp\ccjk6mHM.s 			page 49


 728              		.loc 1 116 0
 729 0002 084A     		ldr	r2, .L16
 730 0004 1378     		ldrb	r3, [r2]	@ zero_extendqisi2
 731 0006 03F0FE03 		and	r3, r3, #254
 732 000a 1370     		strb	r3, [r2]
 733              	.LBB43:
 734              	.LBB44:
 163:.\Generated_Source\PSoC5/P2_1.c ****     P2_1_SR_AUX_CONTROL &= ((uint8) ~P2_1_INTERRUPTS_ENABLE);
 735              		.loc 1 163 0
 736 000c FFF7FEFF 		bl	CyEnterCriticalSection
 737              	.LVL7:
 164:.\Generated_Source\PSoC5/P2_1.c ****     CyExitCriticalSection(interruptState);
 738              		.loc 1 164 0
 739 0010 054A     		ldr	r2, .L16+4
 740 0012 1378     		ldrb	r3, [r2]	@ zero_extendqisi2
 741 0014 03F0EF03 		and	r3, r3, #239
 742 0018 1370     		strb	r3, [r2]
 743              	.LBE44:
 744              	.LBE43:
 118:.\Generated_Source\PSoC5/P2_1.c **** 
 745              		.loc 1 118 0
 746 001a BDE80840 		pop	{r3, lr}
 747              		.cfi_restore 14
 748              		.cfi_restore 3
 749              		.cfi_def_cfa_offset 0
 750              	.LBB46:
 751              	.LBB45:
 165:.\Generated_Source\PSoC5/P2_1.c **** }
 752              		.loc 1 165 0
 753 001e FFF7FEBF 		b	CyExitCriticalSection
 754              	.LVL8:
 755              	.L17:
 756 0022 00BF     		.align	2
 757              	.L16:
 758 0024 79640040 		.word	1073767545
 759 0028 99640040 		.word	1073767577
 760              	.LBE45:
 761              	.LBE46:
 762              		.cfi_endproc
 763              	.LFE3:
 764              		.size	P2_1_Stop, .-P2_1_Stop
 765              		.section	.text.P2_1_EnableInt,"ax",%progbits
 766              		.align	2
 767              		.global	P2_1_EnableInt
 768              		.thumb
 769              		.thumb_func
 770              		.type	P2_1_EnableInt, %function
 771              	P2_1_EnableInt:
 772              	.LFB4:
 136:.\Generated_Source\PSoC5/P2_1.c ****     uint8 interruptState;
 773              		.loc 1 136 0
 774              		.cfi_startproc
 775              		@ args = 0, pretend = 0, frame = 0
 776              		@ frame_needed = 0, uses_anonymous_args = 0
 777 0000 08B5     		push	{r3, lr}
 778              		.cfi_def_cfa_offset 8
 779              		.cfi_offset 3, -8
ARM GAS  C:\Users\Thomas\AppData\Local\Temp\ccjk6mHM.s 			page 50


 780              		.cfi_offset 14, -4
 139:.\Generated_Source\PSoC5/P2_1.c ****     P2_1_SR_AUX_CONTROL |= P2_1_INTERRUPTS_ENABLE;
 781              		.loc 1 139 0
 782 0002 FFF7FEFF 		bl	CyEnterCriticalSection
 783              	.LVL9:
 140:.\Generated_Source\PSoC5/P2_1.c ****     CyExitCriticalSection(interruptState);
 784              		.loc 1 140 0
 785 0006 044A     		ldr	r2, .L20
 786 0008 1378     		ldrb	r3, [r2]	@ zero_extendqisi2
 787 000a 43F01003 		orr	r3, r3, #16
 788 000e 1370     		strb	r3, [r2]
 142:.\Generated_Source\PSoC5/P2_1.c **** 
 789              		.loc 1 142 0
 790 0010 BDE80840 		pop	{r3, lr}
 791              		.cfi_restore 14
 792              		.cfi_restore 3
 793              		.cfi_def_cfa_offset 0
 141:.\Generated_Source\PSoC5/P2_1.c **** }
 794              		.loc 1 141 0
 795 0014 FFF7FEBF 		b	CyExitCriticalSection
 796              	.LVL10:
 797              	.L21:
 798              		.align	2
 799              	.L20:
 800 0018 99640040 		.word	1073767577
 801              		.cfi_endproc
 802              	.LFE4:
 803              		.size	P2_1_EnableInt, .-P2_1_EnableInt
 804              		.section	.text.P2_1_DisableInt,"ax",%progbits
 805              		.align	2
 806              		.global	P2_1_DisableInt
 807              		.thumb
 808              		.thumb_func
 809              		.type	P2_1_DisableInt, %function
 810              	P2_1_DisableInt:
 811              	.LFB5:
 160:.\Generated_Source\PSoC5/P2_1.c ****     uint8 interruptState;
 812              		.loc 1 160 0
 813              		.cfi_startproc
 814              		@ args = 0, pretend = 0, frame = 0
 815              		@ frame_needed = 0, uses_anonymous_args = 0
 816 0000 08B5     		push	{r3, lr}
 817              		.cfi_def_cfa_offset 8
 818              		.cfi_offset 3, -8
 819              		.cfi_offset 14, -4
 163:.\Generated_Source\PSoC5/P2_1.c ****     P2_1_SR_AUX_CONTROL &= ((uint8) ~P2_1_INTERRUPTS_ENABLE);
 820              		.loc 1 163 0
 821 0002 FFF7FEFF 		bl	CyEnterCriticalSection
 822              	.LVL11:
 164:.\Generated_Source\PSoC5/P2_1.c ****     CyExitCriticalSection(interruptState);
 823              		.loc 1 164 0
 824 0006 044A     		ldr	r2, .L24
 825 0008 1378     		ldrb	r3, [r2]	@ zero_extendqisi2
 826 000a 03F0EF03 		and	r3, r3, #239
 827 000e 1370     		strb	r3, [r2]
 166:.\Generated_Source\PSoC5/P2_1.c **** 
 828              		.loc 1 166 0
ARM GAS  C:\Users\Thomas\AppData\Local\Temp\ccjk6mHM.s 			page 51


 829 0010 BDE80840 		pop	{r3, lr}
 830              		.cfi_restore 14
 831              		.cfi_restore 3
 832              		.cfi_def_cfa_offset 0
 165:.\Generated_Source\PSoC5/P2_1.c **** }
 833              		.loc 1 165 0
 834 0014 FFF7FEBF 		b	CyExitCriticalSection
 835              	.LVL12:
 836              	.L25:
 837              		.align	2
 838              	.L24:
 839 0018 99640040 		.word	1073767577
 840              		.cfi_endproc
 841              	.LFE5:
 842              		.size	P2_1_DisableInt, .-P2_1_DisableInt
 843              		.section	.text.P2_1_GetFIFOStatus,"ax",%progbits
 844              		.align	2
 845              		.global	P2_1_GetFIFOStatus
 846              		.thumb
 847              		.thumb_func
 848              		.type	P2_1_GetFIFOStatus, %function
 849              	P2_1_GetFIFOStatus:
 850              	.LFB6:
 184:.\Generated_Source\PSoC5/P2_1.c ****     uint8 result;
 851              		.loc 1 184 0
 852              		.cfi_startproc
 853              		@ args = 0, pretend = 0, frame = 0
 854              		@ frame_needed = 0, uses_anonymous_args = 0
 855              		@ link register save eliminated.
 856              	.LVL13:
 216:.\Generated_Source\PSoC5/P2_1.c ****     {
 857              		.loc 1 216 0
 858 0000 0228     		cmp	r0, #2
 859 0002 01D0     		beq	.L32
 187:.\Generated_Source\PSoC5/P2_1.c **** 
 860              		.loc 1 187 0
 861 0004 FE20     		movs	r0, #254
 862              	.LVL14:
 863              	.L27:
 242:.\Generated_Source\PSoC5/P2_1.c **** 
 864              		.loc 1 242 0
 865 0006 7047     		bx	lr
 866              	.LVL15:
 867              	.L32:
 868              	.LBB49:
 869              	.LBB50:
 218:.\Generated_Source\PSoC5/P2_1.c ****         {
 870              		.loc 1 218 0
 871 0008 054B     		ldr	r3, .L33
 872 000a 1B78     		ldrb	r3, [r3]	@ zero_extendqisi2
 873 000c C3F34113 		ubfx	r3, r3, #5, #2
 874 0010 002B     		cmp	r3, #0
 875 0012 F8D0     		beq	.L27
 221:.\Generated_Source\PSoC5/P2_1.c ****                 break;
 876              		.loc 1 221 0
 877 0014 A3F10200 		sub	r0, r3, #2
 878              	.LVL16:
ARM GAS  C:\Users\Thomas\AppData\Local\Temp\ccjk6mHM.s 			page 52


 879 0018 B0FA80F0 		clz	r0, r0
 880 001c 4009     		lsrs	r0, r0, #5
 881 001e 7047     		bx	lr
 882              	.L34:
 883              		.align	2
 884              	.L33:
 885 0020 69640040 		.word	1073767529
 886              	.LBE50:
 887              	.LBE49:
 888              		.cfi_endproc
 889              	.LFE6:
 890              		.size	P2_1_GetFIFOStatus, .-P2_1_GetFIFOStatus
 891              		.section	.text.P2_1_SetIntMode,"ax",%progbits
 892              		.align	2
 893              		.global	P2_1_SetIntMode
 894              		.thumb
 895              		.thumb_func
 896              		.type	P2_1_SetIntMode, %function
 897              	P2_1_SetIntMode:
 898              	.LFB7:
 262:.\Generated_Source\PSoC5/P2_1.c ****     P2_1_SR_STATUS_MASK &= ((uint8) ~P2_1_INTS_EN_MASK);          /* Clear existing int */
 899              		.loc 1 262 0
 900              		.cfi_startproc
 901              		@ args = 0, pretend = 0, frame = 0
 902              		@ frame_needed = 0, uses_anonymous_args = 0
 903              		@ link register save eliminated.
 904              	.LVL17:
 263:.\Generated_Source\PSoC5/P2_1.c ****     P2_1_SR_STATUS_MASK |= (interruptSource & P2_1_INTS_EN_MASK); /* Set int */
 905              		.loc 1 263 0
 906 0000 054B     		ldr	r3, .L36
 907              		.loc 1 264 0
 908 0002 00F00700 		and	r0, r0, #7
 909              	.LVL18:
 263:.\Generated_Source\PSoC5/P2_1.c ****     P2_1_SR_STATUS_MASK |= (interruptSource & P2_1_INTS_EN_MASK); /* Set int */
 910              		.loc 1 263 0
 911 0006 1A78     		ldrb	r2, [r3]	@ zero_extendqisi2
 912 0008 02F0F802 		and	r2, r2, #248
 913 000c 1A70     		strb	r2, [r3]
 914              		.loc 1 264 0
 915 000e 1A78     		ldrb	r2, [r3]	@ zero_extendqisi2
 916 0010 1043     		orrs	r0, r0, r2
 917 0012 1870     		strb	r0, [r3]
 918 0014 7047     		bx	lr
 919              	.L37:
 920 0016 00BF     		.align	2
 921              	.L36:
 922 0018 89640040 		.word	1073767561
 923              		.cfi_endproc
 924              	.LFE7:
 925              		.size	P2_1_SetIntMode, .-P2_1_SetIntMode
 926              		.section	.text.P2_1_GetIntStatus,"ax",%progbits
 927              		.align	2
 928              		.global	P2_1_GetIntStatus
 929              		.thumb
 930              		.thumb_func
 931              		.type	P2_1_GetIntStatus, %function
 932              	P2_1_GetIntStatus:
ARM GAS  C:\Users\Thomas\AppData\Local\Temp\ccjk6mHM.s 			page 53


 933              	.LFB8:
 265:.\Generated_Source\PSoC5/P2_1.c **** }
 266:.\Generated_Source\PSoC5/P2_1.c **** 
 267:.\Generated_Source\PSoC5/P2_1.c **** 
 268:.\Generated_Source\PSoC5/P2_1.c **** /*******************************************************************************
 269:.\Generated_Source\PSoC5/P2_1.c **** * Function Name: P2_1_GetIntStatus
 270:.\Generated_Source\PSoC5/P2_1.c **** ********************************************************************************
 271:.\Generated_Source\PSoC5/P2_1.c **** *
 272:.\Generated_Source\PSoC5/P2_1.c **** * Summary:
 273:.\Generated_Source\PSoC5/P2_1.c **** *  Gets the Shift Register Interrupt status.
 274:.\Generated_Source\PSoC5/P2_1.c **** *
 275:.\Generated_Source\PSoC5/P2_1.c **** * Parameters:
 276:.\Generated_Source\PSoC5/P2_1.c **** *  None.
 277:.\Generated_Source\PSoC5/P2_1.c **** *
 278:.\Generated_Source\PSoC5/P2_1.c **** * Return:
 279:.\Generated_Source\PSoC5/P2_1.c **** *  Byte containing the constant for the selected interrupt source/s.
 280:.\Generated_Source\PSoC5/P2_1.c **** *
 281:.\Generated_Source\PSoC5/P2_1.c **** *******************************************************************************/
 282:.\Generated_Source\PSoC5/P2_1.c **** uint8 P2_1_GetIntStatus(void) 
 283:.\Generated_Source\PSoC5/P2_1.c **** {
 934              		.loc 1 283 0
 935              		.cfi_startproc
 936              		@ args = 0, pretend = 0, frame = 0
 937              		@ frame_needed = 0, uses_anonymous_args = 0
 938              		@ link register save eliminated.
 284:.\Generated_Source\PSoC5/P2_1.c ****     return(P2_1_SR_STATUS & P2_1_INTS_EN_MASK);
 939              		.loc 1 284 0
 940 0000 024B     		ldr	r3, .L39
 941 0002 1878     		ldrb	r0, [r3]	@ zero_extendqisi2
 285:.\Generated_Source\PSoC5/P2_1.c **** }
 942              		.loc 1 285 0
 943 0004 00F00700 		and	r0, r0, #7
 944 0008 7047     		bx	lr
 945              	.L40:
 946 000a 00BF     		.align	2
 947              	.L39:
 948 000c 69640040 		.word	1073767529
 949              		.cfi_endproc
 950              	.LFE8:
 951              		.size	P2_1_GetIntStatus, .-P2_1_GetIntStatus
 952              		.section	.text.P2_1_WriteRegValue,"ax",%progbits
 953              		.align	2
 954              		.global	P2_1_WriteRegValue
 955              		.thumb
 956              		.thumb_func
 957              		.type	P2_1_WriteRegValue, %function
 958              	P2_1_WriteRegValue:
 959              	.LFB9:
 286:.\Generated_Source\PSoC5/P2_1.c **** 
 287:.\Generated_Source\PSoC5/P2_1.c **** 
 288:.\Generated_Source\PSoC5/P2_1.c **** /*******************************************************************************
 289:.\Generated_Source\PSoC5/P2_1.c **** * Function Name: P2_1_WriteRegValue
 290:.\Generated_Source\PSoC5/P2_1.c **** ********************************************************************************
 291:.\Generated_Source\PSoC5/P2_1.c **** *
 292:.\Generated_Source\PSoC5/P2_1.c **** * Summary:
 293:.\Generated_Source\PSoC5/P2_1.c **** *  Send state directly to shift register
 294:.\Generated_Source\PSoC5/P2_1.c **** *
ARM GAS  C:\Users\Thomas\AppData\Local\Temp\ccjk6mHM.s 			page 54


 295:.\Generated_Source\PSoC5/P2_1.c **** * Parameters:
 296:.\Generated_Source\PSoC5/P2_1.c **** *  shiftData: containing shift register state.
 297:.\Generated_Source\PSoC5/P2_1.c **** *
 298:.\Generated_Source\PSoC5/P2_1.c **** * Return:
 299:.\Generated_Source\PSoC5/P2_1.c **** *  None.
 300:.\Generated_Source\PSoC5/P2_1.c **** *
 301:.\Generated_Source\PSoC5/P2_1.c **** *******************************************************************************/
 302:.\Generated_Source\PSoC5/P2_1.c **** void P2_1_WriteRegValue(uint16 shiftData)
 303:.\Generated_Source\PSoC5/P2_1.c ****                                                                      
 304:.\Generated_Source\PSoC5/P2_1.c **** {
 960              		.loc 1 304 0
 961              		.cfi_startproc
 962              		@ args = 0, pretend = 0, frame = 0
 963              		@ frame_needed = 0, uses_anonymous_args = 0
 964              		@ link register save eliminated.
 965              	.LVL19:
 305:.\Generated_Source\PSoC5/P2_1.c ****     CY_SET_REG16(P2_1_SHIFT_REG_LSB_PTR, shiftData);
 966              		.loc 1 305 0
 967 0000 014B     		ldr	r3, .L42
 968 0002 1880     		strh	r0, [r3]	@ movhi
 969 0004 7047     		bx	lr
 970              	.L43:
 971 0006 00BF     		.align	2
 972              	.L42:
 973 0008 08640040 		.word	1073767432
 974              		.cfi_endproc
 975              	.LFE9:
 976              		.size	P2_1_WriteRegValue, .-P2_1_WriteRegValue
 977              		.section	.text.P2_1_ReadRegValue,"ax",%progbits
 978              		.align	2
 979              		.global	P2_1_ReadRegValue
 980              		.thumb
 981              		.thumb_func
 982              		.type	P2_1_ReadRegValue, %function
 983              	P2_1_ReadRegValue:
 984              	.LFB10:
 306:.\Generated_Source\PSoC5/P2_1.c **** }
 307:.\Generated_Source\PSoC5/P2_1.c **** 
 308:.\Generated_Source\PSoC5/P2_1.c **** 
 309:.\Generated_Source\PSoC5/P2_1.c **** #if(0u != P2_1_USE_INPUT_FIFO)
 310:.\Generated_Source\PSoC5/P2_1.c ****     /*******************************************************************************
 311:.\Generated_Source\PSoC5/P2_1.c ****     * Function Name: P2_1_WriteData
 312:.\Generated_Source\PSoC5/P2_1.c ****     ********************************************************************************
 313:.\Generated_Source\PSoC5/P2_1.c ****     *
 314:.\Generated_Source\PSoC5/P2_1.c ****     * Summary:
 315:.\Generated_Source\PSoC5/P2_1.c ****     *  Send state to FIFO for later transfer to shift register based on the Load
 316:.\Generated_Source\PSoC5/P2_1.c ****     *  input
 317:.\Generated_Source\PSoC5/P2_1.c ****     *
 318:.\Generated_Source\PSoC5/P2_1.c ****     * Parameters:
 319:.\Generated_Source\PSoC5/P2_1.c ****     *  shiftData: containing shift register state.
 320:.\Generated_Source\PSoC5/P2_1.c ****     *
 321:.\Generated_Source\PSoC5/P2_1.c ****     * Return:
 322:.\Generated_Source\PSoC5/P2_1.c ****     *  Indicates: successful execution of function
 323:.\Generated_Source\PSoC5/P2_1.c ****     *  when FIFO is empty; and error when FIFO is full.
 324:.\Generated_Source\PSoC5/P2_1.c ****     *
 325:.\Generated_Source\PSoC5/P2_1.c ****     * Reentrant:
 326:.\Generated_Source\PSoC5/P2_1.c ****     *  No.
ARM GAS  C:\Users\Thomas\AppData\Local\Temp\ccjk6mHM.s 			page 55


 327:.\Generated_Source\PSoC5/P2_1.c ****     *
 328:.\Generated_Source\PSoC5/P2_1.c ****     *******************************************************************************/
 329:.\Generated_Source\PSoC5/P2_1.c ****     cystatus P2_1_WriteData(uint16 shiftData)
 330:.\Generated_Source\PSoC5/P2_1.c ****                                                                          
 331:.\Generated_Source\PSoC5/P2_1.c ****     {
 332:.\Generated_Source\PSoC5/P2_1.c ****         cystatus result;
 333:.\Generated_Source\PSoC5/P2_1.c **** 
 334:.\Generated_Source\PSoC5/P2_1.c ****         result = CYRET_INVALID_STATE;
 335:.\Generated_Source\PSoC5/P2_1.c **** 
 336:.\Generated_Source\PSoC5/P2_1.c ****         /* Writes data into the input FIFO if it is not FULL */
 337:.\Generated_Source\PSoC5/P2_1.c ****         if(P2_1_RET_FIFO_FULL != (P2_1_GetFIFOStatus(P2_1_IN_FIFO)))
 338:.\Generated_Source\PSoC5/P2_1.c ****         {
 339:.\Generated_Source\PSoC5/P2_1.c ****             CY_SET_REG16(P2_1_IN_FIFO_VAL_LSB_PTR, shiftData);
 340:.\Generated_Source\PSoC5/P2_1.c ****             result = CYRET_SUCCESS;
 341:.\Generated_Source\PSoC5/P2_1.c ****         }
 342:.\Generated_Source\PSoC5/P2_1.c **** 
 343:.\Generated_Source\PSoC5/P2_1.c ****         return(result);
 344:.\Generated_Source\PSoC5/P2_1.c ****     }
 345:.\Generated_Source\PSoC5/P2_1.c **** #endif /* (0u != P2_1_USE_INPUT_FIFO) */
 346:.\Generated_Source\PSoC5/P2_1.c **** 
 347:.\Generated_Source\PSoC5/P2_1.c **** 
 348:.\Generated_Source\PSoC5/P2_1.c **** #if(0u != P2_1_USE_OUTPUT_FIFO)
 349:.\Generated_Source\PSoC5/P2_1.c ****     /*******************************************************************************
 350:.\Generated_Source\PSoC5/P2_1.c ****     * Function Name: P2_1_ReadData
 351:.\Generated_Source\PSoC5/P2_1.c ****     ********************************************************************************
 352:.\Generated_Source\PSoC5/P2_1.c ****     *
 353:.\Generated_Source\PSoC5/P2_1.c ****     * Summary:
 354:.\Generated_Source\PSoC5/P2_1.c ****     *  Returns state in FIFO due to Store input.
 355:.\Generated_Source\PSoC5/P2_1.c ****     *
 356:.\Generated_Source\PSoC5/P2_1.c ****     * Parameters:
 357:.\Generated_Source\PSoC5/P2_1.c ****     *  None.
 358:.\Generated_Source\PSoC5/P2_1.c ****     *
 359:.\Generated_Source\PSoC5/P2_1.c ****     * Return:
 360:.\Generated_Source\PSoC5/P2_1.c ****     *  Shift Register state
 361:.\Generated_Source\PSoC5/P2_1.c ****     *
 362:.\Generated_Source\PSoC5/P2_1.c ****     * Reentrant:
 363:.\Generated_Source\PSoC5/P2_1.c ****     *  No.
 364:.\Generated_Source\PSoC5/P2_1.c ****     *
 365:.\Generated_Source\PSoC5/P2_1.c ****     *******************************************************************************/
 366:.\Generated_Source\PSoC5/P2_1.c ****     uint16 P2_1_ReadData(void) 
 367:.\Generated_Source\PSoC5/P2_1.c ****     {
 368:.\Generated_Source\PSoC5/P2_1.c ****         return(CY_GET_REG16(P2_1_OUT_FIFO_VAL_LSB_PTR));
 369:.\Generated_Source\PSoC5/P2_1.c ****     }
 370:.\Generated_Source\PSoC5/P2_1.c **** #endif /* (0u != P2_1_USE_OUTPUT_FIFO) */
 371:.\Generated_Source\PSoC5/P2_1.c **** 
 372:.\Generated_Source\PSoC5/P2_1.c **** 
 373:.\Generated_Source\PSoC5/P2_1.c **** /*******************************************************************************
 374:.\Generated_Source\PSoC5/P2_1.c **** * Function Name: P2_1_ReadRegValue
 375:.\Generated_Source\PSoC5/P2_1.c **** ********************************************************************************
 376:.\Generated_Source\PSoC5/P2_1.c **** *
 377:.\Generated_Source\PSoC5/P2_1.c **** * Summary:
 378:.\Generated_Source\PSoC5/P2_1.c **** *  Directly returns current state in shift register, not data in FIFO due
 379:.\Generated_Source\PSoC5/P2_1.c **** *  to Store input.
 380:.\Generated_Source\PSoC5/P2_1.c **** *
 381:.\Generated_Source\PSoC5/P2_1.c **** * Parameters:
 382:.\Generated_Source\PSoC5/P2_1.c **** *  None.
 383:.\Generated_Source\PSoC5/P2_1.c **** *
ARM GAS  C:\Users\Thomas\AppData\Local\Temp\ccjk6mHM.s 			page 56


 384:.\Generated_Source\PSoC5/P2_1.c **** * Return:
 385:.\Generated_Source\PSoC5/P2_1.c **** *  Shift Register state. Clears output FIFO.
 386:.\Generated_Source\PSoC5/P2_1.c **** *
 387:.\Generated_Source\PSoC5/P2_1.c **** * Reentrant:
 388:.\Generated_Source\PSoC5/P2_1.c **** *  No.
 389:.\Generated_Source\PSoC5/P2_1.c **** *
 390:.\Generated_Source\PSoC5/P2_1.c **** *******************************************************************************/
 391:.\Generated_Source\PSoC5/P2_1.c **** uint16 P2_1_ReadRegValue(void) 
 392:.\Generated_Source\PSoC5/P2_1.c **** {
 985              		.loc 1 392 0
 986              		.cfi_startproc
 987              		@ args = 0, pretend = 0, frame = 0
 988              		@ frame_needed = 0, uses_anonymous_args = 0
 989              		@ link register save eliminated.
 990              	.LBB55:
 991              	.LBB56:
 992              	.LBB57:
 993              	.LBB58:
 218:.\Generated_Source\PSoC5/P2_1.c ****         {
 994              		.loc 1 218 0
 995 0000 064A     		ldr	r2, .L49
 996              	.LBE58:
 997              	.LBE57:
 998              	.LBE56:
 999              	.LBE55:
 393:.\Generated_Source\PSoC5/P2_1.c ****     uint16 result;
 394:.\Generated_Source\PSoC5/P2_1.c **** 
 395:.\Generated_Source\PSoC5/P2_1.c ****     /* Clear FIFO before software capture */
 396:.\Generated_Source\PSoC5/P2_1.c ****     while(P2_1_RET_FIFO_EMPTY != P2_1_GetFIFOStatus(P2_1_OUT_FIFO))
 397:.\Generated_Source\PSoC5/P2_1.c ****     {
 398:.\Generated_Source\PSoC5/P2_1.c ****         (void) CY_GET_REG16(P2_1_OUT_FIFO_VAL_LSB_PTR);
 1000              		.loc 1 398 0
 1001 0002 0749     		ldr	r1, .L49+4
 396:.\Generated_Source\PSoC5/P2_1.c ****     {
 1002              		.loc 1 396 0
 1003 0004 00E0     		b	.L45
 1004              	.LVL20:
 1005              	.L48:
 1006              		.loc 1 398 0
 1007 0006 0B88     		ldrh	r3, [r1]
 1008              	.LVL21:
 1009              	.L45:
 1010              	.LBB62:
 1011              	.LBB61:
 1012              	.LBB60:
 1013              	.LBB59:
 218:.\Generated_Source\PSoC5/P2_1.c ****         {
 1014              		.loc 1 218 0
 1015 0008 1378     		ldrb	r3, [r2]	@ zero_extendqisi2
 1016 000a 13F0600F 		tst	r3, #96
 1017 000e FAD1     		bne	.L48
 1018              	.LVL22:
 1019              	.LBE59:
 1020              	.LBE60:
 1021              	.LBE61:
 1022              	.LBE62:
 399:.\Generated_Source\PSoC5/P2_1.c ****     }
ARM GAS  C:\Users\Thomas\AppData\Local\Temp\ccjk6mHM.s 			page 57


 400:.\Generated_Source\PSoC5/P2_1.c **** 
 401:.\Generated_Source\PSoC5/P2_1.c ****     /* Read of 8 bits from A1 causes capture to output FIFO */
 402:.\Generated_Source\PSoC5/P2_1.c ****     (void) CY_GET_REG8(P2_1_SHIFT_REG_CAPTURE_PTR);
 403:.\Generated_Source\PSoC5/P2_1.c **** 
 404:.\Generated_Source\PSoC5/P2_1.c ****     /* Read output FIFO */
 405:.\Generated_Source\PSoC5/P2_1.c ****     result  = CY_GET_REG16(P2_1_OUT_FIFO_VAL_LSB_PTR);
 1023              		.loc 1 405 0
 1024 0010 034B     		ldr	r3, .L49+4
 402:.\Generated_Source\PSoC5/P2_1.c **** 
 1025              		.loc 1 402 0
 1026 0012 044A     		ldr	r2, .L49+8
 1027 0014 1278     		ldrb	r2, [r2]	@ zero_extendqisi2
 1028              		.loc 1 405 0
 1029 0016 1888     		ldrh	r0, [r3]
 1030              	.LVL23:
 406:.\Generated_Source\PSoC5/P2_1.c ****     
 407:.\Generated_Source\PSoC5/P2_1.c ****     #if(0u != (P2_1_SR_SIZE % 8u))
 408:.\Generated_Source\PSoC5/P2_1.c ****         result &= ((uint16) P2_1_SR_MASK);
 409:.\Generated_Source\PSoC5/P2_1.c ****     #endif /* (0u != (P2_1_SR_SIZE % 8u)) */
 410:.\Generated_Source\PSoC5/P2_1.c ****     
 411:.\Generated_Source\PSoC5/P2_1.c ****     return(result);
 412:.\Generated_Source\PSoC5/P2_1.c **** }
 1031              		.loc 1 412 0
 1032 0018 80B2     		uxth	r0, r0
 1033 001a 7047     		bx	lr
 1034              	.L50:
 1035              		.align	2
 1036              	.L49:
 1037 001c 69640040 		.word	1073767529
 1038 0020 58640040 		.word	1073767512
 1039 0024 18640040 		.word	1073767448
 1040              		.cfi_endproc
 1041              	.LFE10:
 1042              		.size	P2_1_ReadRegValue, .-P2_1_ReadRegValue
 1043              		.global	P2_1_initVar
 1044              		.bss
 1045              		.set	.LANCHOR0,. + 0
 1046              		.type	P2_1_initVar, %object
 1047              		.size	P2_1_initVar, 1
 1048              	P2_1_initVar:
 1049 0000 00       		.space	1
 1050              		.text
 1051              	.Letext0:
 1052              		.file 2 ".\\Generated_Source\\PSoC5\\cytypes.h"
 1053              		.file 3 ".\\Generated_Source\\PSoC5\\CyLib.h"