ARM GAS  C:\Users\Thomas\AppData\Local\Temp\ccJ9v2aa.s 			page 1


   1              		.syntax unified
   2              		.cpu cortex-m3
   3              		.fpu softvfp
   4              		.eabi_attribute 20, 1
   5              		.eabi_attribute 21, 1
   6              		.eabi_attribute 23, 3
   7              		.eabi_attribute 24, 1
   8              		.eabi_attribute 25, 1
   9              		.eabi_attribute 26, 1
  10              		.eabi_attribute 30, 2
  11              		.eabi_attribute 34, 1
  12              		.eabi_attribute 18, 4
  13              		.thumb
  14              		.file	"P2_2.c"
  15              		.text
  16              	.Ltext0:
  17              		.section	.gnu.lto_.profile.b94998f3,"",%progbits
  18 0000 789C6366 		.ascii	"x\234cf```e\200\000F\206\265\214!\000\002\347\001\014"
  18      60606065 
  18      80004686 
  18      B58C2100 
  18      02E7010C 
  19              		.text
  20              		.section	.gnu.lto_.jmpfuncs.b94998f3,"",%progbits
  21 0000 789C6366 		.ascii	"x\234cf\300\016,\2414\017\0203\002A=\003\023\003\003"
  21      C00E2CA1 
  21      340F1033 
  21      02413D03 
  21      130303
  22 0013 33900DE4 		.ascii	"3\220\015\344\263\0001+\020\263C\270\034@\314\011R\302"
  22      B300312B 
  22      10B343B8 
  22      1C40CC09 
  22      52C2
  23 0025 C5C0C00D 		.ascii	"\305\300\300\015\242Az\030\000;\201\002\031"
  23      A2417A18 
  23      003B8102 
  23      19
  24              		.text
  25              		.section	.gnu.lto_.inline.b94998f3,"",%progbits
  26 0000 789C7D50 		.ascii	"x\234}P;\012\302@\024\234\367v\223M\326\200\237\302"
  26      3B0AC240 
  26      149CF776 
  26      934DD680 
  26      9FC2
  27 0012 2216B981 		.ascii	"\"\026\271\201\367\260\311\015\354\3656)E\004\323y\007"
  27      F7B0C90D 
  27      ECF53629 
  27      4504D379 
  27      07
  28 0023 F11076B6 		.ascii	"\361\020v\2666\202\245\202\215\235\263\006\202\212\272"
  28      3682A582 
  28      8D9DB306 
  28      828ABA
  29 0032 2C6F60DE 		.ascii	",o`\336\314\354{k\360\375L\244\301\214\327\011tP\225"
  29      CCEC7B6B 
  29      F0FD4CA4 
ARM GAS  C:\Users\Thomas\AppData\Local\Temp\ccJ9v2aa.s 			page 2


  29      C18CD709 
  29      745095
  30 0045 88578506 		.ascii	"\210W\205\006N\340b1\230]U\226\207\323\315\234\365\256"
  30      4EE06231 
  30      985D5596 
  30      87D3CD9C 
  30      F5AE
  31 0057 50C84672 		.ascii	"P\310Fr`\336\000\355\206\322\270\246\305\326E/\370\264"
  31      60DE00ED 
  31      86D2B8A6 
  31      C5D6452F 
  31      F8B4
  32 0069 03CB8A34 		.ascii	"\003\313\2124a`v\2346]\004\245\037\221\212/\343\226"
  32      6160769C 
  32      365D04A5 
  32      1F918A2F 
  32      E396
  33 007b A2165295 		.ascii	"\242\026R\225\001hr\335\217\266x\226\010\375!\371|W"
  33      016872DD 
  33      8FB67896 
  33      08FD21F9 
  33      7C57
  34 008d CB7BC3FD 		.ascii	"\313{\303\375\317K~\344\245\360\251\310s\364v:\335w"
  34      CF4B7EE4 
  34      A5F0A9C8 
  34      73F4763A 
  34      DD77
  35 009f 6D107844 		.ascii	"m\020xD\226\036\256\322z\270\215!EEKe\360k&\250\337"
  35      961EAED2 
  35      7AB88D21 
  35      45454B65 
  35      F06B26A8 
  36 00b4 2EECCBD3 		.ascii	".\354\313\323\341/\037\023\322$\257"
  36      E12F1F13 
  36      D224AF
  37              		.text
  38              		.section	.gnu.lto_.pureconst.b94998f3,"",%progbits
  39 0000 789C6366 		.ascii	"x\234cf``\220d\200\000\036\006)F\011&)f)\026)V)v)\016"
  39      60609064 
  39      80001E06 
  39      29460926 
  39      29662916 
  40 001a 294E292E 		.ascii	")N).)n)\036)\000\025\325\001\247"
  40      296E291E 
  40      290015D5 
  40      01A7
  41              		.text
  42              		.section	.gnu.lto_P2_2_GetFIFOStatus.part.0.b94998f3,"",%progbits
  43 0000 789C6D92 		.ascii	"x\234m\222\333K\324A\024\307\317\231\337eW\267\322z"
  43      DB4BD441 
  43      14C7CF99 
  43      DF6557B7 
  43      D27A
  44 0012 92254858 		.ascii	"\222%HXD\213\2200\372\013z\210\350E\360\325\260\320"
  44      448B9030 
  44      FA0B7A88 
  44      E845F0D5 
ARM GAS  C:\Users\Thomas\AppData\Local\Temp\ccJ9v2aa.s 			page 3


  44      B0D0
  45 0024 15824830 		.ascii	"\025\202H0}\360\311\371\255\273\017E\261]\304JY0\312"
  45      7DF0C9F9 
  45      ADBB0F45 
  45      B15DC44A 
  45      5930CA
  46 0037 5B56DACD 		.ascii	"[V\332\315\362\002m&\345\203)\272\342\215\315\366\301"
  46      F2026D26 
  46      E58329BA 
  46      E28DCDF6 
  46      C1
  47 0048 ED465296 		.ascii	"\355FR\226i\033\352v\316\374\2660j\3407s\230\371~\316"
  47      691BEA76 
  47      CEFCB630 
  47      6AE03773 
  47      98F97ECE 
  48 005c 7CE79C9F 		.ascii	"|\347\234\237\006\377\216#\364Y\032\300>Z\321\001h^"
  48      06FF8E23 
  48      F4591AC0 
  48      3E5AD101 
  48      685E
  49 006e 18A5C044 		.ascii	"\030\245\300D\241V\241\351\0017H\247\246f\303\216\321"
  49      A156A1E9 
  49      013748A7 
  49      A666C38E 
  49      D1
  50 007f E033CBA9 		.ascii	"\3403\313\251\377\016\014D\016\000\241\326$\302\300"
  50      FF0E0C44 
  50      0E00A1D6 
  50      24C2C0
  51 008e 5AFC2096 		.ascii	"Z\374 \226\004\216\364nD0\267EJ\337\227\257\257\243"
  51      048EF46E 
  51      4430B745 
  51      4ADF97AF 
  51      AFA3
  52 00a0 AE405642 		.ascii	"\256@VB\000|\023\200{\335\270\333\315@\033\346\002\011"
  52      007C1380 
  52      7BDDB8DB 
  52      CD401BE6 
  52      0209
  53 00b2 3BA2DFC3 		.ascii	";\242\337\303\3334\017r|\345YKC\272\347:A\261D\374\205"
  53      DB340F72 
  53      7CE5594B 
  53      43BAE73A 
  53      41B144FC 
  54 00c7 4B5E95FE 		.ascii	"K^\225\376X2\271\213PlGm3\315\203\200\340\253\301h\206"
  54      5832B98B 
  54      506C476D 
  54      33CD8380 
  54      E0ABC168 
  55 00dc B647C193 		.ascii	"\266G\301\223\355\303>\335\206?\307\217\206\255f\271"
  55      EDC33EDD 
  55      863FC78F 
  55      86AD66B9 
  56 00ec 914C22B3 		.ascii	"\221L\"\263\267\376\313.\371\327\247]\246_J\231\211"
  56      B7FECB2E 
  56      F9D7A75D 
ARM GAS  C:\Users\Thomas\AppData\Local\Temp\ccJ9v2aa.s 			page 4


  56      A65F4A99 
  56      89
  57 00fd 1DE8C14E 		.ascii	"\035\350\301N\364\260Arv\233j\000 x\207O\272vH\231L"
  57      F4B04172 
  57      769B6A00 
  57      2078874F 
  57      BA764899 
  58 0112 BEFB98EB 		.ascii	"\276\373\230\353@H\010\024<i4\011\235'\003X\003\260"
  58      40480814 
  58      3C693409 
  58      9D270358 
  58      03B0
  59 0124 40285722 		.ascii	"@(W\".L^\265)\364m\347k^\016\365\015\030y\255tM\363"
  59      2E4C5EB5 
  59      29F46DE7 
  59      6B5E0EF5 
  59      0D1879AD 
  60 013b C0624067 		.ascii	"\300b@gC\251\201w0\217\004\221\233\261\225\364\234\033"
  60      43A98177 
  60      308F0491 
  60      9BB195F4 
  60      9C1B
  61 014d CA7760C2 		.ascii	"\312w`\302%\263\376X\306\224eF\360.\346\000\345\314"
  61      25B3FE58 
  61      C6946546 
  61      F02EE600 
  61      E5CC
  62 015f 04658B50 		.ascii	"\004e\213P\340\273\204\272k\016\007W\316N\365\027\262"
  62      E0BB84BA 
  62      6B0E0757 
  62      CE4EF517 
  62      B2
  63 0170 F3557A99 		.ascii	"\363Uz\231\300\320z(\373\275H\010mq\330\222:\373x\263"
  63      C0D07A28 
  63      FBBD4808 
  63      6D71D892 
  63      3AFB78B3 
  64 0184 3036EE54 		.ascii	"06\356T[\352\365\227\206b\015\316\0206Y\365\2263!t\354"
  64      5BEAF597 
  64      86620DCE 
  64      103659F5 
  64      96332174 
  65 0199 42377623 		.ascii	"B7v#\225\007\357a\010a\016\353~\230v:ag\354~\332y&\215"
  65      9507EF61 
  65      08610EEB 
  65      7E98763A 
  65      6167EC7E 
  66 01b1 793C0678 		.ascii	"y<\006x\237\224s\350\233w\330\022\215T\214\314\247\020"
  66      9F9473E8 
  66      9B77D812 
  66      8D548CCC 
  66      A710
  67 01c3 9DB608F9 		.ascii	"\235\266\010\371\024i\352\333\302\210AEz@\310,\372\345"
  67      1469EADB 
  67      C2884145 
  67      7A40C82C 
  67      FAE5
ARM GAS  C:\Users\Thomas\AppData\Local\Temp\ccJ9v2aa.s 			page 5


  68 01d5 FE9484CE 		.ascii	"\376\224\204\316'\326\326\3321\210\347-\277\214\315"
  68      27D6D6DA 
  68      3188E72D 
  68      BF8CCD
  69 01e4 B4391254 		.ascii	"\2649\022T9XV\345\301\207\264O\012\253\265\377\234\203"
  69      395856E5 
  69      C187B44F 
  69      0AABB5FF 
  69      9C83
  70 01f6 3308657A 		.ascii	"3\010ezt\374\332\350V\033h\036f=>\242\254\313\002\031"
  70      74FCDAE8 
  70      561B681E 
  70      663D3EA2 
  70      ACCB0219 
  71 020a E9B191C6 		.ascii	"\351\261\221\306\351\370\262\246\020\301\310\305\236"
  71      E9F8B2A6 
  71      10C1C8C5 
  71      9E
  72 0217 999F6929 		.ascii	"\231\237i)dD!\217\025\242\032\375\204\020UF\015\002"
  72      6444218F 
  72      15A21AFD 
  72      84105546 
  72      0D02
  73 0229 6E6D06AD 		.ascii	"nm\006\255L6\307\371\250\322\341\313\301\235\352W\240"
  73      4C36C7F9 
  73      A8D2E1CB 
  73      C19DEA57 
  73      A0
  74 023a F652A2B1 		.ascii	"\366R\242\261\330\363\240z\014P{z\271R\304\351\177s"
  74      D8F3A07A 
  74      0C507B7A 
  74      B952C4E9 
  74      7F73
  75 024c 42718D19 		.ascii	"Bq\215\031\233\260\361\306\326\272\014\205!`_\0123 "
  75      9BB0F1C6 
  75      D6BA0C85 
  75      21605F0A 
  75      3320
  76 025e 485D634E 		.ascii	"H]cN\275\327n+\351W\351d\036\255pdL\330U2\000\336\242"
  76      BDD76E2B 
  76      E957E964 
  76      1EAD7064 
  76      4CD85532 
  77 0275 B1B97B6C 		.ascii	"\261\271{l\273\037\335\"\272\032C\266\241\325\327pZ"
  77      BB1FDD22 
  77      BA1A43B6 
  77      A1D5D770 
  77      5A
  78 0286 7DB286FE 		.ascii	"}\262\206\376@\344\274$\311\316/>\344=\345\255<^\345"
  78      40E4BC24 
  78      C9CE2F3E 
  78      E43DE5AD 
  78      3C5EE5
  79 0299 2D2B29AA 		.ascii	"-+)\252\250\256,\365\026\027\026U\034<P\\XPR\220_\012"
  79      A8AE2CF5 
  79      16171655 
  79      1C3C505C 
ARM GAS  C:\Users\Thomas\AppData\Local\Temp\ccJ9v2aa.s 			page 6


  79      58505290 
  80 02af 66A5F774 		.ascii	"f\245\367t\365\311*\263\374Dy\305\341\262_u\303B\001"
  80      F5C92AB3 
  80      FC4479C5 
  80      E1B25F75 
  80      C34201
  81              		.text
  82              		.section	.gnu.lto_P2_2_GetFIFOStatus.b94998f3,"",%progbits
  83 0000 789C6590 		.ascii	"x\234e\220OHTQ\024\306\317w\356\363)3\3034\264\212\331"
  83      4F485451 
  83      14C6CF77 
  83      EEF32933 
  83      C334B48A 
  84 0015 140CA245 		.ascii	"\024\014\242EH\030mZ\011-\242\235\340v@B\237\020D\023"
  84      48186D5A 
  84      092DA29D 
  84      E0764042 
  84      9F104413 
  85 0029 932EC53B 		.ascii	"\223.\305;:\201\020T\266\250\010\022\242\254\254\034"
  85      3A811054 
  85      B6A80812 
  85      A2ACAC1C 
  86 0039 83DA14B3 		.ascii	"\203\332\024\263xF\324[\364g1\224.^5P\023\266\313\264"
  86      7846D45B 
  86      F4673194 
  86      2E5E3550 
  86      13B6CBB4 
  87 004d 06A99CCE 		.ascii	"\006\251\234\316yoQ\320\205\313\271\\\276\337w\276s"
  87      796F51D0 
  87      85CBB95C 
  87      BEDF77BE 
  87      73
  88 005e 0CFD7FF6 		.ascii	"\014\375\177\366\313]\005\321>\251h#\360\371WD\245\016"
  88      CB5D05D1 
  88      3EA96823 
  88      F0F95744 
  88      A50E
  89 0070 6613A4C8 		.ascii	"f\023\244\310&\234`\211\310\246\014\034\375\207\003"
  89      269C6089 
  89      C8A60C1C 
  89      FD8703
  90 007f 6825D004 		.ascii	"h%\320\004\033\007\023\370\302k\214\027\217\266j\350"
  90      1B0713F8 
  90      C26B8C17 
  90      8FB66AE8 
  91 008f 9AB376F2 		.ascii	"\232\263v\362\353\267wa\362\364\216M&Zg\302\336,vgU"
  91      EBB77761 
  91      F2F48E4D 
  91      265A67C2 
  91      DE2C7667 
  92 00a4 7E0B5DA2 		.ascii	"~\013]\242;\367\362I\270\315\344@\362\256\335\250\377"
  92      3BF7F249 
  92      B8CDE440 
  92      F2AEDDA8 
  92      FF
  93 00b5 48745E17 		.ascii	"Ht^\027\306\017*\266\017\202\3406\314_J=0\217N\025\317"
  93      C60F2AB6 
ARM GAS  C:\Users\Thomas\AppData\Local\Temp\ccJ9v2aa.s 			page 7


  93      0F82E036 
  93      CC5F4A3D 
  93      308F4E15 
  94 00ca 87DFFDB4 		.ascii	"\207\337\375\264\331\023\201\227\226\346.&r\327\004"
  94      D9138197 
  94      96E62E26 
  94      72D704
  95 00d9 AC6F369E 		.ascii	"\254o6\236%\355e[\256\267Z;\225\277\363/\037\037\001"
  95      25ED655B 
  95      AEB75A3B 
  95      95BFF32F 
  95      1F1F01
  96 00ec D6CABF97 		.ascii	"\326\312\277\227\223n\331Z\233\301]\3444\2308\337\203"
  96      936ED95A 
  96      9BC15DE4 
  96      349838DF 
  96      83
  97 00fd 2B53437F 		.ascii	"+SC\177\026\267\373\266\325z\360\353Bp\320\264\203\364"
  97      16B7FBB6 
  97      D57AF0EB 
  97      4270D0B4 
  97      83F4
  98 010f 8BA1ADDD 		.ascii	"\213\241\255\335\350M\364I\010\035\273\301\254\325\274"
  98      E84DF449 
  98      081DBBC1 
  98      ACD5BC
  99 011e C5A4DF3C 		.ascii	"\305\244\337<\223\216<D =ff\036\316\246WYBl\211\301"
  99      938E3C44 
  99      203D6666 
  99      1ECEA657 
  99      59426C89 
 100 0133 02B2F406 		.ascii	"\002\262\364\006\345\225\251\217W\333U\324d\335\322"
 100      E595A98F 
 100      57DB55D4 
 100      64DDD2
 101 0142 95E5C686 		.ascii	"\225\345\306\206Q\015$c\005q\302\006\033\012R\352\230"
 101      510D2463 
 101      0571C206 
 101      1B0A52EA 
 101      98
 102 0153 51A5C89E 		.ascii	"Q\245\310\236?}\\m\353\276)q\353\325\205\260\257C\367"
 102      3F7D5C6D 
 102      EBBE2971 
 102      EBD585B0 
 102      AF43F7
 103 0166 101F2CA2 		.ascii	"\020\037,\242[\254(\304T&\266U\375l\355l\205\307\177"
 103      5BAC28C4 
 103      5426B655 
 103      FD6CED6C 
 103      85C77F
 104 0179 DA692B52 		.ascii	"\332i+R^g\235\352>\306e\177&\362w\242\310+(ehC\254\264"
 104      5E679DEA 
 104      3EC6657F 
 104      26F277A2 
 104      C82B2865 
 105 0191 53345653 		.ascii	"S4VS\224\357Q\362k\25796\023\3603\240\341\271\372\341"
 105      94EF51F2 
ARM GAS  C:\Users\Thomas\AppData\Local\Temp\ccJ9v2aa.s 			page 8


 105      6BAF3936 
 105      13F033A0 
 105      E1B9FAE1 
 106 01a5 A4981BC8 		.ascii	"\244\230\033\310\344P\\\270]=\371\303\336\011\257xt"
 106      E4505CB8 
 106      5D3DF9C3 
 106      DE09AF78 
 106      74
 107 01b6 D41B1E1C 		.ascii	"\324\033\036\034(\214\025\207\274|\377@\341\320\201"
 107      288C1587 
 107      BC7CFF40 
 107      E1D081
 108 01c5 7C7FEF60 		.ascii	"|\177\357`o\317\020\271#\307F\012G\206\335\242wj\354"
 108      6FCF10B9 
 108      23C7460A 
 108      4786DDA2 
 108      776AEC
 109 01d8 F8E81FD5 		.ascii	"\370\350\037\325\006\266\036"
 109      06B61E
 110              		.text
 111              		.section	.gnu.lto_P2_2_Init.b94998f3,"",%progbits
 112 0000 789C8D91 		.ascii	"x\234\215\221\317K\024a\030\307\237\357\363\216\303"
 112      CF4B1461 
 112      18C79FEF 
 112      F38EC3
 113 000f D61E144F 		.ascii	"\326\036\024O2\247`\017\022\210\207\205\376\000\361"
 113      32A7600F 
 113      12888785 
 113      FE00F1
 114 001e 20DD04AF 		.ascii	" \335\004\257\033\0226\207.\032\303zv\306U\221\005A"
 114      1B123687 
 114      2E1AC37A 
 114      76C65591 
 114      0541
 115 0030 A343240B 		.ascii	"\243C$\013F\277,KK\213N\312``u)\354`\320\241\015ZA/"
 115      46BF2C4B 
 115      4B8B4ECA 
 115      60607529 
 115      EC60D0A1 
 116 0048 9528EA82 		.ascii	"\225(\352\2029>\317\276{\321@\032\230\347}g\336\357"
 116      393ECFBE 
 116      7BD1401A 
 116      98E77D67 
 116      DEEF
 117 005a F37D3ECF 		.ascii	"\363}>\317\373\030\372\367\361\344\355`\242\254\254"
 117      FB18FAF7 
 117      F1E4ED60 
 117      A2ACAC
 118 0069 30049EFC 		.ascii	"0\004\236\374D\024\245\030\320\015\201\206\030C\330"
 118      4414A518 
 118      D00D8186 
 118      1843D8
 119 0078 E61DC664 		.ascii	"\346\035\306d<w7\335\372(\014\303?_\336\266\214\266"
 119      3C7737DD 
 119      FA280CC3 
 119      3F5FDEB6 
 119      8CB6
ARM GAS  C:\Users\Thomas\AppData\Local\Temp\ccJ9v2aa.s 			page 9


 120 008a 54256D97 		.ascii	"T%m\227\255\015\236\240\225D\2633\362\367k\332\035\021"
 120      AD0D9EA0 
 120      9544B333 
 120      F2F76BDA 
 120      1D11
 121 009c 4D933DC3 		.ascii	"M\223=\303,\\\310\272\320\034\207I\262T\236\032\317"
 121      2C5CC8BA 
 121      D01C8749 
 121      B2549E1A 
 121      CF
 122 00ad 2265A8CA 		.ascii	"\"e\250\312p44hp5\020UD\257E7\231u5\033\030nR\317\342"
 122      70343468 
 122      70351055 
 122      44AF4537 
 122      9975351B 
 123 00c6 4A71FE82 		.ascii	"Jq\376\202\311@\367\033\345\207c&s?\014\207\177,\277"
 123      C940F71B 
 123      E5876326 
 123      733F0C87 
 123      7F2CBF
 124 00d9 BB164733 		.ascii	"\273\026G3\341q\222\240\312\214\2470R\020m\036.{\365"
 124      E17192A0 
 124      CA8CA730 
 124      52106D1E 
 124      2E7BF5
 125 00ec DEF00C19 		.ascii	"\336\360\014\031\311Y\277\367\270\320\270\305*\"\314"
 125      C959BFF7 
 125      B8D0B8C5 
 125      2A22CC
 126 00fb C1A36F58 		.ascii	"\301\243oX\335/\036\177\010N\361\306\311\032kB\215x"
 126      DD2F1E7F 
 126      084EF1C6 
 126      C91A6B42 
 126      8D78
 127 010d 9771B61B 		.ascii	"\227q\266\033<\027N\302\013\270\007l\344\354wim\357"
 127      3C174EC2 
 127      0BB8076C 
 127      E4EC7769 
 127      6DEF
 128 011f A2BA9A89 		.ascii	"\242\272\232\211\217Q\350\250\274\\\371\274\236\252"
 128      8F51E8A8 
 128      BC5CF9BC 
 128      9EAA
 129 012d FD22FD5C 		.ascii	"\375\"\375\\\236\230}\220.a:\272\023\245\252\354`\036"
 129      9E987D90 
 129      2E613ABA 
 129      13A5AAEC 
 129      601E
 130 013f 1E16A43C 		.ascii	"\036\026\244<\341%J\020\212\302\341\230PXK\307\272\376"
 130      E1254A10 
 130      8AC2E198 
 130      50584BC7 
 130      BAFE
 131 0151 FA7954A8 		.ascii	"\372yT\250Y8\207\002\373\312\302\336\206j\316u\\\024"
 131      59388702 
 131      FBCAC2DE 
 131      866ACE75 
ARM GAS  C:\Users\Thomas\AppData\Local\Temp\ccJ9v2aa.s 			page 10


 131      5C14
 132 0163 4731B1AD 		.ascii	"G1\261\255\255^\265\236\015\347\246,\325!\366\\\253"
 132      AD5EB59E 
 132      0DE7A62C 
 132      D521F65C 
 132      AB
 133 0174 AE27BC2F 		.ascii	"\256'\274/m-:J\000\001x\375\337\000oj\000.}G\024Ou\351"
 133      6D2D3A4A 
 133      000178FD 
 133      DF006F6A 
 133      002E7D47 
 134 018c 1DEA042A 		.ascii	"\035\352\004*r\2172J\031\354\245\366\\\227\337\357\007"
 134      728F324A 
 134      19ECA5F6 
 134      5C97DFEF 
 134      07
 135 019d D7F3FE8D 		.ascii	"\327\363\376\215\336\236\201\301\240\317\317u\367\014"
 135      DE9E81C1 
 135      A0CFCF75 
 135      F70C
 136 01ab 745EC975 		.ascii	"t^\311ug{\263\355}\324x\263?\357\007\301\340\255\274"
 136      677BB3ED 
 136      7DD478B3 
 136      3FEF07C1 
 136      E0ADBC
 137 01be 3D3D0159 		.ascii	"==\001YG\330|"
 137      47D87C
 138              		.text
 139              		.section	.gnu.lto_P2_2_EnableInt.b94998f3,"",%progbits
 140 0000 789C7D90 		.ascii	"x\234}\220\315K\033Q\024\305\357\271\223\244\003\221"
 140      CD4B1B51 
 140      14C5EFB9 
 140      93A40391 
 141 0010 202E2464 		.ascii	" .$dS!\213P\020\241B\377\002\027\205\256\204l\003R\354"
 141      53218B50 
 141      10A142FF 
 141      021785AE 
 141      846C0352 
 142 0025 2CDC4419 		.ascii	",\334D\031\342R|\251#\024\027\"\"\250H\004\013b\255"
 142      E2527CA9 
 142      23141722 
 142      22A84804 
 142      0B62AD
 143 0038 4D52B1A5 		.ascii	"MR\261\245\213\"\014.Dm\251\210\240T\244\225b\244\322"
 143      8B220C2E 
 143      446DA988 
 143      A054A495 
 143      62A4D2
 144 004b 8D1AB18E 		.ascii	"\215\032\261\216E\342}3\256\024:\360\346}p\316\357\236"
 144      45E27D33 
 144      AE143AF0 
 144      E67D70CE 
 144      EF9E
 145 005d 7B0DBAFF 		.ascii	"{\015\272\377%d}\007\321c\331a\020x\344\033Q\336d@\037"
 145      25647D07 
 145      D163D961 
 145      1078E41B 
ARM GAS  C:\Users\Thomas\AppData\Local\Temp\ccJ9v2aa.s 			page 11


 145      51DE6440 
 146 0072 08D4CFE8 		.ascii	"\010\324\317\350\3071\2372F\334\205\211hjV)ur\266\025"
 146      C7319F32 
 146      46DC8589 
 146      686A5629 
 146      7572B615 
 147 0086 1F8C7B4C 		.ascii	"\037\214{LT\345\000\2039\244H4\273\307W{a#\011}\256"
 147      54E50083 
 147      39A44834 
 147      BBC7577B 
 147      6123097D 
 148 009b AC7F1833 		.ascii	"\254\177\0303\2223J\275<\230\254\254F\325\204r\016j"
 148      92334ABD 
 148      3C98ACAC 
 148      46D58472 
 148      0E6A
 149 00ad B5879EB0 		.ascii	"\265\207\236\260\337\300\020'\232\023x\224\270\015\""
 149      DFC01027 
 149      9A137894 
 149      B80D22
 150 00bc 8653E77A 		.ascii	"\206S\347z7\032q\244@=\346\221\014\340x\213\210\344"
 150      371A71A4 
 150      403DE691 
 150      0CE0788B 
 150      88E4
 151 00ce 837E2937 		.ascii	"\203~)7\270\252V[\372:\272\226bS\302\312S\210<\346\260"
 151      B8AA565B 
 151      FA3ABA96 
 151      6253C2CA 
 151      53883CE6 
 152 00e3 FE111DCA 		.ascii	"\376\021\035\312\322\251+r\221\335\330\307\200\373i"
 152      D2A92B72 
 152      91DDD8C7 
 152      80FB69
 153 00f2 A85113FE 		.ascii	"\250Q\023\376\262!\005\246\267\207K\334\367O\275R\246"
 153      B22105A6 
 153      B7874BDC 
 153      F74FBD52 
 153      A6
 154 0103 C7924073 		.ascii	"\307\222@s\027\320'\356\020\355\200\375R\302\0241\355"
 154      17D027EE 
 154      10ED80FD 
 154      52C21431 
 154      ED
 155 0114 61E562E8 		.ascii	"a\345b\350h\336\016\314!1\177\034\033\237\214\375f\217"
 155      68DE0ECC 
 155      21317F1C 
 155      1B9F8CFD 
 155      668F
 156 0126 C385F5BC 		.ascii	"\303\205\365\274\012\351\300?\0177\267L\377\311\317"
 156      0AE9C03F 
 156      0F37B74C 
 156      FFC9CF
 157 0135 FFBAF867 		.ascii	"\377\272\370g'V\300T\336\201\307\021\274C\002EH\177"
 157      2756C054 
 157      DE81C711 
 157      BC430245 
ARM GAS  C:\Users\Thomas\AppData\Local\Temp\ccJ9v2aa.s 			page 12


 157      487F
 158 0147 28A10021 		.ascii	"(\241\000!\016\234G\002\\8 ~\371uY\255\323v\256'\224"
 158      0E9C4702 
 158      5C38207E 
 158      F97559AD 
 158      D376AE27 
 159 015c 45294547 		.ascii	"E)EG\241%\377\203\275\027\230 h\037\216\373y\303\017"
 159      A125FF83 
 159      BD179820 
 159      681F8EFB 
 159      79C30F
 160 016f 4D777B7B 		.ascii	"Mw{{P\325\363\300\242\364&\315xl\322\017\344\335\345"
 160      50D5F3C0 
 160      A2F426CD 
 160      786CD20F 
 160      E4DDE5
 161 0182 67BE98F4 		.ascii	"g\276\230\364\244\240'$\232\246\226\314S+k\331\317s"
 161      A4A02724 
 161      9AA696CC 
 161      532B6BD9 
 161      CF73
 162 0194 D68B8E74 		.ascii	"\326\213\216tw\257\335ie\332\323\335mO2\355\255\035"
 162      77AFDD69 
 162      65DAD3DD 
 162      6D4F32ED 
 162      AD1D
 163 01a6 AD2D9D14 		.ascii	"\255-\235\024\353\312\346,\333\356\355\311\245s\"\272"
 163      EBCAE62C 
 163      DBEEEDC9 
 163      A57322BA 
 164 01b6 0160DBB4 		.ascii	"\001`\333\264\332"
 164      DA
 165              		.text
 166              		.section	.gnu.lto_P2_2_Enable.b94998f3,"",%progbits
 167 0000 789C7D8F 		.ascii	"x\234}\217\315KBA\024\305\357\271\317\036\202\233h%"
 167      CD4B4241 
 167      14C5EFB9 
 167      CF1E829B 
 167      6825
 168 0012 AEA28D3B 		.ascii	"\256\242\215;\027B\177AP\313\004w!H\330\333&H-\305y"
 168      17427F41 
 168      50CB0477 
 168      2148D8DB 
 168      26482DC5 
 169 0027 68202DC2 		.ascii	"h -\302\202\240\010[\025\366iTD\264\352\321\"[\031}"
 169      82A0085B 
 169      15F66954 
 169      44B4EAD1 
 169      225B197D 
 170 003b 5020511B 		.ascii	"P Q\033\003\333%F\361\010\261;\275e\320\300\314\235"
 170      03DB2546 
 170      F108B13B 
 170      BD65D0C0 
 170      CC9D
 171 004d B9F39B73 		.ascii	"\271\363\233s\346\030\364w\204d\216\203hH*\014\002\227"
 171      E618F477 
 171      84648E83 
ARM GAS  C:\Users\Thomas\AppData\Local\Temp\ccJ9v2aa.s 			page 13


 171      68482A0C 
 171      0297
 172 005f EA44B69F 		.ascii	"\352D\266\237\001\275!P\216\221\303\033\267\031%gw%"
 172      01BD2150 
 172      8E91C31B 
 172      B7192567 
 172      7725
 173 0071 10DE544A 		.ascii	"\020\336TJ\275\337\036\006\347\202.\023u\330\223A\005"
 173      BDDF1E06 
 173      E7822E13 
 173      75D89341 
 173      05
 174 0082 6112A65D 		.ascii	"a\022\246]\350>\006\314\2020\375\336\035\266`\212<\035"
 174      E83E06CC 
 174      8230FDDE 
 174      1DB6608A 
 174      3C1D
 175 0094 0C38AAD7 		.ascii	"\0148\252\327;\256-\026\3030\231\\\0263Y\210\232Bi\253"
 175      3BAE2D16 
 175      C330995C 
 175      16335988 
 175      9A4269AB 
 176 00a8 57665D8D 		.ascii	"Wf]\215\006.>\347\353\253\023\372\341\027k\337\373\345"
 176      062E3EE7 
 176      EBAB13FA 
 176      E1176BDF 
 176      FBE5
 177 00ba F3077F8B 		.ascii	"\363\007\177\213]\346\356\225\255|\332\346\245y}\343"
 177      5DE6EE95 
 177      AD7CDAE6 
 177      A5797DE3 
 178 00ca B5481F4F 		.ascii	"\265H\037O6*y\224\261f\027\340\262\201m\204\260\003"
 178      362A7994 
 178      B16617E0 
 178      B2816D84 
 178      B003
 179 00dc 49865DE9 		.ascii	"I\206]\351R\003\371\017\323\2233<\305Z\271u\344\323"
 179      5203F90F 
 179      D393333C 
 179      C55AB975 
 179      E4D3
 180 00ee CF01C29E 		.ascii	"\317\001\302\236\220b\272\004\215\374'\266/]\221\240"
 180      9062BA04 
 180      8DFC27B6 
 180      2F5D91A0 
 181 00fe 27E49DD3 		.ascii	"'\344\235\323K\326\2706_\277[\250r\366[\025\225\337"
 181      4BD6B836 
 181      5FBF5BA8 
 181      72F65B15 
 181      95DF
 182 0110 655F4767 		.ascii	"e_GgB\025YI\327G\317\260\235\263\321_\222tT\350\210"
 182      42155949 
 182      D747CFB0 
 182      9DB3D15F 
 182      927454E8 
 183 0125 F2E7C148 		.ascii	"\362\347\301Hb\314\232\2662\2233\326T2\236\236\315\244"
 183      62CC9AB6 
ARM GAS  C:\Users\Thomas\AppData\Local\Temp\ccJ9v2aa.s 			page 14


 183      329333D6 
 183      54329E9E 
 183      CDA4
 184 0137 AC442C9E 		.ascii	"\254D,\236\036\031N\304\242\311h$E?}l\177\032"
 184      1E194EC4 
 184      A2C96824 
 184      453F7D6C 
 184      7F1A
 185              		.text
 186              		.section	.gnu.lto_P2_2_Start.b94998f3,"",%progbits
 187 0000 789C8D53 		.ascii	"x\234\215S\337KTA\024>gf\366\207\273\201\022\364\262"
 187      DF4B5441 
 187      143E6766 
 187      F687BB81 
 187      12F4B2
 188 0013 81083E48 		.ascii	"\201\010>H\020\012F\177A\017\321\333\202oaH\330>\364"
 188      100A467F 
 188      410FD1DB 
 188      826F6148 
 188      D83EF4
 189 0026 A2B1E8A3 		.ascii	"\242\261\350\2438ww\221\220\014\221\202\3126\212\312"
 189      38777791 
 189      900C9182 
 189      CA368ACA 
 190 0036 2C6B35B5 		.ascii	",k5\265\254\324\365j`F`H\246&\222A\006\366R\212R.\245"
 190      ACD4F56A 
 190      60466048 
 190      A6269241 
 190      06F6528A 
 191 004d DB397736 		.ascii	"\3339w6s\025\245\013{\346\336\2313\337\371\276\357\234"
 191      7315A50B 
 191      7BE6DE99 
 191      33DFF9BE 
 191      EF9C
 192 005f 95B0F339 		.ascii	"\225\260\3639B\277\002\005PJ+\272\000E\3638\200\345"
 192      42BF0205 
 192      504A2BBA 
 192      0045F338 
 192      80E5
 193 0071 15424E96 		.ascii	"\025BN\226\200\366\251\201|\320\373$*\263\255\020\371"
 193      80F6A981 
 193      7CD0FB24 
 193      2AB3AD10 
 193      F9
 194 0082 0510EA85 		.ascii	"\005\020\352\205TX\217_\305\262\300f\273\343\212\277"
 194      54588F5F 
 194      C5B2C066 
 194      BBE38ABF 
 195 0092 E8AED67A 		.ascii	"\350\256\326z\251\373\215\025\2641%\000V\204)\200\367"
 195      A9FB8D15 
 195      B4312500 
 195      56842980 
 195      F7
 196 00a3 B0082869 		.ascii	"\260\010(i9\266>\355w\307()\317\234a;\272\221\326\316"
 196      39B63EED 
 196      77C72829 
 196      CF9C613B 
ARM GAS  C:\Users\Thomas\AppData\Local\Temp\ccJ9v2aa.s 			page 15


 196      BA91D6CE 
 197 00b7 FDB64EA7 		.ascii	"\375\266N\247{\022\3033\230+!%Pq\360p\360r\310\341\340"
 197      7B12C333 
 197      982B2125 
 197      5071F070 
 197      F072C8E1 
 198 00cc E3E0E700 		.ascii	"\343\340\347\000\260@\267\231\305\027!x\225\263\030"
 198      B040B799 
 198      C5172178 
 198      95B318
 199 00db 69594E1C 		.ascii	"iYN\034d\274\237BR\251\033\357.&D\335/}^{SB\254s1\332"
 199      64BC9F42 
 199      52A91BEF 
 199      2E2644DD 
 199      2F7D5E7B 
 200 00f5 9D5F783B 		.ascii	"\235_x;\341]\024\264\343|\266[\261\353\030\307VKs\226"
 200      E15D14B4 
 200      E37CB65B 
 200      B1EB18C7 
 200      564B7396 
 201 0109 C4FB5887 		.ascii	"\304\373X\207\0170@\274:h\033\336cl&\232\377\017\323"
 201      0F3040BC 
 201      3A681BDE 
 201      636C269A 
 201      FF0FD3
 202 011c 6AEBBFE0 		.ascii	"j\353\277\340\341\333D\000\037r\0360\003\011\223%r\012"
 202      E1DB4400 
 202      1F721E30 
 202      03099325 
 202      720A
 203 012e 23790CD9 		.ascii	"#y\014\331\230lL\344\310B\344\367\251\371;\015\262\360"
 203      986C4CE4 
 203      C842E4F7 
 203      A9F93B0D 
 203      B2F0
 204 0140 96D6914F 		.ascii	"\226\326\221O\203/O\331\326M\275\221N#\027z\204\222"
 204      832F4FD9 
 204      D64DBD91 
 204      4E23177A 
 204      8492
 205 0152 F4E3E100 		.ascii	"\364\343\341\000\036\012d\232\200\011,\244;\023\327"
 205      1E0A649A 
 205      80092CA4 
 205      3B13D7
 206 0161 DAA2B95C 		.ascii	"\332\242\271\\C\"`'\325\230\305\221\037\215\033c\341"
 206      43226027 
 206      D598C591 
 206      1F8D1B63 
 206      E1
 207 0172 2CFBECA1 		.ascii	",\373\354\241\220\343\335\212\300l_\355\364\250`$\300"
 207      90E3DD8A 
 207      C06C5FED 
 207      F4A86024 
 207      C0
 208 0183 2E3E15DB 		.ascii	".>\025\333]\307\307\350\246Z\335,\311Cg\337\343\243"
 208      5DC7C7E8 
 208      A65ADD2C 
ARM GAS  C:\Users\Thomas\AppData\Local\Temp\ccJ9v2aa.s 			page 16


 208      C94367DF 
 208      E3A3
 209 0195 AB3E2EA7 		.ascii	"\253>.\247\232^[Zey\244\034\217\006\233\332o\373\331"
 209      9A5E5B5A 
 209      6579A41C 
 209      8F069BDA 
 209      6FFBD9
 210 01a8 A34B1679 		.ascii	"\243K\026y\344\302\036\014`\257\343\321\023\366h\026"
 210      E4C21E0C 
 210      60AFE3D1 
 210      13F66816 
 211 01b8 A36B0D44 		.ascii	"\243k\015D\317@z\015\352\267\317\277\243\016\204k\215"
 211      CF407A0D 
 211      EAB7CFBF 
 211      A30E846B 
 211      8D
 212 01c9 543C352A 		.ascii	"T<5*Z\220s\366D\354#D\0021\232GN\030\314\234=\257<\313"
 212      5A9073F6 
 212      44EC2344 
 212      02319A47 
 212      4E18CC9C 
 213 01e1 9058759B 		.ascii	"\220Xu\233l\237\271\360*\276\330\255\234V\021\201\347"
 213      6C9FB9F0 
 213      2ABED8AD 
 213      9C561181 
 213      E7
 214 01f2 FF4DE085 		.ascii	"\377M\340\205C\300G\331\221\245\256\336b\266x\327Y\332"
 214      43C047D9 
 214      91A5AEDE 
 214      62B678D7 
 214      59DA
 215 0204 3E3CFD9B 		.ascii	"><\375\233\3033@\333N\357x:Tf>I\321\370\325\223\331"
 215      C33340DB 
 215      4EEF783A 
 215      54663E49 
 215      D1F8D593 
 216 0219 CD9A3E90 		.ascii	"\315\232>\220\351\242\334\321\247A\247OI\226\244\350"
 216      E9A2DCD1 
 216      A741A74F 
 216      4996A4E8 
 217 0229 6CF2F2D0 		.ascii	"l\362\362\320\224i\312\372X\246Os\311\361V\271E\305"
 217      9469CAFA 
 217      58A64F73 
 217      C9F156B9 
 217      45C5
 218 023b D0A60AFB 		.ascii	"\320\246\012\373\257'\015T\321`\370\011f\213\017IG\327"
 218      AF270D54 
 218      D160F809 
 218      668B0F49 
 218      47D7
 219 024d EE08C38E 		.ascii	"\356\010\303\216\017~\230\303\250\335G\023E\371\260"
 219      0F7E98C3 
 219      A8DD4713 
 219      45F9B0
 220 025c DD08A2AD 		.ascii	"\335\010\242\255\034\2328\202u\364\257\364\300G\264"
 220      1C9A3882 
 220      75F4AFF4 
ARM GAS  C:\Users\Thomas\AppData\Local\Temp\ccJ9v2aa.s 			page 17


 220      C047B4
 221 026b EC0F2E56 		.ascii	"\354\017.V\304\003\275@\263I\322\311\255\202\342\362"
 221      C403BD40 
 221      B349D2C9 
 221      AD82E2F2 
 222 027b E3A1AA50 		.ascii	"\343\241\252P\370tM\350LEYum\2702T\036,\253>v\264<X"
 222      F8744DE8 
 222      4C455975 
 222      6DB83254 
 222      1E2CAB3E 
 223 0293 5A515A5C 		.ascii	"ZQZ\\\011\271g\253jB\341p\355\271\032s\372\007\374\311"
 223      09B967AB 
 223      6A42E170 
 223      EDB91A73 
 223      FA07FCC9 
 224 02a7 83D0     		.ascii	"\203\320"
 225              		.text
 226              		.section	.gnu.lto_P2_2_DisableInt.b94998f3,"",%progbits
 227 0000 789C7D90 		.ascii	"x\234}\220\313K\033Q\024\306\317w&\031\007\002\241\270"
 227      CB4B1B51 
 227      14C6CF77 
 227      26190702 
 227      A1B8
 228 0012 28924D0B 		.ascii	"(\222M\013Y\210 \202\212\177\201\013\027\335\010\331"
 228      59882082 
 228      8A7F810B 
 228      17DD08D9 
 229 0022 06A4A4B3 		.ascii	"\006\244\244\263p\243e\210K\361FG\020\005\021\021L\221"
 229      70A36588 
 229      4BF14647 
 229      10051111 
 229      4C91
 230 0034 080AE223 		.ascii	"\010\012\342#\276J\333\375\320Ei\020\224R0 \242.\222"
 230      BE4ADBFD 
 230      D0456910 
 230      94523020 
 230      A22E92
 231 0047 E263E10B 		.ascii	"\342c\341\013lG\221\364\334\231\256*x\341\276\016\337"
 231      6C4791F4 
 231      DC99AE2A 
 231      78E1BE0E 
 231      DF
 232 0058 F99DEF1C 		.ascii	"\371\235\357\034\203\236\256\204\354\003\020\265\312"
 232      839EAE84 
 232      EC0310B5 
 232      CA
 233 0065 0D83C053 		.ascii	"\015\203\300S\273D9\213\001\375 \320\020c\010g|\315"
 233      BB44398B 
 233      01FD20D0 
 233      10630867 
 233      7CCD
 234 0077 98F28AF9 		.ascii	"\230\362\212\371X\343\222R\352\352\246\3340\332\340"
 234      58E39252 
 234      EAEAA6DC 
 234      30DAE0
 235 0086 33D12D87 		.ascii	"3\321-\207\030,\243\221DS>\273?\210\032I\350w\265\364"
 235      182CA391 
ARM GAS  C:\Users\Thomas\AppData\Local\Temp\ccJ9v2aa.s 			page 18


 235      44533EBB 
 235      3F881A49 
 235      E877B5F4 
 236 009a 79C6482E 		.ascii	"y\306H.(5|R\252~\213\251\274rOj\265W\276\260W`H&\232"
 236      28357C52 
 236      AA7E8BA9 
 236      BC724F6A 
 236      B557BEB0 
 237 00b3 13684AFC 		.ascii	"\023hJ\3743\"\011\327\356c9f\272R\340\005V\221\014\341"
 237      332209D7 
 237      EE633966 
 237      BA52E005 
 237      56910CE1 
 238 00c7 588329FE 		.ascii	"X\203)\376\240#[\365\236\252\325>U\246\277\267\263%"
 238      A0235BF5 
 238      9EAAD53E 
 238      55A6BFB7 
 238      B325
 239 00d9 66251421 		.ascii	"f%\024!\2379\252\017\242\212l\355\272*\037\271\215C"
 239      9F39AA0F 
 239      A28A6CED 
 239      BA2A1FB9 
 239      8D43
 240 00eb 8C78B313 		.ascii	"\214x\263\023/5\3417\033R`\376\347\344&\017>\2501e\371"
 240      2F35E137 
 240      1B5260FE 
 240      E7E4260F 
 240      3EA83165 
 241 0100 2C0E34B7 		.ascii	",\0164\267\210A\311\216\320>8(%L\021\313L\276\336\215"
 241      8841C98E 
 241      D03E3828 
 241      254C11CB 
 241      4CBEDE8D 
 242 0114 FF5A77C2 		.ascii	"\377Zw\302\344\210$\177\231\231\375\020?e\237\243\205"
 242      E488247F 
 242      9999FD10 
 242      3F659FA3 
 242      85
 243 0125 524E45B4 		.ascii	"RNE\264\341\343\312\336\017+\010\005\376\0277.\366\343"
 243      E1E3CADE 
 243      0F2B0805 
 243      FE17372E 
 243      F6E3
 244 0137 05CCE55C 		.ascii	"\005\314\345\\\370lb\035\011l@\372\303&\012\020\342"
 244      F86C621D 
 244      096C40FA 
 244      C3260A10 
 244      E2
 245 0148 C81F33C4 		.ascii	"\310\0373\304EC\342\352n\376< \232\227 l\211T\252NC"
 245      4543E2EA 
 245      6EFE3C20 
 245      9A97206C 
 245      8954AA4E 
 246 015d 6B9EA36D 		.ascii	"k\236\243m\013M\030t\010\327\233\333\011\\\323\377\315"
 246      0B4D1874 
 246      08D79BDB 
 246      095CD3FF 
ARM GAS  C:\Users\Thomas\AppData\Local\Temp\ccJ9v2aa.s 			page 19


 246      CD
 247 016e D5DDEA81 		.ascii	"\325\335\352\201\340\2434'\335\370l\321\021r^\341M "
 247      E0A33427 
 247      DDF86CD1 
 247      11725EE1 
 247      4D20
 248 0180 263D2AE8 		.ascii	"&=*\350\021\211\346uK\272\313\356\263\235\267Y\373]"
 248      1189E675 
 248      4BBACBEE 
 248      B39DB759 
 248      FB5D
 249 0192 4FAA7FC0 		.ascii	"O\252\177\300\311\330\351\356T\177gG\272\273\255\247"
 249      C9D8E9EE 
 249      547F6747 
 249      BABBADA7 
 250 01a2 AD2543F1 		.ascii	"\255%C\361\336\276\254\3558\003\357\263\251\254\210"
 250      DEBEACED 
 250      3803EFB3 
 250      A9AC88
 251 01b1 FE026AD9 		.ascii	"\376\002j\331\265&"
 251      B526
 252              		.text
 253              		.section	.gnu.lto_P2_2_Stop.b94998f3,"",%progbits
 254 0000 789C7D8F 		.ascii	"x\234}\217?HBQ\024\306\317w\236=\004!\242I\234\242\305"
 254      3F484251 
 254      14C6CF77 
 254      9E3D0421 
 254      A2499CA2 
 255 0015 CD41686A 		.ascii	"\315Ahjlp\025\334B\220\260\267&H\215\342}h\020\015\241"
 255      6C7015DC 
 255      4290B0B7 
 255      26488DE2 
 255      7D68100D 
 256 002a 4210444E 		.ascii	"B\020DN\205\375\265\241\032\243GKNE\024\005\366o\261"
 256      85FDB5A1 
 256      1AA3474B 
 256      4E451405 
 256      F66FB1
 257 003d A82D91FE 		.ascii	"\250-\221\376<\302\354\334\336\030t\341\336s\357\271"
 257      3CC2ECDC 
 257      DE1874E1 
 257      DE73EFB9 
 258 004d BFFB7DF7 		.ascii	"\277\373}\3673\350\357\010\311\214\203hX*\014\002\227"
 258      33E8EF08 
 258      C98C8368 
 258      582A0C02 
 258      97
 259 005e 4E896C3F 		.ascii	"N\211l?\003zC\240<#\217\027n3J\316\326R \274\246\224"
 259      037A43A0 
 259      3C238F17 
 259      6E334ACE 
 259      D65220BC 
 260 0074 7AAD1C06 		.ascii	"z\255\034\006g\203.\023u\330\223A\015a\022\246]\354"
 260      67832E13 
 260      75D89341 
 260      0D6112A6 
 260      5DEC
ARM GAS  C:\Users\Thomas\AppData\Local\Temp\ccJ9v2aa.s 			page 20


 261 0086 5E07CCA2 		.ascii	"^\007\314\2420\003\336\035\326a\212<\355\016:\252\327"
 261      3003DE1D 
 261      D6618A3C 
 261      ED0E3AAA 
 261      D7
 262 0097 DB7B2B37 		.ascii	"\333{+7Fa2\271,f\262\020\265\204\322V\217\314\272\032"
 262      466132B9 
 262      2C66B210 
 262      B584D256 
 262      8FCCBA1A 
 263 00ab 4D1CBFCF 		.ascii	"M\034\277\317?U\307\365\303\017\326\276\227\213GW\376"
 263      3F55C7F5 
 263      C30FD6BE 
 263      978B4757 
 263      FE
 264 00bc 677699BB 		.ascii	"gv\231\273\015[\371\264\315C\353\354\334k\221>\036\254"
 264      0D5BF9B4 
 264      CD43EBEC 
 264      DC6B913E 
 264      1EAC
 265 00ce D60A58C1 		.ascii	"\326\012X\301\262]\204\313\0066\020\302&$\031\266\244"
 265      B25D84CB 
 265      063610C2 
 265      262419B6 
 265      A4
 266 00df 4B4D143E 		.ascii	"KM\024>MO\316\360\024\313\345\375j\277~n|\203\260-\250"
 266      4D4FCEF0 
 266      14CBE5FD 
 266      6ABF7E6E 
 266      7C83B02D 
 267 00f4 B856A099 		.ascii	"\270V\240\231\377\324v\244+\032t\213\202ss\302\032\327"
 267      FFD476A4 
 267      2B1A748B 
 267      827373C2 
 267      1AD7
 268 0106 EED58B85 		.ascii	"\356\325\213\205:\347\276\324\234\362\273\354\353\350"
 268      3AE7BED4 
 268      9CF2BBEC 
 268      EBE8
 269 0114 50A82327 		.ascii	"P\250#'\361\372\350\036\266s\027\373%Ig\205\316(\237"
 269      F1FAE81E 
 269      B67317FB 
 269      25496785 
 269      CE289F
 270 0127 1E8A2463 		.ascii	"\036\212$c\326\224\225\235\230\266&S\211\314L6m%\343"
 270      D694959D 
 270      98B62653 
 270      89CC4C36 
 270      6D25E3
 271 013a 89CCD848 		.ascii	"\211\314\330H2\036ME#i\372\001\233\206\200T"
 271      321E4D45 
 271      2369FA01 
 271      9B868054 
 272              		.text
 273              		.section	.gnu.lto_P2_2_SetIntMode.b94998f3,"",%progbits
 274 0000 789C8D51 		.ascii	"x\234\215Q;H\003A\020\235\267{&\247)\024+M%\210\212"
 274      3B480341 
ARM GAS  C:\Users\Thomas\AppData\Local\Temp\ccJ9v2aa.s 			page 21


 274      109DB77B 
 274      26A72914 
 274      2B4D2588 
 275 0015 2016017B 		.ascii	" \026\001{\301B\354\202\266\001\021\275\302\306\310"
 275      C142EC82 
 275      B60111BD 
 275      C2C6C8
 276 0024 11EB5C4C 		.ascii	"\021\353\\L,\014\010Q,\004I%\342?\376Z\221`a\264\211"
 276      2C0C0851 
 276      2C044925 
 276      E23FFE5A 
 276      916061B4 
 277 0039 68235868 		.ascii	"h#Xha\024\265\360\203b\214\2778{g\245 \036\354\314\354"
 277      6114B5F0 
 277      83628CBF 
 277      387B67A5 
 277      201EECCC 
 278 004e DEFBCCCE 		.ascii	"\336\373\314\316J\372\375yyi\202\310\307\031\222 \022"
 278      4AFAFD79 
 278      796982C8 
 278      C7199220 
 278      12
 279 005f 59A2882E 		.ascii	"Y\242\210.\000U\020(,\020\306\265x\020H\244\227\246"
 279      00551028 
 279      2C10C6B5 
 279      781048A4 
 279      97A6
 280 0071 3C0DB396 		.ascii	"<\015\263\226e\335\037\215W\217T\025\230\366(\034\031"
 280      65DD1F8D 
 280      578F5415 
 280      98F6281C 
 280      19
 281 0082 CCA18121 		.ascii	"\314\241\201!\361\355x\252T\326\202\270\236|\315\334"
 281      F1ED78AA 
 281      54D682B8 
 281      9E7CCDDC 
 282 0092 C8BA19CB 		.ascii	"\310\272\031\313\032No\245\254V\024Xs\036\222\031h\362"
 282      1A4E6FA5 
 282      AC561458 
 282      731E9219 
 282      68F2
 283 00a4 A2D14B7C 		.ascii	"\242\321K|@X@\235\002?\304>\216=\256\030kW8\232X\204"
 283      4058409D 
 283      023FC43E 
 283      8E3DAE18 
 283      6B57389A 
 284 00ba 0B9C572B 		.ascii	"\013\234W+\323V\261\270\231\231\234\257\327\312\004"
 284      D356B1B8 
 284      99999CAF 
 284      D7CA04
 285 00c9 738454A1 		.ascii	"s\204T\241D\005\027\024\335\255J]\005\242\034/\325\367"
 285      44051714 
 285      DDAD4A5D 
 285      05A21C2F 
 285      D5F7
 286 00db 056F38CB 		.ascii	"\005o8\313\023\354<\307?\367L\245\226\027\352\022w\311"
 286      13EC3CC7 
ARM GAS  C:\Users\Thomas\AppData\Local\Temp\ccJ9v2aa.s 			page 22


 286      3FF74CA5 
 286      9617EA12 
 286      77C9
 287 00ed DDA7B22B 		.ascii	"\335\247\262+Q\020rl?bi\312\373,wp\250\333G\244\266"
 287      5110726C 
 287      3F6269CA 
 287      FB2C7770 
 287      A8DB47A4 
 288 0102 A397D937 		.ascii	"\243\227\3317\231\304t$\306-kX\202\027\313\3401a\005"
 288      99C47424 
 288      C62D6B58 
 288      8217CBE0 
 288      316105
 289 0115 49D009A2 		.ascii	"I\320\011\242/.GN:\212\267\347\357Q\233\256\275\360"
 289      2F2E474E 
 289      3A8AB7E7 
 289      EF519BAE 
 289      BDF0
 290 0127 7D520C65 		.ascii	"}R\014e\327\011(\314_j\253\254\306\032d\267\270\323"
 290      D70928CC 
 290      5F6AABAC 
 290      C61A64B7 
 290      B8D3
 291 0139 E14896FC 		.ascii	"\341H\226\374\305X\373\341\357\316\013\345\220\177\317"
 291      C558FBE1 
 291      EFCE0BE5 
 291      907FCF
 292 0148 8C94DBFE 		.ascii	"\214\224\333\376n\302\272m\037}\372\206\350,\311\300"
 292      6EC2BA6D 
 292      1F7DFA86 
 292      E82CC9C0 
 293 0158 FF75B461 		.ascii	"\377u\264aw\244\323)\"\351\315N\205V/\233\343W\342Q"
 293      77A4D329 
 293      22E9CD4E 
 293      85562F9B 
 293      E357E251 
 294 016c F2606B9A 		.ascii	"\362`k\232\003\355\306\200a\366\204\214\276\356\256"
 294      03EDC680 
 294      61F6848C 
 294      BEEEAE
 295 017b E090D96B 		.ascii	"\340\220\331k\004\374]\301\266\226\200\337\327\355k"
 295      04FC5DC1 
 295      B69680DF 
 295      D7ED6B
 296 018a EEA5F2FE 		.ascii	"\356\245\362\376\201\220a\232C\203!\347\357\027\261"
 296      8190619A 
 296      438321E7 
 296      EF17B1
 297 0199 BABFC4   		.ascii	"\272\277\304"
 298              		.text
 299              		.section	.gnu.lto_P2_2_GetIntStatus.b94998f3,"",%progbits
 300 0000 789C6366 		.ascii	"x\234cf\300\004R@\374\033\210\225\200\230\221\231\201"
 300      C0045240 
 300      FC1B8895 
 300      80989199 
 300      81
 301 0011 9169C239 		.ascii	"\221i\3029\006\206F\016&FF\020\203\201\221\241\236\211"
ARM GAS  C:\Users\Thomas\AppData\Local\Temp\ccJ9v2aa.s 			page 23


 301      0686460E 
 301      26464610 
 301      838191A1 
 301      9E89
 302 0023 B19EF125 		.ascii	"\261\236\361%\323G&\3063;\377]fT_\332\320\320\364a\321"
 302      D34726C6 
 302      333BFF5D 
 302      66545FDA 
 302      D0D0F461 
 303 0038 F4BBDCAD 		.ascii	"\364\273\334\255\022?\231\030\030>310\352H1j\202\314"
 303      123F9918 
 303      183E3331 
 303      30EA4831 
 303      6A82CC
 304 004b 615CCEA8 		.ascii	"a\\\316\250\316\000T\370\261\345\357un\266\226\206\206"
 304      CE0054F8 
 304      B1E5EF75 
 304      6EB69686 
 304      86
 305 005c 0601903C 		.ascii	"\006\001\220<Pb\005#\033#\220^/t\240\341\377\377\317"
 305      50620523 
 305      1B23905E 
 305      2F74A0E1 
 305      FFFFCF
 306 006f 77A7ACD0 		.ascii	"w\247\254\320gaab\370\311\004\264\021d\010\303\023 "
 306      67616162 
 306      F8C904B4 
 306      116408C3 
 306      1320
 307 0081 01B2EF29 		.ascii	"\001\262\357)\023\023\210f\276\305x\350[\327\263\323"
 307      13138866 
 307      BEC578E8 
 307      5BD7B3D3 
 308 0091 16208DDF 		.ascii	"\026 \215\337\231@\226\317\375;W\341\005\323O&\246\267"
 308      994096CF 
 308      FD3B57E1 
 308      05D34F26 
 308      A6B7
 309 00a3 271A1B58 		.ascii	"'\032\033X@\266\334\177r\376\"\007X\210\001\304}8\271"
 309      40B6DC7F 
 309      72FE2207 
 309      588801C4 
 309      7D38B9
 310 00b6 710EEB5C 		.ascii	"q\016\353\\\306\331\215-\214?\231\230\031W2J1\256b\004"
 310      C6D98D2D 
 310      8C3F9998 
 310      1957324A 
 310      31AE6204 
 311 00ca BA8A7135 		.ascii	"\272\212q5\343\\F\206[\214\315?\332t \3061CL\374\376"
 311      E35C4686 
 311      5B8CCD3F 
 311      DA7420C6 
 311      31434CFC 
 312 00df E7782B3F 		.ascii	"\347x+?H?\003;\003\343\032\240\322{\214\214P\005`\027"
 312      483F033B 
 312      03E31AA0 
 312      D27B8C8C 
ARM GAS  C:\Users\Thomas\AppData\Local\Temp\ccJ9v2aa.s 			page 24


 312      50056017 
 313 00f3 31825C02 		.ascii	"1\202\\\0024[A/\306=5/\265(\261$5%>8\277\264(95& 8\337"
 313      345B412F 
 313      C63D352F 
 313      B528B124 
 313      35253E38 
 314 0110 D93426C0 		.ascii	"\3314&\300(\336H/\231\001\000\356\374d\306"
 314      28DE482F 
 314      990100EE 
 314      FC64C6
 315              		.text
 316              		.section	.gnu.lto_P2_2_WriteRegValue.b94998f3,"",%progbits
 317 0000 789C654F 		.ascii	"x\234eO\277KBQ\030\375\316}O1l\220\246r\012B\\\302A"
 317      BF4B4251 
 317      18FDCE7D 
 317      4F316C90 
 317      A6720A42 
 318 0017 68690A0A 		.ascii	"hi\012\012Z\005\033\005\021{QK\202\331\354}a\26488D"
 318      5A051B05 
 318      117B514B 
 318      82D9EC7D 
 318      61B43838 
 319 002c 44D214D2 		.ascii	"D\322\024\322\017+\205\376\201G\021\010\375\302 \304"
 319      0F2B85FE 
 319      81471108 
 319      FDC220C4 
 320 003c 86025128 		.ascii	"\206\002Q(\210H|`\016a\337\315\261\013\227\357;\207"
 320      88487C60 
 320      0E61DFCD 
 320      B10B97EF 
 320      3B87
 321 004e 73CF3957 		.ascii	"s\3179W\243\377\307\313\327\017\242I\236\320\010\"w"
 321      A3FFC7CB 
 321      D70FA249 
 321      9ED00822 
 321      77
 322 005f 4F64BA04 		.ascii	"Od\272\004\240\026\002\245\005\322x\027m\201\234U\334"
 322      A01602A5 
 322      05D27817 
 322      6D819C55 
 322      DC
 323 0070 75FB0B52 		.ascii	"u\373\013R\312\257F~ls\264'\210:b`\203C\370Yr\325\375"
 323      CAAF467E 
 323      6C73B427 
 323      883A6260 
 323      8343F859 
 324 0087 D8726813 		.ascii	"\330rh\023 \336o\032\337\235\3417\321\023\360(\270W"
 324      20DE6F1A 
 324      DF9DE137 
 324      D113F028 
 324      B857
 325 0099 6BD99A82 		.ascii	"k\331\232\202B(X\257?f]\276\003)7\254JY\3160\257\341"
 325      422858AF 
 325      3F665DBE 
 325      032937AC 
 325      4A59CE30 
 326 00af 081AFBE1 		.ascii	"\010\032\373\341\030^\234\300KL\021\212\360)y;\363S"
ARM GAS  C:\Users\Thomas\AppData\Local\Temp\ccJ9v2aa.s 			page 25


 326      185E9CC0 
 326      4B4C118A 
 326      F029793B 
 326      F353
 327 00c1 733B339C 		.ascii	"s;3\234\355\031d\342\024N\256M\245\021K\366\373\027"
 327      ED1964E2 
 327      144EAE4D 
 327      A5114BF6 
 327      FB17
 328 00d3 F676655A 		.ascii	"\366veZ\327\271\265\322S\223\025\252~\213\263xj\317"
 328      D7B9B5D2 
 328      539315AA 
 328      7E8BB378 
 328      6ACF
 329 00e5 B8DC69DB 		.ascii	"\270\334i\333\013\352\215*V\276\276\025\252\211\236"
 329      0BEA8D2A 
 329      56BEBE15 
 329      AA899E
 330 00f4 AD985257 		.ascii	"\255\230RW\366\257\315\207\252\353\217\"\005\355\317"
 330      F6AFCD87 
 330      AAEB8F22 
 330      05EDCF
 331 0103 EA1DF691 		.ascii	"\352\035\366\22173\350\011\007\316\270\3209\027\"\224"
 331      3733E809 
 331      07CEB8D0 
 331      39172294 
 332 0113 98EDB2E9 		.ascii	"\230\355\262\351\013L\353)\254\374\324\347\233\002*"
 332      0B4CEB29 
 332      ACFCD4E7 
 332      9B022A
 333 0122 8643C703 		.ascii	"\206C\307\003\221yc\325H\306R\306b4\234XO\306\215H("
 333      917963D5 
 333      48C652C6 
 333      62349C58 
 333      4FC68D48 
 334 0137 9C989D8A 		.ascii	"\234\230\235\212\204\202\321` NCk\313+K\251\271X*\366"
 334      8482D160 
 334      204E436B 
 334      CB2B4BA9 
 334      B9582AF6 
 335 014b 0B7EF87A 		.ascii	"\013~\370z\204"
 335      84
 336              		.text
 337              		.section	.gnu.lto_P2_2_ReadRegValue.b94998f3,"",%progbits
 338 0000 789C6D52 		.ascii	"x\234mRmHSQ\030~\337s\356\275\256i&\375\334\037\203"
 338      6D485351 
 338      187EDF73 
 338      EEBDAE69 
 338      26FDDC1F 
 339 0015 115A84C5 		.ascii	"\021Z\204\305\240?\365'\210\210\376\011\376\035\210"
 339      A03FF527 
 339      8888FE09 
 339      FE1D88
 340 0024 E884201A 		.ascii	"\350\204 \032,\375)\236\315\013Zfk\020f\226R?,\315\374"
 340      2CFD299E 
 340      CD0B5A66 
 340      6B106696 
ARM GAS  C:\Users\Thomas\AppData\Local\Temp\ccJ9v2aa.s 			page 26


 340      523F2CCD 
 341 0039 A8AD0F3F 		.ascii	"\250\255\017?\202i\221B\245\210\246$\243\2068P\211\310"
 341      82699142 
 341      A588A624 
 341      A3863850 
 341      89C8
 342 004b 56AE11B5 		.ascii	"V\256\021\265\336s\256\203\226]\330\3569\347>\357s\336"
 342      DE73AE83 
 342      965DD8EE 
 342      39E73EEF 
 342      73DE
 343 005d E7795E0E 		.ascii	"\347y^\016;\237S\364\253\343\000G\350\215\006 \273:"
 343      3B9F53F4 
 343      ABE30047 
 343      E88D0620 
 343      BB3A
 344 006f 03E0B731 		.ascii	"\003\340\2671\324\254\005\267\026\0236\215\361\313S"
 344      D4AC05B7 
 344      1613368D 
 344      F1CB53
 345 007e 00C2AE9B 		.ascii	"\000\302\256\233y \012tDy\016\010\215\214k:62\315\""
 345      79200A74 
 345      44790E08 
 345      8D8C6B3A 
 345      3632CD22 
 346 0092 5C679B0C 		.ascii	"\\g\233\014_\257\374H\026\254\2614\203\"\240m\347R\342"
 346      5FAFFC48 
 346      16ACB134 
 346      8322A06D 
 346      E752E2
 347 00a5 1B975B64 		.ascii	"\033\227[dr;\226\234Y1Jz\204\010|\371:W\325q\3556\246"
 347      723B969C 
 347      59314A7A 
 347      84087CF9 
 347      3A57D571 
 348 00bc 19832403 		.ascii	"\031\203$\003\274\207\016\354E\207\344\355\303\022\211"
 348      BC870EEC 
 348      4587E4ED 
 348      C31289
 349 00cb ED8B7D8F 		.ascii	"\355\213}\217\026r'\312u\260\265{~\267\363\016\325\305"
 349      167227CA 
 349      75B0B57B 
 349      7EB7F30E 
 349      D5C5
 350 00dd 6FB43517 		.ascii	"o\2645\027\210^a\3063\231b*\306\373\310s\353\345C%\233"
 350      885E61C6 
 350      3399622A 
 350      C6FBC873 
 350      EBE54325 
 351 00f2 E6AFA57C 		.ascii	"\346\257\245|\303\024B\024a?:\345%\304\375\000\015\004"
 351      C3144214 
 351      613F3AE5 
 351      25C4FD00 
 351      0D04
 352 0104 60F28430 		.ascii	"`\362\2040\327'z\332\355\026m:\361*_tdiy\226\366\220"
 352      D7277ADA 
 352      ED166D3A 
ARM GAS  C:\Users\Thomas\AppData\Local\Temp\ccJ9v2aa.s 			page 27


 352      F12A5F74 
 352      64697996 
 353 011a 030F6449 		.ascii	"\003\017dIq\000\235C{\243\"\223\011\277io9l\3308\244"
 353      71009D43 
 353      7BA32293 
 353      09BF696F 
 353      396CD838 
 354 012f 99A6D19F 		.ascii	"\231\246\321\237\256\203d4\024\004`\225\256\"\253VI"
 354      AE836434 
 354      14046095 
 354      AE22AB56 
 354      49
 355 0140 9A99C713 		.ascii	"\232\231\307\023\214\003\371\307\227qr\353\322\326\272"
 355      8C03F9C7 
 355      977172EB 
 355      D2D6BA
 356 014f 4BF69062 		.ascii	"K\366\220b\234\256\017\177\012\255\027Js\214\330\264"
 356      9CAE0F7F 
 356      0AAD174A 
 356      738CD8B4 
 357 015f 5F68B2EB 		.ascii	"_h\262\353\217\253\263s6u\244D\\l[\013h]x\323o\222Q"
 357      8FABB373 
 357      3675A444 
 357      5C6C5B0B 
 357      685D78D3 
 358 0176 79384822 		.ascii	"y8H\"\207\244H\034\306.\322\001\011\362\236\302\340"
 358      87A4481C 
 358      C62ED201 
 358      09F29EC2 
 358      E0
 359 0187 8B185076 		.ascii	"\213\030Pv\007\337N\306\366\360\203\312\263\205\336"
 359      07DF4EC6 
 359      F6F083CA 
 359      B385DE
 360 0196 E9806689 		.ascii	"\351\200f\211\013\266\345\212{\370\037q\217\224#\263"
 360      0BB6E58A 
 360      7BF81F71 
 360      8F9423B3 
 361 01a6 F1174115 		.ascii	"\361\027A\025\037\247\357a\272\212\230\243\251\326\302"
 361      1FA7EF61 
 361      BA8A98A3 
 361      A9D6C2
 362 01b5 1C43A323 		.ascii	"\034C\243#\235\373%^\331\231d\370\257\335\322\004\214"
 362      9DFB255E 
 362      D99964F8 
 362      AFDDD204 
 362      8C
 363 01c6 D04C013E 		.ascii	"\320L\001>&\277\007\024s(\024\351Vb\371o\004|bQ\027"
 363      26BF0714 
 363      732814E9 
 363      5662F96F 
 363      047C6251 
 364 01db 49007D9C 		.ascii	"I\000}\234z9:\256\227\336\245\352\370\370@\354\204\215"
 364      7A393AAE 
 364      97DEA5EA 
 364      F8F840EC 
 364      848D
ARM GAS  C:\Users\Thomas\AppData\Local\Temp\ccJ9v2aa.s 			page 28


 365 01ed 50D9BE9E 		.ascii	"P\331\276\236b\251j$\206M\012\235b\262\240{\376\312"
 365      62A96A24 
 365      864D0A9D 
 365      62B2A07B 
 365      FECA
 366 01ff 206BF829 		.ascii	" k\370)Z\004amI\232\003y\037>\303\006\212c\227\242V"
 366      5A04616D 
 366      499A0379 
 366      1F3EC306 
 366      8A6397A2 
 367 0214 61101ADE 		.ascii	"a\020\032\336\241\371\276)\031qX\306\033\177O\245N*"
 367      A1F9BE29 
 367      197158C6 
 367      1B7F4FA5 
 367      4E2A
 368 0226 47B6A726 		.ascii	"G\266\247&\301t\031\227\212iq\303n\2415B\307W\206\207"
 368      C1741997 
 368      8A6971C3 
 368      6EA13542 
 368      C7578687 
 369 023a 0C89B6DF 		.ascii	"\014\211\266\337\332\021\223]\305\324<\037n1\2621\345"
 369      DA11935D 
 369      C5D43C1F 
 369      6E31B231 
 369      E5
 370 024b E328C534 		.ascii	"\343(\3054\246b\032\2271)\306\317\033\307,F='V\177\264"
 370      A6621A97 
 370      3129C6CF 
 370      1BC72C46 
 370      3D27567F 
 371 0260 3837D8E7 		.ascii	"87\330\347\262\202\332\027\307\325\254\366K\011:|@\177"
 371      B282DA17 
 371      C7D5ACF6 
 371      4B093A7C 
 371      407F
 372 0272 34B5CCB6 		.ascii	"4\265\314\266\031@\216\030R\2634g\373\312\334\247=\347"
 372      19408E18 
 372      52B33467 
 372      FBCADCA7 
 372      3DE7
 373 0284 3DBEAA3A 		.ascii	"=\276\252:OMe\205\267\336W\355q\227WxO\036u\227\273"
 373      4F4D6585 
 373      B7DE57ED 
 373      71975778 
 373      4F1E7597 
 374 0299 2A5D65D5 		.ascii	"*]e\325`\370<\027\352\317\325\031\265gk\275gj\376\000"
 374      60F83C17 
 374      EACFD519 
 374      B5676BBD 
 374      676AFE00 
 375 02ad 2F00474B 		.ascii	"/\000GK"
 376              		.text
 377              		.section	.gnu.lto_.symbol_nodes.b94998f3,"",%progbits
 378 0000 789C55CF 		.ascii	"x\234U\317\261\015\3020\024\004\320\263\177\034;\211"
 378      B10DC230 
 378      1404D0B3 
 378      7F1C3B89 
ARM GAS  C:\Users\Thomas\AppData\Local\Temp\ccJ9v2aa.s 			page 29


 379 0010 93929609 		.ascii	"\223\222\226\011`\305\213\322\320\262\000\210D\254A"
 379      60C58BD2 
 379      D0B20088 
 379      44AC41
 380 001f 13513303 		.ascii	"\023Q3\003\364\210\021\020FI\341\377\233\323\323]\363"
 380      F4881110 
 380      4649E1FF 
 380      9BD3D35D 
 380      F3
 381 0030 05C0DE60 		.ascii	"\005\300\336`9\333\0218>\000\322\234\246\000\353iV\343"
 381      39DB1138 
 381      3E00D29C 
 381      A600EB69 
 381      56E3
 382 0042 7C49165A 		.ascii	"|I\026ZeGQ\266,\224\015]n\007\214\226\260%K5+\350\225"
 382      654751B6 
 382      2C940D5D 
 382      6E078C96 
 382      B0254B35 
 383 0059 038372C5 		.ascii	"\003\203r\305J\271f\255\334\260\311mZ\306\305\350\373"
 383      4AB966AD 
 383      DCB0C96D 
 383      5AC6C5E8 
 383      FB
 384 006a C4C836A3 		.ascii	"\304\3106\243\244o\207q#\322\341\372\374\032\221\026"
 384      A46F8771 
 384      23D2E1FA 
 384      FC1A9116 
 385 007a F757CA42 		.ascii	"\367W\312B0\374\323\011\346\303{+~\355\375\332\007\277"
 385      30FCD309 
 385      E6C37B2B 
 385      7EEDFDDA 
 385      07BF
 386 008c F411986E 		.ascii	"\364\021\230n\237\035~\340<P7"
 386      9F1D7EE0 
 386      3C5037
 387              		.text
 388              		.section	.gnu.lto_.refs.b94998f3,"",%progbits
 389 0000 789C6366 		.ascii	"x\234cf``\340d\200\000&V\0066FF6.\006\000\001z\000,"
 389      6060E064 
 389      80002656 
 389      06364646 
 389      362E0600 
 390              		.text
 391              		.section	.gnu.lto_.decls.b94998f3,"",%progbits
 392 0000 789C9D55 		.ascii	"x\234\235UiLTW\024~w\356\260\314\"\332&\305\3264\351"
 392      694C5457 
 392      147E77EE 
 392      B0CC22DA 
 392      26C5D634 
 393 0015 18139326 		.ascii	"\030\023\223&\206\250M\215\375US\352\326t1\222\266?"
 393      86A84D8D 
 393      FD5553EA 
 393      D6743192 
 393      B63F
 394 0027 3431882F 		.ascii	"41\210/v\022\002\006\207\244\374\352U1\"\212R\251\021"
 394      76120206 
ARM GAS  C:\Users\Thomas\AppData\Local\Temp\ccJ9v2aa.s 			page 30


 394      87A4FCEA 
 394      5531228A 
 394      52A911
 395 003a 50147740 		.ascii	"P\024w@QP\221m\224a\300\001D\024u\004\025\005\306qc"
 395      5150916D 
 395      9461C001 
 395      44147504 
 395      1505C671 
 396 004f 1107058B 		.ascii	"\021\007\005\213Z\235\236\273<\347\275)\250\351M\016"
 396      5A9D9EBB 
 396      3CE7BD29 
 396      A8E94D0E 
 397 005f BCFBE69C 		.ascii	"\274\373\346\234\357\373\316=\347\235\213%I*\300\222"
 397      EFFBCE3D 
 397      E79D8B25 
 397      492AC092 
 398 006f E4879565 		.ascii	"\344\207\225e\224\244?\220$\215\203w\213\300\340Q\212"
 398      94A43F90 
 398      248D8377 
 398      8BC0E051 
 398      8A
 399 0080 94F88A00 		.ascii	"\224\370\212\000+\005+\003\253\000\253\002\263\203\235"
 399      2B052B03 
 399      AB00AB02 
 399      B3839D
 400 008f 05738039 		.ascii	"\005s\2009\301\\`M`n\260v\260\033`\035\002\247S\322"
 400      C15C604D 
 400      606EB076 
 400      B01B601D 
 400      02A753D2 
 401 00a3 2E8A1506 		.ascii	".\212\025\006vDp,\000\363\202y\300\276\023\374t\351"
 401      7644702C 
 401      00F38279 
 401      C0BE13FC 
 401      74E9
 402 00b5 54BC2053 		.ascii	"T\274 S\272\013v\017\354~\020\036\375]\257\302{\000"
 402      BA0B760F 
 402      EC7E101E 
 402      FD5DAFC2 
 402      7B00
 403 00c7 765C8551 		.ascii	"v\\\205Q&p\250\226\207A\2614\237\020\301\031)0\024-"
 403      2670A896 
 403      8741B134 
 403      9F10C119 
 403      2930142D 
 404 00db 4A7C85C8 		.ascii	"J|\205\310/x\321s0\210X\205\273\007\254A\205\321\013"
 404      2F78D173 
 404      30885885 
 404      BB07AC41 
 404      85D10B
 405 00ee 562FFCB1 		.ascii	"V/\374\261\210\351\020\347\023\274\350\231\206\252\264"
 405      88E910E7 
 405      13BCE899 
 405      86AAB4
 406 00fd 28187D60 		.ascii	"(\030}`\247Uz\354\002'x\321z\204\253\342\373\203\362"
 406      A7557AEC 
 406      022778D1 
ARM GAS  C:\Users\Thomas\AppData\Local\Temp\ccJ9v2aa.s 			page 31


 406      7A84ABE2 
 406      FB83F2
 407 0110 51E38408 		.ascii	"Q\343\204\010\177%7\005s\264z9\376G\236\216\267\344"
 407      7F253705 
 407      73B47A39 
 407      FE479E8E 
 407      B7E4
 408 0122 E97CCF3C 		.ascii	"\351|\317<\235\002'x\271\244@\315\024=\352\232!i\364"
 408      9D022778 
 408      B9A440CD 
 408      143DEA9A 
 408      2169F4
 409 0135 7AD1FED4 		.ascii	"z\321\376\324\277%\246i\224\030\267J+\375\016\314`\255"
 409      BF25A669 
 409      9418B74A 
 409      2BFD0ECC 
 409      60AD
 410 0147 6083603E 		.ascii	"`\203`>U\254{\224\330v\341\257\216\243\334\026\301\377"
 410      55AC7B94 
 410      D876E1AF 
 410      8EA3DC16 
 410      C1FF
 411 0159 14EC8914 		.ascii	"\024\354\211\024\350\327a\260!\021\213E\274\322\273"
 411      E8D761B0 
 411      21118B45 
 411      BCD2BB
 412 0168 C16B5087 		.ascii	"\301kP\207\332j6l\010\307:D\237\367g{\334\306iE\204"
 412      DA6A366C 
 412      08C73A44 
 412      9FF7677B 
 412      DCC66945 
 413 017d 9034E270 		.ascii	"\2204\342p\240\200\323\232C\325\233\303\036\352P\244"
 413      A080D39A 
 413      43D59BC3 
 413      1EEA50A4 
 414 018d 916DB734 		.ascii	"\221m\2674\347\326b\266\365\3238\335\215\033\177=\307"
 414      E7D662B6 
 414      F5D338DD 
 414      8D1B7F3D 
 414      C7
 415 019e C838358D 		.ascii	"\31085\215\220\265\304\267\215\340\217%4m\022\372|\222"
 415      90B5C4B7 
 415      8DE08F25 
 415      346D12FA 
 415      7C92
 416 01b0 848EA2A9 		.ascii	"\204\216\242\251\340\206\012\3204\011\025\242I\250\010"
 416      E0860AD0 
 416      340915A2 
 416      49A808
 417 01bf 4D920E00 		.ascii	"M\222\016\000\201o\217\373\346\247\204\350\321\021d"
 417      816F8FFB 
 417      E6A784E8 
 417      D11164
 418 01ce 44871166 		.ascii	"D\207\021f\036p\010\224A\220V\036\033j1\001K\204\321"
 418      1E700894 
 418      4190561E 
 418      1B6A3101 
ARM GAS  C:\Users\Thomas\AppData\Local\Temp\ccJ9v2aa.s 			page 32


 418      4B84D1
 419 01e1 42B755DB 		.ascii	"B\267U\333\032\263Cak6\352\351vcj\011\236\270\035\220"
 419      1AB34361 
 419      6B36EAE9 
 419      76636A09 
 419      9EB81D90 
 420 01f5 48E63A32 		.ascii	"H\346:2\201\343\024\003\3011 \220\320q4\021\376.\321"
 420      81E31403 
 420      C1312090 
 420      D0713411 
 420      FE2ED1
 421 0208 73244FC6 		.ascii	"s$O\306v\247\016\177\301r|T\3419\024n\331M\034%\276"
 421      76A70E7F 
 421      C1727C54 
 421      E139146E 
 421      D94D1C25 
 422 021d 3C6FF557 		.ascii	"<o\365W9\231\371k\311k\277\037\021\035\015B%o\244H\364"
 422      3999F96B 
 422      C96BBF1F 
 422      111D0D42 
 422      256FA448 
 423 0232 9957A614 		.ascii	"\231W\246\024Y 2s}m\246^\017-\305\270\2260\025\255\256"
 423      59203273 
 423      7D6DA65E 
 423      0F2DC5B8 
 423      963015AD 
 424 0247 8DAEB7C8 		.ascii	"\215\256\267\3108\311d\234@BG\303\311<\007\302\011L"
 424      38C9649C 
 424      404247C3 
 424      C93C07C2 
 424      094C
 425 0259 C7EEF2CA 		.ascii	"\307\356\362\312\313&\320\321]BrH\276\216\300\364\004"
 425      CB26D0D1 
 425      5D427248 
 425      BE8EC0F4 
 425      04
 426 026a 0910804E 		.ascii	"\011\020\200N\251$\234R$\2241\011\325/\357\270\365j"
 426      A9249C52 
 426      24943109 
 426      D52FEFB8 
 426      F56A
 427 027c BA45912A 		.ascii	"\272E\221*\266\323\232\244\353\354\303\356qx\015bl\005"
 427      B6D39AA4 
 427      EBECC3EE 
 427      71780D62 
 427      6C05
 428 028e 15854506 		.ascii	"\025\205E\006\306\326}\246Nv\244\222\177\374\376u\341"
 428      C6D67DA6 
 428      4E76A492 
 428      7FFCFE75 
 428      E1
 429 029f 2C0495AB 		.ascii	",\004\225\253\370\312\025\276\012\306\2671\275\272\""
 429      F8CA15BE 
 429      0AC6B731 
 429      BDBA22
 430 02ae 0C6FE218 		.ascii	"\014o\342\030\267\256o9\026\3160\362\267\036\014m$\016"
 430      B7AE6F39 
ARM GAS  C:\Users\Thomas\AppData\Local\Temp\ccJ9v2aa.s 			page 33


 430      16CE30F2 
 430      B71E0C6D 
 430      240E
 431 02c0 BFFF6B06 		.ascii	"\277\377k\006P\251\002\250T\000\252\030\300H\323\265"
 431      50A902A8 
 431      5400AA18 
 431      C048D3B5 
 432 02d0 FA089CCB 		.ascii	"\372\010\234\313\001^\355r\225\0319@\306~\016PC\020"
 432      015EED72 
 432      95193940 
 432      C67E0E50 
 432      4310
 433 02e2 83A85641 		.ascii	"\203\250VAT+\020v\006\361\"\255|\253\016\037\342\020"
 433      542B1076 
 433      06F122AD 
 433      7CAB0E1F 
 433      E210
 434 02f4 5943B7B7 		.ascii	"YC\267\267#\200\310/\311\3578A\346\260<0C8\243B8\243"
 434      2380C82F 
 434      C9EF3841 
 434      E6B03C30 
 434      4338A342 
 435 030a 209C6508 		.ascii	" \234e\010\235\177;Nb\\\312\021\234\003\003Ef.\242F"
 435      9D7F3B4E 
 435      625CCA11 
 435      9C030345 
 435      662EA246 
 436 031e 93458D0A 		.ascii	"\223E\215\012\240F\001p0\200\273\236\214\303&\\\313"
 436      A0460170 
 436      3080BB9E 
 436      8CC3265C 
 436      CB
 437 032f 01EA52AF 		.ascii	"\001\352R\257xC\271\204\236\375j\200Z\025@\255\002\340"
 437      7843B984 
 437      9EFD6A80 
 437      5A1540AD 
 437      02E0
 438 0341 1CB37586 		.ascii	"\034\263u\206\375\236\203\2721kY\317jY\247tN\351\371"
 438      FD9E83BA 
 438      316B59CF 
 438      6A59A774 
 438      4EE9F9
 439 0354 9654336E 		.ascii	"\226T3n\346\012<\267\274\203:q\216\205\201s\204\020"
 439      E60A3CB7 
 439      BC833A71 
 439      8E858173 
 439      8410
 440 0366 744EA5E1 		.ascii	"tN\245\341\234\242\301\305k\371\326\017\246A\323;\265"
 440      9CA2C1C5 
 440      6BF9D60F 
 440      A641D33B 
 440      B5
 441 0377 8F9F3B8D 		.ascii	"\217\237;\215\270\203\323u\271\327\324\352X\302\335"
 441      B883D375 
 441      B9D7D4EA 
 441      58C2DD
 442 0386 553DA277 		.ascii	"U=\242w0\213@\215*\272F\205\256\211\3215\337\031yjf"
ARM GAS  C:\Users\Thomas\AppData\Local\Temp\ccJ9v2aa.s 			page 34


 442      308B408D 
 442      2ABA4685 
 442      AE89D135 
 442      DF19796A 
 443 039b 5FEF040A 		.ascii	"_\357\004\012\222\333~o\010\263\257WG\267yO\006\354"
 443      92DB7E6F 
 443      08B3AF57 
 443      47B7794F 
 443      06EC
 444 03ad 06FC8813 		.ascii	"\006\374\210\023(\323\305\302\247\313\216\276\221S\341"
 444      28D3C5C2 
 444      A7CB8EBE 
 444      9153E1
 445 03bc 6C4B7960 		.ascii	"lKy`\274\274\364\036;\034\212\246\032\371\334h\343s"
 445      BCBCF41E 
 445      3B1C8AA6 
 445      1AF9DC68 
 445      E373
 446 03ce A315E45F 		.ascii	"\243\025\344_\010\314\015\213\230\033l\004\221u$\244"
 446      08CC0D8B 
 446      981B6C04 
 446      917524A4 
 447 03de 204242E7 		.ascii	" BB\347!\275fH\017]\202)d\021S\250\005^^\204\227\300"
 447      21BD6648 
 447      0F5D8229 
 447      641153A8 
 447      055E5E84 
 448 03f4 643FD03B 		.ascii	"d?\320;`bei}S\226\256\262g\345\3061\313r\205\035\323"
 448      60626569 
 448      7D5396AE 
 448      B267E5C6 
 448      31CB7285 
 449 040a 65A52C7B 		.ascii	"e\245,{\252v\345b<\304\323\030\270VzJ\317\316\311\227"
 449      AA76E562 
 449      3CC4D318 
 449      B8567A4A 
 449      CFCEC997 
 450 041e 57573E13 		.ascii	"WW>\023\276j>YX\024\272\252:\252\253\312Q\271\331Q="
 450      BE6A3E59 
 450      5814BAAA 
 450      3AAAABCA 
 450      51B9D951 
 451 0433 5FDFD2A5 		.ascii	"_\337\322\245)M\253\2464\3274\245y\276\311\345\010\303"
 451      294DABA6 
 451      34D734A5 
 451      79BEC9E5 
 451      08C3
 452 0445 1BF8C0EE 		.ascii	"\033\370\300\356\315\352\334i\344\245\331\232\3412\023"
 452      CDEADC69 
 452      E4A5D99A 
 452      E13213
 453 0454 DE8D2C04 		.ascii	"\336\215,\004\265\251\010\333\024\302vF\330_\\Zb\302"
 453      B5A908DB 
 453      14C27646 
 453      D85F5C5A 
 453      62C2
 454 0466 3962E867 		.ascii	"9b\350g\332;h?w\023_W\223\177z\016\331\253\310\246\015"
ARM GAS  C:\Users\Thomas\AppData\Local\Temp\ccJ9v2aa.s 			page 35


 454      DA3B683F 
 454      77135F57 
 454      937F7A0E 
 454      D9ABC8A6 
 455 047b 755D8572 		.ascii	"u]\205r]A\271\301P.\365>\3131\342\313\034\245\353\310"
 455      5D41B9C1 
 455      502EF53E 
 455      CB31E2CB 
 455      1CA5EBC8 
 456 048f C17806D2 		.ascii	"\301x\006\322\375\312+;\325=rS\205pSA\350`\010G\313"
 456      FDCA2B3B 
 456      D53D7253 
 456      85705341 
 456      E8600847 
 457 04a4 BAB32268 		.ascii	"\272\263\"hWP\204\327\035%\345t\276C_\262D_=&v\323\224"
 457      575084D7 
 457      1D25E574 
 457      BE435FB2 
 457      445F3D26 
 458 04bb BD247F5F 		.ascii	"\275$\177_I\236\367\274\211d\023\322\355\367\177\306"
 458      499EF7BC 
 458      896413D2 
 458      EDF77FC6 
 459 04cb FAF616C7 		.ascii	"\372\366\026\307\024\227\214D\367\360\3676-u'\232\002"
 459      14978C44 
 459      F7F0F736 
 459      2D75279A 
 459      02
 460 04dc C164C7A6 		.ascii	"\301d\307\246\003\341x\230#\227=K\257\034gL\243m\361"
 460      03E17898 
 460      23973D4B 
 460      AF1C674C 
 460      A36DF1
 461 04ef EECB09FA 		.ascii	"\356\313\011\372\315}1\275\315\300\257\263\340\210;"
 461      CD7D31BD 
 461      CDC0AFB3 
 461      E0883B
 462 04fe 635E6723 		.ascii	"c^g#\336\005\251d\016\362\200\272\256@[v\243\300}\266"
 462      DE05A964 
 462      0EF280BA 
 462      AE405B76 
 462      A3C07DB6 
 463 0512 F14E6E8B 		.ascii	"\361Nn\213\331\234N\033\024\312lh\214`\316\201:{\221"
 463      D99C4E1B 
 463      14CA6C68 
 463      8C60CE81 
 463      3A7B91
 464 0525 999D0DFC 		.ascii	"\231\235\015\374\007\357}\303\305\025\246\311{\350]"
 464      07EF7DC3 
 464      C515A6C9 
 464      7BE85D
 465 0534 ECF8069A 		.ascii	"\354\370\006\232\220\335B\374\360\356\242\311\3643\031"
 465      90DD42FC 
 465      F0EEA2C9 
 465      F43319
 466 0543 AEBB1FCE 		.ascii	"\256\273\037\316\034|y\353\236X\327\004{\335c^\216\034"
 466      1C7C79EB 
ARM GAS  C:\Users\Thomas\AppData\Local\Temp\ccJ9v2aa.s 			page 36


 466      9E58D704 
 466      7BDD635E 
 466      8E1C
 467 0555 F78310E6 		.ascii	"\367\203\020\346\225\177a\003\011AZ\237\373\314gd\257"
 467      957F6103 
 467      09415A9F 
 467      FBCC6764 
 467      AF
 468 0566 E7FE788D 		.ascii	"\347\376x\2150z\023\006\204=\020\302\0360a\367\016\025"
 468      307A1306 
 468      843D10C2 
 468      1E3061F7 
 468      0E15
 469 0578 1D0ED308 		.ascii	"\035\016\323\010+S\340\036\216\001\327\240\201\353\021"
 469      2B53E01E 
 469      8E01D7A0 
 469      81EB11
 470 0587 703D0C2E 		.ascii	"p=\014.s\333\316\263\006\215w\275\306\273Wx\3672\357"
 470      73DBCEB3 
 470      068D77BD 
 470      C6BB5778 
 470      F732EF
 471 059a CE6C47BA 		.ascii	"\316lG\272^\343}Z\343\335\207\314\312\321\367\261\200"
 471      5EE37D5A 
 471      E3DD87CC 
 471      CAD1F7B1 
 471      80
 472 05ab 1DBB7D2F 		.ascii	"\035\273}/\265\360\332\271\327/\340\373\231w\345\305"
 472      B5F0DAB9 
 472      D72FE0FB 
 472      9977E5C5 
 473 05bb 8E4E8C5F 		.ascii	"\216N\214_\360\266\361\245e\364\351y\333\274\347@\321"
 473      F0B6F1A5 
 473      65F4E979 
 473      DBBCE740 
 473      D1
 474 05cc ED28BE0D 		.ascii	"\355(\276\015w\2352\251^\360\226\360\001\341\243@K\014"
 474      779D32A9 
 474      5EF096F0 
 474      01E1A340 
 474      4B0C
 475 05de A0C0A81A 		.ascii	"\240\300\250\032\005\371\361\350\243\352\340\237.\254"
 475      05F9F1E8 
 475      A3EAE09F 
 475      2EAC
 476 05ec 49C3A749 		.ascii	"I\303\247IcP\2441\310\322\330\374px\277IQ\236\366^\370"
 476      6350A431 
 476      C8D2D8FC 
 476      7078BF49 
 476      519EF65E 
 477 0601 85CECA5D 		.ascii	"\205\316\312]&\015\301\023\015\301SA\360\224\021x2]"
 477      260DC113 
 477      0DC15341 
 477      F0941178 
 477      325D
 478 0613 7683F245 		.ascii	"v\203\362E\245\275\343\373\240\367IvV\3218\015\372\220"
 478      A5BDE3FB 
ARM GAS  C:\Users\Thomas\AppData\Local\Temp\ccJ9v2aa.s 			page 37


 478      A0F74976 
 478      56D1380D 
 478      FA90
 479 0625 067D58A0 		.ascii	"\006}X\240\323\377!\311\326\004\333\354\320\371?\376"
 479      D3FF21C9 
 479      D604DBEC 
 479      D0F93FFE 
 480 0635 6C8996A6 		.ascii	"l\211\226\246D-\235/'\310I\2616y\305\262\230\304\344"
 480      442D9D2F 
 480      27C849B1 
 480      3679C5B2 
 480      98C4E4
 481 0648 A43879E9 		.ascii	"\2448y\351\242\230\304\350/\227\306\245\330RV\311\253"
 481      A298C4E8 
 481      2F97C6A5 
 481      D85256C9 
 481      AB
 482 0659 A37E933E 		.ascii	"\243~\223>Y4s\331\314e\363e\333\274\205\363~\212\261"
 482      593473D9 
 482      CC65F365 
 482      DBBC85F3 
 482      7E8AB1
 483 066c C5DA9257 		.ascii	"\305\332\222WG\255\212M\262EM\267\214\031MC\242\342"
 483      47AD8A4D 
 483      B2454DB7 
 483      8C194D43 
 483      A2E2
 484 067e A40FFF1B 		.ascii	"\244\017\377\033j`\257\026&Xm\021\354inB\354\362xya"
 484      6A60AF16 
 484      26586D11 
 484      EC696E42 
 484      ECF27879 
 485 0693 82CDA4DA 		.ascii	"\202\315\244\332\032\3313\004$\331\306\263\307o\255"
 485      1AD93304 
 485      24D9C6B3 
 485      C76FAD
 486 06a2 AB859B41 		.ascii	"\253\205\233A\374\224\270\212\377\022#\333\340\355\017"
 486      FC94B88A 
 486      FF1223DB 
 486      E0ED0F
 487 06b1 892BE40F 		.ascii	"\211+\344\017\0242\330s\256P\232\352\214Y\\\305\257"
 487      1432D873 
 487      AE509AEA 
 487      8C595CC5 
 487      AF
 488 06c2 49569BBC 		.ascii	"IV\233\274X^\371Kl|\262\360],\307\256P\336|\024\235"
 488      585EF94B 
 488      6C7CB2F0 
 488      5D2CC7AE 
 488      50DE7C14 
 489 06d7 32F777AB 		.ascii	"2\367w\253-\032\274\254q\261\3611r\234\315\232\2300"
 489      2D1ABCAC 
 489      71B1F131 
 489      729CCD9A 
 489      9830
 490 06e9 79CC0CA3 		.ascii	"y\314\014\243S\276\267.\207\323\211\204\270\004\233"
 490      53BEB72E 
ARM GAS  C:\Users\Thomas\AppData\Local\Temp\ccJ9v2aa.s 			page 38


 490      87D38984 
 490      B8049B
 491 06f8 9C141468 		.ascii	"\234\024\024hf\004VH\363\227\330$}\222\274rv\010\374"
 491      66045648 
 491      F397D824 
 491      7D92BC72 
 491      7608FC
 492 070b 9931EB5F 		.ascii	"\2311\353_I\241'\217"
 492      49A1278F 
 493              		.text
 494              		.section	.gnu.lto_.symtab.b94998f3,"",%progbits
 495 0000 50325F32 		.ascii	"P2_2_GetFIFOStatus\000\000\000\000\000\000\000\000\000"
 495      5F476574 
 495      4649464F 
 495      53746174 
 495      75730000 
 496 001b 000000B5 		.ascii	"\000\000\000\265\000\000\000P2_2_Init\000\000\000\000"
 496      00000050 
 496      325F325F 
 496      496E6974 
 496      00000000 
 497 002f 00000000 		.ascii	"\000\000\000\000\000\000\000\000\270\000\000\000P2_"
 497      00000000 
 497      B8000000 
 497      50325F
 498 003e 325F456E 		.ascii	"2_EnableInt\000\000\000\000\000\000\000\000\000\000"
 498      61626C65 
 498      496E7400 
 498      00000000 
 498      00000000 
 499 0053 0000BA00 		.ascii	"\000\000\272\000\000\000P2_2_Enable\000\000\000\000"
 499      00005032 
 499      5F325F45 
 499      6E61626C 
 499      65000000 
 500 0068 00000000 		.ascii	"\000\000\000\000\000\000\000\000\274\000\000\000P2_"
 500      00000000 
 500      BC000000 
 500      50325F
 501 0077 325F5374 		.ascii	"2_Start\000\000\000\000\000\000\000\000\000\000\000"
 501      61727400 
 501      00000000 
 501      00000000 
 501      0000
 502 0089 00BE0000 		.ascii	"\000\276\000\000\000P2_2_initVar\000\000\000\000\000"
 502      0050325F 
 502      325F696E 
 502      69745661 
 502      72000000 
 503 009f 00000000 		.ascii	"\000\000\000\000\000\000\000\336\000\000\000P2_2_Di"
 503      000000DE 
 503      00000050 
 503      325F325F 
 503      4469
 504 00b1 7361626C 		.ascii	"sableInt\000\000\000\000\000\000\000\000\000\000\000"
 504      65496E74 
 504      00000000 
ARM GAS  C:\Users\Thomas\AppData\Local\Temp\ccJ9v2aa.s 			page 39


 504      00000000 
 504      000000
 505 00c4 00C00000 		.ascii	"\000\300\000\000\000P2_2_Stop\000\000\000\000\000\000"
 505      0050325F 
 505      325F5374 
 505      6F700000 
 505      00000000 
 506 00d8 00000000 		.ascii	"\000\000\000\000\000\000\302\000\000\000P2_2_SetInt"
 506      0000C200 
 506      00005032 
 506      5F325F53 
 506      6574496E 
 507 00ed 4D6F6465 		.ascii	"Mode\000\000\000\000\000\000\000\000\000\000\000\000"
 507      00000000 
 507      00000000 
 507      00000000 
 508 00fd C6000000 		.ascii	"\306\000\000\000P2_2_GetIntStatus\000\000\000\000\000"
 508      50325F32 
 508      5F476574 
 508      496E7453 
 508      74617475 
 509 0117 00000000 		.ascii	"\000\000\000\000\000\000\000\311\000\000\000P2_2_Wr"
 509      000000C9 
 509      00000050 
 509      325F325F 
 509      5772
 510 0129 69746552 		.ascii	"iteRegValue\000\000\000\000\000\000\000\000\000\000"
 510      65675661 
 510      6C756500 
 510      00000000 
 510      00000000 
 511 013e 0000D400 		.ascii	"\000\000\324\000\000\000P2_2_ReadRegValue\000\000\000"
 511      00005032 
 511      5F325F52 
 511      65616452 
 511      65675661 
 512 0158 00000000 		.ascii	"\000\000\000\000\000\000\000\000\000\327\000\000\000"
 512      00000000 
 512      00D70000 
 512      00
 513 0165 43794578 		.ascii	"CyExitCriticalSection\000\000\002\000\000\000\000\000"
 513      69744372 
 513      69746963 
 513      616C5365 
 513      6374696F 
 514 0182 00000000 		.ascii	"\000\000\000\000\331\000\000\000CyEnterCriticalSect"
 514      D9000000 
 514      4379456E 
 514      74657243 
 514      72697469 
 515 019d 696F6E00 		.ascii	"ion\000\000\002\000\000\000\000\000\000\000\000\000"
 515      00020000 
 515      00000000 
 515      000000
 516 01ac DB000000 		.ascii	"\333\000\000\000"
 517              		.text
 518              		.section	.gnu.lto_.opts,"",%progbits
ARM GAS  C:\Users\Thomas\AppData\Local\Temp\ccJ9v2aa.s 			page 40


 519 0000 272D666E 		.ascii	"'-fno-trapv' '-mcpu=cortex-m3' '-mthumb' '-g' '-O3'"
 519      6F2D7472 
 519      61707627 
 519      20272D6D 
 519      6370753D 
 520 0033 20272D66 		.ascii	" '-ffunction-sections' '-finline-functions' '-flto'"
 520      66756E63 
 520      74696F6E 
 520      2D736563 
 520      74696F6E 
 521 0066 20272D66 		.ascii	" '-ffat-lto-objects'\000"
 521      6661742D 
 521      6C746F2D 
 521      6F626A65 
 521      63747327 
 522              		.text
 523              		.cfi_sections	.debug_frame
 524              		.section	.text.P2_2_Start,"ax",%progbits
 525              		.align	2
 526              		.global	P2_2_Start
 527              		.thumb
 528              		.thumb_func
 529              		.type	P2_2_Start, %function
 530              	P2_2_Start:
 531              	.LFB0:
 532              		.file 1 ".\\Generated_Source\\PSoC5\\P2_2.c"
   1:.\Generated_Source\PSoC5/P2_2.c **** /*******************************************************************************
   2:.\Generated_Source\PSoC5/P2_2.c **** * File Name: P2_2.c
   3:.\Generated_Source\PSoC5/P2_2.c **** * Version 2.30
   4:.\Generated_Source\PSoC5/P2_2.c **** *
   5:.\Generated_Source\PSoC5/P2_2.c **** * Description:
   6:.\Generated_Source\PSoC5/P2_2.c **** *  This file provides the API source code for the Shift Register component.
   7:.\Generated_Source\PSoC5/P2_2.c **** *
   8:.\Generated_Source\PSoC5/P2_2.c **** * Note: none
   9:.\Generated_Source\PSoC5/P2_2.c **** *
  10:.\Generated_Source\PSoC5/P2_2.c **** ********************************************************************************
  11:.\Generated_Source\PSoC5/P2_2.c **** * Copyright 2008-2013, Cypress Semiconductor Corporation.  All rights reserved.
  12:.\Generated_Source\PSoC5/P2_2.c **** * You may use this file only in accordance with the license, terms, conditions,
  13:.\Generated_Source\PSoC5/P2_2.c **** * disclaimers, and limitations in the end user license agreement accompanying
  14:.\Generated_Source\PSoC5/P2_2.c **** * the software package with which this file was provided.
  15:.\Generated_Source\PSoC5/P2_2.c **** ********************************************************************************/
  16:.\Generated_Source\PSoC5/P2_2.c **** 
  17:.\Generated_Source\PSoC5/P2_2.c **** #include "P2_2.h"
  18:.\Generated_Source\PSoC5/P2_2.c **** 
  19:.\Generated_Source\PSoC5/P2_2.c **** uint8 P2_2_initVar = 0u;
  20:.\Generated_Source\PSoC5/P2_2.c **** 
  21:.\Generated_Source\PSoC5/P2_2.c **** 
  22:.\Generated_Source\PSoC5/P2_2.c **** /*******************************************************************************
  23:.\Generated_Source\PSoC5/P2_2.c **** * Function Name: P2_2_Start
  24:.\Generated_Source\PSoC5/P2_2.c **** ********************************************************************************
  25:.\Generated_Source\PSoC5/P2_2.c **** *
  26:.\Generated_Source\PSoC5/P2_2.c **** * Summary:
  27:.\Generated_Source\PSoC5/P2_2.c **** *  Starts the Shift Register.
  28:.\Generated_Source\PSoC5/P2_2.c **** *
  29:.\Generated_Source\PSoC5/P2_2.c **** * Parameters:
  30:.\Generated_Source\PSoC5/P2_2.c **** *  None.
  31:.\Generated_Source\PSoC5/P2_2.c **** *
ARM GAS  C:\Users\Thomas\AppData\Local\Temp\ccJ9v2aa.s 			page 41


  32:.\Generated_Source\PSoC5/P2_2.c **** * Return:
  33:.\Generated_Source\PSoC5/P2_2.c **** *  None.
  34:.\Generated_Source\PSoC5/P2_2.c **** *
  35:.\Generated_Source\PSoC5/P2_2.c **** * Global Variables:
  36:.\Generated_Source\PSoC5/P2_2.c **** *  P2_2_initVar - used to check initial configuration, modified on
  37:.\Generated_Source\PSoC5/P2_2.c **** *  first function call.
  38:.\Generated_Source\PSoC5/P2_2.c **** *
  39:.\Generated_Source\PSoC5/P2_2.c **** * Reentrant:
  40:.\Generated_Source\PSoC5/P2_2.c **** *  No.
  41:.\Generated_Source\PSoC5/P2_2.c **** *
  42:.\Generated_Source\PSoC5/P2_2.c **** *******************************************************************************/
  43:.\Generated_Source\PSoC5/P2_2.c **** void P2_2_Start(void) 
  44:.\Generated_Source\PSoC5/P2_2.c **** {
 533              		.loc 1 44 0
 534              		.cfi_startproc
 535              		@ args = 0, pretend = 0, frame = 0
 536              		@ frame_needed = 0, uses_anonymous_args = 0
 537 0000 08B5     		push	{r3, lr}
 538              		.cfi_def_cfa_offset 8
 539              		.cfi_offset 3, -8
 540              		.cfi_offset 14, -4
  45:.\Generated_Source\PSoC5/P2_2.c ****     if(0u == P2_2_initVar)
 541              		.loc 1 45 0
 542 0002 0E4A     		ldr	r2, .L5
 543 0004 1378     		ldrb	r3, [r2]	@ zero_extendqisi2
 544 0006 4BB9     		cbnz	r3, .L2
 545              	.LVL0:
 546              	.LBB19:
 547              	.LBB20:
 548              	.LBB21:
  46:.\Generated_Source\PSoC5/P2_2.c ****     {
  47:.\Generated_Source\PSoC5/P2_2.c ****         P2_2_Init();
  48:.\Generated_Source\PSoC5/P2_2.c ****         P2_2_initVar = 1u; /* Component initialized */
  49:.\Generated_Source\PSoC5/P2_2.c ****     }
  50:.\Generated_Source\PSoC5/P2_2.c **** 
  51:.\Generated_Source\PSoC5/P2_2.c ****     P2_2_Enable();
  52:.\Generated_Source\PSoC5/P2_2.c **** }
  53:.\Generated_Source\PSoC5/P2_2.c **** 
  54:.\Generated_Source\PSoC5/P2_2.c **** 
  55:.\Generated_Source\PSoC5/P2_2.c **** /*******************************************************************************
  56:.\Generated_Source\PSoC5/P2_2.c **** * Function Name: P2_2_Enable
  57:.\Generated_Source\PSoC5/P2_2.c **** ********************************************************************************
  58:.\Generated_Source\PSoC5/P2_2.c **** *
  59:.\Generated_Source\PSoC5/P2_2.c **** * Summary:
  60:.\Generated_Source\PSoC5/P2_2.c **** *  Enables the Shift Register.
  61:.\Generated_Source\PSoC5/P2_2.c **** *
  62:.\Generated_Source\PSoC5/P2_2.c **** * Parameters:
  63:.\Generated_Source\PSoC5/P2_2.c **** *  void.
  64:.\Generated_Source\PSoC5/P2_2.c **** *
  65:.\Generated_Source\PSoC5/P2_2.c **** * Return:
  66:.\Generated_Source\PSoC5/P2_2.c **** *  void.
  67:.\Generated_Source\PSoC5/P2_2.c **** *
  68:.\Generated_Source\PSoC5/P2_2.c **** *******************************************************************************/
  69:.\Generated_Source\PSoC5/P2_2.c **** void P2_2_Enable(void) 
  70:.\Generated_Source\PSoC5/P2_2.c **** {
  71:.\Generated_Source\PSoC5/P2_2.c ****     /* Changing address in Datapath Control Store
  72:.\Generated_Source\PSoC5/P2_2.c ****        from NOP to component state machine commands space */
ARM GAS  C:\Users\Thomas\AppData\Local\Temp\ccJ9v2aa.s 			page 42


  73:.\Generated_Source\PSoC5/P2_2.c ****     P2_2_SR_CONTROL |= P2_2_CLK_EN;
  74:.\Generated_Source\PSoC5/P2_2.c **** 
  75:.\Generated_Source\PSoC5/P2_2.c ****     P2_2_EnableInt();
  76:.\Generated_Source\PSoC5/P2_2.c **** }
  77:.\Generated_Source\PSoC5/P2_2.c **** 
  78:.\Generated_Source\PSoC5/P2_2.c **** 
  79:.\Generated_Source\PSoC5/P2_2.c **** /*******************************************************************************
  80:.\Generated_Source\PSoC5/P2_2.c **** * Function Name: P2_2_Init
  81:.\Generated_Source\PSoC5/P2_2.c **** ********************************************************************************
  82:.\Generated_Source\PSoC5/P2_2.c **** *
  83:.\Generated_Source\PSoC5/P2_2.c **** * Summary:
  84:.\Generated_Source\PSoC5/P2_2.c **** *  Initializes Tx and/or Rx interrupt sources with initial values.
  85:.\Generated_Source\PSoC5/P2_2.c **** *
  86:.\Generated_Source\PSoC5/P2_2.c **** * Parameters:
  87:.\Generated_Source\PSoC5/P2_2.c **** *  void.
  88:.\Generated_Source\PSoC5/P2_2.c **** *
  89:.\Generated_Source\PSoC5/P2_2.c **** * Return:
  90:.\Generated_Source\PSoC5/P2_2.c **** *  void.
  91:.\Generated_Source\PSoC5/P2_2.c **** *
  92:.\Generated_Source\PSoC5/P2_2.c **** *******************************************************************************/
  93:.\Generated_Source\PSoC5/P2_2.c **** void P2_2_Init(void) 
  94:.\Generated_Source\PSoC5/P2_2.c **** {
  95:.\Generated_Source\PSoC5/P2_2.c ****     P2_2_SetIntMode(P2_2_INT_SRC);
  96:.\Generated_Source\PSoC5/P2_2.c **** }
  97:.\Generated_Source\PSoC5/P2_2.c **** 
  98:.\Generated_Source\PSoC5/P2_2.c **** 
  99:.\Generated_Source\PSoC5/P2_2.c **** /*******************************************************************************
 100:.\Generated_Source\PSoC5/P2_2.c **** * Function Name: P2_2_Stop
 101:.\Generated_Source\PSoC5/P2_2.c **** ********************************************************************************
 102:.\Generated_Source\PSoC5/P2_2.c **** *
 103:.\Generated_Source\PSoC5/P2_2.c **** * Summary:
 104:.\Generated_Source\PSoC5/P2_2.c **** *  Disables the Shift Register
 105:.\Generated_Source\PSoC5/P2_2.c **** *
 106:.\Generated_Source\PSoC5/P2_2.c **** * Parameters:
 107:.\Generated_Source\PSoC5/P2_2.c **** *  None.
 108:.\Generated_Source\PSoC5/P2_2.c **** *
 109:.\Generated_Source\PSoC5/P2_2.c **** * Return:
 110:.\Generated_Source\PSoC5/P2_2.c **** *  None.
 111:.\Generated_Source\PSoC5/P2_2.c **** *
 112:.\Generated_Source\PSoC5/P2_2.c **** *******************************************************************************/
 113:.\Generated_Source\PSoC5/P2_2.c **** void P2_2_Stop(void) 
 114:.\Generated_Source\PSoC5/P2_2.c **** {
 115:.\Generated_Source\PSoC5/P2_2.c ****     /*changing Datapath Control Store address to NOP space*/
 116:.\Generated_Source\PSoC5/P2_2.c ****     P2_2_SR_CONTROL &= ((uint8) ~P2_2_CLK_EN);
 117:.\Generated_Source\PSoC5/P2_2.c ****     P2_2_DisableInt();
 118:.\Generated_Source\PSoC5/P2_2.c **** }
 119:.\Generated_Source\PSoC5/P2_2.c **** 
 120:.\Generated_Source\PSoC5/P2_2.c **** 
 121:.\Generated_Source\PSoC5/P2_2.c **** /*******************************************************************************
 122:.\Generated_Source\PSoC5/P2_2.c **** * Function Name: P2_2_EnableInt
 123:.\Generated_Source\PSoC5/P2_2.c **** ********************************************************************************
 124:.\Generated_Source\PSoC5/P2_2.c **** *
 125:.\Generated_Source\PSoC5/P2_2.c **** * Summary:
 126:.\Generated_Source\PSoC5/P2_2.c **** *  Enables the Shift Register interrupt.
 127:.\Generated_Source\PSoC5/P2_2.c **** *
 128:.\Generated_Source\PSoC5/P2_2.c **** * Parameters:
 129:.\Generated_Source\PSoC5/P2_2.c **** *  None.
ARM GAS  C:\Users\Thomas\AppData\Local\Temp\ccJ9v2aa.s 			page 43


 130:.\Generated_Source\PSoC5/P2_2.c **** *
 131:.\Generated_Source\PSoC5/P2_2.c **** * Return:
 132:.\Generated_Source\PSoC5/P2_2.c **** *  None.
 133:.\Generated_Source\PSoC5/P2_2.c **** *
 134:.\Generated_Source\PSoC5/P2_2.c **** *******************************************************************************/
 135:.\Generated_Source\PSoC5/P2_2.c **** void P2_2_EnableInt(void) 
 136:.\Generated_Source\PSoC5/P2_2.c **** {
 137:.\Generated_Source\PSoC5/P2_2.c ****     uint8 interruptState;
 138:.\Generated_Source\PSoC5/P2_2.c **** 
 139:.\Generated_Source\PSoC5/P2_2.c ****     interruptState = CyEnterCriticalSection();
 140:.\Generated_Source\PSoC5/P2_2.c ****     P2_2_SR_AUX_CONTROL |= P2_2_INTERRUPTS_ENABLE;
 141:.\Generated_Source\PSoC5/P2_2.c ****     CyExitCriticalSection(interruptState);
 142:.\Generated_Source\PSoC5/P2_2.c **** }
 143:.\Generated_Source\PSoC5/P2_2.c **** 
 144:.\Generated_Source\PSoC5/P2_2.c **** 
 145:.\Generated_Source\PSoC5/P2_2.c **** /*******************************************************************************
 146:.\Generated_Source\PSoC5/P2_2.c **** * Function Name: P2_2_DisableInt
 147:.\Generated_Source\PSoC5/P2_2.c **** ********************************************************************************
 148:.\Generated_Source\PSoC5/P2_2.c **** *
 149:.\Generated_Source\PSoC5/P2_2.c **** * Summary:
 150:.\Generated_Source\PSoC5/P2_2.c **** *  Disables the Shift Register interrupt.
 151:.\Generated_Source\PSoC5/P2_2.c **** *
 152:.\Generated_Source\PSoC5/P2_2.c **** * Parameters:
 153:.\Generated_Source\PSoC5/P2_2.c **** *  None.
 154:.\Generated_Source\PSoC5/P2_2.c **** *
 155:.\Generated_Source\PSoC5/P2_2.c **** * Return:
 156:.\Generated_Source\PSoC5/P2_2.c **** *  None.
 157:.\Generated_Source\PSoC5/P2_2.c **** *
 158:.\Generated_Source\PSoC5/P2_2.c **** *******************************************************************************/
 159:.\Generated_Source\PSoC5/P2_2.c **** void P2_2_DisableInt(void) 
 160:.\Generated_Source\PSoC5/P2_2.c **** {
 161:.\Generated_Source\PSoC5/P2_2.c ****     uint8 interruptState;
 162:.\Generated_Source\PSoC5/P2_2.c **** 
 163:.\Generated_Source\PSoC5/P2_2.c ****     interruptState = CyEnterCriticalSection();
 164:.\Generated_Source\PSoC5/P2_2.c ****     P2_2_SR_AUX_CONTROL &= ((uint8) ~P2_2_INTERRUPTS_ENABLE);
 165:.\Generated_Source\PSoC5/P2_2.c ****     CyExitCriticalSection(interruptState);
 166:.\Generated_Source\PSoC5/P2_2.c **** }
 167:.\Generated_Source\PSoC5/P2_2.c **** 
 168:.\Generated_Source\PSoC5/P2_2.c **** 
 169:.\Generated_Source\PSoC5/P2_2.c **** /*******************************************************************************
 170:.\Generated_Source\PSoC5/P2_2.c **** * Function Name: P2_2_GetFIFOStatus
 171:.\Generated_Source\PSoC5/P2_2.c **** ********************************************************************************
 172:.\Generated_Source\PSoC5/P2_2.c **** *
 173:.\Generated_Source\PSoC5/P2_2.c **** * Summary:
 174:.\Generated_Source\PSoC5/P2_2.c **** *  Returns current status of input or output FIFO.
 175:.\Generated_Source\PSoC5/P2_2.c **** *
 176:.\Generated_Source\PSoC5/P2_2.c **** * Parameters:
 177:.\Generated_Source\PSoC5/P2_2.c **** *  fifoId.
 178:.\Generated_Source\PSoC5/P2_2.c **** *
 179:.\Generated_Source\PSoC5/P2_2.c **** * Return:
 180:.\Generated_Source\PSoC5/P2_2.c **** *  FIFO status.
 181:.\Generated_Source\PSoC5/P2_2.c **** *
 182:.\Generated_Source\PSoC5/P2_2.c **** *******************************************************************************/
 183:.\Generated_Source\PSoC5/P2_2.c **** uint8 P2_2_GetFIFOStatus(uint8 fifoId) 
 184:.\Generated_Source\PSoC5/P2_2.c **** {
 185:.\Generated_Source\PSoC5/P2_2.c ****     uint8 result;
 186:.\Generated_Source\PSoC5/P2_2.c **** 
ARM GAS  C:\Users\Thomas\AppData\Local\Temp\ccJ9v2aa.s 			page 44


 187:.\Generated_Source\PSoC5/P2_2.c ****     result = P2_2_RET_FIFO_NOT_DEFINED;
 188:.\Generated_Source\PSoC5/P2_2.c **** 
 189:.\Generated_Source\PSoC5/P2_2.c ****     #if(0u != P2_2_USE_INPUT_FIFO)
 190:.\Generated_Source\PSoC5/P2_2.c ****         if(P2_2_IN_FIFO == fifoId)
 191:.\Generated_Source\PSoC5/P2_2.c ****         {
 192:.\Generated_Source\PSoC5/P2_2.c ****             switch(P2_2_GET_IN_FIFO_STS)
 193:.\Generated_Source\PSoC5/P2_2.c ****             {
 194:.\Generated_Source\PSoC5/P2_2.c ****                 case P2_2_IN_FIFO_FULL :
 195:.\Generated_Source\PSoC5/P2_2.c ****                     result = P2_2_RET_FIFO_FULL;
 196:.\Generated_Source\PSoC5/P2_2.c ****                     break;
 197:.\Generated_Source\PSoC5/P2_2.c **** 
 198:.\Generated_Source\PSoC5/P2_2.c ****                 case P2_2_IN_FIFO_EMPTY :
 199:.\Generated_Source\PSoC5/P2_2.c ****                     result = P2_2_RET_FIFO_EMPTY;
 200:.\Generated_Source\PSoC5/P2_2.c ****                     break;
 201:.\Generated_Source\PSoC5/P2_2.c **** 
 202:.\Generated_Source\PSoC5/P2_2.c ****                 case P2_2_IN_FIFO_PARTIAL:
 203:.\Generated_Source\PSoC5/P2_2.c ****                     result = P2_2_RET_FIFO_PARTIAL;
 204:.\Generated_Source\PSoC5/P2_2.c ****                     break;
 205:.\Generated_Source\PSoC5/P2_2.c ****                     
 206:.\Generated_Source\PSoC5/P2_2.c ****                 default:
 207:.\Generated_Source\PSoC5/P2_2.c ****                     /* Initial result value, while 
 208:.\Generated_Source\PSoC5/P2_2.c ****                        IN_FIFO_EMPTY case is false 
 209:.\Generated_Source\PSoC5/P2_2.c ****                      */
 210:.\Generated_Source\PSoC5/P2_2.c ****                     result = P2_2_RET_FIFO_EMPTY;
 211:.\Generated_Source\PSoC5/P2_2.c ****                     break;
 212:.\Generated_Source\PSoC5/P2_2.c ****             }   
 213:.\Generated_Source\PSoC5/P2_2.c ****         }
 214:.\Generated_Source\PSoC5/P2_2.c ****     #endif /* (0u != P2_2_USE_INPUT_FIFO) */
 215:.\Generated_Source\PSoC5/P2_2.c **** 
 216:.\Generated_Source\PSoC5/P2_2.c ****     if(P2_2_OUT_FIFO == fifoId)
 217:.\Generated_Source\PSoC5/P2_2.c ****     {
 218:.\Generated_Source\PSoC5/P2_2.c ****         switch(P2_2_GET_OUT_FIFO_STS)
 219:.\Generated_Source\PSoC5/P2_2.c ****         {
 220:.\Generated_Source\PSoC5/P2_2.c ****             case P2_2_OUT_FIFO_FULL :
 221:.\Generated_Source\PSoC5/P2_2.c ****                 result = P2_2_RET_FIFO_FULL;
 222:.\Generated_Source\PSoC5/P2_2.c ****                 break;
 223:.\Generated_Source\PSoC5/P2_2.c **** 
 224:.\Generated_Source\PSoC5/P2_2.c ****             case P2_2_OUT_FIFO_EMPTY :
 225:.\Generated_Source\PSoC5/P2_2.c ****                 result = P2_2_RET_FIFO_EMPTY;
 226:.\Generated_Source\PSoC5/P2_2.c ****                 break;
 227:.\Generated_Source\PSoC5/P2_2.c **** 
 228:.\Generated_Source\PSoC5/P2_2.c ****             case P2_2_OUT_FIFO_PARTIAL :
 229:.\Generated_Source\PSoC5/P2_2.c ****                 result = P2_2_RET_FIFO_PARTIAL;
 230:.\Generated_Source\PSoC5/P2_2.c ****                 break;
 231:.\Generated_Source\PSoC5/P2_2.c **** 
 232:.\Generated_Source\PSoC5/P2_2.c ****             default:
 233:.\Generated_Source\PSoC5/P2_2.c ****                 /* Initial result value, while 
 234:.\Generated_Source\PSoC5/P2_2.c ****                    OUT_FIFO_FULL case is false 
 235:.\Generated_Source\PSoC5/P2_2.c ****                  */
 236:.\Generated_Source\PSoC5/P2_2.c ****                 result = P2_2_RET_FIFO_FULL;
 237:.\Generated_Source\PSoC5/P2_2.c ****                 break;
 238:.\Generated_Source\PSoC5/P2_2.c ****         }
 239:.\Generated_Source\PSoC5/P2_2.c ****     }
 240:.\Generated_Source\PSoC5/P2_2.c **** 
 241:.\Generated_Source\PSoC5/P2_2.c ****     return(result);
 242:.\Generated_Source\PSoC5/P2_2.c **** }
 243:.\Generated_Source\PSoC5/P2_2.c **** 
ARM GAS  C:\Users\Thomas\AppData\Local\Temp\ccJ9v2aa.s 			page 45


 244:.\Generated_Source\PSoC5/P2_2.c **** 
 245:.\Generated_Source\PSoC5/P2_2.c **** /*******************************************************************************
 246:.\Generated_Source\PSoC5/P2_2.c **** * Function Name: P2_2_SetIntMode
 247:.\Generated_Source\PSoC5/P2_2.c **** ********************************************************************************
 248:.\Generated_Source\PSoC5/P2_2.c **** *
 249:.\Generated_Source\PSoC5/P2_2.c **** * Summary:
 250:.\Generated_Source\PSoC5/P2_2.c **** *  Sets the Interrupt Source for the Shift Register interrupt. Multiple
 251:.\Generated_Source\PSoC5/P2_2.c **** *  sources may be ORed together
 252:.\Generated_Source\PSoC5/P2_2.c **** *
 253:.\Generated_Source\PSoC5/P2_2.c **** * Parameters:
 254:.\Generated_Source\PSoC5/P2_2.c **** *  interruptSource: Byte containing the constant for the selected interrupt
 255:.\Generated_Source\PSoC5/P2_2.c **** *  source/s.
 256:.\Generated_Source\PSoC5/P2_2.c **** *
 257:.\Generated_Source\PSoC5/P2_2.c **** * Return:
 258:.\Generated_Source\PSoC5/P2_2.c **** *  None.
 259:.\Generated_Source\PSoC5/P2_2.c **** *
 260:.\Generated_Source\PSoC5/P2_2.c **** *******************************************************************************/
 261:.\Generated_Source\PSoC5/P2_2.c **** void P2_2_SetIntMode(uint8 interruptSource) 
 262:.\Generated_Source\PSoC5/P2_2.c **** {
 263:.\Generated_Source\PSoC5/P2_2.c ****     P2_2_SR_STATUS_MASK &= ((uint8) ~P2_2_INTS_EN_MASK);          /* Clear existing int */
 549              		.loc 1 263 0
 550 0008 0D4B     		ldr	r3, .L5+4
 551              	.LBE21:
 552              	.LBE20:
 553              	.LBE19:
  48:.\Generated_Source\PSoC5/P2_2.c ****     }
 554              		.loc 1 48 0
 555 000a 0120     		movs	r0, #1
 556              	.LBB24:
 557              	.LBB23:
 558              	.LBB22:
 559              		.loc 1 263 0
 560 000c 1978     		ldrb	r1, [r3]	@ zero_extendqisi2
 561 000e 01F0F801 		and	r1, r1, #248
 562 0012 1970     		strb	r1, [r3]
 264:.\Generated_Source\PSoC5/P2_2.c ****     P2_2_SR_STATUS_MASK |= (interruptSource & P2_2_INTS_EN_MASK); /* Set int */
 563              		.loc 1 264 0
 564 0014 1978     		ldrb	r1, [r3]	@ zero_extendqisi2
 565 0016 0143     		orrs	r1, r1, r0
 566 0018 1970     		strb	r1, [r3]
 567              	.LBE22:
 568              	.LBE23:
 569              	.LBE24:
  48:.\Generated_Source\PSoC5/P2_2.c ****     }
 570              		.loc 1 48 0
 571 001a 1070     		strb	r0, [r2]
 572              	.LVL1:
 573              	.L2:
 574              	.LBB25:
 575              	.LBB26:
  73:.\Generated_Source\PSoC5/P2_2.c **** 
 576              		.loc 1 73 0
 577 001c 094A     		ldr	r2, .L5+8
 578 001e 1378     		ldrb	r3, [r2]	@ zero_extendqisi2
 579 0020 43F00103 		orr	r3, r3, #1
 580 0024 1370     		strb	r3, [r2]
 581              	.LBB27:
ARM GAS  C:\Users\Thomas\AppData\Local\Temp\ccJ9v2aa.s 			page 46


 582              	.LBB28:
 139:.\Generated_Source\PSoC5/P2_2.c ****     P2_2_SR_AUX_CONTROL |= P2_2_INTERRUPTS_ENABLE;
 583              		.loc 1 139 0
 584 0026 FFF7FEFF 		bl	CyEnterCriticalSection
 585              	.LVL2:
 140:.\Generated_Source\PSoC5/P2_2.c ****     CyExitCriticalSection(interruptState);
 586              		.loc 1 140 0
 587 002a 074A     		ldr	r2, .L5+12
 588 002c 1378     		ldrb	r3, [r2]	@ zero_extendqisi2
 589 002e 43F01003 		orr	r3, r3, #16
 590 0032 1370     		strb	r3, [r2]
 591              	.LBE28:
 592              	.LBE27:
 593              	.LBE26:
 594              	.LBE25:
  52:.\Generated_Source\PSoC5/P2_2.c **** 
 595              		.loc 1 52 0
 596 0034 BDE80840 		pop	{r3, lr}
 597              		.cfi_restore 14
 598              		.cfi_restore 3
 599              		.cfi_def_cfa_offset 0
 600              	.LBB32:
 601              	.LBB31:
 602              	.LBB30:
 603              	.LBB29:
 141:.\Generated_Source\PSoC5/P2_2.c **** }
 604              		.loc 1 141 0
 605 0038 FFF7FEBF 		b	CyExitCriticalSection
 606              	.LVL3:
 607              	.L6:
 608              		.align	2
 609              	.L5:
 610 003c 00000000 		.word	.LANCHOR0
 611 0040 8D640040 		.word	1073767565
 612 0044 7D640040 		.word	1073767549
 613 0048 9D640040 		.word	1073767581
 614              	.LBE29:
 615              	.LBE30:
 616              	.LBE31:
 617              	.LBE32:
 618              		.cfi_endproc
 619              	.LFE0:
 620              		.size	P2_2_Start, .-P2_2_Start
 621              		.section	.text.P2_2_Enable,"ax",%progbits
 622              		.align	2
 623              		.global	P2_2_Enable
 624              		.thumb
 625              		.thumb_func
 626              		.type	P2_2_Enable, %function
 627              	P2_2_Enable:
 628              	.LFB1:
  70:.\Generated_Source\PSoC5/P2_2.c ****     /* Changing address in Datapath Control Store
 629              		.loc 1 70 0
 630              		.cfi_startproc
 631              		@ args = 0, pretend = 0, frame = 0
 632              		@ frame_needed = 0, uses_anonymous_args = 0
 633 0000 08B5     		push	{r3, lr}
ARM GAS  C:\Users\Thomas\AppData\Local\Temp\ccJ9v2aa.s 			page 47


 634              		.cfi_def_cfa_offset 8
 635              		.cfi_offset 3, -8
 636              		.cfi_offset 14, -4
  73:.\Generated_Source\PSoC5/P2_2.c **** 
 637              		.loc 1 73 0
 638 0002 084A     		ldr	r2, .L9
 639 0004 1378     		ldrb	r3, [r2]	@ zero_extendqisi2
 640 0006 43F00103 		orr	r3, r3, #1
 641 000a 1370     		strb	r3, [r2]
 642              	.LBB35:
 643              	.LBB36:
 139:.\Generated_Source\PSoC5/P2_2.c ****     P2_2_SR_AUX_CONTROL |= P2_2_INTERRUPTS_ENABLE;
 644              		.loc 1 139 0
 645 000c FFF7FEFF 		bl	CyEnterCriticalSection
 646              	.LVL4:
 140:.\Generated_Source\PSoC5/P2_2.c ****     CyExitCriticalSection(interruptState);
 647              		.loc 1 140 0
 648 0010 054A     		ldr	r2, .L9+4
 649 0012 1378     		ldrb	r3, [r2]	@ zero_extendqisi2
 650 0014 43F01003 		orr	r3, r3, #16
 651 0018 1370     		strb	r3, [r2]
 652              	.LBE36:
 653              	.LBE35:
  76:.\Generated_Source\PSoC5/P2_2.c **** 
 654              		.loc 1 76 0
 655 001a BDE80840 		pop	{r3, lr}
 656              		.cfi_restore 14
 657              		.cfi_restore 3
 658              		.cfi_def_cfa_offset 0
 659              	.LBB38:
 660              	.LBB37:
 141:.\Generated_Source\PSoC5/P2_2.c **** }
 661              		.loc 1 141 0
 662 001e FFF7FEBF 		b	CyExitCriticalSection
 663              	.LVL5:
 664              	.L10:
 665 0022 00BF     		.align	2
 666              	.L9:
 667 0024 7D640040 		.word	1073767549
 668 0028 9D640040 		.word	1073767581
 669              	.LBE37:
 670              	.LBE38:
 671              		.cfi_endproc
 672              	.LFE1:
 673              		.size	P2_2_Enable, .-P2_2_Enable
 674              		.section	.text.P2_2_Init,"ax",%progbits
 675              		.align	2
 676              		.global	P2_2_Init
 677              		.thumb
 678              		.thumb_func
 679              		.type	P2_2_Init, %function
 680              	P2_2_Init:
 681              	.LFB2:
  94:.\Generated_Source\PSoC5/P2_2.c ****     P2_2_SetIntMode(P2_2_INT_SRC);
 682              		.loc 1 94 0
 683              		.cfi_startproc
 684              		@ args = 0, pretend = 0, frame = 0
ARM GAS  C:\Users\Thomas\AppData\Local\Temp\ccJ9v2aa.s 			page 48


 685              		@ frame_needed = 0, uses_anonymous_args = 0
 686              		@ link register save eliminated.
 687              	.LVL6:
 688              	.LBB39:
 689              	.LBB40:
 263:.\Generated_Source\PSoC5/P2_2.c ****     P2_2_SR_STATUS_MASK |= (interruptSource & P2_2_INTS_EN_MASK); /* Set int */
 690              		.loc 1 263 0
 691 0000 044B     		ldr	r3, .L12
 692 0002 1A78     		ldrb	r2, [r3]	@ zero_extendqisi2
 693 0004 02F0F802 		and	r2, r2, #248
 694 0008 1A70     		strb	r2, [r3]
 695              		.loc 1 264 0
 696 000a 1A78     		ldrb	r2, [r3]	@ zero_extendqisi2
 697 000c 42F00102 		orr	r2, r2, #1
 698 0010 1A70     		strb	r2, [r3]
 699 0012 7047     		bx	lr
 700              	.L13:
 701              		.align	2
 702              	.L12:
 703 0014 8D640040 		.word	1073767565
 704              	.LBE40:
 705              	.LBE39:
 706              		.cfi_endproc
 707              	.LFE2:
 708              		.size	P2_2_Init, .-P2_2_Init
 709              		.section	.text.P2_2_Stop,"ax",%progbits
 710              		.align	2
 711              		.global	P2_2_Stop
 712              		.thumb
 713              		.thumb_func
 714              		.type	P2_2_Stop, %function
 715              	P2_2_Stop:
 716              	.LFB3:
 114:.\Generated_Source\PSoC5/P2_2.c ****     /*changing Datapath Control Store address to NOP space*/
 717              		.loc 1 114 0
 718              		.cfi_startproc
 719              		@ args = 0, pretend = 0, frame = 0
 720              		@ frame_needed = 0, uses_anonymous_args = 0
 721 0000 08B5     		push	{r3, lr}
 722              		.cfi_def_cfa_offset 8
 723              		.cfi_offset 3, -8
 724              		.cfi_offset 14, -4
 116:.\Generated_Source\PSoC5/P2_2.c ****     P2_2_DisableInt();
 725              		.loc 1 116 0
 726 0002 084A     		ldr	r2, .L16
 727 0004 1378     		ldrb	r3, [r2]	@ zero_extendqisi2
 728 0006 03F0FE03 		and	r3, r3, #254
 729 000a 1370     		strb	r3, [r2]
 730              	.LBB43:
 731              	.LBB44:
 163:.\Generated_Source\PSoC5/P2_2.c ****     P2_2_SR_AUX_CONTROL &= ((uint8) ~P2_2_INTERRUPTS_ENABLE);
 732              		.loc 1 163 0
 733 000c FFF7FEFF 		bl	CyEnterCriticalSection
 734              	.LVL7:
 164:.\Generated_Source\PSoC5/P2_2.c ****     CyExitCriticalSection(interruptState);
 735              		.loc 1 164 0
 736 0010 054A     		ldr	r2, .L16+4
ARM GAS  C:\Users\Thomas\AppData\Local\Temp\ccJ9v2aa.s 			page 49


 737 0012 1378     		ldrb	r3, [r2]	@ zero_extendqisi2
 738 0014 03F0EF03 		and	r3, r3, #239
 739 0018 1370     		strb	r3, [r2]
 740              	.LBE44:
 741              	.LBE43:
 118:.\Generated_Source\PSoC5/P2_2.c **** 
 742              		.loc 1 118 0
 743 001a BDE80840 		pop	{r3, lr}
 744              		.cfi_restore 14
 745              		.cfi_restore 3
 746              		.cfi_def_cfa_offset 0
 747              	.LBB46:
 748              	.LBB45:
 165:.\Generated_Source\PSoC5/P2_2.c **** }
 749              		.loc 1 165 0
 750 001e FFF7FEBF 		b	CyExitCriticalSection
 751              	.LVL8:
 752              	.L17:
 753 0022 00BF     		.align	2
 754              	.L16:
 755 0024 7D640040 		.word	1073767549
 756 0028 9D640040 		.word	1073767581
 757              	.LBE45:
 758              	.LBE46:
 759              		.cfi_endproc
 760              	.LFE3:
 761              		.size	P2_2_Stop, .-P2_2_Stop
 762              		.section	.text.P2_2_EnableInt,"ax",%progbits
 763              		.align	2
 764              		.global	P2_2_EnableInt
 765              		.thumb
 766              		.thumb_func
 767              		.type	P2_2_EnableInt, %function
 768              	P2_2_EnableInt:
 769              	.LFB4:
 136:.\Generated_Source\PSoC5/P2_2.c ****     uint8 interruptState;
 770              		.loc 1 136 0
 771              		.cfi_startproc
 772              		@ args = 0, pretend = 0, frame = 0
 773              		@ frame_needed = 0, uses_anonymous_args = 0
 774 0000 08B5     		push	{r3, lr}
 775              		.cfi_def_cfa_offset 8
 776              		.cfi_offset 3, -8
 777              		.cfi_offset 14, -4
 139:.\Generated_Source\PSoC5/P2_2.c ****     P2_2_SR_AUX_CONTROL |= P2_2_INTERRUPTS_ENABLE;
 778              		.loc 1 139 0
 779 0002 FFF7FEFF 		bl	CyEnterCriticalSection
 780              	.LVL9:
 140:.\Generated_Source\PSoC5/P2_2.c ****     CyExitCriticalSection(interruptState);
 781              		.loc 1 140 0
 782 0006 044A     		ldr	r2, .L20
 783 0008 1378     		ldrb	r3, [r2]	@ zero_extendqisi2
 784 000a 43F01003 		orr	r3, r3, #16
 785 000e 1370     		strb	r3, [r2]
 142:.\Generated_Source\PSoC5/P2_2.c **** 
 786              		.loc 1 142 0
 787 0010 BDE80840 		pop	{r3, lr}
ARM GAS  C:\Users\Thomas\AppData\Local\Temp\ccJ9v2aa.s 			page 50


 788              		.cfi_restore 14
 789              		.cfi_restore 3
 790              		.cfi_def_cfa_offset 0
 141:.\Generated_Source\PSoC5/P2_2.c **** }
 791              		.loc 1 141 0
 792 0014 FFF7FEBF 		b	CyExitCriticalSection
 793              	.LVL10:
 794              	.L21:
 795              		.align	2
 796              	.L20:
 797 0018 9D640040 		.word	1073767581
 798              		.cfi_endproc
 799              	.LFE4:
 800              		.size	P2_2_EnableInt, .-P2_2_EnableInt
 801              		.section	.text.P2_2_DisableInt,"ax",%progbits
 802              		.align	2
 803              		.global	P2_2_DisableInt
 804              		.thumb
 805              		.thumb_func
 806              		.type	P2_2_DisableInt, %function
 807              	P2_2_DisableInt:
 808              	.LFB5:
 160:.\Generated_Source\PSoC5/P2_2.c ****     uint8 interruptState;
 809              		.loc 1 160 0
 810              		.cfi_startproc
 811              		@ args = 0, pretend = 0, frame = 0
 812              		@ frame_needed = 0, uses_anonymous_args = 0
 813 0000 08B5     		push	{r3, lr}
 814              		.cfi_def_cfa_offset 8
 815              		.cfi_offset 3, -8
 816              		.cfi_offset 14, -4
 163:.\Generated_Source\PSoC5/P2_2.c ****     P2_2_SR_AUX_CONTROL &= ((uint8) ~P2_2_INTERRUPTS_ENABLE);
 817              		.loc 1 163 0
 818 0002 FFF7FEFF 		bl	CyEnterCriticalSection
 819              	.LVL11:
 164:.\Generated_Source\PSoC5/P2_2.c ****     CyExitCriticalSection(interruptState);
 820              		.loc 1 164 0
 821 0006 044A     		ldr	r2, .L24
 822 0008 1378     		ldrb	r3, [r2]	@ zero_extendqisi2
 823 000a 03F0EF03 		and	r3, r3, #239
 824 000e 1370     		strb	r3, [r2]
 166:.\Generated_Source\PSoC5/P2_2.c **** 
 825              		.loc 1 166 0
 826 0010 BDE80840 		pop	{r3, lr}
 827              		.cfi_restore 14
 828              		.cfi_restore 3
 829              		.cfi_def_cfa_offset 0
 165:.\Generated_Source\PSoC5/P2_2.c **** }
 830              		.loc 1 165 0
 831 0014 FFF7FEBF 		b	CyExitCriticalSection
 832              	.LVL12:
 833              	.L25:
 834              		.align	2
 835              	.L24:
 836 0018 9D640040 		.word	1073767581
 837              		.cfi_endproc
 838              	.LFE5:
ARM GAS  C:\Users\Thomas\AppData\Local\Temp\ccJ9v2aa.s 			page 51


 839              		.size	P2_2_DisableInt, .-P2_2_DisableInt
 840              		.section	.text.P2_2_GetFIFOStatus,"ax",%progbits
 841              		.align	2
 842              		.global	P2_2_GetFIFOStatus
 843              		.thumb
 844              		.thumb_func
 845              		.type	P2_2_GetFIFOStatus, %function
 846              	P2_2_GetFIFOStatus:
 847              	.LFB6:
 184:.\Generated_Source\PSoC5/P2_2.c ****     uint8 result;
 848              		.loc 1 184 0
 849              		.cfi_startproc
 850              		@ args = 0, pretend = 0, frame = 0
 851              		@ frame_needed = 0, uses_anonymous_args = 0
 852              		@ link register save eliminated.
 853              	.LVL13:
 216:.\Generated_Source\PSoC5/P2_2.c ****     {
 854              		.loc 1 216 0
 855 0000 0228     		cmp	r0, #2
 856 0002 01D0     		beq	.L32
 187:.\Generated_Source\PSoC5/P2_2.c **** 
 857              		.loc 1 187 0
 858 0004 FE20     		movs	r0, #254
 859              	.LVL14:
 860              	.L27:
 242:.\Generated_Source\PSoC5/P2_2.c **** 
 861              		.loc 1 242 0
 862 0006 7047     		bx	lr
 863              	.LVL15:
 864              	.L32:
 865              	.LBB49:
 866              	.LBB50:
 218:.\Generated_Source\PSoC5/P2_2.c ****         {
 867              		.loc 1 218 0
 868 0008 054B     		ldr	r3, .L33
 869 000a 1B78     		ldrb	r3, [r3]	@ zero_extendqisi2
 870 000c C3F34113 		ubfx	r3, r3, #5, #2
 871 0010 002B     		cmp	r3, #0
 872 0012 F8D0     		beq	.L27
 221:.\Generated_Source\PSoC5/P2_2.c ****                 break;
 873              		.loc 1 221 0
 874 0014 A3F10200 		sub	r0, r3, #2
 875              	.LVL16:
 876 0018 B0FA80F0 		clz	r0, r0
 877 001c 4009     		lsrs	r0, r0, #5
 878 001e 7047     		bx	lr
 879              	.L34:
 880              		.align	2
 881              	.L33:
 882 0020 6D640040 		.word	1073767533
 883              	.LBE50:
 884              	.LBE49:
 885              		.cfi_endproc
 886              	.LFE6:
 887              		.size	P2_2_GetFIFOStatus, .-P2_2_GetFIFOStatus
 888              		.section	.text.P2_2_SetIntMode,"ax",%progbits
 889              		.align	2
ARM GAS  C:\Users\Thomas\AppData\Local\Temp\ccJ9v2aa.s 			page 52


 890              		.global	P2_2_SetIntMode
 891              		.thumb
 892              		.thumb_func
 893              		.type	P2_2_SetIntMode, %function
 894              	P2_2_SetIntMode:
 895              	.LFB7:
 262:.\Generated_Source\PSoC5/P2_2.c ****     P2_2_SR_STATUS_MASK &= ((uint8) ~P2_2_INTS_EN_MASK);          /* Clear existing int */
 896              		.loc 1 262 0
 897              		.cfi_startproc
 898              		@ args = 0, pretend = 0, frame = 0
 899              		@ frame_needed = 0, uses_anonymous_args = 0
 900              		@ link register save eliminated.
 901              	.LVL17:
 263:.\Generated_Source\PSoC5/P2_2.c ****     P2_2_SR_STATUS_MASK |= (interruptSource & P2_2_INTS_EN_MASK); /* Set int */
 902              		.loc 1 263 0
 903 0000 054B     		ldr	r3, .L36
 904              		.loc 1 264 0
 905 0002 00F00700 		and	r0, r0, #7
 906              	.LVL18:
 263:.\Generated_Source\PSoC5/P2_2.c ****     P2_2_SR_STATUS_MASK |= (interruptSource & P2_2_INTS_EN_MASK); /* Set int */
 907              		.loc 1 263 0
 908 0006 1A78     		ldrb	r2, [r3]	@ zero_extendqisi2
 909 0008 02F0F802 		and	r2, r2, #248
 910 000c 1A70     		strb	r2, [r3]
 911              		.loc 1 264 0
 912 000e 1A78     		ldrb	r2, [r3]	@ zero_extendqisi2
 913 0010 1043     		orrs	r0, r0, r2
 914 0012 1870     		strb	r0, [r3]
 915 0014 7047     		bx	lr
 916              	.L37:
 917 0016 00BF     		.align	2
 918              	.L36:
 919 0018 8D640040 		.word	1073767565
 920              		.cfi_endproc
 921              	.LFE7:
 922              		.size	P2_2_SetIntMode, .-P2_2_SetIntMode
 923              		.section	.text.P2_2_GetIntStatus,"ax",%progbits
 924              		.align	2
 925              		.global	P2_2_GetIntStatus
 926              		.thumb
 927              		.thumb_func
 928              		.type	P2_2_GetIntStatus, %function
 929              	P2_2_GetIntStatus:
 930              	.LFB8:
 265:.\Generated_Source\PSoC5/P2_2.c **** }
 266:.\Generated_Source\PSoC5/P2_2.c **** 
 267:.\Generated_Source\PSoC5/P2_2.c **** 
 268:.\Generated_Source\PSoC5/P2_2.c **** /*******************************************************************************
 269:.\Generated_Source\PSoC5/P2_2.c **** * Function Name: P2_2_GetIntStatus
 270:.\Generated_Source\PSoC5/P2_2.c **** ********************************************************************************
 271:.\Generated_Source\PSoC5/P2_2.c **** *
 272:.\Generated_Source\PSoC5/P2_2.c **** * Summary:
 273:.\Generated_Source\PSoC5/P2_2.c **** *  Gets the Shift Register Interrupt status.
 274:.\Generated_Source\PSoC5/P2_2.c **** *
 275:.\Generated_Source\PSoC5/P2_2.c **** * Parameters:
 276:.\Generated_Source\PSoC5/P2_2.c **** *  None.
 277:.\Generated_Source\PSoC5/P2_2.c **** *
ARM GAS  C:\Users\Thomas\AppData\Local\Temp\ccJ9v2aa.s 			page 53


 278:.\Generated_Source\PSoC5/P2_2.c **** * Return:
 279:.\Generated_Source\PSoC5/P2_2.c **** *  Byte containing the constant for the selected interrupt source/s.
 280:.\Generated_Source\PSoC5/P2_2.c **** *
 281:.\Generated_Source\PSoC5/P2_2.c **** *******************************************************************************/
 282:.\Generated_Source\PSoC5/P2_2.c **** uint8 P2_2_GetIntStatus(void) 
 283:.\Generated_Source\PSoC5/P2_2.c **** {
 931              		.loc 1 283 0
 932              		.cfi_startproc
 933              		@ args = 0, pretend = 0, frame = 0
 934              		@ frame_needed = 0, uses_anonymous_args = 0
 935              		@ link register save eliminated.
 284:.\Generated_Source\PSoC5/P2_2.c ****     return(P2_2_SR_STATUS & P2_2_INTS_EN_MASK);
 936              		.loc 1 284 0
 937 0000 024B     		ldr	r3, .L39
 938 0002 1878     		ldrb	r0, [r3]	@ zero_extendqisi2
 285:.\Generated_Source\PSoC5/P2_2.c **** }
 939              		.loc 1 285 0
 940 0004 00F00700 		and	r0, r0, #7
 941 0008 7047     		bx	lr
 942              	.L40:
 943 000a 00BF     		.align	2
 944              	.L39:
 945 000c 6D640040 		.word	1073767533
 946              		.cfi_endproc
 947              	.LFE8:
 948              		.size	P2_2_GetIntStatus, .-P2_2_GetIntStatus
 949              		.section	.text.P2_2_WriteRegValue,"ax",%progbits
 950              		.align	2
 951              		.global	P2_2_WriteRegValue
 952              		.thumb
 953              		.thumb_func
 954              		.type	P2_2_WriteRegValue, %function
 955              	P2_2_WriteRegValue:
 956              	.LFB9:
 286:.\Generated_Source\PSoC5/P2_2.c **** 
 287:.\Generated_Source\PSoC5/P2_2.c **** 
 288:.\Generated_Source\PSoC5/P2_2.c **** /*******************************************************************************
 289:.\Generated_Source\PSoC5/P2_2.c **** * Function Name: P2_2_WriteRegValue
 290:.\Generated_Source\PSoC5/P2_2.c **** ********************************************************************************
 291:.\Generated_Source\PSoC5/P2_2.c **** *
 292:.\Generated_Source\PSoC5/P2_2.c **** * Summary:
 293:.\Generated_Source\PSoC5/P2_2.c **** *  Send state directly to shift register
 294:.\Generated_Source\PSoC5/P2_2.c **** *
 295:.\Generated_Source\PSoC5/P2_2.c **** * Parameters:
 296:.\Generated_Source\PSoC5/P2_2.c **** *  shiftData: containing shift register state.
 297:.\Generated_Source\PSoC5/P2_2.c **** *
 298:.\Generated_Source\PSoC5/P2_2.c **** * Return:
 299:.\Generated_Source\PSoC5/P2_2.c **** *  None.
 300:.\Generated_Source\PSoC5/P2_2.c **** *
 301:.\Generated_Source\PSoC5/P2_2.c **** *******************************************************************************/
 302:.\Generated_Source\PSoC5/P2_2.c **** void P2_2_WriteRegValue(uint16 shiftData)
 303:.\Generated_Source\PSoC5/P2_2.c ****                                                                      
 304:.\Generated_Source\PSoC5/P2_2.c **** {
 957              		.loc 1 304 0
 958              		.cfi_startproc
 959              		@ args = 0, pretend = 0, frame = 0
 960              		@ frame_needed = 0, uses_anonymous_args = 0
ARM GAS  C:\Users\Thomas\AppData\Local\Temp\ccJ9v2aa.s 			page 54


 961              		@ link register save eliminated.
 962              	.LVL19:
 305:.\Generated_Source\PSoC5/P2_2.c ****     CY_SET_REG16(P2_2_SHIFT_REG_LSB_PTR, shiftData);
 963              		.loc 1 305 0
 964 0000 014B     		ldr	r3, .L42
 965 0002 1880     		strh	r0, [r3]	@ movhi
 966 0004 7047     		bx	lr
 967              	.L43:
 968 0006 00BF     		.align	2
 969              	.L42:
 970 0008 0C640040 		.word	1073767436
 971              		.cfi_endproc
 972              	.LFE9:
 973              		.size	P2_2_WriteRegValue, .-P2_2_WriteRegValue
 974              		.section	.text.P2_2_ReadRegValue,"ax",%progbits
 975              		.align	2
 976              		.global	P2_2_ReadRegValue
 977              		.thumb
 978              		.thumb_func
 979              		.type	P2_2_ReadRegValue, %function
 980              	P2_2_ReadRegValue:
 981              	.LFB10:
 306:.\Generated_Source\PSoC5/P2_2.c **** }
 307:.\Generated_Source\PSoC5/P2_2.c **** 
 308:.\Generated_Source\PSoC5/P2_2.c **** 
 309:.\Generated_Source\PSoC5/P2_2.c **** #if(0u != P2_2_USE_INPUT_FIFO)
 310:.\Generated_Source\PSoC5/P2_2.c ****     /*******************************************************************************
 311:.\Generated_Source\PSoC5/P2_2.c ****     * Function Name: P2_2_WriteData
 312:.\Generated_Source\PSoC5/P2_2.c ****     ********************************************************************************
 313:.\Generated_Source\PSoC5/P2_2.c ****     *
 314:.\Generated_Source\PSoC5/P2_2.c ****     * Summary:
 315:.\Generated_Source\PSoC5/P2_2.c ****     *  Send state to FIFO for later transfer to shift register based on the Load
 316:.\Generated_Source\PSoC5/P2_2.c ****     *  input
 317:.\Generated_Source\PSoC5/P2_2.c ****     *
 318:.\Generated_Source\PSoC5/P2_2.c ****     * Parameters:
 319:.\Generated_Source\PSoC5/P2_2.c ****     *  shiftData: containing shift register state.
 320:.\Generated_Source\PSoC5/P2_2.c ****     *
 321:.\Generated_Source\PSoC5/P2_2.c ****     * Return:
 322:.\Generated_Source\PSoC5/P2_2.c ****     *  Indicates: successful execution of function
 323:.\Generated_Source\PSoC5/P2_2.c ****     *  when FIFO is empty; and error when FIFO is full.
 324:.\Generated_Source\PSoC5/P2_2.c ****     *
 325:.\Generated_Source\PSoC5/P2_2.c ****     * Reentrant:
 326:.\Generated_Source\PSoC5/P2_2.c ****     *  No.
 327:.\Generated_Source\PSoC5/P2_2.c ****     *
 328:.\Generated_Source\PSoC5/P2_2.c ****     *******************************************************************************/
 329:.\Generated_Source\PSoC5/P2_2.c ****     cystatus P2_2_WriteData(uint16 shiftData)
 330:.\Generated_Source\PSoC5/P2_2.c ****                                                                          
 331:.\Generated_Source\PSoC5/P2_2.c ****     {
 332:.\Generated_Source\PSoC5/P2_2.c ****         cystatus result;
 333:.\Generated_Source\PSoC5/P2_2.c **** 
 334:.\Generated_Source\PSoC5/P2_2.c ****         result = CYRET_INVALID_STATE;
 335:.\Generated_Source\PSoC5/P2_2.c **** 
 336:.\Generated_Source\PSoC5/P2_2.c ****         /* Writes data into the input FIFO if it is not FULL */
 337:.\Generated_Source\PSoC5/P2_2.c ****         if(P2_2_RET_FIFO_FULL != (P2_2_GetFIFOStatus(P2_2_IN_FIFO)))
 338:.\Generated_Source\PSoC5/P2_2.c ****         {
 339:.\Generated_Source\PSoC5/P2_2.c ****             CY_SET_REG16(P2_2_IN_FIFO_VAL_LSB_PTR, shiftData);
 340:.\Generated_Source\PSoC5/P2_2.c ****             result = CYRET_SUCCESS;
ARM GAS  C:\Users\Thomas\AppData\Local\Temp\ccJ9v2aa.s 			page 55


 341:.\Generated_Source\PSoC5/P2_2.c ****         }
 342:.\Generated_Source\PSoC5/P2_2.c **** 
 343:.\Generated_Source\PSoC5/P2_2.c ****         return(result);
 344:.\Generated_Source\PSoC5/P2_2.c ****     }
 345:.\Generated_Source\PSoC5/P2_2.c **** #endif /* (0u != P2_2_USE_INPUT_FIFO) */
 346:.\Generated_Source\PSoC5/P2_2.c **** 
 347:.\Generated_Source\PSoC5/P2_2.c **** 
 348:.\Generated_Source\PSoC5/P2_2.c **** #if(0u != P2_2_USE_OUTPUT_FIFO)
 349:.\Generated_Source\PSoC5/P2_2.c ****     /*******************************************************************************
 350:.\Generated_Source\PSoC5/P2_2.c ****     * Function Name: P2_2_ReadData
 351:.\Generated_Source\PSoC5/P2_2.c ****     ********************************************************************************
 352:.\Generated_Source\PSoC5/P2_2.c ****     *
 353:.\Generated_Source\PSoC5/P2_2.c ****     * Summary:
 354:.\Generated_Source\PSoC5/P2_2.c ****     *  Returns state in FIFO due to Store input.
 355:.\Generated_Source\PSoC5/P2_2.c ****     *
 356:.\Generated_Source\PSoC5/P2_2.c ****     * Parameters:
 357:.\Generated_Source\PSoC5/P2_2.c ****     *  None.
 358:.\Generated_Source\PSoC5/P2_2.c ****     *
 359:.\Generated_Source\PSoC5/P2_2.c ****     * Return:
 360:.\Generated_Source\PSoC5/P2_2.c ****     *  Shift Register state
 361:.\Generated_Source\PSoC5/P2_2.c ****     *
 362:.\Generated_Source\PSoC5/P2_2.c ****     * Reentrant:
 363:.\Generated_Source\PSoC5/P2_2.c ****     *  No.
 364:.\Generated_Source\PSoC5/P2_2.c ****     *
 365:.\Generated_Source\PSoC5/P2_2.c ****     *******************************************************************************/
 366:.\Generated_Source\PSoC5/P2_2.c ****     uint16 P2_2_ReadData(void) 
 367:.\Generated_Source\PSoC5/P2_2.c ****     {
 368:.\Generated_Source\PSoC5/P2_2.c ****         return(CY_GET_REG16(P2_2_OUT_FIFO_VAL_LSB_PTR));
 369:.\Generated_Source\PSoC5/P2_2.c ****     }
 370:.\Generated_Source\PSoC5/P2_2.c **** #endif /* (0u != P2_2_USE_OUTPUT_FIFO) */
 371:.\Generated_Source\PSoC5/P2_2.c **** 
 372:.\Generated_Source\PSoC5/P2_2.c **** 
 373:.\Generated_Source\PSoC5/P2_2.c **** /*******************************************************************************
 374:.\Generated_Source\PSoC5/P2_2.c **** * Function Name: P2_2_ReadRegValue
 375:.\Generated_Source\PSoC5/P2_2.c **** ********************************************************************************
 376:.\Generated_Source\PSoC5/P2_2.c **** *
 377:.\Generated_Source\PSoC5/P2_2.c **** * Summary:
 378:.\Generated_Source\PSoC5/P2_2.c **** *  Directly returns current state in shift register, not data in FIFO due
 379:.\Generated_Source\PSoC5/P2_2.c **** *  to Store input.
 380:.\Generated_Source\PSoC5/P2_2.c **** *
 381:.\Generated_Source\PSoC5/P2_2.c **** * Parameters:
 382:.\Generated_Source\PSoC5/P2_2.c **** *  None.
 383:.\Generated_Source\PSoC5/P2_2.c **** *
 384:.\Generated_Source\PSoC5/P2_2.c **** * Return:
 385:.\Generated_Source\PSoC5/P2_2.c **** *  Shift Register state. Clears output FIFO.
 386:.\Generated_Source\PSoC5/P2_2.c **** *
 387:.\Generated_Source\PSoC5/P2_2.c **** * Reentrant:
 388:.\Generated_Source\PSoC5/P2_2.c **** *  No.
 389:.\Generated_Source\PSoC5/P2_2.c **** *
 390:.\Generated_Source\PSoC5/P2_2.c **** *******************************************************************************/
 391:.\Generated_Source\PSoC5/P2_2.c **** uint16 P2_2_ReadRegValue(void) 
 392:.\Generated_Source\PSoC5/P2_2.c **** {
 982              		.loc 1 392 0
 983              		.cfi_startproc
 984              		@ args = 0, pretend = 0, frame = 0
 985              		@ frame_needed = 0, uses_anonymous_args = 0
 986              		@ link register save eliminated.
ARM GAS  C:\Users\Thomas\AppData\Local\Temp\ccJ9v2aa.s 			page 56


 987              	.LBB55:
 988              	.LBB56:
 989              	.LBB57:
 990              	.LBB58:
 218:.\Generated_Source\PSoC5/P2_2.c ****         {
 991              		.loc 1 218 0
 992 0000 064A     		ldr	r2, .L49
 993              	.LBE58:
 994              	.LBE57:
 995              	.LBE56:
 996              	.LBE55:
 393:.\Generated_Source\PSoC5/P2_2.c ****     uint16 result;
 394:.\Generated_Source\PSoC5/P2_2.c **** 
 395:.\Generated_Source\PSoC5/P2_2.c ****     /* Clear FIFO before software capture */
 396:.\Generated_Source\PSoC5/P2_2.c ****     while(P2_2_RET_FIFO_EMPTY != P2_2_GetFIFOStatus(P2_2_OUT_FIFO))
 397:.\Generated_Source\PSoC5/P2_2.c ****     {
 398:.\Generated_Source\PSoC5/P2_2.c ****         (void) CY_GET_REG16(P2_2_OUT_FIFO_VAL_LSB_PTR);
 997              		.loc 1 398 0
 998 0002 0749     		ldr	r1, .L49+4
 396:.\Generated_Source\PSoC5/P2_2.c ****     {
 999              		.loc 1 396 0
 1000 0004 00E0     		b	.L45
 1001              	.LVL20:
 1002              	.L48:
 1003              		.loc 1 398 0
 1004 0006 0B88     		ldrh	r3, [r1]
 1005              	.LVL21:
 1006              	.L45:
 1007              	.LBB62:
 1008              	.LBB61:
 1009              	.LBB60:
 1010              	.LBB59:
 218:.\Generated_Source\PSoC5/P2_2.c ****         {
 1011              		.loc 1 218 0
 1012 0008 1378     		ldrb	r3, [r2]	@ zero_extendqisi2
 1013 000a 13F0600F 		tst	r3, #96
 1014 000e FAD1     		bne	.L48
 1015              	.LVL22:
 1016              	.LBE59:
 1017              	.LBE60:
 1018              	.LBE61:
 1019              	.LBE62:
 399:.\Generated_Source\PSoC5/P2_2.c ****     }
 400:.\Generated_Source\PSoC5/P2_2.c **** 
 401:.\Generated_Source\PSoC5/P2_2.c ****     /* Read of 8 bits from A1 causes capture to output FIFO */
 402:.\Generated_Source\PSoC5/P2_2.c ****     (void) CY_GET_REG8(P2_2_SHIFT_REG_CAPTURE_PTR);
 403:.\Generated_Source\PSoC5/P2_2.c **** 
 404:.\Generated_Source\PSoC5/P2_2.c ****     /* Read output FIFO */
 405:.\Generated_Source\PSoC5/P2_2.c ****     result  = CY_GET_REG16(P2_2_OUT_FIFO_VAL_LSB_PTR);
 1020              		.loc 1 405 0
 1021 0010 034B     		ldr	r3, .L49+4
 402:.\Generated_Source\PSoC5/P2_2.c **** 
 1022              		.loc 1 402 0
 1023 0012 044A     		ldr	r2, .L49+8
 1024 0014 1278     		ldrb	r2, [r2]	@ zero_extendqisi2
 1025              		.loc 1 405 0
 1026 0016 1888     		ldrh	r0, [r3]
ARM GAS  C:\Users\Thomas\AppData\Local\Temp\ccJ9v2aa.s 			page 57


 1027              	.LVL23:
 406:.\Generated_Source\PSoC5/P2_2.c ****     
 407:.\Generated_Source\PSoC5/P2_2.c ****     #if(0u != (P2_2_SR_SIZE % 8u))
 408:.\Generated_Source\PSoC5/P2_2.c ****         result &= ((uint16) P2_2_SR_MASK);
 409:.\Generated_Source\PSoC5/P2_2.c ****     #endif /* (0u != (P2_2_SR_SIZE % 8u)) */
 410:.\Generated_Source\PSoC5/P2_2.c ****     
 411:.\Generated_Source\PSoC5/P2_2.c ****     return(result);
 412:.\Generated_Source\PSoC5/P2_2.c **** }
 1028              		.loc 1 412 0
 1029 0018 80B2     		uxth	r0, r0
 1030 001a 7047     		bx	lr
 1031              	.L50:
 1032              		.align	2
 1033              	.L49:
 1034 001c 6D640040 		.word	1073767533
 1035 0020 5C640040 		.word	1073767516
 1036 0024 1C640040 		.word	1073767452
 1037              		.cfi_endproc
 1038              	.LFE10:
 1039              		.size	P2_2_ReadRegValue, .-P2_2_ReadRegValue
 1040              		.global	P2_2_initVar
 1041              		.bss
 1042              		.set	.LANCHOR0,. + 0
 1043              		.type	P2_2_initVar, %object
 1044              		.size	P2_2_initVar, 1
 1045              	P2_2_initVar:
 1046 0000 00       		.space	1
 1047              		.text
 1048              	.Letext0:
 1049              		.file 2 ".\\Generated_Source\\PSoC5\\cytypes.h"
 1050              		.file 3 ".\\Generated_Source\\PSoC5\\CyLib.h"