ARM GAS  C:\Users\Thomas\AppData\Local\Temp\ccgGhVHv.s 			page 1


   1              		.syntax unified
   2              		.cpu cortex-m3
   3              		.fpu softvfp
   4              		.eabi_attribute 20, 1
   5              		.eabi_attribute 21, 1
   6              		.eabi_attribute 23, 3
   7              		.eabi_attribute 24, 1
   8              		.eabi_attribute 25, 1
   9              		.eabi_attribute 26, 1
  10              		.eabi_attribute 30, 2
  11              		.eabi_attribute 34, 1
  12              		.eabi_attribute 18, 4
  13              		.thumb
  14              		.file	"P2_3_PM.c"
  15              		.text
  16              	.Ltext0:
  17              		.section	.gnu.lto_.profile.b9498746,"",%progbits
  18 0000 789C6366 		.ascii	"x\234cf```a\200\000F\006cY\000\000\367\000Y"
  18      60606061 
  18      80004606 
  18      63590000 
  18      F70059
  19              		.text
  20              		.section	.gnu.lto_.jmpfuncs.b9498746,"",%progbits
  21 0000 789C6366 		.ascii	"x\234cf\300\016\004\2404\013\0203100C\231\014\000\002"
  21      C00E04A0 
  21      340B1033 
  21      31303043 
  21      990C0002 
  22 0014 C70021   		.ascii	"\307\000!"
  23              		.text
  24              		.section	.gnu.lto_.inline.b9498746,"",%progbits
  25 0000 789C6366 		.ascii	"x\234cf\300\016\"\2404\013\003\003;\033#\003\023\307"
  25      C00E22A0 
  25      340B0303 
  25      3B1B2303 
  25      13C7
  26 0012 013B06B6 		.ascii	"\001;\006\266\005\362L 1&L!f\006\036\021\240\220@C-"
  26      05F24C20 
  26      31264C21 
  26      66061E11 
  26      A0904043 
  27 0027 5C88910B 		.ascii	"\\\210\221\013\254\235\233\027(\316\267!\027U\234\001"
  27      AC9D9B17 
  27      28CEB721 
  27      17559C01 
  28 0037 00917408 		.ascii	"\000\221t\010="
  28      3D
  29              		.text
  30              		.section	.gnu.lto_.pureconst.b9498746,"",%progbits
  31 0000 789C6366 		.ascii	"x\234cf``\340d\200\000\026\006)&)f)\026)\000\002\321"
  31      6060E064 
  31      80001606 
  31      29262966 
  31      29162900 
  32 0016 0082     		.ascii	"\000\202"
  33              		.text
ARM GAS  C:\Users\Thomas\AppData\Local\Temp\ccgGhVHv.s 			page 2


  34              		.section	.gnu.lto_P2_3_SaveConfig.b9498746,"",%progbits
  35 0000 789C8D91 		.ascii	"x\234\215\221\313+Da\030\306\337\347\235\343\030\315"
  35      CB2B4461 
  35      18C6DFE7 
  35      9DE318CD 
  36 0010 822C6D2C 		.ascii	"\202,m,$6,\310_`a\245\246l\247&1[J,\345\034\316\302"
  36      24362CC8 
  36      5F6061A5 
  36      A66CA726 
  36      315B4A2C 
  37 0028 25972429 		.ascii	"%\227$)\227\305\224\\\206\031\327\375\301N\271e\241"
  37      97C5945C 
  37      8619D7FD 
  37      C14EB965 
  37      A1
  38 0039 2C488D62 		.ascii	",H\215b#\227\032\235\030\274\357\221K\224\234\372\316"
  38      23971A9D 
  38      18BCEF91 
  38      4B949CFA 
  38      CE
  39 004a 77BEEF7D 		.ascii	"w\276\357}\276\347\375=\337\011\320\357\247H\306\025"
  39      BEE7FD3D 
  39      DF09D0EF 
  39      A748C615 
  40 005a 884A6546 		.ascii	"\210JeF\200\300#\373Dv\220\001\375 P\027\243\013\327"
  40      80C023FB 
  40      44769001 
  40      FD205017 
  40      A30BD7
  41 006d 7CC71871 		.ascii	"|\307\030q\023\023\241\262Y\313\262n\343{v\330\205\307"
  41      1313A1B2 
  41      59CBB26E 
  41      E37B76D8 
  41      85C7
  42 007f 440FFCEE 		.ascii	"D\017\374\356\2039\224\221\210\356\234\354I\310tDT\360"
  42      83399491 
  42      88EE9CEC 
  42      49C87444 
  42      54F0
  43 0091 5EC33C4C 		.ascii	"^\303<L\361\247T\241k\275\276>lne`2y\014C_Di\021i\253"
  43      F1A754A1 
  43      6BBDBE3E 
  43      6C6E6560 
  43      32790C43 
  44 00ab 4B669D03 		.ascii	"Kf\235\003\247\330\316\364\337\214\347\351\271G\326"
  44      A7D8CEF4 
  44      DF8CE7E9 
  44      B947D6
  45 00ba BE03BDEE 		.ascii	"\276\003\275\356a\356\025{\314\316\256m\031\332\345"
  45      61EE157B 
  45      CCCEAE6D 
  45      19DAE5
  46 00c9 3C7D7014 		.ascii	"<}p\024\364\267H\227}\203;\347\371\323\230\264\035a"
  46      F4B74897 
  46      7D833BE7 
  46      F9D398B4 
  46      1D61
ARM GAS  C:\Users\Thomas\AppData\Local\Temp\ccgGhVHv.s 			page 3


  47 00db 0A600145 		.ascii	"\012`\001EX\204$C\002\323\240St\217^\024\253\237Hg\216"
  47      58842443 
  47      02D3A053 
  47      748F5E14 
  47      AB9F4867 
  48 00f0 8792DCF9 		.ascii	"\207\222\334\371d\365ZA\217\215\254\022~\3673\374\345"
  48      64F55A41 
  48      8F8DAC12 
  48      7EF733FC 
  48      E5
  49 0101 BCED4C41 		.ascii	"\274\355LA\375,U\345`\011\235XVC\251\275,\015\257\231"
  49      FD2C55E5 
  49      60099D58 
  49      5643A9BD 
  49      2C0DAF99 
  50 0115 150909E8 		.ascii	"\025\011\011\350\226{l\")\302{\377\022\220B\205\020"
  50      967B6C22 
  50      29C27BFF 
  50      12904285 
  50      10
  51 0126 939F20F3 		.ascii	"\223\237 \363\221\300\2203\231\333\355g\366q\307>\022"
  51      91C09033 
  51      99DBED67 
  51      F671C73E 
  51      12
  52 0137 F41CC78F 		.ascii	"\364\034\307\217\314/\344\225O\344\325\177\"\377d\\"
  52      CC2FE495 
  52      4FE4D57F 
  52      22FF645C 
  53 0147 FB8371DD 		.ascii	"\373\203q\335g\324\277\200\015e4\350\014\266\373\230"
  53      67D4BF80 
  53      0D6534E8 
  53      0CB6FB98 
  54 0157 A30D943C 		.ascii	"\243\015\224<-5\271{q.\251\214\324\305Zbm\215\355\261"
  54      2D35B97B 
  54      712EA98C 
  54      D4C55A62 
  54      6D8DEDB1 
  55 016b E668436B 		.ascii	"\346hCkG[S,\022nh\255\255\211\204\253\242\325\321p}"
  55      475B532C 
  55      126E68AD 
  55      AD8984AB 
  55      A2D5D170 
  56 0180 6513BD01 		.ascii	"e\023\275\001\2323\273\260"
  56      9A33BBB0 
  57              		.text
  58              		.section	.gnu.lto_P2_3_RestoreConfig.b9498746,"",%progbits
  59 0000 789C7590 		.ascii	"x\234u\220\275KBQ\030\306\337\347\365z\023\032\212&"
  59      BD4B4251 
  59      18C6DFE7 
  59      F57A131A 
  59      8A26
  60 0012 718D6888 		.ascii	"q\215h\210\034\212\376\202\240\246\300p\025$\3145Aj"
  60      1C8AFE82 
  60      A0A6C070 
  60      1524CC35 
  60      416A
ARM GAS  C:\Users\Thomas\AppData\Local\Temp\ccgGhVHv.s 			page 4


  61 0024 14EFAD1B 		.ascii	"\024\357\255\033\030Qi4\004}\014Ad\237VF\263\330\326"
  61      18516934 
  61      047D0C41 
  61      649F5646 
  61      B3D8D6
  62 0037 A0494150 		.ascii	"\240IAPP\213Am\231P\\\312\354\234+\025Y\0358\237\357"
  62      508B416D 
  62      99505CCA 
  62      EC9C2B15 
  62      591D389F 
  63 004c 739EE777 		.ascii	"s\236\347w\216\215~7\227\350W j\0233l\004\216\347\210"
  63      8E8D7E37 
  63      97E85720 
  63      6A13336C 
  63      048EE788 
  64 0060 74070372 		.ascii	"t\007\003rA\240(#\212\007.1\342\231\355\305\306\366"
  64      41A02823 
  64      8A072E31 
  64      E299EDC5 
  64      C6F6
  65 0072 754DD31E 		.ascii	"uM\323\036\263i\347\244\323d\2422\327l\260\201v\022"
  65      B369E7A4 
  65      D364A232 
  65      D76CB081 
  65      7612
  66 0084 9A9251B9 		.ascii	"\232\222Q\271lT\015\241i\256\325\220\204*\354)\325\222"
  66      6C540DA1 
  66      69AED590 
  66      842AEC29 
  66      D592
  67 0096 D1AAD572 		.ascii	"\321\252\325r.\221\354\200\312d2\0249\020\025\205JF"
  67      2E91EC80 
  67      CA643214 
  67      39101585 
  67      4A46
  68 00a8 DD31CBD9 		.ascii	"\3351\313\331v\205\361\343R~P\336{a\031\273z>\273\307"
  68      7685F1E3 
  68      527E50DE 
  68      7B6119BB 
  68      7A3EBBC7 
  69 00bc 91572DA6 		.ascii	"\221W-\2469L\346\2124\025\247\267\305|\301q\317\342"
  69      394CE68A 
  69      3415A7B7 
  69      C57CC171 
  69      CFE2
  70 00ce C4DA2675 		.ascii	"\304\332&uc\031+X\3225\251\262a\023\021l\301e\325\336"
  70      63192B58 
  70      D235A9B2 
  70      6113116C 
  70      C165D5DE 
  71 00e2 77E60ED5 		.ascii	"w\346\016\325\316\016\223\025l\013\315\223\205\214\035"
  71      CE0E9315 
  71      6C0BCD93 
  71      858C1D
  72 00f1 748A8767 		.ascii	"t\212\207g\347!\223\204j:\2269k\220\206v\343T\327\224"
  72      E7219384 
  72      6A3A9639 
ARM GAS  C:\Users\Thomas\AppData\Local\Temp\ccgGhVHv.s 			page 5


  72      6B908676 
  72      E354D794 
  73 0105 1F1976CB 		.ascii	"\037\031v\313gj\346\344\266If\0300Y\305.\\\330\223\021"
  73      676AE6E4 
  73      B6496618 
  73      3059C52E 
  73      5CD89311 
  74 0119 480957C1 		.ascii	"H\011W\301J\022=q\201\032\272\362/z=\353\376\337\254"
  74      4A123D71 
  74      811ABAF2 
  74      2F7A3DEB 
  74      FEDFAC
  75 012c 0716ABFC 		.ascii	"\007\026\253\374;\034\326\261>?f\337\330\002[\370d\235"
  75      3B1CD6B1 
  75      3E3F66DF 
  75      D8025BF8 
  75      649D
  76 013e 385F2BA8 		.ascii	"8_+\250\337p\351/\270#\013N\241\033\350\231\353>i \237"
  76      DF70E92F 
  76      B8230B4E 
  76      A11BE899 
  76      EB3E6920 
  77 0153 5F14C6E2 		.ascii	"_\024\306\342\267\005Q\253\333\327\037\034\011\206\207"
  77      B70551AB 
  77      DBD71F1C 
  77      098687
  78 0162 4683C37E 		.ascii	"F\203\303~oh,\034\010\372<\336Po\217\317\323\345\357"
  78      6F682C1C 
  78      08FA3CDE 
  78      506F8FCF 
  78      D3E5EF
  79 0175 F67B06DC 		.ascii	"\366{\006\334\001\372\000\031\326\261\253"
  79      01FA0019 
  79      D6B1AB
  80              		.text
  81              		.section	.gnu.lto_P2_3_Sleep.b9498746,"",%progbits
  82 0000 789C9552 		.ascii	"x\234\225RKh\023Q\024\275\347M\376\251 \256J\027\272"
  82      4B681351 
  82      14BDE74D 
  82      FEA920AE 
  82      4A17BA
  83 0013 10A99B76 		.ascii	"\020\251\233v\241\210K\027.\272\022\002\335\006\202"
  83      A1884B17 
  83      2EBA1202 
  83      DD0682
  84 0022 D4AC040B 		.ascii	"\324\254\004\013E\227\2413I\304b\325\326P\212\242\021"
  84      4597A133 
  84      49C462D5 
  84      D6508AA2 
  84      11
  85 0033 376A35B5 		.ascii	"7j5\265\255\251\326OZ;\024!\240\370\303\205\022$R\251"
  85      ADA9D64F 
  85      5A3B1421 
  85      A0F8C385 
  85      122452A9 
  86 0047 10174AD3 		.ascii	"\020\027J\323`t\320Z\357}c\245\246Tp`\336\367\334{\316"
  86      6074D05A 
ARM GAS  C:\Users\Thomas\AppData\Local\Temp\ccgGhVHv.s 			page 6


  86      EF7D63A5 
  86      A6547060 
  86      DEF7DC7B 
  87 005c 3DF719B4 		.ascii	"=\367\031\264\376k\341\377\260A\264\203g\030\0045\370"
  87      FE6BE1FF 
  87      B041B483 
  87      67180435 
  87      F8
  88 006d 8CC80A28 		.ascii	"\214\310\012(@\026\004\352U\350\305GUU\030\264s\347"
  88      401604EA 
  88      55E8C547 
  88      555518B4 
  88      73E7
  89 007f C2AD574C 		.ascii	"\302\255WL\323\\\314\024\232\2177;\212\250\246\3344"
  89      D35CCC14 
  89      9A8F373B 
  89      8AA8A6DC 
  89      34
  90 0090 B8865662 		.ascii	"\270\206VbL5\275\374:\354K3f\263{\207\021\370\300\363"
  90      4C35BDFC 
  90      3AEC4B33 
  90      66B37B87 
  90      11F8C0F3 
  91 00a4 F816DB5C 		.ascii	"\370\026\333\\Y\231\374t\266\262\027M G1\031\017\036"
  91      5999FC74 
  91      B6B2174D 
  91      20473119 
  91      0F1E
  92 00b6 1E945756 		.ascii	"\036\224WVA\036\214\220\014D\013\034)\364\037\224\222"
  92      411E8C90 
  92      0C440B1C 
  92      29F41F94 
  92      92
  93 00c7 D92861AE 		.ascii	"\331(a\256~\262\234\235\200d\373\252\014&J\275\231^"
  93      7EB29C9D 
  93      8064FBAA 
  93      0C264ABD 
  93      995E
  94 00d9 5215E528 		.ascii	"R\025\345(\317\227\307\226\351\021\356w\013\317_\006"
  94      CF97C796 
  94      E911EE77 
  94      0BCF5F06 
  95 00e9 F411C9F6 		.ascii	"\364\021\311\366\375\323r\322\237\305\005+\015Gyq\035"
  95      FDD372D2 
  95      9FC5052B 
  95      0D477971 
  95      1D
  96 00fa 2DB8012E 		.ascii	"-\270\001.\0279dA%\244\276\371\334tp3\026\263\225\274"
  96      17396441 
  96      25A4BEF9 
  96      DC747033 
  96      16B395BC 
  97 010e 47C201C2 		.ascii	"G\302\001\302(#\031\222?\361\310\343\202<\214c\220u"
  97      28231992 
  97      3FF1C8E3 
  97      823C8C63 
  97      9075
ARM GAS  C:\Users\Thomas\AppData\Local\Temp\ccgGhVHv.s 			page 7


  98 0120 B570CAAF 		.ascii	"\265p\312\257A\234\350\246\006%\313~\027\342e\224\354"
  98      419CE8A6 
  98      0625CB7E 
  98      17E26594 
  98      EC
  99 0131 33F35BE5 		.ascii	"3\363[\345\200\321\227^\235\031S\211\357f\237\031p\224"
  99      80D1975E 
  99      9D195389 
  99      EF669F19 
  99      7094
 100 0143 6F59FC58 		.ascii	"oY\374X\253\323\247\267#V\372\"D\247)(?\306\220\300"
 100      ABD3A7B7 
 100      2356FA22 
 100      44A72928 
 100      3FC690C0 
 101 0157 B808E5BB 		.ascii	"\270\010\345\273\237\243\003y_[\216\355\264w:*\200\011"
 101      9FA30379 
 101      5F5B8EED 
 101      B4773A2A 
 101      8009
 102 0169 062E69CB 		.ascii	"\006.i\313q\013mLIo\221\262\013E%\204\324\310\030\254"
 102      710B6D4C 
 102      496F91B2 
 102      0B452584 
 102      D4C818AC 
 103 017d 69997924 		.ascii	"i\231y$\330\326\020i\027?\017\007\377j\223=ST\272I5"
 103      D8D61069 
 103      173F0F07 
 103      FF6A933D 
 103      5354BA49 
 104 0192 F6BAA181 		.ascii	"\366\272\241\201\230\344\244\204\333R\234D\365\367\331"
 104      98E4A484 
 104      DB529C44 
 104      F5F7D9
 105 01a1 2F74F1E1 		.ascii	"/t\361\341\364:\317\303Zo\177\371\274cH-C\026\3637\341"
 105      F43ACFC3 
 105      5A6F7FF9 
 105      BC63482D 
 105      4316F337 
 106 01b6 0E9B3EA5 		.ascii	"\016\233>\245M\277\353\232\236\314T\247\366I\306\015"
 106      4DBFEB9A 
 106      9ECC54A7 
 106      F649C60D 
 107 01c6 DD69B4E3 		.ascii	"\335i\264\343\336\206vl\302}m\007\\\241x \216\004\335"
 107      DE86766C 
 107      C27D6D07 
 107      5CA17820 
 107      8E04DD
 108 01d9 32EBC341 		.ascii	"2\353\303AWw\210\303\352\213s?\364[\011\017\255\352"
 108      577788C3 
 108      EA8B733F 
 108      F45B090F 
 108      ADEA
 109 01eb 2E5D7E72 		.ascii	".]~rZ\255\021Z\370#tzU\350\374\266\377\3229\363\017"
 109      5AAD115A 
 109      F823747A 
 109      55E8FCB6 
ARM GAS  C:\Users\Thomas\AppData\Local\Temp\ccgGhVHv.s 			page 8


 109      FFD239F3 
 110 0200 9D0FB54E 		.ascii	"\235\017\265N\365[\347\254\350\014Q\031\226=\333\241"
 110      F55BE7AC 
 110      E80C5119 
 110      963DDBA1 
 111 0210 1B47F2E4 		.ascii	"\033G\362\344!O\235\223oo\217v\304\217\304{\016\036"
 111      214F9D93 
 111      6F6F8F76 
 111      C48FC47B 
 111      0E1E
 112 0222 8D1F8A75 		.ascii	"\215\037\212uv\037\353\351\212G#\235\335\373\367D#\273"
 112      761FEBE9 
 112      8A47239D 
 112      DDFBF744 
 112      23BB
 113 0234 62BB6391 		.ascii	"b\273c\221\003\355]\364\013\307PB\015"
 113      03ED5DF4 
 113      0BC75042 
 113      0D
 114              		.text
 115              		.section	.gnu.lto_P2_3_Wakeup.b9498746,"",%progbits
 116 0000 789C8D92 		.ascii	"x\234\215\222\317KTQ\024\307\317\367\334\347{\343\350"
 116      CF4B5451 
 116      14C7CFF7 
 116      DCE77BE3 
 116      E8
 117 0011 225A898B 		.ascii	"\"Z\211\213\331D\271\010\015\222\376\202\026A\020L\270"
 117      D944B908 
 117      0D92FE82 
 117      1641104C 
 117      B8
 118 0022 1D18C266 		.ascii	"\035\030\302f\233 \265\034\274O_0`?l\230Ea\226\233\312"
 118      9B20B51C 
 118      BC4F5F30 
 118      603F6C98 
 118      4561969B 
 119 0037 1AD3C6CA 		.ascii	"\032\323\306\312j\334<$Z\030d\322/\032\3026\006\265"
 119      6ADC3C24 
 119      5A1864D2 
 119      2F1AC236 
 119      06B5
 120 0049 731A481E 		.ascii	"s\032H\036ev\356\235\254\034\013zp\357y\367\334s\277"
 120      6576EE9D 
 120      AC1C0B7A 
 120      70EF79F7 
 120      DC73BF
 121 005c DFCF7DEF 		.ascii	"\337\317}\357(\332\376t\313\2500\321n\211h\"\360\310"
 121      28DAFE74 
 121      CBA830D1 
 121      6E896822 
 121      F0C8
 122 006e 33223FC6 		.ascii	"3\"?\306\254\312\011\322q\347\365>\322\255\012N=\355"
 122      ACCA09D2 
 122      71E7F53E 
 122      D2AD0A4E 
 122      3DED
 123 0080 00E68540 		.ascii	"\000\346\205@\003\254\034\014\340\023W\031#a\361bK\307"
ARM GAS  C:\Users\Thomas\AppData\Local\Temp\ccgGhVHv.s 			page 9


 123      03AC1C0C 
 123      E0135719 
 123      2361F162 
 123      4BC7
 124 0092 35ADF5EA 		.ascii	"5\255\365\352\340R\333\351\266H\364j\\\327\307\015t"
 124      E052DBE9 
 124      B648F46A 
 124      5CD7C70D 
 124      74
 125 00a3 90D45483 		.ascii	"\220\324T\203\3657-n 5;\352{\230\200\013\211\323;C\275"
 125      F5372D6E 
 125      20353BEA 
 125      7B98800B 
 125      89D33B43 
 126 00b8 B1517B9C 		.ascii	"\261Q{\234\317\355\341f\207\"\206+\023{f\"Z\221a\034"
 126      CFEDE166 
 126      8722862B 
 126      137B6622 
 126      5A91611C 
 127 00cc 3FC842A2 		.ascii	"?\310B\242\252`p\266\272xt\213`X\210[\265\032\243\321"
 127      AA6070B6 
 127      BA78748B 
 127      6058885B 
 127      B51AA3D1 
 128 00e0 0937458D 		.ascii	"\0117E\215p\013\356\032\273\262w\345\305\271)\316~\325"
 128      700BEE1A 
 128      BBB277E5 
 128      C5B929CE 
 128      7ED5
 129 00f2 391D8B58 		.ascii	"9\035\213X\255\033\016\311\276_Y\\\212}d\311\330\345"
 129      AD1B0EC9 
 129      BE5F595C 
 129      8A7D64C9 
 129      D8E5
 130 0104 841F5CC6 		.ascii	"\204\037\\\306\030F}m\252\034\024\221\305$\332\355\336"
 130      18467D6D 
 130      AA1C1491 
 130      C524DAED 
 130      DE
 131 0115 F7C9F333 		.ascii	"\367\311\3633ngQ\304\307\257\252\210\233p[*?\213\216"
 131      6E6751C4 
 131      C7AFAA88 
 131      9B705B2A 
 131      3F8B8E
 132 0128 75C2143A 		.ascii	"u\302\024:\251\202\371<\214\245\224\017\347\302\347"
 132      A982F93C 
 132      8CA5940F 
 132      E7C2E7
 133 0137 9E517683 		.ascii	"\236Qv\203\005_;[\314\\+8\274|)R\306\254\340\213\231"
 133      055F3B5B 
 133      CC5C2B38 
 133      BC7C2952 
 133      C6ACE08B 
 134 014c 8769B4E3 		.ascii	"\207i\264\343\2161CI\224\205\232\314\225/\274D\375\022"
 134      8E314349 
 134      94859ACC 
 134      952FBC44 
ARM GAS  C:\Users\Thomas\AppData\Local\Temp\ccgGhVHv.s 			page 10


 134      FD12
 135 015e DE3F2FD1 		.ascii	"\336?/\321H=\263\215z\257\341\275ky\361\223\367^\003"
 135      483DB38D 
 135      7AAFE1BD 
 135      6B79F193 
 135      F75E03
 136 0171 EF97D5F9 		.ascii	"\357\227\325\371ol\341\012\233\274\225\361\247g\371"
 136      6F6CE10A 
 136      9BBC95F1 
 136      A767F9
 137 0180 0FC0FBBF 		.ascii	"\017\300\373\277\000g-\240g\001KO\362\236\371\007k\354"
 137      00672DA0 
 137      67014B4F 
 137      F29EF907 
 137      6BEC
 138 0192 FC37E183 		.ascii	"\3747\341\203\277\021\306\360\320\022\332\026y$x\257"
 138      BF11C6F0 
 138      D012DA16 
 138      792478AF 
 139 01a2 10BC1D4A 		.ascii	"\020\274\035J\374\326\366\257\317\235\261\237T\232\007"
 139      FCD6F6AF 
 139      CF9DB19F 
 139      549A07
 140 01b1 65739C4C 		.ascii	"es\234L{(*'\324;\014\205c\013\255\246\230\0321\232k"
 140      7B282A27 
 140      D43B0C85 
 140      630BADA6 
 140      981A319A 
 141 01c6 461373C8 		.ascii	"F\023s\310Jg\305\355\031\307\266\3242\374\260t\330\236"
 141      4A67C5ED 
 141      19C7B6D4 
 141      32FCB074 
 141      D89E
 142 01d8 21D37030 		.ascii	"!\323p0Y)\335\325\225:\2249\221\351?v2s<\335\323w\252"
 142      5929DDD5 
 142      953A9439 
 142      91E93F76 
 142      32733CDD 
 143 01ef BF37934A 		.ascii	"\2777\223J\366\364\035<\220J\356Ow\247\223G\272z\351"
 143      F6F41D3C 
 143      904AEE4F 
 143      77A79347 
 143      BA7AE9
 144 0202 07B5390B 		.ascii	"\007\2659\013\344"
 144      E4
 145              		.text
 146              		.section	.gnu.lto_.symbol_nodes.b9498746,"",%progbits
 147 0000 789C55C8 		.ascii	"x\234U\310A\015\2000\020\005\321\351n\267A\020\332\270"
 147      410D8030 
 147      1005D1E9 
 147      6EB74110 
 147      DAB8
 148 0012 FE4A4001 		.ascii	"\376J@\001\251\011\034p\306\003\011:\010$p(s{\343\300"
 148      A9091C70 
 148      C603093A 
 148      08247028 
 148      737BE3C0 
ARM GAS  C:\Users\Thomas\AppData\Local\Temp\ccgGhVHv.s 			page 11


 149 0026 C49725C1 		.ascii	"\304\227%\301\274\203\304\322\006\002\232\311\315\224"
 149      BC83C4D2 
 149      06029AC9 
 149      CD94
 150 0034 FA6D2EFB 		.ascii	"\372m.\3739\313{\247P~M\255\017\213\242\243{\260\035"
 150      39CB7BA7 
 150      507E4DAD 
 150      0F8BA2A3 
 150      7BB01D
 151 0047 57F25C38 		.ascii	"W\362\\8\327\221\033\317\310\035\246"
 151      D7911BCF 
 151      C81DA6
 152              		.text
 153              		.section	.gnu.lto_.refs.b9498746,"",%progbits
 154 0000 789C25C8 		.ascii	"x\234%\310\321\011\000 \014\304\320\244WA\\\304\375"
 154      D1090020 
 154      0CC4D0A4 
 154      57415CC4 
 154      FD
 155 0011 371469BE 		.ascii	"7\024i\276\036\011p\231\012-\355\372\300$\272t\353I"
 155      1E097099 
 155      0A2DEDFA 
 155      C024BA74 
 155      EB49
 156 0023 CFC2C503 		.ascii	"\317\302\305\003\015{\000w"
 156      0D7B0077 
 157              		.text
 158              		.section	.gnu.lto_.decls.b9498746,"",%progbits
 159 0000 789C8D54 		.ascii	"x\234\215TmL\223W\024~Oo\277\251\325\314D\015\277\032"
 159      6D4C9357 
 159      147E4F6F 
 159      BFA9D5CC 
 159      440DBF1A 
 160 0014 5CC8B618 		.ascii	"\\\310\266\030#.#\376Y\246\222\305,fK#\232\375\220\204"
 160      232E23FE 
 160      59A692C5 
 160      2C664B23 
 160      9AFD9084 
 161 0028 217BC78C 		.ascii	"!{\307\214\2062\204%\376\273B\224\216\211\321f\033\025"
 161      86328425 
 161      FEBB4294 
 161      8E89D166 
 161      1B15
 162 003a 9DAB4144 		.ascii	"\235\253AD\024+Ha\324\217Q\235\037|\014Ae(2\020+d:\277"
 162      142B4861 
 162      D48F519D 
 162      1F7C0C41 
 162      65283210 
 163 0052 EAD4891F 		.ascii	"\352\324\211\037Yw\356y\337\332\267\006\23479\355\275"
 163      5977EE79 
 163      DFDAB706 
 163      9C3739ED 
 163      BD
 164 0063 F77DCE73 		.ascii	"\367}\316s\236{\356\271\207I\222\024\000I\212\342\350"
 164      9E7BEEB9 
 164      87499214 
 164      00498AE2 
ARM GAS  C:\Users\Thomas\AppData\Local\Temp\ccgGhVHv.s 			page 12


 164      E8
 165 0074 3149520A 		.ascii	"1IR\012\316\015\270\347\224\342\303\210V\217\346Gk@"
 165      CE0DB8E7 
 165      94E2C388 
 165      568FE647 
 165      6B40
 166 0086 3B2C7CD0 		.ascii	";,|\320Z\320\020.]\220\022\207\300\232T\016\007\332"
 166      5AD0102E 
 166      5D901287 
 166      C09A540E 
 166      07DA
 167 0098 65B44B68 		.ascii	"e\264Kh\003h=hg\320th\035h\335*G\375$\\\376\227\270"
 167      03683D68 
 167      67D07468 
 167      1D68DD2A 
 167      47FD245C 
 168 00af B41C57D0 		.ascii	"\264\034W\320\372'\340\362O\302%\264\333U\256\031hC"
 168      FA27E0F2 
 168      4FC225B4 
 168      DB55AE19 
 168      6843
 169 00c1 2AE7285A 		.ascii	"*\347(ZX\303}\034m\014\255N\243]\304ch\235\232XL\345"
 169      58C37D1C 
 169      6D0CAD4E 
 169      A35DC463 
 169      689D9A58 
 170 00d7 0CBC42BF 		.ascii	"\014\274B\277\310U\222&\346dg\320\306d\232\030\235\352"
 170      C8559226 
 170      E66467D0 
 170      C6649A18 
 170      9DEA
 171 00e9 FAB07AAE 		.ascii	"\372\260z\256\311r~_\007A\377\303\356\244\033:\260["
 171      C9727E5F 
 171      0741FFC3 
 171      EEA41B3A 
 171      B05B
 172 00fb 1D6279C4 		.ascii	"\035by\304\323\3565\342\322f\325\213\345\321g\341>\375"
 172      D3EE35E2 
 172      D266D58B 
 172      E5D167E1 
 172      3EFD
 173 010d CCEF398E 		.ascii	"\314\3579\216\255\245|\232\036\2343\240\026\222a\037"
 173      ADA57C9A 
 173      1E9C33A0 
 173      1692611F 
 174 011d 2423631D 		.ascii	"$#c\035\314\304\337\225z\205\351\002\35740\035\210i"
 174      CCC4DF95 
 174      7A85E902 
 174      EF34301D 
 174      8869
 175 012f B5F75A9F 		.ascii	"\265\367Z\237u\316~\364r\363P\257.\036\355A\260\342"
 175      75CE7EF4 
 175      72F350AF 
 175      2E1EED41 
 175      B0E2
 176 0141 F454C72E 		.ascii	"\364T\307.>\322\020\011\366\015\330x;\017E\243m\034"
 176      3ED21009 
ARM GAS  C:\Users\Thomas\AppData\Local\Temp\ccgGhVHv.s 			page 13


 176      F60DD878 
 176      3B0F45A3 
 176      6D1C
 177 0153 880BF603 		.ascii	"\210\013\366\003\203\0030G`\305\234\234\240\036\034"
 177      83033047 
 177      60C59C9C 
 177      A01E1C
 178 0162 E8D83874 		.ascii	"\350\3308t`\330\316\336'\366\252\215M\021+\221\370v"
 178      60D8CEDE 
 178      27F6AA8D 
 178      4D112B91 
 178      F876
 179 0174 561B6314 		.ascii	"V\033c\024\304pP\303p0\306\340'\206\255\025[j\255\314"
 179      C47050C3 
 179      7030C6E0 
 179      2786AD15 
 179      5B6AADCC 
 180 0188 490C7BF7 		.ascii	"I\014{\367=\2573\"\203\257\3017\2402|@\376\2074\376"
 180      3DAF3322 
 180      83AFC137 
 180      A0327C40 
 180      FE8734FE 
 181 019c 8762FE0D 		.ascii	"\207b\376\015\344\037\270y\347#\266\222\334G\333\002"
 181      E41FB879 
 181      E723B692 
 181      DC47DB02 
 182 01ac 2D56C5DD 		.ascii	"-V\305\335]\243uo\324\2707\306\334\017\223\373\330\371"
 182      5DA3756F 
 182      D4B837C6 
 182      DC0F93FB 
 182      D8F9
 183 01be 068F9DE5 		.ascii	"\006\217\235\345\221\177\375\243\256=\026q\000\036\271"
 183      917FFDA3 
 183      AE3D1671 
 183      001EB9
 184 01cd 793DBC60 		.ascii	"y=\274`;\337]\302\377\215F\325,4iH\232b$\001\"\351\360"
 184      3BDF5DC2 
 184      FF8D46D5 
 184      2C346948 
 184      9A622401 
 185 01e4 8C9B9907 		.ascii	"\214\233\231\007\210\344\351O\321J\023\221\370*\252"
 185      88E4E94F 
 185      D14A1391 
 185      F82AAA
 186 01f3 3739342A 		.ascii	"794*\2325\004\3151\202\026\"\270\372\370\352I\023\335"
 186      9A3504CD 
 186      31821622 
 186      B8FAF8EA 
 186      4913DD
 187 0206 F63CC1E1 		.ascii	"\366<\301\341\331\330\332j\247\3336\212e$x\366M\266"
 187      D9D8DA6A 
 187      A7DB368A 
 187      652478F6 
 187      4DB6
 188 0218 4BA1EF6F 		.ascii	"K\241\357o++3\263Fe\261a\357\321\315\302m\206\225nq"
 188      2B2B33B3 
 188      4665B161 
ARM GAS  C:\Users\Thomas\AppData\Local\Temp\ccgGhVHv.s 			page 14


 188      EFD1CDC2 
 188      6D86956E 
 189 022d 4B57D509 		.ascii	"KW\325\011F\313\250\370\254\033\030\370\356\011\003"
 189      46CBA8F8 
 189      AC1B18F8 
 189      EE0903
 190 023c 6BAA9BF3 		.ascii	"k\252\233\363\022\036\361p6K\2029\311\360v\262\004\277"
 190      121EF170 
 190      364B8239 
 190      C9F076B2 
 190      04BF
 191 024e 402AC248 		.ascii	"@*\302H\016\034\305\3029\206\205\263\007\353\"r\357"
 191      0E1CC5C2 
 191      398685B3 
 191      07EB2272 
 191      EF
 192 025f F4FEA5A5 		.ascii	"\364\376\245\245|!\034\007+\034y!\230\"\250\265\322"
 192      7C211C07 
 192      2B1C7921 
 192      9822A8B5 
 192      D2
 193 0270 E6BFE835 		.ascii	"\346\277\3505\263AEAWx\374\201\215\204O\243\022\270"
 193      B3414541 
 193      5778FC81 
 193      8D844FA3 
 193      12B8
 194 0282 34F69091 		.ascii	"4\366\220\221p\235X\376\370\367\335c\026\366g\242X\207"
 194      709D58FE 
 194      F8F7DD63 
 194      16F667A2 
 194      5887
 195 0294 22B6F2D6 		.ascii	"\"\266\362\326x\300L\313h\224\011\265\317\256\373k\215"
 195      78C04CCB 
 195      689409B5 
 195      CFAEFB6B 
 195      8D
 196 02a5 906A1532 		.ascii	"\220j\0252|\007\246\000\234A\011'\343\022\034\252\004"
 196      7C07A600 
 196      9C410927 
 196      E3121CAA 
 196      04
 197 02b6 3A0D2FE5 		.ascii	":\015/\345\206}v\011B\250\375\004j\207\323x \207z\240"
 197      867D7609 
 197      42A8FD04 
 197      6A87D378 
 197      20877AA0 
 198 02ca 5F71F314 		.ascii	"_q\363\024nb\224c\235\355\367M\354\256\242\340yki\251"
 198      6E629463 
 198      9DEDF74D 
 198      ECAEA2E0 
 198      796B69A9 
 199 02de 8E3DA585 		.ascii	"\216=\245\205\341TOs\205\036RR\246\247\246\370\2201"
 199      E1544F73 
 199      851E5252 
 199      A6A7A6F8 
 199      9031
 200 02f0 72B37487 		.ascii	"r\263t\207\335\313}'\224\270g1n\027L\217\363\277%\036"
ARM GAS  C:\Users\Thomas\AppData\Local\Temp\ccgGhVHv.s 			page 15


 200      DDCB7D27 
 200      94B86731 
 200      6E174C8F 
 200      F3BF251E 
 201 0304 56483C2F 		.ascii	"VH</I\300G\376j\311\012m`\224\2466\025\253\246\226\220"
 201      49C047FE 
 201      6AC90A6D 
 201      6094A636 
 201      15ABA696 
 202 0319 EF08E036 		.ascii	"\357\010\3406z\237\234/,\224\340g$j\245\327)\240(\023"
 202      7A9F9C2F 
 202      2C94E067 
 202      246AA5D7 
 202      29A02813 
 203 032d 7E43C59D 		.ascii	"~C\305\235\220\002\035h\335\220Bg\023g\037\2711\337"
 203      90021D68 
 203      DD904267 
 203      13671FB9 
 203      31DF
 204 033f 2C4052AC 		.ascii	",@R\254X\224AQ\357\264~\026*a\244\260}B\205\265\244"
 204      58944151 
 204      EFB47E16 
 204      2A61A4B0 
 204      7D4285B5 
 205 0354 10B3F9F4 		.ascii	"\020\263\371\364\221\257\004 u:1>3\002\364 6\030\317"
 205      91AF0420 
 205      753A313E 
 205      3302F420 
 205      3618CF
 206 0367 A6084063 		.ascii	"\246\010@c\"\221p\016\265\275J'&\263iG\357m3\333\244"
 206      2291700E 
 206      B5BD4A27 
 206      26B36947 
 206      EF6D33DB 
 207 037c 3496EDDD 		.ascii	"4\226\355\335\203\215\266\364\000w\373fQ \201\027e%"
 207      838DB6F4 
 207      0077FB66 
 207      51208117 
 207      6525
 208 038e 7CC46D74 		.ascii	"|\304mt+\377\364H#={\331\354\335x\307\221\340\345\333"
 208      2BFFF448 
 208      233D7BD9 
 208      ECDD78C7 
 208      91E0E5DB 
 209 03a2 B081FBF0 		.ascii	"\260\201\373\3606\305\023!\307^E\241&]\275\342\245\300"
 209      36C51321 
 209      C75E45A1 
 209      265DBDE2 
 209      A5C0
 210 03b4 794897E0 		.ascii	"yH\227\340\002\314\026\235\361\334\3400c\036%p\304]"
 210      02CC169D 
 210      F1DCE030 
 210      631E2570 
 210      C45D
 211 03c6 714B6F75 		.ascii	"qKou\213zx\315\222\320U\036\034\252\002\265\316\"\367"
 211      8B7A78CD 
 211      92D0551E 
ARM GAS  C:\Users\Thomas\AppData\Local\Temp\ccgGhVHv.s 			page 16


 211      1CAA02B5 
 211      CE22F7
 212 03d9 6ADA6C1D 		.ascii	"j\332l\035\234\233\241\037Sz1\236\236>\210W\333\004"
 212      9C9BA11F 
 212      537A319E 
 212      9E3E8857 
 212      DB04
 213 03eb D4BF4F5C 		.ascii	"\324\277O\\m\233o<\252N\212\251q\277\226K\335\311\340"
 213      6D9B6F3C 
 213      AA4E8AA9 
 213      71BF964B 
 213      DDC9E0
 214 03fe CE245BB9 		.ascii	"\316$[\271\250i\354\344\226v;\\B%\361^~\031l\324'\360"
 214      A869ECE4 
 214      96763B5C 
 214      4225F15E 
 214      7E196CD4 
 215 0414 1FD1E3E7 		.ascii	"\037\321\343\347\313jL\011h\221\2648z@E\017\020\272"
 215      CB6A4C09 
 215      6891B438 
 215      7A40450F 
 215      10BA
 216 0426 66DB1996 		.ascii	"f\333\031\226\000\356O\240\276\242\202\257\020\270\362"
 216      00EE4FA0 
 216      BEA282AF 
 216      10B8F2
 217 0435 87AE9D26 		.ascii	"\207\256\235&\346\245\264\352G\237\014?6A\262%5\331"
 217      E6A5B4EA 
 217      479F0C3F 
 217      3641B225 
 217      35D9
 218 0447 8BB91902 		.ascii	"\213\271\031\002\213TF=\244d\353\264\257^\364\220a<"
 218      8B54463D 
 218      A464EBB4 
 218      AF5EF490 
 218      613C
 219 0459 91F824C1 		.ascii	"\221\370$\301\037\310yU\355 nl\036\270\013\203j\207"
 219      1FC87955 
 219      ED206E6C 
 219      1EB80B83 
 219      6A87
 220 046b 538617F7 		.ascii	"S\206\027\367\025\"\361\203\341x\345\267{\314l\227r"
 220      1522F183 
 220      E178E5B7 
 220      7BCC6C97 
 220      72
 221 047c 8BCDFF94 		.ascii	"\213\315\377\224\007\247(y\373\3776\205W\330w\256\274"
 221      07A72879 
 221      FBFF3685 
 221      57D877AE 
 221      BC
 222 048d DFA234B6 		.ascii	"\337\2424\266\227=\256O\322\330|\317\323\314\020\306"
 222      973DAE4F 
 222      D2D87CCF 
 222      D3CC10C6 
 223 049d F38FC42F 		.ascii	"\363\217\304/\371\032\304\273\3327\341\252n[B\262\302"
 223      F91AC4BB 
ARM GAS  C:\Users\Thomas\AppData\Local\Temp\ccgGhVHv.s 			page 17


 223      DA37E1AA 
 223      6E5B42B2 
 223      C2
 224 04ae 09C91A55 		.ascii	"\011\311\032U\2235J\311\032\366\206\312\365\011h\321"
 224      93354AC9 
 224      1AF686CA 
 224      F50968D1 
 225 04be E0E3E831 		.ascii	"\340\343\3501\260\305\202\340T\232\352\234\237\375n"
 225      B0C582E0 
 225      549AEA9C 
 225      9FFD6E
 226 04cd 7666CED7 		.ascii	"vf\316\327r\206+\377\213\325y\306%\237\254pdH\263\347"
 226      72862BFF 
 226      8BD579C6 
 226      259FAC70 
 226      6448B3E7 
 227 04e1 662D91F3 		.ascii	"f-\221\363\345\302\234\"\371\363\354LWqa\256\234\345"
 227      E5C29C22 
 227      F9F3EC4C 
 227      577161AE 
 227      9CE5
 228 04f3 CC7465BC 		.ascii	"\314te\274\227Ex\347\307ss\2457h\272L^W\344*T\275\255"
 228      974578E7 
 228      C77373A5 
 228      3768BA4C 
 228      5E57E42A 
 229 050a 0ADB5A59 		.ascii	"\012\333ZY.H\242\351\2479k\344\342\002\213\262]\344"
 229      2E48A2E9 
 229      A7396BE4 
 229      E2028BB2 
 229      5DE4
 230 051c 2A70BC92 		.ascii	"*p\274\222w\356\227\222\342\366a~\316\252\265\262\022"
 230      77EE9792 
 230      E2F6617E 
 230      CEAAB5B2 
 230      12
 231 052d 60F1A28C 		.ascii	"`\361\242\214\245+\234\331\231\313\227\255\310Xn(^\235"
 231      A52B9CD9 
 231      99CB97AD 
 231      C8586E28 
 231      5E9D
 232 053f 5FB46072 		.ascii	"_\264`ru\271\353\213\326\027\310\353\004\221L\034\231"
 232      75B9EB8B 
 232      D617C8EB 
 232      04914C1C 
 232      99
 233 0550 4508320A 		.ascii	"E\0102\012\257\264\364\244ux\314\314\302E\363\226\311"
 233      AFB4F4A4 
 233      7578CCCC 
 233      C245F396 
 233      C9
 234 0561 79B1799A 		.ascii	"y\261y\232\230S\234U9\271k\212\013\014\205r^Z\272!{"
 234      98539C55 
 234      39B96B8A 
 234      0B0C8572 
 234      5E5ABA21 
 235 0576 B1CBB556 		.ascii	"\261\313\265V\217\363\005\377\001\254\"\343\331"
ARM GAS  C:\Users\Thomas\AppData\Local\Temp\ccgGhVHv.s 			page 18


 235      8FF305FF 
 235      01AC22E3 
 235      D9
 236              		.text
 237              		.section	.gnu.lto_.symtab.b9498746,"",%progbits
 238 0000 50325F33 		.ascii	"P2_3_SaveConfig\000\000\000\000\000\000\000\000\000"
 238      5F536176 
 238      65436F6E 
 238      66696700 
 238      00000000 
 239 0018 000000AC 		.ascii	"\000\000\000\254\000\000\000P2_3_RestoreConfig\000\000"
 239      00000050 
 239      325F335F 
 239      52657374 
 239      6F726543 
 240 0033 00000000 		.ascii	"\000\000\000\000\000\000\000\000\000\000\256\000\000"
 240      00000000 
 240      0000AE00 
 240      00
 241 0040 0050325F 		.ascii	"\000P2_3_Sleep\000\000\000\000\000\000\000\000\000\000"
 241      335F536C 
 241      65657000 
 241      00000000 
 241      00000000 
 242 0055 0000B000 		.ascii	"\000\000\260\000\000\000P2_3_Wakeup\000\000\000\000"
 242      00005032 
 242      5F335F57 
 242      616B6575 
 242      70000000 
 243 006a 00000000 		.ascii	"\000\000\000\000\000\000\000\000\262\000\000\000P2_"
 243      00000000 
 243      B2000000 
 243      50325F
 244 0079 335F5374 		.ascii	"3_Stop\000\000\002\000\000\000\000\000\000\000\000\000"
 244      6F700000 
 244      02000000 
 244      00000000 
 244      0000
 245 008b B4000000 		.ascii	"\264\000\000\000P2_3_Enable\000\000\002\000\000\000"
 245      50325F33 
 245      5F456E61 
 245      626C6500 
 245      00020000 
 246 00a0 00000000 		.ascii	"\000\000\000\000\000\000\266\000\000\000"
 246      0000B600 
 246      0000
 247              		.text
 248              		.section	.gnu.lto_.opts,"",%progbits
 249 0000 272D666E 		.ascii	"'-fno-trapv' '-mcpu=cortex-m3' '-mthumb' '-g' '-O3'"
 249      6F2D7472 
 249      61707627 
 249      20272D6D 
 249      6370753D 
 250 0033 20272D66 		.ascii	" '-ffunction-sections' '-finline-functions' '-flto'"
 250      66756E63 
 250      74696F6E 
 250      2D736563 
ARM GAS  C:\Users\Thomas\AppData\Local\Temp\ccgGhVHv.s 			page 19


 250      74696F6E 
 251 0066 20272D66 		.ascii	" '-ffat-lto-objects'\000"
 251      6661742D 
 251      6C746F2D 
 251      6F626A65 
 251      63747327 
 252              		.text
 253              		.cfi_sections	.debug_frame
 254              		.section	.text.P2_3_SaveConfig,"ax",%progbits
 255              		.align	2
 256              		.global	P2_3_SaveConfig
 257              		.thumb
 258              		.thumb_func
 259              		.type	P2_3_SaveConfig, %function
 260              	P2_3_SaveConfig:
 261              	.LFB0:
 262              		.file 1 ".\\Generated_Source\\PSoC5\\P2_3_PM.c"
   1:.\Generated_Source\PSoC5/P2_3_PM.c **** /*******************************************************************************
   2:.\Generated_Source\PSoC5/P2_3_PM.c **** * File Name: P2_3_PM.c
   3:.\Generated_Source\PSoC5/P2_3_PM.c **** * Version 2.30
   4:.\Generated_Source\PSoC5/P2_3_PM.c **** *
   5:.\Generated_Source\PSoC5/P2_3_PM.c **** * Description:
   6:.\Generated_Source\PSoC5/P2_3_PM.c **** *  This file provides the API source code for sleep mode support for Shift
   7:.\Generated_Source\PSoC5/P2_3_PM.c **** *  Register component.
   8:.\Generated_Source\PSoC5/P2_3_PM.c **** *
   9:.\Generated_Source\PSoC5/P2_3_PM.c **** * Note:
  10:.\Generated_Source\PSoC5/P2_3_PM.c **** *
  11:.\Generated_Source\PSoC5/P2_3_PM.c **** ********************************************************************************
  12:.\Generated_Source\PSoC5/P2_3_PM.c **** * Copyright 2008-2013, Cypress Semiconductor Corporation.  All rights reserved.
  13:.\Generated_Source\PSoC5/P2_3_PM.c **** * You may use this file only in accordance with the license, terms, conditions,
  14:.\Generated_Source\PSoC5/P2_3_PM.c **** * disclaimers, and limitations in the end user license agreement accompanying
  15:.\Generated_Source\PSoC5/P2_3_PM.c **** * the software package with which this file was provided.
  16:.\Generated_Source\PSoC5/P2_3_PM.c **** *******************************************************************************/
  17:.\Generated_Source\PSoC5/P2_3_PM.c **** 
  18:.\Generated_Source\PSoC5/P2_3_PM.c **** #include "P2_3.h"
  19:.\Generated_Source\PSoC5/P2_3_PM.c **** 
  20:.\Generated_Source\PSoC5/P2_3_PM.c **** static P2_3_BACKUP_STRUCT P2_3_backup =
  21:.\Generated_Source\PSoC5/P2_3_PM.c **** {
  22:.\Generated_Source\PSoC5/P2_3_PM.c ****     P2_3_DISABLED,
  23:.\Generated_Source\PSoC5/P2_3_PM.c **** 
  24:.\Generated_Source\PSoC5/P2_3_PM.c ****     ((uint16) P2_3_DEFAULT_A0),
  25:.\Generated_Source\PSoC5/P2_3_PM.c ****     ((uint16) P2_3_DEFAULT_A1),
  26:.\Generated_Source\PSoC5/P2_3_PM.c **** 
  27:.\Generated_Source\PSoC5/P2_3_PM.c ****     #if(CY_UDB_V0)
  28:.\Generated_Source\PSoC5/P2_3_PM.c ****         ((uint16) P2_3_INT_SRC),
  29:.\Generated_Source\PSoC5/P2_3_PM.c ****     #endif /* (CY_UDB_V0) */
  30:.\Generated_Source\PSoC5/P2_3_PM.c **** };
  31:.\Generated_Source\PSoC5/P2_3_PM.c **** 
  32:.\Generated_Source\PSoC5/P2_3_PM.c **** 
  33:.\Generated_Source\PSoC5/P2_3_PM.c **** /*******************************************************************************
  34:.\Generated_Source\PSoC5/P2_3_PM.c **** * Function Name: P2_3_SaveConfig
  35:.\Generated_Source\PSoC5/P2_3_PM.c **** ********************************************************************************
  36:.\Generated_Source\PSoC5/P2_3_PM.c **** *
  37:.\Generated_Source\PSoC5/P2_3_PM.c **** * Summary:
  38:.\Generated_Source\PSoC5/P2_3_PM.c **** *  Saves Shift Register configuration.
  39:.\Generated_Source\PSoC5/P2_3_PM.c **** *
  40:.\Generated_Source\PSoC5/P2_3_PM.c **** * Parameters:
ARM GAS  C:\Users\Thomas\AppData\Local\Temp\ccgGhVHv.s 			page 20


  41:.\Generated_Source\PSoC5/P2_3_PM.c **** *  None.
  42:.\Generated_Source\PSoC5/P2_3_PM.c **** *
  43:.\Generated_Source\PSoC5/P2_3_PM.c **** * Return:
  44:.\Generated_Source\PSoC5/P2_3_PM.c **** *  None.
  45:.\Generated_Source\PSoC5/P2_3_PM.c **** *
  46:.\Generated_Source\PSoC5/P2_3_PM.c **** * Reentrant:
  47:.\Generated_Source\PSoC5/P2_3_PM.c **** *  No.
  48:.\Generated_Source\PSoC5/P2_3_PM.c **** *
  49:.\Generated_Source\PSoC5/P2_3_PM.c **** *******************************************************************************/
  50:.\Generated_Source\PSoC5/P2_3_PM.c **** void P2_3_SaveConfig(void) 
  51:.\Generated_Source\PSoC5/P2_3_PM.c **** {
 263              		.loc 1 51 0
 264              		.cfi_startproc
 265              		@ args = 0, pretend = 0, frame = 0
 266              		@ frame_needed = 0, uses_anonymous_args = 0
 267              		@ link register save eliminated.
  52:.\Generated_Source\PSoC5/P2_3_PM.c ****     /* Store working registers A0 and A1 */
  53:.\Generated_Source\PSoC5/P2_3_PM.c ****     P2_3_backup.saveSrA0Reg   = CY_GET_REG16(P2_3_SHIFT_REG_LSB_PTR);
 268              		.loc 1 53 0
 269 0000 034B     		ldr	r3, .L2
  54:.\Generated_Source\PSoC5/P2_3_PM.c ****     P2_3_backup.saveSrA1Reg   = CY_GET_REG16(P2_3_SHIFT_REG_VALUE_LSB_PTR);
 270              		.loc 1 54 0
 271 0002 044A     		ldr	r2, .L2+4
  53:.\Generated_Source\PSoC5/P2_3_PM.c ****     P2_3_backup.saveSrA1Reg   = CY_GET_REG16(P2_3_SHIFT_REG_VALUE_LSB_PTR);
 272              		.loc 1 53 0
 273 0004 1988     		ldrh	r1, [r3]
 274 0006 044B     		ldr	r3, .L2+8
 275              		.loc 1 54 0
 276 0008 1288     		ldrh	r2, [r2]
  53:.\Generated_Source\PSoC5/P2_3_PM.c ****     P2_3_backup.saveSrA1Reg   = CY_GET_REG16(P2_3_SHIFT_REG_VALUE_LSB_PTR);
 277              		.loc 1 53 0
 278 000a 5980     		strh	r1, [r3, #2]	@ movhi
 279              		.loc 1 54 0
 280 000c 9A80     		strh	r2, [r3, #4]	@ movhi
 281 000e 7047     		bx	lr
 282              	.L3:
 283              		.align	2
 284              	.L2:
 285 0010 04650040 		.word	1073767684
 286 0014 14650040 		.word	1073767700
 287 0018 00000000 		.word	.LANCHOR0
 288              		.cfi_endproc
 289              	.LFE0:
 290              		.size	P2_3_SaveConfig, .-P2_3_SaveConfig
 291              		.section	.text.P2_3_RestoreConfig,"ax",%progbits
 292              		.align	2
 293              		.global	P2_3_RestoreConfig
 294              		.thumb
 295              		.thumb_func
 296              		.type	P2_3_RestoreConfig, %function
 297              	P2_3_RestoreConfig:
 298              	.LFB1:
  55:.\Generated_Source\PSoC5/P2_3_PM.c **** 
  56:.\Generated_Source\PSoC5/P2_3_PM.c ****     #if(CY_UDB_V0)
  57:.\Generated_Source\PSoC5/P2_3_PM.c ****         P2_3_backup.saveSrIntMask = P2_3_SR_STATUS_MASK;
  58:.\Generated_Source\PSoC5/P2_3_PM.c ****     #endif /* (CY_UDB_V0) */
  59:.\Generated_Source\PSoC5/P2_3_PM.c **** }
ARM GAS  C:\Users\Thomas\AppData\Local\Temp\ccgGhVHv.s 			page 21


  60:.\Generated_Source\PSoC5/P2_3_PM.c **** 
  61:.\Generated_Source\PSoC5/P2_3_PM.c **** 
  62:.\Generated_Source\PSoC5/P2_3_PM.c **** /*******************************************************************************
  63:.\Generated_Source\PSoC5/P2_3_PM.c **** * Function Name: P2_3_RestoreConfig
  64:.\Generated_Source\PSoC5/P2_3_PM.c **** ********************************************************************************
  65:.\Generated_Source\PSoC5/P2_3_PM.c **** *
  66:.\Generated_Source\PSoC5/P2_3_PM.c **** * Summary:
  67:.\Generated_Source\PSoC5/P2_3_PM.c **** *  Restores Shift Register configuration.
  68:.\Generated_Source\PSoC5/P2_3_PM.c **** *
  69:.\Generated_Source\PSoC5/P2_3_PM.c **** * Parameters:
  70:.\Generated_Source\PSoC5/P2_3_PM.c **** *  None.
  71:.\Generated_Source\PSoC5/P2_3_PM.c **** *
  72:.\Generated_Source\PSoC5/P2_3_PM.c **** * Return:
  73:.\Generated_Source\PSoC5/P2_3_PM.c **** *  None.
  74:.\Generated_Source\PSoC5/P2_3_PM.c **** *
  75:.\Generated_Source\PSoC5/P2_3_PM.c **** *******************************************************************************/
  76:.\Generated_Source\PSoC5/P2_3_PM.c **** void P2_3_RestoreConfig(void) 
  77:.\Generated_Source\PSoC5/P2_3_PM.c **** {
 299              		.loc 1 77 0
 300              		.cfi_startproc
 301              		@ args = 0, pretend = 0, frame = 0
 302              		@ frame_needed = 0, uses_anonymous_args = 0
 303              		@ link register save eliminated.
  78:.\Generated_Source\PSoC5/P2_3_PM.c ****     /* Restore working registers A0 and A1 */
  79:.\Generated_Source\PSoC5/P2_3_PM.c ****     CY_SET_REG16(P2_3_SHIFT_REG_LSB_PTR, P2_3_backup.saveSrA0Reg);
 304              		.loc 1 79 0
 305 0000 034B     		ldr	r3, .L5
 306 0002 0449     		ldr	r1, .L5+4
  80:.\Generated_Source\PSoC5/P2_3_PM.c ****     CY_SET_REG16(P2_3_SHIFT_REG_VALUE_LSB_PTR, P2_3_backup.saveSrA1Reg);
 307              		.loc 1 80 0
 308 0004 9A88     		ldrh	r2, [r3, #4]
  79:.\Generated_Source\PSoC5/P2_3_PM.c ****     CY_SET_REG16(P2_3_SHIFT_REG_VALUE_LSB_PTR, P2_3_backup.saveSrA1Reg);
 309              		.loc 1 79 0
 310 0006 5888     		ldrh	r0, [r3, #2]
 311              		.loc 1 80 0
 312 0008 034B     		ldr	r3, .L5+8
  79:.\Generated_Source\PSoC5/P2_3_PM.c ****     CY_SET_REG16(P2_3_SHIFT_REG_VALUE_LSB_PTR, P2_3_backup.saveSrA1Reg);
 313              		.loc 1 79 0
 314 000a 0880     		strh	r0, [r1]	@ movhi
 315              		.loc 1 80 0
 316 000c 1A80     		strh	r2, [r3]	@ movhi
 317 000e 7047     		bx	lr
 318              	.L6:
 319              		.align	2
 320              	.L5:
 321 0010 00000000 		.word	.LANCHOR0
 322 0014 04650040 		.word	1073767684
 323 0018 14650040 		.word	1073767700
 324              		.cfi_endproc
 325              	.LFE1:
 326              		.size	P2_3_RestoreConfig, .-P2_3_RestoreConfig
 327              		.section	.text.P2_3_Sleep,"ax",%progbits
 328              		.align	2
 329              		.global	P2_3_Sleep
 330              		.thumb
 331              		.thumb_func
 332              		.type	P2_3_Sleep, %function
ARM GAS  C:\Users\Thomas\AppData\Local\Temp\ccgGhVHv.s 			page 22


 333              	P2_3_Sleep:
 334              	.LFB2:
  81:.\Generated_Source\PSoC5/P2_3_PM.c **** 
  82:.\Generated_Source\PSoC5/P2_3_PM.c ****     #if(CY_UDB_V0)
  83:.\Generated_Source\PSoC5/P2_3_PM.c ****         P2_3_SR_STATUS_MASK = ((uint8) P2_3_backup.saveSrIntMask);
  84:.\Generated_Source\PSoC5/P2_3_PM.c ****     #endif /* (CY_UDB_V0) */
  85:.\Generated_Source\PSoC5/P2_3_PM.c **** }
  86:.\Generated_Source\PSoC5/P2_3_PM.c **** 
  87:.\Generated_Source\PSoC5/P2_3_PM.c **** 
  88:.\Generated_Source\PSoC5/P2_3_PM.c **** /*******************************************************************************
  89:.\Generated_Source\PSoC5/P2_3_PM.c **** * Function Name: P2_3_Sleep
  90:.\Generated_Source\PSoC5/P2_3_PM.c **** ********************************************************************************
  91:.\Generated_Source\PSoC5/P2_3_PM.c **** *
  92:.\Generated_Source\PSoC5/P2_3_PM.c **** * Summary:
  93:.\Generated_Source\PSoC5/P2_3_PM.c **** *  Prepare the component to enter a Sleep mode.
  94:.\Generated_Source\PSoC5/P2_3_PM.c **** *
  95:.\Generated_Source\PSoC5/P2_3_PM.c **** * Parameters:
  96:.\Generated_Source\PSoC5/P2_3_PM.c **** *  None.
  97:.\Generated_Source\PSoC5/P2_3_PM.c **** *
  98:.\Generated_Source\PSoC5/P2_3_PM.c **** * Return:
  99:.\Generated_Source\PSoC5/P2_3_PM.c **** *  None.
 100:.\Generated_Source\PSoC5/P2_3_PM.c **** *
 101:.\Generated_Source\PSoC5/P2_3_PM.c **** * Reentrant:
 102:.\Generated_Source\PSoC5/P2_3_PM.c **** *  No.
 103:.\Generated_Source\PSoC5/P2_3_PM.c **** *
 104:.\Generated_Source\PSoC5/P2_3_PM.c **** *******************************************************************************/
 105:.\Generated_Source\PSoC5/P2_3_PM.c **** void P2_3_Sleep(void) 
 106:.\Generated_Source\PSoC5/P2_3_PM.c **** {
 335              		.loc 1 106 0
 336              		.cfi_startproc
 337              		@ args = 0, pretend = 0, frame = 0
 338              		@ frame_needed = 0, uses_anonymous_args = 0
 339 0000 10B5     		push	{r4, lr}
 340              		.cfi_def_cfa_offset 8
 341              		.cfi_offset 4, -8
 342              		.cfi_offset 14, -4
 107:.\Generated_Source\PSoC5/P2_3_PM.c ****     P2_3_backup.enableState = ((uint8) P2_3_IS_ENABLED);
 343              		.loc 1 107 0
 344 0002 074B     		ldr	r3, .L9
 345 0004 074C     		ldr	r4, .L9+4
 346 0006 1B78     		ldrb	r3, [r3]	@ zero_extendqisi2
 347 0008 03F00103 		and	r3, r3, #1
 348 000c 2370     		strb	r3, [r4]
 108:.\Generated_Source\PSoC5/P2_3_PM.c **** 
 109:.\Generated_Source\PSoC5/P2_3_PM.c ****     P2_3_Stop();
 349              		.loc 1 109 0
 350 000e FFF7FEFF 		bl	P2_3_Stop
 351              	.LVL0:
 352              	.LBB6:
 353              	.LBB7:
  53:.\Generated_Source\PSoC5/P2_3_PM.c ****     P2_3_backup.saveSrA1Reg   = CY_GET_REG16(P2_3_SHIFT_REG_VALUE_LSB_PTR);
 354              		.loc 1 53 0
 355 0012 054A     		ldr	r2, .L9+8
  54:.\Generated_Source\PSoC5/P2_3_PM.c **** 
 356              		.loc 1 54 0
 357 0014 054B     		ldr	r3, .L9+12
  53:.\Generated_Source\PSoC5/P2_3_PM.c ****     P2_3_backup.saveSrA1Reg   = CY_GET_REG16(P2_3_SHIFT_REG_VALUE_LSB_PTR);
ARM GAS  C:\Users\Thomas\AppData\Local\Temp\ccgGhVHv.s 			page 23


 358              		.loc 1 53 0
 359 0016 1288     		ldrh	r2, [r2]
  54:.\Generated_Source\PSoC5/P2_3_PM.c **** 
 360              		.loc 1 54 0
 361 0018 1B88     		ldrh	r3, [r3]
  53:.\Generated_Source\PSoC5/P2_3_PM.c ****     P2_3_backup.saveSrA1Reg   = CY_GET_REG16(P2_3_SHIFT_REG_VALUE_LSB_PTR);
 362              		.loc 1 53 0
 363 001a 6280     		strh	r2, [r4, #2]	@ movhi
  54:.\Generated_Source\PSoC5/P2_3_PM.c **** 
 364              		.loc 1 54 0
 365 001c A380     		strh	r3, [r4, #4]	@ movhi
 366 001e 10BD     		pop	{r4, pc}
 367              	.L10:
 368              		.align	2
 369              	.L9:
 370 0020 75650040 		.word	1073767797
 371 0024 00000000 		.word	.LANCHOR0
 372 0028 04650040 		.word	1073767684
 373 002c 14650040 		.word	1073767700
 374              	.LBE7:
 375              	.LBE6:
 376              		.cfi_endproc
 377              	.LFE2:
 378              		.size	P2_3_Sleep, .-P2_3_Sleep
 379              		.section	.text.P2_3_Wakeup,"ax",%progbits
 380              		.align	2
 381              		.global	P2_3_Wakeup
 382              		.thumb
 383              		.thumb_func
 384              		.type	P2_3_Wakeup, %function
 385              	P2_3_Wakeup:
 386              	.LFB3:
 110:.\Generated_Source\PSoC5/P2_3_PM.c ****     P2_3_SaveConfig();
 111:.\Generated_Source\PSoC5/P2_3_PM.c **** }
 112:.\Generated_Source\PSoC5/P2_3_PM.c **** 
 113:.\Generated_Source\PSoC5/P2_3_PM.c **** 
 114:.\Generated_Source\PSoC5/P2_3_PM.c **** /*******************************************************************************
 115:.\Generated_Source\PSoC5/P2_3_PM.c **** * Function Name: P2_3_Wakeup
 116:.\Generated_Source\PSoC5/P2_3_PM.c **** ********************************************************************************
 117:.\Generated_Source\PSoC5/P2_3_PM.c **** *
 118:.\Generated_Source\PSoC5/P2_3_PM.c **** * Summary:
 119:.\Generated_Source\PSoC5/P2_3_PM.c **** *  Restores and enables the user configuration.
 120:.\Generated_Source\PSoC5/P2_3_PM.c **** *
 121:.\Generated_Source\PSoC5/P2_3_PM.c **** * Parameters:
 122:.\Generated_Source\PSoC5/P2_3_PM.c **** *  None.
 123:.\Generated_Source\PSoC5/P2_3_PM.c **** *
 124:.\Generated_Source\PSoC5/P2_3_PM.c **** * Return:
 125:.\Generated_Source\PSoC5/P2_3_PM.c **** *  None.
 126:.\Generated_Source\PSoC5/P2_3_PM.c **** *
 127:.\Generated_Source\PSoC5/P2_3_PM.c **** *******************************************************************************/
 128:.\Generated_Source\PSoC5/P2_3_PM.c **** void P2_3_Wakeup(void) 
 129:.\Generated_Source\PSoC5/P2_3_PM.c **** {
 387              		.loc 1 129 0
 388              		.cfi_startproc
 389              		@ args = 0, pretend = 0, frame = 0
 390              		@ frame_needed = 0, uses_anonymous_args = 0
 391              		@ link register save eliminated.
ARM GAS  C:\Users\Thomas\AppData\Local\Temp\ccgGhVHv.s 			page 24


 392 0000 10B4     		push	{r4}
 393              		.cfi_def_cfa_offset 4
 394              		.cfi_offset 4, -4
 395              	.LBB8:
 396              	.LBB9:
  79:.\Generated_Source\PSoC5/P2_3_PM.c ****     CY_SET_REG16(P2_3_SHIFT_REG_VALUE_LSB_PTR, P2_3_backup.saveSrA1Reg);
 397              		.loc 1 79 0
 398 0002 084B     		ldr	r3, .L16
 399 0004 0848     		ldr	r0, .L16+4
 400 0006 5C88     		ldrh	r4, [r3, #2]
  80:.\Generated_Source\PSoC5/P2_3_PM.c **** 
 401              		.loc 1 80 0
 402 0008 9988     		ldrh	r1, [r3, #4]
 403 000a 084A     		ldr	r2, .L16+8
  79:.\Generated_Source\PSoC5/P2_3_PM.c ****     CY_SET_REG16(P2_3_SHIFT_REG_VALUE_LSB_PTR, P2_3_backup.saveSrA1Reg);
 404              		.loc 1 79 0
 405 000c 0480     		strh	r4, [r0]	@ movhi
  80:.\Generated_Source\PSoC5/P2_3_PM.c **** 
 406              		.loc 1 80 0
 407 000e 1180     		strh	r1, [r2]	@ movhi
 408              	.LBE9:
 409              	.LBE8:
 130:.\Generated_Source\PSoC5/P2_3_PM.c ****     P2_3_RestoreConfig();
 131:.\Generated_Source\PSoC5/P2_3_PM.c **** 
 132:.\Generated_Source\PSoC5/P2_3_PM.c ****     if(0u != P2_3_backup.enableState)
 410              		.loc 1 132 0
 411 0010 1B78     		ldrb	r3, [r3]	@ zero_extendqisi2
 412 0012 13B9     		cbnz	r3, .L15
 133:.\Generated_Source\PSoC5/P2_3_PM.c ****     {
 134:.\Generated_Source\PSoC5/P2_3_PM.c ****         P2_3_Enable();
 135:.\Generated_Source\PSoC5/P2_3_PM.c ****     }
 136:.\Generated_Source\PSoC5/P2_3_PM.c **** }
 413              		.loc 1 136 0
 414 0014 5DF8044B 		ldr	r4, [sp], #4
 415              		.cfi_remember_state
 416              		.cfi_restore 4
 417              		.cfi_def_cfa_offset 0
 418 0018 7047     		bx	lr
 419              	.L15:
 420              		.cfi_restore_state
 421 001a 5DF8044B 		ldr	r4, [sp], #4
 422              		.cfi_restore 4
 423              		.cfi_def_cfa_offset 0
 134:.\Generated_Source\PSoC5/P2_3_PM.c ****     }
 424              		.loc 1 134 0
 425 001e FFF7FEBF 		b	P2_3_Enable
 426              	.LVL1:
 427              	.L17:
 428 0022 00BF     		.align	2
 429              	.L16:
 430 0024 00000000 		.word	.LANCHOR0
 431 0028 04650040 		.word	1073767684
 432 002c 14650040 		.word	1073767700
 433              		.cfi_endproc
 434              	.LFE3:
 435              		.size	P2_3_Wakeup, .-P2_3_Wakeup
 436              		.bss
ARM GAS  C:\Users\Thomas\AppData\Local\Temp\ccgGhVHv.s 			page 25


 437              		.align	2
 438              		.set	.LANCHOR0,. + 0
 439              		.type	P2_3_backup, %object
 440              		.size	P2_3_backup, 6
 441              	P2_3_backup:
 442 0000 00000000 		.space	6
 442      0000
 443 0006 0000     		.text
 444              	.Letext0:
 445              		.file 2 ".\\Generated_Source\\PSoC5\\cytypes.h"
 446              		.file 3 ".\\Generated_Source\\PSoC5\\P2_3.h"