ARM GAS  C:\Users\Thomas\AppData\Local\Temp\ccYahyoq.s 			page 1


   1              		.syntax unified
   2              		.cpu cortex-m3
   3              		.fpu softvfp
   4              		.eabi_attribute 20, 1
   5              		.eabi_attribute 21, 1
   6              		.eabi_attribute 23, 3
   7              		.eabi_attribute 24, 1
   8              		.eabi_attribute 25, 1
   9              		.eabi_attribute 26, 1
  10              		.eabi_attribute 30, 2
  11              		.eabi_attribute 34, 1
  12              		.eabi_attribute 18, 4
  13              		.thumb
  14              		.file	"P2_3.c"
  15              		.text
  16              	.Ltext0:
  17              		.section	.gnu.lto_.profile.b949947c,"",%progbits
  18 0000 789C6366 		.ascii	"x\234cf```e\200\000F\206\265\214!\000\002\347\001\014"
  18      60606065 
  18      80004686 
  18      B58C2100 
  18      02E7010C 
  19              		.text
  20              		.section	.gnu.lto_.jmpfuncs.b949947c,"",%progbits
  21 0000 789C6366 		.ascii	"x\234cf\300\016,\2414\017\0203\002A=\003\023\003\003"
  21      C00E2CA1 
  21      340F1033 
  21      02413D03 
  21      130303
  22 0013 33900DE4 		.ascii	"3\220\015\344\263\0001+\020\263C\270\034@\314\011R\302"
  22      B300312B 
  22      10B343B8 
  22      1C40CC09 
  22      52C2
  23 0025 C5C0C00D 		.ascii	"\305\300\300\015\242Az\030\000;\201\002\031"
  23      A2417A18 
  23      003B8102 
  23      19
  24              		.text
  25              		.section	.gnu.lto_.inline.b949947c,"",%progbits
  26 0000 789C7D50 		.ascii	"x\234}P;\012\302@\024\234\367v\223M\326\200\237\302"
  26      3B0AC240 
  26      149CF776 
  26      934DD680 
  26      9FC2
  27 0012 2216B981 		.ascii	"\"\026\271\201\367\260\311\015\354\3656)E\004\323y\007"
  27      F7B0C90D 
  27      ECF53629 
  27      4504D379 
  27      07
  28 0023 F11076B6 		.ascii	"\361\020v\2666\202\245\202\215\235\263\006\202\212\272"
  28      3682A582 
  28      8D9DB306 
  28      828ABA
  29 0032 2C6F60DE 		.ascii	",o`\336\314\354{k\360\375L\244\301\214\327\011tP\225"
  29      CCEC7B6B 
  29      F0FD4CA4 
ARM GAS  C:\Users\Thomas\AppData\Local\Temp\ccYahyoq.s 			page 2


  29      C18CD709 
  29      745095
  30 0045 88578506 		.ascii	"\210W\205\006N\340b1\230]U\226\207\323\315\234\365\256"
  30      4EE06231 
  30      985D5596 
  30      87D3CD9C 
  30      F5AE
  31 0057 50C84672 		.ascii	"P\310Fr`\336\000\355\206\322\270\246\305\326E/\370\264"
  31      60DE00ED 
  31      86D2B8A6 
  31      C5D6452F 
  31      F8B4
  32 0069 03CB8A34 		.ascii	"\003\313\2124a`v\2346]\004\245\037\221\212/\343\226"
  32      6160769C 
  32      365D04A5 
  32      1F918A2F 
  32      E396
  33 007b A2165295 		.ascii	"\242\026R\225\001hr\335\217\266x\226\010\375!\371|W"
  33      016872DD 
  33      8FB67896 
  33      08FD21F9 
  33      7C57
  34 008d CB7BC3FD 		.ascii	"\313{\303\375\317K~\344\245\360\251\310s\364v:\335w"
  34      CF4B7EE4 
  34      A5F0A9C8 
  34      73F4763A 
  34      DD77
  35 009f 6D107844 		.ascii	"m\020xD\226\036\256\322z\270\215!EEKe\360k&\250\337"
  35      961EAED2 
  35      7AB88D21 
  35      45454B65 
  35      F06B26A8 
  36 00b4 2EECCBD3 		.ascii	".\354\313\323\341/\037\023\322$\257"
  36      E12F1F13 
  36      D224AF
  37              		.text
  38              		.section	.gnu.lto_.pureconst.b949947c,"",%progbits
  39 0000 789C6366 		.ascii	"x\234cf``\220d\200\000\036\006)F\011&)f)\026)V)v)\016"
  39      60609064 
  39      80001E06 
  39      29460926 
  39      29662916 
  40 001a 294E292E 		.ascii	")N).)n)\036)\000\025\325\001\247"
  40      296E291E 
  40      290015D5 
  40      01A7
  41              		.text
  42              		.section	.gnu.lto_P2_3_GetFIFOStatus.part.0.b949947c,"",%progbits
  43 0000 789C6D92 		.ascii	"x\234m\222\333KTQ\024\306\327\332\373\2343\243ci=\311"
  43      DB4B5451 
  43      14C6D7DA 
  43      FB9C33A3 
  43      63693DC9 
  44 0014 10140CA2 		.ascii	"\020\024\014\242EH$\375\005=D\364\"\370jX\350\010A$"
  44      454824FD 
  44      053D44F4 
  44      22F86A58 
ARM GAS  C:\Users\Thomas\AppData\Local\Temp\ccYahyoq.s 			page 3


  44      E8084124 
  45 0028 983EF8E4 		.ascii	"\230>\370\3449\343\314\203QL\221tQ\004\243\274e\245"
  45      39E3CC83 
  45      514C9174 
  45      5104A3BC 
  45      65A5
  46 003a DD2C2FD0 		.ascii	"\335,/\320d\221\026\246\350xK&\233\007\247\033EZ\246"
  46      649116A6 
  46      E8784B26 
  46      9B07A71B 
  46      455AA6
  47 004d 4D99D35A 		.ascii	"M\231\323Z\373La\324\206\263\367b\357\357\267\366\267"
  47      FB4C61D4 
  47      86B3F762 
  47      EFEFB7F6 
  47      B7
  48 005e D73A12FE 		.ascii	"\327:\022\376\035\007\350\363I\200]\264\242\003\320"
  48      1D07E8F3 
  48      49805DB4 
  48      A203D0
  49 006d 383D4281 		.ascii	"8=B\201\201B\255Bj\0017\230N\251f\335\216Q\3473\313"
  49      8142AD42 
  49      6A013798 
  49      4EA966DD 
  49      8E51E733 
  50 0082 A9FD0E74 		.ascii	"\251\375\016tD\016\000\241\332 B\307j|'\026\005\016"
  50      440E00A1 
  50      DA2042C7 
  50      6A7C2716 
  50      050E
  51 0094 F7AC8531 		.ascii	"\367\254\2051\273\3314}\013\237_F\\\201\314\270\000"
  51      BBD9347D 
  51      0B9F5F46 
  51      5C81CCB8 
  51      00
  52 00a5 F8220077 		.ascii	"\370\"\000w\272q\273\233\201V\314\006\022\266G\276\206"
  52      BA71BB9B 
  52      8156CC06 
  52      12B647BE 
  52      86
  53 00b6 364A0F72 		.ascii	"6J\017r|\376a\363\271T\317%\202\242\361\330\023\227"
  53      7CFE61F3 
  53      B954CF25 
  53      82A2F1D8 
  53      1397
  54 00c8 79C1F447 		.ascii	"y\301\364G\023\211\255\204b\033\312\3654\017\002\202"
  54      1389AD84 
  54      621BCAF5 
  54      340F0282 
  55 00d8 CF0722E9 		.ascii	"\317\007\"\351r\207\202'\332\206|\232\015\177\212\035"
  55      72878227 
  55      DA867C9A 
  55      0D7F8A1D 
  56 00e8 0C594DE6 		.ascii	"\014YM\346Z\"\201\314^\375/\273\350\3779\3552\374\246"
  56      5A2281CC 
  56      5EFD2FBB 
  56      E8FF39ED 
ARM GAS  C:\Users\Thomas\AppData\Local\Temp\ccYahyoq.s 			page 4


  56      32FCA6
  57 00fb 6966603B 		.ascii	"if`;z\260\003=l\220\234]\243\032\000\010\336\341\223"
  57      7AB0033D 
  57      6C909C5D 
  57      A31A0008 
  57      DEE193
  58 010e CECDA699 		.ascii	"\316\315\246\231H\274y\237\355@\210\013\024<I\232\204"
  58      48BC799F 
  58      ED40880B 
  58      143C499A 
  58      84
  59 011f C6930EAC 		.ascii	"\306\223\016\254\001\230'\224+\021\023\006\257r\012"
  59      01982794 
  59      2B111306 
  59      AF720A
  60 012e 7D9BF89A 		.ascii	"}\233\370\232\301\307\275\375zN\013]\323\324\3771\240"
  60      C1C7BDFD 
  60      7A4E0B5D 
  60      D3D4FF31 
  60      A0
  61 013f B1A1E4C0 		.ascii	"\261\241\344\300\353\230C\202\360\225\350rj\326e\345"
  61      EB984382 
  61      F095E872 
  61      6AD665E5 
  62 014f 3B30EE32 		.ascii	";0\35623\377X\306\244eF\360\006f\001\345\314\000e\213"
  62      33FF58C6 
  62      A46546F0 
  62      066601E5 
  62      CC00658B 
  63 0163 50E0BB84 		.ascii	"P\340\273\204\272k\026\007\226OL\365\345\263\363\025"
  63      BA6B1607 
  63      964F4CF5 
  63      E5B3F315 
  64 0173 7A99C0BA 		.ascii	"z\231\300\272\346\205\247\370V\304\205\214=\263L\215"
  64      E685A7F8 
  64      56C4858C 
  64      3DB34C8D 
  65 0183 8DBC9A1F 		.ascii	"\215\274\232\037\035s\252-\365\374\311\037\203\265i"
  65      1D73AA2D 
  65      F5FCC91F 
  65      83B569
  66 0192 8DD860D5 		.ascii	"\215\330`\325Y\316\270\320\260\023\335\330\205T\037"
  66      59CEB8D0 
  66      B013DDD8 
  66      85541F
  67 01a1 BC898D08 		.ascii	"\274\211\215\010\263X\363\315\260\363\011;e\327\203"
  67      B358F3CD 
  67      B0F3093B 
  67      65D783
  68 01b0 8EDA14E6 		.ascii	"\216\332\024\346\361\020\340-R\316\242o\316aK$\251\030"
  68      F110E02D 
  68      52CEA26F 
  68      CE614B24 
  68      A918
  69 01c2 994B221A 		.ascii	"\231K\"\032m\021\362!\334\320\233\306\210NU\272M\310"
  69      6D11F221 
  69      DCD09BC6 
ARM GAS  C:\Users\Thomas\AppData\Local\Temp\ccYahyoq.s 			page 5


  69      884E55BA 
  69      4DC8
  70 01d4 0BF49B79 		.ascii	"\013\364\233yI\011\235\217\257\256\266a\020OY~3:\323"
  70      49099D8F 
  70      AFAEB661 
  70      104F597E 
  70      333AD3
  71 01e7 EA8853E9 		.ascii	"\352\210S\351`I\325\007\357\320>)\254\226\276\223\016"
  71      6049D507 
  71      EFD03E29 
  71      AC96BE93 
  71      0E
  72 01f8 CE2094E9 		.ascii	"\316 \224\351\221\261\213#\033l\240i\210\365x\227\262"
  72      91B18B23 
  72      1B6CA069 
  72      88F57897 
  72      B2
  73 0209 2E0964A4 		.ascii	".\011d\244\333F\352\247cKR!\202\2213\3353\337S\222\310"
  73      DB46EAA7 
  73      634B5221 
  73      829133DD 
  73      33DF5392 
  74 021e B042EE29 		.ascii	"\260B\356)Du\372>!\252\216\022\002n9\203V\006\233\343"
  74      4475FA3E 
  74      21AA8E12 
  74      026E3983 
  74      56069BE3 
  75 0232 7C54EAD0 		.ascii	"|T\352\320\331\340\026\365/P\177)\321h\364QP=\006\250"
  75      D9E016F5 
  75      2F507F29 
  75      D168F451 
  75      503D06A8 
  76 0246 3F3D5C29 		.ascii	"?=\\)\342\264\2779\241\270\372\364u\330X}KM\272\302"
  76      E2B4BF39 
  76      A1B8FAF4 
  76      75D8587D 
  76      4B4DBAC2 
  77 025a 10B03789 		.ascii	"\020\2607\211\351\020\244\2661\247\336k\367\225\364"
  77      E910A4B6 
  77      31A7DE6B 
  77      F795F4
  78 0269 2B743287 		.ascii	"+t2\207V(<*\354*\351\000\257Q_\337=\266\335\207n\021"
  78      56283C2A 
  78      EC2AE900 
  78      AF515FDF 
  78      3DB6DD87 
  79 027f 598922DB 		.ascii	"Y\211\"\333\220uU\234V\233\250\242_\0209/I\266\345\026"
  79      9075559C 
  79      569BA8A2 
  79      5F10392F 
  79      49B6E516 
  80 0293 EEF31EF3 		.ascii	"\356\363\036\363\226\037\256\360\226\024\025\224U\226"
  80      961FAEF0 
  80      96141594 
  80      5596
  81 02a1 177B0BF3 		.ascii	"\027{\013\363\013\312\366\356)\314\337]\224\227[\014"
  81      0BCAF6EE 
ARM GAS  C:\Users\Thomas\AppData\Local\Temp\ccYahyoq.s 			page 6


  81      29CCDF5D 
  81      94975B0C 
  82 02b1 46B9F778 		.ascii	"F\271\367x\345\321\012\243\364Hi\331\376\222_\001\""
  82      E5D10AA3 
  82      F44869D9 
  82      FE925F01 
  82      22
  83 02c2 42F1     		.ascii	"B\361"
  84              		.text
  85              		.section	.gnu.lto_P2_3_GetFIFOStatus.b949947c,"",%progbits
  86 0000 789C6590 		.ascii	"x\234e\220OHTQ\024\306\317w\356\363)3\3034\264\212\331"
  86      4F485451 
  86      14C6CF77 
  86      EEF32933 
  86      C334B48A 
  87 0015 140CA245 		.ascii	"\024\014\242EH$mZ\011-\242\235\340v@B\237\020D\023\223"
  87      48246D5A 
  87      092DA29D 
  87      E0764042 
  87      9F104413 
  88 002a 2EC53B3A 		.ascii	".\305;:\201\020T\266\250\010\022\242\254\254\034\203"
  88      811054B6 
  88      A80812A2 
  88      ACAC1C83 
  89 003a DA14B378 		.ascii	"\332\024\263xF\324[\364g1\224.^5P\023\266\313\264\006"
  89      46D45BF4 
  89      6731942E 
  89      5E355013 
  89      B6CBB406 
  90 004e A99CCE79 		.ascii	"\251\234\316yoQ\320\205\313\271\\\276\337w\276s\014"
  90      6F51D085 
  90      CBB95CBE 
  90      DF77BE73 
  90      0C
  91 005f FD7F7AE5 		.ascii	"\375\177z\345\256\202h\237T\264\021\370\374+\242R\007"
  91      AE82689F 
  91      54B411F8 
  91      FC2BA252 
  91      07
  92 0070 B3095264 		.ascii	"\263\011Rd\023N\260DdS\006\216\376\303\001\264\022h"
  92      134EB044 
  92      6453068E 
  92      FEC301B4 
  92      1268
  93 0082 828D8309 		.ascii	"\202\215\203\011|\3415\306\213G[5t\315Y;\371\365\333"
  93      7CE135C6 
  93      8B475B35 
  93      74CD593B 
  93      F9F5DB
  94 0095 BB30797A 		.ascii	"\2730yz\307&\023\2553ao\026\273\263*\277\205.\321\235"
  94      C72613AD 
  94      33616F16 
  94      BBB32ABF 
  94      852ED19D 
  95 00a9 7BF924DC 		.ascii	"{\371$\334fr y\327n\324\177$:\257\013\343\007\025\333"
  95      66722079 
  95      D76ED47F 
ARM GAS  C:\Users\Thomas\AppData\Local\Temp\ccYahyoq.s 			page 7


  95      243AAF0B 
  95      E30715DB 
  96 00bd 0741701B 		.ascii	"\007Ap\033\346/\245\036\230G\247\212\347\303\357~\332"
  96      E62FA51E 
  96      9847A78A 
  96      E7C3EF7E 
  96      DA
  97 00ce EC89C04B 		.ascii	"\354\211\300KKs\027\023\271k\002\3267\033\317\222\366"
  97      4B731713 
  97      B96B02D6 
  97      371BCF92 
  97      F6
  98 00df B22DD75B 		.ascii	"\262-\327[\255\235\312\337\371\227\217\217\000k\345"
  98      AD9DCADF 
  98      F9978F8F 
  98      006BE5
  99 00ee DFCB49B7 		.ascii	"\337\313I\267l\255\315\340.r\032L\234\357\301\225\251"
  99      6CADCDE0 
  99      2E721A4C 
  99      9CEFC195 
  99      A9
 100 00ff A13F8BDB 		.ascii	"\241?\213\333}\333j=\370u!8h\332A\372\305\320\326n\364"
 100      7DDB6A3D 
 100      F8752138 
 100      68DA41FA 
 100      C5D0D66E 
 101 0114 26FA2484 		.ascii	"&\372$\204\216\335`\326j\336b\322o\236IG\036\"\220\036"
 101      8EDD60D6 
 101      6ADE62D2 
 101      6F9E4947 
 101      1E22901E 
 102 0128 33330F67 		.ascii	"33\017g\323\253,!\266\304`\001Yz\203\362\312\324\307"
 102      D3AB2C21 
 102      B6C46001 
 102      597A83F2 
 102      CAD4C7
 103 013b ABED2A6A 		.ascii	"\253\355*j\262n\351\312rc\303\250\006\222\261\2028a"
 103      B26EE9CA 
 103      7263C3A8 
 103      0692B182 
 103      3861
 104 014d 830D0529 		.ascii	"\203\015\005)u\314\250Rd\317\237>\256\266u\337\224\270"
 104      75CCA852 
 104      64CF9F3E 
 104      AEB675DF 
 104      94B8
 105 015f F5EA42D8 		.ascii	"\365\352B\330\327\241{\210\017\026\321-V\024b*\023\333"
 105      D7A17B88 
 105      0F16D12D 
 105      5614622A 
 105      13DB
 106 0171 AA7EB676 		.ascii	"\252~\266v\266\302\343?\355\264\025)\257\263Nu\037\343"
 106      B6C2E33F 
 106      EDB41529 
 106      AFB34E75 
 106      1FE3
 107 0183 B23F13F9 		.ascii	"\262?\023\371;Q\344\025\2242\264!V\332)\032\253)\312"
ARM GAS  C:\Users\Thomas\AppData\Local\Temp\ccYahyoq.s 			page 8


 107      3B51E415 
 107      9432B421 
 107      56DA291A 
 107      AB29CA
 108 0196 F728F9B5 		.ascii	"\367(\371\265\327\034\233\011\370\031\320\360\\\375"
 108      D71C9B09 
 108      F819D0F0 
 108      5CFD
 109 01a4 7052CC0D 		.ascii	"pR\314\015dr(.\334\256\236\374a\357\204W<:\352\015\017"
 109      6472282E 
 109      DCAE9EFC 
 109      61EF8457 
 109      3C3AEA0D 
 110 01b9 0E14C68A 		.ascii	"\016\024\306\212C^\276\177\240p\350@\276\177\377`o\317"
 110      435EBE7F 
 110      A070E840 
 110      BE7FFF60 
 110      6FCF
 111 01cb 10B923C7 		.ascii	"\020\271#\307F\012G\206\335\242wj\354\370\350\037\325"
 111      460A4786 
 111      DDA2776A 
 111      ECF8E81F 
 111      D5
 112 01dc 18B61F   		.ascii	"\030\266\037"
 113              		.text
 114              		.section	.gnu.lto_P2_3_Init.b949947c,"",%progbits
 115 0000 789C8D51 		.ascii	"x\234\215Q\317K\024q\024\177\237\367\035\207\225=(\235"
 115      CF4B1471 
 115      147F9FF7 
 115      1D87953D 
 115      289D
 116 0012 644EC11E 		.ascii	"dN\301\036D\010\017+\375\001\321A\272\011^7Dt\016]4"
 116      44080F2B 
 116      FD01D141 
 116      BA095E37 
 116      44740E5D 
 117 0027 86F5EC8C 		.ascii	"\206\365\354\214\253\022{r\243C$\013\005\225?\323\322"
 117      AB127B72 
 117      A343240B 
 117      05953FD3 
 117      D2
 118 0038 C2431483 		.ascii	"\302C\024\203A\005A\241\007\205\016m\320\006v\021\305"
 118      410541A1 
 118      07850E6D 
 118      D0067611 
 118      C5
 119 0049 2817CAF1 		.ascii	"(\027\312\361\275\371\356\245\002i`\336\373\316|?\237"
 119      BDF9EEA5 
 119      026960DE 
 119      FBCE7C3F 
 119      9F
 120 005a CFFBBCF7 		.ascii	"\317\373\274\367\014\375\373x\362^b\242\274d\030\002"
 120      0CFDFB78 
 120      F25E62A2 
 120      BC641802 
 121 006a CFBC278A 		.ascii	"\317\274'\2122\014\350\201@\343\214q|\343C\306L\274"
 121      320CE881 
ARM GAS  C:\Users\Thomas\AppData\Local\Temp\ccYahyoq.s 			page 9


 121      40E38C71 
 121      7CE343C6 
 121      4CBC
 122 007c 743BDBF9 		.ascii	"t;\333\371 \014\303\203\355\215\216\251\216\206\320"
 122      200CC383 
 122      ED8D8EA9 
 122      8E86D0
 123 008b 8ED8CA60 		.ascii	"\216\330\312`\016\235$\230\303\311\337\273YwR0\355\366"
 123      0E9D2498 
 123      C3C9DFBB 
 123      59775230 
 123      EDF6
 124 009d 0EF37021 		.ascii	"\016\363p!y\365\\\034&\311z\255r#\217\214\241\006\303"
 124      79F55C1C 
 124      26C97AAD 
 124      72238F8C 
 124      A106C3
 125 00b0 D1D0A2C1 		.ascii	"\321\320\242\301\325@T\027\274\026\375\312\254\331\354"
 125      D5405417 
 125      BC16FDCA 
 125      ACD9EC
 126 00bf 60A25D35 		.ascii	"`\242]5\313/\313+\255&\007=\357\324\356O\233\334\275"
 126      CB2FCB2B 
 126      AD26073D 
 126      EFD4EE4F 
 126      9BDCBD
 127 00d2 309CF8FC 		.ascii	"0\234\370\374\342\325\3258\272\033\236$\011\032\314"
 127      E2D5D538 
 127      BA1B9E24 
 127      091ACC
 128 00e1 58809182 		.ascii	"X\200\221\202\270\340\241\313k\366\206E\344\204\263"
 128      B8E0A1CB 
 128      6BF68645 
 128      E484B3
 129 00f0 75E761A9 		.ascii	"u\347a\251m\217\025DX\202G\037\261\371\243|\3626\370"
 129      6D8F1544 
 129      5882471F 
 129      B1F9A37C 
 129      F236F8
 130 0103 C36F9CBC 		.ascii	"\303o\234\274f%\244\216\217\030\177w\203e\361Ix\004"
 130      6625A48E 
 130      8F187F77 
 130      8365F149 
 130      7804
 131 0115 F7271B9D 		.ascii	"\367'\033\235\306Fe\333QU3\365.\012\035\205\327\352"
 131      C64665DB 
 131      515533F5 
 131      2E0A1D85 
 131      D7EA
 132 0127 1FB632E9 		.ascii	"\037\2662\351/\322\317\371\312\363Z\266\212\331\350"
 132      2FD2CFF9 
 132      CAF35AB6 
 132      8AD9E8
 133 0136 569469B0 		.ascii	"V\224i\260\203\025xX\225\362\204\307\250B\\\224\216"
 133      83157858 
 133      95F284C7 
 133      A8425C94 
ARM GAS  C:\Users\Thomas\AppData\Local\Temp\ccYahyoq.s 			page 10


 133      8E
 134 0147 A7C58595 		.ascii	"\247\305\205\225t\254\352\376\227_\245T\3029\026\263"
 134      74ACEAFE 
 134      975FA554 
 134      C23916B3 
 135 0157 4FACD99B 		.ascii	"O\254\331\233P\314\231\212k\242(\"\266\265\315+V\263"
 135      50CC998A 
 135      6BA22822 
 135      B6B5CD2B 
 135      56B3
 136 0169 E54CCA7A 		.ascii	"\345L\312z\323\304w\327\242\233\2047\325\275\265\264"
 136      D3C477D7 
 136      A29B8437 
 136      D5BDB5B4 
 137 0179 2F8881A7 		.ascii	"/\210\201\247\377m\340Yj\300\245O\210\342J\257\316P"
 137      FF6DE059 
 137      6AC0A54F 
 137      88E24AAF 
 137      CE50
 138 018b 37509739 		.ascii	"7P\2279\312*e\261\347\273\013\275\376\210\037\014\026"
 138      CA2A65B1 
 138      E7BB0BBD 
 138      FE881F0C 
 138      16
 139 019c FDE181FE 		.ascii	"\375\341\201\376\321\261`\310/\364\365\217^\276X\350"
 139      D1B160C8 
 139      2FF4F58F 
 139      5EBE58E8 
 140 01ac CB0FF474 		.ascii	"\313\017\364t\017Q\333\265\221\242\037\004c\327\213"
 140      0F51DBB5 
 140      91A21F04 
 140      63D78B
 141 01bb F6F6143C 		.ascii	"\366\366\024<\317\330\315"
 141      CFD8CD
 142              		.text
 143              		.section	.gnu.lto_P2_3_EnableInt.b949947c,"",%progbits
 144 0000 789C7D90 		.ascii	"x\234}\220\317K\033Q\020\307\347;\233\304\205T\221\036"
 144      CF4B1B51 
 144      10C7E73B 
 144      9BC48554 
 144      911E
 145 0012 44726921 		.ascii	"Dri!\207P\020A\305\277\300C\301\223\220k@\212\335C/"
 145      87501041 
 145      C5BFC043 
 145      C193906B 
 145      408ADD43 
 146 0027 5A967814 		.ascii	"Z\226x\024_t\013\342A%((EAJ\261\326V+\012\036$\260x"
 146      5F740BE2 
 146      41252828 
 146      45414AB1 
 146      D6562B0A 
 147 003f 286D535A 		.ascii	"(mSZDP\024Q\021S\224^\252\021u5\022\347\355\366d\241"
 147      44501451 
 147      1153945E 
 147      AA117535 
 147      12E7EDF6 
 148 0055 0FDEAFE1 		.ascii	"\017\336\257\341;\237\371\316\030\364\357\212\311\336"
ARM GAS  C:\Users\Thomas\AppData\Local\Temp\ccYahyoq.s 			page 11


 148      3B9FF9CE 
 148      18F4EF8A 
 148      C9DE
 149 0063 065183DC 		.ascii	"\006Q\203\3340\010<\362\203(c2\240\037\004\352e\364"
 149      30083CF2 
 149      83286332 
 149      A01F04EA 
 149      65F4
 150 0075 E2844F19 		.ascii	"\342\204O\031#\356\334x4\361V)\365\347l\275\366U\255"
 150      23EEDC78 
 150      34F15629 
 150      F5E76CBD 
 150      F655AD
 151 0088 C744450E 		.ascii	"\307DE\0160\230A\202D\263ur\275\0236\342\320\357\302"
 151      30984182 
 151      44B37572 
 151      BD1336E2 
 151      D0EFC2
 152 009b D7E55123 		.ascii	"\327\345Q#>\255T\337\301D\341sT\215+\347\240\\~\344"
 152      3EAD54DF 
 152      C144E173 
 152      548D2BE7 
 152      A05C7EE4 
 153 00af 09FB1D0C 		.ascii	"\011\373\035\014\311D]\014Ob\177\215H\302\251s\273\025"
 153      C9445D0C 
 153      4F627F8D 
 153      48C2A973 
 153      BB15
 154 00c1 8D3852A0 		.ascii	"\2158R\240\032\263\210\007p\274GD\374AG\026\036\272"
 154      1AB38807 
 154      70BC4744 
 154      FC414716 
 154      1EBA
 155 00d3 AA5C5EFA 		.ascii	"\252\\^\372\236\375\222`S\314J(D\036sX\037DG\262\265"
 155      9EFD9260 
 155      53CC4A28 
 155      441E7358 
 155      1F4447B2 
 156 00e8 EB827CE4 		.ascii	"\353\202|\3446v\321\357\256\014\326h\302%\033R`jch\236"
 156      3676D1EF 
 156      AE0CD668 
 156      C2251B52 
 156      606A6368 
 157 00fd 7B6ED480 		.ascii	"{n\324\2002=\026\007\232;\207\036\311\016\321&\330/"
 157      323D1607 
 157      9A3B871E 
 157      C90ED126 
 157      D82F
 158 010f 254C11D3 		.ascii	"%L\021\323\016\326.\006\177\315\332ArH\222\207K\336"
 158      0ED62E06 
 158      7FCDDA41 
 158      72489287 
 158      4BDE
 159 0121 EF07C7EC 		.ascii	"\357\007\307\354qx,\237Q!mx\377\350\347\272\351\207"
 159      71782C9F 
 159      51216D78 
 159      FFE8E7BA 
ARM GAS  C:\Users\Thomas\AppData\Local\Temp\ccYahyoq.s 			page 12


 159      E987
 160 0133 7CFFA5CB 		.ascii	"|\377\245\3137\271\312I\274\3168\3608\202\017\210\341"
 160      37B9CA49 
 160      BCCE38F0 
 160      38820F88 
 160      E1
 161 0144 23A43FCC 		.ascii	"#\244?\314c\022B\354?\217\004\270p@\314\037^\025}\""
 161      631242EC 
 161      3F8F04B8 
 161      7040CC1F 
 161      5E157D22 
 162 0158 57131644 		.ascii	"W\023\026D)E\263\320\222\377\301>\011L\020\264\013\307"
 162      2945B3D0 
 162      92FFC13E 
 162      094C10B4 
 162      0BC7
 163 016a 5DFDE69B 		.ascii	"]\375\346\233\246\373\275U\024\365<\260(\275I3\036\233"
 163      A6FBBD55 
 163      14F53CB0 
 163      28BD4933 
 163      1E9B
 164 017c B4878C9B 		.ascii	"\264\207\214\233k\365\305\244'\005=!\321<\256O=\265"
 164      6BF5C5A4 
 164      27053D21 
 164      D13CAE4F 
 164      3DB5
 165 018e 3A2DFB59 		.ascii	":-\373Y\332z\336\236\354\352\266;\254T[\262\253\245"
 165      DA7ADE9E 
 165      ECEAB63B 
 165      AC545BB2 
 165      ABA5
 166 01a0 39D5D6D8 		.ascii	"9\325\326\330\336T\337AU/:\323\226mw\277L'\323\"\272"
 166      DE54DF41 
 166      552F3AD3 
 166      966D77BF 
 166      4C27D322 
 167 01b5 03B591B6 		.ascii	"\003\265\221\266M"
 167      4D
 168              		.text
 169              		.section	.gnu.lto_P2_3_Enable.b949947c,"",%progbits
 170 0000 789C7D8F 		.ascii	"x\234}\217\275KBQ\030\306\337\347\275v\023\\\242I\234"
 170      BD4B4251 
 170      18C6DFE7 
 170      BD76135C 
 170      A2499C
 171 0013 A2C5CDA1 		.ascii	"\242\305\315\241\350/\010jLp\013A\302\356\232 5\212"
 171      E82F086A 
 171      4C700B41 
 171      C2EE9A20 
 171      358A
 172 0025 F7A68134 		.ascii	"\367\246\2014\2045\025a[\364\241\031\325\020A\303\245"
 172      84351561 
 172      5BF4A119 
 172      D51041C3 
 172      A5
 173 0036 2121C8A8 		.ascii	"!!\310\250\206B\302 \014l\313\354\203K\204\275\307;"
 173      8642C220 
ARM GAS  C:\Users\Thomas\AppData\Local\Temp\ccYahyoq.s 			page 13


 173      0C6CCBEC 
 173      834B84BD 
 173      C73B
 174 0048 061D38E7 		.ascii	"\006\0358\347=\037\317\373{\316\243\321\337\021\220"
 174      3D1FCFFB 
 174      7BCEA3D1 
 174      DF1190
 175 0057 3901A241 		.ascii	"9\001\242A\251\320\010\234\257\022Y^\006\324\206@iF"
 175      A9D0089C 
 175      AF12595E 
 175      06D48640 
 175      6946
 176 0069 1A2FDC62 		.ascii	"\032/\334b\344\355\342\252/\270i\232\346\353\315\201"
 176      E4EDE2AA 
 176      2FB8699A 
 176      E6EBCD81 
 177 0079 7FC1EF30 		.ascii	"\177\301\3570Q\233]\014\266\020$\321\264\262?w>=+\232"
 177      519B5D0C 
 177      B61024D1 
 177      B4B23F77 
 177      3E3D2B9A 
 178 008d 3EF70DDB 		.ascii	">\367\015\333\320\005O\373\375\266\331\351\034U\226"
 178      D0054FFB 
 178      FDB6D9E9 
 178      1C5596
 179 009c 7341E84C 		.ascii	"sA\350L\016\213\231,D\015Q)\253gfU\265\032\316>\027"
 179      0E8B992C 
 179      440D5129 
 179      AB676655 
 179      B51ACE3E 
 180 00b1 AB6B93AA 		.ascii	"\253k\223\252\361\213\225o\346\376\364\215\233\3540"
 180      F18B956F 
 180      E6FEF48D 
 180      9BEC30
 181 00c0 7F5C58A6 		.ascii	"\177\\X\246G\331<6\256\256\275\335+R\307\247\313\372"
 181      47D93C36 
 181      AEAEBDDD 
 181      2B52C7A7 
 181      CBFA
 182 00d2 7C6F01EB 		.ascii	"|o\001\353V\026\016k\330A\000\273\220d(\242\000\252"
 182      56160E6B 
 182      D84100BB 
 182      906428A2 
 182      00AA
 183 00e4 21F3AEBB 		.ascii	"!\363\256\2738\315%V\012\315C\217j\007\010%Q\212\351"
 183      38CD2556 
 183      0ACD438F 
 183      6A070825 
 183      518AE9
 184 00f7 0A94E43F 		.ascii	"\012\224\344?\330\236\300\004A\017\310\330\307\347\254"
 184      D89EC004 
 184      410FC8D8 
 184      C7E7AC
 185 0106 E4CA7CE3 		.ascii	"\344\312|\343v\251\314\251o3gz\035\366\264U&\224\221"
 185      76A9CCA9 
 185      6F33677A 
 185      1DF6B455 
ARM GAS  C:\Users\Thomas\AppData\Local\Temp\ccYahyoq.s 			page 14


 185      269491
 186 0119 92743D54 		.ascii	"\222t=T\207e\237\214u\225\244\242BE\224?\017\204\242"
 186      87659F8C 
 186      7595A4A2 
 186      4245943F 
 186      0F84A2
 187 012c E3C68C91 		.ascii	"\343\306\214\221\234\2325\246c\221\304\\2nD\303\221"
 187      9C9A35A6 
 187      6391C45C 
 187      326E44C3 
 187      91
 188 013d C4E84834 		.ascii	"\304\350H4<\024\033\016\305\351\027>\222\200>"
 188      3C141B0E 
 188      C5E9173E 
 188      92803E
 189              		.text
 190              		.section	.gnu.lto_P2_3_Start.b949947c,"",%progbits
 191 0000 789C8D53 		.ascii	"x\234\215S]KTQ\024=\353\2343\037\316\004J\320\313\004"
 191      5D4B5451 
 191      143DEB9C 
 191      331FCE04 
 191      4AD0CB04 
 192 0014 22F82041 		.ascii	"\"\370 A((\375\202\036\2427\301\2670$l\036z\321\030"
 192      2828FD82 
 192      1EA237C1 
 192      B730246C 
 192      1E7AD118 
 193 0028 F451BC77 		.ascii	"\364Q\274wf\222\220\010\225\010\3730\012\312,k4\265"
 193      66929008 
 193      9508FB30 
 193      0ACA2C6B 
 193      34B5
 194 003a ACFCBA1A 		.ascii	"\254\374\272\032T$\030\226\251Id\220\201\275\204f\245"
 194      54241896 
 194      A9496490 
 194      81BD8466 
 194      A5
 195 004b 523AED7D 		.ascii	"R:\355}\317d\216\222ta\366\271\367\234}\326^k\355=J"
 195      CF648E92 
 195      7461F6B9 
 195      F79C7DD6 
 195      5E6BED3D 
 196 0060 6C7F8AE8 		.ascii	"l\177\212\350\227\243\205(\244\025\036\001\3310&\204"
 196      97A38528 
 196      A4151E01 
 196      D9302684 
 197 0070 ED97524D 		.ascii	"\355\227RM\024\010+\240\373\263\205\265KA\233m\015\360"
 197      14082BA0 
 197      FBB385B5 
 197      4B419B6D 
 197      0DF0
 198 0082 8B80A895 		.ascii	"\213\200\250\225J\243\026\237\345\242D\203\323\336\034"
 198      4AA3169F 
 198      E5A24483 
 198      D3DE1C
 199 0091 CCBB6159 		.ascii	"\314\273aY\326B\327\250]\354`U\012\261$M\001\334D\236"
 199      D642D7A8 
ARM GAS  C:\Users\Thomas\AppData\Local\Temp\ccYahyoq.s 			page 15


 199      5DEC6055 
 199      0AB1244D 
 199      01DC449E 
 200 00a5 A0A4C5F8 		.ascii	"\240\244\305\370\332T\320\033\247\244,s\2066xAk\307"
 200      DA54D01B 
 200      A7A42C73 
 200      86367841 
 200      6BC7
 201 00b7 6EC74A26 		.ascii	"n\307J&\273\023\303\323\310TbUBs\360q\360s\310\340\020"
 201      BB13C3D3 
 201      C8546255 
 201      4273F071 
 201      F073C8E0 
 202 00cc E010E420 		.ascii	"\340\020\344 \304\034\335f\026\237\244\344U\315 \332"
 202      C41CDD66 
 202      169FA4E4 
 202      55CD20DA 
 203 00dc B498D8CB 		.ascii	"\264\230\330\313x\313RQ\251+\257\317&d\315O\353\264"
 203      78CB5251 
 203      A92BAFCF 
 203      2664CD4F 
 203      EBB4
 204 00ee E55F9572 		.ascii	"\345_\225r\215\213\321\356\354\334\313q\377\274\244"
 204      8D8BD1EE 
 204      ECDCCB71 
 204      FFBCA4
 205 00fd 1DF7B3CD 		.ascii	"\035\367\263\315\216_F\013.\331\026g)\334B\015n#D\274"
 205      8E5F460B 
 205      2ED91667 
 205      29DC420D 
 205      6E2344BC 
 206 0111 DA695BBC 		.ascii	"\332i[\274A|:\226\375\027\323n\355;\343\343\333D\000"
 206      417C3A96 
 206      FD17D36E 
 206      ED3BE3E3 
 206      DB4400
 207 0124 77384F30 		.ascii	"w8O0\003%&\012\324$\242Y\014Y?X\237\310P\271\340\367"
 207      0325260A 
 207      D424A259 
 207      0C593F58 
 207      9FC850B9 
 208 013a C9D9EB75 		.ascii	"\311\331\353u*\367\232eE?\014<9\352\330W\255\365d\022"
 208      2AF79A65 
 208      453F0C3C 
 208      39EAD857 
 208      ADF56412 
 209 014e 5CE82E14 		.ascii	"\\\350.\024\351\307\376\020\366\205RM@\002\271tg\374"
 209      E9C7FE10 
 209      F685524D 
 209      4002B974 
 209      67FC
 210 0160 626B2C93 		.ascii	"bk,\223k(\010tP\215\031\214\374\250_\177\036I\263\317"
 210      6B280874 
 210      508D198C 
 210      FCA85F7F 
 210      1E49B3CF 
 211 0174 190ABBDE 		.ascii	"\031\012\273\336-I\244\373\352$\237JF\022\350\344S\271"
ARM GAS  C:\Users\Thomas\AppData\Local\Temp\ccYahyoq.s 			page 16


 211      2D49A4FB 
 211      EA249F4A 
 211      4612E8E4 
 211      53B9
 212 0186 D575DC83 		.ascii	"\325u\334\203\227ju\261$\037\267\255\267\361\225\346"
 212      976A75B1 
 212      241FB7AD 
 212      B7F195E6 
 213 0196 72FAD4A8 		.ascii	"r\372\324\250m\3514\217\264\361\250\261o6\310\036\235"
 213      6DE9348F 
 213      B4F1A8B1 
 213      6F36C81E 
 213      9D
 214 01a7 B3C9230F 		.ascii	"\263\311#\017\272\021B\217\353\321}\366h\006\261\225"
 214      BA11428F 
 214      EBD17DF6 
 214      6806B195 
 215 01b7 3AA26720 		.ascii	":\242g \375\006\365\313\307_1\027\302\263B*\036\030"
 215      FD06F5CB 
 215      C75F3117 
 215      C2B3422A 
 215      1E18
 216 01c9 154DE09C 		.ascii	"\025M\340\234\035\021{\011\221@\214\346\221\303\006"
 216      1D117B09 
 216      91408CE6 
 216      91C306
 217 01d8 3363C72B 		.ascii	"3c\307+\017S$\276yMv\300\\x\3262\337\345\352\002\021"
 217      0F5324BE 
 217      794D76C0 
 217      5C78D632 
 217      DFE5EA02 
 218 01ed 78F4DF04 		.ascii	"x\364\337\004\036\273\004\002\224\035]\350\354\311g"
 218      1EBB0402 
 218      941D5DE8 
 218      ECC967
 219 01fc 8BFF394B 		.ascii	"\213\3779K[\207\247ocx\372i\333\355\035O\207N\315')"
 219      5B87A76F 
 219      6378FA69 
 219      DBED1D4F 
 219      874ECD27 
 220 0211 1ABB7024 		.ascii	"\032\273p$\275YS{R]T\333\3724\340\366i\220%i:\213M\367"
 220      BD59537B 
 220      525D54DB 
 220      FA34E0F6 
 220      69902569 
 221 0229 7F956E53 		.ascii	"\177\225nS\276\277H\365i\271\345|\263o\223\212\241\015"
 221      BEBF48F5 
 221      69B9E57C 
 221      B36F938A 
 221      A10D
 222 023b 15CE1F4F 		.ascii	"\025\316\037O\352\250\242\301\010\022\314&\037\006]"
 222      EAA8A2C1 
 222      0812CC26 
 222      1F065D
 223 024a 5DFF4618 		.ascii	"]\377F\030v}\010\212w\2109\2754Q\224/\266\032A\264\265"
 223      767D088A 
 223      778839BD 
ARM GAS  C:\Users\Thomas\AppData\Local\Temp\ccYahyoq.s 			page 17


 223      3451942F 
 223      B61A41B4 
 224 025f 4B1323A8 		.ascii	"K\023#\250\241\177\245O\274\207\355\274\365\260\"\036"
 224      A17FA54F 
 224      BC87EDBC 
 224      F5B0221E 
 225 026f E8399A4D 		.ascii	"\3509\232M\222Nn\345\344\227\036\012W\204#\307\252\302"
 225      924E6EE5 
 225      E4971E0A 
 225      578423C7 
 225      AAC2
 226 0281 C7CB4A2A 		.ascii	"\307\313J*\253#\345\341\322\342\222\312\203\007J\213"
 226      AB23E5E1 
 226      D2E292CA 
 226      83074A8B 
 227 0291 0BCB8AF2 		.ascii	"\013\313\212\362\313E\346\211\212\252p$R}\262\312\234"
 227      CB45E689 
 227      8AAA7024 
 227      527DB2CA 
 227      9C
 228 02a2 FE06E874 		.ascii	"\376\006\350t\203\246"
 228      83A6
 229              		.text
 230              		.section	.gnu.lto_P2_3_DisableInt.b949947c,"",%progbits
 231 0000 789C7D90 		.ascii	"x\234}\220\315K\033Q\024\305\357\271\223L\007\242\""
 231      CD4B1B51 
 231      14C5EFB9 
 231      934C07A2 
 231      22
 232 0011 5D886453 		.ascii	"]\210dS!\013\021Dh\245\177\201\213.\272\021\262\015"
 232      210B1144 
 232      68A57F81 
 232      8B2EBA11 
 232      B20D
 233 0023 48D15974 		.ascii	"H\321Yt\2432$\313\340\213\216 \026\252H\245\001\211"
 233      A33224CB 
 233      E08B8E20 
 233      16AA48A5 
 233      0189
 234 0035 20525AEB 		.ascii	" RZ\353W\213\335\026\206.\212\"D\244\320@\020u\221H"
 234      578BDD16 
 234      862E8A22 
 234      44A4D040 
 234      10759148 
 235 0049 6D175605 		.ascii	"m\027V\005\355\370Az\337\214+\005\007\336\274\017\316"
 235      EDF8417A 
 235      DF8C2B05 
 235      07DEBC0F 
 235      CE
 236 005a F9DD73AF 		.ascii	"\371\335s\257Aw\277\270\2542\210\036\313\016\203\300"
 236      4177BFB8 
 236      AC32881E 
 236      CB0E83C0 
 237 006a 9345A29C 		.ascii	"\223E\242\234\305\200>\020h\2101\204C>fLz\213\371X\353"
 237      C5803E10 
 237      68883184 
 237      433E664C 
ARM GAS  C:\Users\Thomas\AppData\Local\Temp\ccYahyoq.s 			page 18


 237      7A8BF958 
 238 007f 3BA5D4DF 		.ascii	";\245\324\337\223R\363h\263\317D\247\034b\360\036\255"
 238      9352F368 
 238      B3CF44A7 
 238      1C62F01E 
 238      AD
 239 0090 249AD2E1 		.ascii	"$\232\322\341E9j$\240\317\325\215/o\214\304\234R\303"
 239      45396A24 
 239      A0CFD58D 
 239      2F6F8CC4 
 239      9C52C3
 240 00a3 FB1BD5EF 		.ascii	"\373\033\325\3571\225W\356~\255\366\310\027\366\007"
 240      319557EE 
 240      7EADF6C8 
 240      17F607
 241 00b2 18E2447B 		.ascii	"\030\342D{\034m\361\233 b8v\257K1\323\225\002\215X@"
 241      1C6DF19B 
 241      20623876 
 241      AF4B31D3 
 241      95028D58 
 242 00c7 2284E323 		.ascii	"\"\204\343#L\311\007\375\262\372\320S\265\332Zej\275"
 242      4CC907FD 
 242      B2FAD053 
 242      B5DA5A65 
 242      6ABD
 243 00d9 932D092B 		.ascii	"\223-\011+O\021\362\231\243\372GT\221\245SW\345\"\273"
 243      4F11F299 
 243      A3FA4754 
 243      91A55357 
 243      E522BB
 244 00ec B18311EF 		.ascii	"\261\203\021\357\355\253&M8gC\012\314\376x\275\302\331"
 244      EDAB264D 
 244      3867430A 
 244      CCFE78BD 
 244      C2D9
 245 00fe 4B35A62C 		.ascii	"K5\246,\237%\201\346.\"+\356\010\375\004\007\245\204"
 245      9F2581E6 
 245      2E222BEE 
 245      08FD0407 
 245      A584
 246 0110 296299C9 		.ascii	")b\231\311\267\263\361\203%'4G\304<q\345\377\251\373"
 246      B7B3F183 
 246      25273447 
 246      C43C71E5 
 246      FFA9FB
 247 0123 C53E47A7 		.ascii	"\305>G\2477s*\242\003\357U\266\266\255\340)\310\177"
 247      37732AA2 
 247      03EF55B6 
 247      B6ADE029 
 247      C87F
 248 0135 753EFFB5 		.ascii	"u>\377\265\276\200\231\234\013\237M,!\216eH\177XA\001"
 248      BE80999C 
 248      0B9F4D2C 
 248      218E6548 
 248      7F584101 
 249 0149 421CF967 		.ascii	"B\034\371g\206\270hH\\(\346\1777h\273y\004\302\252H"
 249      86B86848 
ARM GAS  C:\Users\Thomas\AppData\Local\Temp\ccYahyoq.s 			page 19


 249      5C28E67F 
 249      3768BB79 
 249      04C2AA48 
 250 015d A5EA14B4 		.ascii	"\245\352\024\264\346>\332'\241\011\203v\340z3\233Aj"
 250      E63EDA27 
 250      A1098376 
 250      E07A339B 
 250      416A
 251 016f BADDDC83 		.ascii	"\272\335\334\203S=\020|\226\346\244\033\237-\332E\316"
 251      533D107C 
 251      96E6A41B 
 251      9F2DDA45 
 251      CE
 252 0180 2B3C0FC4 		.ascii	"+<\017\304\244G\005=\"\321\264t\244\236\331\375\266"
 252      A447053D 
 252      22D1B474 
 252      A49ED9FD 
 252      B6
 253 0191 F3226DF7 		.ascii	"\363\"m\367\365$\0072N\257\235\352N\016t=Mu?\351\351"
 253      F5240732 
 253      4EAF9DEA 
 253      4E0E743D 
 253      4D753FE9 
 254 01a6 ECE8A586 		.ascii	"\354\350\245\206\227\375i\333q2\203\351dZD\377\001\300"
 254      97FD69DB 
 254      713283E9 
 254      645A44FF 
 254      01C0
 255 01b8 BFB699   		.ascii	"\277\266\231"
 256              		.text
 257              		.section	.gnu.lto_P2_3_Stop.b949947c,"",%progbits
 258 0000 789C7D8F 		.ascii	"x\234}\217?HBQ\024\306\317w\236\275\004!\242I\234\242"
 258      3F484251 
 258      14C6CF77 
 258      9EBD0421 
 258      A2499CA2 
 259 0014 C5CDA168 		.ascii	"\305\315\241hjlp\025\334B\220\260\267&H\215\342{i\020"
 259      6A6C7015 
 259      DC4290B0 
 259      B726488D 
 259      E27B6910 
 260 0028 0DA14E41 		.ascii	"\015\241NA\350\026\375\261l\250\261\340\321R\004\025"
 260      E816FDB1 
 260      6CA8B1E0 
 260      D1520415 
 261 0038 D1505819 		.ascii	"\321PX\031\204Em\231X=\242\354\\\337\030t\341\336s\377"
 261      84456D99 
 261      583DA2EC 
 261      5CDF1874 
 261      E1DE73FF 
 262 004c 7CE7F7DD 		.ascii	"|\347\367\335O\243\277# 3\002\242!\251\320\010\234?"
 262      4FA3BF23 
 262      203302A2 
 262      21A9D008 
 262      9C3F
 263 005e 23B2BC0C 		.ascii	"#\262\274\014\250\015\2012\214\014^\270\311\310\333"
 263      A80D8132 
ARM GAS  C:\Users\Thomas\AppData\Local\Temp\ccYahyoq.s 			page 20


 263      8C0C5EB8 
 263      C9C8DB
 264 006d 95655F70 		.ascii	"\225e_p\3254\315\327\342\201\177\336\3570Q\213]\014"
 264      D534CDD7 
 264      E2817FDE 
 264      EF30518B 
 264      5D0C
 265 007f D61024D1 		.ascii	"\326\020$\3214s\337W>='\232~\367\015\353\320\005O;\003"
 265      3473DF57 
 265      3E3D279A 
 265      7EF70DEB 
 265      D0054F3B 
 266 0094 B6D9E9EC 		.ascii	"\266\331\351\354\266\013\307c\320\231\034\0263Y\210"
 266      B60BC763 
 266      D0991C16 
 266      335988
 267 00a3 1AA25256 		.ascii	"\032\242RV\217\314\252j5\034\276/>\225'T\343\007+\337"
 267      8FCCAA6A 
 267      351CBE2F 
 267      3E952754 
 267      E3072BDF 
 268 00b7 ECF5FE1B 		.ascii	"\354\365\376\033?\263\303\334>\261L\217\262\271o\234"
 268      3FB3C3DC 
 268      3EB14C8F 
 268      B2B96F9C 
 269 00c7 5F78BB57 		.ascii	"_x\273W\244\216\017\247\365\271\336\022V\254\034\034"
 269      A48E0FA7 
 269      F5B9DE12 
 269      56AC1C1C 
 270 00d7 D6B08100 		.ascii	"\326\260\201\0006!\311PA\011TC\366Swq\232K,\024\366"
 270      3621C950 
 270      41095443 
 270      F6537771 
 270      9A4B2C14 
 271 00ec CA7DAA5D 		.ascii	"\312}\252]\373\001aK\244\342Z\204\322\374G\333\026\232"
 271      FB01614B 
 271      A4E25A84 
 271      D2FC47DB 
 271      169A
 272 00fe 30E81659 		.ascii	"0\350\026Y\373\346\210\225\\\271\227/\227\252\234\376"
 272      FBE68895 
 272      5CB9972F 
 272      97AA9CFE 
 273 010e 32174CAF 		.ascii	"2\027L\257\303\236\226\012\205*\322\022\257\207\352"
 273      C39E960A 
 273      852AD212 
 273      AF87EA
 274 011d B0ECBB70 		.ascii	"\260\354\273pWI*+TF\371\364`(\0266\246\215\324\344\214"
 274      57492A2B 
 274      5446F9F4 
 274      60281636 
 274      A68DD4E4 
 275 0132 31158F26 		.ascii	"1\025\217&gS\011#\026\211&\307Gc\221\341\370H(A\277"
 275      67530923 
 275      168926C7 
 275      476391E1 
 275      F8482841 
ARM GAS  C:\Users\Thomas\AppData\Local\Temp\ccYahyoq.s 			page 21


 276 0147 5D3D8178 		.ascii	"]=\201x"
 277              		.text
 278              		.section	.gnu.lto_P2_3_SetIntMode.b949947c,"",%progbits
 279 0000 789C8D51 		.ascii	"x\234\215QM(DQ\024>\337\275\317\314c\026d\305\254\224"
 279      4D284451 
 279      143EDFBD 
 279      CFCC6316 
 279      64C5AC94 
 280 0014 9092C5C8 		.ascii	"\220\222\305\310^Y\310Nl\247$\336\302\006\275\306z\336"
 280      5E59C84E 
 280      6CA724DE 
 280      C206BDC6 
 280      7ADE
 281 0026 9899CDAC 		.ascii	"\230\231\315\254fd\241\244\224\344\177\374-l\244Ii\224"
 281      6664A1A4 
 281      94E47FFC 
 281      2D6CA449 
 281      6994
 282 0038 2236CA82 		.ascii	"\"6\312\202\205\231\302B\344gf4\214s\337\263\242\344"
 282      8599C242 
 282      E4676634 
 282      8C73DFB3 
 282      A2E4
 283 004a D53DE7DC 		.ascii	"\325=\347\334\373\276\237s\317\225\364\373\363\362\322"
 283      FBBE9F73 
 283      CF95F4FB 
 283      F3F2D2
 284 0059 04918F33 		.ascii	"\004\221\2173$A\304O\210B\272\000TA\240\240@\020w\342"
 284      2441C44F 
 284      8842BA00 
 284      5441A0A0 
 284      401077E2 
 285 006d 49209E5A 		.ascii	"I \236Z\235\3664-X\226\365x\236\250\215\326\024\230"
 285      9DF6342D 
 285      5896F578 
 285      9EA88DD6 
 285      1498
 286 007f F62C1C19 		.ascii	"\366,\034\031,\242\211!\261\375X\262\\\326\203\270\236"
 286      2CA28921 
 286      B1FD58B2 
 286      5CD683B8 
 286      9E
 287 0090 7A4FDFCB 		.ascii	"zO\337\313\206y\313\232H\355%\255\016\024Xs\011\222"
 287      8679CB9A 
 287      48ED25AD 
 287      0E145873 
 287      0992
 288 00a2 1968F1A2 		.ascii	"\031h\361\242\331K|@XF\203\002?E>.<\256\010kW9\232X"
 288      D94B7C40 
 288      58468302 
 288      3F453E2E 
 288      3CAE086B 
 289 00ba 810B9C37 		.ascii	"\201\013\2347\252SV\251\264\223\236Zj\324*\004s\204"
 289      AA5356A9 
 289      B4939E5A 
 289      6AD42A04 
 289      7384
ARM GAS  C:\Users\Thomas\AppData\Local\Temp\ccYahyoq.s 			page 22


 290 00cc 54A14C05 		.ascii	"T\241L\005\027\024\335\255J]\005\242\014/\325w\2267"
 290      1714DDAD 
 290      4A5D05A2 
 290      0C2FD577 
 290      9637
 291 00de 9CE5250E 		.ascii	"\234\345%\016\336b\237G\246R\313\011\373\022\273\211"
 291      DE629F47 
 291      A652CB09 
 291      FB12BB89 
 292 00ee 73ED5614 		.ascii	"s\355V\024\204\214\036\207,My_gN\317t\373\210\324\366"
 292      848C1E87 
 292      2C4D795F 
 292      674ECF74 
 292      FB88D4F6 
 293 0102 70EE35EB 		.ascii	"p\3565\353\231\305L(\302-kX\205\027k\3401a\035\263\240"
 293      99C54C28 
 293      C22D6B58 
 293      85176BE0 
 293      31611DB3 
 294 0117 4B84F32E 		.ascii	"K\204\363.GN:\212\0177\305\260M\327\362|\237$C\331u"
 294      474E3A8A 
 294      0F37C5B0 
 294      4DD7F27C 
 294      9F2443D9 
 295 012c 120AF397 		.ascii	"\022\012\363\227\332\006\253\261\006\331-\036t;\222"
 295      DA06ABB1 
 295      06D92D1E 
 295      743B92
 296 013b 657F3136 		.ascii	"e\17716\177\370\273sB9\344\212\351h\245\355\357&l\331"
 296      7FF8BB73 
 296      4239E48A 
 296      E968A5ED 
 296      EF266CD9 
 297 014f F6E1976F 		.ascii	"\366\341\227o\210\316\222\014\374_G\333vG:]!\224\332"
 297      88CE920C 
 297      FC5F47DB 
 297      76473A5D 
 297      2194DA
 298 0162 E95568F5 		.ascii	"\351Uh\365\262\031~%\036%\017\266\256\325\337e\214\030"
 298      B2197E25 
 298      1E250FB6 
 298      AED5DF65 
 298      8C18
 299 0174 E640C018 		.ascii	"\346@\300\030\352\357\033\0357\007\015\177O\337hg\273"
 299      EAEF1B1D 
 299      37070D7F 
 299      4FDF6867 
 299      BB
 300 0185 BFC7D7DF 		.ascii	"\277\307\327\337\326:H\225\303#\001\3034\307\307\002"
 300      D63A4895 
 300      C32301C3 
 300      34C7C702 
 301 0195 CEDF2FF8 		.ascii	"\316\337/\370u\277Y"
 301      75BF59
 302              		.text
 303              		.section	.gnu.lto_P2_3_GetIntStatus.b949947c,"",%progbits
 304 0000 789C6366 		.ascii	"x\234cf\300\004R@\374\007\210\225\200\230\221\231\201"
ARM GAS  C:\Users\Thomas\AppData\Local\Temp\ccYahyoq.s 			page 23


 304      C0045240 
 304      FC078895 
 304      80989199 
 304      81
 305 0011 9169C239 		.ascii	"\221i\3029\006\206F\016&FF\020\203\201\221\241\236\211"
 305      0686460E 
 305      26464610 
 305      838191A1 
 305      9E89
 306 0023 B19EF125 		.ascii	"\261\236\361%\323G&\3063;\377]fT_\332\320\320\364a\321"
 306      D34726C6 
 306      333BFF5D 
 306      66545FDA 
 306      D0D0F461 
 307 0038 F4BBDCAD 		.ascii	"\364\273\334\255\022?\231\030\030>310\352H1j\202\314"
 307      123F9918 
 307      183E3331 
 307      30EA4831 
 307      6A82CC
 308 004b 615CCEA8 		.ascii	"a\\\316\250\316\000T\370\261\345\357un\266\226\206\206"
 308      CE0054F8 
 308      B1E5EF75 
 308      6EB69686 
 308      86
 309 005c 0601903C 		.ascii	"\006\001\220<Pb\005#\033#\220^/t\240\341\377\377\317"
 309      50620523 
 309      1B23905E 
 309      2F74A0E1 
 309      FFFFCF
 310 006f 77A7ACD0 		.ascii	"w\247\254\320gaab\370\311\004\264\021d\010\303\023 "
 310      67616162 
 310      F8C904B4 
 310      116408C3 
 310      1320
 311 0081 01B2EF29 		.ascii	"\001\262\357)\023\023\210f\276\305x\350[\327\263\323"
 311      13138866 
 311      BEC578E8 
 311      5BD7B3D3 
 312 0091 16208DDF 		.ascii	"\026 \215\337\231@\226OY\372\341$\343\013\246\237LL"
 312      9940964F 
 312      59FAE124 
 312      E30BA69F 
 312      4C4C
 313 00a3 4F4F3536 		.ascii	"OO56\260\200\254\271\377\344\374E\016\260\020\003\210"
 313      B080ACB9 
 313      FFE4FC45 
 313      0EB01003 
 313      88
 314 00b4 DBBAF0CA 		.ascii	"\333\272\360\312\024\356\271\214\263\033[\030\17721"
 314      14EEB98C 
 314      B31B5B18 
 314      7F3231
 315 00c3 33AE6494 		.ascii	"3\256d\224b\\\305\010t\026\343j\306\271\214\014\267"
 315      625CC508 
 315      7416E36A 
 315      C6B98C0C 
 315      B7
ARM GAS  C:\Users\Thomas\AppData\Local\Temp\ccYahyoq.s 			page 24


 316 00d4 189B7FB4 		.ascii	"\030\233\177\264\351@\314c\206\030\371\375\317\361V"
 316      E940CC63 
 316      8618F9FD 
 316      CFF156
 317 00e3 7E907E06 		.ascii	"~\220~\006v\006\3065@\245\367\030\031\241\012\300Nb"
 317      7606C635 
 317      40A5F718 
 317      19A10AC0 
 317      4E62
 318 00f5 04390568 		.ascii	"\0049\005h\266\202^\214{j^jQbIjJ|p~iQrjL@p\276\263i"
 318      B6825E8C 
 318      7B6A5E6A 
 318      5162496A 
 318      4A7C707E 
 319 0113 4C8051BC 		.ascii	"L\200Q\274\261^2\003\000~9ea"
 319      B15E3203 
 319      007E3965 
 319      61
 320              		.text
 321              		.section	.gnu.lto_P2_3_WriteRegValue.b949947c,"",%progbits
 322 0000 789C654F 		.ascii	"x\234eO\277KBQ\030\375\316}O3\014\222\246r\012B\\\302"
 322      BF4B4251 
 322      18FDCE7D 
 322      4F330C92 
 322      A6720A42 
 323 0016 A168690A 		.ascii	"\241hi\012\012Z\005\033\005\021{QK\202\331\3545^TT\320"
 323      0A5A051B 
 323      05117B51 
 323      4B82D9EC 
 323      355E5454 
 324 002b 10118953 		.ascii	"\020\021\211SD?\254\014\372\007\036\271HA\277 \304\206"
 324      443FAC0C 
 324      FA071EB9 
 324      4841BF20 
 324      C486
 325 003d 04512868 		.ascii	"\004Q(hH\024\314!\354\2739v\341\362}\347p\3569\347j"
 325      4814CC21 
 325      ECBB3976 
 325      E1F27DE7 
 325      70EE39E7 
 326 0052 F4FFB8F9 		.ascii	"\364\377\270\371zA4\314\023\032A\354\334\023%\035\002"
 326      7A4134CC 
 326      131A41EC 
 326      DC13251D 
 326      02
 327 0063 500B8112 		.ascii	"P\013\201\022\002\011|\210\232\300\216\225\331wz\217"
 327      02097C88 
 327      9AC08E95 
 327      D9777A8F 
 328 0073 A4945FE5 		.ascii	"\244\224_\345\324\300j\177K\020\325E\307\006\307\360"
 328      D4C06A7F 
 328      4B10D545 
 328      C706C7F0 
 329 0083 B224D7FC 		.ascii	"\262$\327\374\\\263iC \336\357\312\337\365\236w\321"
 329      5CB36943 
 329      20DEEFCA 
 329      DFF59E77 
ARM GAS  C:\Users\Thomas\AppData\Local\Temp\ccYahyoq.s 			page 25


 329      D1
 330 0094 12702978 		.ascii	"\022p)xP\25064\005\205P\260X|\336rx\016\245\\\261\362"
 330      50A83634 
 330      058550B0 
 330      587CDE72 
 330      780EA55C 
 331 00aa 57728279 		.ascii	"Wr\202y\015'\320\330\017\247p\343\014nb\212\220\201"
 331      0D27D0D8 
 331      0FA770E3 
 331      0C6E628A 
 331      9081
 332 00bc 47C96BE6 		.ascii	"G\311k\346O\301i79\333\325\311\3049\354\\\233\262}\226"
 332      4FC16937 
 332      39DBD5C9 
 332      C439EC5C 
 332      9BB27D96 
 333 00d0 6CB7AF1B 		.ascii	"l\267\257\033\273\371q]\347\326JO\025V\250\372U\316"
 333      BBF9715D 
 333      E7D64A4F 
 333      1556A8FA 
 333      55CE
 334 00e2 E2A9BDE2 		.ascii	"\342\251\275\342f\257\326\230Qo\330ks\335z\354RMt\363"
 334      66AFD698 
 334      516FD86B 
 334      73DD7AEC 
 334      524D74F3 
 335 00f6 36297565 		.ascii	"6)ue_\252<<9\376(Rpc;W\352M#\2254\321\0226\\p\241K."
 335      5FAA3C3C 
 335      39FE2852 
 335      70633B57 
 335      EA4D2395 
 336 0113 44C8228D 		.ascii	"D\310\"\215&\233\276!i\275\004\224\237\372|E@\305p\350"
 336      269BBE21 
 336      69BD0494 
 336      9FFA7C45 
 336      40C570E8 
 337 0127 A02F386D 		.ascii	"\240/8m,\032\261p\334\230\015\005\242\313\261\210\021"
 337      2C1AB170 
 337      DC980D05 
 337      A2CBB188 
 337      11
 338 0138 F407A293 		.ascii	"\364\007\242\223cA\377Hh\324\027\241\356\245\371\205"
 338      6341FF48 
 338      68D417A1 
 338      EEA5F985 
 339 0148 B9F85438 		.ascii	"\271\370T8\036\376\005\377.ya"
 339      1EFE05FF 
 339      2E7961
 340              		.text
 341              		.section	.gnu.lto_P2_3_ReadRegValue.b949947c,"",%progbits
 342 0000 789C6D52 		.ascii	"x\234mRmHSQ\030~\337s\356\275\256m\231\364s\177\014"
 342      6D485351 
 342      187EDF73 
 342      EEBDAE6D 
 342      99F4737F 
 343 0015 46681116 		.ascii	"Fh\021\026F\177\352O\020\021\375\023\374;\020\321\011"
 343      467FEA4F 
ARM GAS  C:\Users\Thomas\AppData\Local\Temp\ccYahyoq.s 			page 26


 343      1011FD13 
 343      FC3B10D1 
 343      09
 344 0026 41242CFD 		.ascii	"A$,\375)\236\351\245$\323%\210\232\241T`\315L\255\\"
 344      299EE9A5 
 344      24D32588 
 344      9AA15460 
 344      CD4CAD5C 
 345 003a 1F7E04D3 		.ascii	"\037~\004\323$\243\017E4%\0315\304A\032\204\266r\215"
 345      24A30F45 
 345      34251935 
 345      C4411A84 
 345      B6728D
 346 004d 3ED67BCE 		.ascii	">\326{\316u\320\262\013\333=\347\334\347}\316\373<\317"
 346      75D0B20B 
 346      DB3DE7DC 
 346      E77DCEFB 
 346      3CCF
 347 005f CB61FB73 		.ascii	"\313a\373s\222~U\034\340\020\275\321\000dW\246\001\374"
 347      927E551C 
 347      E010BDD1 
 347      006457A6 
 347      01FC
 348 0071 36869AB5 		.ascii	"6\206\232\265\340\326b\334\2461~y\012@\330u3\013\204"
 348      E0D662DC 
 348      A6317E79 
 348      0A40D875 
 348      330B84
 349 0084 534794E7 		.ascii	"SG\224\347\200P\313\270\246c-\323,\302U\266\301\360"
 349      8050CBB8 
 349      A6632DD3 
 349      2CC255B6 
 349      C1F0
 350 0096 D5F2F7B8 		.ascii	"\325\362\367\270\363#K2\310\001\332v.\306\276r\271E"
 350      F3234B32 
 350      C801DA76 
 350      2EC6BE72 
 350      B945
 351 00a8 26B7A3F1 		.ascii	"&\267\243\361\351e#\257G\210\272\365/\263\245\035\255"
 351      E96523AF 
 351      4788BAF5 
 351      2FB3A51D 
 351      AD
 352 00b9 D731C918 		.ascii	"\3271\311\030\304\031\340mta\020]\222\267\027\363$\266"
 352      C419E06D 
 352      7461105D 
 352      92B717F3 
 352      24B6
 353 00cb 37F22D9C 		.ascii	"7\362-\234\315\335(\327\201\306\356\271\235\356\033"
 353      CDDD28D7 
 353      81C6EEB9 
 353      9DEE1B
 354 00da 5417BDDA 		.ascii	"T\027\275\332t\321)\202\302\214\246R\271T\214w\220g"
 354      74D12982 
 354      C28CA652 
 354      B9548C77 
 354      9067
ARM GAS  C:\Users\Thomas\AppData\Local\Temp\ccYahyoq.s 			page 27


 355 00ec D6CB874A 		.ascii	"\326\313\207J6\314_\213\016\303\024B\344`\037\272\345"
 355      36CC5F8B 
 355      0EC31442 
 355      E4601FBA 
 355      E5
 356 00fd 25C47D17 		.ascii	"%\304}\027\015\004`\362\2040\355\343=mv\2136\031{\356"
 356      0D0460F2 
 356      8430EDE3 
 356      3D6D768B 
 356      36197BEE 
 357 0111 101D695A 		.ascii	"\020\035iZ\236\246=\340\302}iR\354G\367\340\356\260"
 357      9EA63DE0 
 357      C27D6952 
 357      EC47F7E0 
 357      EEB0
 358 0123 48A5865E 		.ascii	"H\245\206^\2675\0344l\034\222L\323\350O\327A2\032\012"
 358      B7351C34 
 358      6C1C924C 
 358      D3E84FD7 
 358      41321A0A 
 359 0137 02B04257 		.ascii	"\002\260BW\221U+$\315\314\3421\306\201\374\343K8\261"
 359      91552B24 
 359      CDCCE231 
 359      C681FCE3 
 359      4B38B1
 360 014a 796973B5 		.ascii	"yis\265P\366\220`\234\256o\026\027\332\2314\307\230"
 360      50F69060 
 360      9CAE6F16 
 360      17DA9934 
 360      C798
 361 015c 7FE9179A 		.ascii	"\177\351\027\232\354\372\303\312\314\254M\035)\021}"
 361      ECFAC3CA 
 361      CCAC4D1D 
 361      29117D
 362 016b 814F93AC 		.ascii	"\201O\223\254\013\257\371M2*\013\007H\344\240\024\211"
 362      0BAFF94D 
 362      322A0B07 
 362      48E4A014 
 362      89
 363 017c F7B08B74 		.ascii	"\367\260\213t@\214\274\2470\370\002\326)\273\003o&\""
 363      408CBCA7 
 363      30F802D6 
 363      29BB036F 
 363      2622
 364 018e BBF87EE5 		.ascii	"\273\370~\345\331|\360E\235f\211\0134e\212\273\377\037"
 364      D97CF045 
 364      9D66890B 
 364      34658ABB 
 364      FF1F
 365 01a0 710F9423 		.ascii	"q\017\224#3\321g\001\025\037\247\357Ct\0251\207\023"
 365      33D16701 
 365      151FA7EF 
 365      43741531 
 365      8713
 366 01b2 8DD91986 		.ascii	"\215\331\031\206\206\207;\367J\274\2623\316\360_\273"
 366      86873BF7 
 366      4ABCB233 
ARM GAS  C:\Users\Thomas\AppData\Local\Temp\ccYahyoq.s 			page 28


 366      CEF05FBB 
 367 01c2 A50918A2 		.ascii	"\245\011\030\242\231\002|H~\367+\346\226\226Pw\266b"
 367      99027C48 
 367      7EF72BE6 
 367      96965077 
 367      B662
 368 01d4 FE8D808F 		.ascii	"\376\215\200\217,\352\034\011\240\217S\223#cz\376-\252"
 368      2CEA1C09 
 368      A08F5393 
 368      23637AFE 
 368      2DAA
 369 01e6 8E8EF547 		.ascii	"\216\216\365G\216\333\010\225\356\3531\346\253F\"X\257"
 369      8EDB0895 
 369      EEEB31E6 
 369      AB462258 
 369      AF
 370 01f7 D009260B 		.ascii	"\320\011&\013\272\347\232\007X\315\017\321 \010k\213"
 370      BAE79A07 
 370      58CD0FD1 
 370      20086B8B 
 371 0207 D31CC8FB 		.ascii	"\323\034\310\373\360\011\326P\034;\024\265\012\203\320"
 371      F009D650 
 371      1C3B14B5 
 371      0A83D0
 372 0216 F016CD77 		.ascii	"\360\026\315w\365\361\220\3132\336\370{*uR9\274551\246"
 372      F5F190CB 
 372      32DEF87B 
 372      2A755239 
 372      BC353531 
 373 022b CBB8544C 		.ascii	"\313\270TL\013kv\013\255\021zs}\342\247\212\311\336"
 373      0B6B760B 
 373      AD117A73 
 373      7DE2A78A 
 373      C9DE
 374 023d BA2D26BB 		.ascii	"\272-&\273\212\251~\356\346\254\221\216\311\201#\024"
 374      8AA97EEE 
 374      E6AC918E 
 374      C9812314 
 375 024d D3A88A69 		.ascii	"\323\250\212iL\306\244\030?\257\035\265\030\365\214"
 375      4CC6A418 
 375      3FAF1DB5 
 375      18F58C
 376 025c 58FDE1DC 		.ascii	"X\375\341\334\314`\237\312\012j_\034S\263\332'%\350"
 376      CC609FCA 
 376      0A6A5F1C 
 376      53B3DA27 
 376      25E8
 377 026e F01EFDE1 		.ascii	"\360\036\375\341\304\022\333b\0009bH\315\322\234\355"
 377      C412DB62 
 377      00396248 
 377      CDD29CED 
 378 027e 29F09CF2 		.ascii	")\360\234\362\236\363\372J\253\274\345%\305\225\325"
 378      9EF3FA4A 
 378      ABBCE525 
 378      C595D5
 379 028d BE32AFA7 		.ascii	"\2762\257\247\250\270\362\304\021OQa\311\341\20220|"
 379      A8B8F2C4 
ARM GAS  C:\Users\Thomas\AppData\Local\Temp\ccYahyoq.s 			page 29


 379      114F5161 
 379      C9E18232 
 379      307C
 380 029f DEF3D567 		.ascii	"\336\363\325g\253\214\2123\025\225\247\313\377\000]"
 380      AB8C8A33 
 380      1595A7CB 
 380      FF005D
 381 02ae 7247C7   		.ascii	"rG\307"
 382              		.text
 383              		.section	.gnu.lto_.symbol_nodes.b949947c,"",%progbits
 384 0000 789C55CF 		.ascii	"x\234U\317\261\015\3020\024\004\320\263\177\034;\211"
 384      B10DC230 
 384      1404D0B3 
 384      7F1C3B89 
 385 0010 93929609 		.ascii	"\223\222\226\011`\305\213\322\320\262\000\210D\254A"
 385      60C58BD2 
 385      D0B20088 
 385      44AC41
 386 001f 13513303 		.ascii	"\023Q3\003\364\210\021\020FI\341\377\233\323\323]\363"
 386      F4881110 
 386      4649E1FF 
 386      9BD3D35D 
 386      F3
 387 0030 05C0DE60 		.ascii	"\005\300\336`9\333\0218>\000\322\234\246\000\353iV\343"
 387      39DB1138 
 387      3E00D29C 
 387      A600EB69 
 387      56E3
 388 0042 7C49165A 		.ascii	"|I\026ZeGQ\266,\224\015]n\007\214\226\260%K5+\350\225"
 388      654751B6 
 388      2C940D5D 
 388      6E078C96 
 388      B0254B35 
 389 0059 038372C5 		.ascii	"\003\203r\305J\271f\255\334\260\311mZ\306\305\350\373"
 389      4AB966AD 
 389      DCB0C96D 
 389      5AC6C5E8 
 389      FB
 390 006a C4C836A3 		.ascii	"\304\3106\243\244o\207q#\322\341\372\374\032\221\026"
 390      A46F8771 
 390      23D2E1FA 
 390      FC1A9116 
 391 007a F757CA42 		.ascii	"\367W\312B0\374\323\011\346\303{+~\355\375\332\007\277"
 391      30FCD309 
 391      E6C37B2B 
 391      7EEDFDDA 
 391      07BF
 392 008c F411986E 		.ascii	"\364\021\230n\237\035~\340<P7"
 392      9F1D7EE0 
 392      3C5037
 393              		.text
 394              		.section	.gnu.lto_.refs.b949947c,"",%progbits
 395 0000 789C6366 		.ascii	"x\234cf``\340d\200\000&V\0066FF6.\006\000\001z\000,"
 395      6060E064 
 395      80002656 
 395      06364646 
 395      362E0600 
ARM GAS  C:\Users\Thomas\AppData\Local\Temp\ccYahyoq.s 			page 30


 396              		.text
 397              		.section	.gnu.lto_.decls.b949947c,"",%progbits
 398 0000 789C9D55 		.ascii	"x\234\235UiLTW\024~w\356\014\0163\003\332&\305\3264"
 398      694C5457 
 398      147E77EE 
 398      0C0E3303 
 398      DA26C5D6 
 399 0015 E9181393 		.ascii	"\351\030\023\223&\206\270Dc\177\325\224\2725]\214\244"
 399      2686B844 
 399      637FD594 
 399      BA355D8C 
 399      A4
 400 0026 ED0F4D0C 		.ascii	"\355\017M\014\342\213\235\304\200\3011)\277zq\003\027"
 400      E28B9DC4 
 400      80C13129 
 400      BF7A7103 
 400      17
 401 0037 EA88AD80 		.ascii	"\352\210\255\200\212\200\270\200\212\016*\233\200\014"
 401      8A80B880 
 401      8A0E2A9B 
 401      800C
 402 0045 882C2288 		.ascii	"\210,\"\210:\202\212\262\210\250\200\313(KP\252\323"
 402      3A828AB2 
 402      88A880CB 
 402      284B50AA 
 402      D3
 403 0056 7397E7BC 		.ascii	"s\227\347\2747\0055\275\311\201w\337\234\357\373\316"
 403      370535BD 
 403      C98177DF 
 403      9CEFFBCE 
 404 0066 B9E7BC73 		.ascii	"\271\347\274s\261$I\331X\222\274\260\034&I\372\003I"
 404      B12449D9 
 404      5892BCB0 
 404      1C2649FA 
 404      0349
 405 0078 5210BC5B 		.ascii	"R\020\274[\002\006\217R\210\304W0X\036X>X\021\3309\260"
 405      02068F52 
 405      88C45730 
 405      581E583E 
 405      5811D839 
 406 008d 52B0F360 		.ascii	"R\260\363`.\260J\260j\260:07X\013\330-\260V\301\323"
 406      2EB04AB0 
 406      6AB03A30 
 406      37580BD8 
 406      2DB056C1 
 407 00a2 266917E5 		.ascii	"&i\027\345\032\007v\\h,\002\353\002\353\004\373N\350"
 407      1A07765C 
 407      682C02EB 
 407      02EB04FB 
 407      4EE8
 408 00b4 D3A553E9 		.ascii	"\323\245S\351B\230\322}\260n\260\007~|\364w\275\212"
 408      4298D27D 
 408      B06EB007 
 408      7E7CF477 
 408      BD8A
 409 00c6 EF21D829 		.ascii	"\357!\330)\025G\276\340\241\261<\362\303\322|\014B3"
 409      1547BEE0 
ARM GAS  C:\Users\Thomas\AppData\Local\Temp\ccYahyoq.s 			page 31


 409      A1B13CF2 
 409      C3D27C0C 
 409      4233
 410 00d8 447028B1 		.ascii	"Dp(\261(\370\"\221\237\377\242\347\020(\260\212v\017"
 410      28F82291 
 410      9FFFA2E7 
 410      1028B08A 
 410      760F
 411 00ea 588D8AA3 		.ascii	"X\215\212\243\027\254J\370c\201i\025\347\343\277\350"
 411      17AC4AF8 
 411      63816915 
 411      E7E3BFE8 
 412 00fa 9906A862 		.ascii	"\231\006\250bQ8\372\300\012T\361\224\012\036\377E\353"
 412      5138FAC0 
 412      0A54F194 
 412      0A1EFF45 
 412      EB
 413 010b 6154E11F 		.ascii	"aT\341\037\373\345\243\3461\010\177%7\205s\264z\271"
 413      FBE5A3E6 
 413      31087F25 
 413      378573B4 
 413      7AB9
 414 011d FE479EAE 		.ascii	"\376G\236\256w\344Y\371\201yV\012\036\377U-\371j\246"
 414      77E459F9 
 414      8179560A 
 414      1EFF552D 
 414      F96AA6
 415 0130 C4A3AE19 		.ascii	"\304\243\256\031\222F\257\027\355O\375;0u\243`\334\252"
 415      9246AF17 
 415      ED4FFD3B 
 415      3075A360 
 415      DCAA
 416 0142 58E97760 		.ascii	"X\351w`\001k\002{\016\346Qa\335\243`[\204\277\032G\265"
 416      016B027B 
 416      0EE65161 
 416      DDA3605B 
 416      84BF1A47 
 417 0157 AD42BF1F 		.ascii	"\255B\277\037\354\205\344\353\327A\260\001\201\305\002"
 417      EC85E4EB 
 417      D741B001 
 417      81C502
 418 0166 AFF4AEFF 		.ascii	"\257\364\256\377z\256C\315\345\361\361F\254C\3649+\245"
 418      7AAE43CD 
 418      E5F1F146 
 418      AC43F439 
 418      2BA5
 419 0178 D36D9A76 		.ascii	"\323m\232v\214\020\222@\\.\344s\212;R\262c\334#\035"
 419      8C109240 
 419      5C2EE473 
 419      8A3B52B2 
 419      63DC231D 
 420 018c 0A31B1ED 		.ascii	"\0121\261\355\237\365{+0\333z)Nw\353\326_/12MM d\003"
 420      9FF57B2B 
 420      30DB7A29 
 420      4E77EBD6 
 420      5F2F3132 
 421 01a5 F12411FC 		.ascii	"\361$\021\374\251\204\246MB_N\222\320\0114\025\334P"
ARM GAS  C:\Users\Thomas\AppData\Local\Temp\ccYahyoq.s 			page 32


 421      A984A64D 
 421      425F4E92 
 421      D0093415 
 421      DC50
 422 01b7 369A26A1 		.ascii	"6\232&\241\0344\011\035C\223\244C \340Iw\337\376\234"
 422      1C34091D 
 422      4393A443 
 422      20E04977 
 422      DFFE9C
 423 01ca 103D3A8E 		.ascii	"\020=:\216L\350(\302\314\003\016\201*\010\321\342\223"
 423      4CE828C2 
 423      CC030E81 
 423      2A08D1E2 
 423      93
 424 01db 030D6650 		.ascii	"\003\015fP\0116Y\351\366\\RmJ\000l-&=\335n\335\344\304"
 424      093659E9 
 424      F65C526D 
 424      4A006C2D 
 424      263DDD6E 
 425 01f2 13FF0626 		.ascii	"\023\377\006&\342\330H&p\236\\\0208\011\002\022:\205"
 425      E2D84826 
 425      709E5C10 
 425      38090212 
 425      3A85
 426 0204 26C2DF65 		.ascii	"&\302\337ez\316\224\326\326\177\303\200g\261\034_\265"
 426      7ACE94D6 
 426      D67FC380 
 426      67B11C5F 
 426      B5
 427 0215 DF890BB2 		.ascii	"\337\211\013\262\036 .\247'\255\253\344\253TG\306\006"
 427      1E202EA7 
 427      27ADABE4 
 427      AB5447C6 
 427      06
 428 0226 F2C6EB45 		.ascii	"\362\306\353EDGA\310\3716\024\211>\363\312\344!+ \035"
 428      444741C8 
 428      F9361489 
 428      3EF3CAE4 
 428      212B201D 
 429 023a 9B2B1C7A 		.ascii	"\233+\034z=\264\024\323Z\306\242h\252\336Z\375\2160"
 429      3DB414D3 
 429      5AC6A268 
 429      AADE5AFD 
 429      8E30
 430 024c CEB0304E 		.ascii	"\316\2600N#\021\307\311\253\005-F\034\305\342\3302\264"
 430      2311C7C9 
 430      AB052D46 
 430      1CC5E2D8 
 430      32B4
 431 025e C3618238 		.ascii	"\303a\2028:\234$\225d\350\010LO\010\001\000\350\254"
 431      3A9C2495 
 431      64E8084C 
 431      4F080100 
 431      E8AC
 432 0270 2A84B34A 		.ascii	"*\204\263J\010\371,\204\222\221{n\275ZnI\210J\255@\223"
 432      08F92C84 
 432      92917B6E 
ARM GAS  C:\Users\Thomas\AppData\Local\Temp\ccYahyoq.s 			page 33


 432      BD5A6E49 
 432      884AAD40 
 433 0285 B4B33E35 		.ascii	"\264\263>5\307\210\343\020S\333\337}\360\240\231\251"
 433      C788E310 
 433      53DBDF7D 
 433      F0A099A9 
 434 0295 75945D90 		.ascii	"u\224]\220]\233\310?^\357F#\203\240B\225^\241\242W\304"
 434      5D9BC83F 
 434      5EEF4623 
 434      83A04295 
 434      5EA1A257 
 435 02aa F4766DEF 		.ascii	"\364vm\357\0370\342\355\234c\313\235t\3578\306\221\261"
 435      1F30E2ED 
 435      9C63CB9D 
 435      74EF38C6 
 435      91B1
 436 02bc F370402D 		.ascii	"\363p@-qy\275_3\202b\025A\261Bp\216\021\324%\015\033"
 436      7179BD5F 
 436      33826215 
 436      41B14270 
 436      8E11D425 
 437 02d2 F15E8EDF 		.ascii	"\361^\216\337\227w&\333\302\361\211Y\034_N\020c(Q1\224"
 437      977726DB 
 437      C2F18959 
 437      1C5F4E10 
 437      63285131 
 438 02e7 280CA58C 		.ascii	"(\014\245\214aOz\371K\035>\302)\236mN\316\031\017\024"
 438      614F7AF9 
 438      4B1D3EC2 
 438      299E6D4E 
 438      CE190F14 
 439 02fb 19CE8CD6 		.ascii	"\031\316\214\326\323d\036K\0033\2062\025C\231\302p\236"
 439      D3641E4B 
 439      03338632 
 439      154399C2 
 439      709E
 440 030d 3114946D 		.ascii	"1\024\224m\337\257\307y\234\241*\253\354\232H\242\\"
 440      DFAFC779 
 440      9CA12AAB 
 440      EC9A48A2 
 440      5C
 441 031e 9344B98A 		.ascii	"\223D\271\212\240\\!p1\202\356\253\316\244`\\\301\011"
 441      A05C2170 
 441      3182EEAB 
 441      CEA4605C 
 441      C109
 442 0330 CE3F3831 		.ascii	"\316?81\233G\320\223\245\306W\250\360\025\012\276r\314"
 442      9B47D093 
 442      A5C657A8 
 442      F0150ABE 
 442      72CC
 443 0342 C619F476 		.ascii	"\306\031\364v\036\326\215Y\311*V\311\013J\337\034\311"
 443      1ED68D59 
 443      C92A56C9 
 443      0B4ADF1C 
 443      C9
 444 0353 4C8CC3B8 		.ascii	"L\214\303\270\236\007\340\254\032(\014\022\307\230\343"
ARM GAS  C:\Users\Thomas\AppData\Local\Temp\ccYahyoq.s 			page 34


 444      9E07E0AC 
 444      1A280C12 
 444      C798E3
 445 0362 3B4680A0 		.ascii	";F\200\240\213\252\030.*1T\263\030\336\375\271\324h"
 445      8BAA182E 
 445      2A3154B3 
 445      18DEFDB9 
 445      D468
 446 0374 3AA73093 		.ascii	":\2470\223\244\033p+\227s\3476v\361#\3578\327#:\007"
 446      A41B702B 
 446      9773E736 
 446      76F123EF 
 446      38D7233A 
 447 0389 3304AA55 		.ascii	"3\004\252U\311\325*ruL\256\376\336p\277\205}\273\023"
 447      C9D52A72 
 447      754CAEFE 
 447      DE70BF85 
 447      7DBB13
 448 039c 28C9DE96 		.ascii	"(\311\336\226\356\001\314\276]\035\373\036_<-\015\304"
 448      EE01CCBE 
 448      5D1DFB1E 
 448      5F3C2D0D 
 448      C4
 449 03ad 4FB88032 		.ascii	"O\270\2002[\254|\266$\367\015\2375\262-\325\201\341"
 449      5BAC7CB6 
 449      24F70D9F 
 449      35B22DD5 
 449      81E1
 450 03bf 32D275F2 		.ascii	"2\322u\362h\000\232j\342S\243\231O\215&\010\377\262"
 450      68009A6A 
 450      E253A399 
 450      4F8D2608 
 450      FFB2
 451 03d1 6F6A58C5 		.ascii	"ojX\305\324`\003\210l$\206\354`\011]\202\364\352!=t"
 451      D4600388 
 451      6C2486EC 
 451      60095D82 
 451      F4EA213D 
 452 03e6 05669055 		.ascii	"\005f\220U\314\240\006x\331\010/A\251\364P\357S3+K\323"
 452      CCA00678 
 452      D9082F41 
 452      A9F450EF 
 452      53332B4B 
 453 03fb DBB2B4E7 		.ascii	"\333\262\264\347\017\025\232\306,\3135vLW\225\262\274"
 453      0F159AC6 
 453      2CCB3576 
 453      4C5795B2 
 453      BC
 454 040c 1E39DE19 		.ascii	"\0369\336\031\200\007x\032\303\0155m:vN\236\264\013"
 454      8007781A 
 454      C30D356D 
 454      3A764E9E 
 454      B40B
 455 041e 8533E19B 		.ascii	"\2053\341\233\346s\205\241\320u\325Q]W\216\312\315\216"
 455      E67385A1 
 455      D075D551 
 455      5D578ECA 
ARM GAS  C:\Users\Thomas\AppData\Local\Temp\ccYahyoq.s 			page 35


 455      CD8E
 456 0430 EAE5E686 		.ascii	"\352\345\346\206vMi\2324\245\271\241)\315\231\242=\331"
 456      764D699A 
 456      34A5B9A1 
 456      29CD99A2 
 456      3DD9
 457 0442 261CCFC7 		.ascii	"&\034\317\307\365\320\356W\367\015\2744;\023\253-\204"
 457      F5D0EE57 
 457      F70DBC34 
 457      3B13AB2D 
 457      84
 458 0453 772383A0 		.ascii	"w#\203\240f\225`\263\"\330\302\004\037\347\3469\315"
 458      669560B3 
 458      22D8C204 
 458      1FE7E639 
 458      CD
 459 0464 38558C7C 		.ascii	"8U\214|Gik\000\355&\342i\257\363NO%\231J\330\264\241"
 459      47696B00 
 459      ED26E269 
 459      AFF34E4F 
 459      25994AD8 
 460 047a 6EAA586E 		.ascii	"n\252Xn*,\267\030\313\225\336\241T\023\276\312Y\332"
 460      2A2CB718 
 460      CB95DEA1 
 460      5413BECA 
 460      59DA
 461 048c 8F1F5EC3 		.ascii	"\217\037^\303H:^w\311\225\352\036\271\255b\270\2550"
 461      483A5E77 
 461      C995EA1E 
 461      B9AD62B8 
 461      AD30
 462 049e B47286E1 		.ascii	"\264r\206\341-\317\306\321\256\240\014oZ\235\205t\272"
 462      2DCFC6D1 
 462      AEA00C6F 
 462      5A9D8574 
 462      BA
 463 04af 435FB244 		.ascii	"C_\262D\213\272o?3M\311$\031\007\235i]\227\314$\205"
 463      8BBA6F3F 
 463      334DC924 
 463      19079D69 
 463      5D97CC24 
 464 04c4 900EAFF7 		.ascii	"\220\016\257\367\013\326\267w8\247\270b$\272\207\277"
 464      0BD6B777 
 464      38A7B862 
 464      24BA87BF 
 465 04d4 7769A9DB 		.ascii	"wi\251\333\320\024\000\223\344\355\207\214x\2203\347"
 465      D0140093 
 465      E4ED878C 
 465      789033E7 
 466 04e4 0F6D2B0E 		.ascii	"\017m+\0162%\320\266x\377\325\004\375\346n\334\326\034"
 466      3225D0B6 
 466      78FFD504 
 466      FDE66EDC 
 466      D61C
 467 04f6 C82F337F 		.ascii	"\310/3\177\304\2751/\263\341\256E\233\310<\324\011\321"
 467      C4BD312F 
 467      B3E1AE45 
ARM GAS  C:\Users\Thomas\AppData\Local\Temp\ccYahyoq.s 			page 36


 467      9BC83CD4 
 467      09D1
 468 0508 B5FBDAB2 		.ascii	"\265\373\332\262\003\371n\263\255\367\3666X,\333h\203"
 468      03F96EB3 
 468      ADF7F636 
 468      582CDB68 
 468      83
 469 0519 4299036B 		.ascii	"B\231\003k\203\231\263\257\316]\310\302\316\006\376"
 469      8399B3AF 
 469      CE5DC8C2 
 469      CE06FE
 470 0528 83776E55 		.ascii	"\203wnUs\266nr:\275\211]\337@\023\262;\210\037\336}"
 470      73B66E72 
 470      3ABD895D 
 470      DF4013B2 
 470      3B881FDE 
 471 053d 34999ECF 		.ascii	"4\231\236\317\201\262\212`\346\340I\333\370\302\026"
 471      81B28A60 
 471      E6E049DB 
 471      F8C216
 472 054c E7EFD5CD 		.ascii	"\347\357\325\315\274\366\305\357?ef^\031\227\343\211"
 472      BCF6C5EF 
 472      3F65665E 
 472      1997E389 
 473 055c 01697D1E 		.ascii	"\001i}\0360\237\341\314\316\007\3435\201\321{\320\027"
 473      309FE1CC 
 473      CE07E335 
 473      81D17BD0 
 473      17
 474 056d D84311D8 		.ascii	"\330C\021\330C\026X{\242\013k\342\312W\330\036\215\301"
 474      4316587B 
 474      A20B6BE2 
 474      CA57D81E 
 474      8DC1
 475 057f 56A361EB 		.ascii	"V\243a\353\021l=\214\315\221\264\357|\240\306\273J\343"
 475      116C3D8C 
 475      CD91B4EF 
 475      7CA0C6BB 
 475      4AE3
 476 0591 DD2BBC7B 		.ascii	"\335+\274{\231w[\212k\233^\343]\240\361\356C\026\345"
 476      99775B8A 
 476      6B9B5EE3 
 476      5DA0F1EE 
 476      4316E5
 477 05a4 E4FB1820 		.ascii	"\344\373\030 \371\200gDK\257\035{\217\005\375c\346]"
 477      F9806744 
 477      4BAF1D7B 
 477      8F05FD63 
 477      E65D
 478 05b6 DCD8DA86 		.ascii	"\334\330\332\206\361+\3365\236\204\304>=\357\232\017"
 478      F12BDE35 
 478      9E84C43E 
 478      3DEF9A0F 
 479 05c6 9C27BAE4 		.ascii	"\234'\272\344\334\273p\323)\203\352\025\357\010\017"
 479      DCBB70D3 
 479      2983EA15 
 479      EF080F
ARM GAS  C:\Users\Thomas\AppData\Local\Temp\ccYahyoq.s 			page 37


 480 05d5 083EF175 		.ascii	"\010>\361u\304S\344\233T\2430?\033}R\035\336U\2155i"
 480      C453E49B 
 480      54A3303F 
 480      1B7D521D 
 480      DE558D35 
 481 05ea 7834693C 		.ascii	"x4i<\027i<gi\354x4\230eV\"O\370 \376\234\312\342\375"
 481      17693C67 
 481      69EC7834 
 481      98655622 
 481      4FF820FE 
 482 0602 668DC00B 		.ascii	"f\215\300\013\215@\277\020\350g\002\235\216\352\322"
 482      8D40BF10 
 482      E867029D 
 482      8EEAD2
 483 0611 40E5834A 		.ascii	"@\345\203Jx\317\347\001\376\025)\273\217\005i\330\007"
 483      78CFE701 
 483      FE1529BB 
 483      8F0569D8 
 483      07
 484 0622 34EC8382 		.ascii	"4\354\203\202\235\3767\254\267E\331\347\006,\374\361"
 484      9DFE37AC 
 484      B745D9E7 
 484      062CFCF1 
 485 0632 676B9834 		.ascii	"gk\2304%t\371B9J\216\211\260\313\253V\204G\257\217\211"
 485      2574F942 
 485      394A8E89 
 485      B0CBAB56 
 485      8447AF8F 
 486 0647 94972F09 		.ascii	"\224\227/\011\217\016\233\275<2\326\036\273V^\027\372"
 486      8F0E9BBD 
 486      3C32D61E 
 486      BB565E17 
 486      FA
 487 0658 9BF4D992 		.ascii	"\233\364\331\222\231+f\255X(\333\027,^\360S\270=\302"
 487      992B66AD 
 487      5828DB17 
 487      2C5EF053 
 487      B83DC2
 488 066b BE7E5DE8 		.ascii	"\276~]\350\332\210\030{\350t\353\230h\012\011\215\224"
 488      DA88187B 
 488      E874EB98 
 488      680A098D 
 488      94
 489 067c 3EFE2F34 		.ascii	">\376/4\220\275Z\034e\263\007\263\247\371Q\021+\327"
 489      90BD5A1C 
 489      65B307B3 
 489      A7F95111 
 489      2BD7
 490 068e C88BA3EC 		.ascii	"\310\213\243\354f\325\326\304\236\001\020c\037\317\036"
 490      66D5D6C4 
 490      9E011063 
 490      1FCF1E
 491 069d BFB5AD13 		.ascii	"\277\265\255\023n\201\342\247\350\265\374\227p\331\016"
 491      6E81E2A7 
 491      E8B5FC97 
 491      70D90E
 492 06ac 6F7F885E 		.ascii	"o\177\210^%\177\244\210\301\236k\005\320Tg\314\341Q"
ARM GAS  C:\Users\Thomas\AppData\Local\Temp\ccYahyoq.s 			page 38


 492      257FA488 
 492      C19E6B05 
 492      D05467CC 
 492      E151
 493 06be FC1A63B3 		.ascii	"\374\032c\263\313K\345\325\277D\254Y/|\227\312\021\253"
 493      CB4BE5D5 
 493      BF44AC59 
 493      2F7C97CA 
 493      11AB
 494 06d0 94379F84 		.ascii	"\2247\237\204\305\316\377\335f\017\003/[d\304\232p9"
 494      C5CEFFDD 
 494      660F032F 
 494      5B64C49A 
 494      7039
 495 06e2 D26E8B8E 		.ascii	"\322n\213\216\232<f\206a\261\337\333V\302\351\204\000"
 495      9A3C6686 
 495      61B1DFDB 
 495      56C2E984 
 495      00
 496 06f3 2ECA2EC7 		.ascii	".\312.\307\370\001-L\300\006i\376\022\021\243\217\221"
 496      F8012D4C 
 496      C00669FE 
 496      1211A38F 
 496      91
 497 0704 57CF35C0 		.ascii	"W\3175\300\237\031s\376\005IX#\256"
 497      9F1973FE 
 497      05495823 
 497      AE
 498              		.text
 499              		.section	.gnu.lto_.symtab.b949947c,"",%progbits
 500 0000 50325F33 		.ascii	"P2_3_GetFIFOStatus\000\000\000\000\000\000\000\000\000"
 500      5F476574 
 500      4649464F 
 500      53746174 
 500      75730000 
 501 001b 000000B5 		.ascii	"\000\000\000\265\000\000\000P2_3_Init\000\000\000\000"
 501      00000050 
 501      325F335F 
 501      496E6974 
 501      00000000 
 502 002f 00000000 		.ascii	"\000\000\000\000\000\000\000\000\270\000\000\000P2_"
 502      00000000 
 502      B8000000 
 502      50325F
 503 003e 335F456E 		.ascii	"3_EnableInt\000\000\000\000\000\000\000\000\000\000"
 503      61626C65 
 503      496E7400 
 503      00000000 
 503      00000000 
 504 0053 0000BA00 		.ascii	"\000\000\272\000\000\000P2_3_Enable\000\000\000\000"
 504      00005032 
 504      5F335F45 
 504      6E61626C 
 504      65000000 
 505 0068 00000000 		.ascii	"\000\000\000\000\000\000\000\000\274\000\000\000P2_"
 505      00000000 
 505      BC000000 
ARM GAS  C:\Users\Thomas\AppData\Local\Temp\ccYahyoq.s 			page 39


 505      50325F
 506 0077 335F5374 		.ascii	"3_Start\000\000\000\000\000\000\000\000\000\000\000"
 506      61727400 
 506      00000000 
 506      00000000 
 506      0000
 507 0089 00BE0000 		.ascii	"\000\276\000\000\000P2_3_initVar\000\000\000\000\000"
 507      0050325F 
 507      335F696E 
 507      69745661 
 507      72000000 
 508 009f 00000000 		.ascii	"\000\000\000\000\000\000\000\336\000\000\000P2_3_Di"
 508      000000DE 
 508      00000050 
 508      325F335F 
 508      4469
 509 00b1 7361626C 		.ascii	"sableInt\000\000\000\000\000\000\000\000\000\000\000"
 509      65496E74 
 509      00000000 
 509      00000000 
 509      000000
 510 00c4 00C00000 		.ascii	"\000\300\000\000\000P2_3_Stop\000\000\000\000\000\000"
 510      0050325F 
 510      335F5374 
 510      6F700000 
 510      00000000 
 511 00d8 00000000 		.ascii	"\000\000\000\000\000\000\302\000\000\000P2_3_SetInt"
 511      0000C200 
 511      00005032 
 511      5F335F53 
 511      6574496E 
 512 00ed 4D6F6465 		.ascii	"Mode\000\000\000\000\000\000\000\000\000\000\000\000"
 512      00000000 
 512      00000000 
 512      00000000 
 513 00fd C6000000 		.ascii	"\306\000\000\000P2_3_GetIntStatus\000\000\000\000\000"
 513      50325F33 
 513      5F476574 
 513      496E7453 
 513      74617475 
 514 0117 00000000 		.ascii	"\000\000\000\000\000\000\000\311\000\000\000P2_3_Wr"
 514      000000C9 
 514      00000050 
 514      325F335F 
 514      5772
 515 0129 69746552 		.ascii	"iteRegValue\000\000\000\000\000\000\000\000\000\000"
 515      65675661 
 515      6C756500 
 515      00000000 
 515      00000000 
 516 013e 0000D400 		.ascii	"\000\000\324\000\000\000P2_3_ReadRegValue\000\000\000"
 516      00005032 
 516      5F335F52 
 516      65616452 
 516      65675661 
 517 0158 00000000 		.ascii	"\000\000\000\000\000\000\000\000\000\327\000\000\000"
 517      00000000 
ARM GAS  C:\Users\Thomas\AppData\Local\Temp\ccYahyoq.s 			page 40


 517      00D70000 
 517      00
 518 0165 43794578 		.ascii	"CyExitCriticalSection\000\000\002\000\000\000\000\000"
 518      69744372 
 518      69746963 
 518      616C5365 
 518      6374696F 
 519 0182 00000000 		.ascii	"\000\000\000\000\331\000\000\000CyEnterCriticalSect"
 519      D9000000 
 519      4379456E 
 519      74657243 
 519      72697469 
 520 019d 696F6E00 		.ascii	"ion\000\000\002\000\000\000\000\000\000\000\000\000"
 520      00020000 
 520      00000000 
 520      000000
 521 01ac DB000000 		.ascii	"\333\000\000\000"
 522              		.text
 523              		.section	.gnu.lto_.opts,"",%progbits
 524 0000 272D666E 		.ascii	"'-fno-trapv' '-mcpu=cortex-m3' '-mthumb' '-g' '-O3'"
 524      6F2D7472 
 524      61707627 
 524      20272D6D 
 524      6370753D 
 525 0033 20272D66 		.ascii	" '-ffunction-sections' '-finline-functions' '-flto'"
 525      66756E63 
 525      74696F6E 
 525      2D736563 
 525      74696F6E 
 526 0066 20272D66 		.ascii	" '-ffat-lto-objects'\000"
 526      6661742D 
 526      6C746F2D 
 526      6F626A65 
 526      63747327 
 527              		.text
 528              		.cfi_sections	.debug_frame
 529              		.section	.text.P2_3_Start,"ax",%progbits
 530              		.align	2
 531              		.global	P2_3_Start
 532              		.thumb
 533              		.thumb_func
 534              		.type	P2_3_Start, %function
 535              	P2_3_Start:
 536              	.LFB0:
 537              		.file 1 ".\\Generated_Source\\PSoC5\\P2_3.c"
   1:.\Generated_Source\PSoC5/P2_3.c **** /*******************************************************************************
   2:.\Generated_Source\PSoC5/P2_3.c **** * File Name: P2_3.c
   3:.\Generated_Source\PSoC5/P2_3.c **** * Version 2.30
   4:.\Generated_Source\PSoC5/P2_3.c **** *
   5:.\Generated_Source\PSoC5/P2_3.c **** * Description:
   6:.\Generated_Source\PSoC5/P2_3.c **** *  This file provides the API source code for the Shift Register component.
   7:.\Generated_Source\PSoC5/P2_3.c **** *
   8:.\Generated_Source\PSoC5/P2_3.c **** * Note: none
   9:.\Generated_Source\PSoC5/P2_3.c **** *
  10:.\Generated_Source\PSoC5/P2_3.c **** ********************************************************************************
  11:.\Generated_Source\PSoC5/P2_3.c **** * Copyright 2008-2013, Cypress Semiconductor Corporation.  All rights reserved.
  12:.\Generated_Source\PSoC5/P2_3.c **** * You may use this file only in accordance with the license, terms, conditions,
ARM GAS  C:\Users\Thomas\AppData\Local\Temp\ccYahyoq.s 			page 41


  13:.\Generated_Source\PSoC5/P2_3.c **** * disclaimers, and limitations in the end user license agreement accompanying
  14:.\Generated_Source\PSoC5/P2_3.c **** * the software package with which this file was provided.
  15:.\Generated_Source\PSoC5/P2_3.c **** ********************************************************************************/
  16:.\Generated_Source\PSoC5/P2_3.c **** 
  17:.\Generated_Source\PSoC5/P2_3.c **** #include "P2_3.h"
  18:.\Generated_Source\PSoC5/P2_3.c **** 
  19:.\Generated_Source\PSoC5/P2_3.c **** uint8 P2_3_initVar = 0u;
  20:.\Generated_Source\PSoC5/P2_3.c **** 
  21:.\Generated_Source\PSoC5/P2_3.c **** 
  22:.\Generated_Source\PSoC5/P2_3.c **** /*******************************************************************************
  23:.\Generated_Source\PSoC5/P2_3.c **** * Function Name: P2_3_Start
  24:.\Generated_Source\PSoC5/P2_3.c **** ********************************************************************************
  25:.\Generated_Source\PSoC5/P2_3.c **** *
  26:.\Generated_Source\PSoC5/P2_3.c **** * Summary:
  27:.\Generated_Source\PSoC5/P2_3.c **** *  Starts the Shift Register.
  28:.\Generated_Source\PSoC5/P2_3.c **** *
  29:.\Generated_Source\PSoC5/P2_3.c **** * Parameters:
  30:.\Generated_Source\PSoC5/P2_3.c **** *  None.
  31:.\Generated_Source\PSoC5/P2_3.c **** *
  32:.\Generated_Source\PSoC5/P2_3.c **** * Return:
  33:.\Generated_Source\PSoC5/P2_3.c **** *  None.
  34:.\Generated_Source\PSoC5/P2_3.c **** *
  35:.\Generated_Source\PSoC5/P2_3.c **** * Global Variables:
  36:.\Generated_Source\PSoC5/P2_3.c **** *  P2_3_initVar - used to check initial configuration, modified on
  37:.\Generated_Source\PSoC5/P2_3.c **** *  first function call.
  38:.\Generated_Source\PSoC5/P2_3.c **** *
  39:.\Generated_Source\PSoC5/P2_3.c **** * Reentrant:
  40:.\Generated_Source\PSoC5/P2_3.c **** *  No.
  41:.\Generated_Source\PSoC5/P2_3.c **** *
  42:.\Generated_Source\PSoC5/P2_3.c **** *******************************************************************************/
  43:.\Generated_Source\PSoC5/P2_3.c **** void P2_3_Start(void) 
  44:.\Generated_Source\PSoC5/P2_3.c **** {
 538              		.loc 1 44 0
 539              		.cfi_startproc
 540              		@ args = 0, pretend = 0, frame = 0
 541              		@ frame_needed = 0, uses_anonymous_args = 0
 542 0000 08B5     		push	{r3, lr}
 543              		.cfi_def_cfa_offset 8
 544              		.cfi_offset 3, -8
 545              		.cfi_offset 14, -4
  45:.\Generated_Source\PSoC5/P2_3.c ****     if(0u == P2_3_initVar)
 546              		.loc 1 45 0
 547 0002 0E4A     		ldr	r2, .L5
 548 0004 1378     		ldrb	r3, [r2]	@ zero_extendqisi2
 549 0006 4BB9     		cbnz	r3, .L2
 550              	.LVL0:
 551              	.LBB19:
 552              	.LBB20:
 553              	.LBB21:
  46:.\Generated_Source\PSoC5/P2_3.c ****     {
  47:.\Generated_Source\PSoC5/P2_3.c ****         P2_3_Init();
  48:.\Generated_Source\PSoC5/P2_3.c ****         P2_3_initVar = 1u; /* Component initialized */
  49:.\Generated_Source\PSoC5/P2_3.c ****     }
  50:.\Generated_Source\PSoC5/P2_3.c **** 
  51:.\Generated_Source\PSoC5/P2_3.c ****     P2_3_Enable();
  52:.\Generated_Source\PSoC5/P2_3.c **** }
  53:.\Generated_Source\PSoC5/P2_3.c **** 
ARM GAS  C:\Users\Thomas\AppData\Local\Temp\ccYahyoq.s 			page 42


  54:.\Generated_Source\PSoC5/P2_3.c **** 
  55:.\Generated_Source\PSoC5/P2_3.c **** /*******************************************************************************
  56:.\Generated_Source\PSoC5/P2_3.c **** * Function Name: P2_3_Enable
  57:.\Generated_Source\PSoC5/P2_3.c **** ********************************************************************************
  58:.\Generated_Source\PSoC5/P2_3.c **** *
  59:.\Generated_Source\PSoC5/P2_3.c **** * Summary:
  60:.\Generated_Source\PSoC5/P2_3.c **** *  Enables the Shift Register.
  61:.\Generated_Source\PSoC5/P2_3.c **** *
  62:.\Generated_Source\PSoC5/P2_3.c **** * Parameters:
  63:.\Generated_Source\PSoC5/P2_3.c **** *  void.
  64:.\Generated_Source\PSoC5/P2_3.c **** *
  65:.\Generated_Source\PSoC5/P2_3.c **** * Return:
  66:.\Generated_Source\PSoC5/P2_3.c **** *  void.
  67:.\Generated_Source\PSoC5/P2_3.c **** *
  68:.\Generated_Source\PSoC5/P2_3.c **** *******************************************************************************/
  69:.\Generated_Source\PSoC5/P2_3.c **** void P2_3_Enable(void) 
  70:.\Generated_Source\PSoC5/P2_3.c **** {
  71:.\Generated_Source\PSoC5/P2_3.c ****     /* Changing address in Datapath Control Store
  72:.\Generated_Source\PSoC5/P2_3.c ****        from NOP to component state machine commands space */
  73:.\Generated_Source\PSoC5/P2_3.c ****     P2_3_SR_CONTROL |= P2_3_CLK_EN;
  74:.\Generated_Source\PSoC5/P2_3.c **** 
  75:.\Generated_Source\PSoC5/P2_3.c ****     P2_3_EnableInt();
  76:.\Generated_Source\PSoC5/P2_3.c **** }
  77:.\Generated_Source\PSoC5/P2_3.c **** 
  78:.\Generated_Source\PSoC5/P2_3.c **** 
  79:.\Generated_Source\PSoC5/P2_3.c **** /*******************************************************************************
  80:.\Generated_Source\PSoC5/P2_3.c **** * Function Name: P2_3_Init
  81:.\Generated_Source\PSoC5/P2_3.c **** ********************************************************************************
  82:.\Generated_Source\PSoC5/P2_3.c **** *
  83:.\Generated_Source\PSoC5/P2_3.c **** * Summary:
  84:.\Generated_Source\PSoC5/P2_3.c **** *  Initializes Tx and/or Rx interrupt sources with initial values.
  85:.\Generated_Source\PSoC5/P2_3.c **** *
  86:.\Generated_Source\PSoC5/P2_3.c **** * Parameters:
  87:.\Generated_Source\PSoC5/P2_3.c **** *  void.
  88:.\Generated_Source\PSoC5/P2_3.c **** *
  89:.\Generated_Source\PSoC5/P2_3.c **** * Return:
  90:.\Generated_Source\PSoC5/P2_3.c **** *  void.
  91:.\Generated_Source\PSoC5/P2_3.c **** *
  92:.\Generated_Source\PSoC5/P2_3.c **** *******************************************************************************/
  93:.\Generated_Source\PSoC5/P2_3.c **** void P2_3_Init(void) 
  94:.\Generated_Source\PSoC5/P2_3.c **** {
  95:.\Generated_Source\PSoC5/P2_3.c ****     P2_3_SetIntMode(P2_3_INT_SRC);
  96:.\Generated_Source\PSoC5/P2_3.c **** }
  97:.\Generated_Source\PSoC5/P2_3.c **** 
  98:.\Generated_Source\PSoC5/P2_3.c **** 
  99:.\Generated_Source\PSoC5/P2_3.c **** /*******************************************************************************
 100:.\Generated_Source\PSoC5/P2_3.c **** * Function Name: P2_3_Stop
 101:.\Generated_Source\PSoC5/P2_3.c **** ********************************************************************************
 102:.\Generated_Source\PSoC5/P2_3.c **** *
 103:.\Generated_Source\PSoC5/P2_3.c **** * Summary:
 104:.\Generated_Source\PSoC5/P2_3.c **** *  Disables the Shift Register
 105:.\Generated_Source\PSoC5/P2_3.c **** *
 106:.\Generated_Source\PSoC5/P2_3.c **** * Parameters:
 107:.\Generated_Source\PSoC5/P2_3.c **** *  None.
 108:.\Generated_Source\PSoC5/P2_3.c **** *
 109:.\Generated_Source\PSoC5/P2_3.c **** * Return:
 110:.\Generated_Source\PSoC5/P2_3.c **** *  None.
ARM GAS  C:\Users\Thomas\AppData\Local\Temp\ccYahyoq.s 			page 43


 111:.\Generated_Source\PSoC5/P2_3.c **** *
 112:.\Generated_Source\PSoC5/P2_3.c **** *******************************************************************************/
 113:.\Generated_Source\PSoC5/P2_3.c **** void P2_3_Stop(void) 
 114:.\Generated_Source\PSoC5/P2_3.c **** {
 115:.\Generated_Source\PSoC5/P2_3.c ****     /*changing Datapath Control Store address to NOP space*/
 116:.\Generated_Source\PSoC5/P2_3.c ****     P2_3_SR_CONTROL &= ((uint8) ~P2_3_CLK_EN);
 117:.\Generated_Source\PSoC5/P2_3.c ****     P2_3_DisableInt();
 118:.\Generated_Source\PSoC5/P2_3.c **** }
 119:.\Generated_Source\PSoC5/P2_3.c **** 
 120:.\Generated_Source\PSoC5/P2_3.c **** 
 121:.\Generated_Source\PSoC5/P2_3.c **** /*******************************************************************************
 122:.\Generated_Source\PSoC5/P2_3.c **** * Function Name: P2_3_EnableInt
 123:.\Generated_Source\PSoC5/P2_3.c **** ********************************************************************************
 124:.\Generated_Source\PSoC5/P2_3.c **** *
 125:.\Generated_Source\PSoC5/P2_3.c **** * Summary:
 126:.\Generated_Source\PSoC5/P2_3.c **** *  Enables the Shift Register interrupt.
 127:.\Generated_Source\PSoC5/P2_3.c **** *
 128:.\Generated_Source\PSoC5/P2_3.c **** * Parameters:
 129:.\Generated_Source\PSoC5/P2_3.c **** *  None.
 130:.\Generated_Source\PSoC5/P2_3.c **** *
 131:.\Generated_Source\PSoC5/P2_3.c **** * Return:
 132:.\Generated_Source\PSoC5/P2_3.c **** *  None.
 133:.\Generated_Source\PSoC5/P2_3.c **** *
 134:.\Generated_Source\PSoC5/P2_3.c **** *******************************************************************************/
 135:.\Generated_Source\PSoC5/P2_3.c **** void P2_3_EnableInt(void) 
 136:.\Generated_Source\PSoC5/P2_3.c **** {
 137:.\Generated_Source\PSoC5/P2_3.c ****     uint8 interruptState;
 138:.\Generated_Source\PSoC5/P2_3.c **** 
 139:.\Generated_Source\PSoC5/P2_3.c ****     interruptState = CyEnterCriticalSection();
 140:.\Generated_Source\PSoC5/P2_3.c ****     P2_3_SR_AUX_CONTROL |= P2_3_INTERRUPTS_ENABLE;
 141:.\Generated_Source\PSoC5/P2_3.c ****     CyExitCriticalSection(interruptState);
 142:.\Generated_Source\PSoC5/P2_3.c **** }
 143:.\Generated_Source\PSoC5/P2_3.c **** 
 144:.\Generated_Source\PSoC5/P2_3.c **** 
 145:.\Generated_Source\PSoC5/P2_3.c **** /*******************************************************************************
 146:.\Generated_Source\PSoC5/P2_3.c **** * Function Name: P2_3_DisableInt
 147:.\Generated_Source\PSoC5/P2_3.c **** ********************************************************************************
 148:.\Generated_Source\PSoC5/P2_3.c **** *
 149:.\Generated_Source\PSoC5/P2_3.c **** * Summary:
 150:.\Generated_Source\PSoC5/P2_3.c **** *  Disables the Shift Register interrupt.
 151:.\Generated_Source\PSoC5/P2_3.c **** *
 152:.\Generated_Source\PSoC5/P2_3.c **** * Parameters:
 153:.\Generated_Source\PSoC5/P2_3.c **** *  None.
 154:.\Generated_Source\PSoC5/P2_3.c **** *
 155:.\Generated_Source\PSoC5/P2_3.c **** * Return:
 156:.\Generated_Source\PSoC5/P2_3.c **** *  None.
 157:.\Generated_Source\PSoC5/P2_3.c **** *
 158:.\Generated_Source\PSoC5/P2_3.c **** *******************************************************************************/
 159:.\Generated_Source\PSoC5/P2_3.c **** void P2_3_DisableInt(void) 
 160:.\Generated_Source\PSoC5/P2_3.c **** {
 161:.\Generated_Source\PSoC5/P2_3.c ****     uint8 interruptState;
 162:.\Generated_Source\PSoC5/P2_3.c **** 
 163:.\Generated_Source\PSoC5/P2_3.c ****     interruptState = CyEnterCriticalSection();
 164:.\Generated_Source\PSoC5/P2_3.c ****     P2_3_SR_AUX_CONTROL &= ((uint8) ~P2_3_INTERRUPTS_ENABLE);
 165:.\Generated_Source\PSoC5/P2_3.c ****     CyExitCriticalSection(interruptState);
 166:.\Generated_Source\PSoC5/P2_3.c **** }
 167:.\Generated_Source\PSoC5/P2_3.c **** 
ARM GAS  C:\Users\Thomas\AppData\Local\Temp\ccYahyoq.s 			page 44


 168:.\Generated_Source\PSoC5/P2_3.c **** 
 169:.\Generated_Source\PSoC5/P2_3.c **** /*******************************************************************************
 170:.\Generated_Source\PSoC5/P2_3.c **** * Function Name: P2_3_GetFIFOStatus
 171:.\Generated_Source\PSoC5/P2_3.c **** ********************************************************************************
 172:.\Generated_Source\PSoC5/P2_3.c **** *
 173:.\Generated_Source\PSoC5/P2_3.c **** * Summary:
 174:.\Generated_Source\PSoC5/P2_3.c **** *  Returns current status of input or output FIFO.
 175:.\Generated_Source\PSoC5/P2_3.c **** *
 176:.\Generated_Source\PSoC5/P2_3.c **** * Parameters:
 177:.\Generated_Source\PSoC5/P2_3.c **** *  fifoId.
 178:.\Generated_Source\PSoC5/P2_3.c **** *
 179:.\Generated_Source\PSoC5/P2_3.c **** * Return:
 180:.\Generated_Source\PSoC5/P2_3.c **** *  FIFO status.
 181:.\Generated_Source\PSoC5/P2_3.c **** *
 182:.\Generated_Source\PSoC5/P2_3.c **** *******************************************************************************/
 183:.\Generated_Source\PSoC5/P2_3.c **** uint8 P2_3_GetFIFOStatus(uint8 fifoId) 
 184:.\Generated_Source\PSoC5/P2_3.c **** {
 185:.\Generated_Source\PSoC5/P2_3.c ****     uint8 result;
 186:.\Generated_Source\PSoC5/P2_3.c **** 
 187:.\Generated_Source\PSoC5/P2_3.c ****     result = P2_3_RET_FIFO_NOT_DEFINED;
 188:.\Generated_Source\PSoC5/P2_3.c **** 
 189:.\Generated_Source\PSoC5/P2_3.c ****     #if(0u != P2_3_USE_INPUT_FIFO)
 190:.\Generated_Source\PSoC5/P2_3.c ****         if(P2_3_IN_FIFO == fifoId)
 191:.\Generated_Source\PSoC5/P2_3.c ****         {
 192:.\Generated_Source\PSoC5/P2_3.c ****             switch(P2_3_GET_IN_FIFO_STS)
 193:.\Generated_Source\PSoC5/P2_3.c ****             {
 194:.\Generated_Source\PSoC5/P2_3.c ****                 case P2_3_IN_FIFO_FULL :
 195:.\Generated_Source\PSoC5/P2_3.c ****                     result = P2_3_RET_FIFO_FULL;
 196:.\Generated_Source\PSoC5/P2_3.c ****                     break;
 197:.\Generated_Source\PSoC5/P2_3.c **** 
 198:.\Generated_Source\PSoC5/P2_3.c ****                 case P2_3_IN_FIFO_EMPTY :
 199:.\Generated_Source\PSoC5/P2_3.c ****                     result = P2_3_RET_FIFO_EMPTY;
 200:.\Generated_Source\PSoC5/P2_3.c ****                     break;
 201:.\Generated_Source\PSoC5/P2_3.c **** 
 202:.\Generated_Source\PSoC5/P2_3.c ****                 case P2_3_IN_FIFO_PARTIAL:
 203:.\Generated_Source\PSoC5/P2_3.c ****                     result = P2_3_RET_FIFO_PARTIAL;
 204:.\Generated_Source\PSoC5/P2_3.c ****                     break;
 205:.\Generated_Source\PSoC5/P2_3.c ****                     
 206:.\Generated_Source\PSoC5/P2_3.c ****                 default:
 207:.\Generated_Source\PSoC5/P2_3.c ****                     /* Initial result value, while 
 208:.\Generated_Source\PSoC5/P2_3.c ****                        IN_FIFO_EMPTY case is false 
 209:.\Generated_Source\PSoC5/P2_3.c ****                      */
 210:.\Generated_Source\PSoC5/P2_3.c ****                     result = P2_3_RET_FIFO_EMPTY;
 211:.\Generated_Source\PSoC5/P2_3.c ****                     break;
 212:.\Generated_Source\PSoC5/P2_3.c ****             }   
 213:.\Generated_Source\PSoC5/P2_3.c ****         }
 214:.\Generated_Source\PSoC5/P2_3.c ****     #endif /* (0u != P2_3_USE_INPUT_FIFO) */
 215:.\Generated_Source\PSoC5/P2_3.c **** 
 216:.\Generated_Source\PSoC5/P2_3.c ****     if(P2_3_OUT_FIFO == fifoId)
 217:.\Generated_Source\PSoC5/P2_3.c ****     {
 218:.\Generated_Source\PSoC5/P2_3.c ****         switch(P2_3_GET_OUT_FIFO_STS)
 219:.\Generated_Source\PSoC5/P2_3.c ****         {
 220:.\Generated_Source\PSoC5/P2_3.c ****             case P2_3_OUT_FIFO_FULL :
 221:.\Generated_Source\PSoC5/P2_3.c ****                 result = P2_3_RET_FIFO_FULL;
 222:.\Generated_Source\PSoC5/P2_3.c ****                 break;
 223:.\Generated_Source\PSoC5/P2_3.c **** 
 224:.\Generated_Source\PSoC5/P2_3.c ****             case P2_3_OUT_FIFO_EMPTY :
ARM GAS  C:\Users\Thomas\AppData\Local\Temp\ccYahyoq.s 			page 45


 225:.\Generated_Source\PSoC5/P2_3.c ****                 result = P2_3_RET_FIFO_EMPTY;
 226:.\Generated_Source\PSoC5/P2_3.c ****                 break;
 227:.\Generated_Source\PSoC5/P2_3.c **** 
 228:.\Generated_Source\PSoC5/P2_3.c ****             case P2_3_OUT_FIFO_PARTIAL :
 229:.\Generated_Source\PSoC5/P2_3.c ****                 result = P2_3_RET_FIFO_PARTIAL;
 230:.\Generated_Source\PSoC5/P2_3.c ****                 break;
 231:.\Generated_Source\PSoC5/P2_3.c **** 
 232:.\Generated_Source\PSoC5/P2_3.c ****             default:
 233:.\Generated_Source\PSoC5/P2_3.c ****                 /* Initial result value, while 
 234:.\Generated_Source\PSoC5/P2_3.c ****                    OUT_FIFO_FULL case is false 
 235:.\Generated_Source\PSoC5/P2_3.c ****                  */
 236:.\Generated_Source\PSoC5/P2_3.c ****                 result = P2_3_RET_FIFO_FULL;
 237:.\Generated_Source\PSoC5/P2_3.c ****                 break;
 238:.\Generated_Source\PSoC5/P2_3.c ****         }
 239:.\Generated_Source\PSoC5/P2_3.c ****     }
 240:.\Generated_Source\PSoC5/P2_3.c **** 
 241:.\Generated_Source\PSoC5/P2_3.c ****     return(result);
 242:.\Generated_Source\PSoC5/P2_3.c **** }
 243:.\Generated_Source\PSoC5/P2_3.c **** 
 244:.\Generated_Source\PSoC5/P2_3.c **** 
 245:.\Generated_Source\PSoC5/P2_3.c **** /*******************************************************************************
 246:.\Generated_Source\PSoC5/P2_3.c **** * Function Name: P2_3_SetIntMode
 247:.\Generated_Source\PSoC5/P2_3.c **** ********************************************************************************
 248:.\Generated_Source\PSoC5/P2_3.c **** *
 249:.\Generated_Source\PSoC5/P2_3.c **** * Summary:
 250:.\Generated_Source\PSoC5/P2_3.c **** *  Sets the Interrupt Source for the Shift Register interrupt. Multiple
 251:.\Generated_Source\PSoC5/P2_3.c **** *  sources may be ORed together
 252:.\Generated_Source\PSoC5/P2_3.c **** *
 253:.\Generated_Source\PSoC5/P2_3.c **** * Parameters:
 254:.\Generated_Source\PSoC5/P2_3.c **** *  interruptSource: Byte containing the constant for the selected interrupt
 255:.\Generated_Source\PSoC5/P2_3.c **** *  source/s.
 256:.\Generated_Source\PSoC5/P2_3.c **** *
 257:.\Generated_Source\PSoC5/P2_3.c **** * Return:
 258:.\Generated_Source\PSoC5/P2_3.c **** *  None.
 259:.\Generated_Source\PSoC5/P2_3.c **** *
 260:.\Generated_Source\PSoC5/P2_3.c **** *******************************************************************************/
 261:.\Generated_Source\PSoC5/P2_3.c **** void P2_3_SetIntMode(uint8 interruptSource) 
 262:.\Generated_Source\PSoC5/P2_3.c **** {
 263:.\Generated_Source\PSoC5/P2_3.c ****     P2_3_SR_STATUS_MASK &= ((uint8) ~P2_3_INTS_EN_MASK);          /* Clear existing int */
 554              		.loc 1 263 0
 555 0008 0D4B     		ldr	r3, .L5+4
 556              	.LBE21:
 557              	.LBE20:
 558              	.LBE19:
  48:.\Generated_Source\PSoC5/P2_3.c ****     }
 559              		.loc 1 48 0
 560 000a 0120     		movs	r0, #1
 561              	.LBB24:
 562              	.LBB23:
 563              	.LBB22:
 564              		.loc 1 263 0
 565 000c 1978     		ldrb	r1, [r3]	@ zero_extendqisi2
 566 000e 01F0F801 		and	r1, r1, #248
 567 0012 1970     		strb	r1, [r3]
 264:.\Generated_Source\PSoC5/P2_3.c ****     P2_3_SR_STATUS_MASK |= (interruptSource & P2_3_INTS_EN_MASK); /* Set int */
 568              		.loc 1 264 0
 569 0014 1978     		ldrb	r1, [r3]	@ zero_extendqisi2
ARM GAS  C:\Users\Thomas\AppData\Local\Temp\ccYahyoq.s 			page 46


 570 0016 0143     		orrs	r1, r1, r0
 571 0018 1970     		strb	r1, [r3]
 572              	.LBE22:
 573              	.LBE23:
 574              	.LBE24:
  48:.\Generated_Source\PSoC5/P2_3.c ****     }
 575              		.loc 1 48 0
 576 001a 1070     		strb	r0, [r2]
 577              	.LVL1:
 578              	.L2:
 579              	.LBB25:
 580              	.LBB26:
  73:.\Generated_Source\PSoC5/P2_3.c **** 
 581              		.loc 1 73 0
 582 001c 094A     		ldr	r2, .L5+8
 583 001e 1378     		ldrb	r3, [r2]	@ zero_extendqisi2
 584 0020 43F00103 		orr	r3, r3, #1
 585 0024 1370     		strb	r3, [r2]
 586              	.LBB27:
 587              	.LBB28:
 139:.\Generated_Source\PSoC5/P2_3.c ****     P2_3_SR_AUX_CONTROL |= P2_3_INTERRUPTS_ENABLE;
 588              		.loc 1 139 0
 589 0026 FFF7FEFF 		bl	CyEnterCriticalSection
 590              	.LVL2:
 140:.\Generated_Source\PSoC5/P2_3.c ****     CyExitCriticalSection(interruptState);
 591              		.loc 1 140 0
 592 002a 074A     		ldr	r2, .L5+12
 593 002c 1378     		ldrb	r3, [r2]	@ zero_extendqisi2
 594 002e 43F01003 		orr	r3, r3, #16
 595 0032 1370     		strb	r3, [r2]
 596              	.LBE28:
 597              	.LBE27:
 598              	.LBE26:
 599              	.LBE25:
  52:.\Generated_Source\PSoC5/P2_3.c **** 
 600              		.loc 1 52 0
 601 0034 BDE80840 		pop	{r3, lr}
 602              		.cfi_restore 14
 603              		.cfi_restore 3
 604              		.cfi_def_cfa_offset 0
 605              	.LBB32:
 606              	.LBB31:
 607              	.LBB30:
 608              	.LBB29:
 141:.\Generated_Source\PSoC5/P2_3.c **** }
 609              		.loc 1 141 0
 610 0038 FFF7FEBF 		b	CyExitCriticalSection
 611              	.LVL3:
 612              	.L6:
 613              		.align	2
 614              	.L5:
 615 003c 00000000 		.word	.LANCHOR0
 616 0040 85650040 		.word	1073767813
 617 0044 75650040 		.word	1073767797
 618 0048 95650040 		.word	1073767829
 619              	.LBE29:
 620              	.LBE30:
ARM GAS  C:\Users\Thomas\AppData\Local\Temp\ccYahyoq.s 			page 47


 621              	.LBE31:
 622              	.LBE32:
 623              		.cfi_endproc
 624              	.LFE0:
 625              		.size	P2_3_Start, .-P2_3_Start
 626              		.section	.text.P2_3_Enable,"ax",%progbits
 627              		.align	2
 628              		.global	P2_3_Enable
 629              		.thumb
 630              		.thumb_func
 631              		.type	P2_3_Enable, %function
 632              	P2_3_Enable:
 633              	.LFB1:
  70:.\Generated_Source\PSoC5/P2_3.c ****     /* Changing address in Datapath Control Store
 634              		.loc 1 70 0
 635              		.cfi_startproc
 636              		@ args = 0, pretend = 0, frame = 0
 637              		@ frame_needed = 0, uses_anonymous_args = 0
 638 0000 08B5     		push	{r3, lr}
 639              		.cfi_def_cfa_offset 8
 640              		.cfi_offset 3, -8
 641              		.cfi_offset 14, -4
  73:.\Generated_Source\PSoC5/P2_3.c **** 
 642              		.loc 1 73 0
 643 0002 084A     		ldr	r2, .L9
 644 0004 1378     		ldrb	r3, [r2]	@ zero_extendqisi2
 645 0006 43F00103 		orr	r3, r3, #1
 646 000a 1370     		strb	r3, [r2]
 647              	.LBB35:
 648              	.LBB36:
 139:.\Generated_Source\PSoC5/P2_3.c ****     P2_3_SR_AUX_CONTROL |= P2_3_INTERRUPTS_ENABLE;
 649              		.loc 1 139 0
 650 000c FFF7FEFF 		bl	CyEnterCriticalSection
 651              	.LVL4:
 140:.\Generated_Source\PSoC5/P2_3.c ****     CyExitCriticalSection(interruptState);
 652              		.loc 1 140 0
 653 0010 054A     		ldr	r2, .L9+4
 654 0012 1378     		ldrb	r3, [r2]	@ zero_extendqisi2
 655 0014 43F01003 		orr	r3, r3, #16
 656 0018 1370     		strb	r3, [r2]
 657              	.LBE36:
 658              	.LBE35:
  76:.\Generated_Source\PSoC5/P2_3.c **** 
 659              		.loc 1 76 0
 660 001a BDE80840 		pop	{r3, lr}
 661              		.cfi_restore 14
 662              		.cfi_restore 3
 663              		.cfi_def_cfa_offset 0
 664              	.LBB38:
 665              	.LBB37:
 141:.\Generated_Source\PSoC5/P2_3.c **** }
 666              		.loc 1 141 0
 667 001e FFF7FEBF 		b	CyExitCriticalSection
 668              	.LVL5:
 669              	.L10:
 670 0022 00BF     		.align	2
 671              	.L9:
ARM GAS  C:\Users\Thomas\AppData\Local\Temp\ccYahyoq.s 			page 48


 672 0024 75650040 		.word	1073767797
 673 0028 95650040 		.word	1073767829
 674              	.LBE37:
 675              	.LBE38:
 676              		.cfi_endproc
 677              	.LFE1:
 678              		.size	P2_3_Enable, .-P2_3_Enable
 679              		.section	.text.P2_3_Init,"ax",%progbits
 680              		.align	2
 681              		.global	P2_3_Init
 682              		.thumb
 683              		.thumb_func
 684              		.type	P2_3_Init, %function
 685              	P2_3_Init:
 686              	.LFB2:
  94:.\Generated_Source\PSoC5/P2_3.c ****     P2_3_SetIntMode(P2_3_INT_SRC);
 687              		.loc 1 94 0
 688              		.cfi_startproc
 689              		@ args = 0, pretend = 0, frame = 0
 690              		@ frame_needed = 0, uses_anonymous_args = 0
 691              		@ link register save eliminated.
 692              	.LVL6:
 693              	.LBB39:
 694              	.LBB40:
 263:.\Generated_Source\PSoC5/P2_3.c ****     P2_3_SR_STATUS_MASK |= (interruptSource & P2_3_INTS_EN_MASK); /* Set int */
 695              		.loc 1 263 0
 696 0000 044B     		ldr	r3, .L12
 697 0002 1A78     		ldrb	r2, [r3]	@ zero_extendqisi2
 698 0004 02F0F802 		and	r2, r2, #248
 699 0008 1A70     		strb	r2, [r3]
 700              		.loc 1 264 0
 701 000a 1A78     		ldrb	r2, [r3]	@ zero_extendqisi2
 702 000c 42F00102 		orr	r2, r2, #1
 703 0010 1A70     		strb	r2, [r3]
 704 0012 7047     		bx	lr
 705              	.L13:
 706              		.align	2
 707              	.L12:
 708 0014 85650040 		.word	1073767813
 709              	.LBE40:
 710              	.LBE39:
 711              		.cfi_endproc
 712              	.LFE2:
 713              		.size	P2_3_Init, .-P2_3_Init
 714              		.section	.text.P2_3_Stop,"ax",%progbits
 715              		.align	2
 716              		.global	P2_3_Stop
 717              		.thumb
 718              		.thumb_func
 719              		.type	P2_3_Stop, %function
 720              	P2_3_Stop:
 721              	.LFB3:
 114:.\Generated_Source\PSoC5/P2_3.c ****     /*changing Datapath Control Store address to NOP space*/
 722              		.loc 1 114 0
 723              		.cfi_startproc
 724              		@ args = 0, pretend = 0, frame = 0
 725              		@ frame_needed = 0, uses_anonymous_args = 0
ARM GAS  C:\Users\Thomas\AppData\Local\Temp\ccYahyoq.s 			page 49


 726 0000 08B5     		push	{r3, lr}
 727              		.cfi_def_cfa_offset 8
 728              		.cfi_offset 3, -8
 729              		.cfi_offset 14, -4
 116:.\Generated_Source\PSoC5/P2_3.c ****     P2_3_DisableInt();
 730              		.loc 1 116 0
 731 0002 084A     		ldr	r2, .L16
 732 0004 1378     		ldrb	r3, [r2]	@ zero_extendqisi2
 733 0006 03F0FE03 		and	r3, r3, #254
 734 000a 1370     		strb	r3, [r2]
 735              	.LBB43:
 736              	.LBB44:
 163:.\Generated_Source\PSoC5/P2_3.c ****     P2_3_SR_AUX_CONTROL &= ((uint8) ~P2_3_INTERRUPTS_ENABLE);
 737              		.loc 1 163 0
 738 000c FFF7FEFF 		bl	CyEnterCriticalSection
 739              	.LVL7:
 164:.\Generated_Source\PSoC5/P2_3.c ****     CyExitCriticalSection(interruptState);
 740              		.loc 1 164 0
 741 0010 054A     		ldr	r2, .L16+4
 742 0012 1378     		ldrb	r3, [r2]	@ zero_extendqisi2
 743 0014 03F0EF03 		and	r3, r3, #239
 744 0018 1370     		strb	r3, [r2]
 745              	.LBE44:
 746              	.LBE43:
 118:.\Generated_Source\PSoC5/P2_3.c **** 
 747              		.loc 1 118 0
 748 001a BDE80840 		pop	{r3, lr}
 749              		.cfi_restore 14
 750              		.cfi_restore 3
 751              		.cfi_def_cfa_offset 0
 752              	.LBB46:
 753              	.LBB45:
 165:.\Generated_Source\PSoC5/P2_3.c **** }
 754              		.loc 1 165 0
 755 001e FFF7FEBF 		b	CyExitCriticalSection
 756              	.LVL8:
 757              	.L17:
 758 0022 00BF     		.align	2
 759              	.L16:
 760 0024 75650040 		.word	1073767797
 761 0028 95650040 		.word	1073767829
 762              	.LBE45:
 763              	.LBE46:
 764              		.cfi_endproc
 765              	.LFE3:
 766              		.size	P2_3_Stop, .-P2_3_Stop
 767              		.section	.text.P2_3_EnableInt,"ax",%progbits
 768              		.align	2
 769              		.global	P2_3_EnableInt
 770              		.thumb
 771              		.thumb_func
 772              		.type	P2_3_EnableInt, %function
 773              	P2_3_EnableInt:
 774              	.LFB4:
 136:.\Generated_Source\PSoC5/P2_3.c ****     uint8 interruptState;
 775              		.loc 1 136 0
 776              		.cfi_startproc
ARM GAS  C:\Users\Thomas\AppData\Local\Temp\ccYahyoq.s 			page 50


 777              		@ args = 0, pretend = 0, frame = 0
 778              		@ frame_needed = 0, uses_anonymous_args = 0
 779 0000 08B5     		push	{r3, lr}
 780              		.cfi_def_cfa_offset 8
 781              		.cfi_offset 3, -8
 782              		.cfi_offset 14, -4
 139:.\Generated_Source\PSoC5/P2_3.c ****     P2_3_SR_AUX_CONTROL |= P2_3_INTERRUPTS_ENABLE;
 783              		.loc 1 139 0
 784 0002 FFF7FEFF 		bl	CyEnterCriticalSection
 785              	.LVL9:
 140:.\Generated_Source\PSoC5/P2_3.c ****     CyExitCriticalSection(interruptState);
 786              		.loc 1 140 0
 787 0006 044A     		ldr	r2, .L20
 788 0008 1378     		ldrb	r3, [r2]	@ zero_extendqisi2
 789 000a 43F01003 		orr	r3, r3, #16
 790 000e 1370     		strb	r3, [r2]
 142:.\Generated_Source\PSoC5/P2_3.c **** 
 791              		.loc 1 142 0
 792 0010 BDE80840 		pop	{r3, lr}
 793              		.cfi_restore 14
 794              		.cfi_restore 3
 795              		.cfi_def_cfa_offset 0
 141:.\Generated_Source\PSoC5/P2_3.c **** }
 796              		.loc 1 141 0
 797 0014 FFF7FEBF 		b	CyExitCriticalSection
 798              	.LVL10:
 799              	.L21:
 800              		.align	2
 801              	.L20:
 802 0018 95650040 		.word	1073767829
 803              		.cfi_endproc
 804              	.LFE4:
 805              		.size	P2_3_EnableInt, .-P2_3_EnableInt
 806              		.section	.text.P2_3_DisableInt,"ax",%progbits
 807              		.align	2
 808              		.global	P2_3_DisableInt
 809              		.thumb
 810              		.thumb_func
 811              		.type	P2_3_DisableInt, %function
 812              	P2_3_DisableInt:
 813              	.LFB5:
 160:.\Generated_Source\PSoC5/P2_3.c ****     uint8 interruptState;
 814              		.loc 1 160 0
 815              		.cfi_startproc
 816              		@ args = 0, pretend = 0, frame = 0
 817              		@ frame_needed = 0, uses_anonymous_args = 0
 818 0000 08B5     		push	{r3, lr}
 819              		.cfi_def_cfa_offset 8
 820              		.cfi_offset 3, -8
 821              		.cfi_offset 14, -4
 163:.\Generated_Source\PSoC5/P2_3.c ****     P2_3_SR_AUX_CONTROL &= ((uint8) ~P2_3_INTERRUPTS_ENABLE);
 822              		.loc 1 163 0
 823 0002 FFF7FEFF 		bl	CyEnterCriticalSection
 824              	.LVL11:
 164:.\Generated_Source\PSoC5/P2_3.c ****     CyExitCriticalSection(interruptState);
 825              		.loc 1 164 0
 826 0006 044A     		ldr	r2, .L24
ARM GAS  C:\Users\Thomas\AppData\Local\Temp\ccYahyoq.s 			page 51


 827 0008 1378     		ldrb	r3, [r2]	@ zero_extendqisi2
 828 000a 03F0EF03 		and	r3, r3, #239
 829 000e 1370     		strb	r3, [r2]
 166:.\Generated_Source\PSoC5/P2_3.c **** 
 830              		.loc 1 166 0
 831 0010 BDE80840 		pop	{r3, lr}
 832              		.cfi_restore 14
 833              		.cfi_restore 3
 834              		.cfi_def_cfa_offset 0
 165:.\Generated_Source\PSoC5/P2_3.c **** }
 835              		.loc 1 165 0
 836 0014 FFF7FEBF 		b	CyExitCriticalSection
 837              	.LVL12:
 838              	.L25:
 839              		.align	2
 840              	.L24:
 841 0018 95650040 		.word	1073767829
 842              		.cfi_endproc
 843              	.LFE5:
 844              		.size	P2_3_DisableInt, .-P2_3_DisableInt
 845              		.section	.text.P2_3_GetFIFOStatus,"ax",%progbits
 846              		.align	2
 847              		.global	P2_3_GetFIFOStatus
 848              		.thumb
 849              		.thumb_func
 850              		.type	P2_3_GetFIFOStatus, %function
 851              	P2_3_GetFIFOStatus:
 852              	.LFB6:
 184:.\Generated_Source\PSoC5/P2_3.c ****     uint8 result;
 853              		.loc 1 184 0
 854              		.cfi_startproc
 855              		@ args = 0, pretend = 0, frame = 0
 856              		@ frame_needed = 0, uses_anonymous_args = 0
 857              		@ link register save eliminated.
 858              	.LVL13:
 216:.\Generated_Source\PSoC5/P2_3.c ****     {
 859              		.loc 1 216 0
 860 0000 0228     		cmp	r0, #2
 861 0002 01D0     		beq	.L32
 187:.\Generated_Source\PSoC5/P2_3.c **** 
 862              		.loc 1 187 0
 863 0004 FE20     		movs	r0, #254
 864              	.LVL14:
 865              	.L27:
 242:.\Generated_Source\PSoC5/P2_3.c **** 
 866              		.loc 1 242 0
 867 0006 7047     		bx	lr
 868              	.LVL15:
 869              	.L32:
 870              	.LBB49:
 871              	.LBB50:
 218:.\Generated_Source\PSoC5/P2_3.c ****         {
 872              		.loc 1 218 0
 873 0008 054B     		ldr	r3, .L33
 874 000a 1B78     		ldrb	r3, [r3]	@ zero_extendqisi2
 875 000c C3F34113 		ubfx	r3, r3, #5, #2
 876 0010 002B     		cmp	r3, #0
ARM GAS  C:\Users\Thomas\AppData\Local\Temp\ccYahyoq.s 			page 52


 877 0012 F8D0     		beq	.L27
 221:.\Generated_Source\PSoC5/P2_3.c ****                 break;
 878              		.loc 1 221 0
 879 0014 A3F10200 		sub	r0, r3, #2
 880              	.LVL16:
 881 0018 B0FA80F0 		clz	r0, r0
 882 001c 4009     		lsrs	r0, r0, #5
 883 001e 7047     		bx	lr
 884              	.L34:
 885              		.align	2
 886              	.L33:
 887 0020 65650040 		.word	1073767781
 888              	.LBE50:
 889              	.LBE49:
 890              		.cfi_endproc
 891              	.LFE6:
 892              		.size	P2_3_GetFIFOStatus, .-P2_3_GetFIFOStatus
 893              		.section	.text.P2_3_SetIntMode,"ax",%progbits
 894              		.align	2
 895              		.global	P2_3_SetIntMode
 896              		.thumb
 897              		.thumb_func
 898              		.type	P2_3_SetIntMode, %function
 899              	P2_3_SetIntMode:
 900              	.LFB7:
 262:.\Generated_Source\PSoC5/P2_3.c ****     P2_3_SR_STATUS_MASK &= ((uint8) ~P2_3_INTS_EN_MASK);          /* Clear existing int */
 901              		.loc 1 262 0
 902              		.cfi_startproc
 903              		@ args = 0, pretend = 0, frame = 0
 904              		@ frame_needed = 0, uses_anonymous_args = 0
 905              		@ link register save eliminated.
 906              	.LVL17:
 263:.\Generated_Source\PSoC5/P2_3.c ****     P2_3_SR_STATUS_MASK |= (interruptSource & P2_3_INTS_EN_MASK); /* Set int */
 907              		.loc 1 263 0
 908 0000 054B     		ldr	r3, .L36
 909              		.loc 1 264 0
 910 0002 00F00700 		and	r0, r0, #7
 911              	.LVL18:
 263:.\Generated_Source\PSoC5/P2_3.c ****     P2_3_SR_STATUS_MASK |= (interruptSource & P2_3_INTS_EN_MASK); /* Set int */
 912              		.loc 1 263 0
 913 0006 1A78     		ldrb	r2, [r3]	@ zero_extendqisi2
 914 0008 02F0F802 		and	r2, r2, #248
 915 000c 1A70     		strb	r2, [r3]
 916              		.loc 1 264 0
 917 000e 1A78     		ldrb	r2, [r3]	@ zero_extendqisi2
 918 0010 1043     		orrs	r0, r0, r2
 919 0012 1870     		strb	r0, [r3]
 920 0014 7047     		bx	lr
 921              	.L37:
 922 0016 00BF     		.align	2
 923              	.L36:
 924 0018 85650040 		.word	1073767813
 925              		.cfi_endproc
 926              	.LFE7:
 927              		.size	P2_3_SetIntMode, .-P2_3_SetIntMode
 928              		.section	.text.P2_3_GetIntStatus,"ax",%progbits
 929              		.align	2
ARM GAS  C:\Users\Thomas\AppData\Local\Temp\ccYahyoq.s 			page 53


 930              		.global	P2_3_GetIntStatus
 931              		.thumb
 932              		.thumb_func
 933              		.type	P2_3_GetIntStatus, %function
 934              	P2_3_GetIntStatus:
 935              	.LFB8:
 265:.\Generated_Source\PSoC5/P2_3.c **** }
 266:.\Generated_Source\PSoC5/P2_3.c **** 
 267:.\Generated_Source\PSoC5/P2_3.c **** 
 268:.\Generated_Source\PSoC5/P2_3.c **** /*******************************************************************************
 269:.\Generated_Source\PSoC5/P2_3.c **** * Function Name: P2_3_GetIntStatus
 270:.\Generated_Source\PSoC5/P2_3.c **** ********************************************************************************
 271:.\Generated_Source\PSoC5/P2_3.c **** *
 272:.\Generated_Source\PSoC5/P2_3.c **** * Summary:
 273:.\Generated_Source\PSoC5/P2_3.c **** *  Gets the Shift Register Interrupt status.
 274:.\Generated_Source\PSoC5/P2_3.c **** *
 275:.\Generated_Source\PSoC5/P2_3.c **** * Parameters:
 276:.\Generated_Source\PSoC5/P2_3.c **** *  None.
 277:.\Generated_Source\PSoC5/P2_3.c **** *
 278:.\Generated_Source\PSoC5/P2_3.c **** * Return:
 279:.\Generated_Source\PSoC5/P2_3.c **** *  Byte containing the constant for the selected interrupt source/s.
 280:.\Generated_Source\PSoC5/P2_3.c **** *
 281:.\Generated_Source\PSoC5/P2_3.c **** *******************************************************************************/
 282:.\Generated_Source\PSoC5/P2_3.c **** uint8 P2_3_GetIntStatus(void) 
 283:.\Generated_Source\PSoC5/P2_3.c **** {
 936              		.loc 1 283 0
 937              		.cfi_startproc
 938              		@ args = 0, pretend = 0, frame = 0
 939              		@ frame_needed = 0, uses_anonymous_args = 0
 940              		@ link register save eliminated.
 284:.\Generated_Source\PSoC5/P2_3.c ****     return(P2_3_SR_STATUS & P2_3_INTS_EN_MASK);
 941              		.loc 1 284 0
 942 0000 024B     		ldr	r3, .L39
 943 0002 1878     		ldrb	r0, [r3]	@ zero_extendqisi2
 285:.\Generated_Source\PSoC5/P2_3.c **** }
 944              		.loc 1 285 0
 945 0004 00F00700 		and	r0, r0, #7
 946 0008 7047     		bx	lr
 947              	.L40:
 948 000a 00BF     		.align	2
 949              	.L39:
 950 000c 65650040 		.word	1073767781
 951              		.cfi_endproc
 952              	.LFE8:
 953              		.size	P2_3_GetIntStatus, .-P2_3_GetIntStatus
 954              		.section	.text.P2_3_WriteRegValue,"ax",%progbits
 955              		.align	2
 956              		.global	P2_3_WriteRegValue
 957              		.thumb
 958              		.thumb_func
 959              		.type	P2_3_WriteRegValue, %function
 960              	P2_3_WriteRegValue:
 961              	.LFB9:
 286:.\Generated_Source\PSoC5/P2_3.c **** 
 287:.\Generated_Source\PSoC5/P2_3.c **** 
 288:.\Generated_Source\PSoC5/P2_3.c **** /*******************************************************************************
 289:.\Generated_Source\PSoC5/P2_3.c **** * Function Name: P2_3_WriteRegValue
ARM GAS  C:\Users\Thomas\AppData\Local\Temp\ccYahyoq.s 			page 54


 290:.\Generated_Source\PSoC5/P2_3.c **** ********************************************************************************
 291:.\Generated_Source\PSoC5/P2_3.c **** *
 292:.\Generated_Source\PSoC5/P2_3.c **** * Summary:
 293:.\Generated_Source\PSoC5/P2_3.c **** *  Send state directly to shift register
 294:.\Generated_Source\PSoC5/P2_3.c **** *
 295:.\Generated_Source\PSoC5/P2_3.c **** * Parameters:
 296:.\Generated_Source\PSoC5/P2_3.c **** *  shiftData: containing shift register state.
 297:.\Generated_Source\PSoC5/P2_3.c **** *
 298:.\Generated_Source\PSoC5/P2_3.c **** * Return:
 299:.\Generated_Source\PSoC5/P2_3.c **** *  None.
 300:.\Generated_Source\PSoC5/P2_3.c **** *
 301:.\Generated_Source\PSoC5/P2_3.c **** *******************************************************************************/
 302:.\Generated_Source\PSoC5/P2_3.c **** void P2_3_WriteRegValue(uint16 shiftData)
 303:.\Generated_Source\PSoC5/P2_3.c ****                                                                      
 304:.\Generated_Source\PSoC5/P2_3.c **** {
 962              		.loc 1 304 0
 963              		.cfi_startproc
 964              		@ args = 0, pretend = 0, frame = 0
 965              		@ frame_needed = 0, uses_anonymous_args = 0
 966              		@ link register save eliminated.
 967              	.LVL19:
 305:.\Generated_Source\PSoC5/P2_3.c ****     CY_SET_REG16(P2_3_SHIFT_REG_LSB_PTR, shiftData);
 968              		.loc 1 305 0
 969 0000 014B     		ldr	r3, .L42
 970 0002 1880     		strh	r0, [r3]	@ movhi
 971 0004 7047     		bx	lr
 972              	.L43:
 973 0006 00BF     		.align	2
 974              	.L42:
 975 0008 04650040 		.word	1073767684
 976              		.cfi_endproc
 977              	.LFE9:
 978              		.size	P2_3_WriteRegValue, .-P2_3_WriteRegValue
 979              		.section	.text.P2_3_ReadRegValue,"ax",%progbits
 980              		.align	2
 981              		.global	P2_3_ReadRegValue
 982              		.thumb
 983              		.thumb_func
 984              		.type	P2_3_ReadRegValue, %function
 985              	P2_3_ReadRegValue:
 986              	.LFB10:
 306:.\Generated_Source\PSoC5/P2_3.c **** }
 307:.\Generated_Source\PSoC5/P2_3.c **** 
 308:.\Generated_Source\PSoC5/P2_3.c **** 
 309:.\Generated_Source\PSoC5/P2_3.c **** #if(0u != P2_3_USE_INPUT_FIFO)
 310:.\Generated_Source\PSoC5/P2_3.c ****     /*******************************************************************************
 311:.\Generated_Source\PSoC5/P2_3.c ****     * Function Name: P2_3_WriteData
 312:.\Generated_Source\PSoC5/P2_3.c ****     ********************************************************************************
 313:.\Generated_Source\PSoC5/P2_3.c ****     *
 314:.\Generated_Source\PSoC5/P2_3.c ****     * Summary:
 315:.\Generated_Source\PSoC5/P2_3.c ****     *  Send state to FIFO for later transfer to shift register based on the Load
 316:.\Generated_Source\PSoC5/P2_3.c ****     *  input
 317:.\Generated_Source\PSoC5/P2_3.c ****     *
 318:.\Generated_Source\PSoC5/P2_3.c ****     * Parameters:
 319:.\Generated_Source\PSoC5/P2_3.c ****     *  shiftData: containing shift register state.
 320:.\Generated_Source\PSoC5/P2_3.c ****     *
 321:.\Generated_Source\PSoC5/P2_3.c ****     * Return:
ARM GAS  C:\Users\Thomas\AppData\Local\Temp\ccYahyoq.s 			page 55


 322:.\Generated_Source\PSoC5/P2_3.c ****     *  Indicates: successful execution of function
 323:.\Generated_Source\PSoC5/P2_3.c ****     *  when FIFO is empty; and error when FIFO is full.
 324:.\Generated_Source\PSoC5/P2_3.c ****     *
 325:.\Generated_Source\PSoC5/P2_3.c ****     * Reentrant:
 326:.\Generated_Source\PSoC5/P2_3.c ****     *  No.
 327:.\Generated_Source\PSoC5/P2_3.c ****     *
 328:.\Generated_Source\PSoC5/P2_3.c ****     *******************************************************************************/
 329:.\Generated_Source\PSoC5/P2_3.c ****     cystatus P2_3_WriteData(uint16 shiftData)
 330:.\Generated_Source\PSoC5/P2_3.c ****                                                                          
 331:.\Generated_Source\PSoC5/P2_3.c ****     {
 332:.\Generated_Source\PSoC5/P2_3.c ****         cystatus result;
 333:.\Generated_Source\PSoC5/P2_3.c **** 
 334:.\Generated_Source\PSoC5/P2_3.c ****         result = CYRET_INVALID_STATE;
 335:.\Generated_Source\PSoC5/P2_3.c **** 
 336:.\Generated_Source\PSoC5/P2_3.c ****         /* Writes data into the input FIFO if it is not FULL */
 337:.\Generated_Source\PSoC5/P2_3.c ****         if(P2_3_RET_FIFO_FULL != (P2_3_GetFIFOStatus(P2_3_IN_FIFO)))
 338:.\Generated_Source\PSoC5/P2_3.c ****         {
 339:.\Generated_Source\PSoC5/P2_3.c ****             CY_SET_REG16(P2_3_IN_FIFO_VAL_LSB_PTR, shiftData);
 340:.\Generated_Source\PSoC5/P2_3.c ****             result = CYRET_SUCCESS;
 341:.\Generated_Source\PSoC5/P2_3.c ****         }
 342:.\Generated_Source\PSoC5/P2_3.c **** 
 343:.\Generated_Source\PSoC5/P2_3.c ****         return(result);
 344:.\Generated_Source\PSoC5/P2_3.c ****     }
 345:.\Generated_Source\PSoC5/P2_3.c **** #endif /* (0u != P2_3_USE_INPUT_FIFO) */
 346:.\Generated_Source\PSoC5/P2_3.c **** 
 347:.\Generated_Source\PSoC5/P2_3.c **** 
 348:.\Generated_Source\PSoC5/P2_3.c **** #if(0u != P2_3_USE_OUTPUT_FIFO)
 349:.\Generated_Source\PSoC5/P2_3.c ****     /*******************************************************************************
 350:.\Generated_Source\PSoC5/P2_3.c ****     * Function Name: P2_3_ReadData
 351:.\Generated_Source\PSoC5/P2_3.c ****     ********************************************************************************
 352:.\Generated_Source\PSoC5/P2_3.c ****     *
 353:.\Generated_Source\PSoC5/P2_3.c ****     * Summary:
 354:.\Generated_Source\PSoC5/P2_3.c ****     *  Returns state in FIFO due to Store input.
 355:.\Generated_Source\PSoC5/P2_3.c ****     *
 356:.\Generated_Source\PSoC5/P2_3.c ****     * Parameters:
 357:.\Generated_Source\PSoC5/P2_3.c ****     *  None.
 358:.\Generated_Source\PSoC5/P2_3.c ****     *
 359:.\Generated_Source\PSoC5/P2_3.c ****     * Return:
 360:.\Generated_Source\PSoC5/P2_3.c ****     *  Shift Register state
 361:.\Generated_Source\PSoC5/P2_3.c ****     *
 362:.\Generated_Source\PSoC5/P2_3.c ****     * Reentrant:
 363:.\Generated_Source\PSoC5/P2_3.c ****     *  No.
 364:.\Generated_Source\PSoC5/P2_3.c ****     *
 365:.\Generated_Source\PSoC5/P2_3.c ****     *******************************************************************************/
 366:.\Generated_Source\PSoC5/P2_3.c ****     uint16 P2_3_ReadData(void) 
 367:.\Generated_Source\PSoC5/P2_3.c ****     {
 368:.\Generated_Source\PSoC5/P2_3.c ****         return(CY_GET_REG16(P2_3_OUT_FIFO_VAL_LSB_PTR));
 369:.\Generated_Source\PSoC5/P2_3.c ****     }
 370:.\Generated_Source\PSoC5/P2_3.c **** #endif /* (0u != P2_3_USE_OUTPUT_FIFO) */
 371:.\Generated_Source\PSoC5/P2_3.c **** 
 372:.\Generated_Source\PSoC5/P2_3.c **** 
 373:.\Generated_Source\PSoC5/P2_3.c **** /*******************************************************************************
 374:.\Generated_Source\PSoC5/P2_3.c **** * Function Name: P2_3_ReadRegValue
 375:.\Generated_Source\PSoC5/P2_3.c **** ********************************************************************************
 376:.\Generated_Source\PSoC5/P2_3.c **** *
 377:.\Generated_Source\PSoC5/P2_3.c **** * Summary:
 378:.\Generated_Source\PSoC5/P2_3.c **** *  Directly returns current state in shift register, not data in FIFO due
ARM GAS  C:\Users\Thomas\AppData\Local\Temp\ccYahyoq.s 			page 56


 379:.\Generated_Source\PSoC5/P2_3.c **** *  to Store input.
 380:.\Generated_Source\PSoC5/P2_3.c **** *
 381:.\Generated_Source\PSoC5/P2_3.c **** * Parameters:
 382:.\Generated_Source\PSoC5/P2_3.c **** *  None.
 383:.\Generated_Source\PSoC5/P2_3.c **** *
 384:.\Generated_Source\PSoC5/P2_3.c **** * Return:
 385:.\Generated_Source\PSoC5/P2_3.c **** *  Shift Register state. Clears output FIFO.
 386:.\Generated_Source\PSoC5/P2_3.c **** *
 387:.\Generated_Source\PSoC5/P2_3.c **** * Reentrant:
 388:.\Generated_Source\PSoC5/P2_3.c **** *  No.
 389:.\Generated_Source\PSoC5/P2_3.c **** *
 390:.\Generated_Source\PSoC5/P2_3.c **** *******************************************************************************/
 391:.\Generated_Source\PSoC5/P2_3.c **** uint16 P2_3_ReadRegValue(void) 
 392:.\Generated_Source\PSoC5/P2_3.c **** {
 987              		.loc 1 392 0
 988              		.cfi_startproc
 989              		@ args = 0, pretend = 0, frame = 0
 990              		@ frame_needed = 0, uses_anonymous_args = 0
 991              		@ link register save eliminated.
 992              	.LBB55:
 993              	.LBB56:
 994              	.LBB57:
 995              	.LBB58:
 218:.\Generated_Source\PSoC5/P2_3.c ****         {
 996              		.loc 1 218 0
 997 0000 064A     		ldr	r2, .L49
 998              	.LBE58:
 999              	.LBE57:
 1000              	.LBE56:
 1001              	.LBE55:
 393:.\Generated_Source\PSoC5/P2_3.c ****     uint16 result;
 394:.\Generated_Source\PSoC5/P2_3.c **** 
 395:.\Generated_Source\PSoC5/P2_3.c ****     /* Clear FIFO before software capture */
 396:.\Generated_Source\PSoC5/P2_3.c ****     while(P2_3_RET_FIFO_EMPTY != P2_3_GetFIFOStatus(P2_3_OUT_FIFO))
 397:.\Generated_Source\PSoC5/P2_3.c ****     {
 398:.\Generated_Source\PSoC5/P2_3.c ****         (void) CY_GET_REG16(P2_3_OUT_FIFO_VAL_LSB_PTR);
 1002              		.loc 1 398 0
 1003 0002 0749     		ldr	r1, .L49+4
 396:.\Generated_Source\PSoC5/P2_3.c ****     {
 1004              		.loc 1 396 0
 1005 0004 00E0     		b	.L45
 1006              	.LVL20:
 1007              	.L48:
 1008              		.loc 1 398 0
 1009 0006 0B88     		ldrh	r3, [r1]
 1010              	.LVL21:
 1011              	.L45:
 1012              	.LBB62:
 1013              	.LBB61:
 1014              	.LBB60:
 1015              	.LBB59:
 218:.\Generated_Source\PSoC5/P2_3.c ****         {
 1016              		.loc 1 218 0
 1017 0008 1378     		ldrb	r3, [r2]	@ zero_extendqisi2
 1018 000a 13F0600F 		tst	r3, #96
 1019 000e FAD1     		bne	.L48
 1020              	.LVL22:
ARM GAS  C:\Users\Thomas\AppData\Local\Temp\ccYahyoq.s 			page 57


 1021              	.LBE59:
 1022              	.LBE60:
 1023              	.LBE61:
 1024              	.LBE62:
 399:.\Generated_Source\PSoC5/P2_3.c ****     }
 400:.\Generated_Source\PSoC5/P2_3.c **** 
 401:.\Generated_Source\PSoC5/P2_3.c ****     /* Read of 8 bits from A1 causes capture to output FIFO */
 402:.\Generated_Source\PSoC5/P2_3.c ****     (void) CY_GET_REG8(P2_3_SHIFT_REG_CAPTURE_PTR);
 403:.\Generated_Source\PSoC5/P2_3.c **** 
 404:.\Generated_Source\PSoC5/P2_3.c ****     /* Read output FIFO */
 405:.\Generated_Source\PSoC5/P2_3.c ****     result  = CY_GET_REG16(P2_3_OUT_FIFO_VAL_LSB_PTR);
 1025              		.loc 1 405 0
 1026 0010 034B     		ldr	r3, .L49+4
 402:.\Generated_Source\PSoC5/P2_3.c **** 
 1027              		.loc 1 402 0
 1028 0012 044A     		ldr	r2, .L49+8
 1029 0014 1278     		ldrb	r2, [r2]	@ zero_extendqisi2
 1030              		.loc 1 405 0
 1031 0016 1888     		ldrh	r0, [r3]
 1032              	.LVL23:
 406:.\Generated_Source\PSoC5/P2_3.c ****     
 407:.\Generated_Source\PSoC5/P2_3.c ****     #if(0u != (P2_3_SR_SIZE % 8u))
 408:.\Generated_Source\PSoC5/P2_3.c ****         result &= ((uint16) P2_3_SR_MASK);
 409:.\Generated_Source\PSoC5/P2_3.c ****     #endif /* (0u != (P2_3_SR_SIZE % 8u)) */
 410:.\Generated_Source\PSoC5/P2_3.c ****     
 411:.\Generated_Source\PSoC5/P2_3.c ****     return(result);
 412:.\Generated_Source\PSoC5/P2_3.c **** }
 1033              		.loc 1 412 0
 1034 0018 80B2     		uxth	r0, r0
 1035 001a 7047     		bx	lr
 1036              	.L50:
 1037              		.align	2
 1038              	.L49:
 1039 001c 65650040 		.word	1073767781
 1040 0020 54650040 		.word	1073767764
 1041 0024 14650040 		.word	1073767700
 1042              		.cfi_endproc
 1043              	.LFE10:
 1044              		.size	P2_3_ReadRegValue, .-P2_3_ReadRegValue
 1045              		.global	P2_3_initVar
 1046              		.bss
 1047              		.set	.LANCHOR0,. + 0
 1048              		.type	P2_3_initVar, %object
 1049              		.size	P2_3_initVar, 1
 1050              	P2_3_initVar:
 1051 0000 00       		.space	1
 1052              		.text
 1053              	.Letext0:
 1054              		.file 2 ".\\Generated_Source\\PSoC5\\cytypes.h"
 1055              		.file 3 ".\\Generated_Source\\PSoC5\\CyLib.h"