ARM GAS  C:\Users\Thomas\AppData\Local\Temp\ccwy0EZM.s 			page 1


   1              		.syntax unified
   2              		.cpu cortex-m3
   3              		.fpu softvfp
   4              		.eabi_attribute 20, 1
   5              		.eabi_attribute 21, 1
   6              		.eabi_attribute 23, 3
   7              		.eabi_attribute 24, 1
   8              		.eabi_attribute 25, 1
   9              		.eabi_attribute 26, 1
  10              		.eabi_attribute 30, 2
  11              		.eabi_attribute 34, 1
  12              		.eabi_attribute 18, 4
  13              		.thumb
  14              		.file	"P2_4.c"
  15              		.text
  16              	.Ltext0:
  17              		.section	.gnu.lto_.profile.b94980d8,"",%progbits
  18 0000 789C6366 		.ascii	"x\234cf```e\200\000F\206\265\214!\000\002\347\001\014"
  18      60606065 
  18      80004686 
  18      B58C2100 
  18      02E7010C 
  19              		.text
  20              		.section	.gnu.lto_.jmpfuncs.b94980d8,"",%progbits
  21 0000 789C6366 		.ascii	"x\234cf\300\016,\2414\017\0203\002A=\003\023\003\003"
  21      C00E2CA1 
  21      340F1033 
  21      02413D03 
  21      130303
  22 0013 33900DE4 		.ascii	"3\220\015\344\263\0001+\020\263C\270\034@\314\011R\302"
  22      B300312B 
  22      10B343B8 
  22      1C40CC09 
  22      52C2
  23 0025 C5C0C00D 		.ascii	"\305\300\300\015\242Az\030\000;\201\002\031"
  23      A2417A18 
  23      003B8102 
  23      19
  24              		.text
  25              		.section	.gnu.lto_.inline.b94980d8,"",%progbits
  26 0000 789C7D50 		.ascii	"x\234}P;\012\302@\024\234\367v\223M\326\200\237\302"
  26      3B0AC240 
  26      149CF776 
  26      934DD680 
  26      9FC2
  27 0012 2216B981 		.ascii	"\"\026\271\201\367\260\311\015\354\3656)E\004\323y\007"
  27      F7B0C90D 
  27      ECF53629 
  27      4504D379 
  27      07
  28 0023 F11076B6 		.ascii	"\361\020v\2666\202\245\202\215\235\263\006\202\212\272"
  28      3682A582 
  28      8D9DB306 
  28      828ABA
  29 0032 2C6F60DE 		.ascii	",o`\336\314\354{k\360\375L\244\301\214\327\011tP\225"
  29      CCEC7B6B 
  29      F0FD4CA4 
ARM GAS  C:\Users\Thomas\AppData\Local\Temp\ccwy0EZM.s 			page 2


  29      C18CD709 
  29      745095
  30 0045 88578506 		.ascii	"\210W\205\006N\340b1\230]U\226\207\323\315\234\365\256"
  30      4EE06231 
  30      985D5596 
  30      87D3CD9C 
  30      F5AE
  31 0057 50C84672 		.ascii	"P\310Fr`\336\000\355\206\322\270\246\305\326E/\370\264"
  31      60DE00ED 
  31      86D2B8A6 
  31      C5D6452F 
  31      F8B4
  32 0069 03CB8A34 		.ascii	"\003\313\2124a`v\2346]\004\245\037\221\212/\343\226"
  32      6160769C 
  32      365D04A5 
  32      1F918A2F 
  32      E396
  33 007b A2165295 		.ascii	"\242\026R\225\001hr\335\217\266x\226\010\375!\371|W"
  33      016872DD 
  33      8FB67896 
  33      08FD21F9 
  33      7C57
  34 008d CB7BC3FD 		.ascii	"\313{\303\375\317K~\344\245\360\251\310s\364v:\335w"
  34      CF4B7EE4 
  34      A5F0A9C8 
  34      73F4763A 
  34      DD77
  35 009f 6D107844 		.ascii	"m\020xD\226\036\256\322z\270\215!EEKe\360k&\250\337"
  35      961EAED2 
  35      7AB88D21 
  35      45454B65 
  35      F06B26A8 
  36 00b4 2EECCBD3 		.ascii	".\354\313\323\341/\037\023\322$\257"
  36      E12F1F13 
  36      D224AF
  37              		.text
  38              		.section	.gnu.lto_.pureconst.b94980d8,"",%progbits
  39 0000 789C6366 		.ascii	"x\234cf``\220d\200\000\036\006)F\011&)f)\026)V)v)\016"
  39      60609064 
  39      80001E06 
  39      29460926 
  39      29662916 
  40 001a 294E292E 		.ascii	")N).)n)\036)\000\025\325\001\247"
  40      296E291E 
  40      290015D5 
  40      01A7
  41              		.text
  42              		.section	.gnu.lto_P2_4_GetFIFOStatus.part.0.b94980d8,"",%progbits
  43 0000 789C6D92 		.ascii	"x\234m\222\337KTA\024\307\317\231\271wwu+\255'Y\202"
  43      DF4B5441 
  43      14C7CF99 
  43      B9777775 
  43      2BAD2759 
  44 0015 8245B408 		.ascii	"\202E\264\010\211~\374\005=D\364\"\370jX\350\012A$\230"
  44      897EFC05 
  44      3D44F422 
  44      F86A58E8 
ARM GAS  C:\Users\Thomas\AppData\Local\Temp\ccwy0EZM.s 			page 3


  44      0A412498 
  45 0029 3EF8E4DC 		.ascii	">\370\344\334u\367\241(\266H\372\241\010F\371++\355"
  45      75F7A128 
  45      B648FAA1 
  45      0846F92B 
  45      2BED
  46 003b 97E50F6A 		.ascii	"\227\345\017j\263(!StMM6[\310\315\212\242,\3236\314"
  46      B3282153 
  46      744D4D36 
  46      5BC8CD8A 
  46      A22CD336 
  47 0050 ED9CB95B 		.ascii	"\355\234\271[\0305pg\0163\337\317\231\357\234s%\374"
  47      18357067 
  47      0E33DFCF 
  47      99EF9C73 
  47      25FC
  48 0062 3BF6D2E7 		.ascii	";\366\322\347\227\000[iE'\240\343\344\020\005\016\024"
  48      97005B69 
  48      4527A0E3 
  48      E410050E 
  48      14
  49 0073 7A15D208 		.ascii	"z\025\322\010z@\271\244\236M;F\223\317,\227\361;0\021"
  49      7A40B9A4 
  49      9E4D3B46 
  49      93CF2C97 
  49      F13B3011 
  50 0087 3900846A 		.ascii	"9\000\204j\007\021&V\343;1'p\260{9\2029MJ\371?\177y"
  50      07112656 
  50      E33B3127 
  50      70B07B39 
  50      82394D4A 
  51 009f 197507B3 		.ascii	"\031u\007\263\022\002\340\253\000\334\342\301M\036\006"
  51      1202E0AB 
  51      00DCE2C1 
  51      4D1E06
  52 00ae 5A300748 		.ascii	"Z0\007H\330\026\375\026^#\275\310\361\331\007Mg\322"
  52      D816FD16 
  52      5E23BDC8 
  52      F1D9074D 
  52      67D2
  53 00c0 BD17088A 		.ascii	"\275\027\010\212%\342\217\335\352\234\012\304\222\311"
  53      25E28FDD 
  53      EA9C0AC4 
  53      92C9
  54 00ce 0D84622B 		.ascii	"\015\204b+\312\2254\017\002B\317\372\243\031r\263\206"
  54      CA95340F 
  54      0242CFFA 
  54      A31972B3 
  54      86
  55 00df C75A07FC 		.ascii	"\307Z\007\374\206\015\177\212\357\013[\215j9\231Df/"
  55      860D7F8A 
  55      EF0B5B8D 
  55      6A399944 
  55      662F
  56 00f1 FF979D0B 		.ascii	"\377\227\235\013\374\234p;\002J\251LlC/\266\243\227"
  56      FC9C703B 
  56      024AA94C 
ARM GAS  C:\Users\Thomas\AppData\Local\Temp\ccwy0EZM.s 			page 4


  56      6C432FB6 
  56      A397
  57 0103 0D92B32B 		.ascii	"\015\222\263+T\003\000\301;|\322\261N\251dr\366}\216"
  57      540300C1 
  57      3B7CD2B1 
  57      4EA96472 
  57      F67D8E
  58 0116 13212150 		.ascii	"\023!!P\360$i\022\006O&\260\006`\206P\256D\\8x\225\343"
  58      F0246912 
  58      064F26B0 
  58      06608650 
  58      AE445C38 
  59 012d E85FCBD7 		.ascii	"\350_\313\327<y\324\323g\3466\3235\215}\037\203\006"
  59      3C79D4D3 
  59      67E636D3 
  59      358D7D1F 
  59      8306
  60 013f 1B4A0DBC 		.ascii	"\033J\015\274\212\271$\210\\\212-\244g_\324\276\203"
  60      8AB92488 
  60      5C8A2DA4 
  60      675FD4BE 
  60      83
  61 0150 A36E95F5 		.ascii	"\243n\225\365\3072\246,3\202\3270\033(g&h[\204\002\337"
  61      C732A62C 
  61      3382D730 
  61      1B286726 
  61      685B8402 
  62 0165 25F45D53 		.ascii	"%\364]S\330\277pl\2747\237\235/\322\313\004v?\237}\352"
  62      D8BF706C 
  62      BC379F9D 
  62      2FD2CB04 
  62      763F9F7D 
  63 017a 7C2B1242 		.ascii	"|+\022B\276\036\260\224\301F^\315\014\217\270\364\226"
  63      BE1EB094 
  63      C1465ECD 
  63      0C8FB8F4 
  63      96
  64 018b 7EBE756F 		.ascii	"~\276uop\331\331\200\365V\255\345J\010\003;\320\203"
  64      70D9D980 
  64      F556ADE5 
  64      4A08033B 
  64      D083
  65 019d 9D48F5C1 		.ascii	"\235H\365\301\353\330\2000\2055\337\035v>a\247\354\274"
  65      EBD88030 
  65      8535DF1D 
  65      763E61A7 
  65      ECBC
  66 01af DF7E348D 		.ascii	"\337~4\215y\334\017x\203\224S\350\237v\332\022I*F\246"
  66      79DC0F78 
  66      839453E8 
  66      9F76DA12 
  66      492A46A6 
  67 01c3 5388415B 		.ascii	"S\210A[\204|\210\324\367\254b\304\244*\335$\344\005"
  67      847C88D4 
  67      F7AC62C4 
  67      A42ADD24 
  67      E405
ARM GAS  C:\Users\Thomas\AppData\Local\Temp\ccwy0EZM.s 			page 5


  68 01d5 06D4F694 		.ascii	"\006\324\366\224\204\316G\227\226Z1\204'\254\200\212"
  68      84CE4797 
  68      965A3184 
  68      27AC808A 
  69 01e5 4DB63813 		.ascii	"M\2668\023T:\230\327\365\301[\264\317.\233{\217\353"
  69      543A98D7 
  69      F5C15BB4 
  69      CF2E9B7B 
  69      8FEB
  70 01f7 77086D7A 		.ascii	"w\010mzh\344\374\320j\033h\034`=\336\246\254\363\002"
  70      68E4FCD0 
  70      6A1B681C 
  70      603DDEA6 
  70      ACF302
  71 020a 19E9B291 		.ascii	"\031\351\262\221\272\211\370\274\324\210`\344T\327\344"
  71      BA89F8BC 
  71      D48860E4 
  71      54D7E4
  72 0219 8FB41432 		.ascii	"\217\264\0242\250\221;\032\321\235\276K\210\256\243"
  72      A8913B1A 
  72      D19DBE4B 
  72      88AEA3
  73 0228 84A0474E 		.ascii	"\204\240GN\242\225\311\3468\037\225:|:\264^\377\013"
  73      A295C9E6 
  73      381F953A 
  73      7C3AB45E 
  73      FF0B
  74 023a D45F4A34 		.ascii	"\324_J4\034{\030\322\217\001\352O7W\2128\343oNh\256"
  74      1C7B18D2 
  74      8F01EA4F 
  74      37578A38 
  74      E36F4E68 
  75 024f 2E630536 		.ascii	".c\0056R\327\\\223\2411\004\354Ia&\204\250m\314\351"
  75      52D75C93 
  75      A13104EC 
  75      49612684 
  75      A86DCCE9 
  76 0263 F7DA7D25 		.ascii	"\367\332}%\375\"\235L\243\025\216\014\013\273J&\300"
  76      FD229D4C 
  76      A3158E0C 
  76      0BBB4A26 
  76      C0
  77 0274 1B345776 		.ascii	"\0334Wv\217m\367\242GD\027c\3106dm\025\2475\306\252"
  77      8F6DF7A2 
  77      47441763 
  77      C836646D 
  77      15A735C6 
  78 0289 E81744CE 		.ascii	"\350\027D\316K\222\215y\205\273}\207}\345\007*|%E\005"
  78      4B928D79 
  78      85BB7D87 
  78      7DE5072A 
  78      7C254505 
  79 029d 6595E5C5 		.ascii	"e\225\345\305\276\302\374\202\262];\013\363\267\025"
  79      BEC2FC82 
  79      B25D3B0B 
  79      F3B715
  80 02ac EDC82B06 		.ascii	"\355\310+\006G\271\357H\345\241\012G\351\301\322\262"
ARM GAS  C:\Users\Thomas\AppData\Local\Temp\ccwy0EZM.s 			page 6


  80      47B9EF48 
  80      E5A10A47 
  80      E9C1D2B2 
  81 02bc 3D25BF00 		.ascii	"=%\277\000u\032C&"
  81      751A4326 
  82              		.text
  83              		.section	.gnu.lto_P2_4_GetFIFOStatus.b94980d8,"",%progbits
  84 0000 789C6590 		.ascii	"x\234e\220OHTQ\024\306\317w\356\363)3\3034\264\212\331"
  84      4F485451 
  84      14C6CF77 
  84      EEF32933 
  84      C334B48A 
  85 0015 140CA245 		.ascii	"\024\014\242EH\364g\323Jh\021\355\004\267\003\022\372"
  85      48F467D3 
  85      4A6811ED 
  85      04B70312 
  85      FA
  86 0026 84209A98 		.ascii	"\204 \232\230t)\336\321\021\202\240\262EE\220\020ee"
  86      7429DED1 
  86      1182A0B2 
  86      45459010 
  86      6565
  87 0038 E518D4A6 		.ascii	"\345\030\324\246\230\3053\242\336\242?\213\241t\361"
  87      98C533A2 
  87      DEA23F8B 
  87      A174F1
  88 0047 AA819AB0 		.ascii	"\252\201\232\260]\2465H\345t\316{\213\202.\\\316\345"
  88      5DA63548 
  88      E574CE7B 
  88      8B822E5C 
  88      CEE5
  89 0059 F2FDBEF3 		.ascii	"\362\375\276\363\235c\350\377\263O\356\012\210\366H"
  89      9D63E8FF 
  89      B34FEE0A 
  89      88F648
  90 0068 451B81CF 		.ascii	"E\033\201\317\277\"*u0\233 E6\341\004\213D6e\340\350"
  90      BF222A75 
  90      309B2045 
  90      36E1048B 
  90      443665E0 
  91 007d 3F1C402B 		.ascii	"?\034@+\201\306\3318\030\307\027^e\274x\264YC\327\254"
  91      81C6D938 
  91      18C7175E 
  91      65BC78B4 
  91      5943D7AC 
  92 0091 B5135FBF 		.ascii	"\265\023_\277\275\013\223S\3336\230h\215\011\273\263"
  92      BD0B9353 
  92      DB369868 
  92      8D09BBB3 
  93 00a1 D89955F9 		.ascii	"\330\231U\371-t\211\356\334\313'\341\026\223\003\311"
  93      2D7489EE 
  93      DCCB27E1 
  93      169303C9 
  94 00b1 BB76A3FE 		.ascii	"\273v\243\376#\321y]\030?\250\330^\010\202\3330\177"
  94      23D1795D 
  94      183FA8D8 
  94      5E0882DB 
ARM GAS  C:\Users\Thomas\AppData\Local\Temp\ccwy0EZM.s 			page 7


  94      307F
  95 00c3 29F5C01C 		.ascii	")\365\300\034:U<\027~\367\323fW\004^Z\234\275\230\310"
  95      3A553C17 
  95      7EF7D366 
  95      57045E5A 
  95      9CBD98C8 
  96 00d7 5D13B0BE 		.ascii	"]\023\260\276\321x\226\264\227m\271\336jmW\376\316\277"
  96      D17896B4 
  96      976DB9DE 
  96      6A6D57FE 
  96      CEBF
  97 00e9 7C7C0458 		.ascii	"||\004X-\377^J\272ekm\006w\221\323`\342|\017\256L\015"
  97      2DFF5E4A 
  97      BA656B6D 
  97      067791D3 
  97      60E27C0F 
  98 0100 FD59D8EA 		.ascii	"\375Y\330\352\333V\353\301\257\013\301A\323\016\322"
  98      DB56EBC1 
  98      AF0BC141 
  98      D30ED2
  99 010f 2F86B676 		.ascii	"/\206\266v\2437\321'!t\354\006\263V\363\026\023~\363"
  99      A337D127 
  99      2174EC06 
  99      B356F316 
  99      137EF3
 100 0122 4C3AF210 		.ascii	"L:\362\020\201\364\230\236~8\223^a\011\261)\006\363"
 100      81F4989E 
 100      7E38935E 
 100      6109B129 
 100      06F3
 101 0134 C8D21B94 		.ascii	"\310\322\033\224\227'?^mWQ\223uKW\226\032\353F5\220"
 101      97273F5E 
 101      6D575193 
 101      754B5796 
 101      1AEB4635 
 102 0149 8C15C409 		.ascii	"\214\025\304\011\033l(H\251cF\225\"{\376\364q\265\255"
 102      1B6C2848 
 102      A9634695 
 102      227BFEF4 
 102      71B5AD
 103 015c FBA6C4AD 		.ascii	"\373\246\304\255W\347\303\336\016\335C|\260\200n\261"
 103      57E7C3DE 
 103      0EDD437C 
 103      B0806EB1 
 104 016c A2109399 		.ascii	"\242\020\223\231\330V\3653\265\263\025\036\373iO[\221"
 104      D856F533 
 104      B5B3151E 
 104      FB694F5B 
 104      91
 105 017d F21AEB54 		.ascii	"\362\032\353T\3671&\3733\221\277\023E^F)C\353b\245\235"
 105      F73126FB 
 105      3391BF13 
 105      455E4629 
 105      43EB62A5 
 106 0192 A2B19AA2 		.ascii	"\242\261\232\242|\217\222_{\315\261\231\200\237\001"
 106      7C8F925F 
 106      7BCDB199 
ARM GAS  C:\Users\Thomas\AppData\Local\Temp\ccwy0EZM.s 			page 8


 106      809F01
 107 01a1 0DCFD50F 		.ascii	"\015\317\325\017'\305\334@&\207\342\302\355\350\311"
 107      27C5DC40 
 107      2687E2C2 
 107      EDE8C9
 108 01b0 1FF64E78 		.ascii	"\037\366Nx\305\243#\336\320@\177a\2648\350\345\373\372"
 108      C5A323DE 
 108      D0407F61 
 108      B438E8E5 
 108      FBFA
 109 01c2 0B870EE4 		.ascii	"\013\207\016\344\373\366\016\354\357\031$w\370\330p"
 109      FBF60EEC 
 109      EF192477 
 109      F8D870
 110 01d1 E1C8905B 		.ascii	"\341\310\220[\364N\215\036\037\371\003\325*\266 "
 110      F44E8D1E 
 110      1FF903D5 
 110      2AB620
 111              		.text
 112              		.section	.gnu.lto_P2_4_Init.b94980d8,"",%progbits
 113 0000 789C8D91 		.ascii	"x\234\215\221\317K\024a\030\307\237\357\363\216\303"
 113      CF4B1461 
 113      18C79FEF 
 113      F38EC3
 114 000f CA1E944E 		.ascii	"\312\036\224N2\247`\017\"\204\207%\377\200\350 \335"
 114      32A7600F 
 114      22848725 
 114      FF80E820 
 114      DD
 115 0020 04AF2B12 		.ascii	"\004\257+\0226\007/*\303zv\306U\211=it\210ba\027\354"
 115      36072F2A 
 115      C37A76C6 
 115      55893D69 
 115      74886261 
 116 0036 A7A5A985 		.ascii	"\247\245\251\205\247b0(\275Tv0\360\340\012m`\227H\214"
 116      A7623028 
 116      BD547630 
 116      F0E00A6D 
 116      6097488C 
 117 004a 72419D9E 		.ascii	"rA\235\236g\337\275d \015\314\373\2743\357\367\371>"
 117      67DFBD64 
 117      200DCCFB 
 117      BC33EFF7 
 117      F93E
 118 005c 9FE7790D 		.ascii	"\237\347y\015\375\373x\362^a\242\254D\030\002\317\276"
 118      FDFB78F2 
 118      5E61A2AC 
 118      441802CF 
 118      BE
 119 006d 278A520C 		.ascii	"'\212R\014\350\206@\023\214\011|\343\003\306l\274p'"
 119      E8864013 
 119      8C097CE3 
 119      03C66CBC 
 119      7027
 120 007f DD793F0C 		.ascii	"\335y?\014\303\037\237\326:\246;\352\222v\310\326\006"
 120      C31F9FD6 
 120      3AA63BEA 
ARM GAS  C:\Users\Thomas\AppData\Local\Temp\ccwy0EZM.s 			page 9


 120      9276C8D6 
 120      06
 121 0090 0FD149A2 		.ascii	"\017\321I\2429\230:\371\234v\247D\323n\317\360\010."
 121      39983AF9 
 121      9C76A744 
 121      D36ECFF0 
 121      082E
 122 00a2 242E5D88 		.ascii	"$.]\210\303$Y\255\316\335\314\"e\250\316pti\321\305"
 122      C32459AD 
 122      CEDDCC22 
 122      65A8CE70 
 122      7469D1C5 
 123 00b6 D585A826 		.ascii	"\325\205\250&z-\372\225Y\243\331\306d\273z\026_\027"
 123      7A2DFA95 
 123      59A3D9C6 
 123      64BB7A16 
 123      5F17
 124 00c8 175B4D06 		.ascii	"\027[M\006\272\337\256\316\317\230L%\014'\367^\275\031"
 124      BADFAECE 
 124      CF984C25 
 124      0C27F75E 
 124      BD19
 125 00da 88A37278 		.ascii	"\210\243rx\232$\2503\3431\214\024\304%\017]^\2637<A"
 125      9A24A833 
 125      E3318C14 
 125      C4250F5D 
 125      5EB3373C 
 126 00ef 4672B6EE 		.ascii	"Fr\266\356>(\264\355\263\212\010\013\360h\007\353\277"
 126      3E28B4ED 
 126      B38A080B 
 126      F06807EB 
 126      BF
 127 0100 8AA71BC1 		.ascii	"\212\247\033\301_\274q\362\2265\241A|\3108\333\015\236"
 127      5FBC71F2 
 127      9635A141 
 127      7CC838DB 
 127      0D9E
 128 0112 0A27E119 		.ascii	"\012'\341\031\334\337lt\032\225r9\255\256\246\260\031"
 128      DCDF6C74 
 128      1A957239 
 128      ADAEA6B0 
 128      19
 129 0123 858ECAAB 		.ascii	"\205\216\312\253\265\017[\251\306/\322\317\351J\355"
 129      B50F5BA9 
 129      C62FD2CF 
 129      E94AED
 130 0132 63BA847B 		.ascii	"c\272\204{\321\355(Ug\007\213\360\260$\345\011\317Q"
 130      D1ED2855 
 130      67078BF0 
 130      B024E509 
 130      CF51
 131 0144 8250148E 		.ascii	"\202P\024\216f\204\302Z:\326\365\373\227\343B\303\302"
 131      6684C25A 
 131      3AD6F5FB 
 131      97E342C3 
 131      C2
 132 0155 3912D865 		.ascii	"9\022\330e\013{\013\2529\327qE\034\305\304\266\266~"
ARM GAS  C:\Users\Thomas\AppData\Local\Temp\ccwy0EZM.s 			page 10


 132      0B7B0BAA 
 132      39D77145 
 132      1CC5C4B6 
 132      B67E
 133 0167 CD7AB69C 		.ascii	"\315z\266\234\233\262\332\204\370\351Zu3\341]i\177\305"
 133      9BB2DA84 
 133      F8E95A75 
 133      33E15D69 
 133      7FC5
 134 0179 510208C0 		.ascii	"Q\002\010\300\213\377\006x\331\000pi\027Q<\327\2533"
 134      8BFF0678 
 134      D9007069 
 134      17513CD7 
 134      AB33
 135 018b D41BA8C9 		.ascii	"\324\033\250\311\034\345*\345b/v\347z\375\021?\270\236"
 135      1CE52AE5 
 135      622F76E7 
 135      7AFD113F 
 135      B89E
 136 019d F76F0CF6 		.ascii	"\367o\014\366\217\216\007C~\256\257\177\364jO\256/;"
 136      8F8E0743 
 136      7EAEAF7F 
 136      F46A4FAE 
 136      2F3B
 137 01af 78B97B88 		.ascii	"x\271{\210\332\206G\362~\020\214\217\345\355\351\037"
 137      DA8647F2 
 137      7E108C8F 
 137      E5EDE91F 
 138 01bf 098DD8B4 		.ascii	"\011\215\330\264"
 139              		.text
 140              		.section	.gnu.lto_P2_4_EnableInt.b94980d8,"",%progbits
 141 0000 789C7D90 		.ascii	"x\234}\220\315K\033Q\024\305\357\271\223I\007\"E\272"
 141      CD4B1B51 
 141      14C5EFB9 
 141      93490722 
 141      45BA
 142 0012 28924D85 		.ascii	"(\222M\205\010A\020\301\242\177\201\213\202+!\333\200"
 142      084110C1 
 142      A27F818B 
 142      822B21DB 
 142      80
 143 0023 94388B6E 		.ascii	"\2248\213nT\206\270\024_\352\024\212\013\021ua)\012"
 143      5486B814 
 143      5FEA148A 
 143      0B117561 
 143      290A
 144 0035 59486BD3 		.ascii	"YHk\323\372A\013\005E\030\\\210_(\"\030\024iE\214(t"
 144      FA410B05 
 144      45185C88 
 144      5F282218 
 144      1469458C 
 145 004b A14DB19D 		.ascii	"\241M\261\235\212\304\373f\\Y\350\300\233\367\3019\277"
 145      8AC4FB66 
 145      5C59E8C0 
 145      9BF7C139 
 145      BF
 146 005c 7BEE35E8 		.ascii	"{\3565\350\337/.\253\010\242&\331a\020xx\213(g1\240"
ARM GAS  C:\Users\Thomas\AppData\Local\Temp\ccwy0EZM.s 			page 11


 146      DF2F2EAB 
 146      08A226D9 
 146      61107878 
 146      8B286731 
 147 0071 0F04EA67 		.ascii	"\017\004\352g\364\343\234/\031\303^a<\226\234RJ]\374"
 147      F4E39C2F 
 147      19C35E61 
 147      3C969C52 
 147      4A5DFC
 148 0084 DCA97955 		.ascii	"\334\251yU\3433Q\231C\014\336!I\242)\236\377=0\215\004"
 148      E3335199 
 148      430CDE21 
 148      49A2299E 
 148      FF3D308D 
 149 0099 F4B9B4F6 		.ascii	"\364\271\264\366e\314H\344\225zy\364\246\264\022S\343"
 149      65CC48E4 
 149      957A79F4 
 149      A6B41253 
 149      E3
 150 00aa CA3DAA54 		.ascii	"\312=\252T\236\370\302~\017C\234h\210\243>~\027D\014"
 150      9EF8C27E 
 150      0F439C68 
 150      88A33E7E 
 150      17440C
 151 00bd 97EE4D31 		.ascii	"\227\356M1\026u\245@5\246\221\010\341\370\200\250\344"
 151      1675A540 
 151      35A69108 
 151      E1F880A8 
 151      E4
 152 00ce 837E997D 		.ascii	"\203~\231}\344\251J\345\363\346\310j\222-\011+O\021"
 152      E4A94AE5 
 152      F3E6C86A 
 152      922D092B 
 152      4F11
 153 00e0 F2994DFD 		.ascii	"\362\231M\375#:\221\245S\227\344\"\273q\210\001\357"
 153      233A91A5 
 153      5397E422 
 153      BB718801 
 153      EF
 154 00f1 EBE0634D 		.ascii	"\353\340cM\370\315\206\024\230\334\035\232\341\276k"
 154      F8CD8614 
 154      98DC1D9A 
 154      E1BE6B
 155 0100 F55A593E 		.ascii	"\365ZY>K\002\315-\240O\334\021\332\003\007\245\204)"
 155      4B02CD2D 
 155      A04FDC11 
 155      DA0307A5 
 155      8429
 156 0112 623AC0F2 		.ascii	"b:\300\362\325\340\351\264\023\232#b^\330\317\3770\317"
 156      D5E0E9B4 
 156      139A2362 
 156      5ED8CFFF 
 156      30CF
 157 0124 D8677374 		.ascii	"\330gst-\247\":\360\367\223\355\035+x\012\362\337\014"
 157      2DA7223A 
 157      F0F793ED 
 157      1D2B780A 
ARM GAS  C:\Users\Thomas\AppData\Local\Temp\ccwy0EZM.s 			page 12


 157      F2DF0C
 158 0137 2DD44DE0 		.ascii	"-\324M\340m\316\205\317Q|D\034\237 \355a\006\023\020"
 158      6DCE85CF 
 158      517C441C 
 158      9F20ED61 
 158      061310
 159 014a E0C0AF68 		.ascii	"\340\300\257hH3C\340\306\361\237r\225vs5aV\224Rs\004"
 159      483343E0 
 159      C6F19F72 
 159      95767335 
 159      61569452 
 160 0160 5AF21FD6 		.ascii	"Z\362\037\326\234\260\204@\207p\275\305\365 2\335\357"
 160      9CB08440 
 160      8770BDC5 
 160      F52032DD 
 160      EF
 161 0171 EC41594F 		.ascii	"\354AYO\003\363\322\231\264\342\263E\337\220\363\226"
 161      03F3D299 
 161      B4E2B345 
 161      DF90F396 
 162 0181 DA0231E9 		.ascii	"\332\0021\3519A\317G4\265\215\351gv\227\355<\317\332"
 162      3941CF47 
 162      34B58DE9 
 162      677697ED 
 162      3CCFDA
 163 0194 9D1DA9EE 		.ascii	"\235\035\251\356^'c\247\333S\335\255-\351\366\247\035"
 163      5E2763A7 
 163      DB53DDAD 
 163      2DE9F6A7 
 163      1D
 164 01a5 CD8D197A 		.ascii	"\315\215\031z\370\242+k;NoO6\225\025\321-\372G\264\004"
 164      F8A22B6B 
 164      3B4E6F4F 
 164      369515D1 
 164      2DFA47B4 
 165              		.text
 166              		.section	.gnu.lto_P2_4_Enable.b94980d8,"",%progbits
 167 0000 789C7D8F 		.ascii	"x\234}\217\277KBQ\024\307\317\367<{\012.\321$N\321\342"
 167      BF4B4251 
 167      14C7CFF7 
 167      3C7B0A2E 
 167      D1244ED1 
 168 0015 E610F517 		.ascii	"\346\020\365\027\0045&\270\205 aoM\220\032\305\367\320"
 168      043526B8 
 168      8520616F 
 168      4D901AC5 
 168      F7D0
 169 0027 401AC29A 		.ascii	"@\032\302\232\212\260-*-\243\202\242\355\321\220\265"
 169      8AB02D2A 
 169      2DA382A2 
 169      EDD190B5 
 170 0037 18D51048 		.ascii	"\030\325\020HT\203\221m\311\213\342\025a\347\372\306"
 170      5483916D 
 170      C98BE215 
 170      61E7FAC6 
 171 0047 A00BF79E 		.ascii	"\240\013\367\236\373\343{>\337\373\325\350\357\010\313"
 171      FBE37B3E 
ARM GAS  C:\Users\Thomas\AppData\Local\Temp\ccwy0EZM.s 			page 13


 171      DFFBD5E8 
 171      EF08CB
 172 0056 9C04D190 		.ascii	"\234\004\321\220Th\004.5\210\254\000\003jC\240\034#"
 172      5468042E 
 172      3588AC00 
 172      036A43A0 
 172      1C23
 173 0068 8757EE30 		.ascii	"\207W\3560Jvu5\030\3314M\363\355\346 \264\020r\231\310"
 173      4A767535 
 173      18D9344D 
 173      F3EDE620 
 173      B4107299 
 174 007d 610F832D 		.ascii	"a\017\203-DH4\235\302\317]P/\210\246\337{\3036t\301"
 174      4448349D 
 174      C2CF5D50 
 174      2F88A6DF 
 174      7BC33674 
 175 0092 D3FE806D 		.ascii	"\323\376\200mv\273G\365\345b\004:\223\313b&\013QKT\312"
 175      76BB47F5 
 175      E562043A 
 175      93CB6226 
 175      0B514B54 
 176 00a7 EA995955 		.ascii	"\352\231YU\255\211\263\217\305\306\332\224j\374d\345"
 176      AD89B38F 
 176      C5C6DA94 
 176      6AFC64E5 
 177 00b7 9B7F3ABE 		.ascii	"\233\177:\276\364\267\331ev.,\323\247l\036[W\327\201"
 177      F4B7D965 
 177      762E2CD3 
 177      A76C1E5B 
 177      57D781
 178 00ca DE15A963 		.ascii	"\336\025\251c\345\253\376\342/c\335*\300e\015;\010\243"
 178      E5ABFEE2 
 178      2F63DD2A 
 178      C0650D3B 
 178      08A3
 179 00dc 0249862A 		.ascii	"\002I\206*\312\240&\362\357\272\207\323<b\275\334>\364"
 179      CAA026F2 
 179      EFBA87D3 
 179      3C62BDDC 
 179      3EF4
 180 00ee A97680B0 		.ascii	"\251v\200\260+J1]\201\222\374\007\333\023\230 \350\036"
 180      2B4A315D 
 180      8192FC07 
 180      DB139820 
 180      E81E
 181 0100 79FBE49C 		.ascii	"y\373\344\234\225\\\231o\334.\3258\373m\026\315\200"
 181      955C996F 
 181      DC2ED538 
 181      FB6D16CD 
 181      80
 182 0111 CB3E4765 		.ascii	"\313>GeB\015YI\327G\017\260\354\323\361\236\222TT\250"
 182      420D5949 
 182      D7470FB0 
 182      ECD3F19E 
 182      925454A8 
 183 0125 88F2E7C1 		.ascii	"\210\362\347\301hb\302\23052\323s\306L2\236\236\317"
ARM GAS  C:\Users\Thomas\AppData\Local\Temp\ccwy0EZM.s 			page 14


 183      6862C298 
 183      3532D373 
 183      C64C329E 
 183      9ECF
 184 0137 A48C442C 		.ascii	"\244\214D,\236\036\033M\304\206\223#\321\024\375\002"
 184      9E1E1B4D 
 184      C4869323 
 184      D114FD02 
 185 0147 725C809F 		.ascii	"r\\\200\237"
 186              		.text
 187              		.section	.gnu.lto_P2_4_Start.b94980d8,"",%progbits
 188 0000 789C8D53 		.ascii	"x\234\215S\337KTA\024\23633\373\303\275\302J\320\313"
 188      DF4B5441 
 188      149E3333 
 188      FBC3BDC2 
 188      4AD0CB
 189 0013 0622F820 		.ascii	"\006\"\370 A(X\375\005=Do\013\276\305\206\204\355C/"
 189      412858FD 
 189      053D446F 
 189      0BBEC586 
 189      84ED432F 
 190 0027 1ACBFA28 		.ascii	"\032\313\372(\316\335\273-!!\"=\364\313P(\263\254\325"
 190      CEDDBB2D 
 190      2121223D 
 190      F4CB5028 
 190      B3ACD5
 191 003a 5653CB5F 		.ascii	"VS\313_W\203R\002K25\211\024\332\300^B1J)\335\316\231"
 191      57835202 
 191      4B323589 
 191      14DAC05E 
 191      42314A29 
 192 0051 BB99AB28 		.ascii	"\273\231\253(]\3303\367\316\234\371\316\367}\347\254"
 192      5DD833F7 
 192      CE9CF9CE 
 192      F77DE7AC 
 193 0061 607B9FE3 		.ascii	"`{\237\343\370+\222\214\225\343\012.\006\274i\2121\323"
 193      F82B928C 
 193      95E30A2E 
 193      06BC698A 
 193      31D3
 194 0073 CBB99829 		.ascii	"\313\271\230)c\312'\207\012\231\312\027 \235m\011@/"
 194      63CA2787 
 194      0A99CA17 
 194      209D6D09 
 194      402F
 195 0085 0C583D17 		.ascii	"\014X=\027\022\352\341+_\345\320dw^7J\356)\245VR\257"
 195      12EAE12B 
 195      5FE5D064 
 195      775E374A 
 195      EE29A556 
 196 009b CDA00D1B 		.ascii	"\315\240\015\033\234\2615\356\024\200\373P\3020i5\276"
 196      9CB135EE 
 196      1480FB50 
 196      C2306935 
 196      BE
 197 00ac 3967B8E3 		.ascii	"9g\270\343\230T\340\234A\007\270\001\327\256C\266\312"
 197      9854E09C 
ARM GAS  C:\Users\Thomas\AppData\Local\Temp\ccwy0EZM.s 			page 15


 197      4107B801 
 197      D7AE43B6 
 197      CA
 198 00bd 647A9263 		.ascii	"dz\222c\363\340\027l\203\203\244\340\241\340\245\220"
 198      F3E0176C 
 198      8383A4E0 
 198      A1E0A590 
 199 00cd 47C147C1 		.ascii	"G\301G\301\240\300X\032o\023\213/\234\323*\026 \326"
 199      A0C0581A 
 199      6F138B2F 
 199      9CD32A16 
 199      20D6
 200 00df BC9A3C42 		.ascii	"\274\232<Bx?\271\300Rw\3365&y\335/uEy78\337\244b\270"
 200      783FB9C0 
 200      5277DE35 
 200      2679DD2F 
 200      75457937 
 201 00f8 BB987E33 		.ascii	"\273\230~3\355]\346\270\243?;\314\370mh\201[\246\242"
 201      ED5DE6B8 
 201      A33F3BCC 
 201      F86D6881 
 201      5BA6A2
 202 010b 2C010FA0 		.ascii	",\001\017\240\016\036B\000yu\3426{\017\361y\253\360"
 202      0E1E4200 
 202      7975E236 
 202      7B0FF179 
 202      ABF0
 203 011d 1FA6D93E 		.ascii	"\037\246\331>x\325C\267\221\000<\242<F\014\004\233)"
 203      78D543B7 
 203      91003CA2 
 203      3C460C04 
 203      9B29
 204 012f 13B3102B 		.ascii	"\023\263\020+ \310\206\221\206d\236(\006z\237]\274\233"
 204      20C88691 
 204      86649E28 
 204      067A9F5D 
 204      BC9B
 205 0141 10C56D4A 		.ascii	"\020\305mJ\305\226\206_\234\263\315V\265\225\311\000"
 205      C596865F 
 205      9CB3CD56 
 205      B595C900 
 206 0151 157A0C02 		.ascii	"\025z\014\002\365\303\261\000\034\015d\233\000I(\306"
 206      F5C3B100 
 206      1C0D649B 
 206      004928C6 
 207 0161 3BD337DB 		.ascii	";\3237\333-?\325\020\300\240\013k,\300\370\217\206\255"
 207      2D3FD510 
 207      C0A00B6B 
 207      2CC0F88F 
 207      86AD
 208 0173 89488E7D 		.ascii	"\211H\216}\366hX{\267\306!\327W;\363\222\023\022\203"
 208      F668587B 
 208      B7C621D7 
 208      573BF392 
 208      131283
 209 0186 6E3AE5BB 		.ascii	"n:\345\273]\207'\340\306Z)\222\344\241\266\265\265\266"
 209      5D8727E0 
ARM GAS  C:\Users\Thomas\AppData\Local\Temp\ccwy0EZM.s 			page 16


 209      C65A2992 
 209      E4A1B6B5 
 209      B5B6
 210 0198 1A544E5A 		.ascii	"\032TNZ\223\246\2229\036I\355\321\345\266\364[\203<"
 210      93A69239 
 210      1E49EDD1 
 210      E5B6F45B 
 210      833C
 211 01aa BA66A247 		.ascii	"\272f\242G.\350\201\000\364j\217\236\222G\013`\255'"
 211      2EE88100 
 211      F46A8F9E 
 211      92470B60 
 211      AD27
 212 01bc 909E03E9 		.ascii	"\220\236\003\351uP\277}\376mi\010\327:\252\350sT4\003"
 212      7550BF7D 
 212      FE6D6908 
 212      D73AAAE8 
 212      73543403 
 213 01d0 E51C88D8 		.ascii	"\345\034\210\330\217\210\010\342h\036?\343`\346\035"
 213      8F8808E2 
 213      681E3FE3 
 213      60E61D
 214 01df 7865204B 		.ascii	"xe K\342\273\333\311\3669\027^\265,\247\244n\025\022"
 214      E2BBDBC9 
 214      F639175E 
 214      B52CA7A4 
 214      6E1512
 215 01f2 78F6DF04 		.ascii	"x\366\337\004\236k\002>\314\216\255t\367\226\222\305"
 215      9E6B023E 
 215      CC8EAD74 
 215      F79692C5 
 216 0202 FBCED2EE 		.ascii	"\373\316\322\356\341\031\334\036\236!\334\326\275\243"
 216      E119DC1E 
 216      9E21DCD6 
 216      BDA3
 217 0210 E990D9F9 		.ascii	"\351\220\331\371DES7\316\3466k\356p\266\213bO\237\206"
 217      44455337 
 217      CEE6366B 
 217      EE70B68B 
 217      624F9F86 
 218 0224 759F4648 		.ascii	"u\237FH\222\3043k\251oR\217\236\\\233\310\366i`F%\362"
 218      92C4336B 
 218      A96F528F 
 218      9E5C9BC8 
 218      F6696046 
 219 023a 77A818DD 		.ascii	"w\250\030\335Va\377\365$\201\025\035\014\003av\3700"
 219      5661FFF5 
 219      2481151D 
 219      0C036176 
 219      F830
 220 024c A275ED8F 		.ascii	"\242u\355\2170\246}0\330G\260\354~\234(\314g\273\215"
 220      30A67D30 
 220      D847B0EC 
 220      7E9C28CC 
 220      67BB8D
 221 025f 40DA52D3 		.ascii	"@\332R\323\204q\250\303\177\245\207}\002\323\376\340"
 221      8471A8C3 
ARM GAS  C:\Users\Thomas\AppData\Local\Temp\ccwy0EZM.s 			page 17


 221      7FA5877D 
 221      02D3FEE0 
 222 026f 224534D0 		.ascii	"\"E4\320i\234M\224\216n\025\225\206N\207\253\303\221"
 222      699C4D94 
 222      8E6E1595 
 222      864E87AB 
 222      C391
 223 0281 F3D1F085 		.ascii	"\363\321\360\205\312\212\232\332HU8\024\254\2509u2\024"
 223      CA8A9ADA 
 223      48553814 
 223      ACA83975 
 223      3214
 224 0293 2CAF3C51 		.ascii	",\257<QZ\305\374\027\253\243\341H\244\366R\3249\375"
 224      5AC5FC17 
 224      ABA3E148 
 224      A4F652D4 
 224      39FD
 225 02a5 0334A983 		.ascii	"\0034\251\203\021"
 225      11
 226              		.text
 227              		.section	.gnu.lto_P2_4_DisableInt.b94980d8,"",%progbits
 228 0000 789C7D90 		.ascii	"x\234}\220\315K\033Q\024\305\357\271\223\031\007\002"
 228      CD4B1B51 
 228      14C5EFB9 
 228      93190702 
 229 0010 52BA10C9 		.ascii	"R\272\020\311\306B\004)\210P\253\177\201\213.\272\021"
 229      C6420429 
 229      8850AB7F 
 229      818B2EBA 
 229      11
 230 0021 B20D48B1 		.ascii	"\262\015H\261\263p\2432\304\245\370\242S(\026D\264`"
 230      B370A332 
 230      C4A5F8A2 
 230      53281644 
 230      B460
 231 0033 4022B810 		.ascii	"@\"\270\020Mc\265\245\256\\\015.\304 XJ\301\264\"\255"
 231      4D63B5A5 
 231      AE5C0D2E 
 231      C420584A 
 231      C1B422AD 
 232 0047 8B445484 		.ascii	"\213DT\204V\005\353X$\3367\323\225B\007\336\274\017"
 232      5605EB58 
 232      24DE37D3 
 232      954207DE 
 232      BC0F
 233 0059 CEF9DD73 		.ascii	"\316\371\335s\257A\367\277\204\254o z\";\014\002O\356"
 233      AF41F7BF 
 233      84AC6F20 
 233      7A223B0C 
 233      024FEE
 234 006c 10656D06 		.ascii	"\020em\006\364\201@#\214\021\034\363\031c\322/\346\342"
 234      F4814023 
 234      8C111CF3 
 234      1963D22F 
 234      E6E2
 235 007e 2D0B4AA9 		.ascii	"-\013J\251\337\347\345\306W\215\001\023]p\204\301\""
 235      DFE7E5C6 
ARM GAS  C:\Users\Thomas\AppData\Local\Temp\ccwy0EZM.s 			page 18


 235      578D0113 
 235      5D7084C1 
 235      22
 236 008f 5A4834E5 		.ascii	"ZH4\345\343\353=\323HB\237\253\245\265\267Fr^\251\321"
 236      E3EB3DD3 
 236      48429FAB 
 236      A5B5B746 
 236      725EA9D1 
 237 00a3 83527533 		.ascii	"\203Ru3\256r\312;\250\325\232\002a/\301\020'Z\023x\234"
 237      AE72CA3B 
 237      A8D59A02 
 237      612FC110 
 237      275A1378 
 238 00b8 F817440C 		.ascii	"\370\027D\014g\336M9nyR\340\001\012HFp\274\203%\371"
 238      67DE4D39 
 238      6E7952E0 
 238      010A4846 
 238      70BC8325 
 239 00cd A05F561F 		.ascii	"\240_V\037\372\252V\373T\231\332z\312\266\204\225\247"
 239      FAAA56FB 
 239      5499DA7A 
 239      CAB68495 
 239      A7
 240 00de 1805CCA6 		.ascii	"\030\005\314\246\376\021Ud\351\324U\271\310n\354c\314"
 240      FE115564 
 240      E9D455B9 
 240      C86EEC63 
 240      CC
 241 00ef 9F79D3A0 		.ascii	"\237y\323\240\011\177\330\220\002s_'Vx\370\257z\255"
 241      097FD890 
 241      02735F27 
 241      5678F8AF 
 241      7AAD
 242 0101 EC802581 		.ascii	"\354\200%\201\346\0261,\356\030\355\202\303R\302\024"
 242      E616312C 
 242      EE18ED82 
 242      C352C214 
 243 0111 31ED61E3 		.ascii	"1\355a\343r\374p\331\215\31411\257\177\237?5\2178`s"
 243      72FC70D9 
 243      8DCC3131 
 243      AF7F9F3F 
 243      358F3860 
 244 0126 BA945531 		.ascii	"\272\224U1\035\370g\345\363\027;|\012\363\337L\2547"
 244      1DF867E5 
 244      F3173B7C 
 244      0AF3DF4C 
 244      AC37
 245 0138 E7319BF5 		.ascii	"\3471\233\365\020\260\205e$\360\036\322\036V\220\207"
 245      10B08565 
 245      24F01ED2 
 245      1E569087 
 246 0148 00C7AEAC 		.ascii	"\000\307\256\254\210fF\300\302N\356\244^\273\255_ \254"
 246      886646C0 
 246      C24EEEA4 
 246      5EBBAD5F 
 246      20AC
 247 015a 8A548A4E 		.ascii	"\212T\212NAk\376\003\373 0A\320><\177v;\314Lw[\253\273"
ARM GAS  C:\Users\Thomas\AppData\Local\Temp\ccwy0EZM.s 			page 19


 247      416BFE03 
 247      FB203041 
 247      D03E3C7F 
 247      763BCC4C 
 248 0172 D0E3C047 		.ascii	"\320\343\300GiMz\011\330\246\037\310\372\371\347\241"
 248      694D7A09 
 248      D8A61FC8 
 248      FAF9E7A1 
 249 0182 98F4A0A0 		.ascii	"\230\364\240\240\007$\232Gm\351gN\277\343\276\3108/"
 249      07249A47 
 249      6DE9674E 
 249      BFE3BEC8 
 249      382F
 250 0194 7B520343 		.ascii	"{R\003Cn\257\223\356N\015tu\246\273\333{:\332z\251\276"
 250      6EAF93EE 
 250      4E0D7475 
 250      A6BBDB7B 
 250      3ADA7AA9 
 251 01a9 AF3FE3B8 		.ascii	"\257?\343\270\356\320`&\225\021\321-\003h\264P"
 251      EED06026 
 251      9511D12D 
 251      0368B450 
 252              		.text
 253              		.section	.gnu.lto_P2_4_Stop.b94980d8,"",%progbits
 254 0000 789C7D8F 		.ascii	"x\234}\217=HBQ\030\206\277\367\273v\025\204\210&q\212"
 254      3D484251 
 254      1886BFF7 
 254      BB761584 
 254      8826718A 
 255 0014 163787A8 		.ascii	"\0267\207\250\251\261\301Up\013A\302\356\232 5\212\367"
 255      A9B1C155 
 255      700B41C2 
 255      EE9A2035 
 255      8AF7
 256 0026 A2413484 		.ascii	"\242A4\204:\005\241[TZ6\024m\301\245E[\212h\010\354"
 256      3A05A15B 
 256      545A3614 
 256      6DC1A545 
 256      5B8A6808 
 257 003b 77B0BF2D 		.ascii	"w\260\277-\221~nQ\366\035\357\030t\340\234\357\374\274"
 257      917E6E51 
 257      F61DEF18 
 257      74E09CEF 
 257      FCBC
 258 004d DFF39E57 		.ascii	"\337\363\236W\243\277#(3\012\242Q\251\320\010\\8!\262"
 258      A3BF2328 
 258      330AA251 
 258      A9D0085C 
 258      3821B2
 259 0060 7C0CA80D 		.ascii	"|\014\250\015\201\262\214,\236\271\303(\330\265U\177"
 259      81B28C2C 
 259      9EB9C328 
 259      D8B5557F 
 260 0070 68DD34CD 		.ascii	"h\3354\315\227\322a`1\3400Q\227]\0146\020\"\321t\362"
 260      97D26160 
 260      31E03051 
 260      975D0C36 
ARM GAS  C:\Users\Thomas\AppData\Local\Temp\ccwy0EZM.s 			page 20


 260      1022D174 
 261 0085 DF177E3D 		.ascii	"\337\027~=/\232!\367\015\233\320\005O\273\303\266\331"
 261      2F9A21F7 
 261      0D9BD005 
 261      4FBBC3B6 
 261      D9
 262 0096 EBEDBD16 		.ascii	"\353\355\275\026\233\223\320\231\034\0263Y\210\332\242"
 262      9B93D099 
 262      1C163359 
 262      88DAA2
 263 00a5 5256F7CC 		.ascii	"RV\367\314\252j-\034\275-?T\246U\343;+\337\334\335\301"
 263      AA6A2D1C 
 263      BD2D3F54 
 263      A655E33B 
 263      2BDFDCDD 
 264 00ba B1F7891D 		.ascii	"\261\367\211\035\346n\3232=\312\346\266}z\346\353_\221"
 264      E66ED332 
 264      3DCAE6B6 
 264      7D7AE6EB 
 264      5F91
 265 00cc 3A563F1B 		.ascii	":V?\033\217\3362\326\254<\034\326\260\205 \252\220d"
 265      8FDE32D6 
 265      AC3C1CD6 
 265      B08520AA 
 265      9064
 266 00de A8A10C6A 		.ascii	"\250\241\014j!\367\241\2738\315%\026\213\373\225A\325"
 266      21F7A1BB 
 266      38CD2516 
 266      8BFB9541 
 266      D5
 267 00ef AEFD80B0 		.ascii	"\256\375\200\260-Rq-Ai\376\243\355\010M\030t\205\234"
 267      2D52712D 
 267      4169FEA3 
 267      ED084D18 
 267      74859C
 268 0102 7DD96025 		.ascii	"}\331`%W\356\225\363\225:g\276\314%\323\347\260\247"
 268      57EE95F3 
 268      953A67BE 
 268      CC25D3E7 
 268      B0A7
 269 0114 AB42A18E 		.ascii	"\253B\241\216\214\304\033\240\033X\366u\244\257$\225"
 269      8CC41BA0 
 269      1B58F675 
 269      A4AF2495 
 270 0124 152AA37C 		.ascii	"\025*\243|z$\034\217\030sFzf\336\230M\304R\013\351\244"
 270      7A241C8F 
 270      1873467A 
 270      66DE984D 
 270      C4520BE9 
 271 0139 118FC652 		.ascii	"\021\217\306RS\023\361\350Xb<\234\244_\221$\201\331"
 271      5313F1E8 
 271      58623C9C 
 271      A45F9124 
 271      81D9
 272              		.text
 273              		.section	.gnu.lto_P2_4_SetIntMode.b94980d8,"",%progbits
 274 0000 789C8D51 		.ascii	"x\234\215Q=,CQ\024>\337\275O\373\350@Lt\222H\211D\014"
ARM GAS  C:\Users\Thomas\AppData\Local\Temp\ccwy0EZM.s 			page 21


 274      3D2C4351 
 274      143EDFBD 
 274      4FFBE840 
 274      4C749248 
 275 0017 C22E3188 		.ascii	"\302.1\210Mtm\"\302\033,\310K;{\325Z:!\006\211\220\212"
 275      4D746D22 
 275      C21B2CC8 
 275      4B3B7BD5 
 275      5A3A2106 
 276 002e 889F527F 		.ascii	"\210\237R\177\253H\323\245,\204E4\302\240\022\014\342"
 276      AB48D3A5 
 276      2C844534 
 276      C2A0120C 
 276      E2
 277 003f 2FAAE2EF 		.ascii	"/\252\342\357\334\367L$\342%\367\234s\357\373~\316="
 277      DCF74C24 
 277      E225F79C 
 277      73EFFB7E 
 277      CE3D
 278 0051 57D2EFCF 		.ascii	"W\322\357\317\313K\023D\215\234!\011bt\237(\254\013"
 278      CB4B1344 
 278      8D9C2109 
 278      62749F28 
 278      AC0B
 279 0063 4015041A 		.ascii	"@\025\004\032\022\030\302\265\270\027\030M%&=\265\363"
 279      1218C2B5 
 279      B817184D 
 279      25263DB5 
 279      F3
 280 0074 9665DD1D 		.ascii	"\226e\335\035\215U\216T\024\230\366(\034\031,\240\226"
 280      8D558E54 
 280      1498F628 
 280      1C192CA0 
 280      96
 281 0085 21B19D58 		.ascii	"!\261\235X\262XV\203\270\236x\315\334H\337\234e\015"
 281      B2585683 
 281      B89E78CD 
 281      DC48DF9C 
 281      650D
 282 0097 A7B69356 		.ascii	"\247\266\223V\013\012\254\271\010\311\014\324{Q\347"
 282      0B0AACB9 
 282      08C90CD4 
 282      7B51E7
 283 00a6 253E202C 		.ascii	"%> ,\301\247\300\367\321\367c\217+\312\332e\216&\226"
 283      C1A7C0F7 
 283      D1F7638F 
 283      2BCADA65 
 283      8E2696
 284 00b9 E102E7B5 		.ascii	"\341\002\347\265\362\224\365\371\271\225\231X\254\321"
 284      F294F5F9 
 284      B9959958 
 284      ACD1
 285 00c7 4A047384 		.ascii	"J\004s\204T\241H\005\027\024\335\255J]\005\242\034/"
 285      54A14805 
 285      1714DDAD 
 285      4A5D05A2 
 285      1C2F
ARM GAS  C:\Users\Thomas\AppData\Local\Temp\ccwy0EZM.s 			page 22


 286 00d9 D5F7256F 		.ascii	"\325\367%o8\313,\322\317\261\217]S\251\345\205}\211"
 286      38CB2CD2 
 286      CFB18F5D 
 286      53A9E585 
 286      7D89
 287 00eb D978DC73 		.ascii	"\331x\334s%\012BF\366\302\226\246\274\317s\007\207\272"
 287      250A4246 
 287      F6C296A6 
 287      BCCF7307 
 287      87BA
 288 00fd 7D446A7B 		.ascii	"}Dj{\362p:S2\215\251p\224[\326\220\200\027+\3401a\025"
 288      F2703A53 
 288      328DA970 
 288      945BD690 
 288      80172BE0 
 289 0114 D3A02C22 		.ascii	"\323\240,\"/.GN:\212\267\027o\021\233\256\275\360}\222"
 289      2F2E474E 
 289      3A8AB717 
 289      6F119BAE 
 289      BDF07D92 
 290 0128 0C65D771 		.ascii	"\014e\327q(\314_jk\254\306\032d\267\230nw$\213\376b"
 290      28CC5F6A 
 290      6BACC61A 
 290      64B7986E 
 290      77248BFE 
 291 013d ACFFF077 		.ascii	"\254\377\360w\347\205r\310\277eFJm\1777a\303\266\217"
 291      E78572C8 
 291      BF65464A 
 291      6D7F3761 
 291      C3B68F
 292 0150 3C7D4374 		.ascii	"<}Ct\226d\340\377:\332\264;\322\351\014\341\324V\247"
 292      9664E0FF 
 292      3ADAB43B 
 292      D2E90CE1 
 292      D456A7
 293 0163 42AB97CD 		.ascii	"B\253\227\315\361+\361(y\260U\015\2016\243\3370\273"
 293      F12BF128 
 293      79B0550D 
 293      8136A3DF 
 293      30BB
 294 0175 83466F97 		.ascii	"\203Fo\227\177 d\366\030\201\016\377@ks\240\243\261"
 294      7F2064F6 
 294      18810EFF 
 294      406B73A0 
 294      A3B1
 295 0187 ABA9A187 		.ascii	"\253\251\241\207J\373\372\203\206i\206\006\203\316\337"
 295      4AFBFA83 
 295      86698606 
 295      83CEDF
 296 0196 2FC0A3BF 		.ascii	"/\300\243\2778"
 296      38
 297              		.text
 298              		.section	.gnu.lto_P2_4_GetIntStatus.b94980d8,"",%progbits
 299 0000 789C6366 		.ascii	"x\234cf\300\004R@\374\007\210\225\200\230\221\231\201"
 299      C0045240 
 299      FC078895 
 299      80989199 
ARM GAS  C:\Users\Thomas\AppData\Local\Temp\ccwy0EZM.s 			page 23


 299      81
 300 0011 9169C239 		.ascii	"\221i\3029\006\206F\016&FF\020\203\201\221\241\236\211"
 300      0686460E 
 300      26464610 
 300      838191A1 
 300      9E89
 301 0023 B19EF125 		.ascii	"\261\236\361%\323G&\3063;\377]fT_\332\320\320\364a\321"
 301      D34726C6 
 301      333BFF5D 
 301      66545FDA 
 301      D0D0F461 
 302 0038 F4BBDCAD 		.ascii	"\364\273\334\255\022?\231\030\030>310\352H1j\202\314"
 302      123F9918 
 302      183E3331 
 302      30EA4831 
 302      6A82CC
 303 004b 615CCEA8 		.ascii	"a\\\316\250\316\000T\370\261\345\357un\266\226\206\206"
 303      CE0054F8 
 303      B1E5EF75 
 303      6EB69686 
 303      86
 304 005c 0601903C 		.ascii	"\006\001\220<Pb\005#\033#\220^/t\240\341\377\377\317"
 304      50620523 
 304      1B23905E 
 304      2F74A0E1 
 304      FFFFCF
 305 006f 77A7ACD0 		.ascii	"w\247\254\320gaab\370\311\004\264\021d\010\303\023 "
 305      67616162 
 305      F8C904B4 
 305      116408C3 
 305      1320
 306 0081 01B2EF29 		.ascii	"\001\262\357)\023\023\210f\276\305x\350[\327\263\323"
 306      13138866 
 306      BEC578E8 
 306      5BD7B3D3 
 307 0091 16208DDF 		.ascii	"\026 \215\337\231@\226\357\274\372\3744\373\013\246"
 307      994096EF 
 307      BCFAFC34 
 307      FB0BA6
 308 00a0 9F4C4C8F 		.ascii	"\237LL\217O46\260\200\254\271\377\344\374E\016\260\020"
 308      4F3436B0 
 308      80ACB9FF 
 308      E4FC450E 
 308      B010
 309 00b2 0388FBED 		.ascii	"\003\210\373\355\305\354\265Ls\031g7\2660\376dbf\\\311"
 309      C5ECB54C 
 309      73196737 
 309      B630FE64 
 309      62665CC9 
 310 00c6 28C5B88A 		.ascii	"(\305\270\212\021\350,\306\325\214s\031\031n16\377h"
 310      11E82CC6 
 310      D58C7319 
 310      196E3136 
 310      FF68
 311 00d8 D38198C7 		.ascii	"\323\201\230\307\0141\362\373\237\343\255\374 \375\014"
 311      0C31F2FB 
 311      9FE3ADFC 
ARM GAS  C:\Users\Thomas\AppData\Local\Temp\ccwy0EZM.s 			page 24


 311      20FD0C
 312 00e7 EC0C8C6B 		.ascii	"\354\014\214k\200J\35712B\025\200\235\304\010r\012\320"
 312      804AEF31 
 312      32421580 
 312      9DC40872 
 312      0AD0
 313 00f9 6C05BD18 		.ascii	"l\005\275\030\367\324\274\324\242\304\222\324\224\370"
 313      F7D4BCD4 
 313      A2C492D4 
 313      94F8
 314 0107 E0FCD2A2 		.ascii	"\340\374\322\242\344\324\230\200\340|g\323\230\000\243"
 314      E4D49880 
 314      E07C67D3 
 314      9800A3
 315 0116 7813BD64 		.ascii	"x\023\275d\006\000\363\025fA"
 315      0600F315 
 315      6641
 316              		.text
 317              		.section	.gnu.lto_P2_4_WriteRegValue.b94980d8,"",%progbits
 318 0000 789C654F 		.ascii	"x\234eO1KBQ\030\375\316\275O1l\220\246r\012B\\\302!"
 318      314B4251 
 318      18FDCEBD 
 318      4F316C90 
 318      A6720A42 
 319 0017 6A690A0A 		.ascii	"ji\012\012Z\003\033\005\021{QK\202\331\354}b4\024\344"
 319      5A031B05 
 319      117B514B 
 319      82D9EC7D 
 319      623414E4 
 320 002b 10114953 		.ascii	"\020\021IS\224\225\225A\177\340QCBP\024\204\330P \012"
 320      94959541 
 320      7FE05143 
 320      42501484 
 320      D850200A 
 321 003f 050E8992 		.ascii	"\005\016\211\2229\204}\027\307.\\\276\357\034\316=\347"
 321      39847D17 
 321      C72E5CBE 
 321      EF1CCE3D 
 321      E7
 322 0050 5C49FF8F 		.ascii	"\\I\377\217\227\257\037D\243<!\011\"\363@d\271\004\240"
 322      97AF1F44 
 322      A33C2109 
 322      22F34064 
 322      B904A0
 323 0063 17022505 		.ascii	"\027\002%\005\222\370\024\015\201\214\235\337s\373\217"
 323      92F8140D 
 323      818C9DDF 
 323      73FB8F
 324 0072 94525F95 		.ascii	"\224R_\225\354\320\372`G\0205E\317\0069\370Yr\333\256"
 324      ECD0FA60 
 324      47103545 
 324      CF0639F8 
 324      5972DBAE 
 325 0086 6F38E408 		.ascii	"o8\344\010\210\367\373\312O\263\377Ct\004<\032\356\227"
 325      88F7FBCA 
 325      4FB3FF43 
 325      74043C1A 
ARM GAS  C:\Users\Thomas\AppData\Local\Temp\ccwy0EZM.s 			page 25


 325      EE97
 326 0098 6A2DA9A1 		.ascii	"j-\251\241\020\032\226\313\317[.\337\241R)\273x\245"
 326      101A96CB 
 326      CF5B2EDF 
 326      A15229BB 
 326      78A5
 327 00aa A6989738 		.ascii	"\246\230\2278\201d?\234\302\2133x\211)B\036>-o\244\177"
 327      81643F9C 
 327      C28B3378 
 327      8929421E 
 327      3E2D6FA4 
 328 00bf 4B6E679A 		.ascii	"Kng\232\263=\275L\234\303\311\265\2510`\253n\367\272"
 328      B33DBD4C 
 328      9CC3C9B5 
 328      A93060AB 
 328      6EF7BA
 329 00d2 B5539C34 		.ascii	"\265S\2344\014n\255\365Te\205\256_\343,\236\362\025"
 329      0C6EADF5 
 329      546585AE 
 329      5FE32C9E 
 329      F215
 330 00e4 37BB8DD6 		.ascii	"7\273\215\326\274~\303^\333\233w\307.\335\304H\025-"
 330      BC7EC35E 
 330      DB9B77C7 
 330      2EDDC448 
 330      152D
 331 00f6 6568FBF7 		.ascii	"eh\373\367\352\343S\217\"\015sV\375\033\007\310Zit\204"
 331      EAE3538F 
 331      220D7356 
 331      FD1B07C8 
 331      5A697484 
 332 010a 03175CE8 		.ascii	"\003\027\\\350\222\013\021\012\314\266\331\364\015\226"
 332      920B110A 
 332      CCB6D9F4 
 332      0D96
 333 0118 FD12D47E 		.ascii	"\375\022\324~\372\363U\001\035\303\241\303\201\320\254"
 333      FAF35501 
 333      1DC3A1C3 
 333      81D0AC
 334 0127 B962C623 		.ascii	"\271b\306#\011s!\034\214\255\305\243fh.\030\233\236"
 334      0973211C 
 334      8CADC5A3 
 334      66682E18 
 334      9B9E
 335 0139 08CD8D85 		.ascii	"\010\315\215\205\307\003Q\352[]Z^L\314D\022\221?\011"
 335      C70351EA 
 335      5B5D5A5E 
 335      4CCC4412 
 335      913F09
 336 014c E17987   		.ascii	"\341y\207"
 337              		.text
 338              		.section	.gnu.lto_P2_4_ReadRegValue.b94980d8,"",%progbits
 339 0000 789C6D52 		.ascii	"x\234mR_HSQ\030\377\276s\356\275\256\315\226\364\270"
 339      5F485351 
 339      18FFBE73 
 339      EEBDAECD 
 339      96F4B8
ARM GAS  C:\Users\Thomas\AppData\Local\Temp\ccwy0EZM.s 			page 26


 340 0013 1783115A 		.ascii	"\027\203\021Z\204\205\324K\275\004\021\321\233\340\353"
 340      8485D44B 
 340      BD0411D1 
 340      9BE0EB
 341 0022 40442704 		.ascii	"@D'\004\221`\372(\236\351\005%\263e\205\231\341(\302"
 341      9160FA28 
 341      9EE90525 
 341      B3658599 
 341      E128C2
 342 0035 9A995ACD 		.ascii	"\232\231Z\315\376\370\017\246E\012\226f\226\222\214"
 342      FEF80FA6 
 342      450A9666 
 342      96928C
 343 0044 1AE2287D 		.ascii	"\032\342(}\210l\345\032R\353;\347:h\331\205\355\236"
 343      886CE51A 
 343      52EB3BE7 
 343      3A68D985 
 343      ED9E
 344 0056 73EEEFFB 		.ascii	"s\356\357\373\235\357\367\373}\034\266>\307\351W\315"
 344      9DEFF7FB 
 344      7D1CB63E 
 344      C7E957CD 
 345 0066 010ED01B 		.ascii	"\001\016\320\033\015@vq\032\300gc\250Y\013n-\306l\032"
 345      0D407671 
 345      1AC06763 
 345      A8590B6E 
 345      2DC66C1A 
 346 007a E3E72700 		.ascii	"\343\347'\000\204]7\263@d\353\210\362\034\020\352\030"
 346      845D37B3 
 346      4064EB88 
 346      F21C10EA 
 346      18
 347 008b D774AC63 		.ascii	"\327t\254c\232E\270\302\326\030N-\375\214g\177fI\006"
 347      9A45B8C2 
 347      D6184E2D 
 347      FD8C677F 
 347      664906
 348 009e 3940DB8E 		.ascii	"9@\333\216\205\330w.\267\310\344v8>\275d\344u\011Q\377"
 348      85D8772E 
 348      B7C8E476 
 348      383EBD64 
 348      E4750951 
 349 00b3 F5DB6C69 		.ascii	"\365\333li\373\225\033\230d\014\342\014\360\016\272"
 349      FB951B98 
 349      640CE20C 
 349      F00EBA
 350 00c2 30882EC9 		.ascii	"0\210.\311\333\215y\022\333\035\371\021vr7\312\265\277"
 350      DB8D7912 
 350      DB1DF911 
 350      767237CA 
 350      B5BF
 351 00d4 3930B7DD 		.ascii	"90\267\335}\223\352\242\327Z\032\263EP\230\321T*\227"
 351      7D93EAA2 
 351      D75A1AB3 
 351      455098D1 
 351      542A97
 352 00e7 8AF12EF2 		.ascii	"\212\361.\362\314z\371P\311\232\371k\301a\230B\210\034"
ARM GAS  C:\Users\Thomas\AppData\Local\Temp\ccwy0EZM.s 			page 27


 352      CC7AF950 
 352      C99AF96B 
 352      C1619842 
 352      881C
 353 00f9 EC41B7BC 		.ascii	"\354A\267\274\204\270\357\241\201\000L\236\020\346\352"
 353      84B8EFA1 
 353      81004C9E 
 353      10E6EA
 354 0108 58579BDD 		.ascii	"XW\233\335\242M\306^8D{\232\226\247i\367\271pO\232\024"
 354      A24DC65E 
 354      38447B9A 
 354      96A769F7 
 354      B9704F9A 
 355 011d 7BD1DDBF 		.ascii	"{\321\335\2773,R\251\320\313\266\246\375\206\215C\222"
 355      332C52A9 
 355      D0CBB6A6 
 355      FD868D43 
 355      92
 356 012e 691AFDE9 		.ascii	"i\032\375\351:HFCA\000\226\351*\262j\231\244\231Y<\306"
 356      3A484643 
 356      410096E9 
 356      2AB26A99 
 356      A499593C 
 357 0143 38907F7C 		.ascii	"8\220\177|\021\307\327\317\255\257\024\312\036\022\214"
 357      11C7D7CF 
 357      ADAF14CA 
 357      1E128C
 358 0152 D3F59F2E 		.ascii	"\323\365\237.\337jrJs\2147\223>\241\311\256?.\317\314"
 358      DF6A724A 
 358      738C3793 
 358      3EA1C9AE 
 358      3F2ECFCC 
 359 0166 DAD49112 		.ascii	"\332\324\221\022\2618\025htt\342u\237IFea\037\211\354"
 359      B1381568 
 359      7474E275 
 359      9F494665 
 359      611F89EC 
 360 017a 9722F13E 		.ascii	"\227\"\361>v\222\016\210\221\367\024\006\237\307ze\267"
 360      76920E88 
 360      91F71406 
 360      9FC77A65 
 360      B7
 361 018b FFD57864 		.ascii	"\377\325xd\007\337\253<{\033\234\254\327,q\376\226L"
 361      07DFAB3C 
 361      7B1B9CAC 
 361      D72C71FE 
 361      964C
 362 019d 710FFE23 		.ascii	"q\017\376#\356\241rd&\372\314\257\342\343\364=DW\021"
 362      EEA17264 
 362      26FACCAF 
 362      E2E3F43D 
 362      445711
 363 01b0 7338D1EC 		.ascii	"s8\321\354\31404<\330\261[\342\225\235q\206\377\332"
 363      CC30343C 
 363      D8B15BE2 
 363      959D7186 
 363      FFDA
ARM GAS  C:\Users\Thomas\AppData\Local\Temp\ccwy0EZM.s 			page 28


 364 01c2 2D4DC001 		.ascii	"-M\300\001\232)\300G\344w\257bnm\035\010(\261\3747\002"
 364      9A29C047 
 364      E477AF62 
 364      6E6D1D08 
 364      28B1FC37 
 365 01d7 3EB6A873 		.ascii	">\266\250s$\200>N<\037\032\321\363oSut\2447r\324F\250"
 365      24803E4E 
 365      3C1F1AD1 
 365      F36F5375 
 365      74A43772 
 366 01ee 745F4F30 		.ascii	"t_O0_5\022\301\006\205N0Y\020\230\273\320\307j7D\223"
 366      5F3512C1 
 366      06854E30 
 366      591098BB 
 366      D0C76A37 
 367 0204 20AC2D4E 		.ascii	" \254-Ns \357\303\247XKqlS\324*\014B\303;4\3377\304"
 367      7320EFC3 
 367      A7584B71 
 367      6C53D42A 
 367      0C42C33B 
 368 021c 075C96F1 		.ascii	"\007\\\226\361\306\337S\251\223\312\301\315\251\211"
 368      C6DF53A9 
 368      93CAC1CD 
 368      A989
 369 022a 315DC6A5 		.ascii	"1]\306\245b\232_\265[h\215\320\243\241\2159\205\266"
 369      629A5FB5 
 369      5B688DD0 
 369      A3A18D39 
 369      85B6
 370 023c 5FDA1293 		.ascii	"_\332\022\223]\305\364z*\224p\246cr\340\020\3054\254"
 370      5DC5F47A 
 370      2A9470A6 
 370      6372E010 
 370      C534AC
 371 024f 621A9131 		.ascii	"b\032\2211)\306/\253\207-F=#V_873\330QYA\355\213#jV"
 371      29C62FAB 
 371      872D463D 
 371      23565F38 
 371      3733D851 
 372 026a 7BA4041D 		.ascii	"{\244\004\035>\240/\234Xd\233\014 G\014\251Y\232\263"
 372      3EA02F9C 
 372      58649B0C 
 372      20470CA9 
 372      599AB3
 373 027d 5D059E13 		.ascii	"]\005\236\023\3363\336\252\322joyIqeMU\231\327ST\\y"
 373      DE33DEAA 
 373      D26A6F79 
 373      4971654D 
 373      5599D753 
 374 0294 EC90A7A8 		.ascii	"\354\220\247\250\260\344`A\031\030U\336\2635\247\253"
 374      B0E46041 
 374      191855DE 
 374      B335A7AB 
 375 02a4 8D8A5315 		.ascii	"\215\212S\025\225'\313\377\000c\377H9"
 375      9527CBFF 
 375      0063FF48 
 375      39
ARM GAS  C:\Users\Thomas\AppData\Local\Temp\ccwy0EZM.s 			page 29


 376              		.text
 377              		.section	.gnu.lto_.symbol_nodes.b94980d8,"",%progbits
 378 0000 789C55CF 		.ascii	"x\234U\317\261\015\3020\024\004\320\263\177\034;\211"
 378      B10DC230 
 378      1404D0B3 
 378      7F1C3B89 
 379 0010 93929609 		.ascii	"\223\222\226\011`\305\213\322\320\262\000\210D\254A"
 379      60C58BD2 
 379      D0B20088 
 379      44AC41
 380 001f 13513303 		.ascii	"\023Q3\003\364\210\021\020FI\341\377\233\323\323]\363"
 380      F4881110 
 380      4649E1FF 
 380      9BD3D35D 
 380      F3
 381 0030 05C0DE60 		.ascii	"\005\300\336`9\333\0218>\000\322\234\246\000\353iV\343"
 381      39DB1138 
 381      3E00D29C 
 381      A600EB69 
 381      56E3
 382 0042 7C49165A 		.ascii	"|I\026ZeGQ\266,\224\015]n\007\214\226\260%K5+\350\225"
 382      654751B6 
 382      2C940D5D 
 382      6E078C96 
 382      B0254B35 
 383 0059 038372C5 		.ascii	"\003\203r\305J\271f\255\334\260\311mZ\306\305\350\373"
 383      4AB966AD 
 383      DCB0C96D 
 383      5AC6C5E8 
 383      FB
 384 006a C4C836A3 		.ascii	"\304\3106\243\244o\207q#\322\341\372\374\032\221\026"
 384      A46F8771 
 384      23D2E1FA 
 384      FC1A9116 
 385 007a F757CA42 		.ascii	"\367W\312B0\374\323\011\346\303{+~\355\375\332\007\277"
 385      30FCD309 
 385      E6C37B2B 
 385      7EEDFDDA 
 385      07BF
 386 008c F411986E 		.ascii	"\364\021\230n\237\035~\340<P7"
 386      9F1D7EE0 
 386      3C5037
 387              		.text
 388              		.section	.gnu.lto_.refs.b94980d8,"",%progbits
 389 0000 789C6366 		.ascii	"x\234cf``\340d\200\000&V\0066FF6.\006\000\001z\000,"
 389      6060E064 
 389      80002656 
 389      06364646 
 389      362E0600 
 390              		.text
 391              		.section	.gnu.lto_.decls.b94980d8,"",%progbits
 392 0000 789C9D55 		.ascii	"x\234\235UiLTW\024~w\356\314\300\014#\332&\305\2264"
 392      694C5457 
 392      147E77EE 
 392      CCC00C23 
 392      DA26C596 
 393 0015 E9181393 		.ascii	"\351\030\023\223&\206\250m\215\375US\352\326t1\222\332"
ARM GAS  C:\Users\Thomas\AppData\Local\Temp\ccwy0EZM.s 			page 30


 393      2686A86D 
 393      8DFD5553 
 393      EAD67431 
 393      92DA
 394 0027 1F9A18C4 		.ascii	"\037\232\030\304\027;\011\001\203CR~\365\"Z\020\265"
 394      173B0901 
 394      8343527E 
 394      F5225A10 
 394      B5
 395 0038 A2AD612B 		.ascii	"\242\255a+:\256\025,\212VD6\031@\020\004\024\225\202"
 395      3AAE152C 
 395      8A564436 
 395      19401004 
 395      149582
 396 004b 2CB28828 		.ascii	",\262\210(\233vXE\\\246\347.\317yo\012jz\223\003\357"
 396      9B765845 
 396      5CA6E72E 
 396      CF796F0A 
 396      6A7A9303 
 397 0060 BE39E7FB 		.ascii	"\2769\347\373\276s\317y\347bI\222NbIr\303\332g\226\244"
 397      BE73CF79 
 397      E7624992 
 397      4E624972 
 397      C3DA6796 
 398 0075 9F9024CD 		.ascii	"\237\220$\315\200w\253\301\340Q\012\220\370\362\007"
 398      8077ABC1 
 398      E0510A90 
 398      F8F207
 399 0084 3B0B960B 		.ascii	";\013\226\013v\021\254\000\254\010\354\022\230\023\254"
 399      7611AC00 
 399      AC08EC12 
 399      9813AC
 400 0093 0CAC12AC 		.ascii	"\014\254\022\254\032\254\001\254\011\254\031\254U\340"
 400      1AAC01AC 
 400      09AC19AC 
 400      55E0
 401 00a1 B44BDA45 		.ascii	"\264K\332E\261|\300N\011\216\225`\335`]`_\012~\272t"
 401      B17CC04E 
 401      098E9560 
 401      DD605D60 
 401      5F0A7EBA 
 402 00b6 2A5E9029 		.ascii	"*^\220)\335\003\353\001\273\357\205G\177\327\253\360"
 402      DD03EB01 
 402      BBEF8547 
 402      7FD7ABF0 
 403 00c6 1E809D51 		.ascii	"\036\200\235Qa\344\012\034\252\245\327+\226\346c\020"
 403      61E40A1C 
 403      AAA5D72B 
 403      96E66310 
 404 00d6 9C010243 		.ascii	"\234\001\002C\321\242\304_\024\371y/z\016&\021\253p"
 404      D1A2C45F 
 404      14F9792F 
 404      7A0E2611 
 404      AB70
 405 00e8 F7815D51 		.ascii	"\367\201]Qa\364\203]\026\376X\304\264\212\363\361^\364"
 405      61F4835D 
 405      16FE58C4 
ARM GAS  C:\Users\Thomas\AppData\Local\Temp\ccwy0EZM.s 			page 31


 405      B48AF3F1 
 405      5EF4
 406 00fa 4C8D2A2D 		.ascii	"L\215*-\012\306\000\330\005\225\236\"\201\343\275h="
 406      0AC600D8 
 406      05959E22 
 406      81E3BD68 
 406      3D
 407 010b 7C55F183 		.ascii	"|U\361\203^\371\250q\014\302_\311M\301\234\252^\316"
 407      5EF9A871 
 407      0CC25FC9 
 407      4DC19CAA 
 407      5ECE
 408 011d FF91A7F3 		.ascii	"\377\221\247\363\025y\226\275a\236e\002\307{UJ\236\232"
 408      157996BD 
 408      619E6502 
 408      C77B554A 
 408      9E9A
 409 012f 297AD435 		.ascii	")z\3245C\322\324\365\242\375\251\177EL\365\0241\015"
 409      43D2D4F5 
 409      A2FDA97F 
 409      454CF514 
 409      310D
 410 0141 2AADF43B 		.ascii	"*\255\364;\260\200\325\203\015\201\271T\261\015S\304"
 410      B080D583 
 410      0D81B954 
 410      B10D53C4 
 411 0151 36097F75 		.ascii	"6\011\177u\034\345\266\012\376\021\260a\311\323\257"
 411      1CE5B60A 
 411      FE11B061 
 411      C9D3AF
 412 0160 6360A322 		.ascii	"c`\243\"\026\213x\245w\275\327\220\0165\226\304\307"
 412      168B78A5 
 412      77BDD790 
 412      0E3596C4 
 412      C7
 413 0171 FB621DA2 		.ascii	"\373b\035\242\317GS\272\032\314\363\263\010!\011\304"
 413      CF4753BA 
 413      1ACCF3B3 
 413      082109C4 
 414 0181 E9441EA7 		.ascii	"\351D\036\247\330\023\205\273}zu(\300\314\266\277\324"
 414      D81385BB 
 414      7D7A7528 
 414      C0CCB6BF 
 414      D4
 415 0192 A49562B6 		.ascii	"\244\225b\266u\3238]s\363oO02\317K d\033q\355'\370]"
 415      75D3385D 
 415      73F36F4F 
 415      3032CF4B 
 415      20641B71 
 416 01aa 09CD0F44 		.ascii	"\011\315\017D\037\006J\350O4\017\334\320I4_B\231(\020"
 416      1F064AE8 
 416      4F340FDC 
 416      D049345F 
 416      42992810 
 417 01be 65A140E9 		.ascii	"e\241@\351\030\020\270\0165\264\274O\210\036\235Bf\364"
 417      1810B80E 
 417      35B4BC4F 
ARM GAS  C:\Users\Thomas\AppData\Local\Temp\ccwy0EZM.s 			page 32


 417      881E9D42 
 417      66F4
 418 01d0 07C2CC03 		.ascii	"\007\302\314\003\016\2012\010\322\374\323\243u~\300"
 418      0E813208 
 418      D2FCD3A3 
 418      757EC0
 419 01df E26FB6D2 		.ascii	"\342o\266\322m\301\376\252\024#l-f=\335\356\334\236"
 419      6DC1FEAA 
 419      14236C2D 
 419      663DDDEE 
 419      DC9E
 420 01f1 83671F00 		.ascii	"\203g\037\000$\222\024Gfq\234l 8\015\004\022:\203f\303"
 420      24921447 
 420      66719C6C 
 420      20380D04 
 420      123A8366 
 421 0206 DF757A8E 		.ascii	"\337uz\216\2249~/\331\027\177\304rL\3367Zo\266\036$"
 421      94397E2F 
 421      D9177FC4 
 421      724CDE37 
 421      5A6FB61E 
 422 021b CE1C5746 		.ascii	"\316\034WFw\341\247\251I\216m\344\205\333\215\210\216"
 422      77E1A7A9 
 422      498E6DE4 
 422      85DB8D88 
 422      8E
 423 022c 06A19C97 		.ascii	"\006\241\234\227R$\372\314+s\026Y!2iGi\222^\017-\305"
 423      5224FACC 
 423      2B731659 
 423      21326947 
 423      69925E0F 
 424 0242 B8D63115 		.ascii	"\270\3261\025\365\225;+_!\343/&\343\034\022:\352zo\246"
 424      F5953B2B 
 424      5F21E32F 
 424      26E31C12 
 424      3AEA7A6F 
 425 0257 1B7004D3 		.ascii	"\033p\004\323\361p\322\261\026dt\346\220T\342\320\021"
 425      F170D2B1 
 425      166474E6 
 425      9054E2D0 
 425      11
 426 0268 189EA000 		.ascii	"\030\236\240\000\374\321y\225\202\363\212\202\\\246"
 426      FCD17995 
 426      82F38A82 
 426      5CA6
 427 0276 A0F0E9DD 		.ascii	"\240\360\351\335\006\275\232mu\200\212\354\202&\347"
 427      06BD9A6D 
 427      75808AEC 
 427      8226E7
 428 0285 B693B56D 		.ascii	"\266\223\265mF\034\213\030\331`\377\3434\037\306\326"
 428      461C8B18 
 428      D960FFE3 
 428      341FC6D6 
 429 0295 595C2E3B 		.ascii	"Y\\.;\267\223gnw\234/\013Ay*\276<\205\357\"\343\253"
 429      B793676E 
 429      779C2F0B 
 429      41792ABE 
ARM GAS  C:\Users\Thomas\AppData\Local\Temp\ccwy0EZM.s 			page 33


 429      3C85EF22 
 430 02ab 4DC91B32 		.ascii	"M\311\0332\340]\034\343^S\355\220\216a8\366\0367V\021"
 430      E05D1CE3 
 430      5E53ED90 
 430      8E6138F6 
 430      1E375611 
 431 02bf A7DBFD19 		.ascii	"\247\333\375\031\003\310W\001\344+\000\005\014\340\372"
 431      03C85701 
 431      E42B0005 
 431      0CE0FA
 432 02ce 64D7433D 		.ascii	"d\327C=N\343\000%\305O&\004\300\236\243\034\240\204"
 432      4EE30025 
 432      C54F2604 
 432      C09EA31C 
 432      A084
 433 02e0 200651A8 		.ascii	" \006Q\250\202(T \212\030DF\305\241\026#>\301!j\036"
 433      82285420 
 433      8A184446 
 433      C5A11623 
 433      3EC1216A 
 434 02f5 77EDB700 		.ascii	"w\355\267\000\204#\307\321z\216,ey`\206P\254B(V\020"
 434      8423C7D1 
 434      7A8E2C65 
 434      79608650 
 434      AC422856 
 435 030a 2E3184EE 		.ascii	".1\204\356\221\012\227?>\313\021\032O\237K\237\301E"
 435      910A973F 
 435      3ECB111A 
 435      4F9F4B9F 
 435      C145
 436 031c 9468B228 		.ascii	"\224h\262(Q\001\224(\000N\006\320Q\336Q\213q)\007(\317"
 436      51019428 
 436      004E06D0 
 436      51DE518B 
 436      71290728 
 437 0331 AE6F3171 		.ascii	"\256o1q\011}G\325\000\245*\200R\005\240l\332\316\031"
 437      097D47D5 
 437      00A52A80 
 437      5205A06C 
 437      DACE19
 438 0344 73771DD7 		.ascii	"sw\035\327M[\313\313\254\226\345J\343\334>PVh\3065\\"
 438      4D5BCBCB 
 438      AC96E54A 
 438      E3DC3E50 
 438      5668C635 
 439 0359 C199D4BC 		.ascii	"\301\231\324\274e\342\0303=\307\010\021\250B%\241B\221"
 439      65E21833 
 439      3DC70811 
 439      A84225A1 
 439      4291
 440 036b 50C924BC 		.ascii	"P\311$\274\372s\271\242i\235\346\254\213\016\214[9["
 440      FA73B9A2 
 440      699DE6AC 
 440      8B0E8C5B 
 440      395B
 441 037d 7A66F913 		.ascii	"zf\371\023\035\313\267\263\240O\264\016f\021\250JEW"
 441      1DCBB7B3 
ARM GAS  C:\Users\Thomas\AppData\Local\Temp\ccwy0EZM.s 			page 34


 441      A04FB40E 
 441      6611A84A 
 441      4557
 442 038f A5D05533 		.ascii	"\245\320U3\272\232\273\023#\026\366\355\316\242 iM="
 442      BA9ABB13 
 442      2316F6ED 
 442      CEA22069 
 442      4D3D
 443 03a1 A3987DBB 		.ascii	"\243\230}\273:\272\315\030~Td\302\0179\2012[\254|\266"
 443      3ABACD18 
 443      7E5464C2 
 443      0F398132 
 443      5BAC7CB6 
 444 03b5 240F4C9C 		.ascii	"$\017L\234\367e[\312\003\303\345i\367\351?\214h\236"
 444      F7655BCA 
 444      03C3E569 
 444      F7E93F8C 
 444      689E
 445 03c7 994F8D46 		.ascii	"\231O\215F>5\352A~\255gjX\305\324`\003\210\304\021\303"
 445      3E35EA41 
 445      7EAD676A 
 445      58C5D460 
 445      0388C411 
 446 03dc 497F095D 		.ascii	"I\177\011]\205\364j =t\035f\220U\314\240:xy\015^\002"
 446      85F46A20 
 446      3D741D66 
 446      9055CCA0 
 446      3A78790D 
 447 03f2 53D1B1FE 		.ascii	"S\321\261\376G~\254*\365/\253\322\221;\236g\236\266"
 447      477EAC2A 
 447      F52FABD2 
 447      913B9E67 
 447      9EB6
 448 0404 2A37D931 		.ascii	"*7\3311\335P\252r\242<\275_\207Gy\032=\317\177>\200"
 448      DD50AA72 
 448      A23CBD5F 
 448      8747791A 
 448      3DCF7F3E 
 449 0419 D839B932 		.ascii	"\3309\2712\312\363\026\301G\315\347\012\213B\267TGu"
 449      CAF316C1 
 449      47CDE70A 
 449      8B42B754 
 449      4775
 450 042b 4B39AA06 		.ascii	"K9\252\006vTOv\324uhJS\257)\315\337\232\322<j\233L2"
 450      76544F76 
 450      D475684A 
 450      53AF29CD 
 450      DF9AD23C 
 451 0443 E0783EAE 		.ascii	"\340x>\256w\035\311\353\347\255\330\271wO\245\205\360"
 451      771DC9EB 
 451      E7ADD8B9 
 451      774FA585 
 451      F0
 452 0454 666421A8 		.ascii	"fd!\250QE\330\250\02061\302\301\354\2639~8U\214\374"
 452      5145D8A8 
 452      103631C2 
 452      C1ECB339 
ARM GAS  C:\Users\Thomas\AppData\Local\Temp\ccwy0EZM.s 			page 35


 452      7E38558C 
 453 0469 A4A25623 		.ascii	"\244\242V#\355&\342\352\250v/H%\207\025\331\264\241"
 453      ED26E2EA 
 453      A8762F48 
 453      258715D9 
 453      B4A1
 454 047b 6EAB506E 		.ascii	"n\253Pn+(\315\374\323\356\037O5\343\033\034\245\343"
 454      2B28CDFC 
 454      D3EE1F4F 
 454      35E31B1C 
 454      A5E3
 455 048d D4F17006 		.ascii	"\324\361p\006\322\371\274[.S\367H\213\012\241EAhe\010"
 455      D2F9BC5B 
 455      2E53F748 
 455      8B0AA145 
 455      41686508 
 456 04a1 69E4F133 		.ascii	"i\344\3613\023\355\012\212\360\2425'\217Nw\350K\226"
 456      13ED0A8A 
 456      F0A23527 
 456      8F4E77E8 
 456      4B96
 457 04b3 E8606342 		.ascii	"\350`cB\254i\356a\3428\222\223\321}\325\217\244\020"
 457      AC69EE61 
 457      E2389293 
 457      D17DD58F 
 457      A410
 458 04c5 D2E9767F 		.ascii	"\322\351v\177\300\372\266\215c\212+F\242{\370{\207\226"
 458      C0FAB68D 
 458      638A2B46 
 458      A27BF87B 
 458      8796
 459 04d7 BA1DCD85 		.ascii	"\272\035\315\205`\222\274\353\230/\036\343\310\271\343"
 459      6092BCEB 
 459      982F1EE3 
 459      C8B9E3
 460 04e6 89F933CC 		.ascii	"\211\3713\314\011\264-^\1775A\2775\\Kl4\361\313\314"
 460      09B42D5E 
 460      7F3541BF 
 460      355C4B6C 
 460      34F1CBCC 
 461 04fa 3BE2EEB4 		.ascii	";\342\356\264\227\331D\367\312\355d)\352\002u\035\236"
 461      97D944F7 
 461      CAED6429 
 461      EA02751D 
 461      9E
 462 050b B6EC449E 		.ascii	"\266\354D\236\333l\347\335\264:\213%\2216(\224\331T"
 462      DB6CE7DD 
 462      B43A8B25 
 462      91362894 
 462      D954
 463 051d E5CF9C3D 		.ascii	"\345\317\234=u\356F\026v6\360\237N\214\201g\305>s\016"
 463      75EE4616 
 463      7636F09F 
 463      4E8C8167 
 463      C53E730E 
 464 0531 D19BD8F9 		.ascii	"\321\233\330\37194!\273\203\370\341\335Csh\355\333j"
 464      393421BB 
ARM GAS  C:\Users\Thomas\AppData\Local\Temp\ccwy0EZM.s 			page 36


 464      83F8E1DD 
 464      437368ED 
 464      DB6A
 465 0543 4EF93307 		.ascii	"N\3713\007WF\334\260-\326\333\253\207y\215g\22788\214"
 465      5746DCB0 
 465      2DD6DBAB 
 465      87798D67 
 465      9738388C 
 466 0557 A3369E18 		.ascii	"\2436\236\030\220\326\347>\363\2318\334u\177\246F\030"
 466      90D6E73E 
 466      F39938DC 
 466      757FA646 
 466      18
 467 0568 BD073DC2 		.ascii	"\275\007=\302\036\010a\017\230\260\304\024\267\303O"
 467      1E08610F 
 467      98B0C414 
 467      B7C34F
 468 0577 232C5781 		.ascii	"#,W\201\353\235\006\356\212\006\256O\300\365\361<\367"
 468      EB9D06EE 
 468      8A06AE4F 
 468      C0F5F13C 
 468      F7
 469 0588 A75F3269 		.ascii	"\247_2i\274/k\274\373\205w?\363nOq&\3525\336\0274\336"
 469      BC2F6BBC 
 469      FB85773F 
 469      F36E4F71 
 469      26EA35DE 
 470 059f 03C8A21C 		.ascii	"\003\310\242\034\375\000\013H>\350z\252\205\327\316"
 470      FD000B48 
 470      3EE87AAA 
 470      85D7CE
 471 05ae BD41013F 		.ascii	"\275A\001?\310\274\363\257\265\266c<\311\333\306\225"
 471      C8BCF3AF 
 471      B5B6633C 
 471      C9DBC695 
 472 05be B06740CF 		.ascii	"\260g@\317\333\346\015\007\212.9\373\016\\u\312\244"
 472      DBE60D07 
 472      8A2E39FB 
 472      0E5C75CA 
 472      A4
 473 05cf 9AE42DE1 		.ascii	"\232\344-\341\002\302\207\236\226x\204<\243j\012\344"
 473      02C2879E 
 473      9678843C 
 473      A36A0AE4 
 474 05df 7FA61E55 		.ascii	"\177\246\036U\307\367UbM\032.M\032C\"\215!\226\306\356"
 474      C7F75562 
 474      4D1A2E4D 
 474      1A43228D 
 474      2196C6EE 
 475 05f3 DEB1A37E 		.ascii	"\336\261\243~\212\362\2047\302\317,\313\377\335OC0\254"
 475      8AF28437 
 475      C2CF2CCB 
 475      FFDD4F43 
 475      30AC
 476 0605 21181104 		.ascii	"!\030\021\004#\214\240+\251\262\310\244|Q\011\257\371"
 476      238CA02B 
 476      A9B2C8A4 
ARM GAS  C:\Users\Thomas\AppData\Local\Temp\ccwy0EZM.s 			page 37


 476      7C5109AF 
 476      F9
 477 0616 3EC0BF34 		.ascii	">\300\2774\345\327\254\031\032\364Q\015\372\230@\247"
 477      E5D7AC19 
 477      1AF4510D 
 477      FA9840A7 
 478 0626 FF0DD1B6 		.ascii	"\377\015\321\266\010\373\022\343\212o\276\263\006Ks"
 478      08FB12E3 
 478      8A6FBEB3 
 478      064B73
 479 0635 83D6AF90 		.ascii	"\203\326\257\220#\344\250P\273\274iCHdtT\230\274~uH"
 479      23E4A850 
 479      BBBC6943 
 479      48647454 
 479      98BC7E75 
 480 064a 64F027EB 		.ascii	"d\360'\353\303b\3541[\344\255A?H\357\255^\264\341\343"
 480      C362EC31 
 480      5BE4AD41 
 480      3F48EFAD 
 480      5EB4E1E3 
 481 065e 0D2B64FB 		.ascii	"\015+d\373\362U\313\277\015\261\207\332\243\267\006"
 481      F255CBBF 
 481      0DB187DA 
 481      A3B706
 482 066d 6D098DB2 		.ascii	"m\011\215\262\007-\260N\033MC\202\302\244\267\377\033"
 482      072DB04E 
 482      1B4D4382 
 482      C2A4B7FF 
 482      1B
 483 067e 6A62AF56 		.ascii	"jb\257VE\330\354\376\354iYD\350\306pyU\204\335O\265"
 483      45D8ECFE 
 483      EC695944 
 483      E8C67079 
 483      5584DD4F 
 484 0693 35B36708 		.ascii	"5\263g\010\210\262\317d\217_\330\266\0127\223\370)r"
 484      88B2CF64 
 484      8F5FD8B6 
 484      0A3793F8 
 484      2972
 485 06a5 0BFF2544 		.ascii	"\013\377%D\266\303\333\257#7\311o)d\260\347\\F\232\352"
 485      B6C3DBAF 
 485      2337C96F 
 485      2964B0E7 
 485      5C469AEA 
 486 06b9 C2C55CC5 		.ascii	"\302\305\\\305\367Q6\273\274F\336\27464<Z\370\256\221"
 486      F75136BB 
 486      BC46DEBC 
 486      36343C5A 
 486      F8AE91
 487 06cc 4337296F 		.ascii	"C7)o\336\011\216Y\366\243\315\036\014^\266\260\320\360"
 487      DE098E59 
 487      F6A3CD1E 
 487      0C5EB6B0 
 487      D0F0
 488 06de 1039CC6E 		.ascii	"\0209\314n\213\214\2303m\206\3011_\3316\302\351\004"
 488      8B8C9833 
 488      6D86C131 
ARM GAS  C:\Users\Thomas\AppData\Local\Temp\ccwy0EZM.s 			page 38


 488      5FD936C2 
 488      E904
 489 06f0 405C845D 		.ascii	"@\\\204]\216\362\012\2640\002\033\244\27164J\037%o^"
 489      8EF20AB4 
 489      30021BA4 
 489      B936344A 
 489      1F256F5E 
 490 0704 62803F0B 		.ascii	"b\200?\013\027\377\013,\326(\344"
 490      17FF0B2C 
 490      D628E4
 491              		.text
 492              		.section	.gnu.lto_.symtab.b94980d8,"",%progbits
 493 0000 50325F34 		.ascii	"P2_4_GetFIFOStatus\000\000\000\000\000\000\000\000\000"
 493      5F476574 
 493      4649464F 
 493      53746174 
 493      75730000 
 494 001b 000000B5 		.ascii	"\000\000\000\265\000\000\000P2_4_Init\000\000\000\000"
 494      00000050 
 494      325F345F 
 494      496E6974 
 494      00000000 
 495 002f 00000000 		.ascii	"\000\000\000\000\000\000\000\000\270\000\000\000P2_"
 495      00000000 
 495      B8000000 
 495      50325F
 496 003e 345F456E 		.ascii	"4_EnableInt\000\000\000\000\000\000\000\000\000\000"
 496      61626C65 
 496      496E7400 
 496      00000000 
 496      00000000 
 497 0053 0000BA00 		.ascii	"\000\000\272\000\000\000P2_4_Enable\000\000\000\000"
 497      00005032 
 497      5F345F45 
 497      6E61626C 
 497      65000000 
 498 0068 00000000 		.ascii	"\000\000\000\000\000\000\000\000\274\000\000\000P2_"
 498      00000000 
 498      BC000000 
 498      50325F
 499 0077 345F5374 		.ascii	"4_Start\000\000\000\000\000\000\000\000\000\000\000"
 499      61727400 
 499      00000000 
 499      00000000 
 499      0000
 500 0089 00BE0000 		.ascii	"\000\276\000\000\000P2_4_initVar\000\000\000\000\000"
 500      0050325F 
 500      345F696E 
 500      69745661 
 500      72000000 
 501 009f 00000000 		.ascii	"\000\000\000\000\000\000\000\336\000\000\000P2_4_Di"
 501      000000DE 
 501      00000050 
 501      325F345F 
 501      4469
 502 00b1 7361626C 		.ascii	"sableInt\000\000\000\000\000\000\000\000\000\000\000"
 502      65496E74 
ARM GAS  C:\Users\Thomas\AppData\Local\Temp\ccwy0EZM.s 			page 39


 502      00000000 
 502      00000000 
 502      000000
 503 00c4 00C00000 		.ascii	"\000\300\000\000\000P2_4_Stop\000\000\000\000\000\000"
 503      0050325F 
 503      345F5374 
 503      6F700000 
 503      00000000 
 504 00d8 00000000 		.ascii	"\000\000\000\000\000\000\302\000\000\000P2_4_SetInt"
 504      0000C200 
 504      00005032 
 504      5F345F53 
 504      6574496E 
 505 00ed 4D6F6465 		.ascii	"Mode\000\000\000\000\000\000\000\000\000\000\000\000"
 505      00000000 
 505      00000000 
 505      00000000 
 506 00fd C6000000 		.ascii	"\306\000\000\000P2_4_GetIntStatus\000\000\000\000\000"
 506      50325F34 
 506      5F476574 
 506      496E7453 
 506      74617475 
 507 0117 00000000 		.ascii	"\000\000\000\000\000\000\000\311\000\000\000P2_4_Wr"
 507      000000C9 
 507      00000050 
 507      325F345F 
 507      5772
 508 0129 69746552 		.ascii	"iteRegValue\000\000\000\000\000\000\000\000\000\000"
 508      65675661 
 508      6C756500 
 508      00000000 
 508      00000000 
 509 013e 0000D400 		.ascii	"\000\000\324\000\000\000P2_4_ReadRegValue\000\000\000"
 509      00005032 
 509      5F345F52 
 509      65616452 
 509      65675661 
 510 0158 00000000 		.ascii	"\000\000\000\000\000\000\000\000\000\327\000\000\000"
 510      00000000 
 510      00D70000 
 510      00
 511 0165 43794578 		.ascii	"CyExitCriticalSection\000\000\002\000\000\000\000\000"
 511      69744372 
 511      69746963 
 511      616C5365 
 511      6374696F 
 512 0182 00000000 		.ascii	"\000\000\000\000\331\000\000\000CyEnterCriticalSect"
 512      D9000000 
 512      4379456E 
 512      74657243 
 512      72697469 
 513 019d 696F6E00 		.ascii	"ion\000\000\002\000\000\000\000\000\000\000\000\000"
 513      00020000 
 513      00000000 
 513      000000
 514 01ac DB000000 		.ascii	"\333\000\000\000"
 515              		.text
ARM GAS  C:\Users\Thomas\AppData\Local\Temp\ccwy0EZM.s 			page 40


 516              		.section	.gnu.lto_.opts,"",%progbits
 517 0000 272D666E 		.ascii	"'-fno-trapv' '-mcpu=cortex-m3' '-mthumb' '-g' '-O3'"
 517      6F2D7472 
 517      61707627 
 517      20272D6D 
 517      6370753D 
 518 0033 20272D66 		.ascii	" '-ffunction-sections' '-finline-functions' '-flto'"
 518      66756E63 
 518      74696F6E 
 518      2D736563 
 518      74696F6E 
 519 0066 20272D66 		.ascii	" '-ffat-lto-objects'\000"
 519      6661742D 
 519      6C746F2D 
 519      6F626A65 
 519      63747327 
 520              		.text
 521              		.cfi_sections	.debug_frame
 522              		.section	.text.P2_4_Start,"ax",%progbits
 523              		.align	2
 524              		.global	P2_4_Start
 525              		.thumb
 526              		.thumb_func
 527              		.type	P2_4_Start, %function
 528              	P2_4_Start:
 529              	.LFB0:
 530              		.file 1 ".\\Generated_Source\\PSoC5\\P2_4.c"
   1:.\Generated_Source\PSoC5/P2_4.c **** /*******************************************************************************
   2:.\Generated_Source\PSoC5/P2_4.c **** * File Name: P2_4.c
   3:.\Generated_Source\PSoC5/P2_4.c **** * Version 2.30
   4:.\Generated_Source\PSoC5/P2_4.c **** *
   5:.\Generated_Source\PSoC5/P2_4.c **** * Description:
   6:.\Generated_Source\PSoC5/P2_4.c **** *  This file provides the API source code for the Shift Register component.
   7:.\Generated_Source\PSoC5/P2_4.c **** *
   8:.\Generated_Source\PSoC5/P2_4.c **** * Note: none
   9:.\Generated_Source\PSoC5/P2_4.c **** *
  10:.\Generated_Source\PSoC5/P2_4.c **** ********************************************************************************
  11:.\Generated_Source\PSoC5/P2_4.c **** * Copyright 2008-2013, Cypress Semiconductor Corporation.  All rights reserved.
  12:.\Generated_Source\PSoC5/P2_4.c **** * You may use this file only in accordance with the license, terms, conditions,
  13:.\Generated_Source\PSoC5/P2_4.c **** * disclaimers, and limitations in the end user license agreement accompanying
  14:.\Generated_Source\PSoC5/P2_4.c **** * the software package with which this file was provided.
  15:.\Generated_Source\PSoC5/P2_4.c **** ********************************************************************************/
  16:.\Generated_Source\PSoC5/P2_4.c **** 
  17:.\Generated_Source\PSoC5/P2_4.c **** #include "P2_4.h"
  18:.\Generated_Source\PSoC5/P2_4.c **** 
  19:.\Generated_Source\PSoC5/P2_4.c **** uint8 P2_4_initVar = 0u;
  20:.\Generated_Source\PSoC5/P2_4.c **** 
  21:.\Generated_Source\PSoC5/P2_4.c **** 
  22:.\Generated_Source\PSoC5/P2_4.c **** /*******************************************************************************
  23:.\Generated_Source\PSoC5/P2_4.c **** * Function Name: P2_4_Start
  24:.\Generated_Source\PSoC5/P2_4.c **** ********************************************************************************
  25:.\Generated_Source\PSoC5/P2_4.c **** *
  26:.\Generated_Source\PSoC5/P2_4.c **** * Summary:
  27:.\Generated_Source\PSoC5/P2_4.c **** *  Starts the Shift Register.
  28:.\Generated_Source\PSoC5/P2_4.c **** *
  29:.\Generated_Source\PSoC5/P2_4.c **** * Parameters:
  30:.\Generated_Source\PSoC5/P2_4.c **** *  None.
ARM GAS  C:\Users\Thomas\AppData\Local\Temp\ccwy0EZM.s 			page 41


  31:.\Generated_Source\PSoC5/P2_4.c **** *
  32:.\Generated_Source\PSoC5/P2_4.c **** * Return:
  33:.\Generated_Source\PSoC5/P2_4.c **** *  None.
  34:.\Generated_Source\PSoC5/P2_4.c **** *
  35:.\Generated_Source\PSoC5/P2_4.c **** * Global Variables:
  36:.\Generated_Source\PSoC5/P2_4.c **** *  P2_4_initVar - used to check initial configuration, modified on
  37:.\Generated_Source\PSoC5/P2_4.c **** *  first function call.
  38:.\Generated_Source\PSoC5/P2_4.c **** *
  39:.\Generated_Source\PSoC5/P2_4.c **** * Reentrant:
  40:.\Generated_Source\PSoC5/P2_4.c **** *  No.
  41:.\Generated_Source\PSoC5/P2_4.c **** *
  42:.\Generated_Source\PSoC5/P2_4.c **** *******************************************************************************/
  43:.\Generated_Source\PSoC5/P2_4.c **** void P2_4_Start(void) 
  44:.\Generated_Source\PSoC5/P2_4.c **** {
 531              		.loc 1 44 0
 532              		.cfi_startproc
 533              		@ args = 0, pretend = 0, frame = 0
 534              		@ frame_needed = 0, uses_anonymous_args = 0
 535 0000 08B5     		push	{r3, lr}
 536              		.cfi_def_cfa_offset 8
 537              		.cfi_offset 3, -8
 538              		.cfi_offset 14, -4
  45:.\Generated_Source\PSoC5/P2_4.c ****     if(0u == P2_4_initVar)
 539              		.loc 1 45 0
 540 0002 0E4A     		ldr	r2, .L5
 541 0004 1378     		ldrb	r3, [r2]	@ zero_extendqisi2
 542 0006 4BB9     		cbnz	r3, .L2
 543              	.LVL0:
 544              	.LBB19:
 545              	.LBB20:
 546              	.LBB21:
  46:.\Generated_Source\PSoC5/P2_4.c ****     {
  47:.\Generated_Source\PSoC5/P2_4.c ****         P2_4_Init();
  48:.\Generated_Source\PSoC5/P2_4.c ****         P2_4_initVar = 1u; /* Component initialized */
  49:.\Generated_Source\PSoC5/P2_4.c ****     }
  50:.\Generated_Source\PSoC5/P2_4.c **** 
  51:.\Generated_Source\PSoC5/P2_4.c ****     P2_4_Enable();
  52:.\Generated_Source\PSoC5/P2_4.c **** }
  53:.\Generated_Source\PSoC5/P2_4.c **** 
  54:.\Generated_Source\PSoC5/P2_4.c **** 
  55:.\Generated_Source\PSoC5/P2_4.c **** /*******************************************************************************
  56:.\Generated_Source\PSoC5/P2_4.c **** * Function Name: P2_4_Enable
  57:.\Generated_Source\PSoC5/P2_4.c **** ********************************************************************************
  58:.\Generated_Source\PSoC5/P2_4.c **** *
  59:.\Generated_Source\PSoC5/P2_4.c **** * Summary:
  60:.\Generated_Source\PSoC5/P2_4.c **** *  Enables the Shift Register.
  61:.\Generated_Source\PSoC5/P2_4.c **** *
  62:.\Generated_Source\PSoC5/P2_4.c **** * Parameters:
  63:.\Generated_Source\PSoC5/P2_4.c **** *  void.
  64:.\Generated_Source\PSoC5/P2_4.c **** *
  65:.\Generated_Source\PSoC5/P2_4.c **** * Return:
  66:.\Generated_Source\PSoC5/P2_4.c **** *  void.
  67:.\Generated_Source\PSoC5/P2_4.c **** *
  68:.\Generated_Source\PSoC5/P2_4.c **** *******************************************************************************/
  69:.\Generated_Source\PSoC5/P2_4.c **** void P2_4_Enable(void) 
  70:.\Generated_Source\PSoC5/P2_4.c **** {
  71:.\Generated_Source\PSoC5/P2_4.c ****     /* Changing address in Datapath Control Store
ARM GAS  C:\Users\Thomas\AppData\Local\Temp\ccwy0EZM.s 			page 42


  72:.\Generated_Source\PSoC5/P2_4.c ****        from NOP to component state machine commands space */
  73:.\Generated_Source\PSoC5/P2_4.c ****     P2_4_SR_CONTROL |= P2_4_CLK_EN;
  74:.\Generated_Source\PSoC5/P2_4.c **** 
  75:.\Generated_Source\PSoC5/P2_4.c ****     P2_4_EnableInt();
  76:.\Generated_Source\PSoC5/P2_4.c **** }
  77:.\Generated_Source\PSoC5/P2_4.c **** 
  78:.\Generated_Source\PSoC5/P2_4.c **** 
  79:.\Generated_Source\PSoC5/P2_4.c **** /*******************************************************************************
  80:.\Generated_Source\PSoC5/P2_4.c **** * Function Name: P2_4_Init
  81:.\Generated_Source\PSoC5/P2_4.c **** ********************************************************************************
  82:.\Generated_Source\PSoC5/P2_4.c **** *
  83:.\Generated_Source\PSoC5/P2_4.c **** * Summary:
  84:.\Generated_Source\PSoC5/P2_4.c **** *  Initializes Tx and/or Rx interrupt sources with initial values.
  85:.\Generated_Source\PSoC5/P2_4.c **** *
  86:.\Generated_Source\PSoC5/P2_4.c **** * Parameters:
  87:.\Generated_Source\PSoC5/P2_4.c **** *  void.
  88:.\Generated_Source\PSoC5/P2_4.c **** *
  89:.\Generated_Source\PSoC5/P2_4.c **** * Return:
  90:.\Generated_Source\PSoC5/P2_4.c **** *  void.
  91:.\Generated_Source\PSoC5/P2_4.c **** *
  92:.\Generated_Source\PSoC5/P2_4.c **** *******************************************************************************/
  93:.\Generated_Source\PSoC5/P2_4.c **** void P2_4_Init(void) 
  94:.\Generated_Source\PSoC5/P2_4.c **** {
  95:.\Generated_Source\PSoC5/P2_4.c ****     P2_4_SetIntMode(P2_4_INT_SRC);
  96:.\Generated_Source\PSoC5/P2_4.c **** }
  97:.\Generated_Source\PSoC5/P2_4.c **** 
  98:.\Generated_Source\PSoC5/P2_4.c **** 
  99:.\Generated_Source\PSoC5/P2_4.c **** /*******************************************************************************
 100:.\Generated_Source\PSoC5/P2_4.c **** * Function Name: P2_4_Stop
 101:.\Generated_Source\PSoC5/P2_4.c **** ********************************************************************************
 102:.\Generated_Source\PSoC5/P2_4.c **** *
 103:.\Generated_Source\PSoC5/P2_4.c **** * Summary:
 104:.\Generated_Source\PSoC5/P2_4.c **** *  Disables the Shift Register
 105:.\Generated_Source\PSoC5/P2_4.c **** *
 106:.\Generated_Source\PSoC5/P2_4.c **** * Parameters:
 107:.\Generated_Source\PSoC5/P2_4.c **** *  None.
 108:.\Generated_Source\PSoC5/P2_4.c **** *
 109:.\Generated_Source\PSoC5/P2_4.c **** * Return:
 110:.\Generated_Source\PSoC5/P2_4.c **** *  None.
 111:.\Generated_Source\PSoC5/P2_4.c **** *
 112:.\Generated_Source\PSoC5/P2_4.c **** *******************************************************************************/
 113:.\Generated_Source\PSoC5/P2_4.c **** void P2_4_Stop(void) 
 114:.\Generated_Source\PSoC5/P2_4.c **** {
 115:.\Generated_Source\PSoC5/P2_4.c ****     /*changing Datapath Control Store address to NOP space*/
 116:.\Generated_Source\PSoC5/P2_4.c ****     P2_4_SR_CONTROL &= ((uint8) ~P2_4_CLK_EN);
 117:.\Generated_Source\PSoC5/P2_4.c ****     P2_4_DisableInt();
 118:.\Generated_Source\PSoC5/P2_4.c **** }
 119:.\Generated_Source\PSoC5/P2_4.c **** 
 120:.\Generated_Source\PSoC5/P2_4.c **** 
 121:.\Generated_Source\PSoC5/P2_4.c **** /*******************************************************************************
 122:.\Generated_Source\PSoC5/P2_4.c **** * Function Name: P2_4_EnableInt
 123:.\Generated_Source\PSoC5/P2_4.c **** ********************************************************************************
 124:.\Generated_Source\PSoC5/P2_4.c **** *
 125:.\Generated_Source\PSoC5/P2_4.c **** * Summary:
 126:.\Generated_Source\PSoC5/P2_4.c **** *  Enables the Shift Register interrupt.
 127:.\Generated_Source\PSoC5/P2_4.c **** *
 128:.\Generated_Source\PSoC5/P2_4.c **** * Parameters:
ARM GAS  C:\Users\Thomas\AppData\Local\Temp\ccwy0EZM.s 			page 43


 129:.\Generated_Source\PSoC5/P2_4.c **** *  None.
 130:.\Generated_Source\PSoC5/P2_4.c **** *
 131:.\Generated_Source\PSoC5/P2_4.c **** * Return:
 132:.\Generated_Source\PSoC5/P2_4.c **** *  None.
 133:.\Generated_Source\PSoC5/P2_4.c **** *
 134:.\Generated_Source\PSoC5/P2_4.c **** *******************************************************************************/
 135:.\Generated_Source\PSoC5/P2_4.c **** void P2_4_EnableInt(void) 
 136:.\Generated_Source\PSoC5/P2_4.c **** {
 137:.\Generated_Source\PSoC5/P2_4.c ****     uint8 interruptState;
 138:.\Generated_Source\PSoC5/P2_4.c **** 
 139:.\Generated_Source\PSoC5/P2_4.c ****     interruptState = CyEnterCriticalSection();
 140:.\Generated_Source\PSoC5/P2_4.c ****     P2_4_SR_AUX_CONTROL |= P2_4_INTERRUPTS_ENABLE;
 141:.\Generated_Source\PSoC5/P2_4.c ****     CyExitCriticalSection(interruptState);
 142:.\Generated_Source\PSoC5/P2_4.c **** }
 143:.\Generated_Source\PSoC5/P2_4.c **** 
 144:.\Generated_Source\PSoC5/P2_4.c **** 
 145:.\Generated_Source\PSoC5/P2_4.c **** /*******************************************************************************
 146:.\Generated_Source\PSoC5/P2_4.c **** * Function Name: P2_4_DisableInt
 147:.\Generated_Source\PSoC5/P2_4.c **** ********************************************************************************
 148:.\Generated_Source\PSoC5/P2_4.c **** *
 149:.\Generated_Source\PSoC5/P2_4.c **** * Summary:
 150:.\Generated_Source\PSoC5/P2_4.c **** *  Disables the Shift Register interrupt.
 151:.\Generated_Source\PSoC5/P2_4.c **** *
 152:.\Generated_Source\PSoC5/P2_4.c **** * Parameters:
 153:.\Generated_Source\PSoC5/P2_4.c **** *  None.
 154:.\Generated_Source\PSoC5/P2_4.c **** *
 155:.\Generated_Source\PSoC5/P2_4.c **** * Return:
 156:.\Generated_Source\PSoC5/P2_4.c **** *  None.
 157:.\Generated_Source\PSoC5/P2_4.c **** *
 158:.\Generated_Source\PSoC5/P2_4.c **** *******************************************************************************/
 159:.\Generated_Source\PSoC5/P2_4.c **** void P2_4_DisableInt(void) 
 160:.\Generated_Source\PSoC5/P2_4.c **** {
 161:.\Generated_Source\PSoC5/P2_4.c ****     uint8 interruptState;
 162:.\Generated_Source\PSoC5/P2_4.c **** 
 163:.\Generated_Source\PSoC5/P2_4.c ****     interruptState = CyEnterCriticalSection();
 164:.\Generated_Source\PSoC5/P2_4.c ****     P2_4_SR_AUX_CONTROL &= ((uint8) ~P2_4_INTERRUPTS_ENABLE);
 165:.\Generated_Source\PSoC5/P2_4.c ****     CyExitCriticalSection(interruptState);
 166:.\Generated_Source\PSoC5/P2_4.c **** }
 167:.\Generated_Source\PSoC5/P2_4.c **** 
 168:.\Generated_Source\PSoC5/P2_4.c **** 
 169:.\Generated_Source\PSoC5/P2_4.c **** /*******************************************************************************
 170:.\Generated_Source\PSoC5/P2_4.c **** * Function Name: P2_4_GetFIFOStatus
 171:.\Generated_Source\PSoC5/P2_4.c **** ********************************************************************************
 172:.\Generated_Source\PSoC5/P2_4.c **** *
 173:.\Generated_Source\PSoC5/P2_4.c **** * Summary:
 174:.\Generated_Source\PSoC5/P2_4.c **** *  Returns current status of input or output FIFO.
 175:.\Generated_Source\PSoC5/P2_4.c **** *
 176:.\Generated_Source\PSoC5/P2_4.c **** * Parameters:
 177:.\Generated_Source\PSoC5/P2_4.c **** *  fifoId.
 178:.\Generated_Source\PSoC5/P2_4.c **** *
 179:.\Generated_Source\PSoC5/P2_4.c **** * Return:
 180:.\Generated_Source\PSoC5/P2_4.c **** *  FIFO status.
 181:.\Generated_Source\PSoC5/P2_4.c **** *
 182:.\Generated_Source\PSoC5/P2_4.c **** *******************************************************************************/
 183:.\Generated_Source\PSoC5/P2_4.c **** uint8 P2_4_GetFIFOStatus(uint8 fifoId) 
 184:.\Generated_Source\PSoC5/P2_4.c **** {
 185:.\Generated_Source\PSoC5/P2_4.c ****     uint8 result;
ARM GAS  C:\Users\Thomas\AppData\Local\Temp\ccwy0EZM.s 			page 44


 186:.\Generated_Source\PSoC5/P2_4.c **** 
 187:.\Generated_Source\PSoC5/P2_4.c ****     result = P2_4_RET_FIFO_NOT_DEFINED;
 188:.\Generated_Source\PSoC5/P2_4.c **** 
 189:.\Generated_Source\PSoC5/P2_4.c ****     #if(0u != P2_4_USE_INPUT_FIFO)
 190:.\Generated_Source\PSoC5/P2_4.c ****         if(P2_4_IN_FIFO == fifoId)
 191:.\Generated_Source\PSoC5/P2_4.c ****         {
 192:.\Generated_Source\PSoC5/P2_4.c ****             switch(P2_4_GET_IN_FIFO_STS)
 193:.\Generated_Source\PSoC5/P2_4.c ****             {
 194:.\Generated_Source\PSoC5/P2_4.c ****                 case P2_4_IN_FIFO_FULL :
 195:.\Generated_Source\PSoC5/P2_4.c ****                     result = P2_4_RET_FIFO_FULL;
 196:.\Generated_Source\PSoC5/P2_4.c ****                     break;
 197:.\Generated_Source\PSoC5/P2_4.c **** 
 198:.\Generated_Source\PSoC5/P2_4.c ****                 case P2_4_IN_FIFO_EMPTY :
 199:.\Generated_Source\PSoC5/P2_4.c ****                     result = P2_4_RET_FIFO_EMPTY;
 200:.\Generated_Source\PSoC5/P2_4.c ****                     break;
 201:.\Generated_Source\PSoC5/P2_4.c **** 
 202:.\Generated_Source\PSoC5/P2_4.c ****                 case P2_4_IN_FIFO_PARTIAL:
 203:.\Generated_Source\PSoC5/P2_4.c ****                     result = P2_4_RET_FIFO_PARTIAL;
 204:.\Generated_Source\PSoC5/P2_4.c ****                     break;
 205:.\Generated_Source\PSoC5/P2_4.c ****                     
 206:.\Generated_Source\PSoC5/P2_4.c ****                 default:
 207:.\Generated_Source\PSoC5/P2_4.c ****                     /* Initial result value, while 
 208:.\Generated_Source\PSoC5/P2_4.c ****                        IN_FIFO_EMPTY case is false 
 209:.\Generated_Source\PSoC5/P2_4.c ****                      */
 210:.\Generated_Source\PSoC5/P2_4.c ****                     result = P2_4_RET_FIFO_EMPTY;
 211:.\Generated_Source\PSoC5/P2_4.c ****                     break;
 212:.\Generated_Source\PSoC5/P2_4.c ****             }   
 213:.\Generated_Source\PSoC5/P2_4.c ****         }
 214:.\Generated_Source\PSoC5/P2_4.c ****     #endif /* (0u != P2_4_USE_INPUT_FIFO) */
 215:.\Generated_Source\PSoC5/P2_4.c **** 
 216:.\Generated_Source\PSoC5/P2_4.c ****     if(P2_4_OUT_FIFO == fifoId)
 217:.\Generated_Source\PSoC5/P2_4.c ****     {
 218:.\Generated_Source\PSoC5/P2_4.c ****         switch(P2_4_GET_OUT_FIFO_STS)
 219:.\Generated_Source\PSoC5/P2_4.c ****         {
 220:.\Generated_Source\PSoC5/P2_4.c ****             case P2_4_OUT_FIFO_FULL :
 221:.\Generated_Source\PSoC5/P2_4.c ****                 result = P2_4_RET_FIFO_FULL;
 222:.\Generated_Source\PSoC5/P2_4.c ****                 break;
 223:.\Generated_Source\PSoC5/P2_4.c **** 
 224:.\Generated_Source\PSoC5/P2_4.c ****             case P2_4_OUT_FIFO_EMPTY :
 225:.\Generated_Source\PSoC5/P2_4.c ****                 result = P2_4_RET_FIFO_EMPTY;
 226:.\Generated_Source\PSoC5/P2_4.c ****                 break;
 227:.\Generated_Source\PSoC5/P2_4.c **** 
 228:.\Generated_Source\PSoC5/P2_4.c ****             case P2_4_OUT_FIFO_PARTIAL :
 229:.\Generated_Source\PSoC5/P2_4.c ****                 result = P2_4_RET_FIFO_PARTIAL;
 230:.\Generated_Source\PSoC5/P2_4.c ****                 break;
 231:.\Generated_Source\PSoC5/P2_4.c **** 
 232:.\Generated_Source\PSoC5/P2_4.c ****             default:
 233:.\Generated_Source\PSoC5/P2_4.c ****                 /* Initial result value, while 
 234:.\Generated_Source\PSoC5/P2_4.c ****                    OUT_FIFO_FULL case is false 
 235:.\Generated_Source\PSoC5/P2_4.c ****                  */
 236:.\Generated_Source\PSoC5/P2_4.c ****                 result = P2_4_RET_FIFO_FULL;
 237:.\Generated_Source\PSoC5/P2_4.c ****                 break;
 238:.\Generated_Source\PSoC5/P2_4.c ****         }
 239:.\Generated_Source\PSoC5/P2_4.c ****     }
 240:.\Generated_Source\PSoC5/P2_4.c **** 
 241:.\Generated_Source\PSoC5/P2_4.c ****     return(result);
 242:.\Generated_Source\PSoC5/P2_4.c **** }
ARM GAS  C:\Users\Thomas\AppData\Local\Temp\ccwy0EZM.s 			page 45


 243:.\Generated_Source\PSoC5/P2_4.c **** 
 244:.\Generated_Source\PSoC5/P2_4.c **** 
 245:.\Generated_Source\PSoC5/P2_4.c **** /*******************************************************************************
 246:.\Generated_Source\PSoC5/P2_4.c **** * Function Name: P2_4_SetIntMode
 247:.\Generated_Source\PSoC5/P2_4.c **** ********************************************************************************
 248:.\Generated_Source\PSoC5/P2_4.c **** *
 249:.\Generated_Source\PSoC5/P2_4.c **** * Summary:
 250:.\Generated_Source\PSoC5/P2_4.c **** *  Sets the Interrupt Source for the Shift Register interrupt. Multiple
 251:.\Generated_Source\PSoC5/P2_4.c **** *  sources may be ORed together
 252:.\Generated_Source\PSoC5/P2_4.c **** *
 253:.\Generated_Source\PSoC5/P2_4.c **** * Parameters:
 254:.\Generated_Source\PSoC5/P2_4.c **** *  interruptSource: Byte containing the constant for the selected interrupt
 255:.\Generated_Source\PSoC5/P2_4.c **** *  source/s.
 256:.\Generated_Source\PSoC5/P2_4.c **** *
 257:.\Generated_Source\PSoC5/P2_4.c **** * Return:
 258:.\Generated_Source\PSoC5/P2_4.c **** *  None.
 259:.\Generated_Source\PSoC5/P2_4.c **** *
 260:.\Generated_Source\PSoC5/P2_4.c **** *******************************************************************************/
 261:.\Generated_Source\PSoC5/P2_4.c **** void P2_4_SetIntMode(uint8 interruptSource) 
 262:.\Generated_Source\PSoC5/P2_4.c **** {
 263:.\Generated_Source\PSoC5/P2_4.c ****     P2_4_SR_STATUS_MASK &= ((uint8) ~P2_4_INTS_EN_MASK);          /* Clear existing int */
 547              		.loc 1 263 0
 548 0008 0D4B     		ldr	r3, .L5+4
 549              	.LBE21:
 550              	.LBE20:
 551              	.LBE19:
  48:.\Generated_Source\PSoC5/P2_4.c ****     }
 552              		.loc 1 48 0
 553 000a 0120     		movs	r0, #1
 554              	.LBB24:
 555              	.LBB23:
 556              	.LBB22:
 557              		.loc 1 263 0
 558 000c 1978     		ldrb	r1, [r3]	@ zero_extendqisi2
 559 000e 01F0F801 		and	r1, r1, #248
 560 0012 1970     		strb	r1, [r3]
 264:.\Generated_Source\PSoC5/P2_4.c ****     P2_4_SR_STATUS_MASK |= (interruptSource & P2_4_INTS_EN_MASK); /* Set int */
 561              		.loc 1 264 0
 562 0014 1978     		ldrb	r1, [r3]	@ zero_extendqisi2
 563 0016 0143     		orrs	r1, r1, r0
 564 0018 1970     		strb	r1, [r3]
 565              	.LBE22:
 566              	.LBE23:
 567              	.LBE24:
  48:.\Generated_Source\PSoC5/P2_4.c ****     }
 568              		.loc 1 48 0
 569 001a 1070     		strb	r0, [r2]
 570              	.LVL1:
 571              	.L2:
 572              	.LBB25:
 573              	.LBB26:
  73:.\Generated_Source\PSoC5/P2_4.c **** 
 574              		.loc 1 73 0
 575 001c 094A     		ldr	r2, .L5+8
 576 001e 1378     		ldrb	r3, [r2]	@ zero_extendqisi2
 577 0020 43F00103 		orr	r3, r3, #1
 578 0024 1370     		strb	r3, [r2]
ARM GAS  C:\Users\Thomas\AppData\Local\Temp\ccwy0EZM.s 			page 46


 579              	.LBB27:
 580              	.LBB28:
 139:.\Generated_Source\PSoC5/P2_4.c ****     P2_4_SR_AUX_CONTROL |= P2_4_INTERRUPTS_ENABLE;
 581              		.loc 1 139 0
 582 0026 FFF7FEFF 		bl	CyEnterCriticalSection
 583              	.LVL2:
 140:.\Generated_Source\PSoC5/P2_4.c ****     CyExitCriticalSection(interruptState);
 584              		.loc 1 140 0
 585 002a 074A     		ldr	r2, .L5+12
 586 002c 1378     		ldrb	r3, [r2]	@ zero_extendqisi2
 587 002e 43F01003 		orr	r3, r3, #16
 588 0032 1370     		strb	r3, [r2]
 589              	.LBE28:
 590              	.LBE27:
 591              	.LBE26:
 592              	.LBE25:
  52:.\Generated_Source\PSoC5/P2_4.c **** 
 593              		.loc 1 52 0
 594 0034 BDE80840 		pop	{r3, lr}
 595              		.cfi_restore 14
 596              		.cfi_restore 3
 597              		.cfi_def_cfa_offset 0
 598              	.LBB32:
 599              	.LBB31:
 600              	.LBB30:
 601              	.LBB29:
 141:.\Generated_Source\PSoC5/P2_4.c **** }
 602              		.loc 1 141 0
 603 0038 FFF7FEBF 		b	CyExitCriticalSection
 604              	.LVL3:
 605              	.L6:
 606              		.align	2
 607              	.L5:
 608 003c 00000000 		.word	.LANCHOR0
 609 0040 83640040 		.word	1073767555
 610 0044 73640040 		.word	1073767539
 611 0048 93640040 		.word	1073767571
 612              	.LBE29:
 613              	.LBE30:
 614              	.LBE31:
 615              	.LBE32:
 616              		.cfi_endproc
 617              	.LFE0:
 618              		.size	P2_4_Start, .-P2_4_Start
 619              		.section	.text.P2_4_Enable,"ax",%progbits
 620              		.align	2
 621              		.global	P2_4_Enable
 622              		.thumb
 623              		.thumb_func
 624              		.type	P2_4_Enable, %function
 625              	P2_4_Enable:
 626              	.LFB1:
  70:.\Generated_Source\PSoC5/P2_4.c ****     /* Changing address in Datapath Control Store
 627              		.loc 1 70 0
 628              		.cfi_startproc
 629              		@ args = 0, pretend = 0, frame = 0
 630              		@ frame_needed = 0, uses_anonymous_args = 0
ARM GAS  C:\Users\Thomas\AppData\Local\Temp\ccwy0EZM.s 			page 47


 631 0000 08B5     		push	{r3, lr}
 632              		.cfi_def_cfa_offset 8
 633              		.cfi_offset 3, -8
 634              		.cfi_offset 14, -4
  73:.\Generated_Source\PSoC5/P2_4.c **** 
 635              		.loc 1 73 0
 636 0002 084A     		ldr	r2, .L9
 637 0004 1378     		ldrb	r3, [r2]	@ zero_extendqisi2
 638 0006 43F00103 		orr	r3, r3, #1
 639 000a 1370     		strb	r3, [r2]
 640              	.LBB35:
 641              	.LBB36:
 139:.\Generated_Source\PSoC5/P2_4.c ****     P2_4_SR_AUX_CONTROL |= P2_4_INTERRUPTS_ENABLE;
 642              		.loc 1 139 0
 643 000c FFF7FEFF 		bl	CyEnterCriticalSection
 644              	.LVL4:
 140:.\Generated_Source\PSoC5/P2_4.c ****     CyExitCriticalSection(interruptState);
 645              		.loc 1 140 0
 646 0010 054A     		ldr	r2, .L9+4
 647 0012 1378     		ldrb	r3, [r2]	@ zero_extendqisi2
 648 0014 43F01003 		orr	r3, r3, #16
 649 0018 1370     		strb	r3, [r2]
 650              	.LBE36:
 651              	.LBE35:
  76:.\Generated_Source\PSoC5/P2_4.c **** 
 652              		.loc 1 76 0
 653 001a BDE80840 		pop	{r3, lr}
 654              		.cfi_restore 14
 655              		.cfi_restore 3
 656              		.cfi_def_cfa_offset 0
 657              	.LBB38:
 658              	.LBB37:
 141:.\Generated_Source\PSoC5/P2_4.c **** }
 659              		.loc 1 141 0
 660 001e FFF7FEBF 		b	CyExitCriticalSection
 661              	.LVL5:
 662              	.L10:
 663 0022 00BF     		.align	2
 664              	.L9:
 665 0024 73640040 		.word	1073767539
 666 0028 93640040 		.word	1073767571
 667              	.LBE37:
 668              	.LBE38:
 669              		.cfi_endproc
 670              	.LFE1:
 671              		.size	P2_4_Enable, .-P2_4_Enable
 672              		.section	.text.P2_4_Init,"ax",%progbits
 673              		.align	2
 674              		.global	P2_4_Init
 675              		.thumb
 676              		.thumb_func
 677              		.type	P2_4_Init, %function
 678              	P2_4_Init:
 679              	.LFB2:
  94:.\Generated_Source\PSoC5/P2_4.c ****     P2_4_SetIntMode(P2_4_INT_SRC);
 680              		.loc 1 94 0
 681              		.cfi_startproc
ARM GAS  C:\Users\Thomas\AppData\Local\Temp\ccwy0EZM.s 			page 48


 682              		@ args = 0, pretend = 0, frame = 0
 683              		@ frame_needed = 0, uses_anonymous_args = 0
 684              		@ link register save eliminated.
 685              	.LVL6:
 686              	.LBB39:
 687              	.LBB40:
 263:.\Generated_Source\PSoC5/P2_4.c ****     P2_4_SR_STATUS_MASK |= (interruptSource & P2_4_INTS_EN_MASK); /* Set int */
 688              		.loc 1 263 0
 689 0000 044B     		ldr	r3, .L12
 690 0002 1A78     		ldrb	r2, [r3]	@ zero_extendqisi2
 691 0004 02F0F802 		and	r2, r2, #248
 692 0008 1A70     		strb	r2, [r3]
 693              		.loc 1 264 0
 694 000a 1A78     		ldrb	r2, [r3]	@ zero_extendqisi2
 695 000c 42F00102 		orr	r2, r2, #1
 696 0010 1A70     		strb	r2, [r3]
 697 0012 7047     		bx	lr
 698              	.L13:
 699              		.align	2
 700              	.L12:
 701 0014 83640040 		.word	1073767555
 702              	.LBE40:
 703              	.LBE39:
 704              		.cfi_endproc
 705              	.LFE2:
 706              		.size	P2_4_Init, .-P2_4_Init
 707              		.section	.text.P2_4_Stop,"ax",%progbits
 708              		.align	2
 709              		.global	P2_4_Stop
 710              		.thumb
 711              		.thumb_func
 712              		.type	P2_4_Stop, %function
 713              	P2_4_Stop:
 714              	.LFB3:
 114:.\Generated_Source\PSoC5/P2_4.c ****     /*changing Datapath Control Store address to NOP space*/
 715              		.loc 1 114 0
 716              		.cfi_startproc
 717              		@ args = 0, pretend = 0, frame = 0
 718              		@ frame_needed = 0, uses_anonymous_args = 0
 719 0000 08B5     		push	{r3, lr}
 720              		.cfi_def_cfa_offset 8
 721              		.cfi_offset 3, -8
 722              		.cfi_offset 14, -4
 116:.\Generated_Source\PSoC5/P2_4.c ****     P2_4_DisableInt();
 723              		.loc 1 116 0
 724 0002 084A     		ldr	r2, .L16
 725 0004 1378     		ldrb	r3, [r2]	@ zero_extendqisi2
 726 0006 03F0FE03 		and	r3, r3, #254
 727 000a 1370     		strb	r3, [r2]
 728              	.LBB43:
 729              	.LBB44:
 163:.\Generated_Source\PSoC5/P2_4.c ****     P2_4_SR_AUX_CONTROL &= ((uint8) ~P2_4_INTERRUPTS_ENABLE);
 730              		.loc 1 163 0
 731 000c FFF7FEFF 		bl	CyEnterCriticalSection
 732              	.LVL7:
 164:.\Generated_Source\PSoC5/P2_4.c ****     CyExitCriticalSection(interruptState);
 733              		.loc 1 164 0
ARM GAS  C:\Users\Thomas\AppData\Local\Temp\ccwy0EZM.s 			page 49


 734 0010 054A     		ldr	r2, .L16+4
 735 0012 1378     		ldrb	r3, [r2]	@ zero_extendqisi2
 736 0014 03F0EF03 		and	r3, r3, #239
 737 0018 1370     		strb	r3, [r2]
 738              	.LBE44:
 739              	.LBE43:
 118:.\Generated_Source\PSoC5/P2_4.c **** 
 740              		.loc 1 118 0
 741 001a BDE80840 		pop	{r3, lr}
 742              		.cfi_restore 14
 743              		.cfi_restore 3
 744              		.cfi_def_cfa_offset 0
 745              	.LBB46:
 746              	.LBB45:
 165:.\Generated_Source\PSoC5/P2_4.c **** }
 747              		.loc 1 165 0
 748 001e FFF7FEBF 		b	CyExitCriticalSection
 749              	.LVL8:
 750              	.L17:
 751 0022 00BF     		.align	2
 752              	.L16:
 753 0024 73640040 		.word	1073767539
 754 0028 93640040 		.word	1073767571
 755              	.LBE45:
 756              	.LBE46:
 757              		.cfi_endproc
 758              	.LFE3:
 759              		.size	P2_4_Stop, .-P2_4_Stop
 760              		.section	.text.P2_4_EnableInt,"ax",%progbits
 761              		.align	2
 762              		.global	P2_4_EnableInt
 763              		.thumb
 764              		.thumb_func
 765              		.type	P2_4_EnableInt, %function
 766              	P2_4_EnableInt:
 767              	.LFB4:
 136:.\Generated_Source\PSoC5/P2_4.c ****     uint8 interruptState;
 768              		.loc 1 136 0
 769              		.cfi_startproc
 770              		@ args = 0, pretend = 0, frame = 0
 771              		@ frame_needed = 0, uses_anonymous_args = 0
 772 0000 08B5     		push	{r3, lr}
 773              		.cfi_def_cfa_offset 8
 774              		.cfi_offset 3, -8
 775              		.cfi_offset 14, -4
 139:.\Generated_Source\PSoC5/P2_4.c ****     P2_4_SR_AUX_CONTROL |= P2_4_INTERRUPTS_ENABLE;
 776              		.loc 1 139 0
 777 0002 FFF7FEFF 		bl	CyEnterCriticalSection
 778              	.LVL9:
 140:.\Generated_Source\PSoC5/P2_4.c ****     CyExitCriticalSection(interruptState);
 779              		.loc 1 140 0
 780 0006 044A     		ldr	r2, .L20
 781 0008 1378     		ldrb	r3, [r2]	@ zero_extendqisi2
 782 000a 43F01003 		orr	r3, r3, #16
 783 000e 1370     		strb	r3, [r2]
 142:.\Generated_Source\PSoC5/P2_4.c **** 
 784              		.loc 1 142 0
ARM GAS  C:\Users\Thomas\AppData\Local\Temp\ccwy0EZM.s 			page 50


 785 0010 BDE80840 		pop	{r3, lr}
 786              		.cfi_restore 14
 787              		.cfi_restore 3
 788              		.cfi_def_cfa_offset 0
 141:.\Generated_Source\PSoC5/P2_4.c **** }
 789              		.loc 1 141 0
 790 0014 FFF7FEBF 		b	CyExitCriticalSection
 791              	.LVL10:
 792              	.L21:
 793              		.align	2
 794              	.L20:
 795 0018 93640040 		.word	1073767571
 796              		.cfi_endproc
 797              	.LFE4:
 798              		.size	P2_4_EnableInt, .-P2_4_EnableInt
 799              		.section	.text.P2_4_DisableInt,"ax",%progbits
 800              		.align	2
 801              		.global	P2_4_DisableInt
 802              		.thumb
 803              		.thumb_func
 804              		.type	P2_4_DisableInt, %function
 805              	P2_4_DisableInt:
 806              	.LFB5:
 160:.\Generated_Source\PSoC5/P2_4.c ****     uint8 interruptState;
 807              		.loc 1 160 0
 808              		.cfi_startproc
 809              		@ args = 0, pretend = 0, frame = 0
 810              		@ frame_needed = 0, uses_anonymous_args = 0
 811 0000 08B5     		push	{r3, lr}
 812              		.cfi_def_cfa_offset 8
 813              		.cfi_offset 3, -8
 814              		.cfi_offset 14, -4
 163:.\Generated_Source\PSoC5/P2_4.c ****     P2_4_SR_AUX_CONTROL &= ((uint8) ~P2_4_INTERRUPTS_ENABLE);
 815              		.loc 1 163 0
 816 0002 FFF7FEFF 		bl	CyEnterCriticalSection
 817              	.LVL11:
 164:.\Generated_Source\PSoC5/P2_4.c ****     CyExitCriticalSection(interruptState);
 818              		.loc 1 164 0
 819 0006 044A     		ldr	r2, .L24
 820 0008 1378     		ldrb	r3, [r2]	@ zero_extendqisi2
 821 000a 03F0EF03 		and	r3, r3, #239
 822 000e 1370     		strb	r3, [r2]
 166:.\Generated_Source\PSoC5/P2_4.c **** 
 823              		.loc 1 166 0
 824 0010 BDE80840 		pop	{r3, lr}
 825              		.cfi_restore 14
 826              		.cfi_restore 3
 827              		.cfi_def_cfa_offset 0
 165:.\Generated_Source\PSoC5/P2_4.c **** }
 828              		.loc 1 165 0
 829 0014 FFF7FEBF 		b	CyExitCriticalSection
 830              	.LVL12:
 831              	.L25:
 832              		.align	2
 833              	.L24:
 834 0018 93640040 		.word	1073767571
 835              		.cfi_endproc
ARM GAS  C:\Users\Thomas\AppData\Local\Temp\ccwy0EZM.s 			page 51


 836              	.LFE5:
 837              		.size	P2_4_DisableInt, .-P2_4_DisableInt
 838              		.section	.text.P2_4_GetFIFOStatus,"ax",%progbits
 839              		.align	2
 840              		.global	P2_4_GetFIFOStatus
 841              		.thumb
 842              		.thumb_func
 843              		.type	P2_4_GetFIFOStatus, %function
 844              	P2_4_GetFIFOStatus:
 845              	.LFB6:
 184:.\Generated_Source\PSoC5/P2_4.c ****     uint8 result;
 846              		.loc 1 184 0
 847              		.cfi_startproc
 848              		@ args = 0, pretend = 0, frame = 0
 849              		@ frame_needed = 0, uses_anonymous_args = 0
 850              		@ link register save eliminated.
 851              	.LVL13:
 216:.\Generated_Source\PSoC5/P2_4.c ****     {
 852              		.loc 1 216 0
 853 0000 0228     		cmp	r0, #2
 854 0002 01D0     		beq	.L32
 187:.\Generated_Source\PSoC5/P2_4.c **** 
 855              		.loc 1 187 0
 856 0004 FE20     		movs	r0, #254
 857              	.LVL14:
 858              	.L27:
 242:.\Generated_Source\PSoC5/P2_4.c **** 
 859              		.loc 1 242 0
 860 0006 7047     		bx	lr
 861              	.LVL15:
 862              	.L32:
 863              	.LBB49:
 864              	.LBB50:
 218:.\Generated_Source\PSoC5/P2_4.c ****         {
 865              		.loc 1 218 0
 866 0008 054B     		ldr	r3, .L33
 867 000a 1B78     		ldrb	r3, [r3]	@ zero_extendqisi2
 868 000c C3F34113 		ubfx	r3, r3, #5, #2
 869 0010 002B     		cmp	r3, #0
 870 0012 F8D0     		beq	.L27
 221:.\Generated_Source\PSoC5/P2_4.c ****                 break;
 871              		.loc 1 221 0
 872 0014 A3F10200 		sub	r0, r3, #2
 873              	.LVL16:
 874 0018 B0FA80F0 		clz	r0, r0
 875 001c 4009     		lsrs	r0, r0, #5
 876 001e 7047     		bx	lr
 877              	.L34:
 878              		.align	2
 879              	.L33:
 880 0020 63640040 		.word	1073767523
 881              	.LBE50:
 882              	.LBE49:
 883              		.cfi_endproc
 884              	.LFE6:
 885              		.size	P2_4_GetFIFOStatus, .-P2_4_GetFIFOStatus
 886              		.section	.text.P2_4_SetIntMode,"ax",%progbits
ARM GAS  C:\Users\Thomas\AppData\Local\Temp\ccwy0EZM.s 			page 52


 887              		.align	2
 888              		.global	P2_4_SetIntMode
 889              		.thumb
 890              		.thumb_func
 891              		.type	P2_4_SetIntMode, %function
 892              	P2_4_SetIntMode:
 893              	.LFB7:
 262:.\Generated_Source\PSoC5/P2_4.c ****     P2_4_SR_STATUS_MASK &= ((uint8) ~P2_4_INTS_EN_MASK);          /* Clear existing int */
 894              		.loc 1 262 0
 895              		.cfi_startproc
 896              		@ args = 0, pretend = 0, frame = 0
 897              		@ frame_needed = 0, uses_anonymous_args = 0
 898              		@ link register save eliminated.
 899              	.LVL17:
 263:.\Generated_Source\PSoC5/P2_4.c ****     P2_4_SR_STATUS_MASK |= (interruptSource & P2_4_INTS_EN_MASK); /* Set int */
 900              		.loc 1 263 0
 901 0000 054B     		ldr	r3, .L36
 902              		.loc 1 264 0
 903 0002 00F00700 		and	r0, r0, #7
 904              	.LVL18:
 263:.\Generated_Source\PSoC5/P2_4.c ****     P2_4_SR_STATUS_MASK |= (interruptSource & P2_4_INTS_EN_MASK); /* Set int */
 905              		.loc 1 263 0
 906 0006 1A78     		ldrb	r2, [r3]	@ zero_extendqisi2
 907 0008 02F0F802 		and	r2, r2, #248
 908 000c 1A70     		strb	r2, [r3]
 909              		.loc 1 264 0
 910 000e 1A78     		ldrb	r2, [r3]	@ zero_extendqisi2
 911 0010 1043     		orrs	r0, r0, r2
 912 0012 1870     		strb	r0, [r3]
 913 0014 7047     		bx	lr
 914              	.L37:
 915 0016 00BF     		.align	2
 916              	.L36:
 917 0018 83640040 		.word	1073767555
 918              		.cfi_endproc
 919              	.LFE7:
 920              		.size	P2_4_SetIntMode, .-P2_4_SetIntMode
 921              		.section	.text.P2_4_GetIntStatus,"ax",%progbits
 922              		.align	2
 923              		.global	P2_4_GetIntStatus
 924              		.thumb
 925              		.thumb_func
 926              		.type	P2_4_GetIntStatus, %function
 927              	P2_4_GetIntStatus:
 928              	.LFB8:
 265:.\Generated_Source\PSoC5/P2_4.c **** }
 266:.\Generated_Source\PSoC5/P2_4.c **** 
 267:.\Generated_Source\PSoC5/P2_4.c **** 
 268:.\Generated_Source\PSoC5/P2_4.c **** /*******************************************************************************
 269:.\Generated_Source\PSoC5/P2_4.c **** * Function Name: P2_4_GetIntStatus
 270:.\Generated_Source\PSoC5/P2_4.c **** ********************************************************************************
 271:.\Generated_Source\PSoC5/P2_4.c **** *
 272:.\Generated_Source\PSoC5/P2_4.c **** * Summary:
 273:.\Generated_Source\PSoC5/P2_4.c **** *  Gets the Shift Register Interrupt status.
 274:.\Generated_Source\PSoC5/P2_4.c **** *
 275:.\Generated_Source\PSoC5/P2_4.c **** * Parameters:
 276:.\Generated_Source\PSoC5/P2_4.c **** *  None.
ARM GAS  C:\Users\Thomas\AppData\Local\Temp\ccwy0EZM.s 			page 53


 277:.\Generated_Source\PSoC5/P2_4.c **** *
 278:.\Generated_Source\PSoC5/P2_4.c **** * Return:
 279:.\Generated_Source\PSoC5/P2_4.c **** *  Byte containing the constant for the selected interrupt source/s.
 280:.\Generated_Source\PSoC5/P2_4.c **** *
 281:.\Generated_Source\PSoC5/P2_4.c **** *******************************************************************************/
 282:.\Generated_Source\PSoC5/P2_4.c **** uint8 P2_4_GetIntStatus(void) 
 283:.\Generated_Source\PSoC5/P2_4.c **** {
 929              		.loc 1 283 0
 930              		.cfi_startproc
 931              		@ args = 0, pretend = 0, frame = 0
 932              		@ frame_needed = 0, uses_anonymous_args = 0
 933              		@ link register save eliminated.
 284:.\Generated_Source\PSoC5/P2_4.c ****     return(P2_4_SR_STATUS & P2_4_INTS_EN_MASK);
 934              		.loc 1 284 0
 935 0000 024B     		ldr	r3, .L39
 936 0002 1878     		ldrb	r0, [r3]	@ zero_extendqisi2
 285:.\Generated_Source\PSoC5/P2_4.c **** }
 937              		.loc 1 285 0
 938 0004 00F00700 		and	r0, r0, #7
 939 0008 7047     		bx	lr
 940              	.L40:
 941 000a 00BF     		.align	2
 942              	.L39:
 943 000c 63640040 		.word	1073767523
 944              		.cfi_endproc
 945              	.LFE8:
 946              		.size	P2_4_GetIntStatus, .-P2_4_GetIntStatus
 947              		.section	.text.P2_4_WriteRegValue,"ax",%progbits
 948              		.align	2
 949              		.global	P2_4_WriteRegValue
 950              		.thumb
 951              		.thumb_func
 952              		.type	P2_4_WriteRegValue, %function
 953              	P2_4_WriteRegValue:
 954              	.LFB9:
 286:.\Generated_Source\PSoC5/P2_4.c **** 
 287:.\Generated_Source\PSoC5/P2_4.c **** 
 288:.\Generated_Source\PSoC5/P2_4.c **** /*******************************************************************************
 289:.\Generated_Source\PSoC5/P2_4.c **** * Function Name: P2_4_WriteRegValue
 290:.\Generated_Source\PSoC5/P2_4.c **** ********************************************************************************
 291:.\Generated_Source\PSoC5/P2_4.c **** *
 292:.\Generated_Source\PSoC5/P2_4.c **** * Summary:
 293:.\Generated_Source\PSoC5/P2_4.c **** *  Send state directly to shift register
 294:.\Generated_Source\PSoC5/P2_4.c **** *
 295:.\Generated_Source\PSoC5/P2_4.c **** * Parameters:
 296:.\Generated_Source\PSoC5/P2_4.c **** *  shiftData: containing shift register state.
 297:.\Generated_Source\PSoC5/P2_4.c **** *
 298:.\Generated_Source\PSoC5/P2_4.c **** * Return:
 299:.\Generated_Source\PSoC5/P2_4.c **** *  None.
 300:.\Generated_Source\PSoC5/P2_4.c **** *
 301:.\Generated_Source\PSoC5/P2_4.c **** *******************************************************************************/
 302:.\Generated_Source\PSoC5/P2_4.c **** void P2_4_WriteRegValue(uint16 shiftData)
 303:.\Generated_Source\PSoC5/P2_4.c ****                                                                      
 304:.\Generated_Source\PSoC5/P2_4.c **** {
 955              		.loc 1 304 0
 956              		.cfi_startproc
 957              		@ args = 0, pretend = 0, frame = 0
ARM GAS  C:\Users\Thomas\AppData\Local\Temp\ccwy0EZM.s 			page 54


 958              		@ frame_needed = 0, uses_anonymous_args = 0
 959              		@ link register save eliminated.
 960              	.LVL19:
 305:.\Generated_Source\PSoC5/P2_4.c ****     CY_SET_REG16(P2_4_SHIFT_REG_LSB_PTR, shiftData);
 961              		.loc 1 305 0
 962 0000 014B     		ldr	r3, .L42
 963 0002 1880     		strh	r0, [r3]	@ movhi
 964 0004 7047     		bx	lr
 965              	.L43:
 966 0006 00BF     		.align	2
 967              	.L42:
 968 0008 02640040 		.word	1073767426
 969              		.cfi_endproc
 970              	.LFE9:
 971              		.size	P2_4_WriteRegValue, .-P2_4_WriteRegValue
 972              		.section	.text.P2_4_ReadRegValue,"ax",%progbits
 973              		.align	2
 974              		.global	P2_4_ReadRegValue
 975              		.thumb
 976              		.thumb_func
 977              		.type	P2_4_ReadRegValue, %function
 978              	P2_4_ReadRegValue:
 979              	.LFB10:
 306:.\Generated_Source\PSoC5/P2_4.c **** }
 307:.\Generated_Source\PSoC5/P2_4.c **** 
 308:.\Generated_Source\PSoC5/P2_4.c **** 
 309:.\Generated_Source\PSoC5/P2_4.c **** #if(0u != P2_4_USE_INPUT_FIFO)
 310:.\Generated_Source\PSoC5/P2_4.c ****     /*******************************************************************************
 311:.\Generated_Source\PSoC5/P2_4.c ****     * Function Name: P2_4_WriteData
 312:.\Generated_Source\PSoC5/P2_4.c ****     ********************************************************************************
 313:.\Generated_Source\PSoC5/P2_4.c ****     *
 314:.\Generated_Source\PSoC5/P2_4.c ****     * Summary:
 315:.\Generated_Source\PSoC5/P2_4.c ****     *  Send state to FIFO for later transfer to shift register based on the Load
 316:.\Generated_Source\PSoC5/P2_4.c ****     *  input
 317:.\Generated_Source\PSoC5/P2_4.c ****     *
 318:.\Generated_Source\PSoC5/P2_4.c ****     * Parameters:
 319:.\Generated_Source\PSoC5/P2_4.c ****     *  shiftData: containing shift register state.
 320:.\Generated_Source\PSoC5/P2_4.c ****     *
 321:.\Generated_Source\PSoC5/P2_4.c ****     * Return:
 322:.\Generated_Source\PSoC5/P2_4.c ****     *  Indicates: successful execution of function
 323:.\Generated_Source\PSoC5/P2_4.c ****     *  when FIFO is empty; and error when FIFO is full.
 324:.\Generated_Source\PSoC5/P2_4.c ****     *
 325:.\Generated_Source\PSoC5/P2_4.c ****     * Reentrant:
 326:.\Generated_Source\PSoC5/P2_4.c ****     *  No.
 327:.\Generated_Source\PSoC5/P2_4.c ****     *
 328:.\Generated_Source\PSoC5/P2_4.c ****     *******************************************************************************/
 329:.\Generated_Source\PSoC5/P2_4.c ****     cystatus P2_4_WriteData(uint16 shiftData)
 330:.\Generated_Source\PSoC5/P2_4.c ****                                                                          
 331:.\Generated_Source\PSoC5/P2_4.c ****     {
 332:.\Generated_Source\PSoC5/P2_4.c ****         cystatus result;
 333:.\Generated_Source\PSoC5/P2_4.c **** 
 334:.\Generated_Source\PSoC5/P2_4.c ****         result = CYRET_INVALID_STATE;
 335:.\Generated_Source\PSoC5/P2_4.c **** 
 336:.\Generated_Source\PSoC5/P2_4.c ****         /* Writes data into the input FIFO if it is not FULL */
 337:.\Generated_Source\PSoC5/P2_4.c ****         if(P2_4_RET_FIFO_FULL != (P2_4_GetFIFOStatus(P2_4_IN_FIFO)))
 338:.\Generated_Source\PSoC5/P2_4.c ****         {
 339:.\Generated_Source\PSoC5/P2_4.c ****             CY_SET_REG16(P2_4_IN_FIFO_VAL_LSB_PTR, shiftData);
ARM GAS  C:\Users\Thomas\AppData\Local\Temp\ccwy0EZM.s 			page 55


 340:.\Generated_Source\PSoC5/P2_4.c ****             result = CYRET_SUCCESS;
 341:.\Generated_Source\PSoC5/P2_4.c ****         }
 342:.\Generated_Source\PSoC5/P2_4.c **** 
 343:.\Generated_Source\PSoC5/P2_4.c ****         return(result);
 344:.\Generated_Source\PSoC5/P2_4.c ****     }
 345:.\Generated_Source\PSoC5/P2_4.c **** #endif /* (0u != P2_4_USE_INPUT_FIFO) */
 346:.\Generated_Source\PSoC5/P2_4.c **** 
 347:.\Generated_Source\PSoC5/P2_4.c **** 
 348:.\Generated_Source\PSoC5/P2_4.c **** #if(0u != P2_4_USE_OUTPUT_FIFO)
 349:.\Generated_Source\PSoC5/P2_4.c ****     /*******************************************************************************
 350:.\Generated_Source\PSoC5/P2_4.c ****     * Function Name: P2_4_ReadData
 351:.\Generated_Source\PSoC5/P2_4.c ****     ********************************************************************************
 352:.\Generated_Source\PSoC5/P2_4.c ****     *
 353:.\Generated_Source\PSoC5/P2_4.c ****     * Summary:
 354:.\Generated_Source\PSoC5/P2_4.c ****     *  Returns state in FIFO due to Store input.
 355:.\Generated_Source\PSoC5/P2_4.c ****     *
 356:.\Generated_Source\PSoC5/P2_4.c ****     * Parameters:
 357:.\Generated_Source\PSoC5/P2_4.c ****     *  None.
 358:.\Generated_Source\PSoC5/P2_4.c ****     *
 359:.\Generated_Source\PSoC5/P2_4.c ****     * Return:
 360:.\Generated_Source\PSoC5/P2_4.c ****     *  Shift Register state
 361:.\Generated_Source\PSoC5/P2_4.c ****     *
 362:.\Generated_Source\PSoC5/P2_4.c ****     * Reentrant:
 363:.\Generated_Source\PSoC5/P2_4.c ****     *  No.
 364:.\Generated_Source\PSoC5/P2_4.c ****     *
 365:.\Generated_Source\PSoC5/P2_4.c ****     *******************************************************************************/
 366:.\Generated_Source\PSoC5/P2_4.c ****     uint16 P2_4_ReadData(void) 
 367:.\Generated_Source\PSoC5/P2_4.c ****     {
 368:.\Generated_Source\PSoC5/P2_4.c ****         return(CY_GET_REG16(P2_4_OUT_FIFO_VAL_LSB_PTR));
 369:.\Generated_Source\PSoC5/P2_4.c ****     }
 370:.\Generated_Source\PSoC5/P2_4.c **** #endif /* (0u != P2_4_USE_OUTPUT_FIFO) */
 371:.\Generated_Source\PSoC5/P2_4.c **** 
 372:.\Generated_Source\PSoC5/P2_4.c **** 
 373:.\Generated_Source\PSoC5/P2_4.c **** /*******************************************************************************
 374:.\Generated_Source\PSoC5/P2_4.c **** * Function Name: P2_4_ReadRegValue
 375:.\Generated_Source\PSoC5/P2_4.c **** ********************************************************************************
 376:.\Generated_Source\PSoC5/P2_4.c **** *
 377:.\Generated_Source\PSoC5/P2_4.c **** * Summary:
 378:.\Generated_Source\PSoC5/P2_4.c **** *  Directly returns current state in shift register, not data in FIFO due
 379:.\Generated_Source\PSoC5/P2_4.c **** *  to Store input.
 380:.\Generated_Source\PSoC5/P2_4.c **** *
 381:.\Generated_Source\PSoC5/P2_4.c **** * Parameters:
 382:.\Generated_Source\PSoC5/P2_4.c **** *  None.
 383:.\Generated_Source\PSoC5/P2_4.c **** *
 384:.\Generated_Source\PSoC5/P2_4.c **** * Return:
 385:.\Generated_Source\PSoC5/P2_4.c **** *  Shift Register state. Clears output FIFO.
 386:.\Generated_Source\PSoC5/P2_4.c **** *
 387:.\Generated_Source\PSoC5/P2_4.c **** * Reentrant:
 388:.\Generated_Source\PSoC5/P2_4.c **** *  No.
 389:.\Generated_Source\PSoC5/P2_4.c **** *
 390:.\Generated_Source\PSoC5/P2_4.c **** *******************************************************************************/
 391:.\Generated_Source\PSoC5/P2_4.c **** uint16 P2_4_ReadRegValue(void) 
 392:.\Generated_Source\PSoC5/P2_4.c **** {
 980              		.loc 1 392 0
 981              		.cfi_startproc
 982              		@ args = 0, pretend = 0, frame = 0
 983              		@ frame_needed = 0, uses_anonymous_args = 0
ARM GAS  C:\Users\Thomas\AppData\Local\Temp\ccwy0EZM.s 			page 56


 984              		@ link register save eliminated.
 985              	.LBB55:
 986              	.LBB56:
 987              	.LBB57:
 988              	.LBB58:
 218:.\Generated_Source\PSoC5/P2_4.c ****         {
 989              		.loc 1 218 0
 990 0000 064A     		ldr	r2, .L49
 991              	.LBE58:
 992              	.LBE57:
 993              	.LBE56:
 994              	.LBE55:
 393:.\Generated_Source\PSoC5/P2_4.c ****     uint16 result;
 394:.\Generated_Source\PSoC5/P2_4.c **** 
 395:.\Generated_Source\PSoC5/P2_4.c ****     /* Clear FIFO before software capture */
 396:.\Generated_Source\PSoC5/P2_4.c ****     while(P2_4_RET_FIFO_EMPTY != P2_4_GetFIFOStatus(P2_4_OUT_FIFO))
 397:.\Generated_Source\PSoC5/P2_4.c ****     {
 398:.\Generated_Source\PSoC5/P2_4.c ****         (void) CY_GET_REG16(P2_4_OUT_FIFO_VAL_LSB_PTR);
 995              		.loc 1 398 0
 996 0002 0749     		ldr	r1, .L49+4
 396:.\Generated_Source\PSoC5/P2_4.c ****     {
 997              		.loc 1 396 0
 998 0004 00E0     		b	.L45
 999              	.LVL20:
 1000              	.L48:
 1001              		.loc 1 398 0
 1002 0006 0B88     		ldrh	r3, [r1]
 1003              	.LVL21:
 1004              	.L45:
 1005              	.LBB62:
 1006              	.LBB61:
 1007              	.LBB60:
 1008              	.LBB59:
 218:.\Generated_Source\PSoC5/P2_4.c ****         {
 1009              		.loc 1 218 0
 1010 0008 1378     		ldrb	r3, [r2]	@ zero_extendqisi2
 1011 000a 13F0600F 		tst	r3, #96
 1012 000e FAD1     		bne	.L48
 1013              	.LVL22:
 1014              	.LBE59:
 1015              	.LBE60:
 1016              	.LBE61:
 1017              	.LBE62:
 399:.\Generated_Source\PSoC5/P2_4.c ****     }
 400:.\Generated_Source\PSoC5/P2_4.c **** 
 401:.\Generated_Source\PSoC5/P2_4.c ****     /* Read of 8 bits from A1 causes capture to output FIFO */
 402:.\Generated_Source\PSoC5/P2_4.c ****     (void) CY_GET_REG8(P2_4_SHIFT_REG_CAPTURE_PTR);
 403:.\Generated_Source\PSoC5/P2_4.c **** 
 404:.\Generated_Source\PSoC5/P2_4.c ****     /* Read output FIFO */
 405:.\Generated_Source\PSoC5/P2_4.c ****     result  = CY_GET_REG16(P2_4_OUT_FIFO_VAL_LSB_PTR);
 1018              		.loc 1 405 0
 1019 0010 034B     		ldr	r3, .L49+4
 402:.\Generated_Source\PSoC5/P2_4.c **** 
 1020              		.loc 1 402 0
 1021 0012 044A     		ldr	r2, .L49+8
 1022 0014 1278     		ldrb	r2, [r2]	@ zero_extendqisi2
 1023              		.loc 1 405 0
ARM GAS  C:\Users\Thomas\AppData\Local\Temp\ccwy0EZM.s 			page 57


 1024 0016 1888     		ldrh	r0, [r3]
 1025              	.LVL23:
 406:.\Generated_Source\PSoC5/P2_4.c ****     
 407:.\Generated_Source\PSoC5/P2_4.c ****     #if(0u != (P2_4_SR_SIZE % 8u))
 408:.\Generated_Source\PSoC5/P2_4.c ****         result &= ((uint16) P2_4_SR_MASK);
 409:.\Generated_Source\PSoC5/P2_4.c ****     #endif /* (0u != (P2_4_SR_SIZE % 8u)) */
 410:.\Generated_Source\PSoC5/P2_4.c ****     
 411:.\Generated_Source\PSoC5/P2_4.c ****     return(result);
 412:.\Generated_Source\PSoC5/P2_4.c **** }
 1026              		.loc 1 412 0
 1027 0018 80B2     		uxth	r0, r0
 1028 001a 7047     		bx	lr
 1029              	.L50:
 1030              		.align	2
 1031              	.L49:
 1032 001c 63640040 		.word	1073767523
 1033 0020 52640040 		.word	1073767506
 1034 0024 12640040 		.word	1073767442
 1035              		.cfi_endproc
 1036              	.LFE10:
 1037              		.size	P2_4_ReadRegValue, .-P2_4_ReadRegValue
 1038              		.global	P2_4_initVar
 1039              		.bss
 1040              		.set	.LANCHOR0,. + 0
 1041              		.type	P2_4_initVar, %object
 1042              		.size	P2_4_initVar, 1
 1043              	P2_4_initVar:
 1044 0000 00       		.space	1
 1045              		.text
 1046              	.Letext0:
 1047              		.file 2 ".\\Generated_Source\\PSoC5\\cytypes.h"
 1048              		.file 3 ".\\Generated_Source\\PSoC5\\CyLib.h"