ARM GAS  C:\Users\Thomas\AppData\Local\Temp\ccky316g.s 			page 1


   1              		.syntax unified
   2              		.cpu cortex-m3
   3              		.fpu softvfp
   4              		.eabi_attribute 20, 1
   5              		.eabi_attribute 21, 1
   6              		.eabi_attribute 23, 3
   7              		.eabi_attribute 24, 1
   8              		.eabi_attribute 25, 1
   9              		.eabi_attribute 26, 1
  10              		.eabi_attribute 30, 2
  11              		.eabi_attribute 34, 1
  12              		.eabi_attribute 18, 4
  13              		.thumb
  14              		.file	"P2_5_PM.c"
  15              		.text
  16              	.Ltext0:
  17              		.section	.gnu.lto_.profile.b949ab6f,"",%progbits
  18 0000 789C6366 		.ascii	"x\234cf```a\200\000F\006cY\000\000\367\000Y"
  18      60606061 
  18      80004606 
  18      63590000 
  18      F70059
  19              		.text
  20              		.section	.gnu.lto_.jmpfuncs.b949ab6f,"",%progbits
  21 0000 789C6366 		.ascii	"x\234cf\300\016\004\2404\013\0203100C\231\014\000\002"
  21      C00E04A0 
  21      340B1033 
  21      31303043 
  21      990C0002 
  22 0014 C70021   		.ascii	"\307\000!"
  23              		.text
  24              		.section	.gnu.lto_.inline.b949ab6f,"",%progbits
  25 0000 789C6366 		.ascii	"x\234cf\300\016\"\2404\013\003\003;\033#\003\023\307"
  25      C00E22A0 
  25      340B0303 
  25      3B1B2303 
  25      13C7
  26 0012 013B06B6 		.ascii	"\001;\006\266\005\362L 1&L!f\006\036\021\240\220@C-"
  26      05F24C20 
  26      31264C21 
  26      66061E11 
  26      A0904043 
  27 0027 5C88910B 		.ascii	"\\\210\221\013\254\235\233\027(\316\267!\027U\234\001"
  27      AC9D9B17 
  27      28CEB721 
  27      17559C01 
  28 0037 00917408 		.ascii	"\000\221t\010="
  28      3D
  29              		.text
  30              		.section	.gnu.lto_.pureconst.b949ab6f,"",%progbits
  31 0000 789C6366 		.ascii	"x\234cf``\340d\200\000\026\006)&)f)\026)\000\002\321"
  31      6060E064 
  31      80001606 
  31      29262966 
  31      29162900 
  32 0016 0082     		.ascii	"\000\202"
  33              		.text
ARM GAS  C:\Users\Thomas\AppData\Local\Temp\ccky316g.s 			page 2


  34              		.section	.gnu.lto_P2_5_SaveConfig.b949ab6f,"",%progbits
  35 0000 789C8D91 		.ascii	"x\234\215\221\317+\004a\030\307\237\3573c,.rtq\220\270"
  35      CF2B0461 
  35      18C79FEF 
  35      33632C2E 
  35      72747190 
  36 0015 7050FE02 		.ascii	"pP\376\002\007'\265\345\272\265\211\275R\342(3\232\203"
  36      0727B5E5 
  36      BAB589BD 
  36      52E22833 
  36      9A83
  37 0027 1C902461 		.ascii	"\034\220$a\035\224,\353\367\217\013\227\341\244\204"
  37      1D942CEB 
  37      F78F0B97 
  37      E1A484
  38 0036 E4A0F640 		.ascii	"\344\240\366@ji]\204\255\325\344\347\363\214\374\210"
  38      6A695D84 
  38      ADD5E4E7 
  38      F38CFC88 
  39 0046 92A977DE 		.ascii	"\222\251w\336y\337\347\373~\237\317\367\035\203~?\245"
  39      79DFE7FB 
  39      7E9FCFF7 
  39      1D837E3F 
  39      A5
  40 0057 323220AA 		.ascii	"22 \252\220\031\006\201\207\016\211\234\020\003\372"
  40      90190681 
  40      870E899C 
  40      1003FA
  41 0066 41A01E46 		.ascii	"A\240\036F\017\256\371\2161\344%\307\212*gl\333\276"
  41      0FAEF98E 
  41      31E425C7 
  41      8A2A676C 
  41      DBBE
  42 0078 9D3E70C2 		.ascii	"\235>p\302\036|&\312\362\273\017fQI\"\272s\237O\213"
  42      1E7C26CA 
  42      F2BB0F66 
  42      514922BA 
  42      739F4F8B 
  43 008c 2C5744C5 		.ascii	",WD\305\3575$`\211?-\227x\366\353kvs'\007\213\311g\230"
  43      EF352460 
  43      893F2D97 
  43      78F6EB6B 
  43      76732707 
  44 00a4 FA224A8B 		.ascii	"\372\"J\213H[]2\353l\244\260\233\353\277\031-\320s\017"
  44      485B5D32 
  44      EB6CA4B0 
  44      9BEBBF19 
  44      2DD0730F 
  45 00b8 AC7DE35B 		.ascii	"\254}\343[\311\361\374\014\373\314\356\236c\233\332"
  45      C9F1FC0C 
  45      FBCCEE9E 
  45      639BDA
  46 00c7 E53C7D74 		.ascii	"\345<}t\034\012\266H\227\231\253\231T(\216\011\307\025"
  46      1C0AB648 
  46      9799AB99 
  46      54288E09 
  46      C715
ARM GAS  C:\Users\Thomas\AppData\Local\Temp\ccky316g.s 			page 3


  47 00d9 26037328 		.ascii	"&\003s(\305<$\031\222\210\203R\350\035\276(S?\221N\235"
  47      C53C2419 
  47      92888352 
  47      E81DBE28 
  47      533F914E 
  48 00ee 0C2C71F7 		.ascii	"\014,q\367\243\335g\207|6\237\225\360\273\237\031,\023"
  48      A3DD6787 
  48      7C369F95 
  48      F0BB9F19 
  48      2C13
  49 0100 8E3B09F5 		.ascii	"\216;\011\365\263U\225\207\005tcQ\015\245\366\2620\270"
  49      B3559587 
  49      05746351 
  49      0DA5F6B2 
  49      30B8
  50 0112 66552725 		.ascii	"fU'%\240W\345\263\205%\021\336\007\227\200eT\0131\005"
  50      A057E5B3 
  50      852511DE 
  50      07978065 
  50      540B3105 
  51 0126 09721F09 		.ascii	"\011r\037\011L9\263\235\355\3337\002\334\221\217\004"
  51      4C39B39D 
  51      EDDB3702 
  51      DC918F04 
  52 0136 4F5B8B57 		.ascii	"O[\213W\205_\310+\237\310\253\377D\376\311\270\366\007"
  52      855FC82B 
  52      9FC8ABFF 
  52      44FEC9B8 
  52      F607
  53 0148 E37AC0A8 		.ascii	"\343z\300\250\177\001\033\312h\322\031\034\357!O\033"
  53      7F011BCA 
  53      68D2191C 
  53      EF214F1B 
  54 0158 28795A6A 		.ascii	"(yZjr\367\342\\^\023i\210\265\305:\232;c\255\321\246"
  54      72F7E25C 
  54      5E136988 
  54      B5C53A9A 
  54      3B63ADD1 
  55 016d F6AE8E96 		.ascii	"\366\256\216\226X$\334\324^_\027\011\327F\353\242\341"
  55      5824DCD4 
  55      5E5F1709 
  55      D746EBA2 
  55      E1
  56 017e C69A167A 		.ascii	"\306\232\026z\0035@\274\027"
  56      033540BC 
  56      17
  57              		.text
  58              		.section	.gnu.lto_P2_5_RestoreConfig.b949ab6f,"",%progbits
  59 0000 789C7590 		.ascii	"x\234u\220\275KBQ\030\306\337\347\275\327\233\324\022"
  59      BD4B4251 
  59      18C6DFE7 
  59      BDD79BD4 
  59      12
  60 0011 4DE21AD1 		.ascii	"M\342\032\321\020:\004\375\005AM\201\341*H\230kA\324"
  60      103A04FD 
  60      05414D81 
  60      E12A4898 
ARM GAS  C:\Users\Thomas\AppData\Local\Temp\ccky316g.s 			page 4


  60      6B41D4
  61 0024 28DE1B37 		.ascii	"(\336\0337p*\215\206\250l\213,\277\372\242\241\026i"
  61      702A8D86 
  61      A86C8B2C 
  61      BFFAA2A1 
  61      1669
  62 0036 0A02250A 		.ascii	"\012\002%\012\002\203Z,j\313\034\342Rf\347\\\251\310"
  62      02835A2C 
  62      6ACB1CE2 
  62      5266E75C 
  62      A9C8
  63 0048 EAC0F97C 		.ascii	"\352\300\371|\237\363<\277s\024\372\335\334\242\227"
  63      9FF33CBF 
  63      7314FADD 
  63      DCA297
  64 0057 41D42366 		.ascii	"A\324#f(\004\216\027\211\014'\003rA\240(#\212G\2562"
  64      28048E17 
  64      890C2703 
  64      7241A028 
  64      238A47AE 
  65 006c E285F472 		.ascii	"\342\205\364rG\357\206\256\353O'\373\2569\227\305D5"
  65      47EF86AE 
  65      EB4F27FB 
  65      AE3997C5 
  65      4435
  66 007e 6EDA6013 		.ascii	"n\332`\023\275$4U\263~\325\241\231B\323\331\254!\005"
  66      BD243455 
  66      B37ED5A1 
  66      9942D3D9 
  66      AC2105
  67 0091 4DD853BE 		.ascii	"M\330S\276\253\2407\032\265b\"\325\007\215\311b\250"
  67      ABA0371A 
  67      B56222D5 
  67      078DC962 
  67      A8
  68 00a2 7220AA08 		.ascii	"r \252\010\225\214\272c\226\263R\306\354a\2654*\357"
  68      958CBA63 
  68      96B352C6 
  68      EC61B534 
  68      2AEF
  69 00b4 BDB08C5D 		.ascii	"\275\260\214]\277\230\317q\344U\217\351N\213\271.M\305"
  69      BF98CF71 
  69      E4558FE9 
  69      4E8BB92E 
  69      4DC5
  70 00c6 E96DA574 		.ascii	"\351m\245t\356|`qboS\206\271\206$V\015]\252\024l!\202"
  70      EE7C6071 
  70      626F5386 
  70      B9862456 
  70      0D5DAA14 
  71 00dd 6DB8EDDA 		.ascii	"m\270\355\332{faO\363\364Y\254\"-4\317622\360\210\207"
  71      7B66614F 
  71      F3F459AC 
  71      222D34CF 
  71      363232F0 
  72 00f3 9F2C4226 		.ascii	"\237,B&\011U\362(\275\322&\015\035\346\251\241\253?"
  72      0955F228 
ARM GAS  C:\Users\Thomas\AppData\Local\Temp\ccky316g.s 			page 5


  72      BDD2260D 
  72      1DE6A9A1 
  72      AB3F
  73 0105 321CB6CF 		.ascii	"2\034\266\317\303\375F\331)3LX\254!\0137r2\002y\341"
  73      C3FD46D9 
  73      29334C58 
  73      AC210B37 
  73      72320279 
  74 011a 2A5849A2 		.ascii	"*XI\242'.\321DW\377Eoe\335\371\233u\327f\225\177\207"
  74      272ED144 
  74      57FF456F 
  74      65DDF99B 
  74      75D76695 
  75 0130 BD16D6E3 		.ascii	"\275\026\326\343Z\354L\261\301\226>Y\337\216\262\367"
  75      5AEC4CB1 
  75      C1963E59 
  75      DF8EB2F7 
  76 0140 EDDF70FB 		.ascii	"\355\337p\373_p\0076\234J70\012\327C\322@>\277\"\214"
  76      5F700736 
  76      9C4A3730 
  76      0AD743D2 
  76      403EBF22 
  77 0155 C56F0BA2 		.ascii	"\305o\013\242no`8<\021\236\032\233\016\217\007\375\223"
  77      6E6F6038 
  77      3C119E1A 
  77      9B0E8F07 
  77      FD93
  78 0167 3353A170 		.ascii	"3S\241p\300\347\237\034\034\010\370\372\203\003A\337"
  78      C0E79F1C 
  78      1C08F8FA 
  78      830341DF 
  79 0177 8837441F 		.ascii	"\2107D\037\204P\262\022"
  79      8450B212 
  80              		.text
  81              		.section	.gnu.lto_P2_5_Sleep.b949ab6f,"",%progbits
  82 0000 789C9592 		.ascii	"x\234\225\222Mh\023Q\024\205\357y\223L2I\005qU\272\320"
  82      4D681351 
  82      1485EF79 
  82      934C3249 
  82      057155BA 
  83 0015 8548DDB4 		.ascii	"\205H\335\264\013\241\270t\341\242+!\320m H\315J\260"
  83      0BA1B874 
  83      E1A22B21 
  83      D06D2048 
  83      CD4AB0
  84 0028 5074193A 		.ascii	"Pt\031:\323F-A\264\306RD\215n\374\251\246\2665\325\252"
  84      D3462D41 
  84      B4C65244 
  84      8D6EFCA9 
  84      A6B635D5 
  85 003d 8DB5830A 		.ascii	"\215\265\203\012\021\004E\\\010E\"\301\012qQ1\006\253"
  85      1104455C 
  85      084522C1 
  85      0A715131 
  85      06AB
  86 004f A3D47AEF 		.ascii	"\243\324z\357\033+5\245\202\003\363~\317\273\367\273"
  86      1B2B35A5 
ARM GAS  C:\Users\Thomas\AppData\Local\Temp\ccky316g.s 			page 6


  86      8203F37E 
  86      CFBBF7BB 
  87 005f E73D83D6 		.ascii	"\347=\203\326\177-\374\0374\210vp\017\203\240\206\236"
  87      7F2DFC1F 
  87      34887670 
  87      0F83A086 
  87      9E
  88 0070 13396105 		.ascii	"\0239a\005\310\200@}\012}\370\240j\012Cn\376l\264\365"
  88      C880407D 
  88      0A7DF8A0 
  88      6A0A436E 
  88      FE6CB4F5 
  89 0084 8A6DDB9F 		.ascii	"\212m\333\237\262\305\346\243\315\236\"\252+?\014\256"
  89      B2C5E6A3 
  89      CD9E22AA 
  89      2B3F0CAE 
  90 0094 A1955853 		.ascii	"\241\225XSK/\277\216\232i\326l\366\3670\012\023\334"
  90      4B2FBF8E 
  90      9A69D66C 
  90      F6F7300A 
  90      13DC
  91 00a6 4F6C71ED 		.ascii	"Olq\355\225\225\251\305\323\325\335h\002y\212\223q\023"
  91      9595A9C5 
  91      D3D5DD68 
  91      02798A93 
  91      7113
  92 00b8 E0460565 		.ascii	"\340F\005edqcD\244!Z\340\223\222\376\275R\322\033\363"
  92      64716344 
  92      A4215AE0 
  92      9392FEBD 
  92      52D21BF3 
  93 00cc 78B49429 		.ascii	"x\264\224)\347&!\321\276*\203\023\235\251x\357\202U"
  93      E72621D1 
  93      BE2A8313 
  93      9DA978EF 
  93      8255
  94 00de E5A9C097 		.ascii	"\345\251\300\227\247\216\035\220\334o\027^\274\014\353"
  94      A78E1D90 
  94      DC6F175E 
  94      BC0CEB
  95 00ed 2592E9A5 		.ascii	"%\222\351\245\357\225R$\207\363N\032\236\012\342:Zp"
  95      EF955224 
  95      87F34E1A 
  95      9E0AE23A 
  95      5A70
  96 00ff 035C2EF2 		.ascii	"\003\\.\362\310\201\3461\360\315\364\303\301\217X\312"
  96      C881E631 
  96      F0CDF4C3 
  96      C18F58CA 
  97 010f 550B0139 		.ascii	"U\013\0019\016\020\306X\311\222\302\361'\001_\024`\035"
  97      0E10C658 
  97      C992C2F1 
  97      27015F14 
  97      601D
  98 0121 8B9CABC5 		.ascii	"\213\234\253\305\023!-\342@7\265\250\277\034\362%AV"
  98      13212DE2 
  98      4037B5A8 
ARM GAS  C:\Users\Thomas\AppData\Local\Temp\ccky316g.s 			page 7


  98      BF1CF225 
  98      4156
  99 0133 C93C5BD9 		.ascii	"\311<[\331*\013\254\276\370\352\344\270J\375\260\007"
  99      2A0BACBE 
  99      F8EAE4B8 
  99      4AFDB007 
 100 0143 EDB0A7CC 		.ascii	"\355\260\247\314e\361c-\247\251\247\243N\372\002\204"
 100      65F1632D 
 100      A7A9A7A3 
 100      4EFA0284 
 101 0153 D3165508 		.ascii	"\323\026U\010\343HaB@y\357\347\330\251\202\331\226g"
 101      E3486142 
 101      4079EFE7 
 101      D8A982D9 
 101      9667
 102 0165 3BDD9D9E 		.ascii	";\335\235\236\012c\222\205\237\265\345\270\2056NIo0"
 102      0A639285 
 102      9FB5E5B8 
 102      85364E49 
 102      6F30
 103 0177 E0164B4A 		.ascii	"\340\026KJ\022RcF\253\2561\013H\261\255\021\322.~\034"
 103      12526346 
 103      ABAE310B 
 103      48B1AD11 
 103      D22E7E1C 
 104 018b B1FEBA26 		.ascii	"\261\376\272&w\266\244\364%\325\331\353\206\013\304"
 104      77B6A4F4 
 104      25D5D9EB 
 104      860BC4
 105 019a 140725DC 		.ascii	"\024\007%\334\226\342\344Tn&\177N\027\037M\257\363<"
 105      96E2E454 
 105      6E267F4E 
 105      171F4DAF 
 105      F33C
 106 01ac AA79B399 		.ascii	"\252y\263\231\3341Kj\031v8\177\023\356\260\351\323\332"
 106      DC314B6A 
 106      1976387F 
 106      13EEB0E9 
 106      D3DA
 107 01be F4BBBEE9 		.ascii	"\364\273\276\351\375\331\332\364\036\211\270\241;\215"
 107      FDD9DAF4 
 107      1E89B8A1 
 107      3B8D
 108 01cc 76DCDBD0 		.ascii	"v\334\333\320\216M\270\257\355\200\017\212\031q\304"
 108      8E4DB8AF 
 108      ED800F8A 
 108      1971C4
 109 01db F2CB5C1A 		.ascii	"\362\313\\\032\261|\356\010\037+\326\007\237\031\032"
 109      B17CEE08 
 109      1F2BD607 
 109      9F191A
 110 01ea 7278957B 		.ascii	"rx\225{1s\371qh\015h\361\017\350\203U\320\312\266\377"
 110      3173F971 
 110      680D68F1 
 110      0FE88355 
 110      D0CAB6FF 
 111 01fe E29CFD07 		.ascii	"\342\234\375\007\347C\315\251~s\316\011g\204\312p\334"
ARM GAS  C:\Users\Thomas\AppData\Local\Temp\ccky316g.s 			page 8


 111      E743CDA9 
 111      7E73CE09 
 111      6784CA70 
 111      DC
 112 020f B94E7D71 		.ascii	"\271N}q$O\036\362\3249\370\366\366xg\362P\262w\377\341"
 112      244F1EF2 
 112      D439F8F6 
 112      F67867F2 
 112      50B277FF 
 113 0224 E4814457 		.ascii	"\344\201DW\317\221\336\356d<\326\325\263\267#\036\333"
 113      CF91DEEE 
 113      643CD6D5 
 113      B3B7231E 
 113      DB
 114 0235 95E848C4 		.ascii	"\225\350H\304\366\265w\323/\260^A:"
 114      F6B577D3 
 114      2FB05E41 
 114      3A
 115              		.text
 116              		.section	.gnu.lto_P2_5_Wakeup.b949ab6f,"",%progbits
 117 0000 789C8D92 		.ascii	"x\234\215\222\317k\023A\024\307\337wf\273\233\244=\210"
 117      CF6B1341 
 117      14C7DF77 
 117      66BB9BA4 
 117      3D88
 118 0012 A7D2432E 		.ascii	"\247\322C.\242=H+(\375\013<\010\202\020\3515\020\244"
 118      A23D482B 
 118      28FD0B3C 
 118      088210E9 
 118      3510A4
 119 0025 E66AA1E8 		.ascii	"\346j\241\3501t\266]%\024\321\032r\0205\352\301\037"
 119      3174B65D 
 119      2514D11A 
 119      721035EA 
 119      C11F
 120 0037 D5D4D654 		.ascii	"\325\324\326T\255\232\\\026\025\021\005K\361\027\006"
 120      AD9A5C16 
 120      1511054B 
 120      F11706
 121 0046 D14B053D 		.ascii	"\321K\005=\010\306=\224 \265\2767\361WS\005\027f\336"
 121      08C63D94 
 121      20B5BE37 
 121      F1575305 
 121      1766DE
 122 0059 CE9B37DF 		.ascii	"\316\2337\337\357gv\237\246\365\317\016\036uE\264\231"
 122      EF67769F 
 122      A6F5CF0E 
 122      1E7545B4 
 122      99
 123 006a 233A086A 		.ascii	"#:\010j\362)\221\037SJW\223d\022\316\313md\2724\234"
 123      F229911F 
 123      534A5793 
 123      6412CECB 
 123      6D64BA34 
 124 007f 56DA01E4 		.ascii	"V\332\001\344\205@\243J;\030\305G\325P\230\014\313'"
 124      8540A34A 
 124      3B18C547 
ARM GAS  C:\Users\Thomas\AppData\Local\Temp\ccky316g.s 			page 9


 124      D550980C 
 124      CB27
 125 0091 3B7B2F1A 		.ascii	";{/\032c>\217-v\037\356n\262^\244Z\372\270\214^\342"
 125      633E8F2D 
 125      761FEE6E 
 125      B25EA45A 
 125      FAB88C5E 
 126 00a6 9A46B0F2 		.ascii	"\232F\260\362\252\323\015\270fCk\017Sp\301qvchVW\243"
 126      AAD30DB8 
 126      66436B0F 
 126      5370C171 
 126      76636856 
 127 00bc 0785FC16 		.ascii	"\007\205\374\026\025w\250\251\340\362\244<\231\210\226"
 127      1577A8A9 
 127      E0F2A43C 
 127      998896
 128 00cb 7888E37B 		.ascii	"x\210\343{^p\324u\214\3157\026\366\256\021\014\213\011"
 128      5E70D475 
 128      8CCD3716 
 128      F6AE110C 
 128      8B09
 129 00dd AB1629B4 		.ascii	"\253\026)\264;\341\012\253\021\256\302]V.\357\235}v"
 129      3BE10AAB 
 129      11AEC25D 
 129      562EEF9D 
 129      7D76
 130 00ef 6C46E5BE 		.ascii	"lF\345\276\232\274\2115\225^\021\016\316\276[ZX\214"
 130      9ABC8935 
 130      955E110E 
 130      CEBE5B5A 
 130      588C
 131 0101 7D509CB1 		.ascii	"}P\234\261\313)?8\203\022N\373F\252\034\224\221\303"
 131      CB293F38 
 131      83124EFB 
 131      46AA1C94 
 131      91C3
 132 0113 347AECDE 		.ascii	"4z\354\336\267\351\343sn_\231\305\317\237\323M\325\201"
 132      B7E9E373 
 132      6E5F99C5 
 132      CF9FD34D 
 132      D581
 133 0125 6B5CF985 		.ascii	"k\\\371\205u\254\023f\320Gu\334+@,\271\274T-\237\362"
 133      75AC1366 
 133      D04775DC 
 133      2B402CB9 
 133      BC542D9F 
 134 013a 44D90D1E 		.ascii	"D\331\015\036\371\306Yc\346Z\301\302D\351H\\\314\212"
 134      F9C65963 
 134      E65AC1C2 
 134      44E9485C 
 134      CC8A
 135 014c 3E9B7998 		.ascii	">\233y\230E\017\256\213\031*\254\314\324$W>\361\034"
 135      450FAE8B 
 135      192AACCC 
 135      D424573E 
 135      F11C
 136 015e AD4B78FF 		.ascii	"\255Kx\377\274D;\365\334:\352\255\302{\303\362\342\007"
ARM GAS  C:\Users\Thomas\AppData\Local\Temp\ccky316g.s 			page 10


 136      BC443BF5 
 136      DC3AEAAD 
 136      C27BC3F2 
 136      E207
 137 0170 EFCD36DE 		.ascii	"\357\3156\336Z\224\177\242-\\\361'\357\247\211\013\367"
 137      5A947FA2 
 137      2D5CF127 
 137      EFA7890B 
 137      F7
 138 0181 BD3F006F 		.ascii	"\275?\000o\375\002\234\267\200\236\005\254<,x\362\017"
 138      FD029CB7 
 138      809E05AC 
 138      3C2C78F2 
 138      0F
 139 0192 9695F3DF 		.ascii	"\226\225\363\337\204\267\377F\030\303\035Kh[\344.\343"
 139      84B7FF46 
 139      18C31D4B 
 139      685BE42E 
 139      E3
 140 01a3 BD40F07A 		.ascii	"\275@\360z<\371[\333\277T;j?)7\017\252r\234\244=4U\223"
 140      3CF95BDB 
 140      BF543B6A 
 140      3F29370F 
 140      AA729CA4 
 141 01bb FA0DC6C3 		.ascii	"\372\015\306\303\322\343.)\246v\214x$\232\250!\307\235"
 141      D2E32E29 
 141      A6768C78 
 141      249AA821 
 141      C79D
 142 01cd 95B0671C 		.ascii	"\225\260g\034\333Ro\341\207\225\335\366\014I\303A\262"
 142      DB526FE1 
 142      8795DDF6 
 142      0C49C341 
 142      B2
 143 01de 5CBAA93F 		.ascii	"\\\272\251?\275+{ ;\262\357`v\177fp\370\320\310P6\235"
 143      BD2B7B20 
 143      3BB2EF60 
 143      767F6670 
 143      F8D0C850 
 144 01f4 1A1CDE39 		.ascii	"\032\034\3369\220Nm\317\014dR{\372\207\350;\272c\012"
 144      904E6DCF 
 144      0C64527B 
 144      FA87E83B 
 144      BA630A
 145 0207 94       		.ascii	"\224"
 146              		.text
 147              		.section	.gnu.lto_.symbol_nodes.b949ab6f,"",%progbits
 148 0000 789C55C8 		.ascii	"x\234U\310A\015\2000\020\005\321\351n\267A\020\332\270"
 148      410D8030 
 148      1005D1E9 
 148      6EB74110 
 148      DAB8
 149 0012 FE4A4001 		.ascii	"\376J@\001\251\011\034p\306\003\011:\010$p(s{\343\300"
 149      A9091C70 
 149      C603093A 
 149      08247028 
 149      737BE3C0 
ARM GAS  C:\Users\Thomas\AppData\Local\Temp\ccky316g.s 			page 11


 150 0026 C49725C1 		.ascii	"\304\227%\301\274\203\304\322\006\002\232\311\315\224"
 150      BC83C4D2 
 150      06029AC9 
 150      CD94
 151 0034 FA6D2EFB 		.ascii	"\372m.\3739\313{\247P~M\255\017\213\242\243{\260\035"
 151      39CB7BA7 
 151      507E4DAD 
 151      0F8BA2A3 
 151      7BB01D
 152 0047 57F25C38 		.ascii	"W\362\\8\327\221\033\317\310\035\246"
 152      D7911BCF 
 152      C81DA6
 153              		.text
 154              		.section	.gnu.lto_.refs.b949ab6f,"",%progbits
 155 0000 789C25C8 		.ascii	"x\234%\310\321\011\000 \014\304\320\244WA\\\304\375"
 155      D1090020 
 155      0CC4D0A4 
 155      57415CC4 
 155      FD
 156 0011 371469BE 		.ascii	"7\024i\276\036\011p\231\012-\355\372\300$\272t\353I"
 156      1E097099 
 156      0A2DEDFA 
 156      C024BA74 
 156      EB49
 157 0023 CFC2C503 		.ascii	"\317\302\305\003\015{\000w"
 157      0D7B0077 
 158              		.text
 159              		.section	.gnu.lto_.decls.b949ab6f,"",%progbits
 160 0000 789C8D55 		.ascii	"x\234\215UmL\223W\024~Oo[J)\314\314D\015\277\032L\310"
 160      6D4C9357 
 160      147E4F6F 
 160      5B4A29CC 
 160      CC440DBF 
 161 0017 B6182226 		.ascii	"\266\030\"&\022\376,S\311\342\017\263\245\021\315\226"
 161      12FE2C53 
 161      C9E20FB3 
 161      A511CD96 
 162 0027 48C290BD 		.ascii	"H\302\220\275cFB\031\302\022\377\275\320(\035~\004\311"
 162      63464219 
 162      C212FFBD 
 162      D0281D7E 
 162      04C9
 163 0039 363AC65C 		.ascii	"6:\306\\\0152\304\217\212\012H\005G\361\203\3611\020"
 163      0D32C48F 
 163      8A0A4805 
 163      47F183F1 
 163      3110
 164 004b B5162A82 		.ascii	"\265\026*\202X1\352\234P\277?\267\356\334\363\276\265"
 164      5831EA9C 
 164      50BF3FB7 
 164      EEDCF3BE 
 164      B5
 165 005c 6F0D386F 		.ascii	"o\0158or\332{o\237\363\234\347\236{\356)\023\004\241"
 165      72DA7B6F 
 165      9FF39CE7 
 165      9E7BEE29 
 165      1304A1
ARM GAS  C:\Users\Thomas\AppData\Local\Temp\ccky316g.s 			page 12


 166 006f 19042184 		.ascii	"\031\004!\204\343|\214 $\341\\\207{\026!2\364h\007\321"
 166      E37C8C20 
 166      24E15C87 
 166      7B162132 
 166      F46807D1 
 167 0083 5C684D68 		.ascii	"\\hMhG\271\017Z+\032\302\205\013B\364\340\330\030\205"
 167      47B90F5A 
 167      2B1AC285 
 167      0B42F4E0 
 167      D81885
 168 0096 C38C3682 		.ascii	"\303\2146\2026\214\346G;\207\326\215\246A\353E\033P"
 168      368CE647 
 168      3B87D68D 
 168      A641EB45 
 168      1B50
 169 00a8 380ECEC2 		.ascii	"8\016\316\302\345z\215K\315q\031\3157\003\227k\026."
 169      E57A8D4B 
 169      CD7119CD 
 169      3703976B 
 169      162E
 170 00ba AE3D41E1 		.ascii	"\256=A\341\232\2076\246pN\242\005T\334'\321n\2405\252"
 170      9A8736A6 
 170      704EA205 
 170      54DC27D1 
 170      6EA035AA 
 171 00ce B4F3780C 		.ascii	"\264\363x\014\255O\025\213)\234\315o\320\317s\025\247"
 171      AD4F158B 
 171      299CCD6F 
 171      D0CF7315 
 171      A7
 172 00df 8A39DB19 		.ascii	"\2129\333\031\3241\231*F\237\262>\252\234k\266\234\337"
 172      D431992A 
 172      469FB23E 
 172      AA9C6BB6 
 172      9CDF
 173 00f1 D380DBF5 		.ascii	"\323\200\333\365p \356\226\006\022\214f\276<Q\325\343"
 173      7020EE96 
 173      06128C66 
 173      BE3C51D5 
 173      E3
 174 0102 D0E3D264 		.ascii	"\320\343\322d\324\362e\373\213\200W;\377\007\011G\245"
 174      D4F265FB 
 174      8B80573B 
 174      FF070947 
 174      A5
 175 0113 4D9AA305 		.ascii	"M\232\243\005\313<h\200D\330\007\211\310\330\010\363"
 175      CB3C6880 
 175      44D80789 
 175      C8D808F3 
 176 0123 F1739D56 		.ascii	"\361s\235Vf\232j\254\374\234i\200O\353\034\327\274\306"
 176      669A6AAC 
 176      FC9C6980 
 176      4FEB1CD7 
 176      BCC6
 177 0135 45FBD1CB 		.ascii	"E\373\321\313.y\2064\221h\275\377\\)\327\233wK\023M"
 177      2E798634 
 177      9168BDFF 
ARM GAS  C:\Users\Thomas\AppData\Local\Temp\ccky316g.s 			page 13


 177      5C29D79B 
 177      774B134D 
 178 0149 41B7D76F 		.ascii	"A\267\327o\222z$O(\324)\001q\301~`p\000\026q,\237\223"
 178      927A244F 
 178      28D42901 
 178      71C17E60 
 178      70001671 
 179 0160 131C0433 		.ascii	"\023\034\0043:\216M?\337\311\330\207\304.\325\236\177"
 179      3A8E4D3F 
 179      DFC9D887 
 179      C42ED59E 
 179      7F
 180 0171 144F24CE 		.ascii	"\024O$\316\332:}\230\202\030\016\251\030\016\205\031"
 180      DA3A7D98 
 180      82180EA9 
 180      180E8519 
 181 0181 5CC450D9 		.ascii	"\\\304P\331\275-\300\230\205\030N6\017\037\3402\234"
 181      BD2DC098 
 181      85184E36 
 181      0F1FE032 
 181      9C
 182 0192 4D4EBFC2 		.ascii	"MN\277\302\360\021\371\037V\371\037\016\3737\221\377"
 182      F011F91F 
 182      56F91F0E 
 182      FB3791FF 
 183 01a2 D096F1FB 		.ascii	"\320\226\361\373:\266\216\374}S\365>\255\354o\257W\373"
 183      3AB68EFC 
 183      7D53F53E 
 183      ADEC6FAF 
 183      57FB
 184 01b4 1F51F91F 		.ascii	"\037Q\371\037\011\373\037%\377'\266\326!-\313#\177o"
 184      09FB1F25 
 184      FF27B6D6 
 184      212DCB23 
 184      7F6F
 185 01c6 4DE94DE0 		.ascii	"M\351M\340'\220\202\267\257\007\322\177\222\366\224"
 185      279082B7 
 185      AF07D27F 
 185      92F694
 186 01d5 49FF8642 		.ascii	"I\377\206BJ\032\216\251H\216\205I\232\211$\350\364N"
 186      4A1A8EA9 
 186      488E8549 
 186      9A8924E8 
 186      F44E
 187 01e7 6B581510 		.ascii	"kX\025\020\313D\350\327KZbq\356\250\333jV\311hQ1\264"
 187      CB44E8D7 
 187      4B5A6271 
 187      EEA8DB6A 
 187      56C96851 
 188 01fd 84195A89 		.ascii	"\204\031Z\211\341\352\223\253\247b\350\276\027s\216"
 188      E1EA93AB 
 188      A762E8BE 
 188      17738E
 189 020c AA2D6D6D 		.ascii	"\252-mm\011t\337z\276<\346\233\276\033\317v\313\374"
 189      0974DF7A 
 189      BE3CE69B 
 189      BE1BCF76 
ARM GAS  C:\Users\Thomas\AppData\Local\Temp\ccky316g.s 			page 14


 189      CBFC
 190 021e BECEF272 		.ascii	"\276\316\362r\003;\"/J\177k\337\316\375\346\031\351"
 190      033B222F 
 190      4A7F6BDF 
 190      CEFDE619 
 190      E9
 191 022f 2277F6D7 		.ascii	"\"w\366\327t1Z\206\370\317\032\277\377\373g\014\214"
 191      74315A86 
 191      F8CF1ABF 
 191      FFFB670C 
 191      8C
 192 0240 C976492A 		.ascii	"\311vI*\223\202U\022[ \300\242Dx?Q\200\337!\031a\244"
 192      93825512 
 192      5B20C0A2 
 192      44783F51 
 192      80DF2119 
 193 0256 07DAB176 		.ascii	"\007\332\261v:\260v\366bi\004\247\317\356_e\223\226"
 193      3AB076F6 
 193      626904A7 
 193      CFEE5F65 
 193      9396
 194 0268 C14930C2 		.ascii	"\301I0\302\211W\212)\202R.\235\256\213\016\003\033\225"
 194      89578A29 
 194      82522E9D 
 194      AE8B0E03 
 194      1B95
 195 027a 15F4079E 		.ascii	"\025\364\007\236>0\221\3629|Y3|\343!#\345\032\276\374"
 195      3E3091F2 
 195      397C5933 
 195      7CE32123 
 195      E51ABEFC 
 196 028e E5FE5447 		.ascii	"\345\376TG,\273\031-\326,\213\255\276\363\264\331@\313"
 196      2CBB192D 
 196      D62C8BAD 
 196      BEF3B4D9 
 196      40CB
 197 02a0 508871B5 		.ascii	"P\210q\265/\256\273\032\364\220l\3442\234\007\342\001"
 197      2FAEBB1A 
 197      F4906CE4 
 197      329C07E2 
 197      01
 198 02b1 BA51C2A9 		.ascii	"\272Q\302\251\210\004\263\"\201N#\331$\335\276\004\001"
 198      8804B322 
 198      814E23D9 
 198      24DDBE04 
 198      01
 199 02c2 3CA8BD0B 		.ascii	"<\250\275\013\265\303Y<\220Y9\320i\334<\203\233\030"
 199      B5C3593C 
 199      905939D0 
 199      69DC3C83 
 199      9B18
 200 02d4 A5A3AFE7 		.ascii	"\245\243\257\347^\014\233\222\025\274l\263\3314\354"
 200      5E0C9B92 
 200      15BC6CB3 
 200      D934EC
 201 02e3 392D7467 		.ascii	"9-tg\316\265\354\320BR\322\334\344$'2\006o\333~NpH\316"
 201      CEB5ECD0 
ARM GAS  C:\Users\Thomas\AppData\Local\Temp\ccky316g.s 			page 15


 201      4252D2DC 
 201      E4242732 
 201      066FDB7E 
 202 02fb 2E39EE1F 		.ascii	".9\356\037\030\267\037\346F\370\337\343o\313\303_\230"
 202      18B71FE6 
 202      46F8DFE3 
 202      6FCBC35F 
 202      98
 203 030c C0E1137F 		.ascii	"\300\341\023\177\265fyJ\031\245\251S\301*\251%\344\007"
 203      B566794A 
 203      19A5A953 
 203      C12AA925 
 203      E407
 204 031e 1CB88B9E 		.ascii	"\034\270\213\236\250$-+\022\3408\022\265\321\003\345"
 204      A8242D2B 
 204      12E03812 
 204      B5D103E5 
 205 032e 5094097F 		.ascii	"P\224\011\177\242\342>H\202^\264\001H\242\263\361\263"
 205      A2E23E48 
 205      825EB401 
 205      48A2B3F1 
 205      B3
 206 033f 4FDC5A62 		.ascii	"O\334Zb\340 !\\-\362\240\250w\333\276\360\2241R\330"
 206      E020215C 
 206      2DF2A0A8 
 206      77DBBEF0 
 206      943152D8 
 207 0353 33A3C206 		.ascii	"3\243\302\006R\210\331\254\032r0H\236K\204/\364\000"
 207      5288D9AC 
 207      1A723048 
 207      9E4B842F 
 207      F400
 208 0365 E710EA8E 		.ascii	"\347\020\352\216$\223\363\323\230I#\014\242\2647\311"
 208      2493F3D3 
 208      9849230C 
 208      A2B437C9 
 209 0375 C45CF605 		.ascii	"\304\\\366\005\335\366x\266Un-\247;\216\037\326\247"
 209      DDF678B6 
 209      556E2DA7 
 209      3B8E1FD6 
 209      A7
 210 0386 354B76E7 		.ascii	"5Kv\347\002\012\304\361\274\252\270\017\277\214\001"
 210      020AC4F1 
 210      BCAAB80F 
 210      BF8C01
 211 0395 F99B43ED 		.ascii	"\371\233C\355\367FF\215\013\367\340\025\007\335#\177"
 211      F746468D 
 211      0BF7E015 
 211      07DD237F 
 212 03a5 43A9E4C4 		.ascii	"C\251\344\304\313\344O\204\034\207d\205\252l\015\361"
 212      CBE44F84 
 212      1C876485 
 212      AA6C0DF1 
 213 03b5 9702E721 		.ascii	"\227\002\347!M\200\013\260\220\367\306\301\321q\306"
 213      4D800BB0 
 213      90F7C6C1 
 213      D171C6
ARM GAS  C:\Users\Thomas\AppData\Local\Temp\ccky316g.s 			page 16


 214 03c4 AAE4C041 		.ascii	"\252\344\300A\373\216;Z\243\235\227\303[V\204\246\372"
 214      FB8E3B5A 
 214      A39D97C3 
 214      5B5684A6 
 214      FA
 215 03d5 D0580D28 		.ascii	"\320X\015(e\026\234\256\3574\365J\222\001|\230\321\213"
 215      65169CAE 
 215      EF34F54A 
 215      92017C98 
 215      D18B
 216 03e7 91F47821 		.ascii	"\221\364x!Rl3P_\232\271\330\266\337zT\027\027Vc\177"
 216      526C3350 
 216      5F9AB9D8 
 216      B6DF7A54 
 216      17175663 
 217 03fc 2B97C653 		.ascii	"+\227\306S\356\3328S\005/i\354\345\261=\0110\214J\""
 217      EEDA3853 
 217      052F69EC 
 217      E5B13D09 
 217      308C4A22 
 218 0410 DD7C044C 		.ascii	"\335|\004L\324'\360\033\321\017\036\0174h\243\320<i"
 218      D427F01B 
 218      D10F1E0F 
 218      3468A3D0 
 218      3C69
 219 0422 11B45F41 		.ascii	"\021\264_A\373\011]\277\253\233E\201}Q\324\227\025\360"
 219      FB095DBF 
 219      AB9B4581 
 219      7D51D497 
 219      15F0
 220 0434 650257FF 		.ascii	"e\002W\377\330_\033\303\034\224V\355\344\263\361'1\220"
 220      D85F1BC3 
 220      1C9456ED 
 220      E4B3F127 
 220      3190
 221 0446 189B9CE8 		.ascii	"\030\233\234\350\300\334\214A\254PN-\244\254r\3167\257"
 221      C0DC8C41 
 221      AC504E2D 
 221      A4AC72CE 
 221      37AF
 222 0458 5AC8389E 		.ascii	"Z\3108\236\210\377$\300\025\344\274\2524\020;\366\016"
 222      88FF24C0 
 222      15E4BCAA 
 222      34103BF6 
 222      0E
 223 0469 DC8551A5 		.ascii	"\334\205Q\245\303\311\303\201\3732\021\377\340\177\027"
 223      C3C9C381 
 223      FB3211FF 
 223      E07F17
 224 0478 D5DBF61A 		.ascii	"\325\333\366\032\330n\371\026[\036W\270\343\345\274"
 224      D86EF916 
 224      5B1E57B8 
 224      E3E5BC
 225 0487 FD7F97C2 		.ascii	"\375\177\227\302+\364\016V\370b\345\276\366\272\307"
 225      2BF40E56 
 225      F862E5BE 
 225      F6BAC7
ARM GAS  C:\Users\Thomas\AppData\Local\Temp\ccky316g.s 			page 17


 226 0496 F559FA9A 		.ascii	"\365Y\372\232\363e\252\001\002x\376\211\310%_\203HS"
 226      F365AA01 
 226      0278FE89 
 226      C8255F83 
 226      4853
 227 04a8 FB2E5033 		.ascii	"\373.P3`\212JV *Y\223J\262&)Y\343\016OE\364=\360\006"
 227      608A4A56 
 227      202A5993 
 227      4AB22629 
 227      59E30E4F 
 228 04c1 1F41DF00 		.ascii	"\037A\337\000S8\010N\205w,K\262\227fg\346|+fX\013\276"
 228      5338084E 
 228      85772C4B 
 228      B2976667 
 228      E67C2B66 
 229 04d8 DA90A75F 		.ascii	"\332\220\247_\371\351Zs\206\2600%k\245X \026\345\024"
 229      F9E95A73 
 229      86B03025 
 229      6BA55820 
 229      16E514
 230 04eb 8B5F6667 		.ascii	"\213_fgZK\212r\305,K\2465ci\026\341-\237\244\344\012"
 230      5A4B8A72 
 230      C52C4BA6 
 230      35636916 
 230      E12D9FA4 
 231 0501 EFD274B5 		.ascii	"\357\322t\265\270\251\330Z\244x\033e\266|Q,\214\243"
 231      B8A9D85A 
 231      A4781B65 
 231      B67C512C 
 231      8CA3
 232 0513 E967391B 		.ascii	"\351g9\033\305\222\302Xy\273\330Zh~#o\312\327\202\354"
 232      C592C258 
 232      79BBD85A 
 232      687E236F 
 232      CAD782EC 
 233 0527 F67141CE 		.ascii	"\366qA\316\372|Q\016\260by\306\252\265\226\354\3145"
 233      FA7C510E 
 233      B06279C6 
 233      AAB596EC 
 233      CC35
 234 0539 ABD766AC 		.ascii	"\253\327f\254\321\225l((N\237]]\356\346\342\315\205"
 234      D1956C28 
 234      284E9F5D 
 234      5DEEE6E2 
 234      CD85
 235 054b E2264E24 		.ascii	"\342&N$\022Gf1\202\364\334+5-n\023\0363\263h\371\342"
 235      12476631 
 235      82F4DC2B 
 235      352D6E13 
 235      1E33B368 
 236 0561 D5625E78 		.ascii	"\325b^x\236\312\347\024g}N\356\306\222B]\221\230\227"
 236      9ECAE714 
 236      677D4EEE 
 236      C692425D 
 236      919897
 237 0574 9AA6CB5E 		.ascii	"\232\246\313^a\265\346kq\236\376\037\036\260\346\203"
 237      61B5E66B 
ARM GAS  C:\Users\Thomas\AppData\Local\Temp\ccky316g.s 			page 18


 237      719EFE1F 
 237      1EB0E683 
 238              		.text
 239              		.section	.gnu.lto_.symtab.b949ab6f,"",%progbits
 240 0000 50325F35 		.ascii	"P2_5_SaveConfig\000\000\000\000\000\000\000\000\000"
 240      5F536176 
 240      65436F6E 
 240      66696700 
 240      00000000 
 241 0018 000000AC 		.ascii	"\000\000\000\254\000\000\000P2_5_RestoreConfig\000\000"
 241      00000050 
 241      325F355F 
 241      52657374 
 241      6F726543 
 242 0033 00000000 		.ascii	"\000\000\000\000\000\000\000\000\000\000\256\000\000"
 242      00000000 
 242      0000AE00 
 242      00
 243 0040 0050325F 		.ascii	"\000P2_5_Sleep\000\000\000\000\000\000\000\000\000\000"
 243      355F536C 
 243      65657000 
 243      00000000 
 243      00000000 
 244 0055 0000B000 		.ascii	"\000\000\260\000\000\000P2_5_Wakeup\000\000\000\000"
 244      00005032 
 244      5F355F57 
 244      616B6575 
 244      70000000 
 245 006a 00000000 		.ascii	"\000\000\000\000\000\000\000\000\262\000\000\000P2_"
 245      00000000 
 245      B2000000 
 245      50325F
 246 0079 355F5374 		.ascii	"5_Stop\000\000\002\000\000\000\000\000\000\000\000\000"
 246      6F700000 
 246      02000000 
 246      00000000 
 246      0000
 247 008b B4000000 		.ascii	"\264\000\000\000P2_5_Enable\000\000\002\000\000\000"
 247      50325F35 
 247      5F456E61 
 247      626C6500 
 247      00020000 
 248 00a0 00000000 		.ascii	"\000\000\000\000\000\000\266\000\000\000"
 248      0000B600 
 248      0000
 249              		.text
 250              		.section	.gnu.lto_.opts,"",%progbits
 251 0000 272D666E 		.ascii	"'-fno-trapv' '-mcpu=cortex-m3' '-mthumb' '-g' '-O3'"
 251      6F2D7472 
 251      61707627 
 251      20272D6D 
 251      6370753D 
 252 0033 20272D66 		.ascii	" '-ffunction-sections' '-finline-functions' '-flto'"
 252      66756E63 
 252      74696F6E 
 252      2D736563 
 252      74696F6E 
ARM GAS  C:\Users\Thomas\AppData\Local\Temp\ccky316g.s 			page 19


 253 0066 20272D66 		.ascii	" '-ffat-lto-objects'\000"
 253      6661742D 
 253      6C746F2D 
 253      6F626A65 
 253      63747327 
 254              		.text
 255              		.cfi_sections	.debug_frame
 256              		.section	.text.P2_5_SaveConfig,"ax",%progbits
 257              		.align	2
 258              		.global	P2_5_SaveConfig
 259              		.thumb
 260              		.thumb_func
 261              		.type	P2_5_SaveConfig, %function
 262              	P2_5_SaveConfig:
 263              	.LFB0:
 264              		.file 1 ".\\Generated_Source\\PSoC5\\P2_5_PM.c"
   1:.\Generated_Source\PSoC5/P2_5_PM.c **** /*******************************************************************************
   2:.\Generated_Source\PSoC5/P2_5_PM.c **** * File Name: P2_5_PM.c
   3:.\Generated_Source\PSoC5/P2_5_PM.c **** * Version 2.30
   4:.\Generated_Source\PSoC5/P2_5_PM.c **** *
   5:.\Generated_Source\PSoC5/P2_5_PM.c **** * Description:
   6:.\Generated_Source\PSoC5/P2_5_PM.c **** *  This file provides the API source code for sleep mode support for Shift
   7:.\Generated_Source\PSoC5/P2_5_PM.c **** *  Register component.
   8:.\Generated_Source\PSoC5/P2_5_PM.c **** *
   9:.\Generated_Source\PSoC5/P2_5_PM.c **** * Note:
  10:.\Generated_Source\PSoC5/P2_5_PM.c **** *
  11:.\Generated_Source\PSoC5/P2_5_PM.c **** ********************************************************************************
  12:.\Generated_Source\PSoC5/P2_5_PM.c **** * Copyright 2008-2013, Cypress Semiconductor Corporation.  All rights reserved.
  13:.\Generated_Source\PSoC5/P2_5_PM.c **** * You may use this file only in accordance with the license, terms, conditions,
  14:.\Generated_Source\PSoC5/P2_5_PM.c **** * disclaimers, and limitations in the end user license agreement accompanying
  15:.\Generated_Source\PSoC5/P2_5_PM.c **** * the software package with which this file was provided.
  16:.\Generated_Source\PSoC5/P2_5_PM.c **** *******************************************************************************/
  17:.\Generated_Source\PSoC5/P2_5_PM.c **** 
  18:.\Generated_Source\PSoC5/P2_5_PM.c **** #include "P2_5.h"
  19:.\Generated_Source\PSoC5/P2_5_PM.c **** 
  20:.\Generated_Source\PSoC5/P2_5_PM.c **** static P2_5_BACKUP_STRUCT P2_5_backup =
  21:.\Generated_Source\PSoC5/P2_5_PM.c **** {
  22:.\Generated_Source\PSoC5/P2_5_PM.c ****     P2_5_DISABLED,
  23:.\Generated_Source\PSoC5/P2_5_PM.c **** 
  24:.\Generated_Source\PSoC5/P2_5_PM.c ****     ((uint16) P2_5_DEFAULT_A0),
  25:.\Generated_Source\PSoC5/P2_5_PM.c ****     ((uint16) P2_5_DEFAULT_A1),
  26:.\Generated_Source\PSoC5/P2_5_PM.c **** 
  27:.\Generated_Source\PSoC5/P2_5_PM.c ****     #if(CY_UDB_V0)
  28:.\Generated_Source\PSoC5/P2_5_PM.c ****         ((uint16) P2_5_INT_SRC),
  29:.\Generated_Source\PSoC5/P2_5_PM.c ****     #endif /* (CY_UDB_V0) */
  30:.\Generated_Source\PSoC5/P2_5_PM.c **** };
  31:.\Generated_Source\PSoC5/P2_5_PM.c **** 
  32:.\Generated_Source\PSoC5/P2_5_PM.c **** 
  33:.\Generated_Source\PSoC5/P2_5_PM.c **** /*******************************************************************************
  34:.\Generated_Source\PSoC5/P2_5_PM.c **** * Function Name: P2_5_SaveConfig
  35:.\Generated_Source\PSoC5/P2_5_PM.c **** ********************************************************************************
  36:.\Generated_Source\PSoC5/P2_5_PM.c **** *
  37:.\Generated_Source\PSoC5/P2_5_PM.c **** * Summary:
  38:.\Generated_Source\PSoC5/P2_5_PM.c **** *  Saves Shift Register configuration.
  39:.\Generated_Source\PSoC5/P2_5_PM.c **** *
  40:.\Generated_Source\PSoC5/P2_5_PM.c **** * Parameters:
  41:.\Generated_Source\PSoC5/P2_5_PM.c **** *  None.
ARM GAS  C:\Users\Thomas\AppData\Local\Temp\ccky316g.s 			page 20


  42:.\Generated_Source\PSoC5/P2_5_PM.c **** *
  43:.\Generated_Source\PSoC5/P2_5_PM.c **** * Return:
  44:.\Generated_Source\PSoC5/P2_5_PM.c **** *  None.
  45:.\Generated_Source\PSoC5/P2_5_PM.c **** *
  46:.\Generated_Source\PSoC5/P2_5_PM.c **** * Reentrant:
  47:.\Generated_Source\PSoC5/P2_5_PM.c **** *  No.
  48:.\Generated_Source\PSoC5/P2_5_PM.c **** *
  49:.\Generated_Source\PSoC5/P2_5_PM.c **** *******************************************************************************/
  50:.\Generated_Source\PSoC5/P2_5_PM.c **** void P2_5_SaveConfig(void) 
  51:.\Generated_Source\PSoC5/P2_5_PM.c **** {
 265              		.loc 1 51 0
 266              		.cfi_startproc
 267              		@ args = 0, pretend = 0, frame = 0
 268              		@ frame_needed = 0, uses_anonymous_args = 0
 269              		@ link register save eliminated.
  52:.\Generated_Source\PSoC5/P2_5_PM.c ****     /* Store working registers A0 and A1 */
  53:.\Generated_Source\PSoC5/P2_5_PM.c ****     P2_5_backup.saveSrA0Reg   = CY_GET_REG16(P2_5_SHIFT_REG_LSB_PTR);
 270              		.loc 1 53 0
 271 0000 034B     		ldr	r3, .L2
  54:.\Generated_Source\PSoC5/P2_5_PM.c ****     P2_5_backup.saveSrA1Reg   = CY_GET_REG16(P2_5_SHIFT_REG_VALUE_LSB_PTR);
 272              		.loc 1 54 0
 273 0002 044A     		ldr	r2, .L2+4
  53:.\Generated_Source\PSoC5/P2_5_PM.c ****     P2_5_backup.saveSrA1Reg   = CY_GET_REG16(P2_5_SHIFT_REG_VALUE_LSB_PTR);
 274              		.loc 1 53 0
 275 0004 1988     		ldrh	r1, [r3]
 276 0006 044B     		ldr	r3, .L2+8
 277              		.loc 1 54 0
 278 0008 1288     		ldrh	r2, [r2]
  53:.\Generated_Source\PSoC5/P2_5_PM.c ****     P2_5_backup.saveSrA1Reg   = CY_GET_REG16(P2_5_SHIFT_REG_VALUE_LSB_PTR);
 279              		.loc 1 53 0
 280 000a 5980     		strh	r1, [r3, #2]	@ movhi
 281              		.loc 1 54 0
 282 000c 9A80     		strh	r2, [r3, #4]	@ movhi
 283 000e 7047     		bx	lr
 284              	.L3:
 285              		.align	2
 286              	.L2:
 287 0010 04640040 		.word	1073767428
 288 0014 14640040 		.word	1073767444
 289 0018 00000000 		.word	.LANCHOR0
 290              		.cfi_endproc
 291              	.LFE0:
 292              		.size	P2_5_SaveConfig, .-P2_5_SaveConfig
 293              		.section	.text.P2_5_RestoreConfig,"ax",%progbits
 294              		.align	2
 295              		.global	P2_5_RestoreConfig
 296              		.thumb
 297              		.thumb_func
 298              		.type	P2_5_RestoreConfig, %function
 299              	P2_5_RestoreConfig:
 300              	.LFB1:
  55:.\Generated_Source\PSoC5/P2_5_PM.c **** 
  56:.\Generated_Source\PSoC5/P2_5_PM.c ****     #if(CY_UDB_V0)
  57:.\Generated_Source\PSoC5/P2_5_PM.c ****         P2_5_backup.saveSrIntMask = P2_5_SR_STATUS_MASK;
  58:.\Generated_Source\PSoC5/P2_5_PM.c ****     #endif /* (CY_UDB_V0) */
  59:.\Generated_Source\PSoC5/P2_5_PM.c **** }
  60:.\Generated_Source\PSoC5/P2_5_PM.c **** 
ARM GAS  C:\Users\Thomas\AppData\Local\Temp\ccky316g.s 			page 21


  61:.\Generated_Source\PSoC5/P2_5_PM.c **** 
  62:.\Generated_Source\PSoC5/P2_5_PM.c **** /*******************************************************************************
  63:.\Generated_Source\PSoC5/P2_5_PM.c **** * Function Name: P2_5_RestoreConfig
  64:.\Generated_Source\PSoC5/P2_5_PM.c **** ********************************************************************************
  65:.\Generated_Source\PSoC5/P2_5_PM.c **** *
  66:.\Generated_Source\PSoC5/P2_5_PM.c **** * Summary:
  67:.\Generated_Source\PSoC5/P2_5_PM.c **** *  Restores Shift Register configuration.
  68:.\Generated_Source\PSoC5/P2_5_PM.c **** *
  69:.\Generated_Source\PSoC5/P2_5_PM.c **** * Parameters:
  70:.\Generated_Source\PSoC5/P2_5_PM.c **** *  None.
  71:.\Generated_Source\PSoC5/P2_5_PM.c **** *
  72:.\Generated_Source\PSoC5/P2_5_PM.c **** * Return:
  73:.\Generated_Source\PSoC5/P2_5_PM.c **** *  None.
  74:.\Generated_Source\PSoC5/P2_5_PM.c **** *
  75:.\Generated_Source\PSoC5/P2_5_PM.c **** *******************************************************************************/
  76:.\Generated_Source\PSoC5/P2_5_PM.c **** void P2_5_RestoreConfig(void) 
  77:.\Generated_Source\PSoC5/P2_5_PM.c **** {
 301              		.loc 1 77 0
 302              		.cfi_startproc
 303              		@ args = 0, pretend = 0, frame = 0
 304              		@ frame_needed = 0, uses_anonymous_args = 0
 305              		@ link register save eliminated.
  78:.\Generated_Source\PSoC5/P2_5_PM.c ****     /* Restore working registers A0 and A1 */
  79:.\Generated_Source\PSoC5/P2_5_PM.c ****     CY_SET_REG16(P2_5_SHIFT_REG_LSB_PTR, P2_5_backup.saveSrA0Reg);
 306              		.loc 1 79 0
 307 0000 034B     		ldr	r3, .L5
 308 0002 0449     		ldr	r1, .L5+4
  80:.\Generated_Source\PSoC5/P2_5_PM.c ****     CY_SET_REG16(P2_5_SHIFT_REG_VALUE_LSB_PTR, P2_5_backup.saveSrA1Reg);
 309              		.loc 1 80 0
 310 0004 9A88     		ldrh	r2, [r3, #4]
  79:.\Generated_Source\PSoC5/P2_5_PM.c ****     CY_SET_REG16(P2_5_SHIFT_REG_VALUE_LSB_PTR, P2_5_backup.saveSrA1Reg);
 311              		.loc 1 79 0
 312 0006 5888     		ldrh	r0, [r3, #2]
 313              		.loc 1 80 0
 314 0008 034B     		ldr	r3, .L5+8
  79:.\Generated_Source\PSoC5/P2_5_PM.c ****     CY_SET_REG16(P2_5_SHIFT_REG_VALUE_LSB_PTR, P2_5_backup.saveSrA1Reg);
 315              		.loc 1 79 0
 316 000a 0880     		strh	r0, [r1]	@ movhi
 317              		.loc 1 80 0
 318 000c 1A80     		strh	r2, [r3]	@ movhi
 319 000e 7047     		bx	lr
 320              	.L6:
 321              		.align	2
 322              	.L5:
 323 0010 00000000 		.word	.LANCHOR0
 324 0014 04640040 		.word	1073767428
 325 0018 14640040 		.word	1073767444
 326              		.cfi_endproc
 327              	.LFE1:
 328              		.size	P2_5_RestoreConfig, .-P2_5_RestoreConfig
 329              		.section	.text.P2_5_Sleep,"ax",%progbits
 330              		.align	2
 331              		.global	P2_5_Sleep
 332              		.thumb
 333              		.thumb_func
 334              		.type	P2_5_Sleep, %function
 335              	P2_5_Sleep:
ARM GAS  C:\Users\Thomas\AppData\Local\Temp\ccky316g.s 			page 22


 336              	.LFB2:
  81:.\Generated_Source\PSoC5/P2_5_PM.c **** 
  82:.\Generated_Source\PSoC5/P2_5_PM.c ****     #if(CY_UDB_V0)
  83:.\Generated_Source\PSoC5/P2_5_PM.c ****         P2_5_SR_STATUS_MASK = ((uint8) P2_5_backup.saveSrIntMask);
  84:.\Generated_Source\PSoC5/P2_5_PM.c ****     #endif /* (CY_UDB_V0) */
  85:.\Generated_Source\PSoC5/P2_5_PM.c **** }
  86:.\Generated_Source\PSoC5/P2_5_PM.c **** 
  87:.\Generated_Source\PSoC5/P2_5_PM.c **** 
  88:.\Generated_Source\PSoC5/P2_5_PM.c **** /*******************************************************************************
  89:.\Generated_Source\PSoC5/P2_5_PM.c **** * Function Name: P2_5_Sleep
  90:.\Generated_Source\PSoC5/P2_5_PM.c **** ********************************************************************************
  91:.\Generated_Source\PSoC5/P2_5_PM.c **** *
  92:.\Generated_Source\PSoC5/P2_5_PM.c **** * Summary:
  93:.\Generated_Source\PSoC5/P2_5_PM.c **** *  Prepare the component to enter a Sleep mode.
  94:.\Generated_Source\PSoC5/P2_5_PM.c **** *
  95:.\Generated_Source\PSoC5/P2_5_PM.c **** * Parameters:
  96:.\Generated_Source\PSoC5/P2_5_PM.c **** *  None.
  97:.\Generated_Source\PSoC5/P2_5_PM.c **** *
  98:.\Generated_Source\PSoC5/P2_5_PM.c **** * Return:
  99:.\Generated_Source\PSoC5/P2_5_PM.c **** *  None.
 100:.\Generated_Source\PSoC5/P2_5_PM.c **** *
 101:.\Generated_Source\PSoC5/P2_5_PM.c **** * Reentrant:
 102:.\Generated_Source\PSoC5/P2_5_PM.c **** *  No.
 103:.\Generated_Source\PSoC5/P2_5_PM.c **** *
 104:.\Generated_Source\PSoC5/P2_5_PM.c **** *******************************************************************************/
 105:.\Generated_Source\PSoC5/P2_5_PM.c **** void P2_5_Sleep(void) 
 106:.\Generated_Source\PSoC5/P2_5_PM.c **** {
 337              		.loc 1 106 0
 338              		.cfi_startproc
 339              		@ args = 0, pretend = 0, frame = 0
 340              		@ frame_needed = 0, uses_anonymous_args = 0
 341 0000 10B5     		push	{r4, lr}
 342              		.cfi_def_cfa_offset 8
 343              		.cfi_offset 4, -8
 344              		.cfi_offset 14, -4
 107:.\Generated_Source\PSoC5/P2_5_PM.c ****     P2_5_backup.enableState = ((uint8) P2_5_IS_ENABLED);
 345              		.loc 1 107 0
 346 0002 074B     		ldr	r3, .L9
 347 0004 074C     		ldr	r4, .L9+4
 348 0006 1B78     		ldrb	r3, [r3]	@ zero_extendqisi2
 349 0008 03F00103 		and	r3, r3, #1
 350 000c 2370     		strb	r3, [r4]
 108:.\Generated_Source\PSoC5/P2_5_PM.c **** 
 109:.\Generated_Source\PSoC5/P2_5_PM.c ****     P2_5_Stop();
 351              		.loc 1 109 0
 352 000e FFF7FEFF 		bl	P2_5_Stop
 353              	.LVL0:
 354              	.LBB6:
 355              	.LBB7:
  53:.\Generated_Source\PSoC5/P2_5_PM.c ****     P2_5_backup.saveSrA1Reg   = CY_GET_REG16(P2_5_SHIFT_REG_VALUE_LSB_PTR);
 356              		.loc 1 53 0
 357 0012 054A     		ldr	r2, .L9+8
  54:.\Generated_Source\PSoC5/P2_5_PM.c **** 
 358              		.loc 1 54 0
 359 0014 054B     		ldr	r3, .L9+12
  53:.\Generated_Source\PSoC5/P2_5_PM.c ****     P2_5_backup.saveSrA1Reg   = CY_GET_REG16(P2_5_SHIFT_REG_VALUE_LSB_PTR);
 360              		.loc 1 53 0
ARM GAS  C:\Users\Thomas\AppData\Local\Temp\ccky316g.s 			page 23


 361 0016 1288     		ldrh	r2, [r2]
  54:.\Generated_Source\PSoC5/P2_5_PM.c **** 
 362              		.loc 1 54 0
 363 0018 1B88     		ldrh	r3, [r3]
  53:.\Generated_Source\PSoC5/P2_5_PM.c ****     P2_5_backup.saveSrA1Reg   = CY_GET_REG16(P2_5_SHIFT_REG_VALUE_LSB_PTR);
 364              		.loc 1 53 0
 365 001a 6280     		strh	r2, [r4, #2]	@ movhi
  54:.\Generated_Source\PSoC5/P2_5_PM.c **** 
 366              		.loc 1 54 0
 367 001c A380     		strh	r3, [r4, #4]	@ movhi
 368 001e 10BD     		pop	{r4, pc}
 369              	.L10:
 370              		.align	2
 371              	.L9:
 372 0020 75640040 		.word	1073767541
 373 0024 00000000 		.word	.LANCHOR0
 374 0028 04640040 		.word	1073767428
 375 002c 14640040 		.word	1073767444
 376              	.LBE7:
 377              	.LBE6:
 378              		.cfi_endproc
 379              	.LFE2:
 380              		.size	P2_5_Sleep, .-P2_5_Sleep
 381              		.section	.text.P2_5_Wakeup,"ax",%progbits
 382              		.align	2
 383              		.global	P2_5_Wakeup
 384              		.thumb
 385              		.thumb_func
 386              		.type	P2_5_Wakeup, %function
 387              	P2_5_Wakeup:
 388              	.LFB3:
 110:.\Generated_Source\PSoC5/P2_5_PM.c ****     P2_5_SaveConfig();
 111:.\Generated_Source\PSoC5/P2_5_PM.c **** }
 112:.\Generated_Source\PSoC5/P2_5_PM.c **** 
 113:.\Generated_Source\PSoC5/P2_5_PM.c **** 
 114:.\Generated_Source\PSoC5/P2_5_PM.c **** /*******************************************************************************
 115:.\Generated_Source\PSoC5/P2_5_PM.c **** * Function Name: P2_5_Wakeup
 116:.\Generated_Source\PSoC5/P2_5_PM.c **** ********************************************************************************
 117:.\Generated_Source\PSoC5/P2_5_PM.c **** *
 118:.\Generated_Source\PSoC5/P2_5_PM.c **** * Summary:
 119:.\Generated_Source\PSoC5/P2_5_PM.c **** *  Restores and enables the user configuration.
 120:.\Generated_Source\PSoC5/P2_5_PM.c **** *
 121:.\Generated_Source\PSoC5/P2_5_PM.c **** * Parameters:
 122:.\Generated_Source\PSoC5/P2_5_PM.c **** *  None.
 123:.\Generated_Source\PSoC5/P2_5_PM.c **** *
 124:.\Generated_Source\PSoC5/P2_5_PM.c **** * Return:
 125:.\Generated_Source\PSoC5/P2_5_PM.c **** *  None.
 126:.\Generated_Source\PSoC5/P2_5_PM.c **** *
 127:.\Generated_Source\PSoC5/P2_5_PM.c **** *******************************************************************************/
 128:.\Generated_Source\PSoC5/P2_5_PM.c **** void P2_5_Wakeup(void) 
 129:.\Generated_Source\PSoC5/P2_5_PM.c **** {
 389              		.loc 1 129 0
 390              		.cfi_startproc
 391              		@ args = 0, pretend = 0, frame = 0
 392              		@ frame_needed = 0, uses_anonymous_args = 0
 393              		@ link register save eliminated.
 394 0000 10B4     		push	{r4}
ARM GAS  C:\Users\Thomas\AppData\Local\Temp\ccky316g.s 			page 24


 395              		.cfi_def_cfa_offset 4
 396              		.cfi_offset 4, -4
 397              	.LBB8:
 398              	.LBB9:
  79:.\Generated_Source\PSoC5/P2_5_PM.c ****     CY_SET_REG16(P2_5_SHIFT_REG_VALUE_LSB_PTR, P2_5_backup.saveSrA1Reg);
 399              		.loc 1 79 0
 400 0002 084B     		ldr	r3, .L16
 401 0004 0848     		ldr	r0, .L16+4
 402 0006 5C88     		ldrh	r4, [r3, #2]
  80:.\Generated_Source\PSoC5/P2_5_PM.c **** 
 403              		.loc 1 80 0
 404 0008 9988     		ldrh	r1, [r3, #4]
 405 000a 084A     		ldr	r2, .L16+8
  79:.\Generated_Source\PSoC5/P2_5_PM.c ****     CY_SET_REG16(P2_5_SHIFT_REG_VALUE_LSB_PTR, P2_5_backup.saveSrA1Reg);
 406              		.loc 1 79 0
 407 000c 0480     		strh	r4, [r0]	@ movhi
  80:.\Generated_Source\PSoC5/P2_5_PM.c **** 
 408              		.loc 1 80 0
 409 000e 1180     		strh	r1, [r2]	@ movhi
 410              	.LBE9:
 411              	.LBE8:
 130:.\Generated_Source\PSoC5/P2_5_PM.c ****     P2_5_RestoreConfig();
 131:.\Generated_Source\PSoC5/P2_5_PM.c **** 
 132:.\Generated_Source\PSoC5/P2_5_PM.c ****     if(0u != P2_5_backup.enableState)
 412              		.loc 1 132 0
 413 0010 1B78     		ldrb	r3, [r3]	@ zero_extendqisi2
 414 0012 13B9     		cbnz	r3, .L15
 133:.\Generated_Source\PSoC5/P2_5_PM.c ****     {
 134:.\Generated_Source\PSoC5/P2_5_PM.c ****         P2_5_Enable();
 135:.\Generated_Source\PSoC5/P2_5_PM.c ****     }
 136:.\Generated_Source\PSoC5/P2_5_PM.c **** }
 415              		.loc 1 136 0
 416 0014 5DF8044B 		ldr	r4, [sp], #4
 417              		.cfi_remember_state
 418              		.cfi_restore 4
 419              		.cfi_def_cfa_offset 0
 420 0018 7047     		bx	lr
 421              	.L15:
 422              		.cfi_restore_state
 423 001a 5DF8044B 		ldr	r4, [sp], #4
 424              		.cfi_restore 4
 425              		.cfi_def_cfa_offset 0
 134:.\Generated_Source\PSoC5/P2_5_PM.c ****     }
 426              		.loc 1 134 0
 427 001e FFF7FEBF 		b	P2_5_Enable
 428              	.LVL1:
 429              	.L17:
 430 0022 00BF     		.align	2
 431              	.L16:
 432 0024 00000000 		.word	.LANCHOR0
 433 0028 04640040 		.word	1073767428
 434 002c 14640040 		.word	1073767444
 435              		.cfi_endproc
 436              	.LFE3:
 437              		.size	P2_5_Wakeup, .-P2_5_Wakeup
 438              		.bss
 439              		.align	2
ARM GAS  C:\Users\Thomas\AppData\Local\Temp\ccky316g.s 			page 25


 440              		.set	.LANCHOR0,. + 0
 441              		.type	P2_5_backup, %object
 442              		.size	P2_5_backup, 6
 443              	P2_5_backup:
 444 0000 00000000 		.space	6
 444      0000
 445 0006 0000     		.text
 446              	.Letext0:
 447              		.file 2 ".\\Generated_Source\\PSoC5\\cytypes.h"
 448              		.file 3 ".\\Generated_Source\\PSoC5\\P2_5.h"