ARM GAS  C:\Users\Thomas\AppData\Local\Temp\cck4Ar4a.s 			page 1


   1              		.syntax unified
   2              		.cpu cortex-m3
   3              		.fpu softvfp
   4              		.eabi_attribute 20, 1
   5              		.eabi_attribute 21, 1
   6              		.eabi_attribute 23, 3
   7              		.eabi_attribute 24, 1
   8              		.eabi_attribute 25, 1
   9              		.eabi_attribute 26, 1
  10              		.eabi_attribute 30, 2
  11              		.eabi_attribute 34, 1
  12              		.eabi_attribute 18, 4
  13              		.thumb
  14              		.file	"P2_5.c"
  15              		.text
  16              	.Ltext0:
  17              		.section	.gnu.lto_.profile.b949851e,"",%progbits
  18 0000 789C6366 		.ascii	"x\234cf```e\200\000F\206\265\214!\000\002\347\001\014"
  18      60606065 
  18      80004686 
  18      B58C2100 
  18      02E7010C 
  19              		.text
  20              		.section	.gnu.lto_.jmpfuncs.b949851e,"",%progbits
  21 0000 789C6366 		.ascii	"x\234cf\300\016,\2414\017\0203\002A=\003\023\003\003"
  21      C00E2CA1 
  21      340F1033 
  21      02413D03 
  21      130303
  22 0013 33900DE4 		.ascii	"3\220\015\344\263\0001+\020\263C\270\034@\314\011R\302"
  22      B300312B 
  22      10B343B8 
  22      1C40CC09 
  22      52C2
  23 0025 C5C0C00D 		.ascii	"\305\300\300\015\242Az\030\000;\201\002\031"
  23      A2417A18 
  23      003B8102 
  23      19
  24              		.text
  25              		.section	.gnu.lto_.inline.b949851e,"",%progbits
  26 0000 789C7D50 		.ascii	"x\234}P;\012\302@\024\234\367v\223M\326\200\237\302"
  26      3B0AC240 
  26      149CF776 
  26      934DD680 
  26      9FC2
  27 0012 2216B981 		.ascii	"\"\026\271\201\367\260\311\015\354\3656)E\004\323y\007"
  27      F7B0C90D 
  27      ECF53629 
  27      4504D379 
  27      07
  28 0023 F11076B6 		.ascii	"\361\020v\2666\202\245\202\215\235\263\006\202\212\272"
  28      3682A582 
  28      8D9DB306 
  28      828ABA
  29 0032 2C6F60DE 		.ascii	",o`\336\314\354{k\360\375L\244\301\214\327\011tP\225"
  29      CCEC7B6B 
  29      F0FD4CA4 
ARM GAS  C:\Users\Thomas\AppData\Local\Temp\cck4Ar4a.s 			page 2


  29      C18CD709 
  29      745095
  30 0045 88578506 		.ascii	"\210W\205\006N\340b1\230]U\226\207\323\315\234\365\256"
  30      4EE06231 
  30      985D5596 
  30      87D3CD9C 
  30      F5AE
  31 0057 50C84672 		.ascii	"P\310Fr`\336\000\355\206\322\270\246\305\326E/\370\264"
  31      60DE00ED 
  31      86D2B8A6 
  31      C5D6452F 
  31      F8B4
  32 0069 03CB8A34 		.ascii	"\003\313\2124a`v\2346]\004\245\037\221\212/\343\226"
  32      6160769C 
  32      365D04A5 
  32      1F918A2F 
  32      E396
  33 007b A2165295 		.ascii	"\242\026R\225\001hr\335\217\266x\226\010\375!\371|W"
  33      016872DD 
  33      8FB67896 
  33      08FD21F9 
  33      7C57
  34 008d CB7BC3FD 		.ascii	"\313{\303\375\317K~\344\245\360\251\310s\364v:\335w"
  34      CF4B7EE4 
  34      A5F0A9C8 
  34      73F4763A 
  34      DD77
  35 009f 6D107844 		.ascii	"m\020xD\226\036\256\322z\270\215!EEKe\360k&\250\337"
  35      961EAED2 
  35      7AB88D21 
  35      45454B65 
  35      F06B26A8 
  36 00b4 2EECCBD3 		.ascii	".\354\313\323\341/\037\023\322$\257"
  36      E12F1F13 
  36      D224AF
  37              		.text
  38              		.section	.gnu.lto_.pureconst.b949851e,"",%progbits
  39 0000 789C6366 		.ascii	"x\234cf``\220d\200\000\036\006)F\011&)f)\026)V)v)\016"
  39      60609064 
  39      80001E06 
  39      29460926 
  39      29662916 
  40 001a 294E292E 		.ascii	")N).)n)\036)\000\025\325\001\247"
  40      296E291E 
  40      290015D5 
  40      01A7
  41              		.text
  42              		.section	.gnu.lto_P2_5_GetFIFOStatus.part.0.b949851e,"",%progbits
  43 0000 789C6D92 		.ascii	"x\234m\222\337KTA\024\307\317\231\271\367\356\352fk"
  43      DF4B5441 
  43      14C7CF99 
  43      B9F7EEEA 
  43      666B
  44 0012 3DC91214 		.ascii	"=\311\022\024,\242EH\024\376\005=D\370\"\370jX\350\012"
  44      2CA24548 
  44      14FE053D 
  44      44F822F8 
ARM GAS  C:\Users\Thomas\AppData\Local\Temp\cck4Ar4a.s 			page 3


  44      6A58E80A 
  45 0026 4124983E 		.ascii	"A$\230>\370\344\275\353.Q\024[$\375P\004\243\374\225"
  45      F8E4BDEB 
  45      2E51145B 
  45      24FD5004 
  45      A3FC95
  46 0039 9596A5F9 		.ascii	"\225\226\245\371\003\332,\314\007StEM6\333\007\267\337"
  46      03DA2CCC 
  46      07537445 
  46      4D36DB07 
  46      B7DF
  47 004b 5196691B 		.ascii	"Q\226i\033\346v\316\334-\214\032\2703\207\231\357\347"
  47      E676CEDC 
  47      2D8C1AB8 
  47      338799EF 
  47      E7
  48 005c CC77CEB9 		.ascii	"\314w\316\271\022\376\035\005\364Y\022`\017\255\350"
  48      12FE1D05 
  48      F4591260 
  48      0FADE8
  49 006b 0034CE8D 		.ascii	"\0004\316\215S`\240P\253\220Z\320\003\246S\252Y\267"
  49      5360A050 
  49      AB905AD0 
  49      03A653AA 
  49      59B7
  50 007d 63D4F9CC 		.ascii	"c\324\371\314rj\277\003\035\221\003@\2505\210\320\261"
  50      726ABF03 
  50      1D910340 
  50      A83588D0 
  50      B1
  51 008e 16DF8A25 		.ascii	"\026\337\212%\201c\375\353\021\314i1M\377\347//\242"
  51      8163FDEB 
  51      11CC6931 
  51      4DFFE72F 
  51      2FA2
  52 00a0 AE605642 		.ascii	"\256`VB\000|\025\200\273=\270\323\303@\033\346\000\011"
  52      007C1580 
  52      BB3DB8D3 
  52      C3401BE6 
  52      0009
  53 00b2 3BA2DFC2 		.ascii	";\242\337\302\233\245\0279\276\364\250\345b\272\367"
  53      9BA51739 
  53      BEF4A8E5 
  53      62BAF7
  54 00c1 2A41B144 		.ascii	"*A\261D|\304e^6\003\261dr;\241\330\216r#\315\203\200"
  54      7CC4655E 
  54      3603B164 
  54      723BA1D8 
  54      8E7223CD 
  55 00d7 D0B3E1A8 		.ascii	"\320\263\341\250[\356R\360t\373\250_\263\341O\361Ca"
  55      5BEE52F0 
  55      74FBA85F 
  55      B3E14FF1 
  55      4361
  56 00e9 ABD95C4F 		.ascii	"\253\331\\O&\221\331\033\377e\227\002?g]F\3004\315L"
  56      2691D91B 
  56      FF659702 
ARM GAS  C:\Users\Thomas\AppData\Local\Temp\cck4Ar4a.s 			page 4


  56      3F675D46 
  56      C034CD4C 
  57 00fd EC402F76 		.ascii	"\354@/v\242\227\015\222\263\233T\003\000\301;|\322\265"
  57      A2970D92 
  57      B39B5403 
  57      00C13B7C 
  57      D2B5
  58 010f D53493C9 		.ascii	"\3254\223\311\327\357r\034\010\011\201\202'I\223\320"
  58      D7EF721C 
  58      08098182 
  58      274993D0 
  59 011f 78D28135 		.ascii	"x\322\2015\000\213\204r%\342\302\340U\316\240\177\013"
  59      008B8472 
  59      25E2C2E0 
  59      55CEA07F 
  59      0B
  60 0130 5FF3F4C9 		.ascii	"_\363\364\311\300\220\236\333J\3274\017}\014jl(5\360"
  60      C0909EDB 
  60      4AD7340F 
  60      7D0C6A6C 
  60      2835F0
  61 0143 16E69220 		.ascii	"\026\346\222 r=\266\222\236}M\371\016N\271\314\254?"
  61      723DB692 
  61      9E7D4DF9 
  61      0E4EB9CC 
  61      AC3F
  62 0155 96316599 		.ascii	"\2261e\231\021\274\215\331@93A\331\"\024\370.\241\356"
  62      11BC8DD9 
  62      40393341 
  62      D92214F8 
  62      2EA1EE
  63 0168 9AC7E195 		.ascii	"\232\307\341\225\3233\203\205\354|\225^&\260\347\344"
  63      D3338385 
  63      EC7C955E 
  63      26B0E7E4 
  64 0178 FB823722 		.ascii	"\373\2027\"!d|\32425\366\361rqb\322\251\266\324\353"
  64      21647CD4 
  64      3235F6F1 
  64      727162D2 
  64      A9B6D4EB 
  65 018c E37D7D23 		.ascii	"\343}}#\031M\330h\325[\316\204\320\260\013=\330\215"
  65      194DD868 
  65      D55BCE84 
  65      D0B00B3D 
  65      D88D
  66 019e 541EBC83 		.ascii	"T\036\274\203M\010\363X\367\335\260\323\011;c\367\303"
  66      4D08F358 
  66      F7DDB0D3 
  66      093B63F7 
  66      C3
  67 01af CE5369CC 		.ascii	"\316Si\314\343a\300\273\244\234G\377\202\303\226HR1"
  67      E361C0BB 
  67      A49C47FF 
  67      82C39648 
  67      5231
  68 01c1 B2904234 		.ascii	"\262\220B4\332\"\344C\244q`\023#:\025\251\207\220\347"
  68      DA22E443 
ARM GAS  C:\Users\Thomas\AppData\Local\Temp\cck4Ar4a.s 			page 5


  68      A4716013 
  68      233A15A9 
  68      8790E7
  69 01d4 1830F7A5 		.ascii	"\0300\367\245$t>\265\266\326\216!<k\005\314\330\\\233"
  69      24743EB5 
  69      B6D68E21 
  69      3C6B05CC 
  69      D85C9B
  70 01e7 23419583 		.ascii	"#A\225\203eU\036\274G\373\244\260Z\007\31788\203P\246"
  70      65551EBC 
  70      47FBA4B0 
  70      5A07CF38 
  70      388350A6 
  71 01fb C727AF8C 		.ascii	"\307'\257\214g\330@\363(\353\361>e]\026\310H\257\215"
  71      67D840F3 
  71      28EBF13E 
  71      655D16C8 
  71      48AF8D
  72 020e 34CCC697 		.ascii	"4\314\306\227\245B\004#\347{\347~\244\245\2201\205\364"
  72      A5420423 
  72      E77BE77E 
  72      A4A59031 
  72      85F4
  73 0220 294435FA 		.ascii	")D5\372\001!\252\214\022\202\0369\207V&\233\343|T\351"
  73      0121AA8C 
  73      12821E39 
  73      8756269B 
  73      E37C54E9 
  74 0234 F085D036 		.ascii	"\360\205\3206\365+P{)\321D\354qH=\006\250=\375\\)\342"
  74      F52B507B 
  74      29D144EC 
  74      71483D06 
  74      A83DFD5C 
  75 024a B4BF39A1 		.ascii	"\264\2779\241\270\006\367\006l\262\241\265\316\2550"
  75      B806F706 
  75      6CB2A1B5 
  75      CEAD30
  76 0259 041C4861 		.ascii	"\004\034Ha:\204\250k\314\251\367\332m%\375*\235,\240"
  76      3A84A86B 
  76      CCA9F7DA 
  76      6D25FD2A 
  76      9D2CA0
  77 026c 158E4C08 		.ascii	"\025\216L\010\273J:\300+\3247v\217m\017\242GDWc\310"
  77      BB4A3AC0 
  77      2BD43776 
  77      8F6D0FA2 
  77      47445763 
  78 0281 36647D0D 		.ascii	"6d}\015\247\325\246k\350\017D\316K\222\035y\305\007"
  78      A7D5A66B 
  78      E80F44CE 
  78      4B921D79 
  78      C507
  79 0293 7CC77D95 		.ascii	"|\307}\225G\252|e%E\025\325\225\245\276\342\302\242"
  79      47AA7C65 
  79      254515D5 
  79      95A5BEE2 
  79      C2A2
ARM GAS  C:\Users\Thomas\AppData\Local\Temp\cck4Ar4a.s 			page 6


  80 02a5 8AFDF9C5 		.ascii	"\212\375\371\305\205{K\362\363J\301\250\364\235\250"
  80      857B4BF2 
  80      F34AC1A8 
  80      F49DA8
  81 02b4 3E566594 		.ascii	">Ve\224\037-\2578X\366\013B9Bg"
  81      1F2DAF38 
  81      58F60B42 
  81      394267
  82              		.text
  83              		.section	.gnu.lto_P2_5_GetFIFOStatus.b949851e,"",%progbits
  84 0000 789C6590 		.ascii	"x\234e\220OHTQ\024\306\317w\356\363)3\3034\264\212\331"
  84      4F485451 
  84      14C6CF77 
  84      EEF32933 
  84      C334B48A 
  85 0015 140CA245 		.ascii	"\024\014\242EH\024nZ\011-\242\235\340v@B\237\020D\023"
  85      48146E5A 
  85      092DA29D 
  85      E0764042 
  85      9F104413 
  86 0029 932EC53B 		.ascii	"\223.\305;:\201\020T\266\250\010\022\242\254\254\034"
  86      3A811054 
  86      B6A80812 
  86      A2ACAC1C 
  87 0039 83DA14B3 		.ascii	"\203\332\024\263xF\324[\364g1\224.^5P\023\266\313\264"
  87      7846D45B 
  87      F4673194 
  87      2E5E3550 
  87      13B6CBB4 
  88 004d 06A99CCE 		.ascii	"\006\251\234\316yoQ\320\205\313\271\\\276\337w\276s"
  88      796F51D0 
  88      85CBB95C 
  88      BEDF77BE 
  88      73
  89 005e 0CFD7F0E 		.ascii	"\014\375\177\016\310]\005\321>\251h#\360\371WD\245\016"
  89      C85D05D1 
  89      3EA96823 
  89      F0F95744 
  89      A50E
  90 0070 6613A4C8 		.ascii	"f\023\244\310&\234`\211\310\246\014\034\375\207\003"
  90      269C6089 
  90      C8A60C1C 
  90      FD8703
  91 007f 6825D004 		.ascii	"h%\320\004\033\007\023\370\302k\214\027\217\266j\350"
  91      1B0713F8 
  91      C26B8C17 
  91      8FB66AE8 
  92 008f 9AB376F2 		.ascii	"\232\263v\362\353\267wa\362\364\216M&Zg\302\336,vgU"
  92      EBB77761 
  92      F2F48E4D 
  92      265A67C2 
  92      DE2C7667 
  93 00a4 7E0B5DA2 		.ascii	"~\013]\242;\367\362I\270\315\344@\362\256\335\250\377"
  93      3BF7F249 
  93      B8CDE440 
  93      F2AEDDA8 
  93      FF
ARM GAS  C:\Users\Thomas\AppData\Local\Temp\cck4Ar4a.s 			page 7


  94 00b5 48745E17 		.ascii	"Ht^\027\306\017*\266\017\202\3406\314_J=0\217N\025\317"
  94      C60F2AB6 
  94      0F82E036 
  94      CC5F4A3D 
  94      308F4E15 
  95 00ca 87DFFDB4 		.ascii	"\207\337\375\264\331\023\201\227\226\346.&r\327\004"
  95      D9138197 
  95      96E62E26 
  95      72D704
  96 00d9 AC6F369E 		.ascii	"\254o6\236%\355e[\256\267Z;\225\277\363/\037\037\001"
  96      25ED655B 
  96      AEB75A3B 
  96      95BFF32F 
  96      1F1F01
  97 00ec D6CABF97 		.ascii	"\326\312\277\227\223n\331Z\233\301]\3444\2308\337\203"
  97      936ED95A 
  97      9BC15DE4 
  97      349838DF 
  97      83
  98 00fd 2B53437F 		.ascii	"+SC\177\026\267\373\266\325z\360\353Bp\320\264\203\364"
  98      16B7FBB6 
  98      D57AF0EB 
  98      4270D0B4 
  98      83F4
  99 010f 8BA1ADDD 		.ascii	"\213\241\255\335\350M\364I\010\035\273\301\254\325\274"
  99      E84DF449 
  99      081DBBC1 
  99      ACD5BC
 100 011e C5A4DF3C 		.ascii	"\305\244\337<\223\216<D =ff\036\316\246WYBl\211\301"
 100      938E3C44 
 100      203D6666 
 100      1ECEA657 
 100      59426C89 
 101 0133 02B2F406 		.ascii	"\002\262\364\006\345\225\251\217W\333U\324d\335\322"
 101      E595A98F 
 101      57DB55D4 
 101      64DDD2
 102 0142 95E5C686 		.ascii	"\225\345\306\206Q\015$c\005q\302\006\033\012R\352\230"
 102      510D2463 
 102      0571C206 
 102      1B0A52EA 
 102      98
 103 0153 51A5C89E 		.ascii	"Q\245\310\236?}\\m\353\276)q\353\325\205\260\257C\367"
 103      3F7D5C6D 
 103      EBBE2971 
 103      EBD585B0 
 103      AF43F7
 104 0166 101F2CA2 		.ascii	"\020\037,\242[\254(\304T&\266U\375l\355l\205\307\177"
 104      5BAC28C4 
 104      5426B655 
 104      FD6CED6C 
 104      85C77F
 105 0179 DA692B52 		.ascii	"\332i+R^g\235\352>\306e\177&\362w\242\310+(ehC\254\264"
 105      5E679DEA 
 105      3EC6657F 
 105      26F277A2 
 105      C82B2865 
ARM GAS  C:\Users\Thomas\AppData\Local\Temp\cck4Ar4a.s 			page 8


 106 0191 53345653 		.ascii	"S4VS\224\357Q\362k\25796\023\3603\240\341\271\372\341"
 106      94EF51F2 
 106      6BAF3936 
 106      13F033A0 
 106      E1B9FAE1 
 107 01a5 A4981BC8 		.ascii	"\244\230\033\310\344P\\\270]=\371\303\336\011\257xt"
 107      E4505CB8 
 107      5D3DF9C3 
 107      DE09AF78 
 107      74
 108 01b6 D41B1E1C 		.ascii	"\324\033\036\034(\214\025\207\274|\377@\341Po\276\177"
 108      288C1587 
 108      BC7CFF40 
 108      E1506FBE 
 108      7F
 109 01c7 FF606FCF 		.ascii	"\377`o\317\020\271#\307F\012G\206\335\242wj\354\370"
 109      10B923C7 
 109      460A4786 
 109      DDA2776A 
 109      ECF8
 110 01d9 E81FD53C 		.ascii	"\350\037\325<\266!"
 110      B621
 111              		.text
 112              		.section	.gnu.lto_P2_5_Init.b949851e,"",%progbits
 113 0000 789C8D91 		.ascii	"x\234\215\221\317K\025Q\024\307\317\367\334qx\341Bq"
 113      CF4B1551 
 113      14C7CFF7 
 113      DC7178E1 
 113      4271
 114 0012 25B30ADE 		.ascii	"%\263\012\336B\202p\361\300?@Z\210;\301\355\013\011"
 114      428270F1 
 114      C03F405A 
 114      883BC1ED 
 114      0B09
 115 0024 9B451B8D 		.ascii	"\233E\033\215\341\271v\306\247\"o\245\321\"\254\007"
 115      E1B976C6 
 115      A7226FA5 
 115      D122AC07 
 116 0034 09FDB6B4 		.ascii	"\011\375\266\264\264\250\026\305`\340\217\215a\013\205"
 116      B4A816C5 
 116      60E08F8D 
 116      610B85
 117 0043 16BDC027 		.ascii	"\026\275\300'\250\013\321\214\364A:\235\363\356\333"
 117      A80BD18C 
 117      F4413A9D 
 117      F3EEDB
 118 0052 64200DCC 		.ascii	"d \015\314\271w\346~\317\367|\316=\206\376}<y\333\231"
 118      B977E67E 
 118      CFF77CCE 
 118      3D86FE7D 
 118      3C79DB99 
 119 0066 28232B0C 		.ascii	"(#+\014\201\307W\211\242\024\003\272!\320 c\020;|\300"
 119      81C75789 
 119      A21403BA 
 119      21D02063 
 119      103B7CC0 
 120 007a 188FA7EF 		.ascii	"\030\217\247\357\324\267<\014\303p\377\313\333\346\221"
ARM GAS  C:\Users\Thomas\AppData\Local\Temp\cck4Ar4a.s 			page 9


 120      D4B73C0C 
 120      C370FFCB 
 120      DBE691
 121 0089 E68AA41D 		.ascii	"\346\212\244\035\262\265\301c\264\220h\016\206O6\352"
 121      B2B5C163 
 121      B490680E 
 121      864F36EA 
 122 0099 DD61D134 		.ascii	"\335a\3214\3323<\201\013Yg\233\3420I\346K\023c\031\244"
 122      DA333C81 
 122      0B59679B 
 122      E23049E6 
 122      4B136319 
 123 00ae 0C55188E 		.ascii	"\014U\030\216\206:\015\256\006\242\262\350\265\350\026"
 123      863A0DAE 
 123      06A2B2E8 
 123      B5E816
 124 00bd B3AE661D 		.ascii	"\263\256f\035C\215\352Y\370X\230\271`\322\320\375z\351"
 124      438DEA59 
 124      F85898B9 
 124      60D2D0FD 
 124      7AE9
 125 00cf C1A8494F 		.ascii	"\301\250IO\205\341\320\367\017\237\256\306\321\375\360"
 125      85E1D0F7 
 125      0F9FAEC6 
 125      D1FDF0
 126 00de 34495061 		.ascii	"4IPa\306S\030)\210\313\036.y\265\336\360\014i\311Y\233"
 126      C6531829 
 126      88CB1E2E 
 126      79B5DEF0 
 126      0C69C959 
 127 00f3 7C946FD8 		.ascii	"|\224o\330f\025\021\246\341\321W,\374*\234.\007\177"
 127      661511A6 
 127      E1D1572C 
 127      FC2A9C2E 
 127      077F
 128 0105 F1C6C922 		.ascii	"\361\306\311\"kB\225\370\220q\266\033<\027N\302\013"
 128      6B4295F8 
 128      9071B61B 
 128      3C174EC2 
 128      0B
 129 0116 B8476CE4 		.ascii	"\270Gl\344\354\307\273\305\035W]\315\310J\024:*/\225"
 129      ECC7BBC5 
 129      1D575DCD 
 129      C84A143A 
 129      2A2F95
 130 0129 3FAFA5AA 		.ascii	"?\257\245\252\277H?w\357\275/\271E\334\215nG\251\012"
 130      BF483F77 
 130      EFBD2FB9 
 130      45DC8D6E 
 130      47A90A
 131 013c 3B988187 		.ascii	";\230\201\207Y)Ox\211\"\204\"\177<*\024\326\322\261"
 131      59294F78 
 131      89228422 
 131      7F3C2A14 
 131      D6D2B1
 132 014f AE7B9BBF 		.ascii	"\256{\233\277\363U\013\347X`_Y\330[P\315\271\216s\342"
 132      F3550BE7 
ARM GAS  C:\Users\Thomas\AppData\Local\Temp\cck4Ar4a.s 			page 10


 132      58605F59 
 132      D85B50CD 
 132      B98E73E2 
 133 0163 2826B6B5 		.ascii	"(&\266\265\205N\353Ywn\312|\015\342\247k\325\265\204"
 133      854EEB59 
 133      776ECA7C 
 133      0DE2A76B 
 133      D5B584
 134 0176 A5E2F69C 		.ascii	"\245\342\366\234\243\004\020\200\327\377\015\360\246"
 134      A3041080 
 134      D7FF0DF0 
 134      A6
 135 0183 0AE0D237 		.ascii	"\012\340\3227D\361D\207\336\241N\240,\367(\243\224\301"
 135      44F14487 
 135      DEA14EA0 
 135      2CF728A3 
 135      94C1
 136 0195 5E6CCD76 		.ascii	"^l\315v\370}~p-\347_\357\351\356\037\010z\375lWw\377"
 136      F87D7E70 
 136      2DE75FEF 
 136      E9EE1F08 
 136      7AFD6C57 
 137 01ab 95B66C57 		.ascii	"\225\266lW\246\247\255\265\227\032n\364\345\374 \030"
 137      A6A7ADB5 
 137      971A6EF4 
 137      E5FC2018 
 138 01bb B899B3A7 		.ascii	"\270\231\263\247\177\000\024\233\332\226"
 138      7F00149B 
 138      DA96
 139              		.text
 140              		.section	.gnu.lto_P2_5_EnableInt.b949851e,"",%progbits
 141 0000 789C7D90 		.ascii	"x\234}\220\315K\033a\020\306\347\231M\342b\212H\017"
 141      CD4B1B61 
 141      10C6E799 
 141      4DE2628A 
 141      480F
 142 0012 4572B192 		.ascii	"Er\261\222C(\024A!\177A\017\205\236\204\\\003\"\272"
 142      43281441 
 142      217F410F 
 142      859E845C 
 142      0322BA
 143 0025 875E6259 		.ascii	"\207^bY\342Q|SW(\036j\220J\225\242\320C\361\333(\012"
 143      E2517C53 
 143      57281E6A 
 143      904A95A2 
 143      D043F1DB 
 144 003b 1EC4B278 		.ascii	"\036\304\262x\020\277h\221\202\212H+\305H\275\231\246"
 144      10BF6891 
 144      828A482B 
 144      C548BD99 
 144      A6
 145 004c A85B9174 		.ascii	"\250[\221t\336]O\025|\341\375\032\236\371\3153c\320"
 145      DE5D4F15 
 145      7CE1FD1A 
 145      9EF9CD33 
 145      63D0
 146 005e DD15937D 		.ascii	"\335\025\223}\000\242&\271a\0208\377\205(g2\240\037"
ARM GAS  C:\Users\Thomas\AppData\Local\Temp\cck4Ar4a.s 			page 11


 146      00A226B9 
 146      611038FF 
 146      85286732 
 146      A01F
 147 0070 04EA61F4 		.ascii	"\004\352a\364\340\214K\214\274;=\034M|RJ\235\377\336"
 147      E08C4B8C 
 147      BC3B3D1C 
 147      4D7C524A 
 147      9DFFDE
 148 0083 ADEBABF3 		.ascii	"\255\353\253\363\230\250\314\001\006\343H\220h\366\317"
 148      98A8CC01 
 148      06E34890 
 148      68F6CF
 149 0092 FE1E868D 		.ascii	"\376\036\206\2158\364\273\270\271\364\316\210\177T\352"
 149      38F4BBB8 
 149      B9F4CE88 
 149      7F54EA
 150 00a1 F5F14871 		.ascii	"\365\361Hq=\252\206\225s\\\251\324{\302\236\200!\231"
 150      3DAA8695 
 150      735CA9D4 
 150      7BC29E80 
 150      2199
 151 00b3 781AC393 		.ascii	"x\032\303\223\330\255\021I(97\373\321\210#\005j1\211"
 151      D8AD1149 
 151      283937FB 
 151      D1882305 
 151      6A3189
 152 00c6 7800C714 		.ascii	"x\000\307\024\"\342\017:Rx\350\252Jeqgp#\301\246\230"
 152      22E20F3A 
 152      5278E8AA 
 152      4A657167 
 152      7023C1A6 
 153 00db 9550883C 		.ascii	"\225P\210<\346\260>\210Ndk\327E\371\310m\034\241\327"
 153      E6B03E88 
 153      4E646BD7 
 153      45F9C86D 
 153      1CA1D7
 154 00ee 5DEE7FA4 		.ascii	"]\356\177\244\011\227lH\201\261oo\347\270\373Z\275Q"
 154      09976C48 
 154      81B16F6F 
 154      E7B8FB5A 
 154      BD51
 155 0100 A6C7E240 		.ascii	"\246\307\342@s\247\321-\331!\332\003\373\245\204)b:"
 155      73A7D12D 
 155      D921DA03 
 155      FBA58429 
 155      623A
 156 0112 C4DA45FF 		.ascii	"\304\332E\377\351\244\035$\207tkS\371\206_\354qxh3\247"
 156      E9A41D24 
 156      87746B53 
 156      F9865FEC 
 156      71786833 
 157 0127 42DAEF8F 		.ascii	"B\332\357\217\223\257\273\246\037\362\355\317\014\274"
 157      93AFBBA6 
 157      1FF2EDCF 
 157      0CBC
 158 0135 FF5C3D8A 		.ascii	"\377\\=\212\0179\007\036G0\203\030f!\355a\016\243\020"
ARM GAS  C:\Users\Thomas\AppData\Local\Temp\cck4Ar4a.s 			page 12


 158      0F39071E 
 158      47308318 
 158      6621ED61 
 158      0EA310
 159 0148 60EF9F48 		.ascii	"`\357\237H@\013\007\300\355\237W\345\007:\235k\011\005"
 159      400B07C0 
 159      ED9F57E5 
 159      073A9D6B 
 159      0905
 160 015a 514ACD41 		.ascii	"QJ\315Ah\311}\260y\201\011\202\216\340\270+[\276g\372"
 160      68C97DB0 
 160      79810982 
 160      8EE0B82B 
 160      5BBE67FA 
 161 016e BFB5AAB2 		.ascii	"\277\265\252\262\036\007\026\2445\351\305c\223\276#"
 161      1E0716A4 
 161      35E9C563 
 161      93BE23
 162 017d E7AEBEF0 		.ascii	"\347\256\276\360\305\244\007\005= \321<nL?\2672\226"
 162      C5A40705 
 162      3D20D13C 
 162      6E4C3FB7 
 162      3296
 163 018f DD96B53A 		.ascii	"\335\226\265:ZS\235]v\273\225nIu>K\246[\232[\223\215"
 163      5A539D5D 
 163      76BB956E 
 163      49753E4B 
 163      A65B9A5B 
 164 01a5 ED54F332 		.ascii	"\355T\3632\223\265l\273\353U6\225\025\321?\342I\263"
 164      93B56CBB 
 164      EB553695 
 164      15D13FE2 
 164      49B3
 165 01b7 77       		.ascii	"w"
 166              		.text
 167              		.section	.gnu.lto_P2_5_Enable.b949851e,"",%progbits
 168 0000 789C7D8F 		.ascii	"x\234}\217\275KBQ\030\306\337\347\275z\221\\\242I\234"
 168      BD4B4251 
 168      18C6DFE7 
 168      BD7A915C 
 168      A2499C
 169 0013 A2C5CD21 		.ascii	"\242\305\315!\360/\010jLp\013A\302\356\232 5\212\367"
 169      F02F086A 
 169      4C700B41 
 169      C2EE9A20 
 169      358AF7
 170 0026 A2813484 		.ascii	"\242\2014\204\325R\2045E\037\232Q\015\321vi\310&\243"
 170      D5528435 
 170      451F9A51 
 170      0DD17669 
 170      C826A3
 171 0039 1A028942 		.ascii	"\032\002\211B2\260-\261\017n\021\366\036\357\030t\340"
 171      32B02DB1 
 171      0F6E11F6 
 171      1EEF1874 
 171      E0
 172 004a 9CF77C3C 		.ascii	"\234\367|<\357\3579\217F\177GP\346$\210F\244B#p\261"
ARM GAS  C:\Users\Thomas\AppData\Local\Temp\cck4Ar4a.s 			page 13


 172      EFEF398F 
 172      467F4750 
 172      E6248846 
 172      A4422370 
 173 005f 4E64F918 		.ascii	"Nd\371\030P\033\002e\031Y\274p\207Q\264\313k\376\320"
 173      501B0265 
 173      1959BC70 
 173      8751B4CB 
 173      6BFED0
 174 0072 B6699AAF 		.ascii	"\266i\232\2577G\201\205\200\303D]v1\330A\210D\323\311"
 174      37478185 
 174      80C3445D 
 174      7631D841 
 174      8844D3C9 
 175 0086 FFDCF9F5 		.ascii	"\377\334\371\365\274h\006\3357\354B\027<\035\016\331"
 175      BC6806DD 
 175      37EC4217 
 175      3C1D0ED9 
 176 0096 66AF7752 		.ascii	"f\257wR[.\204\24039,f\262\020\265D\245\254\236\231U"
 176      5B2E84A0 
 176      33392C66 
 176      B210B544 
 176      A5AC9E99 
 177 00ab D51A38FF 		.ascii	"\325\0328\377X\254\257O\251\306OV\276\253M\347\311\333"
 177      58ACAF4F 
 177      A9C64F56 
 177      BEAB4DE7 
 177      C9DB
 178 00bd 6687F9FD 		.ascii	"f\207\371\375\3222=\312\346\261uu\355\353_\221:n}5k"
 178      D2323DCA 
 178      E6B17575 
 178      EDEB5F91 
 178      3A6E7D35 
 179 00d2 03256C58 		.ascii	"\003%lXy8\254a\017A\354C\222\241\214\022\250\201\334"
 179      7938AC61 
 179      0F41EC43 
 179      92A18C12 
 179      A881DC
 180 00e5 9BEEE234 		.ascii	"\233\356\3424\227X+\265\217=\252\035 TD)\246+P\222\377"
 180      97582BB5 
 180      8F3DAA1D 
 180      20544429 
 180      A62B5092 
 181 00fa 60070213 		.ascii	"`\007\002\023\004\335#g\237^\260\222+\363\315\333\245"
 181      04DD2367 
 181      9F5EB092 
 181      2BF3CDDB 
 181      A5
 182 010b 2A67BECD 		.ascii	"*g\276\315\202\351s\330\323U\231PEF\322y\351\001\226"
 182      82E973D8 
 182      D3559950 
 182      4546D279 
 182      E90196
 183 011e 7D36DE57 		.ascii	"}6\336W\222\212\012\025Q\376<\034\216O\030\263Fzz\316"
 183      928A0A15 
 183      51FE3C1C 
 183      8E4F18B3 
ARM GAS  C:\Users\Thomas\AppData\Local\Temp\cck4Ar4a.s 			page 14


 183      467A7ACE 
 184 0132 9849C452 		.ascii	"\230I\304R\363\351\244\021\217\306Rc\221xt4\021\011"
 184      F3E9A411 
 184      8FC65263 
 184      91787434 
 184      1109
 185 0144 27E917C7 		.ascii	"'\351\027\307\325\200\362"
 185      D580F2
 186              		.text
 187              		.section	.gnu.lto_P2_5_Start.b949851e,"",%progbits
 188 0000 789C8D53 		.ascii	"x\234\215S\315KTQ\024?\347\336;\037\316DJ\320f\002\021"
 188      CD4B5451 
 188      143FE7DE 
 188      3B1FCE44 
 188      4AD06602 
 189 0015 5C48100A 		.ascii	"\\H\020\012\206\177A\213h'\270\013C\302f\321Fc\320\245"
 189      867F418B 
 189      6827B80B 
 189      43C266D1 
 189      4663D0A5 
 190 0029 78DFCC24 		.ascii	"x\337\314$!\021b-\372\320((\263\254\321\324R\363\353"
 190      2111622D 
 190      FAD02828 
 190      B3ACD1D4 
 190      52F3EB
 191 003c 69604660 		.ascii	"i`F`H\246&\221\206\006\332\"4\373p(\235\316\271o2GQ"
 191      48A62691 
 191      8606DA22 
 191      34FB7028 
 191      9DCEB96F 
 192 0053 7A30E7BE 		.ascii	"z0\347\276w\357\271\277\363\373\375\316\031\011;\237"
 192      77EFB9BF 
 192      F3FBFDCE 
 192      19093B9F 
 193 0063 A3F4CB52 		.ascii	"\243\364\313R\000\371\264\242\013P\324\215\001X^!\344"
 193      00F9B4A2 
 193      0B50D48D 
 193      01585E21 
 193      E4
 194 0074 441E689F 		.ascii	"D\036h\237\352\313\004\275O\242r\266\025\"\277\000B"
 194      EACB04BD 
 194      4FA272B6 
 194      1522BF00 
 194      42
 195 0085 B5900AAB 		.ascii	"\265\220\012\253qI\254\010\254\263[\256\372s\356j\255"
 195      7149AC08 
 195      ACB35BAE 
 195      FA73EE6A 
 195      AD
 196 0096 97DB5F59 		.ascii	"\227\333_Y\2056\306\005\300\252p\012\340=\314\001JZ"
 196      8536C605 
 196      C0AA700A 
 196      E03DCC01 
 196      4A5A
 197 00a8 89AE4FF9 		.ascii	"\211\256O\371\335QJ\312p\316\260\031\335Hk\353\001["
 197      DD514ACA 
 197      70CEB019 
ARM GAS  C:\Users\Thomas\AppData\Local\Temp\cck4Ar4a.s 			page 15


 197      DD486BEB 
 197      015B
 198 00ba 27121DB1 		.ascii	"'\022\035\261\241iL\227\020\027\2508x8x9\244q\360q\360"
 198      A1694C97 
 198      1017A838 
 198      78387839 
 198      A471F071 
 199 00cf 730058A0 		.ascii	"s\000X\240\333\314\342\223\020\274\312\031\014\327\257"
 199      DBCCE293 
 199      10BCCA19 
 199      0CD7AF
 200 00de C40E31DE 		.ascii	"\304\0161\336O!\251\324\3157\227b\242\352\227\276\240"
 200      4F21A9D4 
 200      CD379762 
 200      A2EA97BE 
 200      A0
 201 00ef BD7121D6 		.ascii	"\275q!\326\271\030\355\316.\274\036\367.\012\3321\237"
 201      B918EDCE 
 201      2EBC1EF7 
 201      2E0ADA31 
 201      9F
 202 0100 CD56B401 		.ascii	"\315V\264\001\033\361\206\2459K\342}\254\302\007\030"
 202      1BF186A5 
 202      394BE27D 
 202      ACC20718 
 203 0110 205E2DB4 		.ascii	" ^-\264\015o1:\035\311\374\207i5\365^\364\360m\"\200"
 203      0D6F313A 
 203      1DC9FC87 
 203      6935F55E 
 203      F4F06D22 
 204 0125 0F390F98 		.ascii	"\0179\017\230\201\204\211<9\211\341\014\206\254\035"
 204      8184893C 
 204      3989E10C 
 204      86AC1D
 205 0134 A88DA5C9 		.ascii	"\250\215\245\311l\344\367\311\331;52\373\266\326\341"
 205      6CE4F7C9 
 205      D93B3532 
 205      FBB6D6E1 
 206 0144 B9FEE7A7 		.ascii	"\271\376\347\247l\353\226\336H$\220\013=BI\372\361H"
 206      6CEB96DE 
 206      4824900B 
 206      3D4249FA 
 206      F148
 207 0156 000F0792 		.ascii	"\000\017\007\222M\300\030f\323\235\361\353M\221t\256"
 207      4DC01866 
 207      D39DF1EB 
 207      4D9174AE 
 208 0166 2111B095 		.ascii	"!\021\260\225j\314\340\360\217\332\215\321P\212}\366"
 208      6ACCE0F0 
 208      8FDA8DD1 
 208      508A7DF6 
 209 0176 60D078B7 		.ascii	"`\320x\267*0\325W;1\"\030\011\260\215O\305v\327\361"
 209      2A30D557 
 209      3B312218 
 209      09B08D4F 
 209      C576D7F1 
 210 018a 31BAA956 		.ascii	"1\272\251V;K\362\320\331\327\356\221%7\227S\347_ZZ\245"
ARM GAS  C:\Users\Thomas\AppData\Local\Temp\cck4Ar4a.s 			page 16


 210      3B4BF2D0 
 210      D9D7EE91 
 210      25379753 
 210      E75F5A5A 
 211 019f 78A48C47 		.ascii	"x\244\214G\237\033zf\335\354\321\025\213<ra\007\006"
 211      9F1B7A66 
 211      DDECD115 
 211      8B3C7261 
 211      0706
 212 01b1 B0D378F4 		.ascii	"\260\323x\364\204=\232\301\310Z\015\321s \275\016\352"
 212      843D9AC1 
 212      C85A0DD1 
 212      7320BD0E 
 212      EA
 213 01c2 97F9DF11 		.ascii	"\227\371\337\021\003\341Z#\025O\035\025\365\3109{\""
 213      03E15A23 
 213      154F1D15 
 213      F5C8397B 
 213      22
 214 01d3 76112281 		.ascii	"v\021\"\2018\232\207O8\230i{^\351N\222\370\346v\262"
 214      389A874F 
 214      3898697B 
 214      5EE94E92 
 214      F8E676B2 
 215 01e7 7DCE8517 		.ascii	"}\316\205\027\215\213\355\312\264\212\010\364\3747\201"
 215      8D8BEDCA 
 215      B48A08F4 
 215      FC3781
 216 01f6 6786808F 		.ascii	"g\206\200\217\262\303\313m\235\271l\361\256\263\264"
 216      B2C3CB6D 
 216      9DB96CF1 
 216      AEB3B4
 217 0205 7D787A37 		.ascii	"}xz7\207\247\217\266M\357x:Tr>I\321\330\265\223\251"
 217      87A78FB6 
 217      4DEF783A 
 217      54723E49 
 217      D1D8B593 
 218 021a CD9A3A98 		.ascii	"\315\232:\230\354\242\334\321\247~\323\247\001\226\244"
 218      ECA2DCD1 
 218      A77ED3A7 
 218      0196A4
 219 0229 E8ECF2C7 		.ascii	"\350\354\362\307\370\274\3134\345\373h\262O\213\221"
 219      F8BCCB34 
 219      E5FB68B2 
 219      4F8B91
 220 0238 D1D8FE2D 		.ascii	"\321\330\376-*\0067U\330\177=\251\241\212\016\206\237"
 220      2A063755 
 220      D87F3DA9 
 220      A18A0E86 
 220      9F
 221 0249 60B6F830 		.ascii	"`\266\3700`t\355\2160d|\360\303{\214\330]4Q\224\017"
 221      6074ED8E 
 221      30647CF0 
 221      C37B8CD8 
 221      5D345194 
 222 025e DB8D20DA 		.ascii	"\333\215 \332\312\320\304a\254\242\177\245\007>\240"
 222      CAD0C461 
ARM GAS  C:\Users\Thomas\AppData\Local\Temp\cck4Ar4a.s 			page 17


 222      ACA27FA5 
 222      073EA0
 223 026d 65BF73B1 		.ascii	"e\277s\261\"\036\350\005\232M\222Nne\345\026\037\017"
 223      221EE805 
 223      9A4D924E 
 223      6E65E516 
 223      1F0F
 224 027f 960543A7 		.ascii	"\226\005C\247+\202gJ\212\312+C\245\301\342\302\242\362"
 224      2B82674A 
 224      8ACA2B43 
 224      A5C1E2C2 
 224      A2F2
 225 0291 6305C585 		.ascii	"c\005\305\205\371%\005\271\245\220~\266\254\"\030\012"
 225      F92505B9 
 225      A5907EB6 
 225      AC22180A 
 226 02a1 559EAB70 		.ascii	"U\236\253pN\377\000_\363\206\003"
 226      4EFF005F 
 226      F38603
 227              		.text
 228              		.section	.gnu.lto_P2_5_DisableInt.b949851e,"",%progbits
 229 0000 789C7D90 		.ascii	"x\234}\220\317K\033Q\020\307\347;\233\254\213\001\221"
 229      CF4B1B51 
 229      10C7E73B 
 229      9BAC8B01 
 229      91
 230 0011 1E447269 		.ascii	"\036Dri%\007\021D\250\305\277\300\203\207^\204\\\003"
 230      25071144 
 230      A8C5BFC0 
 230      83875E84 
 230      5C03
 231 0023 52EC1EBC 		.ascii	"R\354\036\274\250,\361(\276\350\012\245\2056\210b@\""
 231      A82CF128 
 231      BEE80AA5 
 231      85368862 
 231      4022
 232 0035 7890564D 		.ascii	"x\220VM\265\245\236e\361 \006A\021\301\240\004\365\220"
 232      B5A59E65 
 232      F1200641 
 232      11C1A004 
 232      F590
 233 0047 88F6D2AA 		.ascii	"\210\366\322\252P\335\226\022\347\355\366\244\320\007"
 233      50DD9612 
 233      E7EDF6A4 
 233      D007
 234 0055 EFD7F09D 		.ascii	"\357\327\360\235\317|g\014z\274\342\262\217@\364\\n"
 234      CF7C670C 
 234      7ABCE2B2 
 234      8F40F45C 
 234      6E
 235 0066 1804CEEE 		.ascii	"\030\004\316\356\022e,\006\364\203@c\2141\\\362\025"
 235      12652C06 
 235      F4834063 
 235      8C315CF2 
 235      15
 236 0077 23EBADE4 		.ascii	"#\353\255\344b\255\213J\251\237\327\245\346\311f\237"
 236      62AD8B4A 
ARM GAS  C:\Users\Thomas\AppData\Local\Temp\cck4Ar4a.s 			page 18


 236      A99FD7A5 
 236      E6C9669F 
 237 0087 896E38C4 		.ascii	"\211n8\304\340#ZI4\245\313\337\307Q#\001\375\256\026"
 237      E0235A49 
 237      34A5CBDF 
 237      C7512301 
 237      FDAE16
 238 009a D7A78DC4 		.ascii	"\327\247\215\304\202R\343g\305\352VL\345\224{V\253="
 238      8252E367 
 238      C5EA564C 
 238      E5947B56 
 238      AB3D
 239 00ac F585FD09 		.ascii	"\365\205\375\011\206d\242=\216\266\370?#\222p\345\376"
 239      8664A23D 
 239      8EB6F83F 
 239      239270E5 
 239      FE
 240 00bd 2DC54C57 		.ascii	"-\305LW\0124b\011\211\020\216e\230\342\017:\262\366"
 240      0A346209 
 240      89108E65 
 240      98E20F3A 
 240      B2F6
 241 00cf C453B5DA 		.ascii	"\304S\265\332\267\312\324\366\013\266\304\254\204\""
 241      B7CAD4F6 
 241      0BB6C4AC 
 241      8422
 242 00dd E43347F5 		.ascii	"\3443G\365AT\221\255]W\345#\267Q\306\2047\373\256I\023"
 242      415491AD 
 242      5D57E523 
 242      B751C684 
 242      37FBAE49 
 243 00f2 6ED99002 		.ascii	"n\331\220\002\363\007\357Wy\364\217z\243,\237\305\201"
 243      F307EF57 
 243      79F48F7A 
 243      A32C9FC5 
 243      81
 244 0103 E6AE6054 		.ascii	"\346\256`T\262#t\010\016J\011S\304t\214\315_o\317\013"
 244      B2237408 
 244      0E4A0953 
 244      C4748CCD 
 244      5F6FCF0B 
 245 0117 4E981CD1 		.ascii	"N\230\034\321\255-g[.\330\347\350L1\243\"\332\357ie"
 245      AD2D675B 
 245      2ED8E7E8 
 245      4C31A322 
 245      DAEF6965 
 246 012b 6FDF0A42 		.ascii	"o\337\012B\201\375\302\207\331\215\372<\3462.|6Q@\034"
 246      81FDC287 
 246      D98DFA3C 
 246      E6322E7C 
 246      3651401C 
 247 013f 9F21ED61 		.ascii	"\237!\355a\025y\010p\342\316\014i\321\020\270\264\233"
 247      15790870 
 247      E2CE0C69 
 247      D110B8B4 
 247      9B
 248 0150 FBDEA0D3 		.ascii	"\373\336\240\323\315\037 \254\211T\212NAk\376G\373\""
ARM GAS  C:\Users\Thomas\AppData\Local\Temp\cck4Ar4a.s 			page 19


 248      CD1F20AC 
 248      89548A4E 
 248      416BFE47 
 248      FB22
 249 0162 34615019 		.ascii	"4aP\031\2567\267\023\230\246\207\275\325\335\350y\340"
 249      AE37B713 
 249      98A687BD 
 249      D5DDE879 
 249      E0
 250 0173 ABF426CD 		.ascii	"\253\364&\315\370l\321\0112^\376e &=)\350\011\211\346"
 250      F86CD109 
 250      325EFE65 
 250      20263D29 
 250      E80989E6 
 251 0187 5947AAC7 		.ascii	"YG\252\307\036\264\235Wi\373u_rh\304\351\267S\275\311"
 251      1EB49D57 
 251      69FB755F 
 251      7268C4E9 
 251      B753BDC9 
 252 019b A1EEAE54 		.ascii	"\241\356\256Tog_WG?5\014\014\246m\307\031\031N'\323"
 252      6F675F57 
 252      473F350C 
 252      0CA66DC7 
 252      19194E27 
 253 01b0 22BA07EB 		.ascii	"\"\272\007\353&\263\303"
 253      26B3C3
 254              		.text
 255              		.section	.gnu.lto_P2_5_Stop.b949851e,"",%progbits
 256 0000 789C7D8F 		.ascii	"x\234}\217?HBQ\024\306\317w\236>$!\242I\232\242\305"
 256      3F484251 
 256      14C6CF77 
 256      9E3E2421 
 256      A2499AA2 
 257 0015 CD21706A 		.ascii	"\315!pjlp\025\334B\220\260\267&H\215\342{h\020\015\241"
 257      6C7015DC 
 257      4290B0B7 
 257      26488DE2 
 257      7B68100D 
 258 002a B604A14D 		.ascii	"\266\004\241M\321\037\313\206Z\203G\213NE4\004\366\017"
 258      D11FCB86 
 258      5A83478B 
 258      4E453404 
 258      F60F
 259 003c C9A2B644 		.ascii	"\311\242\266D\254^Qv\256o\014\272p\357\271\177\276\363"
 259      AC5E5176 
 259      AE6F0CBA 
 259      70EFB97F 
 259      BEF3
 260 004e FBEEA7D1 		.ascii	"\373\356\247\321\3371&3\012\242\011\251\320\010\\8#"
 260      DF312633 
 260      0AA209A9 
 260      D0085C38 
 260      23
 261 005f B27C0CA8 		.ascii	"\262|\014\250\015\201\262\214,^\270\303(\330\325u\177"
 261      0D81B28C 
 261      2C5EB8C3 
 261      28D8D575 
ARM GAS  C:\Users\Thomas\AppData\Local\Temp\cck4Ar4a.s 			page 20


 261      7F
 262 0070 70CB34CD 		.ascii	"p\3134\315\327\322I`)\3400Q\227]\014\266\021$\321t\362"
 262      D7D24960 
 262      29E03051 
 262      975D0CB6 
 262      1124D174 
 263 0085 DF577E3D 		.ascii	"\337W~=/\232\021\367\015;\320\005O\207\243\266\331\357"
 263      2F9A11F7 
 263      0D3BD005 
 263      4F87A3B6 
 263      D9EF
 264 0097 1FF58A8D 		.ascii	"\037\365\212\215)\350L\016\213\231,DmQ)\253GfU\265&"
 264      29E84C0E 
 264      8B992C44 
 264      6D5129AB 
 264      476655B5 
 265 00ac 4EDF569E 		.ascii	"N\337V\236*3\252\361\235\225\357Z\313y\360>\263\303"
 265      2A33AAF1 
 265      9D95EF5A 
 265      CB79F03E 
 265      B3C3
 266 00be DC6B58A6 		.ascii	"\334kX\246G\331\334\267\317/|\203+R\307\315\317V}\250"
 266      47D9DCB7 
 266      CF2F7C83 
 266      2B52C7CD 
 266      CF567DA8 
 267 00d2 8C0D2B0F 		.ascii	"\214\015+\017\2075\354b\014{\220d\250\242\014j\"\367"
 267      8735EC62 
 267      0C7B9064 
 267      A8A20C6A 
 267      22F7
 268 00e4 A1BB38CD 		.ascii	"\241\2738\315%\026\213\307\225a\325\256\375\200\260"
 268      25168BC7 
 268      9561D5AE 
 268      FD80B0
 269 00f3 2F52712D 		.ascii	"/Rq-Ai\376\243\035\010M\030t\203\234}]g%W\356\225\313"
 269      4169FEA3 
 269      1D084D18 
 269      74839C7D 
 269      5D672557 
 270 010a D51A67BE 		.ascii	"\325\032g\276\314e\323\347\260\247\253B\241\206\214"
 270      CC65D3E7 
 270      B0A7AB42 
 270      A1868C
 271 0119 C4F3D21D 		.ascii	"\304\363\322\035,\37362P\222\312\012\225Q>=\036\212"
 271      2CFB3632 
 271      5092CA0A 
 271      95513E3D 
 271      1E8A
 272 012b 478C7923 		.ascii	"G\214y#=\273`\314%b\251\305t\322\210Gc\251\351p<:\231"
 272      3DBB60CC 
 272      2562A9C5 
 272      74D28847 
 272      63A9E970 
 273 0142 088792F4 		.ascii	"\010\207\222\364\013\346\375\202,"
 273      0BE6FD82 
 273      2C
ARM GAS  C:\Users\Thomas\AppData\Local\Temp\cck4Ar4a.s 			page 21


 274              		.text
 275              		.section	.gnu.lto_P2_5_SetIntMode.b949851e,"",%progbits
 276 0000 789C8D51 		.ascii	"x\234\215Q;H\003A\020\235\267{\271\234Z(V\232J\020\025"
 276      3B480341 
 276      109DB77B 
 276      B99C5A28 
 276      569A4A10 
 277 0015 412C02F6 		.ascii	"A,\002\366\202\205\330\211\266\001\221x\205M\224#\326"
 277      8285D889 
 277      B6019178 
 277      854D9423 
 277      D6
 278 0026 5E4CD2A4 		.ascii	"^L\322\244R\261\020\304J\304\177\374\244\261\020\011"
 278      52B110C4 
 278      4AC47FFC 
 278      A4B11009 
 279 0036 418C368A 		.ascii	"A\2146\2126\202\205\026FP\013\211\037L\"\376f\357\254"
 279      36828516 
 279      46500B89 
 279      1F4C22FE 
 279      66EFAC
 280 0049 14C4839D 		.ascii	"\024\304\203\235\231\335{\237\331YI\277?\037/M\020\371"
 280      99DD7B9F 
 280      D95949BF 
 280      3F1F2F4D 
 280      10F9
 281 005b 394312C4 		.ascii	"9C\022\304\370\021Q\304\020\200*\0104*0\212[\361 0\236"
 281      F81151C4 
 281      10802A08 
 281      342A308A 
 281      5BF12030 
 282 0070 5E99AE68 		.ascii	"^\231\256h\232\267m;\177:Q\033\257)1\355I\2702X@\023"
 282      9AB76D3B 
 282      7F3A511B 
 282      AF2931ED 
 282      49B83258 
 283 0086 4312BB89 		.ascii	"C\022\273\211d\231\254\007q=\365\232\275\223\015s\266"
 283      6499AC07 
 283      713DF59A 
 283      BD930D73 
 283      B6
 284 0097 3D96DE49 		.ascii	"=\226\336I\332\355(\261\346\"$3\320\342C\263\217\370"
 284      DAED28B1 
 284      E6222433 
 284      D0E243B3 
 284      8FF8
 285 00a9 80B08406 		.ascii	"\200\260\204\006\005~\210\275\237U\3501\326\256r5\261"
 285      057E88BD 
 285      9F55E831 
 285      D6AE7235 
 285      B1
 286 00ba 0C1D9CD7 		.ascii	"\014\035\234\327\253\323\366\347g*;\265\330\250\225"
 286      ABD3F6E7 
 286      672A3BB5 
 286      D8A895
 287 00c9 0BE608A9 		.ascii	"\013\346\010\251\202G\005\035\212\356U\245\241\002Q"
 287      8247051D 
ARM GAS  C:\Users\Thomas\AppData\Local\Temp\cck4Ar4a.s 			page 22


 287      8AEE55A5 
 287      A10251
 288 00d8 8E97EAFB 		.ascii	"\216\227\352\373\2327\234\34592/\211\217\003K\251\025"
 288      9A379CE5 
 288      39322F89 
 288      8F034BA9 
 288      15
 289 00e9 84BAC4E3 		.ascii	"\204\272\304\343\366\376\255~#JB\306\017#\266\246\274"
 289      F6FEAD7E 
 289      234A42C6 
 289      0F23B6A6 
 289      BC
 290 00fa 2F73C727 		.ascii	"/s\307'\206sDj\233\333\313\217i\263\230\211\304\270"
 290      8673446A 
 290      9BDBCB8F 
 290      69B39889 
 290      C4B8
 291 010c 650D2BF0 		.ascii	"e\015+\360a\025<&\254a\026t\216hQw\345\244\253x\177"
 291      61153C26 
 291      AC611674 
 291      8E685177 
 291      E5A4AB78 
 292 0121 F51675E8 		.ascii	"\365\026u\350Z\221\357\223d(\273NBa\376R[g5\326 \247"
 292      5A91EF93 
 292      6428BB4E 
 292      4261FE52 
 292      5B6735D6 
 293 0137 C54C972B 		.ascii	"\305L\227+\351\371\213\261\361\303\337[\020\312\241"
 293      E9F98BB1 
 293      F1C3DF5B 
 293      10CAA1
 294 0146 F0968D57 		.ascii	"\360\226\215W:\376^\302\246c\037}\376\206\030,\311\300"
 294      3AFE5EC2 
 294      A6631F7D 
 294      FE86182C 
 294      C9C0
 295 0158 FF75B4E5 		.ascii	"\377u\264\345td\320\005\"\351T\217B\253\227\315\361"
 295      7464D005 
 295      22E9548F 
 295      42AB97CD 
 295      F1
 296 0169 2BF12879 		.ascii	"+\361(y\260u\255\201N3dZ\375as\240\257wh\304\012\232"
 296      B075AD81 
 296      4E33645A 
 296      FD6173A0 
 296      AF7768C4 
 297 017f 81EEDEA1 		.ascii	"\201\356\336\241\216\266@\267\277\257\2555H\225\203"
 297      8EB640B7 
 297      BFAFAD35 
 297      489583
 298 018e A1B06959 		.ascii	"\241\260iY#\303a\367\357\027\\\222\277Z"
 298      23C361F7 
 298      EF175C92 
 298      BF5A
 299              		.text
 300              		.section	.gnu.lto_P2_5_GetIntStatus.b949851e,"",%progbits
 301 0000 789C6366 		.ascii	"x\234cf\300\004R@\374\033\210\225\200\230\221\231\201"
ARM GAS  C:\Users\Thomas\AppData\Local\Temp\cck4Ar4a.s 			page 23


 301      C0045240 
 301      FC1B8895 
 301      80989199 
 301      81
 302 0011 9169C239 		.ascii	"\221i\3029\006\206F\016&FF\020\203\201\221\241\236\211"
 302      0686460E 
 302      26464610 
 302      838191A1 
 302      9E89
 303 0023 B19EF125 		.ascii	"\261\236\361%\323G&\3063;\377]fT_\332\320\320\364a\321"
 303      D34726C6 
 303      333BFF5D 
 303      66545FDA 
 303      D0D0F461 
 304 0038 F4BBDCAD 		.ascii	"\364\273\334\255\022?\231\030\030>310\352H1j\202\314"
 304      123F9918 
 304      183E3331 
 304      30EA4831 
 304      6A82CC
 305 004b 615CCEA8 		.ascii	"a\\\316\250\316\000T\370\261\345\357un\266\226\206\206"
 305      CE0054F8 
 305      B1E5EF75 
 305      6EB69686 
 305      86
 306 005c 0601903C 		.ascii	"\006\001\220<Pb\005#\033#\220^/t\240\341\377\377\317"
 306      50620523 
 306      1B23905E 
 306      2F74A0E1 
 306      FFFFCF
 307 006f 77A7ACD0 		.ascii	"w\247\254\320gaab\370\311\004\264\021d\010\303\023 "
 307      67616162 
 307      F8C904B4 
 307      116408C3 
 307      1320
 308 0081 01B2EF29 		.ascii	"\001\262\357)\023\023\210f\276\305x\350[\327\263\323"
 308      13138866 
 308      BEC578E8 
 308      5BD7B3D3 
 309 0091 16208DDF 		.ascii	"\026 \215\337\231@\226on\177\355\375\202\351'\023\323"
 309      9940966F 
 309      6E7FEDFD 
 309      82E92713 
 309      D3
 310 00a2 D3138D0D 		.ascii	"\323\023\215\015, [\356?9\177\221\003,\304\000\342\036"
 310      2C205BEE 
 310      3F397F91 
 310      032CC400 
 310      E21E
 311 00b4 5CD0B385 		.ascii	"\\\320\263\205g.\343\354\306\026\306\237L\314\214+\031"
 311      672EE3EC 
 311      C616C69F 
 311      4CCC8C2B 
 311      19
 312 00c5 A5185731 		.ascii	"\245\030W1\002]\305\270\232q.#\303-\306\346\037m:\020"
 312      025DC5B8 
 312      9A712E23 
 312      C32DC6E6 
ARM GAS  C:\Users\Thomas\AppData\Local\Temp\cck4Ar4a.s 			page 24


 312      1F6D3A10 
 313 00d9 E3982126 		.ascii	"\343\230!&~\377s\274\225\037\244\237\201\235\201q\015"
 313      7EFF73BC 
 313      951FA49F 
 313      819D8171 
 313      0D
 314 00ea 50E93D46 		.ascii	"P\351=FF\250\002\260\213\030A.\001\232\255\240\027\343"
 314      46A802B0 
 314      8B18412E 
 314      019AADA0 
 314      17E3
 315 00fc 9E9A975A 		.ascii	"\236\232\227Z\224X\222\232\022\037\234_Z\224\234\032"
 315      9458929A 
 315      121F9C5F 
 315      5A949C1A 
 316 010c 13109CEF 		.ascii	"\023\020\234\357l\032\023`\024o\252\227\314\000\000"
 316      6C1A1360 
 316      146FAA97 
 316      CC0000
 317 011b 037264F1 		.ascii	"\003rd\361"
 318              		.text
 319              		.section	.gnu.lto_P2_5_WriteRegValue.b949851e,"",%progbits
 320 0000 789C654F 		.ascii	"x\234eO=HBQ\030\375\316}O{a\2034\225S\020\342\022\016"
 320      3D484251 
 320      18FDCE7D 
 320      4F7B6183 
 320      34955310 
 321 0017 814B5350 		.ascii	"\201KSP\320*\330(\210\330\213Z\022\314f\357\213\027"
 321      D02AD828 
 321      88D88B5A 
 321      12CC66EF 
 321      8B17
 322 0029 2D0D0E11 		.ascii	"-\015\016\021\2418\205\364ce\320\326$\265\010AQ\020"
 322      A13885F4 
 322      6365D0D6 
 322      24B50841 
 322      5110
 323 003b A2438168 		.ascii	"\242C\201h\0304$\012\346\020\366\335\034\273p\371\276"
 323      1834240A 
 323      E610F6DD 
 323      1CBB70F9 
 323      BE
 324 004c 7338F79C 		.ascii	"s8\367\234s5\372\177<|} \232\341\011\215 \322\017D\226"
 324      7335FA7F 
 324      3C7C7D20 
 324      9AE1098D 
 324      20D20F44 
 325 0061 2100B510 		.ascii	"!\000\265\020(%\220\302\207h\013\244K\205C\227//\245"
 325      282590C2 
 325      87680BA4 
 325      4B854397 
 325      2F2FA5
 326 0074 FCAA6727 		.ascii	"\374\252g'w&\372\202\250#\20668\206\217%w\275\317]\207"
 326      7726FA82 
 326      A8238636 
 326      38868F25 
 326      77BDCF5D 
ARM GAS  C:\Users\Thomas\AppData\Local\Temp\cck4Ar4a.s 			page 25


 327 0089 360DE2FD 		.ascii	"6\015\342\375\276\376\335\031k\211\276\200[\301L\245"
 327      BEFEDD19 
 327      6B89BE80 
 327      5BC14CA5 
 328 0099 D9D51414 		.ascii	"\331\325\024\024B\301j\365y\317\360\036I\271]*_\311"
 328      42C16AF5 
 328      79CFF01E 
 328      49B95D2A 
 328      5FC9
 329 00ab 79E6359C 		.ascii	"y\3465\234@c?\234\302\2033x\210)B\001^%o\333?\025\227"
 329      40633F9C 
 329      C2833378 
 329      88294201 
 329      5E256FDB 
 330 00c2 D3E66CF7 		.ascii	"\323\346l\3670\023\347prm*\216\227\344`p\335\335/\317"
 330      3013E770 
 330      726D2A8E 
 330      97E46070 
 330      DDDD2FCF 
 331 00d6 E93AB756 		.ascii	"\351:\267Vzj\260B\325or\026O\255\206\333\203vwY\275"
 331      7A6AB042 
 331      D56F7216 
 331      4FAD86DB 
 331      83767759 
 332 00eb 61AFDC4D 		.ascii	"a\257\334M!3\242\232\350v\331\222\272\262\177k<>\031"
 332      2133A29A 
 332      E876D992 
 332      BAB27F6B 
 332      3C3E19
 333 00fe 7F1429D8 		.ascii	"\177\024)\330z\317\327\214\034\262\226\215\276p\340"
 333      7ACFD78C 
 333      1CB2968D 
 333      BE70E0
 334 010d 820B5D72 		.ascii	"\202\013]r!B\0219\364\330\364\025V\351%\244\374\324"
 334      21421139 
 334      F4D8F415 
 334      56E925A4 
 334      FCD4
 335 011f E71B022A 		.ascii	"\347\033\002*\206C\247\374\341%s\303LD\223\346J$\024"
 335      8643A7FC 
 335      E12573C3 
 335      4C4493E6 
 335      4A2414
 336 0132 DF4AC4CC 		.ascii	"\337J\304\314p0\024_\010\204\203\263\221\200?F\243\233"
 336      7030145F 
 336      088483B3 
 336      91803F46 
 336      A39B
 337 0144 6BEBABC9 		.ascii	"k\353\253\311\305h2\372\0132\331y\350"
 337      C56832FA 
 337      0B32D979 
 337      E8
 338              		.text
 339              		.section	.gnu.lto_P2_5_ReadRegValue.b949851e,"",%progbits
 340 0000 789C6D52 		.ascii	"x\234mRMHTQ\024>\347\336\367\336L\243\251\264\234\215"
 340      4D485451 
 340      143EE7DE 
ARM GAS  C:\Users\Thomas\AppData\Local\Temp\cck4Ar4a.s 			page 26


 340      F7DE4CA3 
 340      A9B49C8D 
 341 0014 C1105A84 		.ascii	"\301\020Z\204\205\340\2466AD\264\023\334\012\":B\020"
 341      85E0A636 
 341      4144B413 
 341      DC0A223A 
 341      4210
 342 0026 09932EC5 		.ascii	"\011\223.\305;\343\203\206\314FA\314\214$\027\226f\243"
 342      3BE38386 
 342      CC4641CC 
 342      8C241796 
 342      66A3
 343 0038 95F6E368 		.ascii	"\225\366\343h0Z\244\340\037\242)\312P\2038\221.\"\233"
 343      305AA4E0 
 343      1FA229CA 
 343      50833891 
 343      2E229B
 344 004b 721AFA99 		.ascii	"r\032\372\231\316\275\317\201&{\360\336\273?\337\371"
 344      CEBDCF81 
 344      267BF0DE 
 344      BB3FDFF9 
 345 005b CE39DF77 		.ascii	"\3169\337w8\354\177\316\321[\307\001N\322\037\015@\326"
 345      38EC7FCE 
 345      D15BC701 
 345      4ED21F0D 
 345      40D6
 346 006d 3A0FE0B5 		.ascii	":\017\340\2653\324\254\005\267\026\023v\215\361\353"
 346      33D4AC05 
 346      B7161376 
 346      8DF1EB
 347 007c 5300C2A1 		.ascii	"S\000\302\241\2336\020\331:\242<\007\204F\3065\035\033"
 347      9B3610D9 
 347      3AA23C07 
 347      8446C635 
 347      1D1B
 348 008e 9966116E 		.ascii	"\231f\021n\261\035\2063\033\337\343\331\037Y\222A\036"
 348      B11D8633 
 348      1BDFE3D9 
 348      1F599241 
 348      1E
 349 009f D0B66B35 		.ascii	"\320\266k5\366\225\313-2\271\035\213\317o\030\005\275"
 349      F695CB2D 
 349      32B91D8B 
 349      CF6F1805 
 349      BD
 350 00b0 42F83E7F 		.ascii	"B\370>\177Y\254\354l\277\213I\306 \316\000\357\243\023"
 350      59ACEC6C 
 350      BF8B49C6 
 350      20CE00EF 
 350      A313
 351 00c2 FBD02979 		.ascii	"\373\320)y\373\261@b\373#\337\3029\334\205r\035h\356"
 351      FBB14062 
 351      FB23DFC2 
 351      39DC8572 
 351      1D68EE
 352 00d5 5E3AE8EA 		.ascii	"^:\350\352\241\270\350\255\226\253\331\242O\230\321"
 352      A1B8E8AD 
ARM GAS  C:\Users\Thomas\AppData\Local\Temp\cck4Ar4a.s 			page 27


 352      96ABD9A2 
 352      4F98D1
 353 00e4 542A9F82 		.ascii	"T*\237\202\361\001\362\314x\371P\310\216\371k5\3130"
 353      F101F2CC 
 353      78F950C8 
 353      8EF96B35 
 353      CB30
 354 00f6 85107938 		.ascii	"\205\020y8\200.\231\204\270\037\242\201\000L\236\020"
 354      802E9984 
 354      B81FA281 
 354      004C9E10 
 355 0106 E6E6446F 		.ascii	"\346\346Do\207\303\242M\306\336d\211\3164-O\323\036"
 355      87C3A24D 
 355      C6DE6489 
 355      CE342D4F 
 355      D31E
 356 0118 77E2D134 		.ascii	"w\342\3214)\006\3215t(,R\251\341\331\016\377\011\303"
 356      2906D135 
 356      74282C52 
 356      A9E1D90E 
 356      FF09C3
 357 012b CE21C934 		.ascii	"\316!\3114\215>\272\016\222\321P\020\200MJERmRk\246"
 357      8D3EBA0E 
 357      92D15010 
 357      804D4A45 
 357      526D526B 
 358 0140 8DC71807 		.ascii	"\215\307\030\007\322\217\257\343\344\356\265\335\255"
 358      D28FAFE3 
 358      E4EEB5DD 
 358      AD
 359 014d 62594382 		.ascii	"bYC\202qJ\277\340\233\351\311\225\342\030\313\323^\241"
 359      714ABFE0 
 359      9BE9C995 
 359      E218CBD3 
 359      5EA1
 360 015f C9AADF6F 		.ascii	"\311\252\337o.,\332\325\221jbv.\332\212w\360\266\327"
 360      2E2CDAD5 
 360      916A6276 
 360      2EDA8A77 
 360      F0B6D7
 361 0172 24A16C38 		.ascii	"$\241l8HM\016\311&\361\021\235RI1\322\236\314\340+\350"
 361      484D0EC9 
 361      26F1119D 
 361      524931D2 
 361      9ECCE02B 
 362 0187 537207E6 		.ascii	"Sr\007\346&#\271\374\230\322l\271o\332\247Y\315\005"
 362      2623B9FC 
 362      98D26CB9 
 362      6FDAA759 
 362      CD05
 363 0199 5A329B7B 		.ascii	"Z2\233{\374\237\346\236(E\026\242\257\002\312>N\367"
 363      FC9FE69E 
 363      284516A2 
 363      AF02CA3E 
 363      4EF7
 364 01ab C3948A98 		.ascii	"\303\224\212\230\303\211\346\234\014A\303\243]G$^\311"
 364      C389E69C 
ARM GAS  C:\Users\Thomas\AppData\Local\Temp\cck4Ar4a.s 			page 28


 364      0C41C3A3 
 364      5D47245E 
 364      C9
 365 01bc 1967F8AF 		.ascii	"\031g\370\257\334R\004\034\241\231\002|Jz\007\025s["
 365      DC52041C 
 365      A199027C 
 365      4A7A0715 
 365      735B
 366 01ce DB48778E 		.ascii	"\333Hw\216b\376\215\200\317,\352<\011\240\313\251\327"
 366      62FE8D80 
 366      CF2CEA3C 
 366      09A0CBA9 
 366      D7
 367 01df A171BDF0 		.ascii	"\241q\275\360\036EG\307\203\2213vB\245\353z\216\205"
 367      1E4547C7 
 367      83913376 
 367      42A5EB7A 
 367      8E85
 368 01f1 AA900836 		.ascii	"\252\220\0106)t\202\311\200\356\245\033\203\254\341"
 368      297482C9 
 368      80EEA51B 
 368      83ACE1
 369 0200 87F00BC2 		.ascii	"\207\360\013\302\332\3434\0072\037\276\300\006\262\343"
 369      DAE33407 
 369      321FBEC0 
 369      06B2E3
 370 020f 80A25666 		.ascii	"\200\242Vf\020\032\336\242\271\326\024\037qZ\302\033"
 370      101ADEA2 
 370      B9D6141F 
 370      715AC21B 
 371 021f 7F4FA54E 		.ascii	"\177O\245N]\216\356MM\214\351\322.e\323\312\266\303"
 371      5D8EEE4D 
 371      4D8CE9D2 
 371      2E65D3CA 
 371      B6C3
 372 0231 426B6A68 		.ascii	"Bkjh\3753\012\355h\337g\223C\331\3643\024\374\340H\333"
 372      FD330AED 
 372      68DF6793 
 372      43D9F433 
 372      14FCE048 
 373 0246 948521B2 		.ascii	"\224\205!\262iL\3314.mR\214\237\266OY\214z\206\255\336"
 373      694CD934 
 373      2E6D528C 
 373      9FB64F59 
 373      8C7A86AD 
 374 025b 707EA6B1 		.ascii	"p~\246\261/e\004\225/N\253Y\035\220-\350\360\016\275"
 374      2F650495 
 374      2F4EAB59 
 374      1D902DE8 
 374      F00EBD
 375 026e E1C43ADB 		.ascii	"\341\304:\333c\0009bH\305\322\234\035.*?\357\276\354"
 375      63003962 
 375      48C5D29C 
 375      1D2E2A3F 
 375      EFBEEC
 376 0281 F654D6B9 		.ascii	"\366T\326\271\253+\312j\353=U\356\362\322\262\332\263"
 376      AB2BCA6A 
ARM GAS  C:\Users\Thomas\AppData\Local\Temp\cck4Ar4a.s 			page 29


 376      EB3D55EE 
 376      F2D2B2DA 
 376      B3
 377 0292 25E5A5C5 		.ascii	"%\345\245\305\025%EU`x\334W\352/\325\0315\027kj/T\377"
 377      15254555 
 377      6078DC57 
 377      EA2FD519 
 377      35176B6A 
 378 02a9 010ABA48 		.ascii	"\001\012\272H\204"
 378      84
 379              		.text
 380              		.section	.gnu.lto_.symbol_nodes.b949851e,"",%progbits
 381 0000 789C55CF 		.ascii	"x\234U\317\261\015\3020\024\004\320\263\177\034;\211"
 381      B10DC230 
 381      1404D0B3 
 381      7F1C3B89 
 382 0010 93929609 		.ascii	"\223\222\226\011`\305\213\322\320\262\000\210D\254A"
 382      60C58BD2 
 382      D0B20088 
 382      44AC41
 383 001f 13513303 		.ascii	"\023Q3\003\364\210\021\020FI\341\377\233\323\323]\363"
 383      F4881110 
 383      4649E1FF 
 383      9BD3D35D 
 383      F3
 384 0030 05C0DE60 		.ascii	"\005\300\336`9\333\0218>\000\322\234\246\000\353iV\343"
 384      39DB1138 
 384      3E00D29C 
 384      A600EB69 
 384      56E3
 385 0042 7C49165A 		.ascii	"|I\026ZeGQ\266,\224\015]n\007\214\226\260%K5+\350\225"
 385      654751B6 
 385      2C940D5D 
 385      6E078C96 
 385      B0254B35 
 386 0059 038372C5 		.ascii	"\003\203r\305J\271f\255\334\260\311mZ\306\305\350\373"
 386      4AB966AD 
 386      DCB0C96D 
 386      5AC6C5E8 
 386      FB
 387 006a C4C836A3 		.ascii	"\304\3106\243\244o\207q#\322\341\372\374\032\221\026"
 387      A46F8771 
 387      23D2E1FA 
 387      FC1A9116 
 388 007a F757CA42 		.ascii	"\367W\312B0\374\323\011\346\303{+~\355\375\332\007\277"
 388      30FCD309 
 388      E6C37B2B 
 388      7EEDFDDA 
 388      07BF
 389 008c F411986E 		.ascii	"\364\021\230n\237\035~\340<P7"
 389      9F1D7EE0 
 389      3C5037
 390              		.text
 391              		.section	.gnu.lto_.refs.b949851e,"",%progbits
 392 0000 789C6366 		.ascii	"x\234cf``\340d\200\000&V\0066FF6.\006\000\001z\000,"
 392      6060E064 
 392      80002656 
ARM GAS  C:\Users\Thomas\AppData\Local\Temp\cck4Ar4a.s 			page 30


 392      06364646 
 392      362E0600 
 393              		.text
 394              		.section	.gnu.lto_.decls.b949851e,"",%progbits
 395 0000 789C9D55 		.ascii	"x\234\235UiLTW\024~w\356\260\314\002\330&\305\2264\351"
 395      694C5457 
 395      147E77EE 
 395      B0CC02D8 
 395      26C59634 
 396 0015 18139326 		.ascii	"\030\023\223&\206\250\215\306\376\252)uk\272\030I\355"
 396      86A88DC6 
 396      FEAA2975 
 396      6BBA1849 
 396      ED
 397 0026 0F4D0CE2 		.ascii	"\017M\014\342\213\235\304\200\3011\251?\232^D*\356\024"
 397      8B9DC480 
 397      C131A93F 
 397      9A5E442A 
 397      EE14
 398 0038 B5808A0E 		.ascii	"\265\200\212\016\202\026\244(.\210\010\3100\352\010"
 398      8216A428 
 398      2E8808C8 
 398      30EA08
 399 0047 E2823A20 		.ascii	"\342\202: \210\3122n\200\313\310\242\270N\317]\236\363"
 399      88CA326E 
 399      80CBC8A2 
 399      B84ECF5D 
 399      9EF3
 400 0059 DE14D0F4 		.ascii	"\336\024\320\364&\007\336}s\316\367}\347\236\363\316"
 400      2607DE7D 
 400      73CEF77D 
 400      E79EF3CE 
 401 0069 C5922415 		.ascii	"\305\222$\025`I\362\301\3120J\322\357H\222\302\340\335"
 401      6049F2C1 
 401      CA304AD2 
 401      EF4892C2 
 401      E0DD
 402 007b 1C307894 		.ascii	"\0340x\224\"%\276\302\301\016\201\225\202\035\007;\001"
 402      2225BEC2 
 402      C10E8195 
 402      821D073B 
 402      01
 403 008c 56097612 		.ascii	"V\011v\022\314\001\346\004s\201\325\201\271\301\256"
 403      CC01E604 
 403      7381D581 
 403      B9C1AE
 404 009b 81B580B5 		.ascii	"\201\265\200\265\012\234[\222vQ\254\020\260\"\3011\013"
 404      0A9C5B92 
 404      7651AC10 
 404      B022C131 
 404      0B
 405 00ac CC03D601 		.ascii	"\314\003\326\001\366\255\340\247K\247\342\005\231\322"
 405      F6ADE0A7 
 405      4BA7E205 
 405      99D2
 406 00ba 6DB03B60 		.ascii	"m\260;`w\003\360\350\357z\025\336=\260\203*\214R\201"
 406      7703F0E8 
ARM GAS  C:\Users\Thomas\AppData\Local\Temp\cck4Ar4a.s 			page 31


 406      EF7A15DE 
 406      3DB0832A 
 406      8C5281
 407 00cd 43B5DC0F 		.ascii	"C\265\334\017\210\245\371\004\011\316H\201\241hQ\342"
 407      88A5F904 
 407      09CE4881 
 407      A16851E2 
 408 00dd 8F8BFC02 		.ascii	"\217\213\374\002\027=\007\203\210U\270\273\300\316\252"
 408      173D0783 
 408      8855B8BB 
 408      C0CEAA
 409 00ec 30BAC14E 		.ascii	"0\272\301N\013\177,bZ\305\371\004.z\246\301*-\012F\017"
 409      0B7F2C62 
 409      5AC5F904 
 409      2E7AA6C1 
 409      2A2D0A46 
 410 0101 D831959E 		.ascii	"\3301\225\236J\201\023\270h=BU\361\017\002\362Q\343"
 410      4A8113B8 
 410      683D4255 
 410      F10F02F2 
 410      51E3
 411 0113 04097F25 		.ascii	"\004\011\177%7\005s\250z9\376G\236\216\021\362t\276"
 411      370573A8 
 411      7A39FE47 
 411      9E8E11F2 
 411      74BE
 412 0125 679E4E81 		.ascii	"g\236N\201\023\270\\\222\277f\212\036u\315\2204t\275"
 412      13B85C92 
 412      BF668A1E 
 412      75CD9034 
 412      74BD
 413 0137 687FEA47 		.ascii	"h\177\352G\210\251\033\"\306\255\322J\277\0033X\003"
 413      88A91B22 
 413      C6ADD24A 
 413      BF033358 
 413      03
 414 0148 D81330AF 		.ascii	"\330\0230\257*\326=D\3545\341\257\216\243\334\026\301"
 414      2AD63D44 
 414      EC35E1AF 
 414      8EA3DC16 
 414      C1
 415 0159 DF07D62B 		.ascii	"\337\007\326+\371\373u\000\254_\304b\021\257\364n\340"
 415      F9FB7500 
 415      AC5FC462 
 415      11AFF46E 
 415      E0
 416 016a 7AA2434D 		.ascii	"z\242CM\325k\326\204b\035\242\317yY\035n\343\370\375"
 416      D56BD684 
 416      621DA2CF 
 416      79591D6E 
 416      E3F8FD
 417 017d 849034E2 		.ascii	"\204\2204\342p \277S\362\276\212\015!\367u(\322\310"
 417      7020BF53 
 417      F2BE8A0D 
 417      21F77528 
 417      D2C8
 418 018f B69BEAB7 		.ascii	"\266\233\352\267\327`\266\365\3218]K\313\326\347\030"
ARM GAS  C:\Users\Thomas\AppData\Local\Temp\cck4Ar4a.s 			page 32


 418      D760B6F5 
 418      D1385D4B 
 418      CBD6E718 
 419 019f 19C7A511 		.ascii	"\031\307\245\021\262\212x3\010\376XB\343\243\320\347"
 419      B28A7833 
 419      08FE5842 
 419      E3A3D0E7 
 420 01af 5112FA07 		.ascii	"Q\022\372\007\215\0037T\200\306K\250\020E\241\375(J"
 420      8D033754 
 420      80C64BA8 
 420      1045A1FD 
 420      284A
 421 01c1 CA0702EF 		.ascii	"\312\007\002\357n\367\365O\011\321\243\"dD\177#\314"
 421      6EF7F54F 
 421      09D1A322 
 421      64447F23 
 421      CC
 422 01d2 3CE01028 		.ascii	"<\340\020(\203 -?\320\177\301\004,\341F\013\335\236"
 422      83202D3F 
 422      D07FC104 
 422      2CE1460B 
 422      DD9E
 423 01e4 C8A8CD0A 		.ascii	"\310\250\315\012\206\255\331\250\247\333\265\253K\360"
 423      86ADD9A8 
 423      A7DBB5AB 
 423      4BF0
 424 01f2 E86D8044 		.ascii	"\350m\200D\322S\310(\216S\014\004\007\200@B\007\321"
 424      D253C828 
 424      8E530C04 
 424      07804042 
 424      07D1
 425 0204 68F83B5F 		.ascii	"h\370;_\317\221z\252\357\246\206\341/X\216\027_\245"
 425      CF917AAA 
 425      EFA686E1 
 425      2F588E17 
 425      5FA5
 426 0216 DAF5965D 		.ascii	"\332\365\226]\304Q\342\315\361T|\231\235n_E\336\370"
 426      C451E2CD 
 426      F1547C99 
 426      9D6E5F45 
 426      DEF8
 427 0228 7C88E868 		.ascii	"|\210\350h\020*y+E\242\317\2742\207\220\005\"\323Sk"
 427      102A792B 
 427      45A2CFBC 
 427      32879005 
 427      22D3536B 
 428 023c D2F57A68 		.ascii	"\322\365zh)\3065\237\251hp\255u\215 \343\010\223q\030"
 428      29C6359F 
 428      A96870AD 
 428      758D20E3 
 428      08937118 
 429 0250 091DCFAA 		.ascii	"\011\035\317\252\256\026\030p\002\323Q\234~e\233\011"
 429      AE161870 
 429      02D3519C 
 429      7E659B09 
 430 0260 74B49790 		.ascii	"t\264\227\220lb\327\021\230\236 \001\002\320Q\225\204"
 430      6C62D711 
ARM GAS  C:\Users\Thomas\AppData\Local\Temp\cck4Ar4a.s 			page 33


 430      989E2001 
 430      02D05195 
 430      84
 431 0271 A38A8452 		.ascii	"\243\212\204R&\241\342e\247[\257\246\233\023\251b;\246"
 431      26A1E265 
 431      A75BAFA6 
 431      9B13A962 
 431      3BA6
 432 0283 493A677D 		.ascii	"I:g}\371\201P\234\214\030[\201\247\2569\204\261\265"
 432      F981509C 
 432      8C185B81 
 432      A7AE3984 
 432      B1B5
 433 0295 579D921D 		.ascii	"W\235\222\035\253\311+\237/%\224\205\2402\025_\231\302"
 433      ABC92B9F 
 433      2F259485 
 433      A032155F 
 433      99C2
 434 02a7 779CF135 		.ascii	"w\234\3615\236k\276\241\307\3539\306eg\377\026\256\330"
 434      9E6BBEA1 
 434      C7EB39C6 
 434      6567FF16 
 434      AED8
 435 02b9 BE796F70 		.ascii	"\276yop-q\370|_1\200r\025@\271\002p\202\001x\355\356"
 435      2D71F87C 
 435      5F318072 
 435      1540B902 
 435      70820178 
 436 02cf C73ABC9D 		.ascii	"\307:\274\235\003TT5\376\306\3437\346\361\370j\202\030"
 436      03545435 
 436      FEC6E337 
 436      E6F1F86A 
 436      8218
 437 02e1 42850AA1 		.ascii	"B\205\012\241BA\250d\010GVW\265\007\343}\034\241gCK"
 437      4241A864 
 437      08475657 
 437      B507E37D 
 437      1CA16743 
 438 02f6 6A1040D8 		.ascii	"j\020@\330K\354\255\207\3114\226\006f\010U*\204*\005"
 438      4BECAD87 
 438      C9349606 
 438      6608552A 
 438      842A05
 439 0309 E12443D8 		.ascii	"\341$C\330\367\327\246\262\020|\210#\354j\313}c\340"
 439      F7D7A6B2 
 439      107C8823 
 439      EC6ACB7D 
 439      63E0
 440 031b 22AA3549 		.ascii	"\"\2525IT\253\000\252\025\000\007\003x\226r\254A\217"
 440      54AB00AA 
 440      15000703 
 440      789672AC 
 440      418F
 441 032d 6B38405A 		.ascii	"k8@Zc\321\033!\241+O\015P\243\002\250Q\000\234\303v"
 441      63D11B21 
 441      A12B4F0D 
 441      50A302A8 
ARM GAS  C:\Users\Thomas\AppData\Local\Temp\cck4Ar4a.s 			page 34


 441      51009CC3 
 442 0342 CE80AF63 		.ascii	"\316\200\257c\257n\330R\236f\245<\2454N\362\372N\017"
 442      AF6ED852 
 442      9E66A53C 
 442      A5344EF2 
 442      FA4E0F
 443 0355 C2F55CC1 		.ascii	"\302\365\\\301\321\342\242\327X\234c\241\377\034!\004"
 443      D1E2A2D7 
 443      589C63A1 
 443      FF1C2104 
 444 0365 9D516938 		.ascii	"\235Qi8\243hp1\015#\177/g5\255\263\275b\347N#n\345t"
 444      A3687031 
 444      0D237F2F 
 444      6735ADB3 
 444      BD62E74E 
 445 037d C7BB6FDC 		.ascii	"\307\273o\334\326\261\204\333Ot\211\326\301,\002\325"
 445      D6B184DB 
 445      4F7489D6 
 445      C12C02D5 
 446 038d AAE86A15 		.ascii	"\252\350j\025\272:FW\3379\330gf\037\357(\206x\355N?"
 446      BA3A4657 
 446      DF39D867 
 446      661FEF28 
 446      8678ED4E 
 447 03a2 661FAF8E 		.ascii	"f\037\257\216\365f\357\243J\003~\310\011\224\341b\341"
 447      F566EFA3 
 447      4A037EC8 
 447      0994E162 
 447      E1
 448 03b3 C325B367 		.ascii	"\303%\263g\360h(\333R\036\230./=\007\376\016F\343\214"
 448      F06828DB 
 448      521E982E 
 448      2F3D07FE 
 448      0E46E38C 
 449 03c7 7C6C34F1 		.ascii	"|l4\361\261\321\000\362\317\373\307\206E\214\0156\201"
 449      B1D100F2 
 449      CFFBC786 
 449      458C0D36 
 449      81
 450 03d8 480A092A 		.ascii	"H\012\011*\010\227\3209H\257\036\322C\227`\010Y\304"
 450      0897D039 
 450      48AF1ED2 
 450      43976008 
 450      59C4
 451 03ea 10BA002F 		.ascii	"\020\272\000//\302K`\252\314\357~dbeix[\226\266\322"
 451      2FC24B60 
 451      AACCEF7E 
 451      64626569 
 451      785B96B6 
 452 03ff A765C661 		.ascii	"\247e\306a\313r\205\035\323e\245,})\205{L\270\237\247"
 452      CB72851D 
 452      D365A52C 
 452      7D29857B 
 452      4CB89FA7 
 453 0413 51BEA3AA 		.ascii	"Q\276\243\2527\214\235\2237\347T\331$\370\250\371`a"
 453      378C9D93 
 453      37E754D9 
ARM GAS  C:\Users\Thomas\AppData\Local\Temp\cck4Ar4a.s 			page 35


 453      24F8A8F9 
 453      6061
 454 0425 51E8AAEA 		.ascii	"Q\350\252\352\250\256*G\345fG\365<\365B\233\2464\015"
 454      A8AE2A47 
 454      E56647F5 
 454      3CF5429B 
 454      A6340D
 455 0438 9AD2346A 		.ascii	"\232\3224jJ\223\361\250\264R\217\327\360y\335\374lk"
 455      4A93F1A8 
 455      B4528FD7 
 455      F079DDFC 
 455      6C6B
 456 044a BE28CDE6 		.ascii	"\276(\315\346\215.3\341\335\310BP\223\212\260I!\274"
 456      8D2E33E1 
 456      DDC84250 
 456      938AB049 
 456      21BC
 457 045c C6081F14 		.ascii	"\306\010\037\024\037*1\341l1\363\323+[\203i7\021o[\235"
 457      1F2A31E1 
 457      6C31F3D3 
 457      2B5B8369 
 457      37116F5B 
 458 0471 6F4236C9 		.ascii	"oB6\311Ud\323\206jV\2414+(-\014\345R\367\323l#\276\314"
 458      5564D386 
 458      6A56A134 
 458      2B282D0C 
 458      E552F7D3 
 459 0489 51DA8AF6 		.ascii	"Q\332\212\366.e \355\257=\262S\335#\327U\010\327\025"
 459      2E6520ED 
 459      AF3DB253 
 459      DD23D755 
 459      08D715
 460 049c 845686B0 		.ascii	"\204V\206\260'\271\310\025A\273\202\"\274i-)\243\343"
 460      27B9C815 
 460      41BB8222 
 460      BC692D29 
 460      A3E3
 461 04ae 1DFA9225 		.ascii	"\035\372\222%z~\213\323\03126\227\330\367\224\344x\316"
 461      7A7E8BD3 
 461      19323697 
 461      D8F794E4 
 461      78CE
 462 04c0 99481621 		.ascii	"\231H\026!\355>\337g\254oopLq\307Ht\017\177o\322R\337"
 462      ED3EDF67 
 462      AC6F6F70 
 462      4C71C748 
 462      740F7F6F 
 463 04d7 42632198 		.ascii	"Bc!\230d\256\317\017\305\003\034\271\364\351\272\362"
 463      64AECF0F 
 463      C5031CB9 
 463      F4E9BAF2 
 464 04e7 30631A6D 		.ascii	"0c\032m\213w\337M\320o\356\213\353\232\014\3746\013"
 464      8B77DF4D 
 464      D06FEE8B 
 464      EB9A0CFC 
 464      360B
 465 04f9 8CE81CF6 		.ascii	"\214\350\034\3666\033\364\314ZM\246\241\016P\327\346"
ARM GAS  C:\Users\Thomas\AppData\Local\Temp\cck4Ar4a.s 			page 36


 465      361BF4CC 
 465      5A4DA6A1 
 465      0E50D7E6 
 466 0509 6FCB76E4 		.ascii	"o\313v\344\277\316\326vn\277`6\257\243\015\012e6\324"
 466      BFCED676 
 466      6EBF6036 
 466      AFA30D0A 
 466      6536D4
 467 051c 8633677F 		.ascii	"\2063g\177\235=\310\314\316\006\376\203w\327\371\274"
 467      9D3DC8CC 
 467      CE06FE83 
 467      77D7F9BC 
 468 052c 6AFD98DD 		.ascii	"j\375\230\335\364*v|\015M\310.!~x\267\321\030\372E\375"
 468      F42A767C 
 468      0D4DC82E 
 468      217E78B7 
 468      D118FA45 
 469 0541 D154C51D 		.ascii	"\321T\305\035\2749)\275\326\344@\257;\314\253\261\276"
 469      BC3929BD 
 469      D6E440AF 
 469      3BCCABB1 
 469      BE
 470 0552 D611C1BC 		.ascii	"\326\021\301\274\354\347\327\220 \244\365\271\313|\006"
 470      ECE7D790 
 470      20A4F5B9 
 470      CB7C06
 471 0561 733BEE46 		.ascii	"s;\356Fh\204\321\213\320/\354\236\020v\217\011s\335"
 471      6884D18B 
 471      D02FEC9E 
 471      10768F09 
 471      73DD
 472 0573 DCB82B48 		.ascii	"\334\270+H#\254T\201\273?\014\334Y\015\\\227\200\353"
 472      23AC5481 
 472      BB3F0CDC 
 472      590D5C97 
 472      80EB
 473 0585 6270E919 		.ascii	"bp\351\031;N\0324\336\2475\336\335\302\273\233y\337"
 473      3B4E1A34 
 473      DEA735DE 
 473      DDC2BB9B 
 473      79DF
 474 0597 CA72ACD3 		.ascii	"\312r\254\323k\274\217i\274{\220Y9\372\036\026\220\271"
 474      6BBC8F69 
 474      BC7B9059 
 474      39FA1E16 
 474      90B9
 475 05a9 CBFB520B 		.ascii	"\313\373R\013\257\235{\017\004\374\003\346]~\261\365"
 475      AF9D7B0F 
 475      04FC03E6 
 475      5D7EB1F5 
 476 05b9 16C62F78 		.ascii	"\026\306/x\333x\3236\366\350y\333\274\347@\321e\026"
 476      DB78D336 
 476      F6E879DB 
 476      BCE740D1 
 476      6516
 477 05cb DF84AB4E 		.ascii	"\337\204\253N\231T/xKx\201\360\241\277%\036!\377\250"
 477      99542F78 
ARM GAS  C:\Users\Thomas\AppData\Local\Temp\cck4Ar4a.s 			page 37


 477      4B7881F0 
 477      A1BF251E 
 477      21FFA8
 478 05de 1A02F9F1 		.ascii	"\032\002\371\361\320\243j\357\237.\254I\303\253I\343"
 478      D0A36AEF 
 478      9F2EAC49 
 478      C3AB49E3 
 479 05ee 8948E309 		.ascii	"\211H\343\011Kc\303\375\201<\223\242<\355\275\360\013"
 479      4B63C3FD 
 479      813C93A2 
 479      3CEDBDF0 
 479      0B
 480 05ff 9DE53B4D 		.ascii	"\235\345;M\032\202^\015A\237 \350c\004\035\351\256J"
 480      1A825E0D 
 480      419F20E8 
 480      63041DE9 
 480      AE4A
 481 0611 83F245A5 		.ascii	"\203\362E\245\275\343\373\000\377\232\254-\373\3034"
 481      BDE3FB00 
 481      FF9AAC2D 
 481      FBC334
 482 0620 E8FD1AF4 		.ascii	"\350\375\032\364\001\201N\377\007\255\260&\330\246\006"
 482      01814EFF 
 482      07ADB026 
 482      D8A606
 483 062f CFFCE127 		.ascii	"\317\374\341'K\21446z\301L9AN\212\263\311\213\027\306"
 483      4B8C3436 
 483      7AC14C39 
 483      414E8AB3 
 483      C98B17C6 
 484 0643 26AE488A 		.ascii	"&\256H\212\227\027\314\211M\214\231\274 ~\245m\3452"
 484      9717CC89 
 484      4D8C99BC 
 484      207EA56D 
 484      E532
 485 0655 7979F42F 		.ascii	"yy\364/\322's&-\234\274p\246l\2331{\306\217\261\266"
 485      D2277326 
 485      2D9CBC70 
 485      A66C9B31 
 485      7BC68FB1 
 486 066a 38DB8AE5 		.ascii	"8\333\212\345\321\313\342\222l\321\023,\303F\323\220"
 486      D1CBE292 
 486      6CD1132C 
 486      C346D390 
 487 067a E878E9C3 		.ascii	"\350x\351\303\377\206\032\330\253\331\011V[8{\232\236"
 487      FF861AD8 
 487      ABD90956 
 487      5B387B9A 
 487      9E
 488 068b 10B768A9 		.ascii	"\020\267h\251<;\301fRm\215\354\031\002\222l\021\354"
 488      3C3BC166 
 488      526D8DEC 
 488      1902926C 
 488      11EC
 489 069d F11BEB72 		.ascii	"\361\033\353r\341f\020?%.\343\277\304\3126x\373}\342"
 489      E166103F 
 489      252EE3BF 
ARM GAS  C:\Users\Thomas\AppData\Local\Temp\cck4Ar4a.s 			page 38


 489      C4CA3678 
 489      FB7DE2
 490 06b0 62F90385 		.ascii	"b\371\003\205\014\366\234+\230\246:q\012W\361s\222\325"
 490      0CF69C2B 
 490      98A63A71 
 490      0A57F173 
 490      92D5
 491 06c2 26CF9597 		.ascii	"&\317\225\227\314\213[\272B\370\316\225\343\026+o>\212"
 491      CC8B5BBA 
 491      42F8CE95 
 491      E3162B6F 
 491      3E8A
 492 06d4 5939FD57 		.ascii	"Y9\375W\253-\006\274\254\361qKc\345x\23351a\314\260"
 492      AB2D06BC 
 492      ACF1714B 
 492      63E5789B 
 492      353161CC 
 493 06e9 19C6ACFC 		.ascii	"\031\306\254\374\316\272\010N'\022\342\022lrR@\240\231"
 493      CEBA084E 
 493      2712E212 
 493      6C725240 
 493      A099
 494 06fb 115821CD 		.ascii	"\021X!\315yqI\372$y\311\324 \3703q\312\277dL%h"
 494      797149FA 
 494      2479C9D4 
 494      20F83371 
 494      CABF644C 
 495              		.text
 496              		.section	.gnu.lto_.symtab.b949851e,"",%progbits
 497 0000 50325F35 		.ascii	"P2_5_GetFIFOStatus\000\000\000\000\000\000\000\000\000"
 497      5F476574 
 497      4649464F 
 497      53746174 
 497      75730000 
 498 001b 000000B5 		.ascii	"\000\000\000\265\000\000\000P2_5_Init\000\000\000\000"
 498      00000050 
 498      325F355F 
 498      496E6974 
 498      00000000 
 499 002f 00000000 		.ascii	"\000\000\000\000\000\000\000\000\270\000\000\000P2_"
 499      00000000 
 499      B8000000 
 499      50325F
 500 003e 355F456E 		.ascii	"5_EnableInt\000\000\000\000\000\000\000\000\000\000"
 500      61626C65 
 500      496E7400 
 500      00000000 
 500      00000000 
 501 0053 0000BA00 		.ascii	"\000\000\272\000\000\000P2_5_Enable\000\000\000\000"
 501      00005032 
 501      5F355F45 
 501      6E61626C 
 501      65000000 
 502 0068 00000000 		.ascii	"\000\000\000\000\000\000\000\000\274\000\000\000P2_"
 502      00000000 
 502      BC000000 
 502      50325F
ARM GAS  C:\Users\Thomas\AppData\Local\Temp\cck4Ar4a.s 			page 39


 503 0077 355F5374 		.ascii	"5_Start\000\000\000\000\000\000\000\000\000\000\000"
 503      61727400 
 503      00000000 
 503      00000000 
 503      0000
 504 0089 00BE0000 		.ascii	"\000\276\000\000\000P2_5_initVar\000\000\000\000\000"
 504      0050325F 
 504      355F696E 
 504      69745661 
 504      72000000 
 505 009f 00000000 		.ascii	"\000\000\000\000\000\000\000\336\000\000\000P2_5_Di"
 505      000000DE 
 505      00000050 
 505      325F355F 
 505      4469
 506 00b1 7361626C 		.ascii	"sableInt\000\000\000\000\000\000\000\000\000\000\000"
 506      65496E74 
 506      00000000 
 506      00000000 
 506      000000
 507 00c4 00C00000 		.ascii	"\000\300\000\000\000P2_5_Stop\000\000\000\000\000\000"
 507      0050325F 
 507      355F5374 
 507      6F700000 
 507      00000000 
 508 00d8 00000000 		.ascii	"\000\000\000\000\000\000\302\000\000\000P2_5_SetInt"
 508      0000C200 
 508      00005032 
 508      5F355F53 
 508      6574496E 
 509 00ed 4D6F6465 		.ascii	"Mode\000\000\000\000\000\000\000\000\000\000\000\000"
 509      00000000 
 509      00000000 
 509      00000000 
 510 00fd C6000000 		.ascii	"\306\000\000\000P2_5_GetIntStatus\000\000\000\000\000"
 510      50325F35 
 510      5F476574 
 510      496E7453 
 510      74617475 
 511 0117 00000000 		.ascii	"\000\000\000\000\000\000\000\311\000\000\000P2_5_Wr"
 511      000000C9 
 511      00000050 
 511      325F355F 
 511      5772
 512 0129 69746552 		.ascii	"iteRegValue\000\000\000\000\000\000\000\000\000\000"
 512      65675661 
 512      6C756500 
 512      00000000 
 512      00000000 
 513 013e 0000D400 		.ascii	"\000\000\324\000\000\000P2_5_ReadRegValue\000\000\000"
 513      00005032 
 513      5F355F52 
 513      65616452 
 513      65675661 
 514 0158 00000000 		.ascii	"\000\000\000\000\000\000\000\000\000\327\000\000\000"
 514      00000000 
 514      00D70000 
ARM GAS  C:\Users\Thomas\AppData\Local\Temp\cck4Ar4a.s 			page 40


 514      00
 515 0165 43794578 		.ascii	"CyExitCriticalSection\000\000\002\000\000\000\000\000"
 515      69744372 
 515      69746963 
 515      616C5365 
 515      6374696F 
 516 0182 00000000 		.ascii	"\000\000\000\000\331\000\000\000CyEnterCriticalSect"
 516      D9000000 
 516      4379456E 
 516      74657243 
 516      72697469 
 517 019d 696F6E00 		.ascii	"ion\000\000\002\000\000\000\000\000\000\000\000\000"
 517      00020000 
 517      00000000 
 517      000000
 518 01ac DB000000 		.ascii	"\333\000\000\000"
 519              		.text
 520              		.section	.gnu.lto_.opts,"",%progbits
 521 0000 272D666E 		.ascii	"'-fno-trapv' '-mcpu=cortex-m3' '-mthumb' '-g' '-O3'"
 521      6F2D7472 
 521      61707627 
 521      20272D6D 
 521      6370753D 
 522 0033 20272D66 		.ascii	" '-ffunction-sections' '-finline-functions' '-flto'"
 522      66756E63 
 522      74696F6E 
 522      2D736563 
 522      74696F6E 
 523 0066 20272D66 		.ascii	" '-ffat-lto-objects'\000"
 523      6661742D 
 523      6C746F2D 
 523      6F626A65 
 523      63747327 
 524              		.text
 525              		.cfi_sections	.debug_frame
 526              		.section	.text.P2_5_Start,"ax",%progbits
 527              		.align	2
 528              		.global	P2_5_Start
 529              		.thumb
 530              		.thumb_func
 531              		.type	P2_5_Start, %function
 532              	P2_5_Start:
 533              	.LFB0:
 534              		.file 1 ".\\Generated_Source\\PSoC5\\P2_5.c"
   1:.\Generated_Source\PSoC5/P2_5.c **** /*******************************************************************************
   2:.\Generated_Source\PSoC5/P2_5.c **** * File Name: P2_5.c
   3:.\Generated_Source\PSoC5/P2_5.c **** * Version 2.30
   4:.\Generated_Source\PSoC5/P2_5.c **** *
   5:.\Generated_Source\PSoC5/P2_5.c **** * Description:
   6:.\Generated_Source\PSoC5/P2_5.c **** *  This file provides the API source code for the Shift Register component.
   7:.\Generated_Source\PSoC5/P2_5.c **** *
   8:.\Generated_Source\PSoC5/P2_5.c **** * Note: none
   9:.\Generated_Source\PSoC5/P2_5.c **** *
  10:.\Generated_Source\PSoC5/P2_5.c **** ********************************************************************************
  11:.\Generated_Source\PSoC5/P2_5.c **** * Copyright 2008-2013, Cypress Semiconductor Corporation.  All rights reserved.
  12:.\Generated_Source\PSoC5/P2_5.c **** * You may use this file only in accordance with the license, terms, conditions,
  13:.\Generated_Source\PSoC5/P2_5.c **** * disclaimers, and limitations in the end user license agreement accompanying
ARM GAS  C:\Users\Thomas\AppData\Local\Temp\cck4Ar4a.s 			page 41


  14:.\Generated_Source\PSoC5/P2_5.c **** * the software package with which this file was provided.
  15:.\Generated_Source\PSoC5/P2_5.c **** ********************************************************************************/
  16:.\Generated_Source\PSoC5/P2_5.c **** 
  17:.\Generated_Source\PSoC5/P2_5.c **** #include "P2_5.h"
  18:.\Generated_Source\PSoC5/P2_5.c **** 
  19:.\Generated_Source\PSoC5/P2_5.c **** uint8 P2_5_initVar = 0u;
  20:.\Generated_Source\PSoC5/P2_5.c **** 
  21:.\Generated_Source\PSoC5/P2_5.c **** 
  22:.\Generated_Source\PSoC5/P2_5.c **** /*******************************************************************************
  23:.\Generated_Source\PSoC5/P2_5.c **** * Function Name: P2_5_Start
  24:.\Generated_Source\PSoC5/P2_5.c **** ********************************************************************************
  25:.\Generated_Source\PSoC5/P2_5.c **** *
  26:.\Generated_Source\PSoC5/P2_5.c **** * Summary:
  27:.\Generated_Source\PSoC5/P2_5.c **** *  Starts the Shift Register.
  28:.\Generated_Source\PSoC5/P2_5.c **** *
  29:.\Generated_Source\PSoC5/P2_5.c **** * Parameters:
  30:.\Generated_Source\PSoC5/P2_5.c **** *  None.
  31:.\Generated_Source\PSoC5/P2_5.c **** *
  32:.\Generated_Source\PSoC5/P2_5.c **** * Return:
  33:.\Generated_Source\PSoC5/P2_5.c **** *  None.
  34:.\Generated_Source\PSoC5/P2_5.c **** *
  35:.\Generated_Source\PSoC5/P2_5.c **** * Global Variables:
  36:.\Generated_Source\PSoC5/P2_5.c **** *  P2_5_initVar - used to check initial configuration, modified on
  37:.\Generated_Source\PSoC5/P2_5.c **** *  first function call.
  38:.\Generated_Source\PSoC5/P2_5.c **** *
  39:.\Generated_Source\PSoC5/P2_5.c **** * Reentrant:
  40:.\Generated_Source\PSoC5/P2_5.c **** *  No.
  41:.\Generated_Source\PSoC5/P2_5.c **** *
  42:.\Generated_Source\PSoC5/P2_5.c **** *******************************************************************************/
  43:.\Generated_Source\PSoC5/P2_5.c **** void P2_5_Start(void) 
  44:.\Generated_Source\PSoC5/P2_5.c **** {
 535              		.loc 1 44 0
 536              		.cfi_startproc
 537              		@ args = 0, pretend = 0, frame = 0
 538              		@ frame_needed = 0, uses_anonymous_args = 0
 539 0000 08B5     		push	{r3, lr}
 540              		.cfi_def_cfa_offset 8
 541              		.cfi_offset 3, -8
 542              		.cfi_offset 14, -4
  45:.\Generated_Source\PSoC5/P2_5.c ****     if(0u == P2_5_initVar)
 543              		.loc 1 45 0
 544 0002 0E4A     		ldr	r2, .L5
 545 0004 1378     		ldrb	r3, [r2]	@ zero_extendqisi2
 546 0006 4BB9     		cbnz	r3, .L2
 547              	.LVL0:
 548              	.LBB19:
 549              	.LBB20:
 550              	.LBB21:
  46:.\Generated_Source\PSoC5/P2_5.c ****     {
  47:.\Generated_Source\PSoC5/P2_5.c ****         P2_5_Init();
  48:.\Generated_Source\PSoC5/P2_5.c ****         P2_5_initVar = 1u; /* Component initialized */
  49:.\Generated_Source\PSoC5/P2_5.c ****     }
  50:.\Generated_Source\PSoC5/P2_5.c **** 
  51:.\Generated_Source\PSoC5/P2_5.c ****     P2_5_Enable();
  52:.\Generated_Source\PSoC5/P2_5.c **** }
  53:.\Generated_Source\PSoC5/P2_5.c **** 
  54:.\Generated_Source\PSoC5/P2_5.c **** 
ARM GAS  C:\Users\Thomas\AppData\Local\Temp\cck4Ar4a.s 			page 42


  55:.\Generated_Source\PSoC5/P2_5.c **** /*******************************************************************************
  56:.\Generated_Source\PSoC5/P2_5.c **** * Function Name: P2_5_Enable
  57:.\Generated_Source\PSoC5/P2_5.c **** ********************************************************************************
  58:.\Generated_Source\PSoC5/P2_5.c **** *
  59:.\Generated_Source\PSoC5/P2_5.c **** * Summary:
  60:.\Generated_Source\PSoC5/P2_5.c **** *  Enables the Shift Register.
  61:.\Generated_Source\PSoC5/P2_5.c **** *
  62:.\Generated_Source\PSoC5/P2_5.c **** * Parameters:
  63:.\Generated_Source\PSoC5/P2_5.c **** *  void.
  64:.\Generated_Source\PSoC5/P2_5.c **** *
  65:.\Generated_Source\PSoC5/P2_5.c **** * Return:
  66:.\Generated_Source\PSoC5/P2_5.c **** *  void.
  67:.\Generated_Source\PSoC5/P2_5.c **** *
  68:.\Generated_Source\PSoC5/P2_5.c **** *******************************************************************************/
  69:.\Generated_Source\PSoC5/P2_5.c **** void P2_5_Enable(void) 
  70:.\Generated_Source\PSoC5/P2_5.c **** {
  71:.\Generated_Source\PSoC5/P2_5.c ****     /* Changing address in Datapath Control Store
  72:.\Generated_Source\PSoC5/P2_5.c ****        from NOP to component state machine commands space */
  73:.\Generated_Source\PSoC5/P2_5.c ****     P2_5_SR_CONTROL |= P2_5_CLK_EN;
  74:.\Generated_Source\PSoC5/P2_5.c **** 
  75:.\Generated_Source\PSoC5/P2_5.c ****     P2_5_EnableInt();
  76:.\Generated_Source\PSoC5/P2_5.c **** }
  77:.\Generated_Source\PSoC5/P2_5.c **** 
  78:.\Generated_Source\PSoC5/P2_5.c **** 
  79:.\Generated_Source\PSoC5/P2_5.c **** /*******************************************************************************
  80:.\Generated_Source\PSoC5/P2_5.c **** * Function Name: P2_5_Init
  81:.\Generated_Source\PSoC5/P2_5.c **** ********************************************************************************
  82:.\Generated_Source\PSoC5/P2_5.c **** *
  83:.\Generated_Source\PSoC5/P2_5.c **** * Summary:
  84:.\Generated_Source\PSoC5/P2_5.c **** *  Initializes Tx and/or Rx interrupt sources with initial values.
  85:.\Generated_Source\PSoC5/P2_5.c **** *
  86:.\Generated_Source\PSoC5/P2_5.c **** * Parameters:
  87:.\Generated_Source\PSoC5/P2_5.c **** *  void.
  88:.\Generated_Source\PSoC5/P2_5.c **** *
  89:.\Generated_Source\PSoC5/P2_5.c **** * Return:
  90:.\Generated_Source\PSoC5/P2_5.c **** *  void.
  91:.\Generated_Source\PSoC5/P2_5.c **** *
  92:.\Generated_Source\PSoC5/P2_5.c **** *******************************************************************************/
  93:.\Generated_Source\PSoC5/P2_5.c **** void P2_5_Init(void) 
  94:.\Generated_Source\PSoC5/P2_5.c **** {
  95:.\Generated_Source\PSoC5/P2_5.c ****     P2_5_SetIntMode(P2_5_INT_SRC);
  96:.\Generated_Source\PSoC5/P2_5.c **** }
  97:.\Generated_Source\PSoC5/P2_5.c **** 
  98:.\Generated_Source\PSoC5/P2_5.c **** 
  99:.\Generated_Source\PSoC5/P2_5.c **** /*******************************************************************************
 100:.\Generated_Source\PSoC5/P2_5.c **** * Function Name: P2_5_Stop
 101:.\Generated_Source\PSoC5/P2_5.c **** ********************************************************************************
 102:.\Generated_Source\PSoC5/P2_5.c **** *
 103:.\Generated_Source\PSoC5/P2_5.c **** * Summary:
 104:.\Generated_Source\PSoC5/P2_5.c **** *  Disables the Shift Register
 105:.\Generated_Source\PSoC5/P2_5.c **** *
 106:.\Generated_Source\PSoC5/P2_5.c **** * Parameters:
 107:.\Generated_Source\PSoC5/P2_5.c **** *  None.
 108:.\Generated_Source\PSoC5/P2_5.c **** *
 109:.\Generated_Source\PSoC5/P2_5.c **** * Return:
 110:.\Generated_Source\PSoC5/P2_5.c **** *  None.
 111:.\Generated_Source\PSoC5/P2_5.c **** *
ARM GAS  C:\Users\Thomas\AppData\Local\Temp\cck4Ar4a.s 			page 43


 112:.\Generated_Source\PSoC5/P2_5.c **** *******************************************************************************/
 113:.\Generated_Source\PSoC5/P2_5.c **** void P2_5_Stop(void) 
 114:.\Generated_Source\PSoC5/P2_5.c **** {
 115:.\Generated_Source\PSoC5/P2_5.c ****     /*changing Datapath Control Store address to NOP space*/
 116:.\Generated_Source\PSoC5/P2_5.c ****     P2_5_SR_CONTROL &= ((uint8) ~P2_5_CLK_EN);
 117:.\Generated_Source\PSoC5/P2_5.c ****     P2_5_DisableInt();
 118:.\Generated_Source\PSoC5/P2_5.c **** }
 119:.\Generated_Source\PSoC5/P2_5.c **** 
 120:.\Generated_Source\PSoC5/P2_5.c **** 
 121:.\Generated_Source\PSoC5/P2_5.c **** /*******************************************************************************
 122:.\Generated_Source\PSoC5/P2_5.c **** * Function Name: P2_5_EnableInt
 123:.\Generated_Source\PSoC5/P2_5.c **** ********************************************************************************
 124:.\Generated_Source\PSoC5/P2_5.c **** *
 125:.\Generated_Source\PSoC5/P2_5.c **** * Summary:
 126:.\Generated_Source\PSoC5/P2_5.c **** *  Enables the Shift Register interrupt.
 127:.\Generated_Source\PSoC5/P2_5.c **** *
 128:.\Generated_Source\PSoC5/P2_5.c **** * Parameters:
 129:.\Generated_Source\PSoC5/P2_5.c **** *  None.
 130:.\Generated_Source\PSoC5/P2_5.c **** *
 131:.\Generated_Source\PSoC5/P2_5.c **** * Return:
 132:.\Generated_Source\PSoC5/P2_5.c **** *  None.
 133:.\Generated_Source\PSoC5/P2_5.c **** *
 134:.\Generated_Source\PSoC5/P2_5.c **** *******************************************************************************/
 135:.\Generated_Source\PSoC5/P2_5.c **** void P2_5_EnableInt(void) 
 136:.\Generated_Source\PSoC5/P2_5.c **** {
 137:.\Generated_Source\PSoC5/P2_5.c ****     uint8 interruptState;
 138:.\Generated_Source\PSoC5/P2_5.c **** 
 139:.\Generated_Source\PSoC5/P2_5.c ****     interruptState = CyEnterCriticalSection();
 140:.\Generated_Source\PSoC5/P2_5.c ****     P2_5_SR_AUX_CONTROL |= P2_5_INTERRUPTS_ENABLE;
 141:.\Generated_Source\PSoC5/P2_5.c ****     CyExitCriticalSection(interruptState);
 142:.\Generated_Source\PSoC5/P2_5.c **** }
 143:.\Generated_Source\PSoC5/P2_5.c **** 
 144:.\Generated_Source\PSoC5/P2_5.c **** 
 145:.\Generated_Source\PSoC5/P2_5.c **** /*******************************************************************************
 146:.\Generated_Source\PSoC5/P2_5.c **** * Function Name: P2_5_DisableInt
 147:.\Generated_Source\PSoC5/P2_5.c **** ********************************************************************************
 148:.\Generated_Source\PSoC5/P2_5.c **** *
 149:.\Generated_Source\PSoC5/P2_5.c **** * Summary:
 150:.\Generated_Source\PSoC5/P2_5.c **** *  Disables the Shift Register interrupt.
 151:.\Generated_Source\PSoC5/P2_5.c **** *
 152:.\Generated_Source\PSoC5/P2_5.c **** * Parameters:
 153:.\Generated_Source\PSoC5/P2_5.c **** *  None.
 154:.\Generated_Source\PSoC5/P2_5.c **** *
 155:.\Generated_Source\PSoC5/P2_5.c **** * Return:
 156:.\Generated_Source\PSoC5/P2_5.c **** *  None.
 157:.\Generated_Source\PSoC5/P2_5.c **** *
 158:.\Generated_Source\PSoC5/P2_5.c **** *******************************************************************************/
 159:.\Generated_Source\PSoC5/P2_5.c **** void P2_5_DisableInt(void) 
 160:.\Generated_Source\PSoC5/P2_5.c **** {
 161:.\Generated_Source\PSoC5/P2_5.c ****     uint8 interruptState;
 162:.\Generated_Source\PSoC5/P2_5.c **** 
 163:.\Generated_Source\PSoC5/P2_5.c ****     interruptState = CyEnterCriticalSection();
 164:.\Generated_Source\PSoC5/P2_5.c ****     P2_5_SR_AUX_CONTROL &= ((uint8) ~P2_5_INTERRUPTS_ENABLE);
 165:.\Generated_Source\PSoC5/P2_5.c ****     CyExitCriticalSection(interruptState);
 166:.\Generated_Source\PSoC5/P2_5.c **** }
 167:.\Generated_Source\PSoC5/P2_5.c **** 
 168:.\Generated_Source\PSoC5/P2_5.c **** 
ARM GAS  C:\Users\Thomas\AppData\Local\Temp\cck4Ar4a.s 			page 44


 169:.\Generated_Source\PSoC5/P2_5.c **** /*******************************************************************************
 170:.\Generated_Source\PSoC5/P2_5.c **** * Function Name: P2_5_GetFIFOStatus
 171:.\Generated_Source\PSoC5/P2_5.c **** ********************************************************************************
 172:.\Generated_Source\PSoC5/P2_5.c **** *
 173:.\Generated_Source\PSoC5/P2_5.c **** * Summary:
 174:.\Generated_Source\PSoC5/P2_5.c **** *  Returns current status of input or output FIFO.
 175:.\Generated_Source\PSoC5/P2_5.c **** *
 176:.\Generated_Source\PSoC5/P2_5.c **** * Parameters:
 177:.\Generated_Source\PSoC5/P2_5.c **** *  fifoId.
 178:.\Generated_Source\PSoC5/P2_5.c **** *
 179:.\Generated_Source\PSoC5/P2_5.c **** * Return:
 180:.\Generated_Source\PSoC5/P2_5.c **** *  FIFO status.
 181:.\Generated_Source\PSoC5/P2_5.c **** *
 182:.\Generated_Source\PSoC5/P2_5.c **** *******************************************************************************/
 183:.\Generated_Source\PSoC5/P2_5.c **** uint8 P2_5_GetFIFOStatus(uint8 fifoId) 
 184:.\Generated_Source\PSoC5/P2_5.c **** {
 185:.\Generated_Source\PSoC5/P2_5.c ****     uint8 result;
 186:.\Generated_Source\PSoC5/P2_5.c **** 
 187:.\Generated_Source\PSoC5/P2_5.c ****     result = P2_5_RET_FIFO_NOT_DEFINED;
 188:.\Generated_Source\PSoC5/P2_5.c **** 
 189:.\Generated_Source\PSoC5/P2_5.c ****     #if(0u != P2_5_USE_INPUT_FIFO)
 190:.\Generated_Source\PSoC5/P2_5.c ****         if(P2_5_IN_FIFO == fifoId)
 191:.\Generated_Source\PSoC5/P2_5.c ****         {
 192:.\Generated_Source\PSoC5/P2_5.c ****             switch(P2_5_GET_IN_FIFO_STS)
 193:.\Generated_Source\PSoC5/P2_5.c ****             {
 194:.\Generated_Source\PSoC5/P2_5.c ****                 case P2_5_IN_FIFO_FULL :
 195:.\Generated_Source\PSoC5/P2_5.c ****                     result = P2_5_RET_FIFO_FULL;
 196:.\Generated_Source\PSoC5/P2_5.c ****                     break;
 197:.\Generated_Source\PSoC5/P2_5.c **** 
 198:.\Generated_Source\PSoC5/P2_5.c ****                 case P2_5_IN_FIFO_EMPTY :
 199:.\Generated_Source\PSoC5/P2_5.c ****                     result = P2_5_RET_FIFO_EMPTY;
 200:.\Generated_Source\PSoC5/P2_5.c ****                     break;
 201:.\Generated_Source\PSoC5/P2_5.c **** 
 202:.\Generated_Source\PSoC5/P2_5.c ****                 case P2_5_IN_FIFO_PARTIAL:
 203:.\Generated_Source\PSoC5/P2_5.c ****                     result = P2_5_RET_FIFO_PARTIAL;
 204:.\Generated_Source\PSoC5/P2_5.c ****                     break;
 205:.\Generated_Source\PSoC5/P2_5.c ****                     
 206:.\Generated_Source\PSoC5/P2_5.c ****                 default:
 207:.\Generated_Source\PSoC5/P2_5.c ****                     /* Initial result value, while 
 208:.\Generated_Source\PSoC5/P2_5.c ****                        IN_FIFO_EMPTY case is false 
 209:.\Generated_Source\PSoC5/P2_5.c ****                      */
 210:.\Generated_Source\PSoC5/P2_5.c ****                     result = P2_5_RET_FIFO_EMPTY;
 211:.\Generated_Source\PSoC5/P2_5.c ****                     break;
 212:.\Generated_Source\PSoC5/P2_5.c ****             }   
 213:.\Generated_Source\PSoC5/P2_5.c ****         }
 214:.\Generated_Source\PSoC5/P2_5.c ****     #endif /* (0u != P2_5_USE_INPUT_FIFO) */
 215:.\Generated_Source\PSoC5/P2_5.c **** 
 216:.\Generated_Source\PSoC5/P2_5.c ****     if(P2_5_OUT_FIFO == fifoId)
 217:.\Generated_Source\PSoC5/P2_5.c ****     {
 218:.\Generated_Source\PSoC5/P2_5.c ****         switch(P2_5_GET_OUT_FIFO_STS)
 219:.\Generated_Source\PSoC5/P2_5.c ****         {
 220:.\Generated_Source\PSoC5/P2_5.c ****             case P2_5_OUT_FIFO_FULL :
 221:.\Generated_Source\PSoC5/P2_5.c ****                 result = P2_5_RET_FIFO_FULL;
 222:.\Generated_Source\PSoC5/P2_5.c ****                 break;
 223:.\Generated_Source\PSoC5/P2_5.c **** 
 224:.\Generated_Source\PSoC5/P2_5.c ****             case P2_5_OUT_FIFO_EMPTY :
 225:.\Generated_Source\PSoC5/P2_5.c ****                 result = P2_5_RET_FIFO_EMPTY;
ARM GAS  C:\Users\Thomas\AppData\Local\Temp\cck4Ar4a.s 			page 45


 226:.\Generated_Source\PSoC5/P2_5.c ****                 break;
 227:.\Generated_Source\PSoC5/P2_5.c **** 
 228:.\Generated_Source\PSoC5/P2_5.c ****             case P2_5_OUT_FIFO_PARTIAL :
 229:.\Generated_Source\PSoC5/P2_5.c ****                 result = P2_5_RET_FIFO_PARTIAL;
 230:.\Generated_Source\PSoC5/P2_5.c ****                 break;
 231:.\Generated_Source\PSoC5/P2_5.c **** 
 232:.\Generated_Source\PSoC5/P2_5.c ****             default:
 233:.\Generated_Source\PSoC5/P2_5.c ****                 /* Initial result value, while 
 234:.\Generated_Source\PSoC5/P2_5.c ****                    OUT_FIFO_FULL case is false 
 235:.\Generated_Source\PSoC5/P2_5.c ****                  */
 236:.\Generated_Source\PSoC5/P2_5.c ****                 result = P2_5_RET_FIFO_FULL;
 237:.\Generated_Source\PSoC5/P2_5.c ****                 break;
 238:.\Generated_Source\PSoC5/P2_5.c ****         }
 239:.\Generated_Source\PSoC5/P2_5.c ****     }
 240:.\Generated_Source\PSoC5/P2_5.c **** 
 241:.\Generated_Source\PSoC5/P2_5.c ****     return(result);
 242:.\Generated_Source\PSoC5/P2_5.c **** }
 243:.\Generated_Source\PSoC5/P2_5.c **** 
 244:.\Generated_Source\PSoC5/P2_5.c **** 
 245:.\Generated_Source\PSoC5/P2_5.c **** /*******************************************************************************
 246:.\Generated_Source\PSoC5/P2_5.c **** * Function Name: P2_5_SetIntMode
 247:.\Generated_Source\PSoC5/P2_5.c **** ********************************************************************************
 248:.\Generated_Source\PSoC5/P2_5.c **** *
 249:.\Generated_Source\PSoC5/P2_5.c **** * Summary:
 250:.\Generated_Source\PSoC5/P2_5.c **** *  Sets the Interrupt Source for the Shift Register interrupt. Multiple
 251:.\Generated_Source\PSoC5/P2_5.c **** *  sources may be ORed together
 252:.\Generated_Source\PSoC5/P2_5.c **** *
 253:.\Generated_Source\PSoC5/P2_5.c **** * Parameters:
 254:.\Generated_Source\PSoC5/P2_5.c **** *  interruptSource: Byte containing the constant for the selected interrupt
 255:.\Generated_Source\PSoC5/P2_5.c **** *  source/s.
 256:.\Generated_Source\PSoC5/P2_5.c **** *
 257:.\Generated_Source\PSoC5/P2_5.c **** * Return:
 258:.\Generated_Source\PSoC5/P2_5.c **** *  None.
 259:.\Generated_Source\PSoC5/P2_5.c **** *
 260:.\Generated_Source\PSoC5/P2_5.c **** *******************************************************************************/
 261:.\Generated_Source\PSoC5/P2_5.c **** void P2_5_SetIntMode(uint8 interruptSource) 
 262:.\Generated_Source\PSoC5/P2_5.c **** {
 263:.\Generated_Source\PSoC5/P2_5.c ****     P2_5_SR_STATUS_MASK &= ((uint8) ~P2_5_INTS_EN_MASK);          /* Clear existing int */
 551              		.loc 1 263 0
 552 0008 0D4B     		ldr	r3, .L5+4
 553              	.LBE21:
 554              	.LBE20:
 555              	.LBE19:
  48:.\Generated_Source\PSoC5/P2_5.c ****     }
 556              		.loc 1 48 0
 557 000a 0120     		movs	r0, #1
 558              	.LBB24:
 559              	.LBB23:
 560              	.LBB22:
 561              		.loc 1 263 0
 562 000c 1978     		ldrb	r1, [r3]	@ zero_extendqisi2
 563 000e 01F0F801 		and	r1, r1, #248
 564 0012 1970     		strb	r1, [r3]
 264:.\Generated_Source\PSoC5/P2_5.c ****     P2_5_SR_STATUS_MASK |= (interruptSource & P2_5_INTS_EN_MASK); /* Set int */
 565              		.loc 1 264 0
 566 0014 1978     		ldrb	r1, [r3]	@ zero_extendqisi2
 567 0016 0143     		orrs	r1, r1, r0
ARM GAS  C:\Users\Thomas\AppData\Local\Temp\cck4Ar4a.s 			page 46


 568 0018 1970     		strb	r1, [r3]
 569              	.LBE22:
 570              	.LBE23:
 571              	.LBE24:
  48:.\Generated_Source\PSoC5/P2_5.c ****     }
 572              		.loc 1 48 0
 573 001a 1070     		strb	r0, [r2]
 574              	.LVL1:
 575              	.L2:
 576              	.LBB25:
 577              	.LBB26:
  73:.\Generated_Source\PSoC5/P2_5.c **** 
 578              		.loc 1 73 0
 579 001c 094A     		ldr	r2, .L5+8
 580 001e 1378     		ldrb	r3, [r2]	@ zero_extendqisi2
 581 0020 43F00103 		orr	r3, r3, #1
 582 0024 1370     		strb	r3, [r2]
 583              	.LBB27:
 584              	.LBB28:
 139:.\Generated_Source\PSoC5/P2_5.c ****     P2_5_SR_AUX_CONTROL |= P2_5_INTERRUPTS_ENABLE;
 585              		.loc 1 139 0
 586 0026 FFF7FEFF 		bl	CyEnterCriticalSection
 587              	.LVL2:
 140:.\Generated_Source\PSoC5/P2_5.c ****     CyExitCriticalSection(interruptState);
 588              		.loc 1 140 0
 589 002a 074A     		ldr	r2, .L5+12
 590 002c 1378     		ldrb	r3, [r2]	@ zero_extendqisi2
 591 002e 43F01003 		orr	r3, r3, #16
 592 0032 1370     		strb	r3, [r2]
 593              	.LBE28:
 594              	.LBE27:
 595              	.LBE26:
 596              	.LBE25:
  52:.\Generated_Source\PSoC5/P2_5.c **** 
 597              		.loc 1 52 0
 598 0034 BDE80840 		pop	{r3, lr}
 599              		.cfi_restore 14
 600              		.cfi_restore 3
 601              		.cfi_def_cfa_offset 0
 602              	.LBB32:
 603              	.LBB31:
 604              	.LBB30:
 605              	.LBB29:
 141:.\Generated_Source\PSoC5/P2_5.c **** }
 606              		.loc 1 141 0
 607 0038 FFF7FEBF 		b	CyExitCriticalSection
 608              	.LVL3:
 609              	.L6:
 610              		.align	2
 611              	.L5:
 612 003c 00000000 		.word	.LANCHOR0
 613 0040 85640040 		.word	1073767557
 614 0044 75640040 		.word	1073767541
 615 0048 95640040 		.word	1073767573
 616              	.LBE29:
 617              	.LBE30:
 618              	.LBE31:
ARM GAS  C:\Users\Thomas\AppData\Local\Temp\cck4Ar4a.s 			page 47


 619              	.LBE32:
 620              		.cfi_endproc
 621              	.LFE0:
 622              		.size	P2_5_Start, .-P2_5_Start
 623              		.section	.text.P2_5_Enable,"ax",%progbits
 624              		.align	2
 625              		.global	P2_5_Enable
 626              		.thumb
 627              		.thumb_func
 628              		.type	P2_5_Enable, %function
 629              	P2_5_Enable:
 630              	.LFB1:
  70:.\Generated_Source\PSoC5/P2_5.c ****     /* Changing address in Datapath Control Store
 631              		.loc 1 70 0
 632              		.cfi_startproc
 633              		@ args = 0, pretend = 0, frame = 0
 634              		@ frame_needed = 0, uses_anonymous_args = 0
 635 0000 08B5     		push	{r3, lr}
 636              		.cfi_def_cfa_offset 8
 637              		.cfi_offset 3, -8
 638              		.cfi_offset 14, -4
  73:.\Generated_Source\PSoC5/P2_5.c **** 
 639              		.loc 1 73 0
 640 0002 084A     		ldr	r2, .L9
 641 0004 1378     		ldrb	r3, [r2]	@ zero_extendqisi2
 642 0006 43F00103 		orr	r3, r3, #1
 643 000a 1370     		strb	r3, [r2]
 644              	.LBB35:
 645              	.LBB36:
 139:.\Generated_Source\PSoC5/P2_5.c ****     P2_5_SR_AUX_CONTROL |= P2_5_INTERRUPTS_ENABLE;
 646              		.loc 1 139 0
 647 000c FFF7FEFF 		bl	CyEnterCriticalSection
 648              	.LVL4:
 140:.\Generated_Source\PSoC5/P2_5.c ****     CyExitCriticalSection(interruptState);
 649              		.loc 1 140 0
 650 0010 054A     		ldr	r2, .L9+4
 651 0012 1378     		ldrb	r3, [r2]	@ zero_extendqisi2
 652 0014 43F01003 		orr	r3, r3, #16
 653 0018 1370     		strb	r3, [r2]
 654              	.LBE36:
 655              	.LBE35:
  76:.\Generated_Source\PSoC5/P2_5.c **** 
 656              		.loc 1 76 0
 657 001a BDE80840 		pop	{r3, lr}
 658              		.cfi_restore 14
 659              		.cfi_restore 3
 660              		.cfi_def_cfa_offset 0
 661              	.LBB38:
 662              	.LBB37:
 141:.\Generated_Source\PSoC5/P2_5.c **** }
 663              		.loc 1 141 0
 664 001e FFF7FEBF 		b	CyExitCriticalSection
 665              	.LVL5:
 666              	.L10:
 667 0022 00BF     		.align	2
 668              	.L9:
 669 0024 75640040 		.word	1073767541
ARM GAS  C:\Users\Thomas\AppData\Local\Temp\cck4Ar4a.s 			page 48


 670 0028 95640040 		.word	1073767573
 671              	.LBE37:
 672              	.LBE38:
 673              		.cfi_endproc
 674              	.LFE1:
 675              		.size	P2_5_Enable, .-P2_5_Enable
 676              		.section	.text.P2_5_Init,"ax",%progbits
 677              		.align	2
 678              		.global	P2_5_Init
 679              		.thumb
 680              		.thumb_func
 681              		.type	P2_5_Init, %function
 682              	P2_5_Init:
 683              	.LFB2:
  94:.\Generated_Source\PSoC5/P2_5.c ****     P2_5_SetIntMode(P2_5_INT_SRC);
 684              		.loc 1 94 0
 685              		.cfi_startproc
 686              		@ args = 0, pretend = 0, frame = 0
 687              		@ frame_needed = 0, uses_anonymous_args = 0
 688              		@ link register save eliminated.
 689              	.LVL6:
 690              	.LBB39:
 691              	.LBB40:
 263:.\Generated_Source\PSoC5/P2_5.c ****     P2_5_SR_STATUS_MASK |= (interruptSource & P2_5_INTS_EN_MASK); /* Set int */
 692              		.loc 1 263 0
 693 0000 044B     		ldr	r3, .L12
 694 0002 1A78     		ldrb	r2, [r3]	@ zero_extendqisi2
 695 0004 02F0F802 		and	r2, r2, #248
 696 0008 1A70     		strb	r2, [r3]
 697              		.loc 1 264 0
 698 000a 1A78     		ldrb	r2, [r3]	@ zero_extendqisi2
 699 000c 42F00102 		orr	r2, r2, #1
 700 0010 1A70     		strb	r2, [r3]
 701 0012 7047     		bx	lr
 702              	.L13:
 703              		.align	2
 704              	.L12:
 705 0014 85640040 		.word	1073767557
 706              	.LBE40:
 707              	.LBE39:
 708              		.cfi_endproc
 709              	.LFE2:
 710              		.size	P2_5_Init, .-P2_5_Init
 711              		.section	.text.P2_5_Stop,"ax",%progbits
 712              		.align	2
 713              		.global	P2_5_Stop
 714              		.thumb
 715              		.thumb_func
 716              		.type	P2_5_Stop, %function
 717              	P2_5_Stop:
 718              	.LFB3:
 114:.\Generated_Source\PSoC5/P2_5.c ****     /*changing Datapath Control Store address to NOP space*/
 719              		.loc 1 114 0
 720              		.cfi_startproc
 721              		@ args = 0, pretend = 0, frame = 0
 722              		@ frame_needed = 0, uses_anonymous_args = 0
 723 0000 08B5     		push	{r3, lr}
ARM GAS  C:\Users\Thomas\AppData\Local\Temp\cck4Ar4a.s 			page 49


 724              		.cfi_def_cfa_offset 8
 725              		.cfi_offset 3, -8
 726              		.cfi_offset 14, -4
 116:.\Generated_Source\PSoC5/P2_5.c ****     P2_5_DisableInt();
 727              		.loc 1 116 0
 728 0002 084A     		ldr	r2, .L16
 729 0004 1378     		ldrb	r3, [r2]	@ zero_extendqisi2
 730 0006 03F0FE03 		and	r3, r3, #254
 731 000a 1370     		strb	r3, [r2]
 732              	.LBB43:
 733              	.LBB44:
 163:.\Generated_Source\PSoC5/P2_5.c ****     P2_5_SR_AUX_CONTROL &= ((uint8) ~P2_5_INTERRUPTS_ENABLE);
 734              		.loc 1 163 0
 735 000c FFF7FEFF 		bl	CyEnterCriticalSection
 736              	.LVL7:
 164:.\Generated_Source\PSoC5/P2_5.c ****     CyExitCriticalSection(interruptState);
 737              		.loc 1 164 0
 738 0010 054A     		ldr	r2, .L16+4
 739 0012 1378     		ldrb	r3, [r2]	@ zero_extendqisi2
 740 0014 03F0EF03 		and	r3, r3, #239
 741 0018 1370     		strb	r3, [r2]
 742              	.LBE44:
 743              	.LBE43:
 118:.\Generated_Source\PSoC5/P2_5.c **** 
 744              		.loc 1 118 0
 745 001a BDE80840 		pop	{r3, lr}
 746              		.cfi_restore 14
 747              		.cfi_restore 3
 748              		.cfi_def_cfa_offset 0
 749              	.LBB46:
 750              	.LBB45:
 165:.\Generated_Source\PSoC5/P2_5.c **** }
 751              		.loc 1 165 0
 752 001e FFF7FEBF 		b	CyExitCriticalSection
 753              	.LVL8:
 754              	.L17:
 755 0022 00BF     		.align	2
 756              	.L16:
 757 0024 75640040 		.word	1073767541
 758 0028 95640040 		.word	1073767573
 759              	.LBE45:
 760              	.LBE46:
 761              		.cfi_endproc
 762              	.LFE3:
 763              		.size	P2_5_Stop, .-P2_5_Stop
 764              		.section	.text.P2_5_EnableInt,"ax",%progbits
 765              		.align	2
 766              		.global	P2_5_EnableInt
 767              		.thumb
 768              		.thumb_func
 769              		.type	P2_5_EnableInt, %function
 770              	P2_5_EnableInt:
 771              	.LFB4:
 136:.\Generated_Source\PSoC5/P2_5.c ****     uint8 interruptState;
 772              		.loc 1 136 0
 773              		.cfi_startproc
 774              		@ args = 0, pretend = 0, frame = 0
ARM GAS  C:\Users\Thomas\AppData\Local\Temp\cck4Ar4a.s 			page 50


 775              		@ frame_needed = 0, uses_anonymous_args = 0
 776 0000 08B5     		push	{r3, lr}
 777              		.cfi_def_cfa_offset 8
 778              		.cfi_offset 3, -8
 779              		.cfi_offset 14, -4
 139:.\Generated_Source\PSoC5/P2_5.c ****     P2_5_SR_AUX_CONTROL |= P2_5_INTERRUPTS_ENABLE;
 780              		.loc 1 139 0
 781 0002 FFF7FEFF 		bl	CyEnterCriticalSection
 782              	.LVL9:
 140:.\Generated_Source\PSoC5/P2_5.c ****     CyExitCriticalSection(interruptState);
 783              		.loc 1 140 0
 784 0006 044A     		ldr	r2, .L20
 785 0008 1378     		ldrb	r3, [r2]	@ zero_extendqisi2
 786 000a 43F01003 		orr	r3, r3, #16
 787 000e 1370     		strb	r3, [r2]
 142:.\Generated_Source\PSoC5/P2_5.c **** 
 788              		.loc 1 142 0
 789 0010 BDE80840 		pop	{r3, lr}
 790              		.cfi_restore 14
 791              		.cfi_restore 3
 792              		.cfi_def_cfa_offset 0
 141:.\Generated_Source\PSoC5/P2_5.c **** }
 793              		.loc 1 141 0
 794 0014 FFF7FEBF 		b	CyExitCriticalSection
 795              	.LVL10:
 796              	.L21:
 797              		.align	2
 798              	.L20:
 799 0018 95640040 		.word	1073767573
 800              		.cfi_endproc
 801              	.LFE4:
 802              		.size	P2_5_EnableInt, .-P2_5_EnableInt
 803              		.section	.text.P2_5_DisableInt,"ax",%progbits
 804              		.align	2
 805              		.global	P2_5_DisableInt
 806              		.thumb
 807              		.thumb_func
 808              		.type	P2_5_DisableInt, %function
 809              	P2_5_DisableInt:
 810              	.LFB5:
 160:.\Generated_Source\PSoC5/P2_5.c ****     uint8 interruptState;
 811              		.loc 1 160 0
 812              		.cfi_startproc
 813              		@ args = 0, pretend = 0, frame = 0
 814              		@ frame_needed = 0, uses_anonymous_args = 0
 815 0000 08B5     		push	{r3, lr}
 816              		.cfi_def_cfa_offset 8
 817              		.cfi_offset 3, -8
 818              		.cfi_offset 14, -4
 163:.\Generated_Source\PSoC5/P2_5.c ****     P2_5_SR_AUX_CONTROL &= ((uint8) ~P2_5_INTERRUPTS_ENABLE);
 819              		.loc 1 163 0
 820 0002 FFF7FEFF 		bl	CyEnterCriticalSection
 821              	.LVL11:
 164:.\Generated_Source\PSoC5/P2_5.c ****     CyExitCriticalSection(interruptState);
 822              		.loc 1 164 0
 823 0006 044A     		ldr	r2, .L24
 824 0008 1378     		ldrb	r3, [r2]	@ zero_extendqisi2
ARM GAS  C:\Users\Thomas\AppData\Local\Temp\cck4Ar4a.s 			page 51


 825 000a 03F0EF03 		and	r3, r3, #239
 826 000e 1370     		strb	r3, [r2]
 166:.\Generated_Source\PSoC5/P2_5.c **** 
 827              		.loc 1 166 0
 828 0010 BDE80840 		pop	{r3, lr}
 829              		.cfi_restore 14
 830              		.cfi_restore 3
 831              		.cfi_def_cfa_offset 0
 165:.\Generated_Source\PSoC5/P2_5.c **** }
 832              		.loc 1 165 0
 833 0014 FFF7FEBF 		b	CyExitCriticalSection
 834              	.LVL12:
 835              	.L25:
 836              		.align	2
 837              	.L24:
 838 0018 95640040 		.word	1073767573
 839              		.cfi_endproc
 840              	.LFE5:
 841              		.size	P2_5_DisableInt, .-P2_5_DisableInt
 842              		.section	.text.P2_5_GetFIFOStatus,"ax",%progbits
 843              		.align	2
 844              		.global	P2_5_GetFIFOStatus
 845              		.thumb
 846              		.thumb_func
 847              		.type	P2_5_GetFIFOStatus, %function
 848              	P2_5_GetFIFOStatus:
 849              	.LFB6:
 184:.\Generated_Source\PSoC5/P2_5.c ****     uint8 result;
 850              		.loc 1 184 0
 851              		.cfi_startproc
 852              		@ args = 0, pretend = 0, frame = 0
 853              		@ frame_needed = 0, uses_anonymous_args = 0
 854              		@ link register save eliminated.
 855              	.LVL13:
 216:.\Generated_Source\PSoC5/P2_5.c ****     {
 856              		.loc 1 216 0
 857 0000 0228     		cmp	r0, #2
 858 0002 01D0     		beq	.L32
 187:.\Generated_Source\PSoC5/P2_5.c **** 
 859              		.loc 1 187 0
 860 0004 FE20     		movs	r0, #254
 861              	.LVL14:
 862              	.L27:
 242:.\Generated_Source\PSoC5/P2_5.c **** 
 863              		.loc 1 242 0
 864 0006 7047     		bx	lr
 865              	.LVL15:
 866              	.L32:
 867              	.LBB49:
 868              	.LBB50:
 218:.\Generated_Source\PSoC5/P2_5.c ****         {
 869              		.loc 1 218 0
 870 0008 054B     		ldr	r3, .L33
 871 000a 1B78     		ldrb	r3, [r3]	@ zero_extendqisi2
 872 000c C3F34113 		ubfx	r3, r3, #5, #2
 873 0010 002B     		cmp	r3, #0
 874 0012 F8D0     		beq	.L27
ARM GAS  C:\Users\Thomas\AppData\Local\Temp\cck4Ar4a.s 			page 52


 221:.\Generated_Source\PSoC5/P2_5.c ****                 break;
 875              		.loc 1 221 0
 876 0014 A3F10200 		sub	r0, r3, #2
 877              	.LVL16:
 878 0018 B0FA80F0 		clz	r0, r0
 879 001c 4009     		lsrs	r0, r0, #5
 880 001e 7047     		bx	lr
 881              	.L34:
 882              		.align	2
 883              	.L33:
 884 0020 65640040 		.word	1073767525
 885              	.LBE50:
 886              	.LBE49:
 887              		.cfi_endproc
 888              	.LFE6:
 889              		.size	P2_5_GetFIFOStatus, .-P2_5_GetFIFOStatus
 890              		.section	.text.P2_5_SetIntMode,"ax",%progbits
 891              		.align	2
 892              		.global	P2_5_SetIntMode
 893              		.thumb
 894              		.thumb_func
 895              		.type	P2_5_SetIntMode, %function
 896              	P2_5_SetIntMode:
 897              	.LFB7:
 262:.\Generated_Source\PSoC5/P2_5.c ****     P2_5_SR_STATUS_MASK &= ((uint8) ~P2_5_INTS_EN_MASK);          /* Clear existing int */
 898              		.loc 1 262 0
 899              		.cfi_startproc
 900              		@ args = 0, pretend = 0, frame = 0
 901              		@ frame_needed = 0, uses_anonymous_args = 0
 902              		@ link register save eliminated.
 903              	.LVL17:
 263:.\Generated_Source\PSoC5/P2_5.c ****     P2_5_SR_STATUS_MASK |= (interruptSource & P2_5_INTS_EN_MASK); /* Set int */
 904              		.loc 1 263 0
 905 0000 054B     		ldr	r3, .L36
 906              		.loc 1 264 0
 907 0002 00F00700 		and	r0, r0, #7
 908              	.LVL18:
 263:.\Generated_Source\PSoC5/P2_5.c ****     P2_5_SR_STATUS_MASK |= (interruptSource & P2_5_INTS_EN_MASK); /* Set int */
 909              		.loc 1 263 0
 910 0006 1A78     		ldrb	r2, [r3]	@ zero_extendqisi2
 911 0008 02F0F802 		and	r2, r2, #248
 912 000c 1A70     		strb	r2, [r3]
 913              		.loc 1 264 0
 914 000e 1A78     		ldrb	r2, [r3]	@ zero_extendqisi2
 915 0010 1043     		orrs	r0, r0, r2
 916 0012 1870     		strb	r0, [r3]
 917 0014 7047     		bx	lr
 918              	.L37:
 919 0016 00BF     		.align	2
 920              	.L36:
 921 0018 85640040 		.word	1073767557
 922              		.cfi_endproc
 923              	.LFE7:
 924              		.size	P2_5_SetIntMode, .-P2_5_SetIntMode
 925              		.section	.text.P2_5_GetIntStatus,"ax",%progbits
 926              		.align	2
 927              		.global	P2_5_GetIntStatus
ARM GAS  C:\Users\Thomas\AppData\Local\Temp\cck4Ar4a.s 			page 53


 928              		.thumb
 929              		.thumb_func
 930              		.type	P2_5_GetIntStatus, %function
 931              	P2_5_GetIntStatus:
 932              	.LFB8:
 265:.\Generated_Source\PSoC5/P2_5.c **** }
 266:.\Generated_Source\PSoC5/P2_5.c **** 
 267:.\Generated_Source\PSoC5/P2_5.c **** 
 268:.\Generated_Source\PSoC5/P2_5.c **** /*******************************************************************************
 269:.\Generated_Source\PSoC5/P2_5.c **** * Function Name: P2_5_GetIntStatus
 270:.\Generated_Source\PSoC5/P2_5.c **** ********************************************************************************
 271:.\Generated_Source\PSoC5/P2_5.c **** *
 272:.\Generated_Source\PSoC5/P2_5.c **** * Summary:
 273:.\Generated_Source\PSoC5/P2_5.c **** *  Gets the Shift Register Interrupt status.
 274:.\Generated_Source\PSoC5/P2_5.c **** *
 275:.\Generated_Source\PSoC5/P2_5.c **** * Parameters:
 276:.\Generated_Source\PSoC5/P2_5.c **** *  None.
 277:.\Generated_Source\PSoC5/P2_5.c **** *
 278:.\Generated_Source\PSoC5/P2_5.c **** * Return:
 279:.\Generated_Source\PSoC5/P2_5.c **** *  Byte containing the constant for the selected interrupt source/s.
 280:.\Generated_Source\PSoC5/P2_5.c **** *
 281:.\Generated_Source\PSoC5/P2_5.c **** *******************************************************************************/
 282:.\Generated_Source\PSoC5/P2_5.c **** uint8 P2_5_GetIntStatus(void) 
 283:.\Generated_Source\PSoC5/P2_5.c **** {
 933              		.loc 1 283 0
 934              		.cfi_startproc
 935              		@ args = 0, pretend = 0, frame = 0
 936              		@ frame_needed = 0, uses_anonymous_args = 0
 937              		@ link register save eliminated.
 284:.\Generated_Source\PSoC5/P2_5.c ****     return(P2_5_SR_STATUS & P2_5_INTS_EN_MASK);
 938              		.loc 1 284 0
 939 0000 024B     		ldr	r3, .L39
 940 0002 1878     		ldrb	r0, [r3]	@ zero_extendqisi2
 285:.\Generated_Source\PSoC5/P2_5.c **** }
 941              		.loc 1 285 0
 942 0004 00F00700 		and	r0, r0, #7
 943 0008 7047     		bx	lr
 944              	.L40:
 945 000a 00BF     		.align	2
 946              	.L39:
 947 000c 65640040 		.word	1073767525
 948              		.cfi_endproc
 949              	.LFE8:
 950              		.size	P2_5_GetIntStatus, .-P2_5_GetIntStatus
 951              		.section	.text.P2_5_WriteRegValue,"ax",%progbits
 952              		.align	2
 953              		.global	P2_5_WriteRegValue
 954              		.thumb
 955              		.thumb_func
 956              		.type	P2_5_WriteRegValue, %function
 957              	P2_5_WriteRegValue:
 958              	.LFB9:
 286:.\Generated_Source\PSoC5/P2_5.c **** 
 287:.\Generated_Source\PSoC5/P2_5.c **** 
 288:.\Generated_Source\PSoC5/P2_5.c **** /*******************************************************************************
 289:.\Generated_Source\PSoC5/P2_5.c **** * Function Name: P2_5_WriteRegValue
 290:.\Generated_Source\PSoC5/P2_5.c **** ********************************************************************************
ARM GAS  C:\Users\Thomas\AppData\Local\Temp\cck4Ar4a.s 			page 54


 291:.\Generated_Source\PSoC5/P2_5.c **** *
 292:.\Generated_Source\PSoC5/P2_5.c **** * Summary:
 293:.\Generated_Source\PSoC5/P2_5.c **** *  Send state directly to shift register
 294:.\Generated_Source\PSoC5/P2_5.c **** *
 295:.\Generated_Source\PSoC5/P2_5.c **** * Parameters:
 296:.\Generated_Source\PSoC5/P2_5.c **** *  shiftData: containing shift register state.
 297:.\Generated_Source\PSoC5/P2_5.c **** *
 298:.\Generated_Source\PSoC5/P2_5.c **** * Return:
 299:.\Generated_Source\PSoC5/P2_5.c **** *  None.
 300:.\Generated_Source\PSoC5/P2_5.c **** *
 301:.\Generated_Source\PSoC5/P2_5.c **** *******************************************************************************/
 302:.\Generated_Source\PSoC5/P2_5.c **** void P2_5_WriteRegValue(uint16 shiftData)
 303:.\Generated_Source\PSoC5/P2_5.c ****                                                                      
 304:.\Generated_Source\PSoC5/P2_5.c **** {
 959              		.loc 1 304 0
 960              		.cfi_startproc
 961              		@ args = 0, pretend = 0, frame = 0
 962              		@ frame_needed = 0, uses_anonymous_args = 0
 963              		@ link register save eliminated.
 964              	.LVL19:
 305:.\Generated_Source\PSoC5/P2_5.c ****     CY_SET_REG16(P2_5_SHIFT_REG_LSB_PTR, shiftData);
 965              		.loc 1 305 0
 966 0000 014B     		ldr	r3, .L42
 967 0002 1880     		strh	r0, [r3]	@ movhi
 968 0004 7047     		bx	lr
 969              	.L43:
 970 0006 00BF     		.align	2
 971              	.L42:
 972 0008 04640040 		.word	1073767428
 973              		.cfi_endproc
 974              	.LFE9:
 975              		.size	P2_5_WriteRegValue, .-P2_5_WriteRegValue
 976              		.section	.text.P2_5_ReadRegValue,"ax",%progbits
 977              		.align	2
 978              		.global	P2_5_ReadRegValue
 979              		.thumb
 980              		.thumb_func
 981              		.type	P2_5_ReadRegValue, %function
 982              	P2_5_ReadRegValue:
 983              	.LFB10:
 306:.\Generated_Source\PSoC5/P2_5.c **** }
 307:.\Generated_Source\PSoC5/P2_5.c **** 
 308:.\Generated_Source\PSoC5/P2_5.c **** 
 309:.\Generated_Source\PSoC5/P2_5.c **** #if(0u != P2_5_USE_INPUT_FIFO)
 310:.\Generated_Source\PSoC5/P2_5.c ****     /*******************************************************************************
 311:.\Generated_Source\PSoC5/P2_5.c ****     * Function Name: P2_5_WriteData
 312:.\Generated_Source\PSoC5/P2_5.c ****     ********************************************************************************
 313:.\Generated_Source\PSoC5/P2_5.c ****     *
 314:.\Generated_Source\PSoC5/P2_5.c ****     * Summary:
 315:.\Generated_Source\PSoC5/P2_5.c ****     *  Send state to FIFO for later transfer to shift register based on the Load
 316:.\Generated_Source\PSoC5/P2_5.c ****     *  input
 317:.\Generated_Source\PSoC5/P2_5.c ****     *
 318:.\Generated_Source\PSoC5/P2_5.c ****     * Parameters:
 319:.\Generated_Source\PSoC5/P2_5.c ****     *  shiftData: containing shift register state.
 320:.\Generated_Source\PSoC5/P2_5.c ****     *
 321:.\Generated_Source\PSoC5/P2_5.c ****     * Return:
 322:.\Generated_Source\PSoC5/P2_5.c ****     *  Indicates: successful execution of function
ARM GAS  C:\Users\Thomas\AppData\Local\Temp\cck4Ar4a.s 			page 55


 323:.\Generated_Source\PSoC5/P2_5.c ****     *  when FIFO is empty; and error when FIFO is full.
 324:.\Generated_Source\PSoC5/P2_5.c ****     *
 325:.\Generated_Source\PSoC5/P2_5.c ****     * Reentrant:
 326:.\Generated_Source\PSoC5/P2_5.c ****     *  No.
 327:.\Generated_Source\PSoC5/P2_5.c ****     *
 328:.\Generated_Source\PSoC5/P2_5.c ****     *******************************************************************************/
 329:.\Generated_Source\PSoC5/P2_5.c ****     cystatus P2_5_WriteData(uint16 shiftData)
 330:.\Generated_Source\PSoC5/P2_5.c ****                                                                          
 331:.\Generated_Source\PSoC5/P2_5.c ****     {
 332:.\Generated_Source\PSoC5/P2_5.c ****         cystatus result;
 333:.\Generated_Source\PSoC5/P2_5.c **** 
 334:.\Generated_Source\PSoC5/P2_5.c ****         result = CYRET_INVALID_STATE;
 335:.\Generated_Source\PSoC5/P2_5.c **** 
 336:.\Generated_Source\PSoC5/P2_5.c ****         /* Writes data into the input FIFO if it is not FULL */
 337:.\Generated_Source\PSoC5/P2_5.c ****         if(P2_5_RET_FIFO_FULL != (P2_5_GetFIFOStatus(P2_5_IN_FIFO)))
 338:.\Generated_Source\PSoC5/P2_5.c ****         {
 339:.\Generated_Source\PSoC5/P2_5.c ****             CY_SET_REG16(P2_5_IN_FIFO_VAL_LSB_PTR, shiftData);
 340:.\Generated_Source\PSoC5/P2_5.c ****             result = CYRET_SUCCESS;
 341:.\Generated_Source\PSoC5/P2_5.c ****         }
 342:.\Generated_Source\PSoC5/P2_5.c **** 
 343:.\Generated_Source\PSoC5/P2_5.c ****         return(result);
 344:.\Generated_Source\PSoC5/P2_5.c ****     }
 345:.\Generated_Source\PSoC5/P2_5.c **** #endif /* (0u != P2_5_USE_INPUT_FIFO) */
 346:.\Generated_Source\PSoC5/P2_5.c **** 
 347:.\Generated_Source\PSoC5/P2_5.c **** 
 348:.\Generated_Source\PSoC5/P2_5.c **** #if(0u != P2_5_USE_OUTPUT_FIFO)
 349:.\Generated_Source\PSoC5/P2_5.c ****     /*******************************************************************************
 350:.\Generated_Source\PSoC5/P2_5.c ****     * Function Name: P2_5_ReadData
 351:.\Generated_Source\PSoC5/P2_5.c ****     ********************************************************************************
 352:.\Generated_Source\PSoC5/P2_5.c ****     *
 353:.\Generated_Source\PSoC5/P2_5.c ****     * Summary:
 354:.\Generated_Source\PSoC5/P2_5.c ****     *  Returns state in FIFO due to Store input.
 355:.\Generated_Source\PSoC5/P2_5.c ****     *
 356:.\Generated_Source\PSoC5/P2_5.c ****     * Parameters:
 357:.\Generated_Source\PSoC5/P2_5.c ****     *  None.
 358:.\Generated_Source\PSoC5/P2_5.c ****     *
 359:.\Generated_Source\PSoC5/P2_5.c ****     * Return:
 360:.\Generated_Source\PSoC5/P2_5.c ****     *  Shift Register state
 361:.\Generated_Source\PSoC5/P2_5.c ****     *
 362:.\Generated_Source\PSoC5/P2_5.c ****     * Reentrant:
 363:.\Generated_Source\PSoC5/P2_5.c ****     *  No.
 364:.\Generated_Source\PSoC5/P2_5.c ****     *
 365:.\Generated_Source\PSoC5/P2_5.c ****     *******************************************************************************/
 366:.\Generated_Source\PSoC5/P2_5.c ****     uint16 P2_5_ReadData(void) 
 367:.\Generated_Source\PSoC5/P2_5.c ****     {
 368:.\Generated_Source\PSoC5/P2_5.c ****         return(CY_GET_REG16(P2_5_OUT_FIFO_VAL_LSB_PTR));
 369:.\Generated_Source\PSoC5/P2_5.c ****     }
 370:.\Generated_Source\PSoC5/P2_5.c **** #endif /* (0u != P2_5_USE_OUTPUT_FIFO) */
 371:.\Generated_Source\PSoC5/P2_5.c **** 
 372:.\Generated_Source\PSoC5/P2_5.c **** 
 373:.\Generated_Source\PSoC5/P2_5.c **** /*******************************************************************************
 374:.\Generated_Source\PSoC5/P2_5.c **** * Function Name: P2_5_ReadRegValue
 375:.\Generated_Source\PSoC5/P2_5.c **** ********************************************************************************
 376:.\Generated_Source\PSoC5/P2_5.c **** *
 377:.\Generated_Source\PSoC5/P2_5.c **** * Summary:
 378:.\Generated_Source\PSoC5/P2_5.c **** *  Directly returns current state in shift register, not data in FIFO due
 379:.\Generated_Source\PSoC5/P2_5.c **** *  to Store input.
ARM GAS  C:\Users\Thomas\AppData\Local\Temp\cck4Ar4a.s 			page 56


 380:.\Generated_Source\PSoC5/P2_5.c **** *
 381:.\Generated_Source\PSoC5/P2_5.c **** * Parameters:
 382:.\Generated_Source\PSoC5/P2_5.c **** *  None.
 383:.\Generated_Source\PSoC5/P2_5.c **** *
 384:.\Generated_Source\PSoC5/P2_5.c **** * Return:
 385:.\Generated_Source\PSoC5/P2_5.c **** *  Shift Register state. Clears output FIFO.
 386:.\Generated_Source\PSoC5/P2_5.c **** *
 387:.\Generated_Source\PSoC5/P2_5.c **** * Reentrant:
 388:.\Generated_Source\PSoC5/P2_5.c **** *  No.
 389:.\Generated_Source\PSoC5/P2_5.c **** *
 390:.\Generated_Source\PSoC5/P2_5.c **** *******************************************************************************/
 391:.\Generated_Source\PSoC5/P2_5.c **** uint16 P2_5_ReadRegValue(void) 
 392:.\Generated_Source\PSoC5/P2_5.c **** {
 984              		.loc 1 392 0
 985              		.cfi_startproc
 986              		@ args = 0, pretend = 0, frame = 0
 987              		@ frame_needed = 0, uses_anonymous_args = 0
 988              		@ link register save eliminated.
 989              	.LBB55:
 990              	.LBB56:
 991              	.LBB57:
 992              	.LBB58:
 218:.\Generated_Source\PSoC5/P2_5.c ****         {
 993              		.loc 1 218 0
 994 0000 064A     		ldr	r2, .L49
 995              	.LBE58:
 996              	.LBE57:
 997              	.LBE56:
 998              	.LBE55:
 393:.\Generated_Source\PSoC5/P2_5.c ****     uint16 result;
 394:.\Generated_Source\PSoC5/P2_5.c **** 
 395:.\Generated_Source\PSoC5/P2_5.c ****     /* Clear FIFO before software capture */
 396:.\Generated_Source\PSoC5/P2_5.c ****     while(P2_5_RET_FIFO_EMPTY != P2_5_GetFIFOStatus(P2_5_OUT_FIFO))
 397:.\Generated_Source\PSoC5/P2_5.c ****     {
 398:.\Generated_Source\PSoC5/P2_5.c ****         (void) CY_GET_REG16(P2_5_OUT_FIFO_VAL_LSB_PTR);
 999              		.loc 1 398 0
 1000 0002 0749     		ldr	r1, .L49+4
 396:.\Generated_Source\PSoC5/P2_5.c ****     {
 1001              		.loc 1 396 0
 1002 0004 00E0     		b	.L45
 1003              	.LVL20:
 1004              	.L48:
 1005              		.loc 1 398 0
 1006 0006 0B88     		ldrh	r3, [r1]
 1007              	.LVL21:
 1008              	.L45:
 1009              	.LBB62:
 1010              	.LBB61:
 1011              	.LBB60:
 1012              	.LBB59:
 218:.\Generated_Source\PSoC5/P2_5.c ****         {
 1013              		.loc 1 218 0
 1014 0008 1378     		ldrb	r3, [r2]	@ zero_extendqisi2
 1015 000a 13F0600F 		tst	r3, #96
 1016 000e FAD1     		bne	.L48
 1017              	.LVL22:
 1018              	.LBE59:
ARM GAS  C:\Users\Thomas\AppData\Local\Temp\cck4Ar4a.s 			page 57


 1019              	.LBE60:
 1020              	.LBE61:
 1021              	.LBE62:
 399:.\Generated_Source\PSoC5/P2_5.c ****     }
 400:.\Generated_Source\PSoC5/P2_5.c **** 
 401:.\Generated_Source\PSoC5/P2_5.c ****     /* Read of 8 bits from A1 causes capture to output FIFO */
 402:.\Generated_Source\PSoC5/P2_5.c ****     (void) CY_GET_REG8(P2_5_SHIFT_REG_CAPTURE_PTR);
 403:.\Generated_Source\PSoC5/P2_5.c **** 
 404:.\Generated_Source\PSoC5/P2_5.c ****     /* Read output FIFO */
 405:.\Generated_Source\PSoC5/P2_5.c ****     result  = CY_GET_REG16(P2_5_OUT_FIFO_VAL_LSB_PTR);
 1022              		.loc 1 405 0
 1023 0010 034B     		ldr	r3, .L49+4
 402:.\Generated_Source\PSoC5/P2_5.c **** 
 1024              		.loc 1 402 0
 1025 0012 044A     		ldr	r2, .L49+8
 1026 0014 1278     		ldrb	r2, [r2]	@ zero_extendqisi2
 1027              		.loc 1 405 0
 1028 0016 1888     		ldrh	r0, [r3]
 1029              	.LVL23:
 406:.\Generated_Source\PSoC5/P2_5.c ****     
 407:.\Generated_Source\PSoC5/P2_5.c ****     #if(0u != (P2_5_SR_SIZE % 8u))
 408:.\Generated_Source\PSoC5/P2_5.c ****         result &= ((uint16) P2_5_SR_MASK);
 409:.\Generated_Source\PSoC5/P2_5.c ****     #endif /* (0u != (P2_5_SR_SIZE % 8u)) */
 410:.\Generated_Source\PSoC5/P2_5.c ****     
 411:.\Generated_Source\PSoC5/P2_5.c ****     return(result);
 412:.\Generated_Source\PSoC5/P2_5.c **** }
 1030              		.loc 1 412 0
 1031 0018 80B2     		uxth	r0, r0
 1032 001a 7047     		bx	lr
 1033              	.L50:
 1034              		.align	2
 1035              	.L49:
 1036 001c 65640040 		.word	1073767525
 1037 0020 54640040 		.word	1073767508
 1038 0024 14640040 		.word	1073767444
 1039              		.cfi_endproc
 1040              	.LFE10:
 1041              		.size	P2_5_ReadRegValue, .-P2_5_ReadRegValue
 1042              		.global	P2_5_initVar
 1043              		.bss
 1044              		.set	.LANCHOR0,. + 0
 1045              		.type	P2_5_initVar, %object
 1046              		.size	P2_5_initVar, 1
 1047              	P2_5_initVar:
 1048 0000 00       		.space	1
 1049              		.text
 1050              	.Letext0:
 1051              		.file 2 ".\\Generated_Source\\PSoC5\\cytypes.h"
 1052              		.file 3 ".\\Generated_Source\\PSoC5\\CyLib.h"