ARM GAS  C:\Users\Thomas\AppData\Local\Temp\ccBYtHCp.s 			page 1


   1              		.syntax unified
   2              		.cpu cortex-m3
   3              		.fpu softvfp
   4              		.eabi_attribute 20, 1
   5              		.eabi_attribute 21, 1
   6              		.eabi_attribute 23, 3
   7              		.eabi_attribute 24, 1
   8              		.eabi_attribute 25, 1
   9              		.eabi_attribute 26, 1
  10              		.eabi_attribute 30, 2
  11              		.eabi_attribute 34, 1
  12              		.eabi_attribute 18, 4
  13              		.thumb
  14              		.file	"P2_6.c"
  15              		.text
  16              	.Ltext0:
  17              		.section	.gnu.lto_.profile.b949a193,"",%progbits
  18 0000 789C6366 		.ascii	"x\234cf```e\200\000F\206\265\214!\000\002\347\001\014"
  18      60606065 
  18      80004686 
  18      B58C2100 
  18      02E7010C 
  19              		.text
  20              		.section	.gnu.lto_.jmpfuncs.b949a193,"",%progbits
  21 0000 789C6366 		.ascii	"x\234cf\300\016,\2414\017\0203\002A=\003\023\003\003"
  21      C00E2CA1 
  21      340F1033 
  21      02413D03 
  21      130303
  22 0013 33900DE4 		.ascii	"3\220\015\344\263\0001+\020\263C\270\034@\314\011R\302"
  22      B300312B 
  22      10B343B8 
  22      1C40CC09 
  22      52C2
  23 0025 C5C0C00D 		.ascii	"\305\300\300\015\242Az\030\000;\201\002\031"
  23      A2417A18 
  23      003B8102 
  23      19
  24              		.text
  25              		.section	.gnu.lto_.inline.b949a193,"",%progbits
  26 0000 789C7D50 		.ascii	"x\234}P;\012\302@\024\234\367v\223M\326\200\237\302"
  26      3B0AC240 
  26      149CF776 
  26      934DD680 
  26      9FC2
  27 0012 2216B981 		.ascii	"\"\026\271\201\367\260\311\015\354\3656)E\004\323y\007"
  27      F7B0C90D 
  27      ECF53629 
  27      4504D379 
  27      07
  28 0023 F11076B6 		.ascii	"\361\020v\2666\202\245\202\215\235\263\006\202\212\272"
  28      3682A582 
  28      8D9DB306 
  28      828ABA
  29 0032 2C6F60DE 		.ascii	",o`\336\314\354{k\360\375L\244\301\214\327\011tP\225"
  29      CCEC7B6B 
  29      F0FD4CA4 
ARM GAS  C:\Users\Thomas\AppData\Local\Temp\ccBYtHCp.s 			page 2


  29      C18CD709 
  29      745095
  30 0045 88578506 		.ascii	"\210W\205\006N\340b1\230]U\226\207\323\315\234\365\256"
  30      4EE06231 
  30      985D5596 
  30      87D3CD9C 
  30      F5AE
  31 0057 50C84672 		.ascii	"P\310Fr`\336\000\355\206\322\270\246\305\326E/\370\264"
  31      60DE00ED 
  31      86D2B8A6 
  31      C5D6452F 
  31      F8B4
  32 0069 03CB8A34 		.ascii	"\003\313\2124a`v\2346]\004\245\037\221\212/\343\226"
  32      6160769C 
  32      365D04A5 
  32      1F918A2F 
  32      E396
  33 007b A2165295 		.ascii	"\242\026R\225\001hr\335\217\266x\226\010\375!\371|W"
  33      016872DD 
  33      8FB67896 
  33      08FD21F9 
  33      7C57
  34 008d CB7BC3FD 		.ascii	"\313{\303\375\317K~\344\245\360\251\310s\364v:\335w"
  34      CF4B7EE4 
  34      A5F0A9C8 
  34      73F4763A 
  34      DD77
  35 009f 6D107844 		.ascii	"m\020xD\226\036\256\322z\270\215!EEKe\360k&\250\337"
  35      961EAED2 
  35      7AB88D21 
  35      45454B65 
  35      F06B26A8 
  36 00b4 2EECCBD3 		.ascii	".\354\313\323\341/\037\023\322$\257"
  36      E12F1F13 
  36      D224AF
  37              		.text
  38              		.section	.gnu.lto_.pureconst.b949a193,"",%progbits
  39 0000 789C6366 		.ascii	"x\234cf``\220d\200\000\036\006)F\011&)f)\026)V)v)\016"
  39      60609064 
  39      80001E06 
  39      29460926 
  39      29662916 
  40 001a 294E292E 		.ascii	")N).)n)\036)\000\025\325\001\247"
  40      296E291E 
  40      290015D5 
  40      01A7
  41              		.text
  42              		.section	.gnu.lto_P2_6_GetFIFOStatus.part.0.b949a193,"",%progbits
  43 0000 789C6D92 		.ascii	"x\234m\222\333K\324A\024\307\317\231\337eW\267\322z"
  43      DB4BD441 
  43      14C7CF99 
  43      DF6557B7 
  43      D27A
  44 0012 92252858 		.ascii	"\222%(XD\213\220(\352\037\350!\242\027\301\327\015\013"
  44      448B9028 
  44      EA1FE821 
  44      A217C1D7 
ARM GAS  C:\Users\Thomas\AppData\Local\Temp\ccBYtHCp.s 			page 3


  44      0D0B
  45 0024 5D218804 		.ascii	"]!\210\004\323\007\237\234\337\272\373P\024[$]\024\303"
  45      D3079F9C 
  45      DFBAFB50 
  45      145B245D 
  45      14C3
  46 0036 286F5969 		.ascii	"(oYi7\313\013\264Y\224\204)\272\242&\233\356\203[\031"
  46      37CB0BB4 
  46      59948429 
  46      BAA2269B 
  46      EE835B19 
  47 004a 465AA6AD 		.ascii	"FZ\246\255\230\3339\363\333\302\250\201\337\314a\346"
  47      98DB39F3 
  47      DBC2A881 
  47      DFCC61E6 
  48 005a FB39F39D 		.ascii	"\3739\363\235s~\032\374;\016\323\347\327\000v\323\212"
  48      737E1AFC 
  48      3B0ED3E7 
  48      D70076D3 
  48      8A
  49 006b 0E40F3FC 		.ascii	"\016@\363\374 \005&\012\265\012M\017\272A:55\033v\214"
  49      2005260A 
  49      B50A4D0F 
  49      BA413A35 
  49      351B768C 
  50 007f 069F594E 		.ascii	"\006\237YN\375w` r\000\010U&\021\006V\341\254X\0208"
  50      FD776020 
  50      72000855 
  50      26110656 
  50      E1AC5810 
  51 0094 D0B516C1 		.ascii	"\320\265\026\301\234F)\375\363_\337E]\301\254\204\000"
  51      9C4629FD 
  51      F35FDF45 
  51      5DC1AC84 
  51      00
  52 00a5 F8260077 		.ascii	"\370&\000w\271q\207\233\201f\314\001\022\266F\277\207"
  52      B971879B 
  52      8166CC01 
  52      12B646BF 
  52      87
  53 00b6 37691EE4 		.ascii	"7i\036\344\370\362\263\306K\351\236\353\004\305\022"
  53      F8F2B3C6 
  53      4BE99EEB 
  53      04C512
  54 00c5 F1972E79 		.ascii	"\361\227.yE\006b\311\3446B\261\005\265\3654\017\002"
  54      450662C9 
  54      E43642B1 
  54      05B5F534 
  54      0F02
  55 00d7 426FFAA2 		.ascii	"Bo\372\242\031\332N\005\217\266\364\373u\033\376\022"
  55      19DA4E05 
  55      8FB6F4FB 
  55      751BFE12 
  56 00e7 3F12B61A 		.ascii	"?\022\266\032\344Z2\211\314\336\372/\273\020\3709\356"
  56      E45A3289 
  56      CCDEFA2F 
  56      BB10F839 
ARM GAS  C:\Users\Thomas\AppData\Local\Temp\ccBYtHCp.s 			page 4


  56      EE
  57 00f8 320352CA 		.ascii	"2\003R\312LlE\017\266\241\207\015\222\263\333T\003\000"
  57      4C6C450F 
  57      B6A1870D 
  57      92B3DB54 
  57      0300
  58 010a C13B7CD2 		.ascii	"\301;|\322\276E\312d\362\303\247\034\007BB\240\340I"
  58      BE45CA64 
  58      F2C3A71C 
  58      074242A0 
  58      E049
  59 011c A349E83C 		.ascii	"\243I\350<\031\300\032\200\031B\271\022qa\362\252\215"
  59      19C01A80 
  59      1942B912 
  59      7161F2AA 
  59      8D
  60 012d A17F335F 		.ascii	"\241\1773_\363\352Ew\257\221\333D\3274\364~\016\352"
  60      F3EA4577 
  60      AF91DB44 
  60      D734F47E 
  60      0EEA
  61 013f 6C2835F0 		.ascii	"l(5\360\016\346\222 r3\266\224\236}C\371\016\216\270"
  61      0EE69220 
  61      7233B694 
  61      9E7D43F9 
  61      0E8EB8
  62 0152 64D61FCB 		.ascii	"d\326\037\313\230\262\314\010\336\305l\240\234\231\240"
  62      98B2CC08 
  62      DEC56CA0 
  62      9C99A0
  63 0161 6C110A7C 		.ascii	"l\021\012|\227PwMb\337\322\231\261\236|v\276L/\0238"
  63      9750774D 
  63      62DFD299 
  63      B19E7C76 
  63      BE4C2F13 
  64 0176 7D6DBEDD 		.ascii	"}m\276\335\371Q$\2046\373\332\222:\033\231\236\031\032"
  64      F9512484 
  64      36FBDA92 
  64      3A1B999E 
  64      191A
  65 0188 B6B7D4F3 		.ascii	"\266\267\324\363\353V\342s\216z\254\263j,gB\350\330"
  65      EB56E273 
  65      8E7AACB3 
  65      6A2C6742 
  65      E8D8
  66 019a 8E6EEC40 		.ascii	"\216n\354@\252\017\336\303z\204I\254\376a\332\371\204"
  66      AA0FDEC3 
  66      7A8449AC 
  66      FE61DAF9 
  66      84
  67 01ab 9DB2E369 		.ascii	"\235\262\343i\333\3514\346\361(\340}RN\242\177\312a"
  67      DBE934E6 
  67      F128E07D 
  67      524EA27F 
  67      CA61
  68 01bd 4B345231 		.ascii	"K4R12\225Bt\332\"d.R\327\275\201\021\203\252\364\200"
  68      32954274 
ARM GAS  C:\Users\Thomas\AppData\Local\Temp\ccBYtHCp.s 			page 5


  68      DA22642E 
  68      52D7BD81 
  68      1183AAF4 
  69 01d2 90B71890 		.ascii	"\220\267\030\220{S\022:\037Y]m\301\020\236\263\0022"
  69      7B53123A 
  69      1F595D6D 
  69      C1109EB3 
  69      0232
  70 01e4 36D1EC48 		.ascii	"6\321\354HP\351`Q\325\007\037\322>)\254\246\236\263"
  70      50E96051 
  70      D5071FD2 
  70      3E29ACA6 
  70      9EB3
  71 01f6 0ECE2094 		.ascii	"\016\316 \224\351\301\341\253\203\033m\240\241\237\365"
  71      E9C1E1AB 
  71      831B6DA0 
  71      A19FF5
  72 0205 F888B22E 		.ascii	"\370\210\262.\012d\244\323Fj\307\343\213\232B\004#\027"
  72      0A64A4D3 
  72      466AC7E3 
  72      8B9A4204 
  72      2317
  73 0217 3A2756D2 		.ascii	":'V\322R\310\200B\036+Du\372\011!\252\216\032\004\335"
  73      52C88042 
  73      1E2B4475 
  73      FA0921AA 
  73      8E1A04DD 
  74 022b DA045A99 		.ascii	"\332\004Z\231l\216\363Q\251\303\027C[\325\277@\375\245"
  74      6C8EF351 
  74      A9C31743 
  74      5BD5BF40 
  74      FDA5
  75 023d 4443B1E7 		.ascii	"DC\261\347!\365\030\240\376tq\245\210\323\377\346\204"
  75      21F518A0 
  75      FE7471A5 
  75      88D3FFE6 
  75      84
  76 024e E26A33D6 		.ascii	"\342j3\326a\303\265M\325\031\012C\300\356\024f@\210"
  76      61C3B54D 
  76      D5190A43 
  76      C0EE1466 
  76      4088
  77 0260 DAC69C7A 		.ascii	"\332\306\234z\257\335W\322/\323\311\024Z\341\310\220"
  77      AFDD57D2 
  77      2FD3C914 
  77      5AE1C890 
  78 0270 B0AB6400 		.ascii	"\260\253d\000\274Gc}\367\330v\017\272Et9\206lC\253\251"
  78      BC47637D 
  78      F7D8760F 
  78      BA457439 
  78      866C43AB 
  79 0285 E4B4FA68 		.ascii	"\344\264\372h%\375\202\310yI\262=\317{\320w\322Wv\254"
  79      25FD82C8 
  79      7949B23D 
  79      CF7BD077 
  79      D25776AC 
  80 0299 DC575C58 		.ascii	"\334W\\XPZQV\344\363\346\027\224\036\330\347\315\337"
ARM GAS  C:\Users\Thomas\AppData\Local\Temp\ccBYtHCp.s 			page 6


  80      505A5156 
  80      E4F3E617 
  80      941ED8E7 
  80      CDDF
  81 02ab 53B83FAF 		.ascii	"S\270?\257\010\3142\337\251\212\023\345f\311\361\222"
  81      08CC32DF 
  81      A98A13E5 
  81      66C9F192 
  82 02bb D243C5BF 		.ascii	"\322C\305\277\000\370\253Cj"
  82      00F8AB43 
  82      6A
  83              		.text
  84              		.section	.gnu.lto_P2_6_GetFIFOStatus.b949a193,"",%progbits
  85 0000 789C6590 		.ascii	"x\234e\220OHTQ\024\306\317w\356\363)3\3034\264\212\331"
  85      4F485451 
  85      14C6CF77 
  85      EEF32933 
  85      C334B48A 
  86 0015 140CA245 		.ascii	"\024\014\242EH\024\265h%\264\210v\202\333\001\011}B"
  86      4814B568 
  86      25B48876 
  86      82DB0109 
  86      7D42
  87 0027 104D4CBA 		.ascii	"\020ML\272\024\357\350\010AP\331\242\"H\210\262\262"
  87      14EFE808 
  87      4150D9A2 
  87      224888B2 
  87      B2
  88 0038 720C6A53 		.ascii	"r\014jS\314\342\031Qo\321\237\305P\272x\325@M\330.\323"
  88      CCE21951 
  88      6FD19FC5 
  88      50BA78D5 
  88      404DD82E 
  89 004d 1AA4723A 		.ascii	"\032\244r:\347\275EA\027.\347r\371~\337\371\3161\364"
  89      E7BD4541 
  89      172EE772 
  89      F97EDFF9 
  89      CE31F4
  90 0060 FFD92777 		.ascii	"\377\331'w\005D{\244\242\215\300\347_\021\225:\230M"
  90      05447BA4 
  90      A28DC0E7 
  90      5F11953A 
  90      984D
  91 0072 90229B70 		.ascii	"\220\"\233p\202E\"\2332p\364\037\016\240\225@\343l\034"
  91      8245229B 
  91      3270F41F 
  91      0EA09540 
  91      E36C1C
  92 0085 8CE30BAF 		.ascii	"\214\343\013\2572^<\332\254\241k\326\332\211\257\337"
  92      325E3CDA 
  92      ACA16BD6 
  92      DA89AFDF 
  93 0095 DE85C9A9 		.ascii	"\336\205\311\251m\033L\264\306\204\335Y\354\314\252"
  93      6D1B4CB4 
  93      C684DD59 
  93      ECCCAA
  94 00a4 FC16BA44 		.ascii	"\374\026\272Dw\356\345\223p\213\311\201\344]\273Q\377"
ARM GAS  C:\Users\Thomas\AppData\Local\Temp\ccBYtHCp.s 			page 7


  94      77EEE593 
  94      708BC981 
  94      E45DBB51 
  94      FF
  95 00b5 91E8BC2E 		.ascii	"\221\350\274.\214\037Tl/\004\301m\230\277\224z`\016"
  95      8C1F546C 
  95      2F04C16D 
  95      98BF947A 
  95      600E
  96 00c7 9D2A9E0B 		.ascii	"\235*\236\013\277\373i\263+\002/-\316^L\344\256\011"
  96      BFFB69B3 
  96      2B022F2D 
  96      CE5E4CE4 
  96      AE09
  97 00d9 58DF683C 		.ascii	"X\337h<K\332\313\266\\o\265\266+\177\347_>>\002\254"
  97      4BDACBB6 
  97      5C6FB5B6 
  97      2B7FE75F 
  97      3E3E02AC 
  98 00ed 967F2F25 		.ascii	"\226\177/%\335\262\2656\203\273\310i0q\276\007W\246"
  98      DDB2B536 
  98      83BBC869 
  98      3071BE07 
  98      57A6
  99 00ff 86FE2C6C 		.ascii	"\206\376,l\365m\253\365\340\327\205\340\240i\007\351"
  99      F56DABF5 
  99      E0D785E0 
  99      A06907E9 
 100 010f 17435BBB 		.ascii	"\027C[\273\321\233\350\223\020:v\203Y\253y\213\011\277"
 100      D19BE893 
 100      103A7683 
 100      59AB798B 
 100      09BF
 101 0121 79261D79 		.ascii	"y&\035y\210@zLO?\234I\257\260\204\330\024\203yd\351"
 101      88407A4C 
 101      4F3F9C49 
 101      AFB084D8 
 101      14837964 
 102 0136 0DCACB93 		.ascii	"\015\312\313\223\037\257\266\253\250\311\272\245+K\215"
 102      1FAFB6AB 
 102      A8C9BAA5 
 102      2B4B8D
 103 0145 75A31A48 		.ascii	"u\243\032H\306\012\342\204\0156\024\244\3241\243J\221"
 103      C60AE284 
 103      0D3614A4 
 103      D431A34A 
 103      91
 104 0156 3D7FFAB8 		.ascii	"=\177\372\270\332\326}S\342\326\253\363ao\207\356!>"
 104      DAD67D53 
 104      E2D6ABF3 
 104      616F87EE 
 104      213E
 105 0168 5840B758 		.ascii	"X@\267XQ\210\311Ll\253\372\231\332\331\012\217\375\264"
 105      5188C94C 
 105      6CABFA99 
 105      DAD90A8F 
 105      FDB4
ARM GAS  C:\Users\Thomas\AppData\Local\Temp\ccBYtHCp.s 			page 8


 106 017a A7AD4879 		.ascii	"\247\255Hy\215u\252\373\030\223\375\231\310\337\211"
 106      8D75AAFB 
 106      1893FD99 
 106      C8DF89
 107 0189 222FA394 		.ascii	"\"/\243\224\241u\261\322N\321XMQ\276G\311\257\275\346"
 107      A175B1D2 
 107      4ED1584D 
 107      51BE47C9 
 107      AFBDE6
 108 019c D84CC0CF 		.ascii	"\330L\300\317\200\206\347\352\207\223bn \223Cq\341v"
 108      8086E7EA 
 108      8793626E 
 108      20934371 
 108      E176
 109 01ae F4E40F7B 		.ascii	"\364\344\017{'\274\342\321\021oh\240\2770Z\034\364\362"
 109      27BCE2D1 
 109      116F68A0 
 109      BF305A1C 
 109      F4F2
 110 01c0 7DFD8543 		.ascii	"}\375\205C\373\363}{\007\016\364\014\222;|l\270pd\310"
 110      FBF37D7B 
 110      070EF40C 
 110      923B7C6C 
 110      B87064C8 
 111 01d4 2D7AA746 		.ascii	"-z\247F\217\217\374\001\325N\266\""
 111      8F8FFC01 
 111      D54EB622 
 112              		.text
 113              		.section	.gnu.lto_P2_6_Init.b949a193,"",%progbits
 114 0000 789C8D91 		.ascii	"x\234\215\221OH\024q\024\307\337\367\375\306a\305\303"
 114      4F481471 
 114      14C7DFF7 
 114      FDC661C5 
 114      C3
 115 0011 4A279953 		.ascii	"J'\231S\260\007\021\302\303B\335\245\203x\023\274nH"
 115      B00711C2 
 115      C342DDA5 
 115      837813BC 
 115      6E48
 116 0023 E81CBA68 		.ascii	"\350\034\272h\014\353\331\231]\225\332\223\206\0071"
 116      0CEBD999 
 116      5D95DA93 
 116      860731
 117 0032 168AFEFA 		.ascii	"\026\212\376\372\277\264\350T\014\012\026\011\205\036"
 117      BFB4E854 
 117      0C0A1609 
 117      851E
 118 0040 0C3AB441 		.ascii	"\014:\264A\033\330%\022%](\247\367\366\267\027\013\244"
 118      1BD82512 
 118      255D28A7 
 118      F7F6B717 
 118      0BA4
 119 0052 8179BFDF 		.ascii	"\201y\277\337\314\357\373\276\357\363~\317\320\277\217"
 119      CCEFFBBE 
 119      EFF37ECF 
 119      D0BF8F
 120 0061 276F1713 		.ascii	"'o\027\023ee\205!\360\344;\242(\305\200n\0104\312\030"
ARM GAS  C:\Users\Thomas\AppData\Local\Temp\ccBYtHCp.s 			page 9


 120      65658521 
 120      F0E43BA2 
 120      28C5806E 
 120      0834CA18 
 121 0075 C537DE67 		.ascii	"\3057\336gL\306\0133-\355\017\3020\374\261\363\242m"
 121      4CC60B33 
 121      2DED0FC2 
 121      30FCB1F3 
 121      A26D
 122 0087 BCAD2669 		.ascii	"\274\255&i\007lm\360\010\355$\232\375\261\337\037Z\334"
 122      076C6DF0 
 122      08ED249A 
 122      FDB1DF1F 
 122      5ADC
 123 0099 31D1B4DA 		.ascii	"1\321\264\3323<\206\013YW\316\305a\222\254U\246nd\221"
 123      333C860B 
 123      5957CEC5 
 123      6192AC55 
 123      A66E6491 
 124 00ad 32546338 		.ascii	"2Tc8\032\2324\270\032\210\252\242\327\242_\231u5\273"
 124      1A9A34B8 
 124      1A88AAA2 
 124      D7A25F99 
 124      7535BB
 125 00c0 28B4AA67 		.ascii	"(\264\252g\351Ui\271\331d\240\373\335\312\375\011\223"
 125      E95569B9 
 125      D964A0FB 
 125      DDCAFD09 
 125      93
 126 00d1 B91B8685 		.ascii	"\271\033\206\205\317/7\256\304\321\235\360$IPc\306\034"
 126      CF2F37AE 
 126      C4D19DF0 
 126      24495063 
 126      C61C
 127 00e3 8C14C405 		.ascii	"\214\024\304\005\017\035^\2437\314##9\333\263\017\213"
 127      0F1D5EA3 
 127      37CC2323 
 127      39DBB30F 
 127      8B
 128 00f4 E93D5611 		.ascii	"\351=V\021a\001\036}\304\372\317\322\311\233\340\024"
 128      61011E7D 
 128      C4FACFD2 
 128      C99BE014 
 129 0104 6F9C6CB2 		.ascii	"o\234l\262&\324\211\017\030\177w\203E\341$,\301=b#g"
 129      26D4890F 
 129      187F7783 
 129      45E1242C 
 129      C13D6223 
 130 0119 6FCB3B47 		.ascii	"o\313;GF]\315\315\255(tT^\251\276\337N\325\177\221~"
 130      465DCDCD 
 130      AD287454 
 130      5EA9BEDF 
 130      4ED57F91 
 131 012e DEDB2ACC 		.ascii	"\336\333*\314\247\313\270\035MG\251\032;X\206\207\025"
 131      A7CBB81D 
 131      4D47A91A 
 131      3B588687 
ARM GAS  C:\Users\Thomas\AppData\Local\Temp\ccBYtHCp.s 			page 10


 131      15
 132 013f 294F7882 		.ascii	")Ox\2022\204\242x<!\024\326\322\261\256\337\277\374"
 132      3284A278 
 132      3C2114D6 
 132      D2B1AEDF 
 132      BFFC
 133 0151 2AD62D9C 		.ascii	"*\326-\234c\201}jaoA5g:\256\212\243\230\330\326\326"
 133      63817D6A 
 133      616F4135 
 133      673AAE8A 
 133      A398D8D6 
 134 0166 7BAC67D3 		.ascii	"{\254g\323\231)k\015\210C\327\252\033\011\257\313{\253"
 134      99296B0D 
 134      8843D7AA 
 134      1B09AFCB 
 134      7BAB
 135 0178 8E124000 		.ascii	"\216\022@\000\236\3757\300\363:\200K\237\020\305S\335"
 135      9EFD37C0 
 135      F33A804B 
 135      9F10C553 
 135      DD
 136 0189 7A873A81 		.ascii	"z\207:\201\252\334\243\214R\006{\2763\327\355\017\371"
 136      AADCA38C 
 136      52067BBE 
 136      33D7ED0F 
 136      F9
 137 019a C1D5BC3F 		.ascii	"\301\325\274?\330\3377<\022\014\370\271\336\276\341"
 137      D8DF373C 
 137      120CF8B9 
 137      DEBEE1
 138 01a9 CB1773BD 		.ascii	"\313\027s\275\331\376K\235\003\224\2766\224\367\203"
 138      D9FE4B9D 
 138      0394BE36 
 138      94F783
 139 01b8 60E47ADE 		.ascii	"`\344z\336\236\376\001Lf\330\205"
 139      9EFE014C 
 139      66D885
 140              		.text
 141              		.section	.gnu.lto_P2_6_EnableInt.b949a193,"",%progbits
 142 0000 789C7D90 		.ascii	"x\234}\220\315K\033Q\024\305\357\271\223\304\241\251"
 142      CD4B1B51 
 142      14C5EFB9 
 142      93C4A1A9 
 143 0010 455C8864 		.ascii	"E\\\210d\243\220E\020J\300B\373\017t!\270\022\262\015"
 143      A3904510 
 143      4AC042FB 
 143      0F7421B8 
 143      12B20D
 144 0023 88D859B8 		.ascii	"\210\330Y\270Q\031\342R\362RG(.D\244\013E\024\\\210"
 144      5119E252 
 144      F2524728 
 144      2E44A40B 
 144      45145C88 
 145 0037 DF1FA505 		.ascii	"\337\037\245\005\005\021\246.J\255\245E\004\203!\264"
 145      0511A62E 
 145      4AADA545 
 145      048321B4 
ARM GAS  C:\Users\Thomas\AppData\Local\Temp\ccBYtHCp.s 			page 11


 146 0047 528CE842 		.ascii	"R\214\350B\250\215\264\035E\342}3\256*t\340\315\373"
 146      A88DB41D 
 146      45E27D33 
 146      AE2A74E0 
 146      CDFB
 147 0059 E09CDF3D 		.ascii	"\340\234\337=\367\032t\377\213\311:\004Q\263\3540\010"
 147      F71A74FF 
 147      8BC93A04 
 147      51B3EC30 
 147      08
 148 006a 3CF28528 		.ascii	"<\362\205(g2\240\017\004\3122\2628\343\013\306\210\273"
 148      6732A00F 
 148      04CA32B2 
 148      38E30BC6 
 148      88BB
 149 007c 38164DCC 		.ascii	"8\026M\314(\245~\376\332\253\037\254\367\230\250\314"
 149      28A57EFE 
 149      DAAB1FAC 
 149      F798A8CC 
 150 008c 0106B348 		.ascii	"\001\006\263H\220h\362gW\205\260\021\207>\227v\336\275"
 150      9068F267 
 150      5785B011 
 150      873E9776 
 150      DEBD
 151 009e 36E2D34A 		.ascii	"6\342\323J\275<\032/}\210\2521\345\034U*\015\236\260"
 151      BD3C1A2F 
 151      7D88AA31 
 151      E51C552A 
 151      0D9EB0
 152 00b1 E7608813 		.ascii	"\347`\210\023\217ch\212\335\005\021\303\205s\223\217"
 152      8F63688A 
 152      DD0511C3 
 152      8573938F 
 153 00c1 461C2950 		.ascii	"F\034)P\203y\304\0038\026\020\221|\320/\253\265\256"
 153      8379C403 
 153      38161091 
 153      7CD02FAB 
 153      B5AE
 154 00d3 AA54DE7E 		.ascii	"\252T\336~\036\375\230`S\302\312S\210<\346\260\376\021"
 154      1EFD9860 
 154      53C2CA53 
 154      883CE6B0 
 154      FE11
 155 00e5 1DCBD2A9 		.ascii	"\035\313\322\251Kr\221\335(b\300]\037\252\323\204?l"
 155      4B7291DD 
 155      2862C05D 
 155      1FAAD384 
 155      3F6C
 156 00f7 4881A9FD 		.ascii	"H\201\251\375\341\025\356\277V\257\224\351\261$\320"
 156      E115EEBF 
 156      56AF94E9 
 156      B124D0
 157 0106 DC45F48B 		.ascii	"\334E\364\213;D\007`\277\2240EL\005l\377\036:\231\267"
 157      3B440760 
 157      BF943045 
 157      4C056CFF 
 157      1E3A99B7 
ARM GAS  C:\Users\Thomas\AppData\Local\Temp\ccBYtHCp.s 			page 12


 158 011a 037348CC 		.ascii	"\003sH\314k\033\347\205\352S\3668<\276\233S!\035\370"
 158      6B1BE785 
 158      EA53F638 
 158      3CBE9B53 
 158      211DF8
 159 012d FBF1D73D 		.ascii	"\373\361\327=\323\177\362\363o\275_\332~0\211\211\234"
 159      D37FF2F3 
 159      6FBD5FDA 
 159      7E308989 
 159      9C
 160 013e 038F2358 		.ascii	"\003\217#XB\014\313\220\376\260\202I\010q\3402\022\340"
 160      420CCB90 
 160      FEB08249 
 160      0871E032 
 160      12E0
 161 0150 C20171F7 		.ascii	"\302\001q\367\307\337\362Cm\347\032\302\252(\245\350"
 161      C7DFF243 
 161      6DE71AC2 
 161      AA28A5E8 
 162 0160 28B4E47F 		.ascii	"(\264\344\177\2605\201\011\202\212p\334\315O~h\372\267"
 162      B0358109 
 162      828A70DC 
 162      CD4F7E68 
 162      FAB7
 163 0172 B7AAB29E 		.ascii	"\267\252\262\236\007\336Ho\322\214\307&}C\316\335j\365"
 163      07DE486F 
 163      D28CC726 
 163      7D43CEDD 
 163      6AF5
 164 0184 C5A42705 		.ascii	"\305\244'\005=!\3214&\323-V\267ewd\254\027\355\251\236"
 164      3D21D134 
 164      26D32D56 
 164      B7657764 
 164      AC17EDA9 
 165 0199 3EBBD34A 		.ascii	">\273\323J\267\245z\236?M\267=i\177\226\354\244G]\335"
 165      B7A57A9E 
 165      3F4DB73D 
 165      697F96EC 
 165      A4475DDD 
 166 01ad 19CBB6FB 		.ascii	"\031\313\266\373z3\251\214\210n\001\335\020\265A"
 166      7A33A98C 
 166      886E01DD 
 166      10B541
 167              		.text
 168              		.section	.gnu.lto_P2_6_Enable.b949a193,"",%progbits
 169 0000 789C7D8F 		.ascii	"x\234}\217\277KBQ\024\307\317\367<}\010.\321$N\321\362"
 169      BF4B4251 
 169      14C7CFF7 
 169      3C7D082E 
 169      D1244ED1 
 170 0015 3687A0FE 		.ascii	"6\207\240\376\201\240\306\004\267\020$\354\255\011R"
 170      81A0C604 
 170      B71024EC 
 170      AD0952
 171 0024 A3F81E1A 		.ascii	"\243\370\036\032HCX\223\022\006\015\321\017\313(\241"
 171      48435893 
 171      12060DD1 
ARM GAS  C:\Users\Thomas\AppData\Local\Temp\ccBYtHCp.s 			page 13


 171      0FCB28A1 
 172 0034 687B3424 		.ascii	"h{4$4\030\325\020H\324b`[f\024\017\011;\3277\006]\270"
 172      3418D510 
 172      48D46260 
 172      5B66140F 
 172      093BD737 
 173 004b F7DC1FDF 		.ascii	"\367\334\037\337\363\371\336\257F\177GX\346\034\210"
 173      F3F9DEAF 
 173      467F4758 
 173      E61C88
 174 005a C6A54223 		.ascii	"\306\245B#p\261Id\007\030P\033\002e\031Y\274q\227Qt"
 174      70B14964 
 174      0718501B 
 174      02651959 
 174      BC719751 
 175 006f AAA5A0B1 		.ascii	"\252\245\240\261kY\326\373\375ih5\3442Q\217=\014\366"
 175      6B59D6FB 
 175      FD696835 
 175      E432518F 
 175      3D0CF6
 176 0082 609068BA 		.ascii	"`\220h\272\371\237\307\240\236\027\315\210\367\206}"
 176      F99FC7A0 
 176      9E17CD88 
 176      F7867D
 177 0091 E882A793 		.ascii	"\350\202\247\223Q\307\032\014\352\215\215\202\001\235"
 177      51C71A0C 
 177      EA8D8D82 
 177      019D
 178 009f C9653193 		.ascii	"\311e1\223\205\250-*e\365\312\254\252\326\302\325\327"
 178      85A82D2A 
 178      65F5CAAC 
 178      AAD6C2D5 
 178      D7
 179 00b0 5AB33CAF 		.ascii	"Z\263<\257\032\277Y\371\356\224\372e\177\207]f\367\306"
 179      1ABF59F9 
 179      EE94FA65 
 179      7F875D66 
 179      F7C6
 180 00c2 B67CCAE6 		.ascii	"\266|\312\346\245}{\027\030^\221:6>\316\353\\\301\226"
 180      A57D7B17 
 180      185E913A 
 180      363ECEEB 
 180      5CC196
 181 00d5 9D87CB1A 		.ascii	"\235\207\313\032\016\020\306!$\031\252\250\200Z\310"
 181      0E10C621 
 181      2419AAA8 
 181      805AC8
 182 00e4 7DEA1E4E 		.ascii	"}\352\036N\363\210\215J\347\314\247\332\001\302\221"
 182      F3888D4A 
 182      E7CCA7DA 
 182      01C291
 183 00f3 28C57413 		.ascii	"(\305t\023J\362\037\354X`\202\240'\344\234\213kVre\276"
 183      4AF21FEC 
 183      586082A0 
 183      27E49C8B 
 183      6B567265 
 184 0108 FDB05EE3 		.ascii	"\375\260^\343L\337*X\001\227}=\225\0115d$\235\237\236"
ARM GAS  C:\Users\Thomas\AppData\Local\Temp\ccBYtHCp.s 			page 14


 184      4CDF2A58 
 184      01977D3D 
 184      95093564 
 184      249D9F9E 
 185 011c 613B9733 		.ascii	"a;\2273C%\251\250P\021\345\317c\221\370\254\271d\246"
 185      4325A9A8 
 185      5011E5CF 
 185      6391F8AC 
 185      B964A6
 186 012f 1796CDC5 		.ascii	"\027\226\315\305D,\265\222N\232\361h,5=\031\217N$\246"
 186      442CB592 
 186      4E9AF168 
 186      2C353D19 
 186      8F4E24A6 
 187 0143 2249FA05 		.ascii	"\"I\372\005\036\315\200("
 187      1ECD8028 
 188              		.text
 189              		.section	.gnu.lto_P2_6_Start.b949a193,"",%progbits
 190 0000 789C8D53 		.ascii	"x\234\215S\337KTA\024\23633\373;X\011z\331@\004\037"
 190      DF4B5441 
 190      149E3333 
 190      FB3B5809 
 190      7AD94004 
 191 0015 2488158C 		.ascii	"$\210\025\214\372\007z\210\336\026|\013C\302\366\241"
 191      FA077A88 
 191      DE167C0B 
 191      43C2F6A1 
 192 0025 178D657D 		.ascii	"\027\215e}\024\347\356.RR!\322\203VFR\232i\255\246\226"
 192      14E7EE2E 
 192      525221D2 
 192      83564652 
 192      9A69ADA6 
 193 003a 95BA5E0D 		.ascii	"\225\272^\015*\264\014\313\324\226\310 \003{\011\305"
 193      2AB40CCB 
 193      D496C820 
 193      037B09C5 
 194 004a 4817D3ED 		.ascii	"H\027\323\355\234\271\233\271+J\027\366\314\2753g\276"
 194      9CB99BB9 
 194      2B4A17F6 
 194      CCBD3367 
 194      BE
 195 005b F37DDF39 		.ascii	"\363}\3379+\330\316\347\010\376\012$c%\270\202\215\001"
 195      2BD8CEE7 
 195      08FE0A24 
 195      6325B882 
 195      8D01
 196 006d 6F9864CC 		.ascii	"o\230d\314pr.\246\213\231r\313\241|\246\366\011\220"
 196      70722EA6 
 196      8B9972CB 
 196      A17CA6F6 
 196      0990
 197 007f D6B604A0 		.ascii	"\326\266\004\240\027\006\254\226\013\011\265\360\235"
 197      1706AC96 
 197      0B09B5F0 
 197      9D
 198 008c 2F736830 		.ascii	"/sh0\273\232<EmJ\251\245\336\011#`B\2123\266\302\255"
 198      BB9A3C45 
ARM GAS  C:\Users\Thomas\AppData\Local\Temp\ccBYtHCp.s 			page 15


 198      6D4AA9A5 
 198      DE092360 
 198      428A33B6 
 199 00a2 0270178A 		.ascii	"\002p\027\212\030&-\3076f=\366\030&\345Yg\320\001v\300"
 199      18262DC7 
 199      36663DF6 
 199      1826E559 
 199      67D00176 
 200 00b7 B57BBFA9 		.ascii	"\265{\277\251\322\351\276\370\350\034x\005Kq\220\024"
 200      D2E9BEF8 
 200      E81C7805 
 200      4B719014 
 201 00c7 1C149C14 		.ascii	"\034\024\234\024\\\024\334\024<\024\030[\300\333\304"
 201      5C14DC14 
 201      3C14185B 
 201      C0DBC4
 202 00d6 E21BE7B4 		.ascii	"\342\033\347\264\212$D\032\227\343\007\011o\225\013"
 202      8A24441A 
 202      97E30709 
 202      6F950B
 203 00e5 2C75F3FD 		.ascii	",u\363\375\2258\257YW\027\2243\305\371\006\025\303\335"
 203      9538AF59 
 203      57179433 
 203      C5F90615 
 203      C3DD
 204 00f7 F985B753 		.ascii	"\371\205\267S\316E\216;\372\263\303\210\335\200\026"
 204      CE458E3B 
 204      FAB3C388 
 204      DD8016
 205 0106 B86E28CA 		.ascii	"\270n(\312\022p\017j\240\023|\310\253\013\267\331\007"
 205      12700F6A 
 205      A0137CC8 
 205      AB0BB7D9 
 205      07
 206 0117 88CD45F3 		.ascii	"\210\315E\363\377a\032\355\203\227\034t\033\011\300"
 206      FF611AED 
 206      83971C74 
 206      1B09C0
 207 0126 7DCA63C4 		.ascii	"}\312c\304@\260\351b1\003\221<\202\254O\324\307]\242"
 207      40B0E962 
 207      3103913C 
 207      82AC4FD4 
 207      C75DA2
 208 0139 10E87D66 		.ascii	"\020\350}f\376N\235(lU*\362e\370\371i\323\270\2456\323"
 208      FE4E9D28 
 208      6C552AF2 
 208      65F8F969 
 208      D3B8A536 
 209 014e 69A0420F 		.ascii	"i\240B\017@\240~8\354\203C\276L\023 \016\205xg\352Z"
 209      40A07E38 
 209      EC8343BE 
 209      4C13200E 
 209      857867EA 
 210 0163 7BD44B35 		.ascii	"{\324K5\0040\350\306\032I\030\373U\277\371*\224e\237"
 210      0430E8C6 
 210      1A4918FB 
 210      55BFF92A 
ARM GAS  C:\Users\Thomas\AppData\Local\Temp\ccBYtHCp.s 			page 16


 210      94659F
 211 0176 3912D4DE 		.ascii	"9\022\324\336\255p\310\366\325L\277\340\204\304\240"
 211      AD70C8F6 
 211      D54CBFE0 
 211      84C4A0
 212 0185 874E79AE 		.ascii	"\207Ny\256\353\360\020\354X\253\227$9\360l\274\345\335"
 212      EBF010EC 
 212      58AB9724 
 212      39F06CBC 
 212      E5DD
 213 0197 AAA072F2 		.ascii	"\252\240r\362\342\204\241d\226GR{t{\"\322\351%\217\256"
 213      E284A164 
 213      9647527B 
 213      747B22D2 
 213      E9258FAE 
 214 01ab 1AE8910D 		.ascii	"\032\350\221\015\372\300\007\375\332\243G\344Q\022\242"
 214      FAC007FD 
 214      DAA347E4 
 214      5112A2
 215 01ba 6B7548CF 		.ascii	"kuH\317\202tZ\250?\276\376\216j\010\333\032\252xl\251"
 215      82745AA8 
 215      3FBEFE8E 
 215      6A08DB1A 
 215      AA786CA9 
 216 01ce 6804CAD9 		.ascii	"h\004\312\331\023q\000\021\021\304\322<v\322\302t\355"
 216      13710011 
 216      11C4D23C 
 216      76D2C274 
 216      ED
 217 01df 79E54986 		.ascii	"y\345I\206\304O\273\225\355\266.\274lY\354\225\272U"
 217      C44FBB95 
 217      EDB62EBC 
 217      6C59EC95 
 217      BA55
 218 01f1 48E0E97F 		.ascii	"H\340\351\177\023x\246\011\2701;\262\324\323\357'\213"
 218      1378A609 
 218      B8313BB2 
 218      D4D3EF27 
 218      8B
 219 0202 779DA5DC 		.ascii	"w\235\245\334\341\031\334\032\236!\334\326\275\243\351"
 219      E119DC1A 
 219      9E21DCD6 
 219      BDA3E9
 220 0211 9099F944 		.ascii	"\220\231\371DE\223\315\247\262\2335{ \323E\261\243O"
 220      4593CDA7 
 220      B29B357B 
 220      20D345B1 
 220      A34F
 221 0223 C3BA4F09 		.ascii	"\303\272O\011\222$\361\254\265i\275\331\246\233\222"
 221      9224F1AC 
 221      B569BDD9 
 221      A69B92
 222 0232 1ACFF4E9 		.ascii	"\032\317\364\351M\333\345\327\256m*F\266T\230\177=\251"
 222      4DDBE5D7 
 222      AE6D2A46 
 222      B654987F 
 222      3DA9
ARM GAS  C:\Users\Thomas\AppData\Local\Temp\ccBYtHCp.s 			page 17


 223 0244 C38A1686 		.ascii	"\303\212\026\206\007a\266\371\220\320\272vG\030\325"
 223      0761B6F9 
 223      90D0BA76 
 223      4718D5
 224 0253 3E78D827 		.ascii	">x\330'\210\232\0038Q\230\317r\215@\332R\323\2041\250"
 224      889A0338 
 224      5198CF72 
 224      8D40DA52 
 224      D38431A8 
 225 0267 C17FA583 		.ascii	"\301\177\245\203}\006\303\374h#E4\320\0138\233(\035"
 225      7D06C3FC 
 225      68234534 
 225      D00B389B 
 225      281D
 226 0279 DD2AF097 		.ascii	"\335*\360\227\235\010V\006Cg\302\301\263\345\245U\325"
 226      9D085606 
 226      4367C2C1 
 226      B3E5A555 
 226      D5
 227 028a A18A6059 		.ascii	"\241\212`Y\240\264\352\370\321\262@I\3711\177\005\363"
 227      A0B4EAF8 
 227      D1B24049 
 227      F9317F05 
 227      F3
 228 029b 9EAB0C07 		.ascii	"\236\253\014\007C\241\352\363a\353\364\017{T\203?"
 228      43A1EAF3 
 228      61EBF40F 
 228      7B54833F 
 229              		.text
 230              		.section	.gnu.lto_P2_6_DisableInt.b949a193,"",%progbits
 231 0000 789C7D90 		.ascii	"x\234}\220\313K\033Q\024\306\317w&\231\016\206\212t"
 231      CB4B1B51 
 231      14C6CF77 
 231      26990E86 
 231      8A74
 232 0012 21928D85 		.ascii	"!\222\215\205,\244P\004-\366\037\350\302\205\033!\333"
 232      2CA45004 
 232      2DF61FE8 
 232      C2851B21 
 232      DB
 233 0023 8088CEC2 		.ascii	"\200\210\316\302\215\312\020\227\342M\035A\024D\244"
 233      8DCA1097 
 233      E24D1D41 
 233      1444A4
 234 0032 D0884470 		.ascii	"\320\210DpQ|\305\027u\341F\030]\210\"(\245\320@\220"
 234      517CC517 
 234      75E14618 
 234      5D882228 
 234      A5D04090 
 235 0046 D6455254 		.ascii	"\326ERT\020_P\035KI\317\235\351\252\205\016\334\271"
 235      105F501D 
 235      4B49CF9D 
 235      E9AA850E 
 235      DCB9
 236 0058 0FBEEF77 		.ascii	"\017\276\357w\276s\014\372\367\213\313*\202\250Iv\030"
 236      BE730CFA 
 236      F78BCB2A 
ARM GAS  C:\Users\Thomas\AppData\Local\Temp\ccBYtHCp.s 			page 18


 236      82A84976 
 236      18
 237 0069 049E3C22 		.ascii	"\004\236<\"\312X\014\350\003\201\206\030C8\347\033\306"
 237      CA580CE8 
 237      03818618 
 237      4338E71B 
 237      C6
 238 007a A4B79C8D 		.ascii	"\244\267\234\2155|PJ]\337\026\352F\352|&\272\343\020"
 238      357C504A 
 238      5DDF16EA 
 238      46EA7C26 
 238      BAE310
 239 008d 83793490 		.ascii	"\203y4\220h\012\347\217\305\250\221\200>\227\0176\337"
 239      680AE78F 
 239      C5A89180 
 239      3E970F36 
 239      DF
 240 009e 198939A5 		.ascii	"\031\2119\245\336\236\036\224\367b*\253\334\323J\245"
 240      DE9E1E94 
 240      F7622AAB 
 240      DCD34AA5 
 241 00ae DE17F602 		.ascii	"\336\027\366\002\014q\342e\034/\342\177\202\210\341"
 241      0C71E265 
 241      1C2FE27F 
 241      8288E1
 242 00bd C6FD5588 		.ascii	"\306\375U\210\231\256\024\250\301\"\022!\034K0%\037"
 242      99AE14A8 
 242      C1221221 
 242      1C4B3025 
 242      1F
 243 00ce F4CBDA33 		.ascii	"\364\313\3323OU*\037KS\373\257\330\222\260\362\024!"
 243      4F552A1F 
 243      4B53FBAF 
 243      D892B0F2 
 243      1421
 244 00e0 9F39AA7F 		.ascii	"\2379\252\177D%Y:uY.\262\033'\030\366\336\217\327j\302"
 244      4425593A 
 244      75592EB2 
 244      1B2718F6 
 244      DE8FD76A 
 245 00f5 3D1B5260 		.ascii	"=\033R`\366\363\304*\017\376T\243\312\362Y\022h\356"
 245      F6F3C42A 
 245      0FFE54A3 
 245      CAF25912 
 245      68EE
 246 0107 3206C51D 		.ascii	"2\006\305\035\241/\340\240\2240E,3\331\3751\366=\357"
 246      A12FE0A0 
 246      9430452C 
 246      33D9FD31 
 246      F63DEF
 247 011a 84E68898 		.ascii	"\204\346\210\230\327\267.\213O\317\330\347\350\364a"
 247      D7B72E8B 
 247      4FCFD8E7 
 247      E8F461
 248 0129 464574E0 		.ascii	"FEt\340o\245\343OV\360\024\344\337\336\311\357V\345"
 248      6FA5E34F 
 248      56F014E4 
ARM GAS  C:\Users\Thomas\AppData\Local\Temp\ccBYtHCp.s 			page 19


 248      DFDEC9EF 
 248      56E5
 249 013b 309371E1 		.ascii	"0\223q\341\263\211<\342X\201\364\207U\344 \304\341\007"
 249      B3893CE2 
 249      5881F487 
 249      55E420C4 
 249      E107
 250 014d 33C44543 		.ascii	"3\304EC\342\342Q\366\242Z\333\315+\020\326D*U\247\240"
 250      E2E251F6 
 250      A25ADBCD 
 250      2B10D644 
 250      2A55A7A0 
 251 0161 35FFA3AD 		.ascii	"5\377\243\255\013M\030t\002\327\2339\014R\323\337\315"
 251      0B4D1874 
 251      02D79B39 
 251      0C52D3DF 
 251      CD
 252 0172 3DB9D303 		.ascii	"=\271\323\003\301\2064'\335\370l\321Wd\274\\[ &=*\350"
 252      C1863427 
 252      DDF86CD1 
 252      5764BC5C 
 252      5B20263D 
 253 0188 1189E679 		.ascii	"\021\211\346yc\252\325\356\265\235\316\264\335\335\221"
 253      63AAD5EE 
 253      B59DCEB4 
 253      DDDD91
 254 0197 EC1B70BA 		.ascii	"\354\033p\272\354T{\262\357MK\252\275\271\343uc\027"
 254      EC547BB2 
 254      EF4D4BAA 
 254      BDB9E375 
 254      6317
 255 01a9 55F7F4A6 		.ascii	"U\367\364\246m\307\031\350O'\323\"\372\015\347\231\265"
 255      6DC719E8 
 255      4F27D322 
 255      FA0DE799 
 255      B5
 256 01ba 8D       		.ascii	"\215"
 257              		.text
 258              		.section	.gnu.lto_P2_6_Stop.b949a193,"",%progbits
 259 0000 789C7D8F 		.ascii	"x\234}\217=HBQ\030\206\277\367\273z\021\204\210&q\212"
 259      3D484251 
 259      1886BFF7 
 259      BB7A1184 
 259      8826718A 
 260 0014 163787A0 		.ascii	"\0267\207\240\226\306\006W\301-\004\011\273k\202\324"
 260      96C60657 
 260      C12D0409 
 260      BB6B82D4 
 261 0024 28DE8B06 		.ascii	"(\336\213\006\321\020\352d\204BC\364c\331`\264\005\227"
 261      D110EA64 
 261      844243F4 
 261      63D960B4 
 261      0597
 262 0036 16A3A188 		.ascii	"\026\243\241\210\206\300\376\026\213\3322\351\347\""
 262      86C0FE16 
 262      8BDA32E9 
 262      E722
ARM GAS  C:\Users\Thomas\AppData\Local\Temp\ccBYtHCp.s 			page 20


 263 0044 65DFF18E 		.ascii	"e\337\361\216A\007\316\371\316\317\373=\357y5\372;\202"
 263      4107CEF9 
 263      CECFFB3D 
 263      EF7935FA 
 263      3B82
 264 0056 32A3201A 		.ascii	"2\243 \032\223\012\215\300\205s\"\313\307\200\332\020"
 264      930A8DC0 
 264      857322CB 
 264      C780DA10 
 265 0066 28CBC8E2 		.ascii	"(\313\310\342\205;\214\202]+\373C\233\246i\276\226\216"
 265      853B8C82 
 265      5D2BFB43 
 265      9BA669BE 
 265      968E
 266 0078 034B0187 		.ascii	"\003K\001\207\211\272\354b\260\205\020\211\246\223\377"
 266      89BAEC62 
 266      B0851089 
 266      A693FF
 267 0087 BEF6EB79 		.ascii	"\276\366\353y\321\014\273o\330\206.x:\030\261\315~\277"
 267      D10CBB6F 
 267      D8862E78 
 267      3A18B1CD 
 267      7EBF
 268 0099 F15E3C9D 		.ascii	"\361^<\235\202\316\344\260\230\311B\324\026\225\262"
 268      82CEE4B0 
 268      98C942D4 
 268      1695B2
 269 00a8 7A645655 		.ascii	"zdVUk\341\344c\345\251:\243\032?Y\371n\224{k\336gv\230"
 269      6BE1E463 
 269      E5A93AA3 
 269      1A3F59F9 
 269      6E947B6B 
 270 00c0 9D33CBF4 		.ascii	"\2353\313\364(\233\207\366\305\245opE\352\330|;jp\005"
 270      289B87F6 
 270      C5A56F70 
 270      45EAD87C 
 270      3B6A7005 
 271 00d4 EB561E0E 		.ascii	"\353V\036\016k\330A\020\273\220d\250\241\002j!\367\245"
 271      6BD84110 
 271      BB9064A8 
 271      A1026A21 
 271      F7A5
 272 00e6 BB38CD25 		.ascii	"\2738\315%\026\213\207\325!\325\256\375\200\260'Rq-"
 272      168B87D5 
 272      21D5AEFD 
 272      80B02752 
 272      712D
 273 00f8 4169FEA3 		.ascii	"Ai\376\243\355\013M\030t\213\234}\323d%W\356\325\253"
 273      ED0B4D18 
 273      748B9C7D 
 273      D3642557 
 273      EED5AB
 274 010b D53A677A 		.ascii	"\325:gz\346\262\351s\330\323U\241PGF\342y\351\036\226"
 274      E6B2E973 
 274      D8D355A1 
 274      504746E2 
 274      79E91E96 
ARM GAS  C:\Users\Thomas\AppData\Local\Temp\ccBYtHCp.s 			page 21


 275 011f 7D171928 		.ascii	"}\027\031(Ie\205\312(\237\036\015\307#\306\274\221\236"
 275      496585CA 
 275      289F1E0D 
 275      C723C6BC 
 275      919E
 276 0131 5D30E612 		.ascii	"]0\346\022\261\324b:i\304\243\261\324\364D<:\236\230"
 276      B1D4623A 
 276      69C4A3B1 
 276      D4F4443C 
 276      3A9E98
 277 0144 0C27E917 		.ascii	"\014'\351\027=Q\201b"
 277      3D518162 
 278              		.text
 279              		.section	.gnu.lto_P2_6_SetIntMode.b949a193,"",%progbits
 280 0000 789C8D51 		.ascii	"x\234\215Q=,CQ\024>\337\275\257\355\303P1\321I\"4\022"
 280      3D2C4351 
 280      143EDFBD 
 280      AFEDC350 
 280      31D14922 
 281 0016 31346196 		.ascii	"14a\226\030\304&\254MD\352\015\026\344\245f\257Z\203"
 281      18C426AC 
 281      4D44EA0D 
 281      16E4A566 
 281      AF5A83
 282 0029 2E7E6290 		.ascii	".~b\220Hc\020\361_\312*\322X*$\204E\322\201A%\030D\021"
 282      486310F1 
 282      5FCA2AD2 
 282      582A2484 
 282      45D28141 
 283 0041 55F177EE 		.ascii	"U\361w\356{&\022\361\222{\316\271\367}?\347\236+\351"
 283      7B2612F1 
 283      927BCEB9 
 283      F77D3FE7 
 283      9E2BE9
 284 0054 F7E7E3A5 		.ascii	"\367\347\343\245\011\242\000gH\202\2308\"\212\350\002"
 284      09A20067 
 284      48829838 
 284      228AE802 
 285 0064 50058186 		.ascii	"P\005\201\206\005\206q#\362\002\023\351\325\2312\377"
 285      05867123 
 285      F20213E9 
 285      D59932FF 
 286 0074 826559F7 		.ascii	"\202eY\367\247\223U\243\225E\246=\012G\006\213\3603"
 286      A79355A3 
 286      9545A63D 
 286      0A47068B 
 286      F033
 287 0086 24BE1B4F 		.ascii	"$\276\033O\226\310\032\020\327\323\257\231[Y;oY#\351"
 287      96C81A10 
 287      D7D3AF99 
 287      5B593B6F 
 287      5923E9
 288 0099 9DA4D582 		.ascii	"\235\244\325\202\"k.A2\003\015>\324\373\210\017\010"
 288      226B2E41 
 288      32030D3E 
 288      D4FB880F 
 288      08
ARM GAS  C:\Users\Thomas\AppData\Local\Temp\ccBYtHCp.s 			page 22


 289 00aa CBA855E0 		.ascii	"\313\250U\340|\354\375\254\314\035c\355rG\023+p\203"
 289      7CECFDAC 
 289      CC1D63ED 
 289      7247132B 
 289      7083
 290 00bc F34645DA 		.ascii	"\363FE\332\372\374\334\316L/\325i\245\2029B\252\340"
 290      FAFCDCCE 
 290      4C2FD569 
 290      A5823942 
 290      AAE0
 291 00ce 52C10D45 		.ascii	"R\301\015E\367\250RW\201(\307K\365}\305\033\3162\213"
 291      F7A85257 
 291      8128C74B 
 291      F57DC51B 
 291      CE328B
 292 00e1 BDE7F8C7 		.ascii	"\275\347\370\307\276\251\324\012B]\342 qZ\220\327\242"
 292      BEA9D40A 
 292      425DE220 
 292      715A90D7 
 292      A2
 293 00f2 28E4D861 		.ascii	"(\344\330a\304\322\224\367E\356\370D\267\217Hm\037R"
 293      C4D294F7 
 293      45EEF844 
 293      B78F486D 
 293      1F52
 294 0104 E3737A02 		.ascii	"\343sz\002\263\221\030\267\254a\025>\254\201\307\204"
 294      B39118B7 
 294      AC61153E 
 294      AC81C784 
 295 0114 75244059 		.ascii	"u$@YD_\334\216\234t\024\357.\337\2426]{\341\373$\031"
 295      445FDC8E 
 295      9C7414EF 
 295      2EDFA236 
 295      5D7BE1FB 
 296 012a CAAE5350 		.ascii	"\312\256SP\230\277\3246X\2155\310nq\257\335\221t\375"
 296      98BFD436 
 296      588D35C8 
 296      6E71AFDD 
 296      9174FD
 297 013d C5D8FCE1 		.ascii	"\305\330\374\341\357)\010\345Px\313\214zm\177\017!e"
 297      EF2908E5 
 297      5078CB8C 
 297      7A6D7F0F 
 297      2165
 298 014f DB479FBE 		.ascii	"\333G\237\276!:K2\360\177\035m\331\035\351t\216Hz\273"
 298      213A4B32 
 298      F07F1D6D 
 298      D91DE974 
 298      8E487ABB 
 299 0163 53A1D5CB 		.ascii	"S\241\325\313\346\370\225x\224<\330\352\306`\233\321"
 299      E6F89578 
 299      943CD8EA 
 299      C6609BD1 
 300 0173 6F983D61 		.ascii	"o\230=a\243\267\273k`\310\014\031\301\216\256\201\326"
 300      A3B7BB6B 
 300      60C80C19 
 300      C18EAE81 
ARM GAS  C:\Users\Thomas\AppData\Local\Temp\ccBYtHCp.s 			page 23


 300      D6
 301 0184 A66047A0 		.ascii	"\246`G\240\273\2711D\336\276\376\260a\232C\203a\347"
 301      BBB93144 
 301      DEBEFEB0 
 301      619A4383 
 301      61E7
 302 0196 EF17380C 		.ascii	"\357\0278\014\276!"
 302      BE21
 303              		.text
 304              		.section	.gnu.lto_P2_6_GetIntStatus.b949a193,"",%progbits
 305 0000 789C6366 		.ascii	"x\234cf\300\004R@\374\007\210\225\200\230\221\231\201"
 305      C0045240 
 305      FC078895 
 305      80989199 
 305      81
 306 0011 9169C239 		.ascii	"\221i\3029\006\206F\016&FF\020\203\201\221\241\236\211"
 306      0686460E 
 306      26464610 
 306      838191A1 
 306      9E89
 307 0023 B19EF125 		.ascii	"\261\236\361%\323G&\3063;\377]fT_\332\320\320\364a\321"
 307      D34726C6 
 307      333BFF5D 
 307      66545FDA 
 307      D0D0F461 
 308 0038 F4BBDCAD 		.ascii	"\364\273\334\255\022?\231\030\030>310\352H1j\202\314"
 308      123F9918 
 308      183E3331 
 308      30EA4831 
 308      6A82CC
 309 004b 615CCEA8 		.ascii	"a\\\316\250\316\000T\370\261\345\357un\266\226\206\206"
 309      CE0054F8 
 309      B1E5EF75 
 309      6EB69686 
 309      86
 310 005c 0601903C 		.ascii	"\006\001\220<Pb\005#\033#\220^/t\240\341\377\377\317"
 310      50620523 
 310      1B23905E 
 310      2F74A0E1 
 310      FFFFCF
 311 006f 77A7ACD0 		.ascii	"w\247\254\320gaab\370\311\004\264\021d\010\303\023 "
 311      67616162 
 311      F8C904B4 
 311      116408C3 
 311      1320
 312 0081 01B2EF29 		.ascii	"\001\262\357)\023\023\210f\276\305x\350[\327\263\323"
 312      13138866 
 312      BEC578E8 
 312      5BD7B3D3 
 313 0091 16208DDF 		.ascii	"\026 \215\337\231@\226\337\237\367a=\307\013\246\237"
 313      994096DF 
 313      9FF7613D 
 313      C70BA69F 
 314 00a1 4C4C2F4F 		.ascii	"LL/O56\260\200\254\271\377\344\374E\210\020\003\210"
 314      3536B080 
 314      ACB9FFE4 
 314      FC458810 
ARM GAS  C:\Users\Thomas\AppData\Local\Temp\ccBYtHCp.s 			page 24


 314      0388
 315 00b3 3BE1E49A 		.ascii	";\341\344\232]<s\031g7\2660\376dbf\\\311(\305\270\212"
 315      5D3C7319 
 315      6737B630 
 315      FE646266 
 315      5CC928C5 
 316 00c9 11E82CC6 		.ascii	"\021\350,\306\325\214s\031\031n16\377h\323\201\230\307"
 316      D58C7319 
 316      196E3136 
 316      FF68D381 
 316      98C7
 317 00db 0C31F2FB 		.ascii	"\0141\362\373\237\343\255\374 \375\014\354\014\214k"
 317      9FE3ADFC 
 317      20FD0CEC 
 317      0C8C6B
 318 00ea 804AEF31 		.ascii	"\200J\35712B\025\200\235\304\010r\012\320l\005\275\030"
 318      32421580 
 318      9DC40872 
 318      0AD06C05 
 318      BD18
 319 00fc F7D4BCD4 		.ascii	"\367\324\274\324\242\304\222\324\224\370\340\374\322"
 319      A2C492D4 
 319      94F8E0FC 
 319      D2
 320 0109 A2E4D498 		.ascii	"\242\344\324\230\200\340|g\323\230\000\243x3\275d\006"
 320      80E07C67 
 320      D39800A3 
 320      7833BD64 
 320      06
 321 011a 00B62865 		.ascii	"\000\266(e\313"
 321      CB
 322              		.text
 323              		.section	.gnu.lto_P2_6_WriteRegValue.b949a193,"",%progbits
 324 0000 789C654F 		.ascii	"x\234eO=HBQ\030\375\316}\3170\254\220\246r\012B\\\302"
 324      3D484251 
 324      18FDCE7D 
 324      CF30AC90 
 324      A6720A42 
 325 0016 21A8A129 		.ascii	"!\250\241)(h\025l\024D\354E-\011f\263\367\205\375@\015"
 325      2868156C 
 325      1444EC45 
 325      2D0966B3 
 325      F785FD40 
 326 002b 0E229138 		.ascii	"\016\"\2218U\364ce\320\324&\265HAQ\020bC\221(\0244d"
 326      55F46365 
 326      D0D426B5 
 326      48415110 
 326      62439128 
 327 0042 0AE610F6 		.ascii	"\012\346\020\366\335\034\273p\371\276s8\367\234s5\372"
 327      DD1CBB70 
 327      F9BE7338 
 327      F79C7335 
 327      FA
 328 0053 7F1C7C5D 		.ascii	"\177\034|] \032\342\011\215 \342\267D\246U\000j!PT "
 328      201AE209 
 328      8D20E2B7 
 328      44A65500 
ARM GAS  C:\Users\Thomas\AppData\Local\Temp\ccBYtHCp.s 			page 25


 328      6A215054 
 329 0068 8A775115 		.ascii	"\212wQ\025\210\3472[6\327\236\224\362\263\224\352_\351"
 329      88E7325B 
 329      36D79E94 
 329      F2B394EA 
 329      5FE9
 330 007a 6B0AA29A 		.ascii	"k\012\242\232h\333`\037.\226\\5>\326,\332 \210\367\233"
 330      68DB601F 
 330      2E965C35 
 330      3ED62CDA 
 330      2088F79B 
 331 008e D277ADEB 		.ascii	"\322w\255\353M4\005\354\012n\027*uMA!\024,\026\0376"
 331      4D3405EC 
 331      0A6E172A 
 331      754D4121 
 331      142C161F 
 332 00a3 ADCE1D29 		.ascii	"\255\316\035)\227s\37139\316\274\206\003h\354\207C8"
 332      9773F933 
 332      39CEBC86 
 332      0368EC87 
 332      4338
 333 00b5 70040731 		.ascii	"p\004\0071E\310\300\251\344\325\330O\301\326\021\343"
 333      45C8C0A9 
 333      E4D5D84F 
 333      C1D611E3 
 334 00c5 6C7B3B13 		.ascii	"l{;\023\307\350\340\332\224\355\315\311V\353\274\236"
 334      C7E8E0DA 
 334      94EDCDC9 
 334      56EBBC9E 
 335 00d5 C88FE93A 		.ascii	"\310\217\351:\267Vz*\263B\325\257p\026O\355\011\227"
 335      B7567A2A 
 335      B342D5AF 
 335      70164FED 
 335      0997
 336 00e7 C96A7D5A 		.ascii	"\311j}Z\275a\257\344\306\327E\267j\242\257_\233RW\366"
 336      BD61AFE4 
 336      C6D745B7 
 336      6AA2AF5F 
 336      9B5257F6 
 337 00fb 2FE5BB7B 		.ascii	"/\345\273{\353\037E\012&^wW{\322H\23114\205\005'\\\350"
 337      EB1F450A 
 337      265E7757 
 337      7BD24899 
 337      31348505 
 338 0112 940B11B2 		.ascii	"\224\013\021\262H\243\301\246\3170s\217^\345\247>_\026"
 338      48A3C1A6 
 338      CF30738F 
 338      5EE5A73E 
 338      5F16
 339 0124 50311C3A 		.ascii	"P1\034:\340\366M\031\013F8\0201f\374\336\320R8h\370"
 339      E0F64D19 
 339      0B463810 
 339      3166FCDE 
 339      D0523868 
 340 0139 3CDED0C4 		.ascii	"<\336\320\304\210\3173\354\037u\007\251sqn~62\031\210"
 340      88CF33EC 
 340      1F7507A9 
ARM GAS  C:\Users\Thomas\AppData\Local\Temp\ccBYtHCp.s 			page 26


 340      73716E7E 
 340      36321988 
 341 014d 047E0110 		.ascii	"\004~\001\020\210y}"
 341      88797D
 342              		.text
 343              		.section	.gnu.lto_P2_6_ReadRegValue.b949a193,"",%progbits
 344 0000 789C6D52 		.ascii	"x\234mR]H\223Q\030~\337s\276\357sM3\351r7\006#\264\010"
 344      5D489351 
 344      187EDF73 
 344      BEEF734D 
 344      33E97237 
 345 0018 0BA12EEA 		.ascii	"\013\241.\352&\210\210\356\004o\007\":!\210\006K/\305"
 345      268888EE 
 345      046F0722 
 345      3A218806 
 345      4B2FC5
 346 002b 33FD28CB 		.ascii	"3\375(\313l\012ef8\362\302\232\231\232i?\376\301\264"
 346      6C0A6566 
 346      38F2C29A 
 346      999A693F 
 346      FEC1B4
 347 003e C8287F10 		.ascii	"\310(\177\020KKF\015\331 \275\210l\345\032Q\353=\347"
 347      4B4B460D 
 347      D920BD88 
 347      6CE51A51 
 347      EB3DE7
 348 0051 73D0B20F 		.ascii	"s\320\262\017\266\357\234\363=\357s\336\347y^\016\333"
 348      B6EF9CF3 
 348      3DEF73DE 
 348      E7795E0E 
 348      DB
 349 0062 9F93F4AB 		.ascii	"\237\223\364\253\346\000\207\350\215\006 k\231\003\360"
 349      E60087E8 
 349      8D06206B 
 349      9903F0
 350 0071 D9186AD6 		.ascii	"\331\030j\326\202[\213I\233\306\370\225i\000a\327\315"
 350      825B8B49 
 350      9BC6F895 
 350      690061D7 
 350      CD
 351 0082 2C10393A 		.ascii	",\0209:\242<\007\204:\3065\035\353\230f\021\256\261"
 351      A23C0784 
 351      3AC6351D 
 351      EB986611 
 351      AEB1
 352 0094 0D86AF57 		.ascii	"\015\206\257W\177\304s>\261$\203<\240m\307r\354\033"
 352      7FC4733E 
 352      B124833C 
 352      A06DC772 
 352      EC1B
 353 00a6 975B6472 		.ascii	"\227[dr;\026\237[5\012\272\205\250\377\362u\241\274"
 353      3B169F5B 
 353      350ABA85 
 353      A8FFF275 
 353      A1BC
 354 00b8 FDDA6D4C 		.ascii	"\375\332mL2\006q\006x\027\035\030D\207\344\355\301\002"
 354      32067106 
ARM GAS  C:\Users\Thomas\AppData\Local\Temp\ccBYtHCp.s 			page 27


 354      78171D18 
 354      4487E4ED 
 354      C102
 355 00ca 89ED097F 		.ascii	"\211\355\011\177\017\345r'\312\265\277)\260\270\323"
 355      0FE57227 
 355      CAB5BF29 
 355      B0B8D3
 356 00d9 D9457591 		.ascii	"\331Eu\221\233\315\027sDP\230\221T*\237\212\361\036"
 356      9BCD1773 
 356      44509891 
 356      542A9F8A 
 356      F11E
 357 00eb F2CC7AF9 		.ascii	"\362\314z\371P\311\206\371k9\3330\205\020y\330\213N"
 357      50C986F9 
 357      6B39DB30 
 357      851079D8 
 357      8B4E
 358 00fd 790971DF 		.ascii	"y\011q\337G\003\001\230<!\314\215\311\3566\273E\233"
 358      47030198 
 358      3C21CC8D 
 358      C9EE36BB 
 358      459B
 359 010f 8CBDC816 		.ascii	"\214\275\310\026\355iZ\236\246=\340\300}iR\354C\347"
 359      ED695A9E 
 359      A63DE0C0 
 359      7D6952EC 
 359      43E7
 360 0121 C0EE9048 		.ascii	"\300\356\220H\245\206f\332\032\017\0326\016I\246i\364"
 360      A58666DA 
 360      1A0F1A36 
 360      0E49A669 
 360      F4
 361 0132 A7EB2019 		.ascii	"\247\353 \031\015\005\001\210\322UdU\224\244\231Y<\306"
 361      0D050188 
 361      D2556455 
 361      94A49959 
 361      3CC6
 362 0144 38907F7C 		.ascii	"8\220\177|\005\2476/o\256\025\313\036\022\214\323\365"
 362      05A7362F 
 362      6FAE15CB 
 362      1E128CD3 
 362      F5
 363 0155 2D4D97BA 		.ascii	"-M\227\272\2304\307x\367\312'4\331\365\307\350\374\202"
 363      9834C778 
 363      F7CA2734 
 363      D9F5C7E8 
 363      FC82
 364 0167 4D1D2911 		.ascii	"M\035)\021=\2033Q\275\023o\371L2*\013\373I\344\200\024"
 364      3D833351 
 364      BD136FF9 
 364      4C322A0B 
 364      FB49E480 
 365 017c 890FB093 		.ascii	"\211\017\260\223t@\214\274\2470\370\022\326+\273\375"
 365      74408CBC 
 365      A730F812 
 365      D62BBBFD 
 366 018c B353E15D 		.ascii	"\263S\341]|\277\362\354M\360e\275f\211\3637g\212\033"
ARM GAS  C:\Users\Thomas\AppData\Local\Temp\ccBYtHCp.s 			page 28


 366      7CBFF2EC 
 366      4DF065BD 
 366      6689F337 
 366      678A1B
 367 019f FC8FB887 		.ascii	"\374\217\270\207\312\221\371\3103\277\212\217\323\367"
 367      CA91F9C8 
 367      33BF8A8F 
 367      D3F7
 368 01ad 21BA8A98 		.ascii	"!\272\212\230C\211\246\334\014CC#\035{%^\331\031g\370"
 368      4389A6DC 
 368      0C434323 
 368      1D7B255E 
 368      D91967F8 
 369 01c1 AFDDD204 		.ascii	"\257\335\322\004\034\246\231\002|D~\367)\346\326\326"
 369      1CA69902 
 369      7C447EF7 
 369      29E6D6D6 
 370 01d1 E140AE62 		.ascii	"\341@\256b\376\215\200\217-\352<\011\240\217\323\317"
 370      FE8D808F 
 370      2DEA3C09 
 370      A08FD3CF 
 371 01e1 47C7F5C2 		.ascii	"G\307\365\302;T\035\031\357\013\037\267\021*\335\327"
 371      3B541D19 
 371      EF0B1FB7 
 371      112ADDD7 
 372 01f1 132C548D 		.ascii	"\023,T\215\204\261A\241\023L\026\004\026\257\366\263"
 372      84B141A1 
 372      134C1604 
 372      16AFF6B3 
 373 0201 DA9FA251 		.ascii	"\332\237\242Q\020\326\026\2479\220\367\341S\254\245"
 373      10D616A7 
 373      3990F7E1 
 373      53ACA5
 374 0210 3876286A 		.ascii	"8v(j\025\006\241\341-\232\357\033\342\303\016\313x\343"
 374      1506A1E1 
 374      2D9AEF1B 
 374      E2C30ECB 
 374      78E3
 375 0222 EFA9D449 		.ascii	"\357\251\324I\345\310\326\324\304\230.\343R1-\255\333"
 375      E5C8D6D4 
 375      C4982EE3 
 375      52312DAD 
 375      DB
 376 0233 2DB446E8 		.ascii	"-\264F\350\316\216\300\254&\321\366\366m1\331UL\376"
 376      CE8EC0AC 
 376      26D1F6F6 
 376      6D31D955 
 376      4CFE
 377 0245 0B13D78D 		.ascii	"\013\023\327\215tL\3318J1\215\251\230\306eL\212\361"
 377      744CD938 
 377      4A318DA9 
 377      98C6654C 
 377      8AF1
 378 0257 F3FA518B 		.ascii	"\363\372Q\213Q\317\210\325\027\312\317\014vBVP\373\342"
 378      51CF88D5 
 378      17CACF0C 
 378      76425650 
ARM GAS  C:\Users\Thomas\AppData\Local\Temp\ccBYtHCp.s 			page 29


 378      FBE2
 379 0269 989AD55E 		.ascii	"\230\232\325^)A\207\017\350\013%V\330\026\003\310\021"
 379      2941870F 
 379      E80B2556 
 379      D81603C8 
 379      11
 380 027a 436A96E6 		.ascii	"Cj\226\346lO\221\353\224\373\234\333[^\355\256,+\365"
 380      6C4F91EB 
 380      94FB9CDB 
 380      5B5EEDAE 
 380      2C2BF5
 381 028d D4782BDC 		.ascii	"\324x+\334\256\222R\317\211\303\256\222\342\262#E\025"
 381      AE9252CF 
 381      89C3AE92 
 381      E2B22345 
 381      15
 382 029e 6078DDE7 		.ascii	"`x\335\347k\316V\033Ug\252<\247+\377\000\002\231F\322"
 382      6BCE561B 
 382      5567AA3C 
 382      A72BFF00 
 382      029946D2 
 383              		.text
 384              		.section	.gnu.lto_.symbol_nodes.b949a193,"",%progbits
 385 0000 789C55CF 		.ascii	"x\234U\317\261\015\3020\024\004\320\263\177\034;\211"
 385      B10DC230 
 385      1404D0B3 
 385      7F1C3B89 
 386 0010 93929609 		.ascii	"\223\222\226\011`\305\213\322\320\262\000\210D\254A"
 386      60C58BD2 
 386      D0B20088 
 386      44AC41
 387 001f 13513303 		.ascii	"\023Q3\003\364\210\021\020FI\341\377\233\323\323]\363"
 387      F4881110 
 387      4649E1FF 
 387      9BD3D35D 
 387      F3
 388 0030 05C0DE60 		.ascii	"\005\300\336`9\333\0218>\000\322\234\246\000\353iV\343"
 388      39DB1138 
 388      3E00D29C 
 388      A600EB69 
 388      56E3
 389 0042 7C49165A 		.ascii	"|I\026ZeGQ\266,\224\015]n\007\214\226\260%K5+\350\225"
 389      654751B6 
 389      2C940D5D 
 389      6E078C96 
 389      B0254B35 
 390 0059 038372C5 		.ascii	"\003\203r\305J\271f\255\334\260\311mZ\306\305\350\373"
 390      4AB966AD 
 390      DCB0C96D 
 390      5AC6C5E8 
 390      FB
 391 006a C4C836A3 		.ascii	"\304\3106\243\244o\207q#\322\341\372\374\032\221\026"
 391      A46F8771 
 391      23D2E1FA 
 391      FC1A9116 
 392 007a F757CA42 		.ascii	"\367W\312B0\374\323\011\346\303{+~\355\375\332\007\277"
 392      30FCD309 
ARM GAS  C:\Users\Thomas\AppData\Local\Temp\ccBYtHCp.s 			page 30


 392      E6C37B2B 
 392      7EEDFDDA 
 392      07BF
 393 008c F411986E 		.ascii	"\364\021\230n\237\035~\340<P7"
 393      9F1D7EE0 
 393      3C5037
 394              		.text
 395              		.section	.gnu.lto_.refs.b949a193,"",%progbits
 396 0000 789C6366 		.ascii	"x\234cf``\340d\200\000&V\0066FF6.\006\000\001z\000,"
 396      6060E064 
 396      80002656 
 396      06364646 
 396      362E0600 
 397              		.text
 398              		.section	.gnu.lto_.decls.b949a193,"",%progbits
 399 0000 789C9D55 		.ascii	"x\234\235UiLTW\024~w\356\200\3140\200mRlI\223\21611"
 399      694C5457 
 399      147E77EE 
 399      80CC3080 
 399      6D526C49 
 400 0018 6962884B 		.ascii	"ib\210KJ\354\257\232R\267\246\213\221\264\375\241\211"
 400      4AECAF9A 
 400      52B7A68B 
 400      91B4FDA1 
 400      89
 401 0029 417CB193 		.ascii	"A|\261\223\03008$\345W/\202\025E\013\325Z@Eq\301\215"
 401      18303824 
 401      E5572F82 
 401      15450BD5 
 401      5A404571 
 402 003f 8A838AC8 		.ascii	"\212\203\212\310\242\014\213\003\210\"\350\010\"\312"
 402      A20C8B03 
 402      8822E808 
 402      22CA
 403 004d AA208B38 		.ascii	"\252 \2138l\306\245:=wy\316{S@\323\233\234\231\267\234"
 403      6CC6A53A 
 403      3D7779CE 
 403      7B5340D3 
 403      9B9C99B7 
 404 0062 F37DDFB9 		.ascii	"\363}\337\271\347\274s\261$I'\260$\271a\245\032%\351"
 404      E7BC73B1 
 404      244927B0 
 404      24B961A5 
 404      1A25E9
 405 0075 57244901 		.ascii	"W$I\001\360l\005\030\\J\301\022_\201`\371`\005`\027"
 405      F06C0518 
 405      5C4AC112 
 405      5F8160F9 
 405      60056017 
 406 0089 C18AC14A 		.ascii	"\301\212\301J\301.\203\331\301*\300\034`\265`N\260f"
 406      C12E83D9 
 406      C12AC01C 
 406      60B5604E 
 406      B066
 407 009b B016B056 		.ascii	"\260\026\260V\201\323&i\027\305\232\006\226+8\226\201"
 407      81D32669 
 407      17C59A06 
ARM GAS  C:\Users\Thomas\AppData\Local\Temp\ccBYtHCp.s 			page 31


 407      962B3896 
 407      81
 408 00ac 75837582 		.ascii	"u\203u\202}-\370\351\322\251xA\246\364\000\354!X\217"
 408      7D2DF8E9 
 408      D2A97841 
 408      A6F400EC 
 408      21588F
 409 00bf 171E7DAF 		.ascii	"\027\036}\257W\341\365\202\235Qa\024\010\034\252\345"
 409      57E1F582 
 409      9D516114 
 409      081CAAE5 
 410 00cf 91572CCD 		.ascii	"\221W,\315\307Gp\006\013\014E\213\022\177Q\344\347\275"
 410      C7477006 
 410      0B0C458B 
 410      127F51E4 
 410      E7BD
 411 00e1 E83E1844 		.ascii	"\350>\030D\254\302\335\007V\255\302\350\007\253\022"
 411      ACC2DD07 
 411      56ADC2E8 
 411      07AB12
 412 00f0 FE58C4B4 		.ascii	"\376X\304\264\212\375\361^tO}UZ\024\214\001\260\013"
 412      8AFDF15E 
 412      744F7D55 
 412      5A148C01 
 412      B00B
 413 0102 2A3DA502 		.ascii	"*=\245\002\307{\321z\370\251\342\007\275\362Q\343\370"
 413      C77BD17A 
 413      F8A9E207 
 413      BDF251E3 
 413      F8
 414 0113 087F2537 		.ascii	"\010\177%7\005s\242z\331\377G\236\366)\362\254x\307"
 414      0573A27A 
 414      D9FF479E 
 414      F629F2AC 
 414      78C7
 415 0125 3C2B048E 		.ascii	"<+\004\216\367rH\236\232)z\3245C\322\304\365\242\375"
 415      F772489E 
 415      9A297AD4 
 415      3543D2C4 
 415      F5A2FD
 416 0138 A99F22A6 		.ascii	"\251\237\"\246v\202\030\247J+\375\016L`\015`\303`.U"
 416      768218A7 
 416      4A2BFD0E 
 416      4C600D60 
 416      C3602E55 
 417 014c AC7382D8 		.ascii	"\254s\202\330f\341\257\216\243\334f\301?\0126\"y\372"
 417      66E1AF8E 
 417      A3DC66C1 
 417      3F0A3622 
 417      79FA
 418 015e 751C6C4C 		.ascii	"u\034lL\304b\021\257\364\256\367\032\326\241\246\262"
 418      C46211AF 
 418      F4AEF71A 
 418      D6A1A6B2 
 419 016e AD5BFDB0 		.ascii	"\255[\375\260\016\321\353#\031\235N\343\234S\204\220"
 419      0ED1EB23 
 419      199D4EE3 
ARM GAS  C:\Users\Thomas\AppData\Local\Temp\ccBYtHCp.s 			page 32


 419      9C538490 
 420 017e 6462B723 		.ascii	"db\267#\217S\302\261\222\035\323\036\351P\260\221\335"
 420      8F53C2B1 
 420      921DD31E 
 420      E950B091 
 420      DD
 421 018f FE5EB7B7 		.ascii	"\376^\267\267\034\263[7\215\323\265\264\374\371\034"
 421      1CB35B37 
 421      8DD3B5B4 
 421      FCF91C
 422 019e 23E3EC64 		.ascii	"#\343\354dB6\023\327.\202?\224\320\234\020\364i\210"
 422      423613D7 
 422      2E823F94 
 422      D09C10F4 
 422      6988
 423 01b0 84FE46B3 		.ascii	"\204\376F\263\301\015\235@s$t\022\205\240S(D:\012\004"
 423      C10D9D40 
 423      73247412 
 423      85A05328 
 423      443A0A04 
 424 01c4 AE83CEBB 		.ascii	"\256\203\316\273\037\023\242G\271\310\210\216#\314<"
 424      1F13A247 
 424      B9C8888E 
 424      23CC3C
 425 01d3 60132883 		.ascii	"`\023(\203 -\312\033\273\356\017,\201F3\275-\336U\223"
 425      202DCA1B 
 425      BBEE0F2C 
 425      814633BD 
 425      2DDE5593 
 426 01e7 E10BB726 		.ascii	"\341\013\267&\243\236\336nK\262\341\031{\000\211\244"
 426      A39EDE6E 
 426      4BB2E119 
 426      7B0089A4 
 427 01f7 2592E91C 		.ascii	"%\222\351\034\3474\020\344\001\201\204\316\240\031\360"
 427      E73410E4 
 427      018184CE 
 427      A019F0
 428 0206 BB4ACF91 		.ascii	"\273J\317\221\032S\332\326\341\005,\305\373\355#\367"
 428      1A53DAD6 
 428      E1052CC5 
 428      FBED23F7 
 429 0216 83CC0788 		.ascii	"\203\314\007\210\335\346\312\352.\371<3-{3y\355v#\242"
 429      DDE6CAEA 
 429      2EF93C33 
 429      2D7B3379 
 429      ED7623A2 
 430 022a A331C8F6 		.ascii	"\2431\310\366F\211D\257ya\362\221\031\"\323\266\224"
 430      468944AF 
 430      7961F291 
 430      1922D3B6 
 430      94
 431 023b A7E9F5D0 		.ascii	"\247\351\365\320Q\214j\025\023\321\340\330\346\230B"
 431      518C6A15 
 431      13D1E0D8 
 431      E69842
 432 024a C539A6E2 		.ascii	"\3059\246\342,\0222\262RNW\005\340h\246\243\313\341"
 432      2C1232B2 
ARM GAS  C:\Users\Thomas\AppData\Local\Temp\ccBYtHCp.s 			page 33


 432      524E5705 
 432      E068A6A3 
 432      CBE1
 433 025c 5E00323A 		.ascii	"^\0002:l$\223d\353\010\314NP\000\376\350\274J\301yE"
 433      6C249364 
 433      EB08CC4E 
 433      5000FEE8 
 433      BC4AC179 
 434 0271 41015350 		.ascii	"A\001SP\362\262\313\251W\263\255\010V\221]\320\244|"
 434      F2B2CBA9 
 434      57B3AD08 
 434      56915DD0 
 434      A47C
 435 0283 30BDF782 		.ascii	"0\275\367\202/N@\214\254\352\344\331$\023c\353\270T"
 435      2F4E408C 
 435      ACEAE4D9 
 435      241363EB 
 435      B854
 436 0295 29DB93C8 		.ascii	")\333\223\310?nw\242\037\013A\205*\276B\205\357\"\347"
 436      3F6E77A2 
 436      1F0B4185 
 436      2ABE4285 
 436      EF22E7
 437 02a8 EBE9C8F0 		.ascii	"\353\351\310\360\303)\034\343\351\200-\227cd\247\346"
 437      C3291CE3 
 437      E9802D97 
 437      6364A7E6 
 438 02b8 F8D610BB 		.ascii	"\370\326\020\273\333\375\005\003(R\001\024)\000\305"
 438      DBFD0503 
 438      28520114 
 438      2900C5
 439 02c7 0C20EFAF 		.ascii	"\014 \357\257\334\314\000\274\227\003\364$\344T\353"
 439      DCCC00BC 
 439      9703F424 
 439      E454EB
 440 02d6 39C0CE23 		.ascii	"9\300\316#\034\240\214 \006Q\242\202(Q J\031\304\245"
 440      1CA08C20 
 440      0651A282 
 440      2851204A 
 440      19C4A5
 441 02e9 A1A2087C 		.ascii	"\241\242\010|\214#\224wT\015Q\204l[v\353Y\262\210\245"
 441      8C239477 
 441      540D5184 
 441      6C5B76EB 
 441      59B288A5 
 442 02fd 8119C025 		.ascii	"\201\031\300%\025\300%\005\3402\003\270\267\347h\265"
 442      15C02505 
 442      E03203B8 
 442      B7E768B5 
 443 030d 11E78B24 		.ascii	"\021\347\213$\362\236w!\256\241L\223D\231\012\240L\001"
 443      F29E7721 
 443      AEA14C93 
 443      44990AA0 
 443      4C01
 444 031f B0338096 		.ascii	"\2603\200\226\343\207\3231.\347\000\367^\366&\370s\011"
 444      E387D331 
 444      2EE700F7 
ARM GAS  C:\Users\Thomas\AppData\Local\Temp\ccBYtHCp.s 			page 34


 444      5EF626F8 
 444      7309
 445 0331 7D47D400 		.ascii	"}G\324\000\345*\200r\005\240b\322\306\031ww\346\350"
 445      E52A8072 
 445      05A062D2 
 445      C6197777 
 445      E6E8
 446 0343 262D6515 		.ascii	"&-e\025+e\245\3227U\277\365\0364\340:\256`\324^\324"
 446      2B65A5D2 
 446      3755BFF5 
 446      1E34E03A 
 446      AE60D45E 
 447 0358 1E24B6F1 		.ascii	"\036$\266\361\244g\033!\004]Qi\270\242hp0\015S\177-"
 447      A4671B21 
 447      045D5169 
 447      B8A26870 
 447      300D537F 
 448 036d D59AD629 		.ascii	"\325\232\326).;V\345\207[9]\352\320\356\363~,\341\216"
 448      2E3B56E5 
 448      875B395D 
 448      EAD0EEF3 
 448      7E2CE18E 
 449 0381 E23ED13A 		.ascii	"\342>\321:\230E\240\032\025]\215BW\313\350\352\272\236"
 449      9845A01A 
 449      155D8D42 
 449      57CBE8EA 
 449      BA9E
 450 0393 8D9AD8A7 		.ascii	"\215\232\330\247;\235\202\354m~8\206\331\247\253c\337"
 450      3B9D82EC 
 450      6D7E3886 
 450      D9A7AB63 
 450      DF
 451 03a4 C1C850A9 		.ascii	"\301\310P\251\001?\346\004\312h1\363\321\222>\360\354"
 451      013FE604 
 451      CA6831F3 
 451      D1923EF0 
 451      EC
 452 03b5 BC1FBBA5 		.ascii	"\274\037\273\245<0[^v\347\035\367E\263\215|h4\361\241"
 452      3C305B5E 
 452      76E71DF7 
 452      45B38D7C 
 452      6834F1A1 
 453 03c9 D100F2AF 		.ascii	"\321\000\362\257y\206\206Y\014\0156\177H\"\3619\021"
 453      79868659 
 453      0C0D367F 
 453      4822F139 
 453      11
 454 03da 28A1AB90 		.ascii	"(\241\253\220^\035\244\207n\300\0102\213\021t\035\036"
 454      5E1DA487 
 454      6EC00832 
 454      8B11741D 
 454      1E
 455 03eb D6C34360 		.ascii	"\326\303C`*=\332?\344\317\312\322\360\246,\355\005O"
 455      2A3DDA3F 
 455      E4CFCAD2 
 455      F0A62CED 
 455      054F
ARM GAS  C:\Users\Thomas\AppData\Local\Temp\ccBYtHCp.s 			page 35


 456 03fd 0B8D9396 		.ascii	"\013\215\223\226\345&\333\246F\245,\031\373\316=\014"
 456      E526DBA6 
 456      46A52C19 
 456      FBCE3D0C 
 457 040d C2633C8D 		.ascii	"\302c<\215\333\307\236\354Cl\237\\Y\225\205\363\341"
 457      DBC79EEC 
 457      436C9F5C 
 457      599585F3 
 457      E1
 458 041e A3E67385 		.ascii	"\243\346s\205E\241[\252\255\272\245l\225\223m\325\363"
 458      45A15BAA 
 458      ADBAA56C 
 458      95936DD5 
 458      F3
 459 042f 2DD7DB35 		.ascii	"-\327\3335\245i\320\224\346\266\2464\003\215\373\366"
 459      A569D094 
 459      E6B6A634 
 459      038DFBF6 
 460 043f 07E1AD7C 		.ascii	"\007\341\255|Z7\014\217v\232xiRw:L\204w#\013AM*\302"
 460      5A370C8F 
 460      769A7869 
 460      52773A4C 
 460      8477230B 
 461 0457 2685B099 		.ascii	"&\205\260\231\021\016\236\316\267\371\343L1\361\323"
 461      110E9ECE 
 461      B7F9E34C 
 461      31F1D3
 462 0466 4A5B7D69 		.ascii	"J[}i7\021W{\255{n&9\244\310\246\015uG\205rGAia(7\372"
 462      3711577B 
 462      AD7B6E26 
 462      39A4C8A6 
 462      0D754785 
 463 0482 9F661A71 		.ascii	"\237f\032q#Gi\317\315\331\300@:^u\313\025\352\036\271"
 463      234769CF 
 463      CDD9C040 
 463      3A5E75CB 
 463      15EA1EB9 
 464 0496 AB42B8AB 		.ascii	"\253B\270\253 \2642\204\3077\033K\002hWP\204\327\255"
 464      20B43284 
 464      C7371B4B 
 464      02685750 
 464      84D7AD
 465 04a9 B6423ADC 		.ascii	"\266B:\334\241/Y\242\227+sH\340\254C$\373\260-\253\373"
 465      A12F59A2 
 465      972B7348 
 465      E0AC4324 
 465      FBB02DAB 
 466 04be AA3FC920 		.ascii	"\252?\311 \244\303\355\376\204\365\355=\216)N\030\211"
 466      A4C3EDFE 
 466      84F5ED3D 
 466      8E294E18 
 466      89
 467 04cf DEC3EF7D 		.ascii	"\336\303\357}Z\35264\013\202Iz\312Q?<\316\221\013\236"
 467      5AEA3634 
 467      0B82497A 
 467      CA513F3C 
 467      CE910B9E 
ARM GAS  C:\Users\Thomas\AppData\Local\Temp\ccBYtHCp.s 			page 36


 468 04e3 6E2F0A30 		.ascii	"n/\0120&\323\266x\373\311\004\375\346\254\337\336d\340"
 468      26D3B678 
 468      FBC904FD 
 468      E6ACDFDE 
 468      64E0
 469 04f5 67997744 		.ascii	"g\231wD\327\244g\331\263\356eId\021\352\004u\355\236"
 469      D7A467D9 
 469      B3EE6549 
 469      6411EA04 
 469      75ED9E
 470 0508 B6EC409E 		.ascii	"\266\354@\236\303l[\327\336\353&\323v\332\240PfCM s"
 470      C36C5BD7 
 470      DEEB26D3 
 470      76DAA050 
 470      66434D20 
 471 051d F6D4B91B 		.ascii	"\366\324\271\033\231\330\336\300?x\277\252=\361j\332"
 471      99D8DEC0 
 471      3F78BFAA 
 471      3DF16ADA 
 472 052d CC83F420 		.ascii	"\314\203\364 \266\177\011M\310\316 \276y\017\320Lp8"
 472      B67F094D 
 472      C8CE20BE 
 472      790FD04C 
 472      7038
 473 053f B53B298C 		.ascii	"\265;)\214\275we%\216X\022\274\235\0362'\347\315\324"
 473      BD776525 
 473      8E5812BC 
 473      9D1E3227 
 473      E7CDD4
 474 0552 5AC4BCB2 		.ascii	"Z\304\274\262\257m%>H\353\323\303|\236\035\352\354\011"
 474      AF6D253E 
 474      48EBD3C3 
 474      7C9E1DEA 
 474      EC09
 475 0564 D2E8A2C7 		.ascii	"\322\350\242\307\240GW\257\320\325\313t\345\327\367"
 475      A04757AF 
 475      D0D5CB74 
 475      E5D7F7
 476 0573 F4EA35BA 		.ascii	"\364\3525\272\012\024\270G\223\300Uk\340\372\004\\\037"
 476      0A14B847 
 476      93C0556B 
 476      E0FA045C 
 476      1F
 477 0584 834BDBB5 		.ascii	"\203K\333\265\357\262A\343]\245\361\356\027\336\375"
 477      EFB241E3 
 477      5DA5F1EE 
 477      17DEFD
 478 0593 CCBB2DC3 		.ascii	"\314\273-\303\276]\257\361\276\240\361\036@&e\347\007"
 478      BE5DAFF1 
 478      BEA0F11E 
 478      402665E7 
 478      07
 479 05a4 5840FA01 		.ascii	"X@\372\001\327K-\274v\354\015\012\370A\346]T\337\332"
 479      D74B2DBC 
 479      76EC0D0A 
 479      F841E65D 
 479      54DFDA
ARM GAS  C:\Users\Thomas\AppData\Local\Temp\ccBYtHCp.s 			page 37


 480 05b7 86F10BDE 		.ascii	"\206\361\013\3365\256\344\235\003z\3365\3578Ot\351\247"
 480      35AEE49D 
 480      037ADE35 
 480      EF384F74 
 480      E9A7
 481 05c9 EFC349A7 		.ascii	"\357\303I\247\014\252\027\274#\\@\370\330\323\021C\310"
 481      0CAA17BC 
 481      235C40F8 
 481      D8D31143 
 481      C8
 482 05da 33A92640 		.ascii	"3\251&@~2\361\244\312\371\303\2015i\2704i\014\2134\206"
 482      7E32F1A4 
 482      CAF9C381 
 482      3569B834 
 482      690C8B34 
 483 05ef 591A3B1E 		.ascii	"Y\032;\036\215\037\361W\224'\277\023\376\311\212\242"
 483      8D1FF157 
 483      9427BF13 
 483      FEC98AA2 
 484 05ff FDFE1A82 		.ascii	"\375\376\032\202\021\015\301\250 \030e\004\235i\216"
 484      110DC1A8 
 484      20186504 
 484      9D698E
 485 060e 5283F241 		.ascii	"R\203\362A%\277\345\363\240\247v\306\356S\001\032\364"
 485      25BFE5F3 
 485      A0A776C6 
 485      EE53011A 
 485      F4
 486 061f 310DFAB8 		.ascii	"1\015\372\270@\247\377>q\226h\353B\337\245\337\375`"
 486      40A7FF3E 
 486      719668EB 
 486      42DFA5DF 
 486      FD60
 487 0631 0E976685 		.ascii	"\016\227f\205\256^*G\313\261\221Vy\335\232\210\230\270"
 487      AE5E2A47 
 487      CBB19156 
 487      79DD9A88 
 487      98B8
 488 0643 D82879F5 		.ascii	"\330(y\365\212\210\230\360\317VG\305[\3437\312\233B"
 488      8A8898F0 
 488      CF5647C5 
 488      5BE337CA 
 488      9B42
 489 0655 7F963E5A 		.ascii	"\177\226>Z1\177M\330\232\245\262u\311\362%\337GX#\255"
 489      317F4DD8 
 489      9AA5B275 
 489      C9F225DF 
 489      475823AD 
 490 0669 719B4237 		.ascii	"q\233B7F\306ZC\347\232'\215\246!\241Q\322\373\377\015"
 490      46C65A43 
 490      E79A278D 
 490      A621A151 
 490      D2FBFF0D 
 491 067d 35B047CB 		.ascii	"5\260G\313\243-\326@v\2658:r\355\006yy\264\325_ukd\327"
 491      A32DD640 
 491      76B5383A 
 491      72ED0679 
ARM GAS  C:\Users\Thomas\AppData\Local\Temp\ccBYtHCp.s 			page 38


 491      79B4D55F 
 492 0695 10106B0D 		.ascii	"\020\020k\015b\227_Y6\0117\203x\025\263\221\277\211"
 492      62975F59 
 492      36093783 
 492      7815B391 
 492      BF89
 493 06a7 90ADF0F4 		.ascii	"\220\255\360\364\333\230u\362{\012\031\334s._\232\352"
 493      DB9875F2 
 493      7B0A19DC 
 493      732E5F9A 
 493      EA
 494 06b8 BC30AEE2 		.ascii	"\2740\256\342\247X\213U^)\257\3771rC\234\360])G\256"
 494      A7588B55 
 494      5E29AFFF 
 494      3172439C 
 494      F05D2947 
 495 06cd 539E7C10 		.ascii	"S\236|\020\036\277\370\027\2135\034\274,Q\221\033\""
 495      1EBFF817 
 495      8B351CBC 
 495      2C51911B 
 495      22
 496 06de E428AB25 		.ascii	"\344(\253%&z\346\244\031\206\307\177cY\013\273\023\014"
 496      267AE6A4 
 496      1986C77F 
 496      63590BBB 
 496      130C
 497 06f0 71D15639 		.ascii	"q\321V9\326+\320\304\010,\220\346\217\221\261\372Xy"
 497      D62BD0C4 
 497      082C90E6 
 497      8F91B1FA 
 497      5879
 498 0702 FD421FF8 		.ascii	"\375B\037\370\231\027\366/l\021&F"
 498      9917F62F 
 498      6C112646 
 499              		.text
 500              		.section	.gnu.lto_.symtab.b949a193,"",%progbits
 501 0000 50325F36 		.ascii	"P2_6_GetFIFOStatus\000\000\000\000\000\000\000\000\000"
 501      5F476574 
 501      4649464F 
 501      53746174 
 501      75730000 
 502 001b 000000B5 		.ascii	"\000\000\000\265\000\000\000P2_6_Init\000\000\000\000"
 502      00000050 
 502      325F365F 
 502      496E6974 
 502      00000000 
 503 002f 00000000 		.ascii	"\000\000\000\000\000\000\000\000\270\000\000\000P2_"
 503      00000000 
 503      B8000000 
 503      50325F
 504 003e 365F456E 		.ascii	"6_EnableInt\000\000\000\000\000\000\000\000\000\000"
 504      61626C65 
 504      496E7400 
 504      00000000 
 504      00000000 
 505 0053 0000BA00 		.ascii	"\000\000\272\000\000\000P2_6_Enable\000\000\000\000"
 505      00005032 
ARM GAS  C:\Users\Thomas\AppData\Local\Temp\ccBYtHCp.s 			page 39


 505      5F365F45 
 505      6E61626C 
 505      65000000 
 506 0068 00000000 		.ascii	"\000\000\000\000\000\000\000\000\274\000\000\000P2_"
 506      00000000 
 506      BC000000 
 506      50325F
 507 0077 365F5374 		.ascii	"6_Start\000\000\000\000\000\000\000\000\000\000\000"
 507      61727400 
 507      00000000 
 507      00000000 
 507      0000
 508 0089 00BE0000 		.ascii	"\000\276\000\000\000P2_6_initVar\000\000\000\000\000"
 508      0050325F 
 508      365F696E 
 508      69745661 
 508      72000000 
 509 009f 00000000 		.ascii	"\000\000\000\000\000\000\000\336\000\000\000P2_6_Di"
 509      000000DE 
 509      00000050 
 509      325F365F 
 509      4469
 510 00b1 7361626C 		.ascii	"sableInt\000\000\000\000\000\000\000\000\000\000\000"
 510      65496E74 
 510      00000000 
 510      00000000 
 510      000000
 511 00c4 00C00000 		.ascii	"\000\300\000\000\000P2_6_Stop\000\000\000\000\000\000"
 511      0050325F 
 511      365F5374 
 511      6F700000 
 511      00000000 
 512 00d8 00000000 		.ascii	"\000\000\000\000\000\000\302\000\000\000P2_6_SetInt"
 512      0000C200 
 512      00005032 
 512      5F365F53 
 512      6574496E 
 513 00ed 4D6F6465 		.ascii	"Mode\000\000\000\000\000\000\000\000\000\000\000\000"
 513      00000000 
 513      00000000 
 513      00000000 
 514 00fd C6000000 		.ascii	"\306\000\000\000P2_6_GetIntStatus\000\000\000\000\000"
 514      50325F36 
 514      5F476574 
 514      496E7453 
 514      74617475 
 515 0117 00000000 		.ascii	"\000\000\000\000\000\000\000\311\000\000\000P2_6_Wr"
 515      000000C9 
 515      00000050 
 515      325F365F 
 515      5772
 516 0129 69746552 		.ascii	"iteRegValue\000\000\000\000\000\000\000\000\000\000"
 516      65675661 
 516      6C756500 
 516      00000000 
 516      00000000 
 517 013e 0000D400 		.ascii	"\000\000\324\000\000\000P2_6_ReadRegValue\000\000\000"
ARM GAS  C:\Users\Thomas\AppData\Local\Temp\ccBYtHCp.s 			page 40


 517      00005032 
 517      5F365F52 
 517      65616452 
 517      65675661 
 518 0158 00000000 		.ascii	"\000\000\000\000\000\000\000\000\000\327\000\000\000"
 518      00000000 
 518      00D70000 
 518      00
 519 0165 43794578 		.ascii	"CyExitCriticalSection\000\000\002\000\000\000\000\000"
 519      69744372 
 519      69746963 
 519      616C5365 
 519      6374696F 
 520 0182 00000000 		.ascii	"\000\000\000\000\331\000\000\000CyEnterCriticalSect"
 520      D9000000 
 520      4379456E 
 520      74657243 
 520      72697469 
 521 019d 696F6E00 		.ascii	"ion\000\000\002\000\000\000\000\000\000\000\000\000"
 521      00020000 
 521      00000000 
 521      000000
 522 01ac DB000000 		.ascii	"\333\000\000\000"
 523              		.text
 524              		.section	.gnu.lto_.opts,"",%progbits
 525 0000 272D666E 		.ascii	"'-fno-trapv' '-mcpu=cortex-m3' '-mthumb' '-g' '-O3'"
 525      6F2D7472 
 525      61707627 
 525      20272D6D 
 525      6370753D 
 526 0033 20272D66 		.ascii	" '-ffunction-sections' '-finline-functions' '-flto'"
 526      66756E63 
 526      74696F6E 
 526      2D736563 
 526      74696F6E 
 527 0066 20272D66 		.ascii	" '-ffat-lto-objects'\000"
 527      6661742D 
 527      6C746F2D 
 527      6F626A65 
 527      63747327 
 528              		.text
 529              		.cfi_sections	.debug_frame
 530              		.section	.text.P2_6_Start,"ax",%progbits
 531              		.align	2
 532              		.global	P2_6_Start
 533              		.thumb
 534              		.thumb_func
 535              		.type	P2_6_Start, %function
 536              	P2_6_Start:
 537              	.LFB0:
 538              		.file 1 ".\\Generated_Source\\PSoC5\\P2_6.c"
   1:.\Generated_Source\PSoC5/P2_6.c **** /*******************************************************************************
   2:.\Generated_Source\PSoC5/P2_6.c **** * File Name: P2_6.c
   3:.\Generated_Source\PSoC5/P2_6.c **** * Version 2.30
   4:.\Generated_Source\PSoC5/P2_6.c **** *
   5:.\Generated_Source\PSoC5/P2_6.c **** * Description:
   6:.\Generated_Source\PSoC5/P2_6.c **** *  This file provides the API source code for the Shift Register component.
ARM GAS  C:\Users\Thomas\AppData\Local\Temp\ccBYtHCp.s 			page 41


   7:.\Generated_Source\PSoC5/P2_6.c **** *
   8:.\Generated_Source\PSoC5/P2_6.c **** * Note: none
   9:.\Generated_Source\PSoC5/P2_6.c **** *
  10:.\Generated_Source\PSoC5/P2_6.c **** ********************************************************************************
  11:.\Generated_Source\PSoC5/P2_6.c **** * Copyright 2008-2013, Cypress Semiconductor Corporation.  All rights reserved.
  12:.\Generated_Source\PSoC5/P2_6.c **** * You may use this file only in accordance with the license, terms, conditions,
  13:.\Generated_Source\PSoC5/P2_6.c **** * disclaimers, and limitations in the end user license agreement accompanying
  14:.\Generated_Source\PSoC5/P2_6.c **** * the software package with which this file was provided.
  15:.\Generated_Source\PSoC5/P2_6.c **** ********************************************************************************/
  16:.\Generated_Source\PSoC5/P2_6.c **** 
  17:.\Generated_Source\PSoC5/P2_6.c **** #include "P2_6.h"
  18:.\Generated_Source\PSoC5/P2_6.c **** 
  19:.\Generated_Source\PSoC5/P2_6.c **** uint8 P2_6_initVar = 0u;
  20:.\Generated_Source\PSoC5/P2_6.c **** 
  21:.\Generated_Source\PSoC5/P2_6.c **** 
  22:.\Generated_Source\PSoC5/P2_6.c **** /*******************************************************************************
  23:.\Generated_Source\PSoC5/P2_6.c **** * Function Name: P2_6_Start
  24:.\Generated_Source\PSoC5/P2_6.c **** ********************************************************************************
  25:.\Generated_Source\PSoC5/P2_6.c **** *
  26:.\Generated_Source\PSoC5/P2_6.c **** * Summary:
  27:.\Generated_Source\PSoC5/P2_6.c **** *  Starts the Shift Register.
  28:.\Generated_Source\PSoC5/P2_6.c **** *
  29:.\Generated_Source\PSoC5/P2_6.c **** * Parameters:
  30:.\Generated_Source\PSoC5/P2_6.c **** *  None.
  31:.\Generated_Source\PSoC5/P2_6.c **** *
  32:.\Generated_Source\PSoC5/P2_6.c **** * Return:
  33:.\Generated_Source\PSoC5/P2_6.c **** *  None.
  34:.\Generated_Source\PSoC5/P2_6.c **** *
  35:.\Generated_Source\PSoC5/P2_6.c **** * Global Variables:
  36:.\Generated_Source\PSoC5/P2_6.c **** *  P2_6_initVar - used to check initial configuration, modified on
  37:.\Generated_Source\PSoC5/P2_6.c **** *  first function call.
  38:.\Generated_Source\PSoC5/P2_6.c **** *
  39:.\Generated_Source\PSoC5/P2_6.c **** * Reentrant:
  40:.\Generated_Source\PSoC5/P2_6.c **** *  No.
  41:.\Generated_Source\PSoC5/P2_6.c **** *
  42:.\Generated_Source\PSoC5/P2_6.c **** *******************************************************************************/
  43:.\Generated_Source\PSoC5/P2_6.c **** void P2_6_Start(void) 
  44:.\Generated_Source\PSoC5/P2_6.c **** {
 539              		.loc 1 44 0
 540              		.cfi_startproc
 541              		@ args = 0, pretend = 0, frame = 0
 542              		@ frame_needed = 0, uses_anonymous_args = 0
 543 0000 08B5     		push	{r3, lr}
 544              		.cfi_def_cfa_offset 8
 545              		.cfi_offset 3, -8
 546              		.cfi_offset 14, -4
  45:.\Generated_Source\PSoC5/P2_6.c ****     if(0u == P2_6_initVar)
 547              		.loc 1 45 0
 548 0002 0E4A     		ldr	r2, .L5
 549 0004 1378     		ldrb	r3, [r2]	@ zero_extendqisi2
 550 0006 4BB9     		cbnz	r3, .L2
 551              	.LVL0:
 552              	.LBB19:
 553              	.LBB20:
 554              	.LBB21:
  46:.\Generated_Source\PSoC5/P2_6.c ****     {
  47:.\Generated_Source\PSoC5/P2_6.c ****         P2_6_Init();
ARM GAS  C:\Users\Thomas\AppData\Local\Temp\ccBYtHCp.s 			page 42


  48:.\Generated_Source\PSoC5/P2_6.c ****         P2_6_initVar = 1u; /* Component initialized */
  49:.\Generated_Source\PSoC5/P2_6.c ****     }
  50:.\Generated_Source\PSoC5/P2_6.c **** 
  51:.\Generated_Source\PSoC5/P2_6.c ****     P2_6_Enable();
  52:.\Generated_Source\PSoC5/P2_6.c **** }
  53:.\Generated_Source\PSoC5/P2_6.c **** 
  54:.\Generated_Source\PSoC5/P2_6.c **** 
  55:.\Generated_Source\PSoC5/P2_6.c **** /*******************************************************************************
  56:.\Generated_Source\PSoC5/P2_6.c **** * Function Name: P2_6_Enable
  57:.\Generated_Source\PSoC5/P2_6.c **** ********************************************************************************
  58:.\Generated_Source\PSoC5/P2_6.c **** *
  59:.\Generated_Source\PSoC5/P2_6.c **** * Summary:
  60:.\Generated_Source\PSoC5/P2_6.c **** *  Enables the Shift Register.
  61:.\Generated_Source\PSoC5/P2_6.c **** *
  62:.\Generated_Source\PSoC5/P2_6.c **** * Parameters:
  63:.\Generated_Source\PSoC5/P2_6.c **** *  void.
  64:.\Generated_Source\PSoC5/P2_6.c **** *
  65:.\Generated_Source\PSoC5/P2_6.c **** * Return:
  66:.\Generated_Source\PSoC5/P2_6.c **** *  void.
  67:.\Generated_Source\PSoC5/P2_6.c **** *
  68:.\Generated_Source\PSoC5/P2_6.c **** *******************************************************************************/
  69:.\Generated_Source\PSoC5/P2_6.c **** void P2_6_Enable(void) 
  70:.\Generated_Source\PSoC5/P2_6.c **** {
  71:.\Generated_Source\PSoC5/P2_6.c ****     /* Changing address in Datapath Control Store
  72:.\Generated_Source\PSoC5/P2_6.c ****        from NOP to component state machine commands space */
  73:.\Generated_Source\PSoC5/P2_6.c ****     P2_6_SR_CONTROL |= P2_6_CLK_EN;
  74:.\Generated_Source\PSoC5/P2_6.c **** 
  75:.\Generated_Source\PSoC5/P2_6.c ****     P2_6_EnableInt();
  76:.\Generated_Source\PSoC5/P2_6.c **** }
  77:.\Generated_Source\PSoC5/P2_6.c **** 
  78:.\Generated_Source\PSoC5/P2_6.c **** 
  79:.\Generated_Source\PSoC5/P2_6.c **** /*******************************************************************************
  80:.\Generated_Source\PSoC5/P2_6.c **** * Function Name: P2_6_Init
  81:.\Generated_Source\PSoC5/P2_6.c **** ********************************************************************************
  82:.\Generated_Source\PSoC5/P2_6.c **** *
  83:.\Generated_Source\PSoC5/P2_6.c **** * Summary:
  84:.\Generated_Source\PSoC5/P2_6.c **** *  Initializes Tx and/or Rx interrupt sources with initial values.
  85:.\Generated_Source\PSoC5/P2_6.c **** *
  86:.\Generated_Source\PSoC5/P2_6.c **** * Parameters:
  87:.\Generated_Source\PSoC5/P2_6.c **** *  void.
  88:.\Generated_Source\PSoC5/P2_6.c **** *
  89:.\Generated_Source\PSoC5/P2_6.c **** * Return:
  90:.\Generated_Source\PSoC5/P2_6.c **** *  void.
  91:.\Generated_Source\PSoC5/P2_6.c **** *
  92:.\Generated_Source\PSoC5/P2_6.c **** *******************************************************************************/
  93:.\Generated_Source\PSoC5/P2_6.c **** void P2_6_Init(void) 
  94:.\Generated_Source\PSoC5/P2_6.c **** {
  95:.\Generated_Source\PSoC5/P2_6.c ****     P2_6_SetIntMode(P2_6_INT_SRC);
  96:.\Generated_Source\PSoC5/P2_6.c **** }
  97:.\Generated_Source\PSoC5/P2_6.c **** 
  98:.\Generated_Source\PSoC5/P2_6.c **** 
  99:.\Generated_Source\PSoC5/P2_6.c **** /*******************************************************************************
 100:.\Generated_Source\PSoC5/P2_6.c **** * Function Name: P2_6_Stop
 101:.\Generated_Source\PSoC5/P2_6.c **** ********************************************************************************
 102:.\Generated_Source\PSoC5/P2_6.c **** *
 103:.\Generated_Source\PSoC5/P2_6.c **** * Summary:
 104:.\Generated_Source\PSoC5/P2_6.c **** *  Disables the Shift Register
ARM GAS  C:\Users\Thomas\AppData\Local\Temp\ccBYtHCp.s 			page 43


 105:.\Generated_Source\PSoC5/P2_6.c **** *
 106:.\Generated_Source\PSoC5/P2_6.c **** * Parameters:
 107:.\Generated_Source\PSoC5/P2_6.c **** *  None.
 108:.\Generated_Source\PSoC5/P2_6.c **** *
 109:.\Generated_Source\PSoC5/P2_6.c **** * Return:
 110:.\Generated_Source\PSoC5/P2_6.c **** *  None.
 111:.\Generated_Source\PSoC5/P2_6.c **** *
 112:.\Generated_Source\PSoC5/P2_6.c **** *******************************************************************************/
 113:.\Generated_Source\PSoC5/P2_6.c **** void P2_6_Stop(void) 
 114:.\Generated_Source\PSoC5/P2_6.c **** {
 115:.\Generated_Source\PSoC5/P2_6.c ****     /*changing Datapath Control Store address to NOP space*/
 116:.\Generated_Source\PSoC5/P2_6.c ****     P2_6_SR_CONTROL &= ((uint8) ~P2_6_CLK_EN);
 117:.\Generated_Source\PSoC5/P2_6.c ****     P2_6_DisableInt();
 118:.\Generated_Source\PSoC5/P2_6.c **** }
 119:.\Generated_Source\PSoC5/P2_6.c **** 
 120:.\Generated_Source\PSoC5/P2_6.c **** 
 121:.\Generated_Source\PSoC5/P2_6.c **** /*******************************************************************************
 122:.\Generated_Source\PSoC5/P2_6.c **** * Function Name: P2_6_EnableInt
 123:.\Generated_Source\PSoC5/P2_6.c **** ********************************************************************************
 124:.\Generated_Source\PSoC5/P2_6.c **** *
 125:.\Generated_Source\PSoC5/P2_6.c **** * Summary:
 126:.\Generated_Source\PSoC5/P2_6.c **** *  Enables the Shift Register interrupt.
 127:.\Generated_Source\PSoC5/P2_6.c **** *
 128:.\Generated_Source\PSoC5/P2_6.c **** * Parameters:
 129:.\Generated_Source\PSoC5/P2_6.c **** *  None.
 130:.\Generated_Source\PSoC5/P2_6.c **** *
 131:.\Generated_Source\PSoC5/P2_6.c **** * Return:
 132:.\Generated_Source\PSoC5/P2_6.c **** *  None.
 133:.\Generated_Source\PSoC5/P2_6.c **** *
 134:.\Generated_Source\PSoC5/P2_6.c **** *******************************************************************************/
 135:.\Generated_Source\PSoC5/P2_6.c **** void P2_6_EnableInt(void) 
 136:.\Generated_Source\PSoC5/P2_6.c **** {
 137:.\Generated_Source\PSoC5/P2_6.c ****     uint8 interruptState;
 138:.\Generated_Source\PSoC5/P2_6.c **** 
 139:.\Generated_Source\PSoC5/P2_6.c ****     interruptState = CyEnterCriticalSection();
 140:.\Generated_Source\PSoC5/P2_6.c ****     P2_6_SR_AUX_CONTROL |= P2_6_INTERRUPTS_ENABLE;
 141:.\Generated_Source\PSoC5/P2_6.c ****     CyExitCriticalSection(interruptState);
 142:.\Generated_Source\PSoC5/P2_6.c **** }
 143:.\Generated_Source\PSoC5/P2_6.c **** 
 144:.\Generated_Source\PSoC5/P2_6.c **** 
 145:.\Generated_Source\PSoC5/P2_6.c **** /*******************************************************************************
 146:.\Generated_Source\PSoC5/P2_6.c **** * Function Name: P2_6_DisableInt
 147:.\Generated_Source\PSoC5/P2_6.c **** ********************************************************************************
 148:.\Generated_Source\PSoC5/P2_6.c **** *
 149:.\Generated_Source\PSoC5/P2_6.c **** * Summary:
 150:.\Generated_Source\PSoC5/P2_6.c **** *  Disables the Shift Register interrupt.
 151:.\Generated_Source\PSoC5/P2_6.c **** *
 152:.\Generated_Source\PSoC5/P2_6.c **** * Parameters:
 153:.\Generated_Source\PSoC5/P2_6.c **** *  None.
 154:.\Generated_Source\PSoC5/P2_6.c **** *
 155:.\Generated_Source\PSoC5/P2_6.c **** * Return:
 156:.\Generated_Source\PSoC5/P2_6.c **** *  None.
 157:.\Generated_Source\PSoC5/P2_6.c **** *
 158:.\Generated_Source\PSoC5/P2_6.c **** *******************************************************************************/
 159:.\Generated_Source\PSoC5/P2_6.c **** void P2_6_DisableInt(void) 
 160:.\Generated_Source\PSoC5/P2_6.c **** {
 161:.\Generated_Source\PSoC5/P2_6.c ****     uint8 interruptState;
ARM GAS  C:\Users\Thomas\AppData\Local\Temp\ccBYtHCp.s 			page 44


 162:.\Generated_Source\PSoC5/P2_6.c **** 
 163:.\Generated_Source\PSoC5/P2_6.c ****     interruptState = CyEnterCriticalSection();
 164:.\Generated_Source\PSoC5/P2_6.c ****     P2_6_SR_AUX_CONTROL &= ((uint8) ~P2_6_INTERRUPTS_ENABLE);
 165:.\Generated_Source\PSoC5/P2_6.c ****     CyExitCriticalSection(interruptState);
 166:.\Generated_Source\PSoC5/P2_6.c **** }
 167:.\Generated_Source\PSoC5/P2_6.c **** 
 168:.\Generated_Source\PSoC5/P2_6.c **** 
 169:.\Generated_Source\PSoC5/P2_6.c **** /*******************************************************************************
 170:.\Generated_Source\PSoC5/P2_6.c **** * Function Name: P2_6_GetFIFOStatus
 171:.\Generated_Source\PSoC5/P2_6.c **** ********************************************************************************
 172:.\Generated_Source\PSoC5/P2_6.c **** *
 173:.\Generated_Source\PSoC5/P2_6.c **** * Summary:
 174:.\Generated_Source\PSoC5/P2_6.c **** *  Returns current status of input or output FIFO.
 175:.\Generated_Source\PSoC5/P2_6.c **** *
 176:.\Generated_Source\PSoC5/P2_6.c **** * Parameters:
 177:.\Generated_Source\PSoC5/P2_6.c **** *  fifoId.
 178:.\Generated_Source\PSoC5/P2_6.c **** *
 179:.\Generated_Source\PSoC5/P2_6.c **** * Return:
 180:.\Generated_Source\PSoC5/P2_6.c **** *  FIFO status.
 181:.\Generated_Source\PSoC5/P2_6.c **** *
 182:.\Generated_Source\PSoC5/P2_6.c **** *******************************************************************************/
 183:.\Generated_Source\PSoC5/P2_6.c **** uint8 P2_6_GetFIFOStatus(uint8 fifoId) 
 184:.\Generated_Source\PSoC5/P2_6.c **** {
 185:.\Generated_Source\PSoC5/P2_6.c ****     uint8 result;
 186:.\Generated_Source\PSoC5/P2_6.c **** 
 187:.\Generated_Source\PSoC5/P2_6.c ****     result = P2_6_RET_FIFO_NOT_DEFINED;
 188:.\Generated_Source\PSoC5/P2_6.c **** 
 189:.\Generated_Source\PSoC5/P2_6.c ****     #if(0u != P2_6_USE_INPUT_FIFO)
 190:.\Generated_Source\PSoC5/P2_6.c ****         if(P2_6_IN_FIFO == fifoId)
 191:.\Generated_Source\PSoC5/P2_6.c ****         {
 192:.\Generated_Source\PSoC5/P2_6.c ****             switch(P2_6_GET_IN_FIFO_STS)
 193:.\Generated_Source\PSoC5/P2_6.c ****             {
 194:.\Generated_Source\PSoC5/P2_6.c ****                 case P2_6_IN_FIFO_FULL :
 195:.\Generated_Source\PSoC5/P2_6.c ****                     result = P2_6_RET_FIFO_FULL;
 196:.\Generated_Source\PSoC5/P2_6.c ****                     break;
 197:.\Generated_Source\PSoC5/P2_6.c **** 
 198:.\Generated_Source\PSoC5/P2_6.c ****                 case P2_6_IN_FIFO_EMPTY :
 199:.\Generated_Source\PSoC5/P2_6.c ****                     result = P2_6_RET_FIFO_EMPTY;
 200:.\Generated_Source\PSoC5/P2_6.c ****                     break;
 201:.\Generated_Source\PSoC5/P2_6.c **** 
 202:.\Generated_Source\PSoC5/P2_6.c ****                 case P2_6_IN_FIFO_PARTIAL:
 203:.\Generated_Source\PSoC5/P2_6.c ****                     result = P2_6_RET_FIFO_PARTIAL;
 204:.\Generated_Source\PSoC5/P2_6.c ****                     break;
 205:.\Generated_Source\PSoC5/P2_6.c ****                     
 206:.\Generated_Source\PSoC5/P2_6.c ****                 default:
 207:.\Generated_Source\PSoC5/P2_6.c ****                     /* Initial result value, while 
 208:.\Generated_Source\PSoC5/P2_6.c ****                        IN_FIFO_EMPTY case is false 
 209:.\Generated_Source\PSoC5/P2_6.c ****                      */
 210:.\Generated_Source\PSoC5/P2_6.c ****                     result = P2_6_RET_FIFO_EMPTY;
 211:.\Generated_Source\PSoC5/P2_6.c ****                     break;
 212:.\Generated_Source\PSoC5/P2_6.c ****             }   
 213:.\Generated_Source\PSoC5/P2_6.c ****         }
 214:.\Generated_Source\PSoC5/P2_6.c ****     #endif /* (0u != P2_6_USE_INPUT_FIFO) */
 215:.\Generated_Source\PSoC5/P2_6.c **** 
 216:.\Generated_Source\PSoC5/P2_6.c ****     if(P2_6_OUT_FIFO == fifoId)
 217:.\Generated_Source\PSoC5/P2_6.c ****     {
 218:.\Generated_Source\PSoC5/P2_6.c ****         switch(P2_6_GET_OUT_FIFO_STS)
ARM GAS  C:\Users\Thomas\AppData\Local\Temp\ccBYtHCp.s 			page 45


 219:.\Generated_Source\PSoC5/P2_6.c ****         {
 220:.\Generated_Source\PSoC5/P2_6.c ****             case P2_6_OUT_FIFO_FULL :
 221:.\Generated_Source\PSoC5/P2_6.c ****                 result = P2_6_RET_FIFO_FULL;
 222:.\Generated_Source\PSoC5/P2_6.c ****                 break;
 223:.\Generated_Source\PSoC5/P2_6.c **** 
 224:.\Generated_Source\PSoC5/P2_6.c ****             case P2_6_OUT_FIFO_EMPTY :
 225:.\Generated_Source\PSoC5/P2_6.c ****                 result = P2_6_RET_FIFO_EMPTY;
 226:.\Generated_Source\PSoC5/P2_6.c ****                 break;
 227:.\Generated_Source\PSoC5/P2_6.c **** 
 228:.\Generated_Source\PSoC5/P2_6.c ****             case P2_6_OUT_FIFO_PARTIAL :
 229:.\Generated_Source\PSoC5/P2_6.c ****                 result = P2_6_RET_FIFO_PARTIAL;
 230:.\Generated_Source\PSoC5/P2_6.c ****                 break;
 231:.\Generated_Source\PSoC5/P2_6.c **** 
 232:.\Generated_Source\PSoC5/P2_6.c ****             default:
 233:.\Generated_Source\PSoC5/P2_6.c ****                 /* Initial result value, while 
 234:.\Generated_Source\PSoC5/P2_6.c ****                    OUT_FIFO_FULL case is false 
 235:.\Generated_Source\PSoC5/P2_6.c ****                  */
 236:.\Generated_Source\PSoC5/P2_6.c ****                 result = P2_6_RET_FIFO_FULL;
 237:.\Generated_Source\PSoC5/P2_6.c ****                 break;
 238:.\Generated_Source\PSoC5/P2_6.c ****         }
 239:.\Generated_Source\PSoC5/P2_6.c ****     }
 240:.\Generated_Source\PSoC5/P2_6.c **** 
 241:.\Generated_Source\PSoC5/P2_6.c ****     return(result);
 242:.\Generated_Source\PSoC5/P2_6.c **** }
 243:.\Generated_Source\PSoC5/P2_6.c **** 
 244:.\Generated_Source\PSoC5/P2_6.c **** 
 245:.\Generated_Source\PSoC5/P2_6.c **** /*******************************************************************************
 246:.\Generated_Source\PSoC5/P2_6.c **** * Function Name: P2_6_SetIntMode
 247:.\Generated_Source\PSoC5/P2_6.c **** ********************************************************************************
 248:.\Generated_Source\PSoC5/P2_6.c **** *
 249:.\Generated_Source\PSoC5/P2_6.c **** * Summary:
 250:.\Generated_Source\PSoC5/P2_6.c **** *  Sets the Interrupt Source for the Shift Register interrupt. Multiple
 251:.\Generated_Source\PSoC5/P2_6.c **** *  sources may be ORed together
 252:.\Generated_Source\PSoC5/P2_6.c **** *
 253:.\Generated_Source\PSoC5/P2_6.c **** * Parameters:
 254:.\Generated_Source\PSoC5/P2_6.c **** *  interruptSource: Byte containing the constant for the selected interrupt
 255:.\Generated_Source\PSoC5/P2_6.c **** *  source/s.
 256:.\Generated_Source\PSoC5/P2_6.c **** *
 257:.\Generated_Source\PSoC5/P2_6.c **** * Return:
 258:.\Generated_Source\PSoC5/P2_6.c **** *  None.
 259:.\Generated_Source\PSoC5/P2_6.c **** *
 260:.\Generated_Source\PSoC5/P2_6.c **** *******************************************************************************/
 261:.\Generated_Source\PSoC5/P2_6.c **** void P2_6_SetIntMode(uint8 interruptSource) 
 262:.\Generated_Source\PSoC5/P2_6.c **** {
 263:.\Generated_Source\PSoC5/P2_6.c ****     P2_6_SR_STATUS_MASK &= ((uint8) ~P2_6_INTS_EN_MASK);          /* Clear existing int */
 555              		.loc 1 263 0
 556 0008 0D4B     		ldr	r3, .L5+4
 557              	.LBE21:
 558              	.LBE20:
 559              	.LBE19:
  48:.\Generated_Source\PSoC5/P2_6.c ****     }
 560              		.loc 1 48 0
 561 000a 0120     		movs	r0, #1
 562              	.LBB24:
 563              	.LBB23:
 564              	.LBB22:
 565              		.loc 1 263 0
ARM GAS  C:\Users\Thomas\AppData\Local\Temp\ccBYtHCp.s 			page 46


 566 000c 1978     		ldrb	r1, [r3]	@ zero_extendqisi2
 567 000e 01F0F801 		and	r1, r1, #248
 568 0012 1970     		strb	r1, [r3]
 264:.\Generated_Source\PSoC5/P2_6.c ****     P2_6_SR_STATUS_MASK |= (interruptSource & P2_6_INTS_EN_MASK); /* Set int */
 569              		.loc 1 264 0
 570 0014 1978     		ldrb	r1, [r3]	@ zero_extendqisi2
 571 0016 0143     		orrs	r1, r1, r0
 572 0018 1970     		strb	r1, [r3]
 573              	.LBE22:
 574              	.LBE23:
 575              	.LBE24:
  48:.\Generated_Source\PSoC5/P2_6.c ****     }
 576              		.loc 1 48 0
 577 001a 1070     		strb	r0, [r2]
 578              	.LVL1:
 579              	.L2:
 580              	.LBB25:
 581              	.LBB26:
  73:.\Generated_Source\PSoC5/P2_6.c **** 
 582              		.loc 1 73 0
 583 001c 094A     		ldr	r2, .L5+8
 584 001e 1378     		ldrb	r3, [r2]	@ zero_extendqisi2
 585 0020 43F00103 		orr	r3, r3, #1
 586 0024 1370     		strb	r3, [r2]
 587              	.LBB27:
 588              	.LBB28:
 139:.\Generated_Source\PSoC5/P2_6.c ****     P2_6_SR_AUX_CONTROL |= P2_6_INTERRUPTS_ENABLE;
 589              		.loc 1 139 0
 590 0026 FFF7FEFF 		bl	CyEnterCriticalSection
 591              	.LVL2:
 140:.\Generated_Source\PSoC5/P2_6.c ****     CyExitCriticalSection(interruptState);
 592              		.loc 1 140 0
 593 002a 074A     		ldr	r2, .L5+12
 594 002c 1378     		ldrb	r3, [r2]	@ zero_extendqisi2
 595 002e 43F01003 		orr	r3, r3, #16
 596 0032 1370     		strb	r3, [r2]
 597              	.LBE28:
 598              	.LBE27:
 599              	.LBE26:
 600              	.LBE25:
  52:.\Generated_Source\PSoC5/P2_6.c **** 
 601              		.loc 1 52 0
 602 0034 BDE80840 		pop	{r3, lr}
 603              		.cfi_restore 14
 604              		.cfi_restore 3
 605              		.cfi_def_cfa_offset 0
 606              	.LBB32:
 607              	.LBB31:
 608              	.LBB30:
 609              	.LBB29:
 141:.\Generated_Source\PSoC5/P2_6.c **** }
 610              		.loc 1 141 0
 611 0038 FFF7FEBF 		b	CyExitCriticalSection
 612              	.LVL3:
 613              	.L6:
 614              		.align	2
 615              	.L5:
ARM GAS  C:\Users\Thomas\AppData\Local\Temp\ccBYtHCp.s 			page 47


 616 003c 00000000 		.word	.LANCHOR0
 617 0040 89650040 		.word	1073767817
 618 0044 79650040 		.word	1073767801
 619 0048 99650040 		.word	1073767833
 620              	.LBE29:
 621              	.LBE30:
 622              	.LBE31:
 623              	.LBE32:
 624              		.cfi_endproc
 625              	.LFE0:
 626              		.size	P2_6_Start, .-P2_6_Start
 627              		.section	.text.P2_6_Enable,"ax",%progbits
 628              		.align	2
 629              		.global	P2_6_Enable
 630              		.thumb
 631              		.thumb_func
 632              		.type	P2_6_Enable, %function
 633              	P2_6_Enable:
 634              	.LFB1:
  70:.\Generated_Source\PSoC5/P2_6.c ****     /* Changing address in Datapath Control Store
 635              		.loc 1 70 0
 636              		.cfi_startproc
 637              		@ args = 0, pretend = 0, frame = 0
 638              		@ frame_needed = 0, uses_anonymous_args = 0
 639 0000 08B5     		push	{r3, lr}
 640              		.cfi_def_cfa_offset 8
 641              		.cfi_offset 3, -8
 642              		.cfi_offset 14, -4
  73:.\Generated_Source\PSoC5/P2_6.c **** 
 643              		.loc 1 73 0
 644 0002 084A     		ldr	r2, .L9
 645 0004 1378     		ldrb	r3, [r2]	@ zero_extendqisi2
 646 0006 43F00103 		orr	r3, r3, #1
 647 000a 1370     		strb	r3, [r2]
 648              	.LBB35:
 649              	.LBB36:
 139:.\Generated_Source\PSoC5/P2_6.c ****     P2_6_SR_AUX_CONTROL |= P2_6_INTERRUPTS_ENABLE;
 650              		.loc 1 139 0
 651 000c FFF7FEFF 		bl	CyEnterCriticalSection
 652              	.LVL4:
 140:.\Generated_Source\PSoC5/P2_6.c ****     CyExitCriticalSection(interruptState);
 653              		.loc 1 140 0
 654 0010 054A     		ldr	r2, .L9+4
 655 0012 1378     		ldrb	r3, [r2]	@ zero_extendqisi2
 656 0014 43F01003 		orr	r3, r3, #16
 657 0018 1370     		strb	r3, [r2]
 658              	.LBE36:
 659              	.LBE35:
  76:.\Generated_Source\PSoC5/P2_6.c **** 
 660              		.loc 1 76 0
 661 001a BDE80840 		pop	{r3, lr}
 662              		.cfi_restore 14
 663              		.cfi_restore 3
 664              		.cfi_def_cfa_offset 0
 665              	.LBB38:
 666              	.LBB37:
 141:.\Generated_Source\PSoC5/P2_6.c **** }
ARM GAS  C:\Users\Thomas\AppData\Local\Temp\ccBYtHCp.s 			page 48


 667              		.loc 1 141 0
 668 001e FFF7FEBF 		b	CyExitCriticalSection
 669              	.LVL5:
 670              	.L10:
 671 0022 00BF     		.align	2
 672              	.L9:
 673 0024 79650040 		.word	1073767801
 674 0028 99650040 		.word	1073767833
 675              	.LBE37:
 676              	.LBE38:
 677              		.cfi_endproc
 678              	.LFE1:
 679              		.size	P2_6_Enable, .-P2_6_Enable
 680              		.section	.text.P2_6_Init,"ax",%progbits
 681              		.align	2
 682              		.global	P2_6_Init
 683              		.thumb
 684              		.thumb_func
 685              		.type	P2_6_Init, %function
 686              	P2_6_Init:
 687              	.LFB2:
  94:.\Generated_Source\PSoC5/P2_6.c ****     P2_6_SetIntMode(P2_6_INT_SRC);
 688              		.loc 1 94 0
 689              		.cfi_startproc
 690              		@ args = 0, pretend = 0, frame = 0
 691              		@ frame_needed = 0, uses_anonymous_args = 0
 692              		@ link register save eliminated.
 693              	.LVL6:
 694              	.LBB39:
 695              	.LBB40:
 263:.\Generated_Source\PSoC5/P2_6.c ****     P2_6_SR_STATUS_MASK |= (interruptSource & P2_6_INTS_EN_MASK); /* Set int */
 696              		.loc 1 263 0
 697 0000 044B     		ldr	r3, .L12
 698 0002 1A78     		ldrb	r2, [r3]	@ zero_extendqisi2
 699 0004 02F0F802 		and	r2, r2, #248
 700 0008 1A70     		strb	r2, [r3]
 701              		.loc 1 264 0
 702 000a 1A78     		ldrb	r2, [r3]	@ zero_extendqisi2
 703 000c 42F00102 		orr	r2, r2, #1
 704 0010 1A70     		strb	r2, [r3]
 705 0012 7047     		bx	lr
 706              	.L13:
 707              		.align	2
 708              	.L12:
 709 0014 89650040 		.word	1073767817
 710              	.LBE40:
 711              	.LBE39:
 712              		.cfi_endproc
 713              	.LFE2:
 714              		.size	P2_6_Init, .-P2_6_Init
 715              		.section	.text.P2_6_Stop,"ax",%progbits
 716              		.align	2
 717              		.global	P2_6_Stop
 718              		.thumb
 719              		.thumb_func
 720              		.type	P2_6_Stop, %function
 721              	P2_6_Stop:
ARM GAS  C:\Users\Thomas\AppData\Local\Temp\ccBYtHCp.s 			page 49


 722              	.LFB3:
 114:.\Generated_Source\PSoC5/P2_6.c ****     /*changing Datapath Control Store address to NOP space*/
 723              		.loc 1 114 0
 724              		.cfi_startproc
 725              		@ args = 0, pretend = 0, frame = 0
 726              		@ frame_needed = 0, uses_anonymous_args = 0
 727 0000 08B5     		push	{r3, lr}
 728              		.cfi_def_cfa_offset 8
 729              		.cfi_offset 3, -8
 730              		.cfi_offset 14, -4
 116:.\Generated_Source\PSoC5/P2_6.c ****     P2_6_DisableInt();
 731              		.loc 1 116 0
 732 0002 084A     		ldr	r2, .L16
 733 0004 1378     		ldrb	r3, [r2]	@ zero_extendqisi2
 734 0006 03F0FE03 		and	r3, r3, #254
 735 000a 1370     		strb	r3, [r2]
 736              	.LBB43:
 737              	.LBB44:
 163:.\Generated_Source\PSoC5/P2_6.c ****     P2_6_SR_AUX_CONTROL &= ((uint8) ~P2_6_INTERRUPTS_ENABLE);
 738              		.loc 1 163 0
 739 000c FFF7FEFF 		bl	CyEnterCriticalSection
 740              	.LVL7:
 164:.\Generated_Source\PSoC5/P2_6.c ****     CyExitCriticalSection(interruptState);
 741              		.loc 1 164 0
 742 0010 054A     		ldr	r2, .L16+4
 743 0012 1378     		ldrb	r3, [r2]	@ zero_extendqisi2
 744 0014 03F0EF03 		and	r3, r3, #239
 745 0018 1370     		strb	r3, [r2]
 746              	.LBE44:
 747              	.LBE43:
 118:.\Generated_Source\PSoC5/P2_6.c **** 
 748              		.loc 1 118 0
 749 001a BDE80840 		pop	{r3, lr}
 750              		.cfi_restore 14
 751              		.cfi_restore 3
 752              		.cfi_def_cfa_offset 0
 753              	.LBB46:
 754              	.LBB45:
 165:.\Generated_Source\PSoC5/P2_6.c **** }
 755              		.loc 1 165 0
 756 001e FFF7FEBF 		b	CyExitCriticalSection
 757              	.LVL8:
 758              	.L17:
 759 0022 00BF     		.align	2
 760              	.L16:
 761 0024 79650040 		.word	1073767801
 762 0028 99650040 		.word	1073767833
 763              	.LBE45:
 764              	.LBE46:
 765              		.cfi_endproc
 766              	.LFE3:
 767              		.size	P2_6_Stop, .-P2_6_Stop
 768              		.section	.text.P2_6_EnableInt,"ax",%progbits
 769              		.align	2
 770              		.global	P2_6_EnableInt
 771              		.thumb
 772              		.thumb_func
ARM GAS  C:\Users\Thomas\AppData\Local\Temp\ccBYtHCp.s 			page 50


 773              		.type	P2_6_EnableInt, %function
 774              	P2_6_EnableInt:
 775              	.LFB4:
 136:.\Generated_Source\PSoC5/P2_6.c ****     uint8 interruptState;
 776              		.loc 1 136 0
 777              		.cfi_startproc
 778              		@ args = 0, pretend = 0, frame = 0
 779              		@ frame_needed = 0, uses_anonymous_args = 0
 780 0000 08B5     		push	{r3, lr}
 781              		.cfi_def_cfa_offset 8
 782              		.cfi_offset 3, -8
 783              		.cfi_offset 14, -4
 139:.\Generated_Source\PSoC5/P2_6.c ****     P2_6_SR_AUX_CONTROL |= P2_6_INTERRUPTS_ENABLE;
 784              		.loc 1 139 0
 785 0002 FFF7FEFF 		bl	CyEnterCriticalSection
 786              	.LVL9:
 140:.\Generated_Source\PSoC5/P2_6.c ****     CyExitCriticalSection(interruptState);
 787              		.loc 1 140 0
 788 0006 044A     		ldr	r2, .L20
 789 0008 1378     		ldrb	r3, [r2]	@ zero_extendqisi2
 790 000a 43F01003 		orr	r3, r3, #16
 791 000e 1370     		strb	r3, [r2]
 142:.\Generated_Source\PSoC5/P2_6.c **** 
 792              		.loc 1 142 0
 793 0010 BDE80840 		pop	{r3, lr}
 794              		.cfi_restore 14
 795              		.cfi_restore 3
 796              		.cfi_def_cfa_offset 0
 141:.\Generated_Source\PSoC5/P2_6.c **** }
 797              		.loc 1 141 0
 798 0014 FFF7FEBF 		b	CyExitCriticalSection
 799              	.LVL10:
 800              	.L21:
 801              		.align	2
 802              	.L20:
 803 0018 99650040 		.word	1073767833
 804              		.cfi_endproc
 805              	.LFE4:
 806              		.size	P2_6_EnableInt, .-P2_6_EnableInt
 807              		.section	.text.P2_6_DisableInt,"ax",%progbits
 808              		.align	2
 809              		.global	P2_6_DisableInt
 810              		.thumb
 811              		.thumb_func
 812              		.type	P2_6_DisableInt, %function
 813              	P2_6_DisableInt:
 814              	.LFB5:
 160:.\Generated_Source\PSoC5/P2_6.c ****     uint8 interruptState;
 815              		.loc 1 160 0
 816              		.cfi_startproc
 817              		@ args = 0, pretend = 0, frame = 0
 818              		@ frame_needed = 0, uses_anonymous_args = 0
 819 0000 08B5     		push	{r3, lr}
 820              		.cfi_def_cfa_offset 8
 821              		.cfi_offset 3, -8
 822              		.cfi_offset 14, -4
 163:.\Generated_Source\PSoC5/P2_6.c ****     P2_6_SR_AUX_CONTROL &= ((uint8) ~P2_6_INTERRUPTS_ENABLE);
ARM GAS  C:\Users\Thomas\AppData\Local\Temp\ccBYtHCp.s 			page 51


 823              		.loc 1 163 0
 824 0002 FFF7FEFF 		bl	CyEnterCriticalSection
 825              	.LVL11:
 164:.\Generated_Source\PSoC5/P2_6.c ****     CyExitCriticalSection(interruptState);
 826              		.loc 1 164 0
 827 0006 044A     		ldr	r2, .L24
 828 0008 1378     		ldrb	r3, [r2]	@ zero_extendqisi2
 829 000a 03F0EF03 		and	r3, r3, #239
 830 000e 1370     		strb	r3, [r2]
 166:.\Generated_Source\PSoC5/P2_6.c **** 
 831              		.loc 1 166 0
 832 0010 BDE80840 		pop	{r3, lr}
 833              		.cfi_restore 14
 834              		.cfi_restore 3
 835              		.cfi_def_cfa_offset 0
 165:.\Generated_Source\PSoC5/P2_6.c **** }
 836              		.loc 1 165 0
 837 0014 FFF7FEBF 		b	CyExitCriticalSection
 838              	.LVL12:
 839              	.L25:
 840              		.align	2
 841              	.L24:
 842 0018 99650040 		.word	1073767833
 843              		.cfi_endproc
 844              	.LFE5:
 845              		.size	P2_6_DisableInt, .-P2_6_DisableInt
 846              		.section	.text.P2_6_GetFIFOStatus,"ax",%progbits
 847              		.align	2
 848              		.global	P2_6_GetFIFOStatus
 849              		.thumb
 850              		.thumb_func
 851              		.type	P2_6_GetFIFOStatus, %function
 852              	P2_6_GetFIFOStatus:
 853              	.LFB6:
 184:.\Generated_Source\PSoC5/P2_6.c ****     uint8 result;
 854              		.loc 1 184 0
 855              		.cfi_startproc
 856              		@ args = 0, pretend = 0, frame = 0
 857              		@ frame_needed = 0, uses_anonymous_args = 0
 858              		@ link register save eliminated.
 859              	.LVL13:
 216:.\Generated_Source\PSoC5/P2_6.c ****     {
 860              		.loc 1 216 0
 861 0000 0228     		cmp	r0, #2
 862 0002 01D0     		beq	.L32
 187:.\Generated_Source\PSoC5/P2_6.c **** 
 863              		.loc 1 187 0
 864 0004 FE20     		movs	r0, #254
 865              	.LVL14:
 866              	.L27:
 242:.\Generated_Source\PSoC5/P2_6.c **** 
 867              		.loc 1 242 0
 868 0006 7047     		bx	lr
 869              	.LVL15:
 870              	.L32:
 871              	.LBB49:
 872              	.LBB50:
ARM GAS  C:\Users\Thomas\AppData\Local\Temp\ccBYtHCp.s 			page 52


 218:.\Generated_Source\PSoC5/P2_6.c ****         {
 873              		.loc 1 218 0
 874 0008 054B     		ldr	r3, .L33
 875 000a 1B78     		ldrb	r3, [r3]	@ zero_extendqisi2
 876 000c C3F34113 		ubfx	r3, r3, #5, #2
 877 0010 002B     		cmp	r3, #0
 878 0012 F8D0     		beq	.L27
 221:.\Generated_Source\PSoC5/P2_6.c ****                 break;
 879              		.loc 1 221 0
 880 0014 A3F10200 		sub	r0, r3, #2
 881              	.LVL16:
 882 0018 B0FA80F0 		clz	r0, r0
 883 001c 4009     		lsrs	r0, r0, #5
 884 001e 7047     		bx	lr
 885              	.L34:
 886              		.align	2
 887              	.L33:
 888 0020 69650040 		.word	1073767785
 889              	.LBE50:
 890              	.LBE49:
 891              		.cfi_endproc
 892              	.LFE6:
 893              		.size	P2_6_GetFIFOStatus, .-P2_6_GetFIFOStatus
 894              		.section	.text.P2_6_SetIntMode,"ax",%progbits
 895              		.align	2
 896              		.global	P2_6_SetIntMode
 897              		.thumb
 898              		.thumb_func
 899              		.type	P2_6_SetIntMode, %function
 900              	P2_6_SetIntMode:
 901              	.LFB7:
 262:.\Generated_Source\PSoC5/P2_6.c ****     P2_6_SR_STATUS_MASK &= ((uint8) ~P2_6_INTS_EN_MASK);          /* Clear existing int */
 902              		.loc 1 262 0
 903              		.cfi_startproc
 904              		@ args = 0, pretend = 0, frame = 0
 905              		@ frame_needed = 0, uses_anonymous_args = 0
 906              		@ link register save eliminated.
 907              	.LVL17:
 263:.\Generated_Source\PSoC5/P2_6.c ****     P2_6_SR_STATUS_MASK |= (interruptSource & P2_6_INTS_EN_MASK); /* Set int */
 908              		.loc 1 263 0
 909 0000 054B     		ldr	r3, .L36
 910              		.loc 1 264 0
 911 0002 00F00700 		and	r0, r0, #7
 912              	.LVL18:
 263:.\Generated_Source\PSoC5/P2_6.c ****     P2_6_SR_STATUS_MASK |= (interruptSource & P2_6_INTS_EN_MASK); /* Set int */
 913              		.loc 1 263 0
 914 0006 1A78     		ldrb	r2, [r3]	@ zero_extendqisi2
 915 0008 02F0F802 		and	r2, r2, #248
 916 000c 1A70     		strb	r2, [r3]
 917              		.loc 1 264 0
 918 000e 1A78     		ldrb	r2, [r3]	@ zero_extendqisi2
 919 0010 1043     		orrs	r0, r0, r2
 920 0012 1870     		strb	r0, [r3]
 921 0014 7047     		bx	lr
 922              	.L37:
 923 0016 00BF     		.align	2
 924              	.L36:
ARM GAS  C:\Users\Thomas\AppData\Local\Temp\ccBYtHCp.s 			page 53


 925 0018 89650040 		.word	1073767817
 926              		.cfi_endproc
 927              	.LFE7:
 928              		.size	P2_6_SetIntMode, .-P2_6_SetIntMode
 929              		.section	.text.P2_6_GetIntStatus,"ax",%progbits
 930              		.align	2
 931              		.global	P2_6_GetIntStatus
 932              		.thumb
 933              		.thumb_func
 934              		.type	P2_6_GetIntStatus, %function
 935              	P2_6_GetIntStatus:
 936              	.LFB8:
 265:.\Generated_Source\PSoC5/P2_6.c **** }
 266:.\Generated_Source\PSoC5/P2_6.c **** 
 267:.\Generated_Source\PSoC5/P2_6.c **** 
 268:.\Generated_Source\PSoC5/P2_6.c **** /*******************************************************************************
 269:.\Generated_Source\PSoC5/P2_6.c **** * Function Name: P2_6_GetIntStatus
 270:.\Generated_Source\PSoC5/P2_6.c **** ********************************************************************************
 271:.\Generated_Source\PSoC5/P2_6.c **** *
 272:.\Generated_Source\PSoC5/P2_6.c **** * Summary:
 273:.\Generated_Source\PSoC5/P2_6.c **** *  Gets the Shift Register Interrupt status.
 274:.\Generated_Source\PSoC5/P2_6.c **** *
 275:.\Generated_Source\PSoC5/P2_6.c **** * Parameters:
 276:.\Generated_Source\PSoC5/P2_6.c **** *  None.
 277:.\Generated_Source\PSoC5/P2_6.c **** *
 278:.\Generated_Source\PSoC5/P2_6.c **** * Return:
 279:.\Generated_Source\PSoC5/P2_6.c **** *  Byte containing the constant for the selected interrupt source/s.
 280:.\Generated_Source\PSoC5/P2_6.c **** *
 281:.\Generated_Source\PSoC5/P2_6.c **** *******************************************************************************/
 282:.\Generated_Source\PSoC5/P2_6.c **** uint8 P2_6_GetIntStatus(void) 
 283:.\Generated_Source\PSoC5/P2_6.c **** {
 937              		.loc 1 283 0
 938              		.cfi_startproc
 939              		@ args = 0, pretend = 0, frame = 0
 940              		@ frame_needed = 0, uses_anonymous_args = 0
 941              		@ link register save eliminated.
 284:.\Generated_Source\PSoC5/P2_6.c ****     return(P2_6_SR_STATUS & P2_6_INTS_EN_MASK);
 942              		.loc 1 284 0
 943 0000 024B     		ldr	r3, .L39
 944 0002 1878     		ldrb	r0, [r3]	@ zero_extendqisi2
 285:.\Generated_Source\PSoC5/P2_6.c **** }
 945              		.loc 1 285 0
 946 0004 00F00700 		and	r0, r0, #7
 947 0008 7047     		bx	lr
 948              	.L40:
 949 000a 00BF     		.align	2
 950              	.L39:
 951 000c 69650040 		.word	1073767785
 952              		.cfi_endproc
 953              	.LFE8:
 954              		.size	P2_6_GetIntStatus, .-P2_6_GetIntStatus
 955              		.section	.text.P2_6_WriteRegValue,"ax",%progbits
 956              		.align	2
 957              		.global	P2_6_WriteRegValue
 958              		.thumb
 959              		.thumb_func
 960              		.type	P2_6_WriteRegValue, %function
ARM GAS  C:\Users\Thomas\AppData\Local\Temp\ccBYtHCp.s 			page 54


 961              	P2_6_WriteRegValue:
 962              	.LFB9:
 286:.\Generated_Source\PSoC5/P2_6.c **** 
 287:.\Generated_Source\PSoC5/P2_6.c **** 
 288:.\Generated_Source\PSoC5/P2_6.c **** /*******************************************************************************
 289:.\Generated_Source\PSoC5/P2_6.c **** * Function Name: P2_6_WriteRegValue
 290:.\Generated_Source\PSoC5/P2_6.c **** ********************************************************************************
 291:.\Generated_Source\PSoC5/P2_6.c **** *
 292:.\Generated_Source\PSoC5/P2_6.c **** * Summary:
 293:.\Generated_Source\PSoC5/P2_6.c **** *  Send state directly to shift register
 294:.\Generated_Source\PSoC5/P2_6.c **** *
 295:.\Generated_Source\PSoC5/P2_6.c **** * Parameters:
 296:.\Generated_Source\PSoC5/P2_6.c **** *  shiftData: containing shift register state.
 297:.\Generated_Source\PSoC5/P2_6.c **** *
 298:.\Generated_Source\PSoC5/P2_6.c **** * Return:
 299:.\Generated_Source\PSoC5/P2_6.c **** *  None.
 300:.\Generated_Source\PSoC5/P2_6.c **** *
 301:.\Generated_Source\PSoC5/P2_6.c **** *******************************************************************************/
 302:.\Generated_Source\PSoC5/P2_6.c **** void P2_6_WriteRegValue(uint16 shiftData)
 303:.\Generated_Source\PSoC5/P2_6.c ****                                                                      
 304:.\Generated_Source\PSoC5/P2_6.c **** {
 963              		.loc 1 304 0
 964              		.cfi_startproc
 965              		@ args = 0, pretend = 0, frame = 0
 966              		@ frame_needed = 0, uses_anonymous_args = 0
 967              		@ link register save eliminated.
 968              	.LVL19:
 305:.\Generated_Source\PSoC5/P2_6.c ****     CY_SET_REG16(P2_6_SHIFT_REG_LSB_PTR, shiftData);
 969              		.loc 1 305 0
 970 0000 014B     		ldr	r3, .L42
 971 0002 1880     		strh	r0, [r3]	@ movhi
 972 0004 7047     		bx	lr
 973              	.L43:
 974 0006 00BF     		.align	2
 975              	.L42:
 976 0008 08650040 		.word	1073767688
 977              		.cfi_endproc
 978              	.LFE9:
 979              		.size	P2_6_WriteRegValue, .-P2_6_WriteRegValue
 980              		.section	.text.P2_6_ReadRegValue,"ax",%progbits
 981              		.align	2
 982              		.global	P2_6_ReadRegValue
 983              		.thumb
 984              		.thumb_func
 985              		.type	P2_6_ReadRegValue, %function
 986              	P2_6_ReadRegValue:
 987              	.LFB10:
 306:.\Generated_Source\PSoC5/P2_6.c **** }
 307:.\Generated_Source\PSoC5/P2_6.c **** 
 308:.\Generated_Source\PSoC5/P2_6.c **** 
 309:.\Generated_Source\PSoC5/P2_6.c **** #if(0u != P2_6_USE_INPUT_FIFO)
 310:.\Generated_Source\PSoC5/P2_6.c ****     /*******************************************************************************
 311:.\Generated_Source\PSoC5/P2_6.c ****     * Function Name: P2_6_WriteData
 312:.\Generated_Source\PSoC5/P2_6.c ****     ********************************************************************************
 313:.\Generated_Source\PSoC5/P2_6.c ****     *
 314:.\Generated_Source\PSoC5/P2_6.c ****     * Summary:
 315:.\Generated_Source\PSoC5/P2_6.c ****     *  Send state to FIFO for later transfer to shift register based on the Load
ARM GAS  C:\Users\Thomas\AppData\Local\Temp\ccBYtHCp.s 			page 55


 316:.\Generated_Source\PSoC5/P2_6.c ****     *  input
 317:.\Generated_Source\PSoC5/P2_6.c ****     *
 318:.\Generated_Source\PSoC5/P2_6.c ****     * Parameters:
 319:.\Generated_Source\PSoC5/P2_6.c ****     *  shiftData: containing shift register state.
 320:.\Generated_Source\PSoC5/P2_6.c ****     *
 321:.\Generated_Source\PSoC5/P2_6.c ****     * Return:
 322:.\Generated_Source\PSoC5/P2_6.c ****     *  Indicates: successful execution of function
 323:.\Generated_Source\PSoC5/P2_6.c ****     *  when FIFO is empty; and error when FIFO is full.
 324:.\Generated_Source\PSoC5/P2_6.c ****     *
 325:.\Generated_Source\PSoC5/P2_6.c ****     * Reentrant:
 326:.\Generated_Source\PSoC5/P2_6.c ****     *  No.
 327:.\Generated_Source\PSoC5/P2_6.c ****     *
 328:.\Generated_Source\PSoC5/P2_6.c ****     *******************************************************************************/
 329:.\Generated_Source\PSoC5/P2_6.c ****     cystatus P2_6_WriteData(uint16 shiftData)
 330:.\Generated_Source\PSoC5/P2_6.c ****                                                                          
 331:.\Generated_Source\PSoC5/P2_6.c ****     {
 332:.\Generated_Source\PSoC5/P2_6.c ****         cystatus result;
 333:.\Generated_Source\PSoC5/P2_6.c **** 
 334:.\Generated_Source\PSoC5/P2_6.c ****         result = CYRET_INVALID_STATE;
 335:.\Generated_Source\PSoC5/P2_6.c **** 
 336:.\Generated_Source\PSoC5/P2_6.c ****         /* Writes data into the input FIFO if it is not FULL */
 337:.\Generated_Source\PSoC5/P2_6.c ****         if(P2_6_RET_FIFO_FULL != (P2_6_GetFIFOStatus(P2_6_IN_FIFO)))
 338:.\Generated_Source\PSoC5/P2_6.c ****         {
 339:.\Generated_Source\PSoC5/P2_6.c ****             CY_SET_REG16(P2_6_IN_FIFO_VAL_LSB_PTR, shiftData);
 340:.\Generated_Source\PSoC5/P2_6.c ****             result = CYRET_SUCCESS;
 341:.\Generated_Source\PSoC5/P2_6.c ****         }
 342:.\Generated_Source\PSoC5/P2_6.c **** 
 343:.\Generated_Source\PSoC5/P2_6.c ****         return(result);
 344:.\Generated_Source\PSoC5/P2_6.c ****     }
 345:.\Generated_Source\PSoC5/P2_6.c **** #endif /* (0u != P2_6_USE_INPUT_FIFO) */
 346:.\Generated_Source\PSoC5/P2_6.c **** 
 347:.\Generated_Source\PSoC5/P2_6.c **** 
 348:.\Generated_Source\PSoC5/P2_6.c **** #if(0u != P2_6_USE_OUTPUT_FIFO)
 349:.\Generated_Source\PSoC5/P2_6.c ****     /*******************************************************************************
 350:.\Generated_Source\PSoC5/P2_6.c ****     * Function Name: P2_6_ReadData
 351:.\Generated_Source\PSoC5/P2_6.c ****     ********************************************************************************
 352:.\Generated_Source\PSoC5/P2_6.c ****     *
 353:.\Generated_Source\PSoC5/P2_6.c ****     * Summary:
 354:.\Generated_Source\PSoC5/P2_6.c ****     *  Returns state in FIFO due to Store input.
 355:.\Generated_Source\PSoC5/P2_6.c ****     *
 356:.\Generated_Source\PSoC5/P2_6.c ****     * Parameters:
 357:.\Generated_Source\PSoC5/P2_6.c ****     *  None.
 358:.\Generated_Source\PSoC5/P2_6.c ****     *
 359:.\Generated_Source\PSoC5/P2_6.c ****     * Return:
 360:.\Generated_Source\PSoC5/P2_6.c ****     *  Shift Register state
 361:.\Generated_Source\PSoC5/P2_6.c ****     *
 362:.\Generated_Source\PSoC5/P2_6.c ****     * Reentrant:
 363:.\Generated_Source\PSoC5/P2_6.c ****     *  No.
 364:.\Generated_Source\PSoC5/P2_6.c ****     *
 365:.\Generated_Source\PSoC5/P2_6.c ****     *******************************************************************************/
 366:.\Generated_Source\PSoC5/P2_6.c ****     uint16 P2_6_ReadData(void) 
 367:.\Generated_Source\PSoC5/P2_6.c ****     {
 368:.\Generated_Source\PSoC5/P2_6.c ****         return(CY_GET_REG16(P2_6_OUT_FIFO_VAL_LSB_PTR));
 369:.\Generated_Source\PSoC5/P2_6.c ****     }
 370:.\Generated_Source\PSoC5/P2_6.c **** #endif /* (0u != P2_6_USE_OUTPUT_FIFO) */
 371:.\Generated_Source\PSoC5/P2_6.c **** 
 372:.\Generated_Source\PSoC5/P2_6.c **** 
ARM GAS  C:\Users\Thomas\AppData\Local\Temp\ccBYtHCp.s 			page 56


 373:.\Generated_Source\PSoC5/P2_6.c **** /*******************************************************************************
 374:.\Generated_Source\PSoC5/P2_6.c **** * Function Name: P2_6_ReadRegValue
 375:.\Generated_Source\PSoC5/P2_6.c **** ********************************************************************************
 376:.\Generated_Source\PSoC5/P2_6.c **** *
 377:.\Generated_Source\PSoC5/P2_6.c **** * Summary:
 378:.\Generated_Source\PSoC5/P2_6.c **** *  Directly returns current state in shift register, not data in FIFO due
 379:.\Generated_Source\PSoC5/P2_6.c **** *  to Store input.
 380:.\Generated_Source\PSoC5/P2_6.c **** *
 381:.\Generated_Source\PSoC5/P2_6.c **** * Parameters:
 382:.\Generated_Source\PSoC5/P2_6.c **** *  None.
 383:.\Generated_Source\PSoC5/P2_6.c **** *
 384:.\Generated_Source\PSoC5/P2_6.c **** * Return:
 385:.\Generated_Source\PSoC5/P2_6.c **** *  Shift Register state. Clears output FIFO.
 386:.\Generated_Source\PSoC5/P2_6.c **** *
 387:.\Generated_Source\PSoC5/P2_6.c **** * Reentrant:
 388:.\Generated_Source\PSoC5/P2_6.c **** *  No.
 389:.\Generated_Source\PSoC5/P2_6.c **** *
 390:.\Generated_Source\PSoC5/P2_6.c **** *******************************************************************************/
 391:.\Generated_Source\PSoC5/P2_6.c **** uint16 P2_6_ReadRegValue(void) 
 392:.\Generated_Source\PSoC5/P2_6.c **** {
 988              		.loc 1 392 0
 989              		.cfi_startproc
 990              		@ args = 0, pretend = 0, frame = 0
 991              		@ frame_needed = 0, uses_anonymous_args = 0
 992              		@ link register save eliminated.
 993              	.LBB55:
 994              	.LBB56:
 995              	.LBB57:
 996              	.LBB58:
 218:.\Generated_Source\PSoC5/P2_6.c ****         {
 997              		.loc 1 218 0
 998 0000 064A     		ldr	r2, .L49
 999              	.LBE58:
 1000              	.LBE57:
 1001              	.LBE56:
 1002              	.LBE55:
 393:.\Generated_Source\PSoC5/P2_6.c ****     uint16 result;
 394:.\Generated_Source\PSoC5/P2_6.c **** 
 395:.\Generated_Source\PSoC5/P2_6.c ****     /* Clear FIFO before software capture */
 396:.\Generated_Source\PSoC5/P2_6.c ****     while(P2_6_RET_FIFO_EMPTY != P2_6_GetFIFOStatus(P2_6_OUT_FIFO))
 397:.\Generated_Source\PSoC5/P2_6.c ****     {
 398:.\Generated_Source\PSoC5/P2_6.c ****         (void) CY_GET_REG16(P2_6_OUT_FIFO_VAL_LSB_PTR);
 1003              		.loc 1 398 0
 1004 0002 0749     		ldr	r1, .L49+4
 396:.\Generated_Source\PSoC5/P2_6.c ****     {
 1005              		.loc 1 396 0
 1006 0004 00E0     		b	.L45
 1007              	.LVL20:
 1008              	.L48:
 1009              		.loc 1 398 0
 1010 0006 0B88     		ldrh	r3, [r1]
 1011              	.LVL21:
 1012              	.L45:
 1013              	.LBB62:
 1014              	.LBB61:
 1015              	.LBB60:
 1016              	.LBB59:
ARM GAS  C:\Users\Thomas\AppData\Local\Temp\ccBYtHCp.s 			page 57


 218:.\Generated_Source\PSoC5/P2_6.c ****         {
 1017              		.loc 1 218 0
 1018 0008 1378     		ldrb	r3, [r2]	@ zero_extendqisi2
 1019 000a 13F0600F 		tst	r3, #96
 1020 000e FAD1     		bne	.L48
 1021              	.LVL22:
 1022              	.LBE59:
 1023              	.LBE60:
 1024              	.LBE61:
 1025              	.LBE62:
 399:.\Generated_Source\PSoC5/P2_6.c ****     }
 400:.\Generated_Source\PSoC5/P2_6.c **** 
 401:.\Generated_Source\PSoC5/P2_6.c ****     /* Read of 8 bits from A1 causes capture to output FIFO */
 402:.\Generated_Source\PSoC5/P2_6.c ****     (void) CY_GET_REG8(P2_6_SHIFT_REG_CAPTURE_PTR);
 403:.\Generated_Source\PSoC5/P2_6.c **** 
 404:.\Generated_Source\PSoC5/P2_6.c ****     /* Read output FIFO */
 405:.\Generated_Source\PSoC5/P2_6.c ****     result  = CY_GET_REG16(P2_6_OUT_FIFO_VAL_LSB_PTR);
 1026              		.loc 1 405 0
 1027 0010 034B     		ldr	r3, .L49+4
 402:.\Generated_Source\PSoC5/P2_6.c **** 
 1028              		.loc 1 402 0
 1029 0012 044A     		ldr	r2, .L49+8
 1030 0014 1278     		ldrb	r2, [r2]	@ zero_extendqisi2
 1031              		.loc 1 405 0
 1032 0016 1888     		ldrh	r0, [r3]
 1033              	.LVL23:
 406:.\Generated_Source\PSoC5/P2_6.c ****     
 407:.\Generated_Source\PSoC5/P2_6.c ****     #if(0u != (P2_6_SR_SIZE % 8u))
 408:.\Generated_Source\PSoC5/P2_6.c ****         result &= ((uint16) P2_6_SR_MASK);
 409:.\Generated_Source\PSoC5/P2_6.c ****     #endif /* (0u != (P2_6_SR_SIZE % 8u)) */
 410:.\Generated_Source\PSoC5/P2_6.c ****     
 411:.\Generated_Source\PSoC5/P2_6.c ****     return(result);
 412:.\Generated_Source\PSoC5/P2_6.c **** }
 1034              		.loc 1 412 0
 1035 0018 80B2     		uxth	r0, r0
 1036 001a 7047     		bx	lr
 1037              	.L50:
 1038              		.align	2
 1039              	.L49:
 1040 001c 69650040 		.word	1073767785
 1041 0020 58650040 		.word	1073767768
 1042 0024 18650040 		.word	1073767704
 1043              		.cfi_endproc
 1044              	.LFE10:
 1045              		.size	P2_6_ReadRegValue, .-P2_6_ReadRegValue
 1046              		.global	P2_6_initVar
 1047              		.bss
 1048              		.set	.LANCHOR0,. + 0
 1049              		.type	P2_6_initVar, %object
 1050              		.size	P2_6_initVar, 1
 1051              	P2_6_initVar:
 1052 0000 00       		.space	1
 1053              		.text
 1054              	.Letext0:
 1055              		.file 2 ".\\Generated_Source\\PSoC5\\cytypes.h"
 1056              		.file 3 ".\\Generated_Source\\PSoC5\\CyLib.h"