ARM GAS  C:\Users\Thomas\AppData\Local\Temp\ccVAlhnd.s 			page 1


   1              		.syntax unified
   2              		.cpu cortex-m3
   3              		.fpu softvfp
   4              		.eabi_attribute 20, 1
   5              		.eabi_attribute 21, 1
   6              		.eabi_attribute 23, 3
   7              		.eabi_attribute 24, 1
   8              		.eabi_attribute 25, 1
   9              		.eabi_attribute 26, 1
  10              		.eabi_attribute 30, 2
  11              		.eabi_attribute 34, 1
  12              		.eabi_attribute 18, 4
  13              		.thumb
  14              		.file	"P2_Clock_5.c"
  15              		.text
  16              	.Ltext0:
  17              		.section	.gnu.lto_.profile.b9499662,"",%progbits
  18 0000 789C6366 		.ascii	"x\234cf```a\200\000F\006IQ\000\000\273\0007"
  18      60606061 
  18      80004606 
  18      49510000 
  18      BB0037
  19              		.text
  20              		.section	.gnu.lto_.jmpfuncs.b9499662,"",%progbits
  21 0000 789C6366 		.ascii	"x\234cf\300\016\204\2404\013\003##c=#\210`b``\006\212"
  21      C00E84A0 
  21      340B0323 
  21      23633D23 
  21      88606260 
  22 0017 00000DC0 		.ascii	"\000\000\015\300\001$"
  22      0124
  23              		.text
  24              		.section	.gnu.lto_.inline.b9499662,"",%progbits
  25 0000 789C6366 		.ascii	"x\234cf\300\016\022\2404\013\003\003'\007##\003#\003"
  25      C00E12A0 
  25      340B0303 
  25      27072323 
  25      032303
  26 0013 0333C701 		.ascii	"\0033\307\001;\006\266\005\362L\014,\013\344Y@\222\214"
  26      3B06B605 
  26      F24C0C2C 
  26      0BE45940 
  26      928C
  27 0025 0C1CECE8 		.ascii	"\014\034\354\350rL\027\370\301rL\014l\254\214\014Ll"
  27      724C17F8 
  27      C1724C0C 
  27      6CAC8C0C 
  27      4C6C
  28 0037 1FF420E2 		.ascii	"\037\364 \342@\300\214)\304\000\000\333l\011\322"
  28      40C08C29 
  28      C40000DB 
  28      6C09D2
  29              		.text
  30              		.section	.gnu.lto_.pureconst.b9499662,"",%progbits
  31 0000 789C6366 		.ascii	"x\234cf``\340d\200\000\026\006)F)&)f)\000\002\305\000"
  31      6060E064 
  31      80001606 
ARM GAS  C:\Users\Thomas\AppData\Local\Temp\ccVAlhnd.s 			page 2


  31      29462926 
  31      29662900 
  32 0017 7F       		.ascii	"\177"
  33              		.text
  34              		.section	.gnu.lto_P2_Clock_5_Write.b9499662,"",%progbits
  35 0000 789C6591 		.ascii	"x\234e\221OHTQ\024\306\317w\357{o\306,\213\226\263\025"
  35      4F485451 
  35      14C6CF77 
  35      EF7B6FC6 
  35      2C8B96B3 
  36 0015 33210C02 		.ascii	"3!\014\002\027\355\"\027m\007\334\016\014\303\364\026"
  36      17ED2217 
  36      6D07DC0E 
  36      0CC3F416 
  37 0025 9234A063 		.ascii	"\2224\240c[\357\253\301EP\210D\005a4h\364gl\306\224"
  37      5BEFABC1 
  37      45508844 
  37      05613468 
  37      F4676CC6 
  38 003a AC8DF194 		.ascii	"\254\215\361\224\331E\211-*\304\254`\212\202\026\332"
  38      D945892D 
  38      2AC4AC60 
  38      8A8216DA 
  39 004a 8493494E 		.ascii	"\204\223IN\347\274\273I\272p\377\035~\337\271\3379W"
  39      E7BCBB49 
  39      BA70FF1D 
  39      7EDFB9DF 
  39      3957
  40 005c D3FF23C1 		.ascii	"\323\377#\301\363\250\":\311;4A\215\275\"\012\342\012"
  40      F3A8223A 
  40      C93B3441 
  40      8DBD220A 
  40      E20A
  41 006e 90038146 		.ascii	"\220\003\201F\024F\360Mm*\214\205\245\233\255\235w\215"
  41      1446F04D 
  41      6D2A8C85 
  41      A59BAD9D 
  41      778D
  42 0080 311BE3CB 		.ascii	"1\033\343\313A2\3046\353\352\312\346\301=t2S/\231kZ"
  42      4132C436 
  42      EBEACAE6 
  42      C13D7432 
  42      532F996B 
  43 0095 7781F83C 		.ascii	"w\201\370<\263\362r7\3261i\314\305p\241lN1\016\334\207"
  43      B3F27237 
  43      D63169CC 
  43      C570A16C 
  43      4E310EDC 
  44 00aa 66058E25 		.ascii	"f\005\216%\320\225 \016\020\036\240C\340\331+\325y\245"
  44      D095200E 
  44      101EA043 
  44      E0D92BD5 
  44      79A5
  45 00bc 8F47C2E2 		.ascii	"\217G\302\342\213O\325\375\355E\026~\334\231O\205\301"
  45      8B4FD5FD 
  45      ED45167E 
  45      DC994F85 
ARM GAS  C:\Users\Thomas\AppData\Local\Temp\ccVAlhnd.s 			page 3


  45      C1
  46 00cd 1DB3DB6C 		.ascii	"\035\263\333lF\362\207\377\312\355`~\263\360\347m\253"
  46      46F287FF 
  46      CAED607E 
  46      B3F0E76D 
  46      AB
  47 00de 57606387 		.ascii	"W`c\207PB\273\365\204ix\340M\"\225\303\241i6\347\026"
  47      5042BBF5 
  47      846978E0 
  47      4D2295C3 
  47      A16936E7 
  48 00f3 167FA345 		.ascii	"\026\177\243E\361\263\212\013\345\260\003y\335\225\200"
  48      F1B38A0B 
  48      E5B00379 
  48      DD9580
  49 0102 274B4C16 		.ascii	"'KL\026\242\032O)\3763_x\327\253X\332\272\274~#&\031"
  49      A21A4F29 
  49      FE335F78 
  49      D7AB58DA 
  49      BABC7E23 
  50 0118 1B4A3AB1 		.ascii	"\033J:\261\370\376\331T\333W\265\255\364\306d`\034\361"
  50      F8FED954 
  50      DB57B5AD 
  50      F4C66460 
  50      1CF1
  51 012a F0A1B6BC 		.ascii	"\360\241\266\274\022\217B\221\245\333\317\237\274n\233"
  51      128F4291 
  51      A5DBCF9F 
  51      BC6E9B
  52 0139 C0ADA0C0 		.ascii	"\300\255\240\300\276\035<B\002e\260eT0\001Z\305\245"
  52      BE1D3C42 
  52      0265B065 
  52      5430015A 
  52      C5A5
  53 014b 5FA36BB0 		.ascii	"_\243k\260\011\265\315Y\3711]\365$\001\032\334\225\031"
  53      09B5CD59 
  53      F9315DF5 
  53      24011ADC 
  53      9519
  54 015d 86DF4045 		.ascii	"\206\337@EE\260S\246D\2646\372\345i\213U\271\015\345"
  54      45B053A6 
  54      44B436FA 
  54      E5698B55 
  54      B90DE5
  55 0170 B0EA6A79 		.ascii	"\260\352jy\252~PTR\322c\026\331\324\312B\3021\364\256"
  55      AA7E5054 
  55      52D26316 
  55      D9D4CA42 
  55      C231F4AE 
  56 0184 F8FDFA01 		.ascii	"\370\375\372\001\201\2348a\326B?=\213\304\"J\262/\215"
  56      819C3861 
  56      D6423F3D 
  56      8BC4224A 
  56      B22F8D
  57 0197 4786F698 		.ascii	"G\206\366\230\017Bw\257\3759\266\317\"ZG\020\356\270"
  57      0F4277AF 
  57      FD39B6CF 
ARM GAS  C:\Users\Thomas\AppData\Local\Temp\ccVAlhnd.s 			page 4


  57      225A4710 
  57      EEB8
  58 01a9 C2CB1FD4 		.ascii	"\302\313\037\324\370#\271S\334\267#\335\2513\376y\177"
  58      F823B953 
  58      DCB723DD 
  58      A933FE79 
  58      7F
  59 01ba 3093F7CF 		.ascii	"0\223\367\317\246\373r\303\203Y?\225\354\313\365\366"
  59      A6FB72C3 
  59      83593F95 
  59      ECCBF5F6 
  60 01ca A49227D2 		.ascii	"\244\222'\322\275\003\271\354\271tOw\226\334\013\231"
  60      BD03B9EC 
  60      B9744F77 
  60      96DC0B99 
  61 01da 81617FDF 		.ascii	"\201a\177\337P>\223\357\317\236\356\317\017\375\005"
  61      503E93EF 
  61      CF9EEECF 
  61      0FFD05
  62 01e9 71EBCF7D 		.ascii	"q\353\317}"
  63              		.text
  64              		.section	.gnu.lto_P2_Clock_5_SetDriveMode.b9499662,"",%progbits
  65 0000 789C7D51 		.ascii	"x\234}QKH[A\024\275g\346\345#\241E\272\222\354U\004"
  65      4B485B41 
  65      14BD67E6 
  65      E523A145 
  65      BA92EC55 
  66 0015 B520642F 		.ascii	"\265 d/\010v+\270\015\204\022\337\312\352\003\321\265"
  66      08762BB8 
  66      0D8412DF 
  66      CAEA03D1 
  66      B5
  67 0026 EF9974E3 		.ascii	"\357\231t\343J\305\205 \202(\342\267Qp\341N\202\270"
  67      4AC58520 
  67      8228E2B7 
  67      5170E14E 
  67      82B8
  68 0038 B328BAB1 		.ascii	"\263(\272\261\025T\220\250\265\320\222\020\251\015A"
  68      155490A8 
  68      B5D09210 
  68      A90D41
  69 0047 E3991717 		.ascii	"\343\231\027\027\001\301\341\315\235{\016\367\234w\347"
  69      01C1E1CD 
  69      9D7B0EF7 
  69      9C77E7
  70 0056 8E96D72B 		.ascii	"\216\226\327+\312\375\033\"m<\241\005j\342P\304\013"
  70      CAFD1B22 
  70      6D3CA105 
  70      6AE250C4 
  70      0B
  71 0067 2BC02402 		.ascii	"+\300$\002\031U\030\305\235*(Ld\327g\"\315K\256\353"
  71      195518C5 
  71      9D2A284C 
  71      64D76722 
  71      CD4BAEEB 
  72 007b E617761A 		.ascii	"\346\027v\032\2766\224\224HQUm\260\214f\226\334\226"
  72      BE369494 
ARM GAS  C:\Users\Thomas\AppData\Local\Temp\ccVAlhnd.s 			page 5


  72      4851556D 
  72      B08C6696 
  72      DC96
  73 008d EE96DFE9 		.ascii	"\356\226\337\351\026\010\363\307\311\323\023\325\270"
  73      1608F3C7 
  73      C9D313D5 
  73      B8
  74 009a E8BA63D9 		.ascii	"\350\272c\331\357\031\267\023%z\256@S\201\326(Z\242"
  74      EF19B713 
  74      257AAE40 
  74      5381D628 
  74      5AA2
  75 00ac 4242B08A 		.ascii	"BB\260\212FS\\H?\236F\202iz\327W=\261\206 \333\222\315"
  75      46535C48 
  75      3F9E4682 
  75      697AD757 
  75      3DB18620 
  76 00c3 0F59B752 		.ascii	"\017Y\267R)\236O\256|DDQ\2434\203\266L\010\300\310\203"
  76      299E4FAE 
  76      7C444451 
  76      A33483B6 
  76      4C08C0C8 
  77 00d8 260D9910 		.ascii	"&\015\231\0206\241\316\324\210\344\270\315\015\256\011"
  77      36A1CED4 
  77      88E4B8CD 
  77      0DAE09
  78 00e7 78EA33EC 		.ascii	"x\3523\354\375\033\277\231\265\214\357\2032\327y\372"
  78      FD1BBF99 
  78      B58CEF83 
  78      32D779FA 
  79 00f7 9129AA5F 		.ascii	"\221)\252_\252\244\254\362\274\347Z\246\213\313\334"
  79      AAA4ACF2 
  79      BCE75AA6 
  79      8BCBDC
  80 0106 D171D8A7 		.ascii	"\321q\330\247\304\300\243\253\351]\314a\326K\263\371"
  80      C4C0A3AB 
  80      E95DCC61 
  80      D64BB3F9 
  81 0116 00D611C5 		.ascii	"\000\326\021\305\00680|#+g\030\273\010U\3554\035\211"
  81      0638307C 
  81      232B6718 
  81      BB0855ED 
  81      341D89
  82 0129 53FF8355 		.ascii	"S\377\203Ul\221\242\376\347\337\374\201o\247\013\225"
  82      6C91A2FE 
  82      E7DFFC81 
  82      6FA70B95 
  83 0139 97C55966 		.ascii	"\227\305YfhQ\243\345\027\250\325\206HQ{\274\375g?\340"
  83      6851A3E5 
  83      17A8D586 
  83      48517BBC 
  83      FD673FE0 
  84 014d 6BDF0B36 		.ascii	"k\337\0136}I\352\376\245$\354\377!T\353RG\226xo\012"
  84      7D49EAFE 
  84      A524ECFF 
  84      2154EB52 
  84      4796786F 
ARM GAS  C:\Users\Thomas\AppData\Local\Temp\ccVAlhnd.s 			page 6


  85 0162 06BFD5FB 		.ascii	"\006\277\325\373\026Y\326\313\005\274l\271\333T\233"
  85      1659D6CB 
  85      05BC6CB9 
  85      DB549B
  86 0171 F7CBF12D 		.ascii	"\367\313\361-8&\016\255\251=\376\311\036\264\207>\017"
  86      38260EAD 
  86      A93DFEC9 
  86      1EB4873E 
  86      0F
  87 0182 DB7D895E 		.ascii	"\333}\211^gd(i\307{z\235\256X\274\247#\321\365\305I"
  87      67642869 
  87      C77B7A9D 
  87      AE58BCA7 
  87      23D1F5C5 
  88 0197 F62762ED 		.ascii	"\366'b\355I\261\006\234>\373\031\237\370\2724"
  88      49B1069C 
  88      3EFB199F 
  88      F8BA34
  89              		.text
  90              		.section	.gnu.lto_P2_Clock_5_Read.b9499662,"",%progbits
  91 0000 789C654F 		.ascii	"x\234eO;H\003A\024|\263w\227\004\323\210\225\244\327"
  91      3B480341 
  91      147CB377 
  91      9704D388 
  91      95A4D7
  92 0013 28841442 		.ascii	"(\204\024B\032\355La\033H\033\010\022\257R\014\004\255"
  92      1AED4C61 
  92      1B481B08 
  92      12AF520C 
  92      04AD
  93 0025 7389317E 		.ascii	"s\2111~*?h#Z\370\377D,\254,\004\261\026E,\224\020\316"
  93      2A3F6823 
  93      5AF8FF44 
  93      2CAC2C04 
  93      B116452C 
  94 003c 2601D319 		.ascii	"&\001\323\031\342\357\012\215\357\345\354\\\330\331"
  94      E2EF0A8D 
  94      EFE5EC5C 
  94      D8D9
  95 004a 7DF36667 		.ascii	"}\363fg\366i\364\177\005x\017\203\250\217Oh\004\265"
  95      F669F47F 
  95      05780F83 
  95      A88F4F68 
  95      04B5
  96 005c 744B94F3 		.ascii	"tK\224\363)@.\004\312*dQW\015\205\233\213\237\007\004"
  96      29402E04 
  96      CA2A6451 
  96      570D859B 
  96      8B9F0704 
  97 0070 F72C2BFF 		.ascii	"\367,+\377\272rY\361\317v;\212\250\251\010\241\000\372"
  97      BA7259F1 
  97      CF763B8A 
  97      A8A908A1 
  97      00FA
  98 0082 C5070708 		.ascii	"\305\007\007\010\022\013\033\205\357G\277\247`YV\247"
  98      120B1B85 
  98      EF47BFA7 
ARM GAS  C:\Users\Thomas\AppData\Local\Temp\ccVAlhnd.s 			page 7


  98      605956A7 
  99 0092 F4B97108 		.ascii	"\364\271q\010\017g\320Y\327\225\325j\235\277/\317\017"
  99      0F67D059 
  99      D795D56A 
  99      9DBF2FCF 
  99      0F
 100 00a3 C10B7214 		.ascii	"\301\013r\024'2\350\014\312\020\360\220xR\225A\342k"
 100      2732E80C 
 100      CA10F090 
 100      78529541 
 100      E26B
 101 00b5 4AC9A995 		.ascii	"J\311\251\225q\375\261ho\015\212\317\247\3228b\177\365"
 101      71FDB168 
 101      6F0D8ACF 
 101      A7D23862 
 101      7FF5
 102 00c7 74BBE345 		.ascii	"t\273\343E9\\\354\344,]R\237\253w\367\2766ER\326\352"
 102      395CECE4 
 102      2C5D529F 
 102      AB77F7BE 
 102      364552D6 
 103 00dc 0B4D6C62 		.ascii	"\013Mlb#W\200\243t\034!\200c\360/q\302,\2251\363U\254"
 103      235780A3 
 103      741C2180 
 103      63F02F71 
 103      C22C9531 
 104 00f3 68AE215C 		.ascii	"h\256!\\\317\335\265\365\222!\006\360\021J\254-#o{]"
 104      CFDDB5F5 
 104      922106F0 
 104      114AAC2D 
 104      236F7B5D 
 105 0107 89CE2A79 		.ascii	"\211\316*yd\027\337\014\2271\230DO[\3644\027r9\241\311"
 105      6417DF0C 
 105      97319844 
 105      4F5BF434 
 105      177239A1 
 106 011c 06FEAAF6 		.ascii	"\006\376\252\366$\220\011x\236\336pb\304\23443\243S"
 106      24900978 
 106      9EDE7062 
 106      C49C3433 
 106      A353
 107 012e E658329E 		.ascii	"\346X2\236\236\316\244\314D,\236\216F\022\261\201dt"
 107      9ECEA4CC 
 107      442C9E8E 
 107      4612B181 
 107      6474
 108 0140 229D1A4F 		.ascii	"\"\235\032OF\302)\372\005V\367z\357"
 108      46C229FA 
 108      0556F77A 
 108      EF
 109              		.text
 110              		.section	.gnu.lto_P2_Clock_5_ReadDataReg.b9499662,"",%progbits
 111 0000 789C654F 		.ascii	"x\234eO1HBQ\024\275\347\376\377U\020$\232\302\275\254"
 111      31484251 
 111      14BDE7FE 
 111      FF551024 
 111      9AC2BDAC 
ARM GAS  C:\Users\Thomas\AppData\Local\Temp\ccVAlhnd.s 			page 8


 112 0014 1087C0A5 		.ascii	"\020\207\300\2451\207V\301U\220\260?\025\011R\263_3"
 112      318756C1 
 112      5590B03F 
 112      150952B3 
 112      5F33
 113 0026 8BA6086A 		.ascii	"\213\246\010j\011[2\312\022\032\"\250%\2529\222t(\304"
 113      095B32CA 
 113      121A22A8 
 113      25AA3992 
 113      7428C4
 114 0039 6C31A84D 		.ascii	"l1\250M)*\207\264\373\374m=x\347\276w\356y\347\274\253"
 114      292A87B4 
 114      FBFC6D3D 
 114      78E7BE77 
 114      EE79E7BC 
 115 004e D1FFE595 		.ascii	"\321\377\345\225=\005\242Q\251\320\010\274qG\224v1\240"
 115      3D05A251 
 115      A9D008BC 
 115      71479476 
 115      31A0
 116 0060 0E044A31 		.ascii	"\016\004J1Rx\3436\343\366\242[\205o\337\2622\255J\265"
 116      5278E336 
 116      E3F6A25B 
 116      856FDFB2 
 116      32AD4AB5 
 117 0074 EE5E19EA 		.ascii	"\356^\031\3520\321;\023\374^\214)\037\034\300G\"lg\177"
 117      30D13B13 
 117      FC5E8C29 
 117      1F1CC047 
 117      226C677F 
 118 0088 1EDC8EAC 		.ascii	"\036\334\216\254eY\003\252/\215C8$\203N\006\257\254"
 118      655903AA 
 118      2F8D4338 
 118      24834E06 
 118      AFAC
 119 009a 5EEFB4BC 		.ascii	"^\357\264\274\2716\316NP\207%Q@\027`C\201\203\224'5"
 119      B936CE4E 
 119      50872551 
 119      40176043 
 119      81839427 
 120 00af 0554FC0B 		.ascii	"\005T\374\013\263\252Z\0157\237\353\335\342\244\362"
 120      B3AA5A0D 
 120      379FEBDD 
 120      E2A4F2
 121 00be F9624D22 		.ascii	"\371bM\"\256\237\316\013\236W\356\260\326\332K[\272"
 121      AE9FCE0B 
 121      9E57EEB0 
 121      D6DA4B5B 
 121      BA
 122 00cf 4A7D6E96 		.ascii	"J}n\226\357]}\212\324u\367\362\254\342\311c'\235E\207"
 122      EF5D7D8A 
 122      D475F7F2 
 122      ACE2C963 
 122      279D4587 
 123 00e3 7514E1C5 		.ascii	"u\024\341\305\021\344\2278F\036T\303\362w\256\256\331"
 123      11E49738 
 123      461E54C3 
ARM GAS  C:\Users\Thomas\AppData\Local\Temp\ccVAlhnd.s 			page 9


 123      F277AEAE 
 123      D9
 124 00f4 86B03D0B 		.ascii	"\206\260=\013[\333%C\031\300E(\211\266\206L\303iKtQ"
 124      5BDB2543 
 124      19C04528 
 124      89B6864C 
 124      C3694B74 
 125 0109 A9478DDC 		.ascii	"\251G\215\334\207a3\206\220\030\356\213\036W\3756\247"
 125      87613386 
 125      9018EE8B 
 125      1E57FD36 
 125      A7
 126 011a 686A007F 		.ascii	"hj\000\177\267\376$P\023\310<#\201\350\264\271`&g\026"
 126      B7FE2450 
 126      13C83C23 
 126      81E8B4B9 
 126      60266716 
 127 012e CDD95824 		.ascii	"\315\331X$\261\224\214\233\321p$\021\012F\303\023\261"
 127      B1948C9B 
 127      D1702411 
 127      0A46C313 
 127      B1
 128 013f D07C223E 		.ascii	"\320|\">\027\013\006\342\364\013\331\203{V"
 128      170B06E2 
 128      F40BD983 
 128      7B56
 129              		.text
 130              		.section	.gnu.lto_.symbol_nodes.b9499662,"",%progbits
 131 0000 789C6366 		.ascii	"x\234cf``pb\200\002&\206z\006\206\011\347\030\030\352"
 131      60607062 
 131      80022686 
 131      7A068609 
 131      E71818EA 
 132 0014 EB19E62D 		.ascii	"\353\031\346-\340``b\254gD\3413\3253\241\360\231\353"
 132      E0606062 
 132      AC6744E1 
 132      33D533A1 
 132      F099EB
 133 0027 9991F90C 		.ascii	"\231\221\371\014\0003\356\020\336"
 133      0033EE10 
 133      DE
 134              		.text
 135              		.section	.gnu.lto_.refs.b9499662,"",%progbits
 136 0000 789C6366 		.ascii	"x\234cf```d\200\002\000\000=\000\005"
 136      60606064 
 136      80020000 
 136      3D0005
 137              		.text
 138              		.section	.gnu.lto_.decls.b9499662,"",%progbits
 139 0000 789C8D92 		.ascii	"x\234\215\222]H\024Q\024\307\357\231;\256:\256\346\323"
 139      5D481451 
 139      14C7EF99 
 139      3BAE3AAE 
 139      E6D3
 140 0012 2A4BD042 		.ascii	"*K\320B \004\342C!\370V\240\240/\305\242D\017\012\313"
 140      2004E243 
 140      21F856A0 
ARM GAS  C:\Users\Thomas\AppData\Local\Temp\ccVAlhnd.s 			page 10


 140      A02FC5A2 
 140      440F0ACB 
 141 0026 B20E2686 		.ascii	"\262\016&\206\033\333\032\370\324\315\017\374H\312\324"
 141      1BDB1AF8 
 141      D4CD0FFC 
 141      48CAD4
 142 0035 68153241 		.ascii	"h\0252A\315\262\374h]]WMg{I\012{\210E\320\2272!\014"
 142      CDB2FC68 
 142      5D5D574D 
 142      677B490A 
 142      7B8845D0 
 143 004d 0A56A830 		.ascii	"\012V\2500\010\2473ww\233a[\301\003gf\316\334\363\373"
 143      08A73377 
 143      779B615B 
 143      C1036766 
 143      CEDCF3FB 
 144 0061 9F73EF3D 		.ascii	"\237s\357=\224\020\222\017\204\250he\224\220i\214\323"
 144      9410920F 
 144      84A86865 
 144      9490698C 
 144      D3
 145 0072 D0ED4437 		.ascii	"\320\355D7\021\335\217\036@\017\242\207\310\377\346"
 145      11DD8F1E 
 145      400FA287 
 145      C8FFE6
 146 0081 377053E8 		.ascii	"7pS\350\026\364U\364\225\370:\304s\222M\3234%qJ\012"
 146      16F455F4 
 146      95F83AC4 
 146      73924DD3 
 146      3425714A 
 147 0096 3690820D 		.ascii	"6\220\202\015\306k&\270\212\024\\0\005\027:\006\227"
 147      C66B26B8 
 147      8A145C30 
 147      05173A06 
 147      97
 148 00a7 6A8FFB02 		.ascii	"j\217\373\002\204\246\177ld\355\011\220#\331\264p\251"
 148      84A67F6C 
 148      64ED0990 
 148      23D9B470 
 148      A9
 149 00b8 6FDD67C2 		.ascii	"o\335g\302\320,\211Z\270\271\326\321\221A\005\320\276"
 149      D02C895A 
 149      B8B9D6D1 
 149      914105D0 
 149      BE
 150 00c9 477D3B11 		.ascii	"G};\021\251p\2221\326\311\024\005t\211\333O\226{\322"
 150      A9709231 
 150      D6C91405 
 150      7489DB4F 
 150      967BD2
 151 00dc 91B1483C 		.ascii	"\221\261H<\274\373n(Ly\250j\234\260\2655\360\233\202"
 151      BCFB6E28 
 151      4C79A86A 
 151      9CB0B535 
 151      F09B82
 152 00ef 54D0C958 		.ascii	"T\320\311X\013\213\3661\232O\240\320\012g\254\004\246"
 152      0B8BF631 
ARM GAS  C:\Users\Thomas\AppData\Local\Temp\ccVAlhnd.s 			page 11


 152      9A4FA0D0 
 152      0A67AC04 
 152      A6
 153 0100 A100D360 		.ascii	"\241\000\323`\022\012\011<\007+\274\000+\031\303\002"
 153      120A093C 
 153      072BBC00 
 153      2B19C302 
 154 0110 D1C791ED 		.ascii	"\321\307\221\355\223\214\2110\005\022<\003\3123p\033"
 154      938C8930 
 154      05123C03 
 154      CA33701B 
 155 0120 5A8578D1 		.ascii	"Z\205x\321\336\366p\257(\012\370S\313\251\346\335\376"
 155      DEF670AF 
 155      280AF853 
 155      CBA9E6DD 
 155      FE
 156 0131 5477C685 		.ascii	"Tw\306\205\274\007(\300z[Y\256\010v\013L\240\354S\224"
 156      BC0728C0 
 156      7A5B59AE 
 156      08760B4C 
 156      A0EC5394 
 157 0145 25300B79 		.ascii	"%0\013y\370\234\0011&\020\231\211|\317\244\347\370\326"
 157      F89C0131 
 157      26109989 
 157      7CCFA4E7 
 157      F8D6
 158 0157 BE4DF507 		.ascii	"\276M\365\007\262l\303ld6\3323:L\007\331H\013;T\261"
 158      B26CC36C 
 158      6436DA33 
 158      3A4C07D9 
 158      480B3B54 
 159 016c 7D0D8297 		.ascii	"}\015\202\227\377\032 \332w\354D\375`C\360\315\333\327"
 159      FF1A20DA 
 159      77EC44FD 
 159      6043F0CD 
 159      DBD7
 160 017e ED943670 		.ascii	"\355\2246p\021\337\3079\027\327\030Y\0325\2553EU\317"
 160      11DFC739 
 160      17D71859 
 160      1A35AD33 
 160      4555CF
 161 0191 737CCE80 		.ascii	"s|\316\200\317%\360\000\307\273\332f\251\261_m+z\303"
 161      CF25F000 
 161      C7BBDA66 
 161      A9B15F6D 
 161      2B7AC3
 162 01a4 F3BCE1EA 		.ascii	"\363\274\341\352x\277\003k\207~3m\005^kf\342\303p6/"
 162      78BF036B 
 162      877E336D 
 162      055E6B66 
 162      E2C37036 
 163 01b9 F6E9EBAE 		.ascii	"\366\351\353\256\254\264\261?\252J9\001\013\206r\013"
 163      ACB4B13F 
 163      AA4A3901 
 163      0B86720B 
 164 01c9 8972415E 		.ascii	"\211rA^\356\376\374\340r6\355\217I|Y\364\365\213\261"
 164      EEFEFCE0 
ARM GAS  C:\Users\Thomas\AppData\Local\Temp\ccVAlhnd.s 			page 12


 164      7236ED8F 
 164      497C59F4 
 164      F58BB1
 165 01dc 7E1F8D27 		.ascii	"~\037\215'\372\325\004\026\015\002\213\011\201\020\027"
 165      FAD50416 
 165      0D028B09 
 165      811017
 166 01eb 600FEF8C 		.ascii	"`\017\357\214e\320\311\230\300\374\257\356P\266\204"
 166      65D0C998 
 166      C0FCAFEE 
 166      50B684
 167 01fa B7DA7A8C 		.ascii	"\267\332z\214[\3059\210\274\357\336\314\214\315A2\361"
 167      5BC53988 
 167      BCEFDECC 
 167      8CCD4132 
 167      F1
 168 020b EAC83938 		.ascii	"\352\31098\330\255hc\027`\005\017fI\237\203e\320\007"
 168      D8AD6863 
 168      1760050F 
 168      66499F83 
 168      65D007
 169 021e A1EBF3D0 		.ascii	"\241\353\363\320\206\331\334\255\015\027\036b\346z\016"
 169      86D9DCAD 
 169      0D171E62 
 169      E67A0E
 170 022d 4FD64F71 		.ascii	"O\326Oq\025\314|\007\370\336\027hx\"\274-\201U\262\372"
 170      15CC7C07 
 170      F8DE1768 
 170      7822BC2D 
 170      8155B2FA 
 171 0241 708A0F4E 		.ascii	"p\212\017N\201\202J\235\332\005D[\030\365\345$:\"|\201"
 171      81824A9D 
 171      DA05445B 
 171      18F5E524 
 171      3A227C81 
 172 0255 401865D6 		.ascii	"@\030e\326PF\313V\366T\365\226\032\263{\351<\201?\322"
 172      5046CB56 
 172      F654F596 
 172      1AB37BE9 
 172      3C813FD2 
 173 0269 9AEA1BBD 		.ascii	"\232\352\033\275%\246\362K\227m\245\344tQM\271\334("
 173      25A6F24B 
 173      976DA5E4 
 173      74514DB9 
 173      DC28
 174 027b 7B9C5EB9 		.ascii	"{\234^\271\326Q\345n\362\270\344\032{\225\273\264\270"
 174      D651E56E 
 174      F2B8E41A 
 174      7B95BBB4 
 174      B8
 175 028c C6D5EC6D 		.ascii	"\306\325\354m\276.\337(\272Jr\355g\035\245\327\334\256"
 175      BE2EDF28 
 175      BA4A72ED 
 175      671DA5D7 
 175      DCAE
 176 029e 0647B1E3 		.ascii	"\006G\261\343\212\247\336+\027\034\011\351\231E.\222"
 176      8AA7DE2B 
ARM GAS  C:\Users\Thomas\AppData\Local\Temp\ccVAlhnd.s 			page 13


 176      171C09E9 
 176      99452E92 
 177 02ae 67E0AA64 		.ascii	"g\340\252do\231\247\376\246|\321]+\2370\374\257\224"
 177      6F99A7FE 
 177      A67CD15D 
 177      2B9F30FC 
 177      AF94
 178 02c0 9DB596A4 		.ascii	"\235\265\226\244\270\314\351uV\312u\242G\256+\371\013"
 178      B8CCE975 
 178      56CA75A2 
 178      47AE2BF9 
 178      0B
 179 02d1 37E95051 		.ascii	"7\351PQ"
 180              		.text
 181              		.section	.gnu.lto_.symtab.b9499662,"",%progbits
 182 0000 50325F43 		.ascii	"P2_Clock_5_Write\000\000\000\000\000\000\000\000\000"
 182      6C6F636B 
 182      5F355F57 
 182      72697465 
 182      00000000 
 183 0019 000000B2 		.ascii	"\000\000\000\262\000\000\000P2_Clock_5_SetDriveMode"
 183      00000050 
 183      325F436C 
 183      6F636B5F 
 183      355F5365 
 184 0037 00000000 		.ascii	"\000\000\000\000\000\000\000\000\000\000\000\000\264"
 184      00000000 
 184      00000000 
 184      B4
 185 0044 00000050 		.ascii	"\000\000\000P2_Clock_5_Read\000\000\000\000\000\000"
 185      325F436C 
 185      6F636B5F 
 185      355F5265 
 185      61640000 
 186 005c 00000000 		.ascii	"\000\000\000\000\000\000\267\000\000\000P2_Clock_5_"
 186      0000B700 
 186      00005032 
 186      5F436C6F 
 186      636B5F35 
 187 0071 52656164 		.ascii	"ReadDataReg\000\000\000\000\000\000\000\000\000\000"
 187      44617461 
 187      52656700 
 187      00000000 
 187      00000000 
 188 0086 0000B900 		.ascii	"\000\000\271\000\000\000"
 188      0000
 189              		.text
 190              		.section	.gnu.lto_.opts,"",%progbits
 191 0000 272D666E 		.ascii	"'-fno-trapv' '-mcpu=cortex-m3' '-mthumb' '-g' '-O3'"
 191      6F2D7472 
 191      61707627 
 191      20272D6D 
 191      6370753D 
 192 0033 20272D66 		.ascii	" '-ffunction-sections' '-finline-functions' '-flto'"
 192      66756E63 
 192      74696F6E 
 192      2D736563 
ARM GAS  C:\Users\Thomas\AppData\Local\Temp\ccVAlhnd.s 			page 14


 192      74696F6E 
 193 0066 20272D66 		.ascii	" '-ffat-lto-objects'\000"
 193      6661742D 
 193      6C746F2D 
 193      6F626A65 
 193      63747327 
 194              		.text
 195              		.cfi_sections	.debug_frame
 196              		.section	.text.P2_Clock_5_Write,"ax",%progbits
 197              		.align	2
 198              		.global	P2_Clock_5_Write
 199              		.thumb
 200              		.thumb_func
 201              		.type	P2_Clock_5_Write, %function
 202              	P2_Clock_5_Write:
 203              	.LFB0:
 204              		.file 1 ".\\Generated_Source\\PSoC5\\P2_Clock_5.c"
   1:.\Generated_Source\PSoC5/P2_Clock_5.c **** /*******************************************************************************
   2:.\Generated_Source\PSoC5/P2_Clock_5.c **** * File Name: P2_Clock_5.c  
   3:.\Generated_Source\PSoC5/P2_Clock_5.c **** * Version 2.20
   4:.\Generated_Source\PSoC5/P2_Clock_5.c **** *
   5:.\Generated_Source\PSoC5/P2_Clock_5.c **** * Description:
   6:.\Generated_Source\PSoC5/P2_Clock_5.c **** *  This file contains API to enable firmware control of a Pins component.
   7:.\Generated_Source\PSoC5/P2_Clock_5.c **** *
   8:.\Generated_Source\PSoC5/P2_Clock_5.c **** * Note:
   9:.\Generated_Source\PSoC5/P2_Clock_5.c **** *
  10:.\Generated_Source\PSoC5/P2_Clock_5.c **** ********************************************************************************
  11:.\Generated_Source\PSoC5/P2_Clock_5.c **** * Copyright 2008-2015, Cypress Semiconductor Corporation.  All rights reserved.
  12:.\Generated_Source\PSoC5/P2_Clock_5.c **** * You may use this file only in accordance with the license, terms, conditions, 
  13:.\Generated_Source\PSoC5/P2_Clock_5.c **** * disclaimers, and limitations in the end user license agreement accompanying 
  14:.\Generated_Source\PSoC5/P2_Clock_5.c **** * the software package with which this file was provided.
  15:.\Generated_Source\PSoC5/P2_Clock_5.c **** *******************************************************************************/
  16:.\Generated_Source\PSoC5/P2_Clock_5.c **** 
  17:.\Generated_Source\PSoC5/P2_Clock_5.c **** #include "cytypes.h"
  18:.\Generated_Source\PSoC5/P2_Clock_5.c **** #include "P2_Clock_5.h"
  19:.\Generated_Source\PSoC5/P2_Clock_5.c **** 
  20:.\Generated_Source\PSoC5/P2_Clock_5.c **** /* APIs are not generated for P15[7:6] on PSoC 5 */
  21:.\Generated_Source\PSoC5/P2_Clock_5.c **** #if !(CY_PSOC5A &&\
  22:.\Generated_Source\PSoC5/P2_Clock_5.c **** 	 P2_Clock_5__PORT == 15 && ((P2_Clock_5__MASK & 0xC0) != 0))
  23:.\Generated_Source\PSoC5/P2_Clock_5.c **** 
  24:.\Generated_Source\PSoC5/P2_Clock_5.c **** 
  25:.\Generated_Source\PSoC5/P2_Clock_5.c **** /*******************************************************************************
  26:.\Generated_Source\PSoC5/P2_Clock_5.c **** * Function Name: P2_Clock_5_Write
  27:.\Generated_Source\PSoC5/P2_Clock_5.c **** ****************************************************************************//**
  28:.\Generated_Source\PSoC5/P2_Clock_5.c **** *
  29:.\Generated_Source\PSoC5/P2_Clock_5.c **** * \brief Writes the value to the physical port (data output register), masking
  30:.\Generated_Source\PSoC5/P2_Clock_5.c **** *  and shifting the bits appropriately. 
  31:.\Generated_Source\PSoC5/P2_Clock_5.c **** *
  32:.\Generated_Source\PSoC5/P2_Clock_5.c **** * The data output register controls the signal applied to the physical pin in 
  33:.\Generated_Source\PSoC5/P2_Clock_5.c **** * conjunction with the drive mode parameter. This function avoids changing 
  34:.\Generated_Source\PSoC5/P2_Clock_5.c **** * other bits in the port by using the appropriate method (read-modify-write or
  35:.\Generated_Source\PSoC5/P2_Clock_5.c **** * bit banding).
  36:.\Generated_Source\PSoC5/P2_Clock_5.c **** *
  37:.\Generated_Source\PSoC5/P2_Clock_5.c **** * <b>Note</b> This function should not be used on a hardware digital output pin 
  38:.\Generated_Source\PSoC5/P2_Clock_5.c **** * as it is driven by the hardware signal attached to it.
  39:.\Generated_Source\PSoC5/P2_Clock_5.c **** *
  40:.\Generated_Source\PSoC5/P2_Clock_5.c **** * \param value
ARM GAS  C:\Users\Thomas\AppData\Local\Temp\ccVAlhnd.s 			page 15


  41:.\Generated_Source\PSoC5/P2_Clock_5.c **** *  Value to write to the component instance.
  42:.\Generated_Source\PSoC5/P2_Clock_5.c **** *
  43:.\Generated_Source\PSoC5/P2_Clock_5.c **** * \return 
  44:.\Generated_Source\PSoC5/P2_Clock_5.c **** *  None 
  45:.\Generated_Source\PSoC5/P2_Clock_5.c **** *
  46:.\Generated_Source\PSoC5/P2_Clock_5.c **** * \sideeffect
  47:.\Generated_Source\PSoC5/P2_Clock_5.c **** *  If you use read-modify-write operations that are not atomic; the Interrupt 
  48:.\Generated_Source\PSoC5/P2_Clock_5.c **** *  Service Routines (ISR) can cause corruption of this function. An ISR that 
  49:.\Generated_Source\PSoC5/P2_Clock_5.c **** *  interrupts this function and performs writes to the Pins component data 
  50:.\Generated_Source\PSoC5/P2_Clock_5.c **** *  register can cause corrupted port data. To avoid this issue, you should 
  51:.\Generated_Source\PSoC5/P2_Clock_5.c **** *  either use the Per-Pin APIs (primary method) or disable interrupts around 
  52:.\Generated_Source\PSoC5/P2_Clock_5.c **** *  this function.
  53:.\Generated_Source\PSoC5/P2_Clock_5.c **** *
  54:.\Generated_Source\PSoC5/P2_Clock_5.c **** * \funcusage
  55:.\Generated_Source\PSoC5/P2_Clock_5.c **** *  \snippet P2_Clock_5_SUT.c usage_P2_Clock_5_Write
  56:.\Generated_Source\PSoC5/P2_Clock_5.c **** *******************************************************************************/
  57:.\Generated_Source\PSoC5/P2_Clock_5.c **** void P2_Clock_5_Write(uint8 value)
  58:.\Generated_Source\PSoC5/P2_Clock_5.c **** {
 205              		.loc 1 58 0
 206              		.cfi_startproc
 207              		@ args = 0, pretend = 0, frame = 0
 208              		@ frame_needed = 0, uses_anonymous_args = 0
 209              		@ link register save eliminated.
 210              	.LVL0:
  59:.\Generated_Source\PSoC5/P2_Clock_5.c ****     uint8 staticBits = (P2_Clock_5_DR & (uint8)(~P2_Clock_5_MASK));
 211              		.loc 1 59 0
 212 0000 044A     		ldr	r2, .L2
  60:.\Generated_Source\PSoC5/P2_Clock_5.c ****     P2_Clock_5_DR = staticBits | ((uint8)(value << P2_Clock_5_SHIFT) & P2_Clock_5_MASK);
 213              		.loc 1 60 0
 214 0002 C000     		lsls	r0, r0, #3
 215              	.LVL1:
  59:.\Generated_Source\PSoC5/P2_Clock_5.c ****     uint8 staticBits = (P2_Clock_5_DR & (uint8)(~P2_Clock_5_MASK));
 216              		.loc 1 59 0
 217 0004 1378     		ldrb	r3, [r2]	@ zero_extendqisi2
 218              	.LVL2:
 219              		.loc 1 60 0
 220 0006 00F00800 		and	r0, r0, #8
  59:.\Generated_Source\PSoC5/P2_Clock_5.c ****     uint8 staticBits = (P2_Clock_5_DR & (uint8)(~P2_Clock_5_MASK));
 221              		.loc 1 59 0
 222 000a 03F0F703 		and	r3, r3, #247
 223              	.LVL3:
 224              		.loc 1 60 0
 225 000e 1843     		orrs	r0, r0, r3
 226 0010 1070     		strb	r0, [r2]
 227 0012 7047     		bx	lr
 228              	.L3:
 229              		.align	2
 230              	.L2:
 231 0014 F0510040 		.word	1073762800
 232              		.cfi_endproc
 233              	.LFE0:
 234              		.size	P2_Clock_5_Write, .-P2_Clock_5_Write
 235              		.section	.text.P2_Clock_5_SetDriveMode,"ax",%progbits
 236              		.align	2
 237              		.global	P2_Clock_5_SetDriveMode
 238              		.thumb
 239              		.thumb_func
ARM GAS  C:\Users\Thomas\AppData\Local\Temp\ccVAlhnd.s 			page 16


 240              		.type	P2_Clock_5_SetDriveMode, %function
 241              	P2_Clock_5_SetDriveMode:
 242              	.LFB1:
  61:.\Generated_Source\PSoC5/P2_Clock_5.c **** }
  62:.\Generated_Source\PSoC5/P2_Clock_5.c **** 
  63:.\Generated_Source\PSoC5/P2_Clock_5.c **** 
  64:.\Generated_Source\PSoC5/P2_Clock_5.c **** /*******************************************************************************
  65:.\Generated_Source\PSoC5/P2_Clock_5.c **** * Function Name: P2_Clock_5_SetDriveMode
  66:.\Generated_Source\PSoC5/P2_Clock_5.c **** ****************************************************************************//**
  67:.\Generated_Source\PSoC5/P2_Clock_5.c **** *
  68:.\Generated_Source\PSoC5/P2_Clock_5.c **** * \brief Sets the drive mode for each of the Pins component's pins.
  69:.\Generated_Source\PSoC5/P2_Clock_5.c **** * 
  70:.\Generated_Source\PSoC5/P2_Clock_5.c **** * <b>Note</b> This affects all pins in the Pins component instance. Use the
  71:.\Generated_Source\PSoC5/P2_Clock_5.c **** * Per-Pin APIs if you wish to control individual pin's drive modes.
  72:.\Generated_Source\PSoC5/P2_Clock_5.c **** *
  73:.\Generated_Source\PSoC5/P2_Clock_5.c **** * \param mode
  74:.\Generated_Source\PSoC5/P2_Clock_5.c **** *  Mode for the selected signals. Valid options are documented in 
  75:.\Generated_Source\PSoC5/P2_Clock_5.c **** *  \ref driveMode.
  76:.\Generated_Source\PSoC5/P2_Clock_5.c **** *
  77:.\Generated_Source\PSoC5/P2_Clock_5.c **** * \return
  78:.\Generated_Source\PSoC5/P2_Clock_5.c **** *  None
  79:.\Generated_Source\PSoC5/P2_Clock_5.c **** *
  80:.\Generated_Source\PSoC5/P2_Clock_5.c **** * \sideeffect
  81:.\Generated_Source\PSoC5/P2_Clock_5.c **** *  If you use read-modify-write operations that are not atomic, the ISR can
  82:.\Generated_Source\PSoC5/P2_Clock_5.c **** *  cause corruption of this function. An ISR that interrupts this function 
  83:.\Generated_Source\PSoC5/P2_Clock_5.c **** *  and performs writes to the Pins component Drive Mode registers can cause 
  84:.\Generated_Source\PSoC5/P2_Clock_5.c **** *  corrupted port data. To avoid this issue, you should either use the Per-Pin
  85:.\Generated_Source\PSoC5/P2_Clock_5.c **** *  APIs (primary method) or disable interrupts around this function.
  86:.\Generated_Source\PSoC5/P2_Clock_5.c **** *
  87:.\Generated_Source\PSoC5/P2_Clock_5.c **** * \funcusage
  88:.\Generated_Source\PSoC5/P2_Clock_5.c **** *  \snippet P2_Clock_5_SUT.c usage_P2_Clock_5_SetDriveMode
  89:.\Generated_Source\PSoC5/P2_Clock_5.c **** *******************************************************************************/
  90:.\Generated_Source\PSoC5/P2_Clock_5.c **** void P2_Clock_5_SetDriveMode(uint8 mode)
  91:.\Generated_Source\PSoC5/P2_Clock_5.c **** {
 243              		.loc 1 91 0
 244              		.cfi_startproc
 245              		@ args = 0, pretend = 0, frame = 0
 246              		@ frame_needed = 0, uses_anonymous_args = 0
 247              		@ link register save eliminated.
 248              	.LVL4:
  92:.\Generated_Source\PSoC5/P2_Clock_5.c **** 	CyPins_SetPinDriveMode(P2_Clock_5_0, mode);
 249              		.loc 1 92 0
 250 0000 044A     		ldr	r2, .L5
 251 0002 00F00E00 		and	r0, r0, #14
 252              	.LVL5:
 253 0006 1378     		ldrb	r3, [r2]	@ zero_extendqisi2
 254 0008 03F0F103 		and	r3, r3, #241
 255 000c 1843     		orrs	r0, r0, r3
 256 000e 1070     		strb	r0, [r2]
 257 0010 7047     		bx	lr
 258              	.L6:
 259 0012 00BF     		.align	2
 260              	.L5:
 261 0014 7B500040 		.word	1073762427
 262              		.cfi_endproc
 263              	.LFE1:
 264              		.size	P2_Clock_5_SetDriveMode, .-P2_Clock_5_SetDriveMode
ARM GAS  C:\Users\Thomas\AppData\Local\Temp\ccVAlhnd.s 			page 17


 265              		.section	.text.P2_Clock_5_Read,"ax",%progbits
 266              		.align	2
 267              		.global	P2_Clock_5_Read
 268              		.thumb
 269              		.thumb_func
 270              		.type	P2_Clock_5_Read, %function
 271              	P2_Clock_5_Read:
 272              	.LFB2:
  93:.\Generated_Source\PSoC5/P2_Clock_5.c **** }
  94:.\Generated_Source\PSoC5/P2_Clock_5.c **** 
  95:.\Generated_Source\PSoC5/P2_Clock_5.c **** 
  96:.\Generated_Source\PSoC5/P2_Clock_5.c **** /*******************************************************************************
  97:.\Generated_Source\PSoC5/P2_Clock_5.c **** * Function Name: P2_Clock_5_Read
  98:.\Generated_Source\PSoC5/P2_Clock_5.c **** ****************************************************************************//**
  99:.\Generated_Source\PSoC5/P2_Clock_5.c **** *
 100:.\Generated_Source\PSoC5/P2_Clock_5.c **** * \brief Reads the associated physical port (pin status register) and masks 
 101:.\Generated_Source\PSoC5/P2_Clock_5.c **** *  the required bits according to the width and bit position of the component
 102:.\Generated_Source\PSoC5/P2_Clock_5.c **** *  instance. 
 103:.\Generated_Source\PSoC5/P2_Clock_5.c **** *
 104:.\Generated_Source\PSoC5/P2_Clock_5.c **** * The pin's status register returns the current logic level present on the 
 105:.\Generated_Source\PSoC5/P2_Clock_5.c **** * physical pin.
 106:.\Generated_Source\PSoC5/P2_Clock_5.c **** *
 107:.\Generated_Source\PSoC5/P2_Clock_5.c **** * \return 
 108:.\Generated_Source\PSoC5/P2_Clock_5.c **** *  The current value for the pins in the component as a right justified number.
 109:.\Generated_Source\PSoC5/P2_Clock_5.c **** *
 110:.\Generated_Source\PSoC5/P2_Clock_5.c **** * \funcusage
 111:.\Generated_Source\PSoC5/P2_Clock_5.c **** *  \snippet P2_Clock_5_SUT.c usage_P2_Clock_5_Read  
 112:.\Generated_Source\PSoC5/P2_Clock_5.c **** *******************************************************************************/
 113:.\Generated_Source\PSoC5/P2_Clock_5.c **** uint8 P2_Clock_5_Read(void)
 114:.\Generated_Source\PSoC5/P2_Clock_5.c **** {
 273              		.loc 1 114 0
 274              		.cfi_startproc
 275              		@ args = 0, pretend = 0, frame = 0
 276              		@ frame_needed = 0, uses_anonymous_args = 0
 277              		@ link register save eliminated.
 115:.\Generated_Source\PSoC5/P2_Clock_5.c ****     return (P2_Clock_5_PS & P2_Clock_5_MASK) >> P2_Clock_5_SHIFT;
 278              		.loc 1 115 0
 279 0000 024B     		ldr	r3, .L8
 280 0002 1878     		ldrb	r0, [r3]	@ zero_extendqisi2
 116:.\Generated_Source\PSoC5/P2_Clock_5.c **** }
 281              		.loc 1 116 0
 282 0004 C0F3C000 		ubfx	r0, r0, #3, #1
 283 0008 7047     		bx	lr
 284              	.L9:
 285 000a 00BF     		.align	2
 286              	.L8:
 287 000c F1510040 		.word	1073762801
 288              		.cfi_endproc
 289              	.LFE2:
 290              		.size	P2_Clock_5_Read, .-P2_Clock_5_Read
 291              		.section	.text.P2_Clock_5_ReadDataReg,"ax",%progbits
 292              		.align	2
 293              		.global	P2_Clock_5_ReadDataReg
 294              		.thumb
 295              		.thumb_func
 296              		.type	P2_Clock_5_ReadDataReg, %function
 297              	P2_Clock_5_ReadDataReg:
ARM GAS  C:\Users\Thomas\AppData\Local\Temp\ccVAlhnd.s 			page 18


 298              	.LFB3:
 117:.\Generated_Source\PSoC5/P2_Clock_5.c **** 
 118:.\Generated_Source\PSoC5/P2_Clock_5.c **** 
 119:.\Generated_Source\PSoC5/P2_Clock_5.c **** /*******************************************************************************
 120:.\Generated_Source\PSoC5/P2_Clock_5.c **** * Function Name: P2_Clock_5_ReadDataReg
 121:.\Generated_Source\PSoC5/P2_Clock_5.c **** ****************************************************************************//**
 122:.\Generated_Source\PSoC5/P2_Clock_5.c **** *
 123:.\Generated_Source\PSoC5/P2_Clock_5.c **** * \brief Reads the associated physical port's data output register and masks 
 124:.\Generated_Source\PSoC5/P2_Clock_5.c **** *  the correct bits according to the width and bit position of the component 
 125:.\Generated_Source\PSoC5/P2_Clock_5.c **** *  instance. 
 126:.\Generated_Source\PSoC5/P2_Clock_5.c **** *
 127:.\Generated_Source\PSoC5/P2_Clock_5.c **** * The data output register controls the signal applied to the physical pin in 
 128:.\Generated_Source\PSoC5/P2_Clock_5.c **** * conjunction with the drive mode parameter. This is not the same as the 
 129:.\Generated_Source\PSoC5/P2_Clock_5.c **** * preferred P2_Clock_5_Read() API because the 
 130:.\Generated_Source\PSoC5/P2_Clock_5.c **** * P2_Clock_5_ReadDataReg() reads the data register instead of the status 
 131:.\Generated_Source\PSoC5/P2_Clock_5.c **** * register. For output pins this is a useful function to determine the value 
 132:.\Generated_Source\PSoC5/P2_Clock_5.c **** * just written to the pin.
 133:.\Generated_Source\PSoC5/P2_Clock_5.c **** *
 134:.\Generated_Source\PSoC5/P2_Clock_5.c **** * \return 
 135:.\Generated_Source\PSoC5/P2_Clock_5.c **** *  The current value of the data register masked and shifted into a right 
 136:.\Generated_Source\PSoC5/P2_Clock_5.c **** *  justified number for the component instance.
 137:.\Generated_Source\PSoC5/P2_Clock_5.c **** *
 138:.\Generated_Source\PSoC5/P2_Clock_5.c **** * \funcusage
 139:.\Generated_Source\PSoC5/P2_Clock_5.c **** *  \snippet P2_Clock_5_SUT.c usage_P2_Clock_5_ReadDataReg 
 140:.\Generated_Source\PSoC5/P2_Clock_5.c **** *******************************************************************************/
 141:.\Generated_Source\PSoC5/P2_Clock_5.c **** uint8 P2_Clock_5_ReadDataReg(void)
 142:.\Generated_Source\PSoC5/P2_Clock_5.c **** {
 299              		.loc 1 142 0
 300              		.cfi_startproc
 301              		@ args = 0, pretend = 0, frame = 0
 302              		@ frame_needed = 0, uses_anonymous_args = 0
 303              		@ link register save eliminated.
 143:.\Generated_Source\PSoC5/P2_Clock_5.c ****     return (P2_Clock_5_DR & P2_Clock_5_MASK) >> P2_Clock_5_SHIFT;
 304              		.loc 1 143 0
 305 0000 024B     		ldr	r3, .L11
 306 0002 1878     		ldrb	r0, [r3]	@ zero_extendqisi2
 144:.\Generated_Source\PSoC5/P2_Clock_5.c **** }
 307              		.loc 1 144 0
 308 0004 C0F3C000 		ubfx	r0, r0, #3, #1
 309 0008 7047     		bx	lr
 310              	.L12:
 311 000a 00BF     		.align	2
 312              	.L11:
 313 000c F0510040 		.word	1073762800
 314              		.cfi_endproc
 315              	.LFE3:
 316              		.size	P2_Clock_5_ReadDataReg, .-P2_Clock_5_ReadDataReg
 317              		.text
 318              	.Letext0:
 319              		.file 2 ".\\Generated_Source\\PSoC5\\cytypes.h"