ARM GAS  C:\Users\Thomas\AppData\Local\Temp\ccdV6lzM.s 			page 1


   1              		.syntax unified
   2              		.cpu cortex-m3
   3              		.fpu softvfp
   4              		.eabi_attribute 20, 1
   5              		.eabi_attribute 21, 1
   6              		.eabi_attribute 23, 3
   7              		.eabi_attribute 24, 1
   8              		.eabi_attribute 25, 1
   9              		.eabi_attribute 26, 1
  10              		.eabi_attribute 30, 2
  11              		.eabi_attribute 34, 1
  12              		.eabi_attribute 18, 4
  13              		.thumb
  14              		.file	"P2_D1.c"
  15              		.text
  16              	.Ltext0:
  17              		.section	.gnu.lto_.profile.c0d6a61a,"",%progbits
  18 0000 789C6366 		.ascii	"x\234cf```a\200\000F\006IQ\000\000\273\0007"
  18      60606061 
  18      80004606 
  18      49510000 
  18      BB0037
  19              		.text
  20              		.section	.gnu.lto_.jmpfuncs.c0d6a61a,"",%progbits
  21 0000 789C6366 		.ascii	"x\234cf\300\016\204\2404\013\003##c=#\210`b``\006\212"
  21      C00E84A0 
  21      340B0323 
  21      23633D23 
  21      88606260 
  22 0017 00000DC0 		.ascii	"\000\000\015\300\001$"
  22      0124
  23              		.text
  24              		.section	.gnu.lto_.inline.c0d6a61a,"",%progbits
  25 0000 789C6366 		.ascii	"x\234cf\300\016\022\2404\013\003\003'\007##\003#\003"
  25      C00E12A0 
  25      340B0303 
  25      27072323 
  25      032303
  26 0013 0333C701 		.ascii	"\0033\307\001;\006\266\005\362L\014,\013\344Y@\222\214"
  26      3B06B605 
  26      F24C0C2C 
  26      0BE45940 
  26      928C
  27 0025 0C1CECE8 		.ascii	"\014\034\354\350rL\027\370\301rL\014l\254\214\014Ll"
  27      724C17F8 
  27      C1724C0C 
  27      6CAC8C0C 
  27      4C6C
  28 0037 1FF420E2 		.ascii	"\037\364 \342@\300\214)\304\000\000\333l\011\322"
  28      40C08C29 
  28      C40000DB 
  28      6C09D2
  29              		.text
  30              		.section	.gnu.lto_.pureconst.c0d6a61a,"",%progbits
  31 0000 789C6366 		.ascii	"x\234cf``\340d\200\000\026\006)F)&)f)\000\002\305\000"
  31      6060E064 
  31      80001606 
ARM GAS  C:\Users\Thomas\AppData\Local\Temp\ccdV6lzM.s 			page 2


  31      29462926 
  31      29662900 
  32 0017 7F       		.ascii	"\177"
  33              		.text
  34              		.section	.gnu.lto_P2_D1_Write.c0d6a61a,"",%progbits
  35 0000 789C6591 		.ascii	"x\234e\221MHTQ\030\206\277\367\234\373\243\031!-g\027"
  35      4D485451 
  35      1886BFF7 
  35      9CFBA319 
  35      212D6717 
  36 0014 26968450 		.ascii	"&\226\204P\324>Lh;\340v@\206\351.\204H\320\261\255\347"
  36      D43E4C68 
  36      3BE07640 
  36      86E92E84 
  36      48D0B1AD 
  37 0029 D6388B20 		.ascii	"\3268\213 \220!p \204DJmJMA\"\020n\"\021D\212\033\005"
  37      90217020 
  37      84444A6D 
  37      4A4D4122 
  37      106E2211 
  38 0041 9DAC60FA 		.ascii	"\235\254`\372\335\3300\222\177\345\364}\367\272H\274"
  38      DDD83092 
  38      7FE5F47D 
  38      F7BA48BC 
  39 0051 707EEEC7 		.ascii	"p~\356\307\363\276\347=\337\321t\374\213\3618\247\210"
  39      F3BEE73D 
  39      DFD174FC 
  39      8BF138A7 
  39      88
  40 0062 2EF30A4D 		.ascii	".\363\012MP\003\213D~\215\002dC\240>\205>\374Pe\205"
  40      50038B44 
  40      7E8D0264 
  40      43A03E85 
  40      3EFC5065 
  41 0077 81A090AF 		.ascii	"\201\240\220\257kzl\214\371\225[\362\343\001vYWQ\221"
  41      6B7A6C8C 
  41      F9955BF2 
  41      E3017659 
  41      575191
  42 008a 0F46D1C4 		.ascii	"\017F\321\304L\245`\036h}\026\304\373\251\345\367\007"
  42      4CA5601E 
  42      687D16C4 
  42      FBA9E5F7 
  42      07
  43 009b 6EE38831 		.ascii	"n\343\2101w\202\227\023\346*\343\300\0304+p!\206\363"
  43      77829713 
  43      E62AE3C0 
  43      18342B70 
  43      2186F3
  44 00ae 31E20261 		.ascii	"1\342\002a\034\215\002O\337_\230U\2729\024\016\277\373"
  44      1C8D024F 
  44      DF5F9855 
  44      BA39140E 
  44      BFFB
  45 00c0 BC70B261 		.ascii	"\274p\262a\230\205\237\366g\023\201\377\310\034T\253"
  45      98859FF6 
  45      671381FF 
ARM GAS  C:\Users\Thomas\AppData\Local\Temp\ccdV6lzM.s 			page 3


  45      C81C54AB 
  46 00d0 A1FCE9FF 		.ascii	"\241\374\351\377\362\350c\276\234\371\273Z\347d8X=\012"
  46      F2E863BE 
  46      9CF9BB5A 
  46      E7643858 
  46      3D0A
  47 00e2 688832E1 		.ascii	"h\2102\341\031\034\360\"\225\311\323\201\251Vg\346^"
  47      191CF022 
  47      95C9D381 
  47      A95667E6 
  47      5E
  48 00f3 EFA156F1 		.ascii	"\357\241V\361\261\212/\312e\013r\272-\005G&W&\242\022"
  48      B18A2FCA 
  48      650B72BA 
  48      2D054726 
  48      5726A212 
  49 0107 0FB9FC17 		.ascii	"\017\271\374\027\376\341U\257a\376\367\275\215AW\034"
  49      FEE155AF 
  49      61FEF7BD 
  49      8D41571C 
  50 0117 B79574A2 		.ascii	"\267\225t\242\234}3\247\277\253]\245\203\021\337X\222"
  50      9C7D33A7 
  50      BFAB5DA5 
  50      8311DF58 
  50      92
  51 0128 E1636969 		.ascii	"\341cii\271&,\205\221*\353\305?\356\020\036\372\031"
  51      B9262C85 
  51      912AEBC5 
  51      3FEE101E 
  51      FA19
  52 013a CE6DE139 		.ascii	"\316m\3419b\230\000G\306$\206@k\270\273\223-\"2\324"
  52      62980047 
  52      C6248640 
  52      6BB8BB93 
  52      2D2232D4 
  53 014e 91E7F862 		.ascii	"\221\347\370b\376\347)1\300&we\212\341\025\250\360\022"
  53      FEE72931 
  53      C0267765 
  53      8AE115A8 
  53      F012
  54 0160 9C942911 		.ascii	"\234\224)\021\025\263_\277\035\306\260\267\225\305\252"
  54      15B35FBF 
  54      1DC6B0B7 
  54      95C5AA
  55 016f 57B9B779 		.ascii	"W\271\267yGT\312\"\274`Qh\275uh-\034CO>\364\357\325"
  55      4754CA22 
  55      BC605168 
  55      BD75682D 
  55      1C434F3E 
  56 0186 0A64D513 		.ascii	"\012d\325\023\246#h\313\211\0207\244\304}>\027\252\216"
  56      A62368CB 
  56      891037A4 
  56      C47D3E17 
  56      AA8E
  57 0198 84F703FB 		.ascii	"\204\367\003\373h\374\031\216\317\"\332\200\037\354"
  57      68FC198E 
  57      CF22DA80 
ARM GAS  C:\Users\Thomas\AppData\Local\Temp\ccdV6lzM.s 			page 4


  57      1FEC
  58 01a6 DBC2CB1B 		.ascii	"\333\302\313\033\224\370!\271S\334\2673-\211\353\336"
  58      94F821B9 
  58      53DCB733 
  58      2D89EBDE 
  59 01b6 2DAF3B99 		.ascii	"-\257;\231\366nt\264w\365v\247\274D\274\275\353\332"
  59      F66E74B4 
  59      77F576A7 
  59      BC44BCBD 
  59      EBDA
  60 01c8 9544FC52 		.ascii	"\225D\374RG\333\305\226\024\331\267\2237{\275\023=\351"
  60      47DBC596 
  60      14D9B793 
  60      377BBD13 
  60      3DE9
  61 01da 64BA33D5 		.ascii	"d\2723\325\332\231\356\371\007\025 \316\237"
  61      DA99EEF9 
  61      071520CE 
  61      9F
  62              		.text
  63              		.section	.gnu.lto_P2_D1_SetDriveMode.c0d6a61a,"",%progbits
  64 0000 789C7D51 		.ascii	"x\234}Q;H\003A\020\235\267{\371H\360\203\225\244\023"
  64      3B480341 
  64      109DB77B 
  64      F948F083 
  64      95A413
  65 0013 14154451 		.ascii	"\024\025DQ\260\027\024m\205\264\201 \311\225\032\020"
  65      B017146D 
  65      85B48120 
  65      C9951A10 
  66 0023 AD73D1D8 		.ascii	"\255s\321\330\010\242\261\022B@\024\361\223\237`a\247"
  66      08A2B112 
  66      424014F1 
  66      939F6061 
  66      A7
  67 0034 21D8094A 		.ascii	"!\330\011JlD\305\330\304O\004\305\240\250A$\316^R\004"
  67      6C44C5D8 
  67      C44F04C5 
  67      A0A84124 
  67      CE5E5204 
  68 0048 0497DBD9 		.ascii	"\004\227\333\331y\303{\357fg%\375]N\336O \352\344\023"
  68      79C37BEF 
  68      666725FD 
  68      5D4EDE4F 
  68      20EAE413 
  69 005c 9220964F 		.ascii	"\222 \226O\211\202v\001\250\204@\001\201\000\012\242"
  69      89827601 
  69      A8844001 
  69      81000AA2 
  70 006c 28B09C8E 		.ascii	"(\260\234\216\255::6\015\303x]?h\231o)\011\2427Q\261"
  70      AD3A3A36 
  70      0DC3785D 
  70      3F68996F 
  70      2909A237 
  71 0082 C1163A98 		.ascii	"\301\026:\230\362P*l\325\3136\020\347?\341\213s\321"
  71      F2502A6C 
  71      D5CB3610 
ARM GAS  C:\Users\Thomas\AppData\Local\Temp\ccdV6lzM.s 			page 5


  71      E73FE18B 
  71      73D1
  72 0094 BE6118B3 		.ascii	"\276a\030\263\351\243\2441\210\022{nC\262\002\335Nt"
  72      E9A3A431 
  72      88127B6E 
  72      43B202DD 
  72      4E74
  73 00a6 39890B84 		.ascii	"9\211\013\204\035\264+r1\364s\341\260\206\330\273\251"
  73      1DB42B72 
  73      31F473E1 
  73      B086D8BB 
  73      A9
  74 00b7 E2895D58 		.ascii	"\342\211]X\271-J5\247\215r\371\355&\274\335\013\207"
  74      B92D4A35 
  74      A78D72F9 
  74      ED26BCDD 
  74      0B87
  75 00c9 608D901C 		.ascii	"`\215\220\034\244\246\202\005JnU\251M\005\273\012u\212"
  75      A4A68205 
  75      4A6E55A9 
  75      4D05BB0A 
  75      758A
  76 00db 4394E7AD 		.ascii	"C\224\347\255np\307\200Oy\205\314\307\302}DS\276\237"
  76      6E70C780 
  76      4F7985CC 
  76      C7C27D44 
  76      53BE9F
  77 00ee 425D6729 		.ascii	"B]g)~\235h|\024%\241\345\327\202\206\246\272\270\315"
  77      7E9D687C 
  77      1425A1E5 
  77      D78286A6 
  77      BAB8CD
  78 0101 9F65ED66 		.ascii	"\237e\355f\211\024<\274^<o\210\"\022\014q\363\026\304"
  78      89143CBC 
  78      5E3C6F88 
  78      22120C71 
  78      F316C4
  79 0114 E0441C3C 		.ascii	"\340D\034<0$\020\005]a6g\253\330Ivd<\367e\255`\215K"
  79      30241005 
  79      5D613667 
  79      ABD84976 
  79      643CF765 
  80 012c ACBF7C79 		.ascii	"\254\277|y=1\355d\261\\]<\313$[\324h\371\263\324jm\\"
  80      3D31ED64 
  80      B15C5D3C 
  80      CB245BD4 
  80      68F9B3D4 
  81 0143 626D76FF 		.ascii	"bmv\377\371\330bj\033\010)S2\367^\245\330\315?\330j"
  81      F9D8626A 
  81      1B082953 
  81      32F75EA5 
  81      D8CD3FD8 
  82 0158 5DEAB8CA 		.ascii	"]\352\270\3128\263\002\205\377\353}\217{g>\345\020L"
  82      38B30285 
  82      FFEB7D8F 
  82      7B673EE5 
  82      104C
ARM GAS  C:\Users\Thomas\AppData\Local\Temp\ccdV6lzM.s 			page 6


  83 016a 7F8F28B6 		.ascii	"\177\217(\266z\277<\277\005\217\211\207\326\332\343"
  83      7ABF3CBF 
  83      058F8987 
  83      D6DAE3
  84 0179 1ED527F5 		.ascii	"\036\325'\365\251\361i\335\347q\371g\246\274\272{\314"
  84      A9F169DD 
  84      E771F967 
  84      A6BCBA7B 
  84      CC
  85 018a E51F1A70 		.ascii	"\345\037\032p\217\365{\206\373z\274\244M\370}\372/\345"
  85      8FF57B86 
  85      FB7ABCA4 
  85      4DF87DFA 
  85      2FE5
  86 019c 1AB753   		.ascii	"\032\267S"
  87              		.text
  88              		.section	.gnu.lto_P2_D1_Read.c0d6a61a,"",%progbits
  89 0000 789C654F 		.ascii	"x\234eO=H\202Q\024\275\347~?\0126HS\270E\203\004\"\024"
  89      3D488251 
  89      14BDE77E 
  89      3F0A3648 
  89      53B84583 
  90 0017 B4D458D0 		.ascii	"\264\324X\320*\271\012\022\346\232 5\373if\341T\016"
  90      2AB90A12 
  90      E69A2035 
  90      FB6966E1 
  90      540E
  91 0029 11842D11 		.ascii	"\021\204-\021\375\323\320T \364\263\004E\021\015\205"
  91      FDD3D054 
  91      20F4B304 
  91      45110D85 
  92 0039 844119D4 		.ascii	"\204A\031\324\226\330\217\037Tv\237_[\017\336\271\357"
  92      96D88F1F 
  92      54769F5F 
  92      5B0FDEB9 
  92      EF
  93 004a DE7BEE39 		.ascii	"\336{\3569\357j\364\377\370\344\216\200\250K\"4\002"
  93      EF6AF4FF 
  93      F8E48E80 
  93      A84B2234 
  93      02
  94 005b CF5D10A5 		.ascii	"\317]\020\245\335\014\250\007\201R\214\024^\270\306"
  94      DD0CA807 
  94      81528C14 
  94      5EB8C6
  95 006a 38DFFFB9 		.ascii	"8\337\377\271\206\177\325\2622\257\205\322\235g\272"
  95      867FD5B2 
  95      32AF85D2 
  95      9D67BA
  96 0079 C366A23A 		.ascii	"\303f\242:\023\002>t+\035\254\301OB\254e\277o<f\326"
  96      13023E74 
  96      2B1DACC1 
  96      4F42AC65 
  96      BF6F3C66 
  97 008e B22CAFEA 		.ascii	"\262,\257\352Kc\035\246x\320n\373\241\325l\356\275\317"
  97      4B631DA6 
  97      78D06EFB 
ARM GAS  C:\Users\Thomas\AppData\Local\Temp\ccdV6lzM.s 			page 7


  97      A1D56CEE 
  97      BDCF
  98 00a0 CF0EC005 		.ascii	"\317\016\300\005\262Y\034\005t\0016\024\230\2444\251"
  98      B2591C05 
  98      74013614 
  98      98A434A9 
  99 00b0 2AA0EC9F 		.ascii	"*\240\354\237\230U\324\3128\376\310W\226\373\225\316"
  99      9855D4CA 
  99      38FEC857 
  99      96FB95CE 
 100 00c0 276B6261 		.ascii	"'kba?\226\276\214g\266Y;ZI[\272r\275\257^^\271[%R\351"
 100      3F96BE8C 
 100      67B6593B 
 100      5A495BBA 
 100      72BDAF5E 
 101 00da 42BE7EE2 		.ascii	"B\276~\342.b)\235\205\315:6\340\303&\344\227\330B\021"
 101      2E62299D 
 101      85CD3A36 
 101      E0C326E4 
 101      97D84211 
 102 00ee 54C65423 		.ascii	"T\306T#\367\306\216 \034\315\263\207F\275M\011\300K"
 102      F7C68E20 
 102      1CCDB387 
 102      46BD4D09 
 102      C04B
 103 0100 D8166E19 		.ascii	"\330\026n\031\231\212\313\241\350\302RC\225\\Uw*\206"
 103      998ACBA1 
 103      E8C25243 
 103      955C5577 
 103      2A86
 104 0112 1465E8A0 		.ascii	"\024e\350\240p\272h\252!C'\3548C\2673\001\207\243hT"
 104      70BA68AA 
 104      214327EC 
 104      3843B733 
 104      0187A368 
 105 0127 01FEB2D6 		.ascii	"\001\376\262\326fP\033\311~\235\301\310p|<\236\034\235"
 105      66501BC9 
 105      7E9DC1C8 
 105      707C3C9E 
 105      1C9D
 106 0139 888F45C3 		.ascii	"\210\217E\303\211\311d,\036\011\205\023\203}\221Pot"
 106      89C9642C 
 106      1E098513 
 106      837D9150 
 106      6F74
 107 014b A82718A3 		.ascii	"\250'\030\243_e\310\200\244"
 107      5F65C880 
 107      A4
 108              		.text
 109              		.section	.gnu.lto_P2_D1_ReadDataReg.c0d6a61a,"",%progbits
 110 0000 789C654F 		.ascii	"x\234eO=HBQ\024>\337y\317\247`\2034\205[4H!BAKkA\253"
 110      3D484251 
 110      143EDF79 
 110      CFA76083 
 110      34855B34 
 111 001c E42A48D8 		.ascii	"\344*H\330[\023\244f\237f\026M\341\024\204SD\331\017"
 111      5B13A466 
ARM GAS  C:\Users\Thomas\AppData\Local\Temp\ccdV6lzM.s 			page 8


 111      9F66164D 
 111      E1148453 
 111      44D90F
 112 002f 0D4D0581 		.ascii	"\015M\005\2014DP$\345P\230\030\204Am\211Q>(\355\036"
 112      34445024 
 112      E5509818 
 112      84416D89 
 112      513E28ED 
 113 0044 5F5B17EE 		.ascii	"_[\027\356w\3569\347;\337w\217F\377\217_\335\031\020"
 113      77EE39E7 
 113      3BDF778F 
 113      46FF8F5F 
 113      DD1910
 114 0057 0DA9088D 		.ascii	"\015\251\010\215\300\3537Di\017\003\362 P\212\221\302"
 114      C0EB3744 
 114      690F03F2 
 114      20508A91 
 114      C2
 115 0068 1B3719D7 		.ascii	"\0337\031\327'\235\012\002\333\226\225y\277\253\324"
 115      279D0A02 
 115      DB969579 
 115      BFABD4
 116 0077 BCCB0336 		.ascii	"\274\313\0036\023\265\230\020\364cXt\260\203\000)b3"
 116      13B59810 
 116      F4635874 
 116      B0830029 
 116      6233
 117 0089 FB73EF35 		.ascii	"\373s\3575\262\226e\371\244\257\032\2730\224\007\035"
 117      B29665F9 
 117      A4AF1ABB 
 117      3094071D 
 118 0099 F597AC6E 		.ascii	"\365\227\254n\367\270\234_\035a7\310f\345\250@W\300"
 118      F7B89C5F 
 118      1D6137C8 
 118      66E5A840 
 118      57C0
 119 00ab 2E018344 		.ascii	".\001\203D\223\032\012\304\376\205Y\242V\305\371\347"
 119      931A0AC4 
 119      FE8559A2 
 119      56C5F9E7 
 120 00bb 5AA73821 		.ascii	"Z\2478!:_\254\211E\356\342L{e\233\265\322V\332\322\305"
 120      3A5FAC89 
 120      45EEE24C 
 120      7B659BB5 
 120      D256DAD2 
 121 00d0 F5A951BE 		.ascii	"\365\251Q\276\365\364J$i\353\261\366\355.`3\235\205"
 121      F5F44A24 
 121      69EBB1F6 
 121      ED2E6033 
 121      9D85
 122 00e2 CD3A8AF0 		.ascii	"\315:\212\360c\017\352\227\330G\001T\305R;\367\301\216"
 122      630FEA97 
 122      D8470154 
 122      C5523BF7 
 122      C18E
 123 00f4 201CCDAB 		.ascii	" \034\315\253\347v\253O\004\340#\034(n\025\231\272\333"
 123      E776AB4F 
ARM GAS  C:\Users\Thomas\AppData\Local\Temp\ccdV6lzM.s 			page 9


 123      04E0231C 
 123      286E1599 
 123      BADB
 124 0106 A1E88A25 		.ascii	"\241\350\212%C\365\\Cw*.UTC\247\371\313\015C\206\\:"
 124      43F55C43 
 124      772A2E55 
 124      5443A7F9 
 124      CB0D4386 
 125 011c E1D0197A 		.ascii	"\341\320\031zX\011:\034\241Q\035\370\313z\233A6R\373"
 125      58093A1C 
 125      A1511DF8 
 125      CB7A9B41 
 125      3652FB
 126 012f 0D86A2D3 		.ascii	"\015\206\242\323\346\274\231\234]0\347b\221\304b2nF"
 126      E6BC999C 
 126      5D30E762 
 126      91C46232 
 126      6E46
 127 0141 C391C4E4 		.ascii	"\303\221\304\344x4<\026\233\032\015\305\351\027\331"
 127      78343C16 
 127      9B1A0DC5 
 127      E917D9
 128 0150 A18121   		.ascii	"\241\201!"
 129              		.text
 130              		.section	.gnu.lto_.symbol_nodes.c0d6a61a,"",%progbits
 131 0000 789C6366 		.ascii	"x\234cf``pb\200\002&\206z\006\206\011\347\030\030\352"
 131      60607062 
 131      80022686 
 131      7A068609 
 131      E71818EA 
 132 0014 EB19E62D 		.ascii	"\353\031\346-\340``b\254gD\3413\3253\241\360\231\353"
 132      E0606062 
 132      AC6744E1 
 132      33D533A1 
 132      F099EB
 133 0027 9991F90C 		.ascii	"\231\221\371\014\0003\356\020\336"
 133      0033EE10 
 133      DE
 134              		.text
 135              		.section	.gnu.lto_.refs.c0d6a61a,"",%progbits
 136 0000 789C6366 		.ascii	"x\234cf```d\200\002\000\000=\000\005"
 136      60606064 
 136      80020000 
 136      3D0005
 137              		.text
 138              		.section	.gnu.lto_.decls.c0d6a61a,"",%progbits
 139 0000 789C8D92 		.ascii	"x\234\215\222]H\024Q\024\307\357\231;\256:n\366\361"
 139      5D481451 
 139      14C7EF99 
 139      3BAE3A6E 
 139      F6F1
 140 0012 A0B1046D 		.ascii	"\240\261\004m\004B BE\340[\205\202\022\024\213\022="
 140      04422042 
 140      45E05B85 
 140      8212148B 
 140      123D
 141 0024 28C8A283 		.ascii	"(\310\242\203\371\242\261\215\201O^u\313\257\260M\264"
ARM GAS  C:\Users\Thomas\AppData\Local\Temp\ccdV6lzM.s 			page 10


 141      F9A2B18D 
 141      814F5E75 
 141      CBAFB04D 
 141      B4
 142 0035 16A112D4 		.ascii	"\026\241\022\324,K\333tu]5\235%\004!\024\"\021T\002"
 142      2C4BDB74 
 142      755D359D 
 142      25042114 
 142      22115402 
 143 0049 CD177B6A 		.ascii	"\315\027{j\2152\203p:sg\267Yl\005\017\234\231{f\316"
 143      8D328370 
 143      3A7367B7 
 143      596C050F 
 143      9C997B66 
 144 005e EF7FCEBD 		.ascii	"\357\177\316\275\367PB\210\035\010\321\320.SB:1N@w\020"
 144      F7504288 
 144      1D08D1D0 
 144      2E53423A 
 144      314E4077 
 145 0073 D344F461 		.ascii	"\323D\364at?z\000=H\376\267\341\030n\020=\015}\032}"
 145      743F7A00 
 145      3D48FEB7 
 145      E1186E10 
 145      3D0D7D1A 
 146 0088 2AF21F22 		.ascii	"*\362\037\"9{M\327\264\354\341\3248\254?\016\033\210"
 146      397B4DD7 
 146      B4ECE1D4 
 146      38AC3F0E 
 146      1B88
 147 009a B0512E3F 		.ascii	"\260Q.?\206\273\022\303\006\342\260\301\003\262\361"
 147      86BB12C3 
 147      06E2B0C1 
 147      03B2F1
 148 00a9 F6BA2540 		.ascii	"\366\272%@p\350\307|\312\246\000\251\222]\017'\332\347"
 148      70E8C77C 
 148      CAA600A9 
 148      925D0F27 
 148      DAE7
 149 00bb BC160CAD 		.ascii	"\274\026\014\255\222\250\207K3\215\215IT\000}\335\343"
 149      92A8874B 
 149      338D8D49 
 149      54007DDD 
 149      E3
 150 00cc 5D5F9432 		.ascii	"]_\2242\007\030cMLU\301\224\250{>y?\021\2314\211\207"
 150      0718634D 
 150      4C55C194 
 150      A87B3E79 
 150      3F119934 
 151 00e2 6D1FBA42 		.ascii	"m\037\272B\224\207\232\316\011\313\313\035\277)H\031"
 151      94879ACE 
 151      09CBCB1D 
 151      BF294819 
 152 00f2 4D8CD5B3 		.ascii	"M\214\325\263p;\243\307\011d\332\340\214\215\300\020"
 152      703BA3C7 
 152      0964DAE0 
 152      8C8DC010 
 153 0102 64601A0C 		.ascii	"d`\032\014@&\201W`\203\327`#\275X \374lq\345\004c\""
ARM GAS  C:\Users\Thomas\AppData\Local\Temp\ccdV6lzM.s 			page 11


 153      40268157 
 153      6083D760 
 153      23BD5820 
 153      FC6C71E5 
 154 0119 0C82042F 		.ascii	"\014\202\004/\201\362\014\334\206^!R\324s7\344\021E"
 154      81F20CDC 
 154      865E2152 
 154      D47337E4 
 154      1145
 155 012b 013FEA39 		.ascii	"\001?\3529E\274\333\237\332z\237\220\336\211\002\314"
 155      45BCDB9F 
 155      DA7A9F90 
 155      DE8902CC 
 156 013b D3C08E88 		.ascii	"\323\300\216\210\340H\203~\224}\201\262\004|\220\216"
 156      E048837E 
 156      947D81B2 
 156      047C908E 
 157 014b CF37201A 		.ascii	"\3177 \032\002\253\013\357\353\222\350y\276\265\335"
 157      02AB0BEF 
 157      EB92E879 
 157      BEB5DD
 158 015a C6D55D6A 		.ascii	"\306\325]j\177\312\272}a\355\373\262\225\3151U\323."
 158      7FCABA7D 
 158      61EDFBB2 
 158      95CD3155 
 158      D32E
 159 016c 7204DEFE 		.ascii	"r\004\336\376+O\364\265q\236\303`G\254\303\275]/Q'\227"
 159      2B4FF4B5 
 159      719EC360 
 159      47ACC3BD 
 159      5D2F5127 
 160 0181 F079667F 		.ascii	"\360yf\177\031\022\335\023=\026C\200\363#1\374H\224"
 160      1912DD13 
 160      3D164380 
 160      F32331FC 
 160      4894
 161 0193 F773BED9 		.ascii	"\367s\276\331\355\243\261\355\352;1\373\035\345\375"
 161      EDA3B1ED 
 161      EA3B31FB 
 161      1DE5FD
 162 01a2 1645DA5D 		.ascii	"\026E\332]\373\266\326z\230*\274\326g\377\247u\013\257"
 162      FBB6D67A 
 162      982ABCD6 
 162      67FFA775 
 162      0BAF
 163 01b4 B5F67543 		.ascii	"\265\366uCV\335\354\217\246Q\016\300XL\265\261h\265"
 163      56DDEC8F 
 163      A6510EC0 
 163      584CB5B1 
 163      68B5
 164 01c6 00AF36DB 		.ascii	"\000\2576\333\261\360H\244\265\\\341\243\367^[\242\321"
 164      B1F048A4 
 164      B55CE1A3 
 164      F75E5BA2 
 164      D1
 165 01d7 ED93BE68 		.ascii	"\355\223\276h\267:?\036\303\217G\371 \347\331\343\326"
 165      B73A3F1E 
ARM GAS  C:\Users\Thomas\AppData\Local\Temp\ccdV6lzM.s 			page 12


 165      C38F47F9 
 165      20E7D9E3 
 165      D6
 166 01e8 DE24FA10 		.ascii	"\336$\372\020\270\300\350vK\360\220\204W\332p\200+\305"
 166      B8C0E876 
 166      4BF09084 
 166      57DA7080 
 166      2BC5
 167 01fa 21585C68 		.ascii	"!X\\hYJ6\206`/\361n\337!\330\331\310w\263K0\205\307"
 167      594A3686 
 167      602FF16E 
 167      DF21D8D9 
 167      C877B34B 
 168 0211 32610EC1 		.ascii	"2a\016\301$\230S\320\374\245k\336jm\321'\013\2170y."
 168      249853D0 
 168      FCA56BDE 
 168      6A6DD127 
 168      0B8F3079 
 169 0226 95279B67 		.ascii	"\225'\233g8\015V\276\003|o\0114\324\037Z\221\300&\331"
 169      380D56BE 
 169      037C6F09 
 169      34D41F5A 
 169      91C026D9 
 170 023a BC38C23B 		.ascii	"\2748\302;'AE\245&\375\370\303\365\214zS\243\035\021"
 170      274145A5 
 170      26FDF8C3 
 170      F58C7A53 
 170      A31D11
 171 024d FE834008 		.ascii	"\376\203@\010efPF\317V75\255V3\354A\"O\340\217\204\352"
 171      65665046 
 171      CF563735 
 171      AD5633EC 
 171      41224FE0 
 172 0264 8A4A25DB 		.ascii	"\212J%\333\222w\355\272=\207\234\316*\316\223+e\227"
 172      9277EDBA 
 172      3D879CCE 
 172      2ACE932B 
 172      6597
 173 0276 5391CB4A 		.ascii	"S\221\313J\012\253\252]\245r\261\243\260*\347Bqi\215"
 173      0AABAA5D 
 173      A572B1A3 
 173      B02AE742 
 173      71698D
 174 0289 52734BBE 		.ascii	"RsK\276\235u\223\2448\316\225\344\236-\271\341\252P"
 174      9D7593A4 
 174      38CE95E4 
 174      9E2DB9E1 
 174      AA50
 175 029b E453FBE6 		.ascii	"\344S\373\346\363\244\254Rr\314\310.\224\225\\W\305"
 175      F3A4AC52 
 175      72CCC82E 
 175      94955C57 
 175      C5
 176 02ac 1DF96A55 		.ascii	"\035\371jU\231,\031\237\012dg\331Qs\231\353T\234\005"
 176      992C199F 
 176      0A6467D9 
 176      517399EB 
ARM GAS  C:\Users\Thomas\AppData\Local\Temp\ccdV6lzM.s 			page 13


 176      549C05
 177 02bf 72B9E892 		.ascii	"r\271\350\222\313\263\377\002\016PG "
 177      CBB3FF02 
 177      0E504720 
 178              		.text
 179              		.section	.gnu.lto_.symtab.c0d6a61a,"",%progbits
 180 0000 50325F44 		.ascii	"P2_D1_Write\000\000\000\000\000\000\000\000\000\000"
 180      315F5772 
 180      69746500 
 180      00000000 
 180      00000000 
 181 0015 0000B200 		.ascii	"\000\000\262\000\000\000P2_D1_SetDriveMode\000\000\000"
 181      00005032 
 181      5F44315F 
 181      53657444 
 181      72697665 
 182 0030 00000000 		.ascii	"\000\000\000\000\000\000\000\000\000\264\000\000\000"
 182      00000000 
 182      00B40000 
 182      00
 183 003d 50325F44 		.ascii	"P2_D1_Read\000\000\000\000\000\000\000\000\000\000\000"
 183      315F5265 
 183      61640000 
 183      00000000 
 183      00000000 
 184 0052 00B70000 		.ascii	"\000\267\000\000\000P2_D1_ReadDataReg\000\000\000\000"
 184      0050325F 
 184      44315F52 
 184      65616444 
 184      61746152 
 185 006c 00000000 		.ascii	"\000\000\000\000\000\000\000\000\271\000\000\000"
 185      00000000 
 185      B9000000 
 186              		.text
 187              		.section	.gnu.lto_.opts,"",%progbits
 188 0000 272D666E 		.ascii	"'-fno-trapv' '-mcpu=cortex-m3' '-mthumb' '-g' '-O3'"
 188      6F2D7472 
 188      61707627 
 188      20272D6D 
 188      6370753D 
 189 0033 20272D66 		.ascii	" '-ffunction-sections' '-finline-functions' '-flto'"
 189      66756E63 
 189      74696F6E 
 189      2D736563 
 189      74696F6E 
 190 0066 20272D66 		.ascii	" '-ffat-lto-objects'\000"
 190      6661742D 
 190      6C746F2D 
 190      6F626A65 
 190      63747327 
 191              		.text
 192              		.cfi_sections	.debug_frame
 193              		.section	.text.P2_D1_Write,"ax",%progbits
 194              		.align	2
 195              		.global	P2_D1_Write
 196              		.thumb
 197              		.thumb_func
ARM GAS  C:\Users\Thomas\AppData\Local\Temp\ccdV6lzM.s 			page 14


 198              		.type	P2_D1_Write, %function
 199              	P2_D1_Write:
 200              	.LFB0:
 201              		.file 1 ".\\Generated_Source\\PSoC5\\P2_D1.c"
   1:.\Generated_Source\PSoC5/P2_D1.c **** /*******************************************************************************
   2:.\Generated_Source\PSoC5/P2_D1.c **** * File Name: P2_D1.c  
   3:.\Generated_Source\PSoC5/P2_D1.c **** * Version 2.20
   4:.\Generated_Source\PSoC5/P2_D1.c **** *
   5:.\Generated_Source\PSoC5/P2_D1.c **** * Description:
   6:.\Generated_Source\PSoC5/P2_D1.c **** *  This file contains API to enable firmware control of a Pins component.
   7:.\Generated_Source\PSoC5/P2_D1.c **** *
   8:.\Generated_Source\PSoC5/P2_D1.c **** * Note:
   9:.\Generated_Source\PSoC5/P2_D1.c **** *
  10:.\Generated_Source\PSoC5/P2_D1.c **** ********************************************************************************
  11:.\Generated_Source\PSoC5/P2_D1.c **** * Copyright 2008-2015, Cypress Semiconductor Corporation.  All rights reserved.
  12:.\Generated_Source\PSoC5/P2_D1.c **** * You may use this file only in accordance with the license, terms, conditions, 
  13:.\Generated_Source\PSoC5/P2_D1.c **** * disclaimers, and limitations in the end user license agreement accompanying 
  14:.\Generated_Source\PSoC5/P2_D1.c **** * the software package with which this file was provided.
  15:.\Generated_Source\PSoC5/P2_D1.c **** *******************************************************************************/
  16:.\Generated_Source\PSoC5/P2_D1.c **** 
  17:.\Generated_Source\PSoC5/P2_D1.c **** #include "cytypes.h"
  18:.\Generated_Source\PSoC5/P2_D1.c **** #include "P2_D1.h"
  19:.\Generated_Source\PSoC5/P2_D1.c **** 
  20:.\Generated_Source\PSoC5/P2_D1.c **** /* APIs are not generated for P15[7:6] on PSoC 5 */
  21:.\Generated_Source\PSoC5/P2_D1.c **** #if !(CY_PSOC5A &&\
  22:.\Generated_Source\PSoC5/P2_D1.c **** 	 P2_D1__PORT == 15 && ((P2_D1__MASK & 0xC0) != 0))
  23:.\Generated_Source\PSoC5/P2_D1.c **** 
  24:.\Generated_Source\PSoC5/P2_D1.c **** 
  25:.\Generated_Source\PSoC5/P2_D1.c **** /*******************************************************************************
  26:.\Generated_Source\PSoC5/P2_D1.c **** * Function Name: P2_D1_Write
  27:.\Generated_Source\PSoC5/P2_D1.c **** ****************************************************************************//**
  28:.\Generated_Source\PSoC5/P2_D1.c **** *
  29:.\Generated_Source\PSoC5/P2_D1.c **** * \brief Writes the value to the physical port (data output register), masking
  30:.\Generated_Source\PSoC5/P2_D1.c **** *  and shifting the bits appropriately. 
  31:.\Generated_Source\PSoC5/P2_D1.c **** *
  32:.\Generated_Source\PSoC5/P2_D1.c **** * The data output register controls the signal applied to the physical pin in 
  33:.\Generated_Source\PSoC5/P2_D1.c **** * conjunction with the drive mode parameter. This function avoids changing 
  34:.\Generated_Source\PSoC5/P2_D1.c **** * other bits in the port by using the appropriate method (read-modify-write or
  35:.\Generated_Source\PSoC5/P2_D1.c **** * bit banding).
  36:.\Generated_Source\PSoC5/P2_D1.c **** *
  37:.\Generated_Source\PSoC5/P2_D1.c **** * <b>Note</b> This function should not be used on a hardware digital output pin 
  38:.\Generated_Source\PSoC5/P2_D1.c **** * as it is driven by the hardware signal attached to it.
  39:.\Generated_Source\PSoC5/P2_D1.c **** *
  40:.\Generated_Source\PSoC5/P2_D1.c **** * \param value
  41:.\Generated_Source\PSoC5/P2_D1.c **** *  Value to write to the component instance.
  42:.\Generated_Source\PSoC5/P2_D1.c **** *
  43:.\Generated_Source\PSoC5/P2_D1.c **** * \return 
  44:.\Generated_Source\PSoC5/P2_D1.c **** *  None 
  45:.\Generated_Source\PSoC5/P2_D1.c **** *
  46:.\Generated_Source\PSoC5/P2_D1.c **** * \sideeffect
  47:.\Generated_Source\PSoC5/P2_D1.c **** *  If you use read-modify-write operations that are not atomic; the Interrupt 
  48:.\Generated_Source\PSoC5/P2_D1.c **** *  Service Routines (ISR) can cause corruption of this function. An ISR that 
  49:.\Generated_Source\PSoC5/P2_D1.c **** *  interrupts this function and performs writes to the Pins component data 
  50:.\Generated_Source\PSoC5/P2_D1.c **** *  register can cause corrupted port data. To avoid this issue, you should 
  51:.\Generated_Source\PSoC5/P2_D1.c **** *  either use the Per-Pin APIs (primary method) or disable interrupts around 
  52:.\Generated_Source\PSoC5/P2_D1.c **** *  this function.
  53:.\Generated_Source\PSoC5/P2_D1.c **** *
ARM GAS  C:\Users\Thomas\AppData\Local\Temp\ccdV6lzM.s 			page 15


  54:.\Generated_Source\PSoC5/P2_D1.c **** * \funcusage
  55:.\Generated_Source\PSoC5/P2_D1.c **** *  \snippet P2_D1_SUT.c usage_P2_D1_Write
  56:.\Generated_Source\PSoC5/P2_D1.c **** *******************************************************************************/
  57:.\Generated_Source\PSoC5/P2_D1.c **** void P2_D1_Write(uint8 value)
  58:.\Generated_Source\PSoC5/P2_D1.c **** {
 202              		.loc 1 58 0
 203              		.cfi_startproc
 204              		@ args = 0, pretend = 0, frame = 0
 205              		@ frame_needed = 0, uses_anonymous_args = 0
 206              		@ link register save eliminated.
 207              	.LVL0:
  59:.\Generated_Source\PSoC5/P2_D1.c ****     uint8 staticBits = (P2_D1_DR & (uint8)(~P2_D1_MASK));
 208              		.loc 1 59 0
 209 0000 044A     		ldr	r2, .L2
  60:.\Generated_Source\PSoC5/P2_D1.c ****     P2_D1_DR = staticBits | ((uint8)(value << P2_D1_SHIFT) & P2_D1_MASK);
 210              		.loc 1 60 0
 211 0002 0001     		lsls	r0, r0, #4
 212              	.LVL1:
  59:.\Generated_Source\PSoC5/P2_D1.c ****     uint8 staticBits = (P2_D1_DR & (uint8)(~P2_D1_MASK));
 213              		.loc 1 59 0
 214 0004 1378     		ldrb	r3, [r2]	@ zero_extendqisi2
 215              	.LVL2:
 216              		.loc 1 60 0
 217 0006 00F01000 		and	r0, r0, #16
  59:.\Generated_Source\PSoC5/P2_D1.c ****     uint8 staticBits = (P2_D1_DR & (uint8)(~P2_D1_MASK));
 218              		.loc 1 59 0
 219 000a 03F0EF03 		and	r3, r3, #239
 220              	.LVL3:
 221              		.loc 1 60 0
 222 000e 1843     		orrs	r0, r0, r3
 223 0010 1070     		strb	r0, [r2]
 224 0012 7047     		bx	lr
 225              	.L3:
 226              		.align	2
 227              	.L2:
 228 0014 C0510040 		.word	1073762752
 229              		.cfi_endproc
 230              	.LFE0:
 231              		.size	P2_D1_Write, .-P2_D1_Write
 232              		.section	.text.P2_D1_SetDriveMode,"ax",%progbits
 233              		.align	2
 234              		.global	P2_D1_SetDriveMode
 235              		.thumb
 236              		.thumb_func
 237              		.type	P2_D1_SetDriveMode, %function
 238              	P2_D1_SetDriveMode:
 239              	.LFB1:
  61:.\Generated_Source\PSoC5/P2_D1.c **** }
  62:.\Generated_Source\PSoC5/P2_D1.c **** 
  63:.\Generated_Source\PSoC5/P2_D1.c **** 
  64:.\Generated_Source\PSoC5/P2_D1.c **** /*******************************************************************************
  65:.\Generated_Source\PSoC5/P2_D1.c **** * Function Name: P2_D1_SetDriveMode
  66:.\Generated_Source\PSoC5/P2_D1.c **** ****************************************************************************//**
  67:.\Generated_Source\PSoC5/P2_D1.c **** *
  68:.\Generated_Source\PSoC5/P2_D1.c **** * \brief Sets the drive mode for each of the Pins component's pins.
  69:.\Generated_Source\PSoC5/P2_D1.c **** * 
  70:.\Generated_Source\PSoC5/P2_D1.c **** * <b>Note</b> This affects all pins in the Pins component instance. Use the
ARM GAS  C:\Users\Thomas\AppData\Local\Temp\ccdV6lzM.s 			page 16


  71:.\Generated_Source\PSoC5/P2_D1.c **** * Per-Pin APIs if you wish to control individual pin's drive modes.
  72:.\Generated_Source\PSoC5/P2_D1.c **** *
  73:.\Generated_Source\PSoC5/P2_D1.c **** * \param mode
  74:.\Generated_Source\PSoC5/P2_D1.c **** *  Mode for the selected signals. Valid options are documented in 
  75:.\Generated_Source\PSoC5/P2_D1.c **** *  \ref driveMode.
  76:.\Generated_Source\PSoC5/P2_D1.c **** *
  77:.\Generated_Source\PSoC5/P2_D1.c **** * \return
  78:.\Generated_Source\PSoC5/P2_D1.c **** *  None
  79:.\Generated_Source\PSoC5/P2_D1.c **** *
  80:.\Generated_Source\PSoC5/P2_D1.c **** * \sideeffect
  81:.\Generated_Source\PSoC5/P2_D1.c **** *  If you use read-modify-write operations that are not atomic, the ISR can
  82:.\Generated_Source\PSoC5/P2_D1.c **** *  cause corruption of this function. An ISR that interrupts this function 
  83:.\Generated_Source\PSoC5/P2_D1.c **** *  and performs writes to the Pins component Drive Mode registers can cause 
  84:.\Generated_Source\PSoC5/P2_D1.c **** *  corrupted port data. To avoid this issue, you should either use the Per-Pin
  85:.\Generated_Source\PSoC5/P2_D1.c **** *  APIs (primary method) or disable interrupts around this function.
  86:.\Generated_Source\PSoC5/P2_D1.c **** *
  87:.\Generated_Source\PSoC5/P2_D1.c **** * \funcusage
  88:.\Generated_Source\PSoC5/P2_D1.c **** *  \snippet P2_D1_SUT.c usage_P2_D1_SetDriveMode
  89:.\Generated_Source\PSoC5/P2_D1.c **** *******************************************************************************/
  90:.\Generated_Source\PSoC5/P2_D1.c **** void P2_D1_SetDriveMode(uint8 mode)
  91:.\Generated_Source\PSoC5/P2_D1.c **** {
 240              		.loc 1 91 0
 241              		.cfi_startproc
 242              		@ args = 0, pretend = 0, frame = 0
 243              		@ frame_needed = 0, uses_anonymous_args = 0
 244              		@ link register save eliminated.
 245              	.LVL4:
  92:.\Generated_Source\PSoC5/P2_D1.c **** 	CyPins_SetPinDriveMode(P2_D1_0, mode);
 246              		.loc 1 92 0
 247 0000 044A     		ldr	r2, .L5
 248 0002 00F00E00 		and	r0, r0, #14
 249              	.LVL5:
 250 0006 1378     		ldrb	r3, [r2]	@ zero_extendqisi2
 251 0008 03F0F103 		and	r3, r3, #241
 252 000c 1843     		orrs	r0, r0, r3
 253 000e 1070     		strb	r0, [r2]
 254 0010 7047     		bx	lr
 255              	.L6:
 256 0012 00BF     		.align	2
 257              	.L5:
 258 0014 64500040 		.word	1073762404
 259              		.cfi_endproc
 260              	.LFE1:
 261              		.size	P2_D1_SetDriveMode, .-P2_D1_SetDriveMode
 262              		.section	.text.P2_D1_Read,"ax",%progbits
 263              		.align	2
 264              		.global	P2_D1_Read
 265              		.thumb
 266              		.thumb_func
 267              		.type	P2_D1_Read, %function
 268              	P2_D1_Read:
 269              	.LFB2:
  93:.\Generated_Source\PSoC5/P2_D1.c **** }
  94:.\Generated_Source\PSoC5/P2_D1.c **** 
  95:.\Generated_Source\PSoC5/P2_D1.c **** 
  96:.\Generated_Source\PSoC5/P2_D1.c **** /*******************************************************************************
  97:.\Generated_Source\PSoC5/P2_D1.c **** * Function Name: P2_D1_Read
ARM GAS  C:\Users\Thomas\AppData\Local\Temp\ccdV6lzM.s 			page 17


  98:.\Generated_Source\PSoC5/P2_D1.c **** ****************************************************************************//**
  99:.\Generated_Source\PSoC5/P2_D1.c **** *
 100:.\Generated_Source\PSoC5/P2_D1.c **** * \brief Reads the associated physical port (pin status register) and masks 
 101:.\Generated_Source\PSoC5/P2_D1.c **** *  the required bits according to the width and bit position of the component
 102:.\Generated_Source\PSoC5/P2_D1.c **** *  instance. 
 103:.\Generated_Source\PSoC5/P2_D1.c **** *
 104:.\Generated_Source\PSoC5/P2_D1.c **** * The pin's status register returns the current logic level present on the 
 105:.\Generated_Source\PSoC5/P2_D1.c **** * physical pin.
 106:.\Generated_Source\PSoC5/P2_D1.c **** *
 107:.\Generated_Source\PSoC5/P2_D1.c **** * \return 
 108:.\Generated_Source\PSoC5/P2_D1.c **** *  The current value for the pins in the component as a right justified number.
 109:.\Generated_Source\PSoC5/P2_D1.c **** *
 110:.\Generated_Source\PSoC5/P2_D1.c **** * \funcusage
 111:.\Generated_Source\PSoC5/P2_D1.c **** *  \snippet P2_D1_SUT.c usage_P2_D1_Read  
 112:.\Generated_Source\PSoC5/P2_D1.c **** *******************************************************************************/
 113:.\Generated_Source\PSoC5/P2_D1.c **** uint8 P2_D1_Read(void)
 114:.\Generated_Source\PSoC5/P2_D1.c **** {
 270              		.loc 1 114 0
 271              		.cfi_startproc
 272              		@ args = 0, pretend = 0, frame = 0
 273              		@ frame_needed = 0, uses_anonymous_args = 0
 274              		@ link register save eliminated.
 115:.\Generated_Source\PSoC5/P2_D1.c ****     return (P2_D1_PS & P2_D1_MASK) >> P2_D1_SHIFT;
 275              		.loc 1 115 0
 276 0000 024B     		ldr	r3, .L8
 277 0002 1878     		ldrb	r0, [r3]	@ zero_extendqisi2
 116:.\Generated_Source\PSoC5/P2_D1.c **** }
 278              		.loc 1 116 0
 279 0004 C0F30010 		ubfx	r0, r0, #4, #1
 280 0008 7047     		bx	lr
 281              	.L9:
 282 000a 00BF     		.align	2
 283              	.L8:
 284 000c C1510040 		.word	1073762753
 285              		.cfi_endproc
 286              	.LFE2:
 287              		.size	P2_D1_Read, .-P2_D1_Read
 288              		.section	.text.P2_D1_ReadDataReg,"ax",%progbits
 289              		.align	2
 290              		.global	P2_D1_ReadDataReg
 291              		.thumb
 292              		.thumb_func
 293              		.type	P2_D1_ReadDataReg, %function
 294              	P2_D1_ReadDataReg:
 295              	.LFB3:
 117:.\Generated_Source\PSoC5/P2_D1.c **** 
 118:.\Generated_Source\PSoC5/P2_D1.c **** 
 119:.\Generated_Source\PSoC5/P2_D1.c **** /*******************************************************************************
 120:.\Generated_Source\PSoC5/P2_D1.c **** * Function Name: P2_D1_ReadDataReg
 121:.\Generated_Source\PSoC5/P2_D1.c **** ****************************************************************************//**
 122:.\Generated_Source\PSoC5/P2_D1.c **** *
 123:.\Generated_Source\PSoC5/P2_D1.c **** * \brief Reads the associated physical port's data output register and masks 
 124:.\Generated_Source\PSoC5/P2_D1.c **** *  the correct bits according to the width and bit position of the component 
 125:.\Generated_Source\PSoC5/P2_D1.c **** *  instance. 
 126:.\Generated_Source\PSoC5/P2_D1.c **** *
 127:.\Generated_Source\PSoC5/P2_D1.c **** * The data output register controls the signal applied to the physical pin in 
 128:.\Generated_Source\PSoC5/P2_D1.c **** * conjunction with the drive mode parameter. This is not the same as the 
ARM GAS  C:\Users\Thomas\AppData\Local\Temp\ccdV6lzM.s 			page 18


 129:.\Generated_Source\PSoC5/P2_D1.c **** * preferred P2_D1_Read() API because the 
 130:.\Generated_Source\PSoC5/P2_D1.c **** * P2_D1_ReadDataReg() reads the data register instead of the status 
 131:.\Generated_Source\PSoC5/P2_D1.c **** * register. For output pins this is a useful function to determine the value 
 132:.\Generated_Source\PSoC5/P2_D1.c **** * just written to the pin.
 133:.\Generated_Source\PSoC5/P2_D1.c **** *
 134:.\Generated_Source\PSoC5/P2_D1.c **** * \return 
 135:.\Generated_Source\PSoC5/P2_D1.c **** *  The current value of the data register masked and shifted into a right 
 136:.\Generated_Source\PSoC5/P2_D1.c **** *  justified number for the component instance.
 137:.\Generated_Source\PSoC5/P2_D1.c **** *
 138:.\Generated_Source\PSoC5/P2_D1.c **** * \funcusage
 139:.\Generated_Source\PSoC5/P2_D1.c **** *  \snippet P2_D1_SUT.c usage_P2_D1_ReadDataReg 
 140:.\Generated_Source\PSoC5/P2_D1.c **** *******************************************************************************/
 141:.\Generated_Source\PSoC5/P2_D1.c **** uint8 P2_D1_ReadDataReg(void)
 142:.\Generated_Source\PSoC5/P2_D1.c **** {
 296              		.loc 1 142 0
 297              		.cfi_startproc
 298              		@ args = 0, pretend = 0, frame = 0
 299              		@ frame_needed = 0, uses_anonymous_args = 0
 300              		@ link register save eliminated.
 143:.\Generated_Source\PSoC5/P2_D1.c ****     return (P2_D1_DR & P2_D1_MASK) >> P2_D1_SHIFT;
 301              		.loc 1 143 0
 302 0000 024B     		ldr	r3, .L11
 303 0002 1878     		ldrb	r0, [r3]	@ zero_extendqisi2
 144:.\Generated_Source\PSoC5/P2_D1.c **** }
 304              		.loc 1 144 0
 305 0004 C0F30010 		ubfx	r0, r0, #4, #1
 306 0008 7047     		bx	lr
 307              	.L12:
 308 000a 00BF     		.align	2
 309              	.L11:
 310 000c C0510040 		.word	1073762752
 311              		.cfi_endproc
 312              	.LFE3:
 313              		.size	P2_D1_ReadDataReg, .-P2_D1_ReadDataReg
 314              		.text
 315              	.Letext0:
 316              		.file 2 ".\\Generated_Source\\PSoC5\\cytypes.h"