ARM GAS  C:\Users\Thomas\AppData\Local\Temp\ccEgyoHI.s 			page 1


   1              		.syntax unified
   2              		.cpu cortex-m3
   3              		.fpu softvfp
   4              		.eabi_attribute 20, 1
   5              		.eabi_attribute 21, 1
   6              		.eabi_attribute 23, 3
   7              		.eabi_attribute 24, 1
   8              		.eabi_attribute 25, 1
   9              		.eabi_attribute 26, 1
  10              		.eabi_attribute 30, 2
  11              		.eabi_attribute 34, 1
  12              		.eabi_attribute 18, 4
  13              		.thumb
  14              		.file	"P2_Data_3.c"
  15              		.text
  16              	.Ltext0:
  17              		.section	.gnu.lto_.profile.b9498b38,"",%progbits
  18 0000 789C6366 		.ascii	"x\234cf```a\200\000F\006IQ\000\000\273\0007"
  18      60606061 
  18      80004606 
  18      49510000 
  18      BB0037
  19              		.text
  20              		.section	.gnu.lto_.jmpfuncs.b9498b38,"",%progbits
  21 0000 789C6366 		.ascii	"x\234cf\300\016\204\2404\013\003##c=#\210`b``\006\212"
  21      C00E84A0 
  21      340B0323 
  21      23633D23 
  21      88606260 
  22 0017 00000DC0 		.ascii	"\000\000\015\300\001$"
  22      0124
  23              		.text
  24              		.section	.gnu.lto_.inline.b9498b38,"",%progbits
  25 0000 789C6366 		.ascii	"x\234cf\300\016\022\2404\013\003\003'\007##\003#\003"
  25      C00E12A0 
  25      340B0303 
  25      27072323 
  25      032303
  26 0013 0333C701 		.ascii	"\0033\307\001;\006\266\005\362L\014,\013\344Y@\222\214"
  26      3B06B605 
  26      F24C0C2C 
  26      0BE45940 
  26      928C
  27 0025 0C1CECE8 		.ascii	"\014\034\354\350rL\027\370\301rL\014l\254\214\014Ll"
  27      724C17F8 
  27      C1724C0C 
  27      6CAC8C0C 
  27      4C6C
  28 0037 1FF420E2 		.ascii	"\037\364 \342@\300\214)\304\000\000\333l\011\322"
  28      40C08C29 
  28      C40000DB 
  28      6C09D2
  29              		.text
  30              		.section	.gnu.lto_.pureconst.b9498b38,"",%progbits
  31 0000 789C6366 		.ascii	"x\234cf``\340d\200\000\026\006)F)&)f)\000\002\305\000"
  31      6060E064 
  31      80001606 
ARM GAS  C:\Users\Thomas\AppData\Local\Temp\ccEgyoHI.s 			page 2


  31      29462926 
  31      29662900 
  32 0017 7F       		.ascii	"\177"
  33              		.text
  34              		.section	.gnu.lto_P2_Data_3_Write.b9498b38,"",%progbits
  35 0000 789C6591 		.ascii	"x\234e\221MHTQ\030\206\317{\316\2753\376\024D\313\331"
  35      4D485451 
  35      1886CF7B 
  35      CEBD33FE 
  35      1444CBD9 
  36 0014 CAA041CC 		.ascii	"\312\240A\314\302\010ZF\005m\007\334\016\014\227\351"
  36      C2085A46 
  36      056D07DC 
  36      0E0C97E9 
  37 0024 2E8448D0 		.ascii	".\204H\320\253[\317\255\301 \010\006\011\212\304\310"
  37      AB5BCFAD 
  37      C1200806 
  37      098AC4C8 
  38 0034 7E1875CC 		.ascii	"~\030u\3141\005W\006WQ\010\242d@\024D\374\201\261\237"
  38      31055706 
  38      575108A2 
  38      64401444 
  38      FC81B19F 
  39 0048 9DA26436 		.ascii	"\235\242d6\344\364}\347l\024/\234\237\373\361\274\357"
  39      E4F47DE7 
  39      6C142F9C 
  39      9FFBF1BC 
  39      EF
  40 0059 79CF7794 		.ascii	"y\317w\2248\377%h\264I!n\320\012% \013\337\204\010\033"
  40      38FF2568 
  40      B449216E 
  40      D00A2520 
  40      0BDF8408 
  41 006e 24C01B01 		.ascii	"$\300\033\001\321/\321\217_r_\242\020\225^4\267\276"
  41      D12FD18F 
  41      5F725FA2 
  41      10955E34 
  41      B7BE
  42 0080 D75AEF0D 		.ascii	"\327Z\357\015.\207\351\010\307\244;\220\326\007E\264"
  42      2E87E908 
  42      C7A43B90 
  42      D60745B4 
  43 0090 127350D2 		.ascii	"\022sP\322\317\224j\203\240\375T\345\353I<\371V\353"
  43      CF946A83 
  43      A0FD54E5 
  43      EB493CF9 
  43      56EB
  44 00a2 87D1DCA4 		.ascii	"\207\321\334\244\276I80\012E\012\\M\340JBPA`\014I\206"
  44      BE493830 
  44      0A450A5C 
  44      4DE04A42 
  44      5041600C 
  45 00b8 A79F2ECE 		.ascii	"\247\237.\316J\2252\302\221/;\213\027ZFH\270]\233\315"
  45      4A9532C2 
  45      912F3B8B 
  45      175A4648 
  45      B85D9BCD 
ARM GAS  C:\Users\Thomas\AppData\Local\Temp\ccEgyoHI.s 			page 3


  46 00cc 44E16B7D 		.ascii	"D\341k}R\257\033\371\370i\271\375\210\337\317\377[k"
  46      52AF1BF9 
  46      F869B9FD 
  46      88DFCFFF 
  46      5B6B
  47 00de 8EE529D8 		.ascii	"\216\345)\330%\224\320b3a\0021\320\302\225\362\345H"
  47      2594D062 
  47      33610231 
  47      D0C295F2 
  47      E548
  48 00f0 D7EB339F 		.ascii	"\327\3533\237\346\377\242Q\322\261\222.Je\007|\272\313"
  48      E6FFA251 
  48      D2B1922E 
  48      4A65077C 
  48      BACB
  49 0102 85184F71 		.ascii	"\205\030Oq\236\204\250\322\340\313\357\322\017\255j"
  49      9E84A8D2 
  49      E0CBEFD2 
  49      0FAD6A
  50 0111 1D0BBF9F 		.ascii	"\035\013\277\237l>\217\263\343\221\344N\014=\376\\\223"
  50      6C3E8FB3 
  50      E391E44E 
  50      0C3DFE5C 
  50      93
  51 0122 3FE5B154 		.ascii	"?\345\261T\2057\241v8\303Vu\271\322`J&\322^y\356\225"
  51      8537A176 
  51      38C35675 
  51      B9D2604A 
  51      26D25E79 
  52 0138 338CA130 		.ascii	"3\214\2410O\271\035|@\002\223\240\310(c\030b\035\217"
  52      4FB91D7C 
  52      400293A0 
  52      C8286318 
  52      621D8F
  53 014b FE0C6CC0 		.ascii	"\376\014l\300\032*\353Y\\\3721\177\221\015P\243\256"
  53      1A2AEB59 
  53      5CFA317F 
  53      910D50A3 
  53      AE
  54 015c 4C11BC0A 		.ascii	"L\021\274\012i.AI\211b\321\306\300\367b\243U\271G\322"
  54      692E4149 
  54      8962D1C6 
  54      C0F762A3 
  54      55B947D2 
  55 0170 21D5CBB5 		.ascii	"!\325\313\265\335C\305*\312\212\217$2\326+\322B\314"
  55      DD43C52A 
  55      CA8A8F24 
  55      32D62BD2 
  55      42CC
  56 0182 11F4AEB2 		.ascii	"\021\364\256\262U1\220\343\010L[\3500f\221\270\241\330"
  56      553190E3 
  56      084C5BE8 
  56      306691B8 
  56      A1D8
  57 0194 7D61D004 		.ascii	"}a\320\004:\023>\214\334\263\361g(>\211\304&\302\250"
  57      3A133E8C 
  57      DCB3F167 
ARM GAS  C:\Users\Thomas\AppData\Local\Temp\ccEgyoHI.s 			page 4


  57      283E89C4 
  57      26C2A8
  58 01a7 E632CF6F 		.ascii	"\3462\317oP\245\207\244NQ\337\222\251\314]\377\201\337"
  58      50A587A4 
  58      4E51DF92 
  58      A9CC5DFF 
  58      81DF
  59 01b9 ED05FEBD 		.ascii	"\355\005\376\275lGWow\316\317\244;\272n_\317\244\333"
  59      6C47576F 
  59      77CECFA4 
  59      3BBA6E5F 
  59      CFA4DB
  60 01cc B377BCC0 		.ascii	"\263w\274\300\313^K\345\204\333\347\335\357\365\233"
  60      CB5E4BE5 
  60      84DBE7DD 
  60      EFF59B
  61 01db 7A022FE8 		.ascii	"z\002/\350\314\335\352\014z\376\003a~\317\026"
  61      CCDDEA0C 
  61      7AFE0361 
  61      7ECF16
  62              		.text
  63              		.section	.gnu.lto_P2_Data_3_SetDriveMode.b9498b38,"",%progbits
  64 0000 789C7D51 		.ascii	"x\234}QKHBA\024\275g\346=?H\021\255\302\275T \005E\373"
  64      4B484241 
  64      14BD67E6 
  64      3D3F4811 
  64      ADC2BD54 
  65 0018 A0A86DD0 		.ascii	"\240\250m\320V\020\261\267,Al\335\323\214\300\225\265"
  65      5610B1B7 
  65      2C416CDD 
  65      D38CC095 
  65      B5
  66 0029 0A248822 		.ascii	"\012$\210\"\372\177\240E[\261vAa\004\222Pm\354\013E"
  66      FA7FA045 
  66      5BB17641 
  66      61049250 
  66      6DEC0B45 
  67 003d 62581662 		.ascii	"bX\026bw\236.\204\240\341\315\235{.\347\234w\347\216"
  67      779E2E84 
  67      A0E1CD9D 
  67      7B2EE79C 
  67      77E78E
  68 0050 A4BFCBCD 		.ascii	"\244\277\313\315\373\005D^>!\011\"yN\024u\010@%\004"
  68      FB05445E 
  68      3E210922 
  68      794E1475 
  68      08402504 
  69 0064 9A1198C1 		.ascii	"\232\021\230\301\263(\012$\323;K\256\316u\3234\337W"
  69      B3280A24 
  69      D33B4BAE 
  69      CE75D334 
  69      DF57
  70 0076 8F3BE63A 		.ascii	"\217;\346:*\202\250$\3526\330@'S\036+\317\033-\262\013"
  70      2A82A824 
  70      EA36D840 
  70      27531E2B 
  70      CF1B2DB2 
ARM GAS  C:\Users\Thomas\AppData\Local\Temp\ccEgyoHI.s 			page 5


  71 008b C4797521 		.ascii	"\304yu!w)<k\246\031K\237\355\233\203\250\260\347&$+"
  71      77293C6B 
  71      A6194B9F 
  71      ED9B83A8 
  71      B0E72624 
  72 00a0 E075A3DB 		.ascii	"\340u\243\333M\\ l\301\243\310\305x5\347\262\305\331"
  72      4D5C206C 
  72      C1A3C8C5 
  72      7835E7B2 
  72      C5D9
  73 00b2 BBADEE89 		.ascii	"\273\255\356\211m\330\270-:hO\233\265Z\351fa\263\027"
  73      6DD8B82D 
  73      3A684F9B 
  73      B55AE966 
  73      61B317
  74 00c5 2EC11A21 		.ascii	".\301\032!9HM\005\035JnS\251]\005\207\012N\305!*\360"
  74      39484D05 
  74      1D4A6E53 
  74      A95D0587 
  74      0A4EC521 
  75 00db 5637B867 		.ascii	"V7\270g\300\247\314#SN<\2444\345\373)\324u\276\253\345"
  75      C0A7CC23 
  75      534E3CA4 
  75      34E5FB29 
  75      D475BEAB 
  76 00f0 45F1242A 		.ascii	"E\361$*BK\254DMMuqW\270\310:\254\022)\270w5\177\242"
  76      424BAC44 
  76      4D4D7571 
  76      57B8C83A 
  76      AC1229B8 
  77 0108 2F23158D 		.ascii	"/#\025\215s\363:v\340\306.x`\330\3032(\217\330\255\275"
  77      73F33A76 
  77      E0C62E78 
  77      60D8C332 
  77      288FD8AD 
  78 011d 6E27D991 		.ascii	"n'\331\221\361\354\227\255\2165.\261\376\372\355\375"
  78      F1EC97AD 
  78      8E352EB1 
  78      FEFAEDFD 
  79 012d CCB293C5 		.ascii	"\314\262\223\305Zc\361,\367\331\242I\313\237\336\254"
  79      5A63F12C 
  79      F7D9A249 
  79      CB9FDEAC 
  80 013d B57389B5 		.ascii	"\265s\211\265\331\243\327S\335\322\266\022\016,\311"
  80      D9A3D753 
  80      DDD2B612 
  80      0E2CC9
  81 014c EC4783E2 		.ascii	"\354G\203\342\260\376`ovqr\225qf\021\012\377\327\373"
  81      B0FE606F 
  81      76717295 
  81      7166110A 
  81      FFD7FB
  82 015f 21F7CE7C 		.ascii	"!\367\316|\272E4\3753\242\330\352\375\012\374\026<&"
  82      BA4534FD 
  82      33A2D8EA 
  82      FD0AFC16 
  82      3C26
ARM GAS  C:\Users\Thomas\AppData\Local\Temp\ccEgyoHI.s 			page 6


  83 0171 1E9AA7C7 		.ascii	"\036\232\247\3077jL\031\341@\304\230\360\217\207\246"
  83      376A4C19 
  83      E140C498 
  83      F08F87A6 
  84 0181 C341C337 		.ascii	"\303A\30376\036\032\032\360\215\365\371\207\003\221"
  84      361E1A1A 
  84      F08DF5F9 
  84      870391
  85 0190 80BFBF27 		.ascii	"\200\277\277'H\332dh\302\370\005\017\322\270\353"
  85      48DA6468 
  85      C2F8050F 
  85      D2B8EB
  86              		.text
  87              		.section	.gnu.lto_P2_Data_3_Read.b9498b38,"",%progbits
  88 0000 789C6550 		.ascii	"x\234eP=HBQ\024>\337}?\012BDS\270\207\004\342P\264\324"
  88      3D484251 
  88      143EDF7D 
  88      3F0A4244 
  88      53B88704 
  89 0018 58D02AB9 		.ascii	"X\320*\271\012\"\366\326\004\261\331\367\314,\232\322"
  89      0A22F6D6 
  89      04B1D9F7 
  89      CC2C9AD2 
  90 0028 292A1D82 		.ascii	")*\035\202\250\264h\010\202\202 \234\034\302\210\002"
  90      A8B46808 
  90      8282209C 
  90      1CC28802 
  91 0038 43E2B528 		.ascii	"C\342\265(\324\226\364\373\206\262s}m]\270\347\334s"
  91      D496F4FB 
  91      86B2737D 
  91      6D5DB8E7 
  91      DC73
  92 004a CE77BEEF 		.ascii	"\316w\276\357\234\253\320\377\343\347;\007\242\000{"
  92      9CABD0FF 
  92      E3E73B07 
  92      A2007B
  93 0059 2804B1DE 		.ascii	"(\004\261\336 \262\274\002\220\017\002e\0042x\026]\201"
  93      20B2BC02 
  93      900F0265 
  93      04327816 
  93      5D81
  94 006b ABB39F5B 		.ascii	"\253\263\237[\004vM3\373R\274x\360-\017;\202\350U\020"
  94      04764D33 
  94      FB52BC78 
  94      F02D0F3B 
  94      82E85510 
  95 007f 827E8C4A 		.ascii	"\202~\214J\036\354!@\014\354\346\276\233>=g\232\346"
  95      1EEC2140 
  95      0CECE6BE 
  95      9B3E3D67 
  95      9AE6
  96 0091 A0AC7361 		.ascii	"\240\254sa\037:k\320\361\320\245\331\353\235\274\027"
  96      1F3A6BD0 
  96      F1D0A5D9 
  96      EB9DBC17 
  97 00a1 56A7E001 		.ascii	"V\247\340\0019\202\025\331\250l\204&\215N\222\223\332"
  97      398215D9 
ARM GAS  C:\Users\Thomas\AppData\Local\Temp\ccEgyoHI.s 			page 7


  97      A86C8426 
  97      8D4E9293 
  97      DA
  98 00b2 6CA47C47 		.ascii	"l\244|G\010\351\225\026j\037kvyR\362|\012\205%j\215"
  98      08E99516 
  98      6A1F6B76 
  98      7952F27C 
  98      0A85256A 
  99 00c7 6A597D12 		.ascii	"jY}\022\216P\012;\226\251J\325\307\366\365\215\267\237"
  99      8E500A3B 
  99      96A94AD5 
  99      C7F6F58D 
  99      B79F
 100 00d9 22196E9F 		.ascii	"\"\031n\237V\352\003%lY98B\305\001\374\250\200\247D"
 100      56EA0325 
 100      6C593938 
 100      42C501FC 
 100      A880A744 
 101 00ed 1525500B 		.ascii	"\025%P\013K_\371;\305%\204\313y^\254o\350\222\200\007"
 101      4B5FF93B 
 101      C52584CB 
 101      795EAC6F 
 101      E8928007 
 102 0101 C221635B 		.ascii	"\302!c[\310\332\036\027\2422J6\331\371\266\346f4Nr\323"
 102      C8DA1E17 
 102      A2324A36 
 102      D9F9B6E6 
 102      66344E72 
 103 0116 66B3F3A6 		.ascii	"f\263\363\246\310&\215?\342\310m\272_\011\272\030\011"
 103      C8268D3F 
 103      E2C86DBA 
 103      5F09BA18 
 103      09
 104 0127 231BF88B 		.ascii	"#\033\370\213\372\233An\304\373\215\204\242\263\306"
 104      FA9B416E 
 104      C4FB8D84 
 104      A2B3C6
 105 0136 82918AA7 		.ascii	"\202\221\212\247\215\371X$\271\230J\030\321p$9=\021"
 105      8DF95824 
 105      B9984A18 
 105      D1702439 
 105      3D11
 106 0148 0D8FC566 		.ascii	"\015\217\305f\342\351xl<\224\240_,\265\200\306"
 106      E2E9786C 
 106      3C94A05F 
 106      2CB580C6 
 107              		.text
 108              		.section	.gnu.lto_P2_Data_3_ReadDataReg.b9498b38,"",%progbits
 109 0000 789C6550 		.ascii	"x\234eP?HBa\020\277\337\275\367Tp\211\246p\017)\304"
 109      3F484261 
 109      10BFDFBD 
 109      F7547089 
 109      A6700F29 
 110 0015 A168692D 		.ascii	"\241hi-h\225\\\005\021{k\202\330\354\323L\243I\234\""
 110      68955C05 
 110      117B6B82 
 110      D8ECD34C 
ARM GAS  C:\Users\Thomas\AppData\Local\Temp\ccEgyoHI.s 			page 8


 110      A3499C22 
 111 0029 B12188B2 		.ascii	"\261!\210\262?84\025\015\321\344\020I\031\030\022\266"
 111      3F383415 
 111      0DD1E410 
 111      49191812 
 111      B6
 112 003a 28D4A614 		.ascii	"(\324\246\024\225D\332}\276\266>\370\356\276\273\373"
 112      9544DA7D 
 112      BEB63EF8 
 112      EEBEBBFB 
 113 004a DDEF77F7 		.ascii	"\335\357w\367i\364\377x\344.\203\310+\036\032\201\363"
 113      69F4FF78 
 113      E42E83C8 
 113      2B1E1A81 
 113      F3
 114 005b B7442917 		.ascii	"\267D)\027\003\352A\240$#\211W\3561n\316\007ux\367-"
 114      03EA41A0 
 114      24238957 
 114      EE316ECE 
 114      077578F7 
 115 0070 2BDDBDAF 		.ascii	"+\335\275\257?\2717&\372L\364\306\004\237\007S\212\007"
 115      3FB93726 
 115      FA4CF4C6 
 115      049F0753 
 115      8A07
 116 0082 07F09200 		.ascii	"\007\360\222\000{\231\237\206\333\221\261,kL\325\245"
 116      7B999F86 
 116      DB91B12C 
 116      6B4CD5A5 
 117 0092 70088768 		.ascii	"p\010\207hPe\374\312\032\016\317j\205\315iv\202\372"
 117      5065FCCA 
 117      1A0ECF6A 
 117      85CD6976 
 117      82FA
 118 00a4 2C8A6274 		.ascii	",\212bt1l(\343 \305Im1J\276\303\254\274\326\304\365"
 118      316C28E3 
 118      20C5496D 
 118      314ABEC3 
 118      ACBCD6C4 
 119 00b9 C7D6A03C 		.ascii	"\307\326\240<\257x>Y\023\211b\256\372\315/\334g-\277"
 119      AF783E59 
 119      138962AE 
 119      FACD2FDC 
 119      672DBF
 120 00cc 97B274A5 		.ascii	"\227\262t\245\372\334\256\335\271F)Ra\267r\271\253\227"
 120      FADCAEDD 
 120      B9462952 
 120      61B772B9 
 120      AB97
 121 00de 504C65D0 		.ascii	"PLe\320g\035exp\004\231\022\307(\201\232X\377\312>h"
 121      671D6578 
 121      70049912 
 121      C728819A 
 121      58FFCA3E 
 122 00f3 36216CCE 		.ascii	"6!l\316\213Bu\333\241\010d \234\010\266\211t\313iCt"
 122      8B4275DB 
 122      A1086420 
ARM GAS  C:\Users\Thomas\AppData\Local\Temp\ccEgyoHI.s 			page 9


 122      9C08B689 
 122      74CB6943 
 123 0108 41A9A656 		.ascii	"A\251\246V\266m\330\031C\222\322\264\323\350\274k\252"
 123      B66DD819 
 123      4392D2B4 
 123      D3E8BC6B 
 123      AA
 124 0119 C9908F38 		.ascii	"\311\220\2178\265\233\036s>\033\243`\324\002\376\242"
 124      B59B1E73 
 124      3E1BA360 
 124      D402FEA2 
 125 0129 D166501B 		.ascii	"\321fP\033\311~\223\376\320\222\271j\306#\011s%\034"
 125      C97E93FE 
 125      D092B96A 
 125      C6230973 
 125      251C
 126 013b 8CADC5A3 		.ascii	"\214\255\305\243f(\020\214-\314\205\0023\341\305H\""
 126      6628108C 
 126      2DCC8502 
 126      33E1C548 
 126      22
 127 014c 129EF547 		.ascii	"\022\236\365G\351\027\272C\201F"
 127      E917BA43 
 127      8146
 128              		.text
 129              		.section	.gnu.lto_.symbol_nodes.b9498b38,"",%progbits
 130 0000 789C6366 		.ascii	"x\234cf``pb\200\002&\206z\006\206\011\347\030\030\352"
 130      60607062 
 130      80022686 
 130      7A068609 
 130      E71818EA 
 131 0014 EB19E62D 		.ascii	"\353\031\346-\340``b\254gD\3413\3253\241\360\231\353"
 131      E0606062 
 131      AC6744E1 
 131      33D533A1 
 131      F099EB
 132 0027 9991F90C 		.ascii	"\231\221\371\014\0003\356\020\336"
 132      0033EE10 
 132      DE
 133              		.text
 134              		.section	.gnu.lto_.refs.b9498b38,"",%progbits
 135 0000 789C6366 		.ascii	"x\234cf```d\200\002\000\000=\000\005"
 135      60606064 
 135      80020000 
 135      3D0005
 136              		.text
 137              		.section	.gnu.lto_.decls.b9498b38,"",%progbits
 138 0000 789C8D92 		.ascii	"x\234\215\222]H\024Q\024\307\357\231;\256:\255[/\255"
 138      5D481451 
 138      14C7EF99 
 138      3BAE3AAD 
 138      5B2FAD
 139 0013 B1042D44 		.ascii	"\261\004-DB >$\201o\005\032JP,J\364\240\260,:\330\276"
 139      42203E24 
 139      816F051A 
 139      4A502C4A 
 139      F4A0B02C 
ARM GAS  C:\Users\Thomas\AppData\Local\Temp\ccEgyoHI.s 			page 10


 140 002a 686C6BE0 		.ascii	"hlk\340S\327\217p]#E\2126C\023\374JS\363{]5\233}[\020"
 140      53D78F70 
 140      5D23458A 
 140      364313FC 
 140      4A53F37B 
 141 0044 7BD1240D 		.ascii	"{\321$\015\"\363\305zi\215\012\003i:sw\327\231l\005"
 141      22F3C57A 
 141      698D0A03 
 141      693A7377 
 141      D7996C05 
 142 0058 0F9C997B 		.ascii	"\017\234\231{f\316\357\177\316\275\367PB\210\035\010"
 142      66CEEF7F 
 142      CEBDF750 
 142      42881D08 
 143 0068 51D1AE50 		.ascii	"Q\321\256PB\0061NAw\020\335D\364\011\364)\364 z\210"
 143      4206314E 
 143      417710DD 
 143      44F409F4 
 143      29F4207A 
 144 007d FC6F1306 		.ascii	"\374o\023\006n\004\335\212\276\210\276\020\377\017\361"
 144      6E04DD8A 
 144      BE88BE10 
 144      FF0FF1
 145 008c 9C83A669 		.ascii	"\234\203\246i\232\016pJ\022v*\011\033\214\263\011\256"
 145      9A0E704A 
 145      12762A09 
 145      1B8CB309 
 145      AE
 146 009d C8C05D35 		.ascii	"\310\300]5\260\301$l\350\210l\262\275\356\010\020\032"
 146      B0C1246C 
 146      E8886CB2 
 146      BDEE0810 
 146      1A
 147 00ae FDB17C6C 		.ascii	"\375\261|l[\000\213d\327\302\271\366H\300\204\241Y\022"
 147      5B008B64 
 147      D7C2B9F6 
 147      48C084A1 
 147      5912
 148 00c0 B570ED4D 		.ascii	"\265p\355MSS\032\025@[\367\0046W\245\354!\306\230\217"
 148      53531A15 
 148      405BF704 
 148      3657A5EC 
 148      21C6988F 
 149 00d4 290AE812 		.ascii	")\012\350\022u\375\363\017R\221\261J<|\270\324\021\246"
 149      75FDF30F 
 149      5291B14A 
 149      3C7CB8D4 
 149      11A6
 150 00e6 3C54354E 		.ascii	"<T5NX_\177\364\233\202\224\345c\254\236E\333\031=E "
 150      585F7FF4 
 150      9B8294E5 
 150      63AC9E45 
 150      DB193D45 
 151 00fb DB06E76D 		.ascii	"\333\006\347m\004F!\013\323`\010\262\011\274\004\033"
 151      0446210B 
 151      D36008B2 
 151      09BC041B 
ARM GAS  C:\Users\Thomas\AppData\Local\Temp\ccEgyoHI.s 			page 11


 152 010b 0C838DF4 		.ascii	"\014\203\215\364b\201\350\363\325\215\323\214\2110\002"
 152      6281E8F3 
 152      D58DD38C 
 152      893002
 153 011a 120C02E5 		.ascii	"\022\014\002\345\031\270\015\255B\274h\333\375p\233"
 153      19B80DAD 
 153      42BC68DB 
 153      FD709B
 154 0129 280AF851 		.ascii	"(\012\370Q\313)\345\335\376T7\373\204\314\307(\300\332"
 154      CB29E5DD 
 154      FE5437FB 
 154      84CCC728 
 154      C0DA
 155 013b 1AD80911 		.ascii	"\032\330\011\021\034V\030@\331\027(K`\0142\361\371\012"
 155      1C561840 
 155      D917284B 
 155      600C32F1 
 155      F90A
 156 014d C498C050 		.ascii	"\304\230\300P\323\312\2734\232\313\267\326\257\014\277"
 156      D3CABB34 
 156      9ACBB7D6 
 156      AF0CBF
 157 015c A7F62ED6 		.ascii	"\247\366.\326=\026m\351\351\242OYw=\373\243b\373\032"
 157      3D166DE9 
 157      E9A24F59 
 157      773DFBA3 
 157      62FB1A
 158 016f 04E3FB0D 		.ascii	"\004\343\373\015\020m\035;\321\011\260#\370\2559\362"
 158      106D1D3B 
 158      D109B023 
 158      F8AD39F2 
 159 017f DD42DD5C 		.ascii	"\335B\335\\d\245\356\3433\201\213t\317\365\230\"LQ\325"
 159      64A5EEE3 
 159      33818B74 
 159      CFF59822 
 159      4C51D5
 160 0192 4B9C9F34 		.ascii	"K\234\2374\360\223\011~\212\363\315\215c\324\330\260"
 160      F093097E 
 160      8AF3CD8D 
 160      63D4D8B0 
 161 01a2 B617BDE3 		.ascii	"\266\027\275\343i\336qi\274\341\361\226\216p\006e\300"
 161      69DE7169 
 161      BCE1F196 
 161      8E700665 
 161      C0
 162 01b3 8B45FCD1 		.ascii	"\213E\374\321E\211\027\373\364eKV\032\331\236\252RN"
 162      458917FB 
 162      F4654B56 
 162      1AD99EAA 
 162      524E
 163 01c5 C08CA1DC 		.ascii	"\300\214\241\334L\242\\\220\227[\232\377\360\325D[c"
 163      4CA25C90 
 163      975B9AFF 
 163      F0D5445B 
 163      63
 164 01d6 124AE79E 		.ascii	"\022J\347\236/\336og_\242_M`\326 0\233\020\010q\001"
 164      2FDE6F67 
ARM GAS  C:\Users\Thomas\AppData\Local\Temp\ccEgyoHI.s 			page 12


 164      5FA25F4D 
 164      60D62030 
 164      9B100871 
 165 01eb F6A4A537 		.ascii	"\366\244\2457\215\366\305\004\246\177\371C\031\022^"
 165      8DF6C504 
 165      A67FF943 
 165      19125E
 166 01fa 6BC311AE 		.ascii	"k\303\021\256\025\007a\365\255\177-=6\010\007\211\327"
 166      150761F5 
 166      AD7F2D3D 
 166      36080789 
 166      D7
 167 020b 870EC2EE 		.ascii	"\207\016\302\356VQ#\273\014\013x0s\372 \314\203>\011"
 167      565123BB 
 167      0C0B7830 
 167      73FA20CC 
 167      833E09
 168 021e CD9F3B96 		.ascii	"\315\237;\226\315f\2776]x\210\351\021\013O\326Oq\021"
 168      CD66BF36 
 168      5D7888E9 
 168      110B4FD6 
 168      4F7111
 169 0231 CC7C07F8 		.ascii	"\314|\007\370\336\021hx \274!\201M\262\005p\214w\317"
 169      DE116878 
 169      20BC2181 
 169      4DB20570 
 169      8C77CF
 170 0244 80824A3E 		.ascii	"\200\202J>\355\002\242\365\214\006,\211\216\010\377"
 170      ED02A2F5 
 170      8C062C89 
 170      8E08FF
 171 0253 41208C32 		.ascii	"A \2142oPF\313V\266U\365\236\032\263\326T\236\300\037"
 171      6F5046CB 
 171      56B655F5 
 171      9E1AB3D6 
 171      549EC01F 
 172 0267 2935EE2A 		.ascii	")5\356*o\236\251\360\372\015{>9\233SV(W\311\036\227"
 172      6F9EA9F0 
 172      FA0D7B3E 
 172      399B5356 
 172      2857C91E 
 173 027c 57AE7096 		.ascii	"W\256p\226T\327x\312\3452GIu\376\305\262\362Zo\355m"
 173      54D778CA 
 173      E5324749 
 173      75FEC5B2 
 173      F25A6FED 
 174 0291 F94ECE2D 		.ascii	"\371N\316-r\334q\301Y\340\362\272\234\271\316\233\036"
 174      72DC71C1 
 174      59E0F2BA 
 174      9CB9CE9B 
 174      1E
 175 02a2 B7573E77 		.ascii	"\267W>w(\263\237\230SN\254:U\"{\013<\356\273\362\265"
 175      28B39F98 
 175      534EAC3A 
 175      55227B0B 
 175      3CEEBBF2 
 176 02b7 EA0AD9A2 		.ascii	"\352\012\331\242\177.\226]\025'\377\015\265e\261\\)"
ARM GAS  C:\Users\Thomas\AppData\Local\Temp\ccEgyoHI.s 			page 13


 176      7F2E965D 
 176      1527FF0D 
 176      B565B15C 
 176      29
 177 02c8 7AE4CABC 		.ascii	"z\344\312\274\277\244\301O\\"
 177      BFA4C14F 
 177      5C
 178              		.text
 179              		.section	.gnu.lto_.symtab.b9498b38,"",%progbits
 180 0000 50325F44 		.ascii	"P2_Data_3_Write\000\000\000\000\000\000\000\000\000"
 180      6174615F 
 180      335F5772 
 180      69746500 
 180      00000000 
 181 0018 000000B2 		.ascii	"\000\000\000\262\000\000\000P2_Data_3_SetDriveMode\000"
 181      00000050 
 181      325F4461 
 181      74615F33 
 181      5F536574 
 182 0036 00000000 		.ascii	"\000\000\000\000\000\000\000\000\000\000\000\264\000"
 182      00000000 
 182      000000B4 
 182      00
 183 0043 00005032 		.ascii	"\000\000P2_Data_3_Read\000\000\000\000\000\000\000\000"
 183      5F446174 
 183      615F335F 
 183      52656164 
 183      00000000 
 184 005b 00000000 		.ascii	"\000\000\000\000\267\000\000\000P2_Data_3_ReadDataR"
 184      B7000000 
 184      50325F44 
 184      6174615F 
 184      335F5265 
 185 0076 65670000 		.ascii	"eg\000\000\000\000\000\000\000\000\000\000\000\000\271"
 185      00000000 
 185      00000000 
 185      0000B9
 186 0085 000000   		.ascii	"\000\000\000"
 187              		.text
 188              		.section	.gnu.lto_.opts,"",%progbits
 189 0000 272D666E 		.ascii	"'-fno-trapv' '-mcpu=cortex-m3' '-mthumb' '-g' '-O3'"
 189      6F2D7472 
 189      61707627 
 189      20272D6D 
 189      6370753D 
 190 0033 20272D66 		.ascii	" '-ffunction-sections' '-finline-functions' '-flto'"
 190      66756E63 
 190      74696F6E 
 190      2D736563 
 190      74696F6E 
 191 0066 20272D66 		.ascii	" '-ffat-lto-objects'\000"
 191      6661742D 
 191      6C746F2D 
 191      6F626A65 
 191      63747327 
 192              		.text
 193              		.cfi_sections	.debug_frame
ARM GAS  C:\Users\Thomas\AppData\Local\Temp\ccEgyoHI.s 			page 14


 194              		.section	.text.P2_Data_3_Write,"ax",%progbits
 195              		.align	2
 196              		.global	P2_Data_3_Write
 197              		.thumb
 198              		.thumb_func
 199              		.type	P2_Data_3_Write, %function
 200              	P2_Data_3_Write:
 201              	.LFB0:
 202              		.file 1 ".\\Generated_Source\\PSoC5\\P2_Data_3.c"
   1:.\Generated_Source\PSoC5/P2_Data_3.c **** /*******************************************************************************
   2:.\Generated_Source\PSoC5/P2_Data_3.c **** * File Name: P2_Data_3.c  
   3:.\Generated_Source\PSoC5/P2_Data_3.c **** * Version 2.20
   4:.\Generated_Source\PSoC5/P2_Data_3.c **** *
   5:.\Generated_Source\PSoC5/P2_Data_3.c **** * Description:
   6:.\Generated_Source\PSoC5/P2_Data_3.c **** *  This file contains API to enable firmware control of a Pins component.
   7:.\Generated_Source\PSoC5/P2_Data_3.c **** *
   8:.\Generated_Source\PSoC5/P2_Data_3.c **** * Note:
   9:.\Generated_Source\PSoC5/P2_Data_3.c **** *
  10:.\Generated_Source\PSoC5/P2_Data_3.c **** ********************************************************************************
  11:.\Generated_Source\PSoC5/P2_Data_3.c **** * Copyright 2008-2015, Cypress Semiconductor Corporation.  All rights reserved.
  12:.\Generated_Source\PSoC5/P2_Data_3.c **** * You may use this file only in accordance with the license, terms, conditions, 
  13:.\Generated_Source\PSoC5/P2_Data_3.c **** * disclaimers, and limitations in the end user license agreement accompanying 
  14:.\Generated_Source\PSoC5/P2_Data_3.c **** * the software package with which this file was provided.
  15:.\Generated_Source\PSoC5/P2_Data_3.c **** *******************************************************************************/
  16:.\Generated_Source\PSoC5/P2_Data_3.c **** 
  17:.\Generated_Source\PSoC5/P2_Data_3.c **** #include "cytypes.h"
  18:.\Generated_Source\PSoC5/P2_Data_3.c **** #include "P2_Data_3.h"
  19:.\Generated_Source\PSoC5/P2_Data_3.c **** 
  20:.\Generated_Source\PSoC5/P2_Data_3.c **** /* APIs are not generated for P15[7:6] on PSoC 5 */
  21:.\Generated_Source\PSoC5/P2_Data_3.c **** #if !(CY_PSOC5A &&\
  22:.\Generated_Source\PSoC5/P2_Data_3.c **** 	 P2_Data_3__PORT == 15 && ((P2_Data_3__MASK & 0xC0) != 0))
  23:.\Generated_Source\PSoC5/P2_Data_3.c **** 
  24:.\Generated_Source\PSoC5/P2_Data_3.c **** 
  25:.\Generated_Source\PSoC5/P2_Data_3.c **** /*******************************************************************************
  26:.\Generated_Source\PSoC5/P2_Data_3.c **** * Function Name: P2_Data_3_Write
  27:.\Generated_Source\PSoC5/P2_Data_3.c **** ****************************************************************************//**
  28:.\Generated_Source\PSoC5/P2_Data_3.c **** *
  29:.\Generated_Source\PSoC5/P2_Data_3.c **** * \brief Writes the value to the physical port (data output register), masking
  30:.\Generated_Source\PSoC5/P2_Data_3.c **** *  and shifting the bits appropriately. 
  31:.\Generated_Source\PSoC5/P2_Data_3.c **** *
  32:.\Generated_Source\PSoC5/P2_Data_3.c **** * The data output register controls the signal applied to the physical pin in 
  33:.\Generated_Source\PSoC5/P2_Data_3.c **** * conjunction with the drive mode parameter. This function avoids changing 
  34:.\Generated_Source\PSoC5/P2_Data_3.c **** * other bits in the port by using the appropriate method (read-modify-write or
  35:.\Generated_Source\PSoC5/P2_Data_3.c **** * bit banding).
  36:.\Generated_Source\PSoC5/P2_Data_3.c **** *
  37:.\Generated_Source\PSoC5/P2_Data_3.c **** * <b>Note</b> This function should not be used on a hardware digital output pin 
  38:.\Generated_Source\PSoC5/P2_Data_3.c **** * as it is driven by the hardware signal attached to it.
  39:.\Generated_Source\PSoC5/P2_Data_3.c **** *
  40:.\Generated_Source\PSoC5/P2_Data_3.c **** * \param value
  41:.\Generated_Source\PSoC5/P2_Data_3.c **** *  Value to write to the component instance.
  42:.\Generated_Source\PSoC5/P2_Data_3.c **** *
  43:.\Generated_Source\PSoC5/P2_Data_3.c **** * \return 
  44:.\Generated_Source\PSoC5/P2_Data_3.c **** *  None 
  45:.\Generated_Source\PSoC5/P2_Data_3.c **** *
  46:.\Generated_Source\PSoC5/P2_Data_3.c **** * \sideeffect
  47:.\Generated_Source\PSoC5/P2_Data_3.c **** *  If you use read-modify-write operations that are not atomic; the Interrupt 
  48:.\Generated_Source\PSoC5/P2_Data_3.c **** *  Service Routines (ISR) can cause corruption of this function. An ISR that 
ARM GAS  C:\Users\Thomas\AppData\Local\Temp\ccEgyoHI.s 			page 15


  49:.\Generated_Source\PSoC5/P2_Data_3.c **** *  interrupts this function and performs writes to the Pins component data 
  50:.\Generated_Source\PSoC5/P2_Data_3.c **** *  register can cause corrupted port data. To avoid this issue, you should 
  51:.\Generated_Source\PSoC5/P2_Data_3.c **** *  either use the Per-Pin APIs (primary method) or disable interrupts around 
  52:.\Generated_Source\PSoC5/P2_Data_3.c **** *  this function.
  53:.\Generated_Source\PSoC5/P2_Data_3.c **** *
  54:.\Generated_Source\PSoC5/P2_Data_3.c **** * \funcusage
  55:.\Generated_Source\PSoC5/P2_Data_3.c **** *  \snippet P2_Data_3_SUT.c usage_P2_Data_3_Write
  56:.\Generated_Source\PSoC5/P2_Data_3.c **** *******************************************************************************/
  57:.\Generated_Source\PSoC5/P2_Data_3.c **** void P2_Data_3_Write(uint8 value)
  58:.\Generated_Source\PSoC5/P2_Data_3.c **** {
 203              		.loc 1 58 0
 204              		.cfi_startproc
 205              		@ args = 0, pretend = 0, frame = 0
 206              		@ frame_needed = 0, uses_anonymous_args = 0
 207              		@ link register save eliminated.
 208              	.LVL0:
  59:.\Generated_Source\PSoC5/P2_Data_3.c ****     uint8 staticBits = (P2_Data_3_DR & (uint8)(~P2_Data_3_MASK));
 209              		.loc 1 59 0
 210 0000 044A     		ldr	r2, .L2
  60:.\Generated_Source\PSoC5/P2_Data_3.c ****     P2_Data_3_DR = staticBits | ((uint8)(value << P2_Data_3_SHIFT) & P2_Data_3_MASK);
 211              		.loc 1 60 0
 212 0002 8000     		lsls	r0, r0, #2
 213              	.LVL1:
  59:.\Generated_Source\PSoC5/P2_Data_3.c ****     uint8 staticBits = (P2_Data_3_DR & (uint8)(~P2_Data_3_MASK));
 214              		.loc 1 59 0
 215 0004 1378     		ldrb	r3, [r2]	@ zero_extendqisi2
 216              	.LVL2:
 217              		.loc 1 60 0
 218 0006 00F00400 		and	r0, r0, #4
  59:.\Generated_Source\PSoC5/P2_Data_3.c ****     uint8 staticBits = (P2_Data_3_DR & (uint8)(~P2_Data_3_MASK));
 219              		.loc 1 59 0
 220 000a 03F0FB03 		and	r3, r3, #251
 221              	.LVL3:
 222              		.loc 1 60 0
 223 000e 1843     		orrs	r0, r0, r3
 224 0010 1070     		strb	r0, [r2]
 225 0012 7047     		bx	lr
 226              	.L3:
 227              		.align	2
 228              	.L2:
 229 0014 10510040 		.word	1073762576
 230              		.cfi_endproc
 231              	.LFE0:
 232              		.size	P2_Data_3_Write, .-P2_Data_3_Write
 233              		.section	.text.P2_Data_3_SetDriveMode,"ax",%progbits
 234              		.align	2
 235              		.global	P2_Data_3_SetDriveMode
 236              		.thumb
 237              		.thumb_func
 238              		.type	P2_Data_3_SetDriveMode, %function
 239              	P2_Data_3_SetDriveMode:
 240              	.LFB1:
  61:.\Generated_Source\PSoC5/P2_Data_3.c **** }
  62:.\Generated_Source\PSoC5/P2_Data_3.c **** 
  63:.\Generated_Source\PSoC5/P2_Data_3.c **** 
  64:.\Generated_Source\PSoC5/P2_Data_3.c **** /*******************************************************************************
  65:.\Generated_Source\PSoC5/P2_Data_3.c **** * Function Name: P2_Data_3_SetDriveMode
ARM GAS  C:\Users\Thomas\AppData\Local\Temp\ccEgyoHI.s 			page 16


  66:.\Generated_Source\PSoC5/P2_Data_3.c **** ****************************************************************************//**
  67:.\Generated_Source\PSoC5/P2_Data_3.c **** *
  68:.\Generated_Source\PSoC5/P2_Data_3.c **** * \brief Sets the drive mode for each of the Pins component's pins.
  69:.\Generated_Source\PSoC5/P2_Data_3.c **** * 
  70:.\Generated_Source\PSoC5/P2_Data_3.c **** * <b>Note</b> This affects all pins in the Pins component instance. Use the
  71:.\Generated_Source\PSoC5/P2_Data_3.c **** * Per-Pin APIs if you wish to control individual pin's drive modes.
  72:.\Generated_Source\PSoC5/P2_Data_3.c **** *
  73:.\Generated_Source\PSoC5/P2_Data_3.c **** * \param mode
  74:.\Generated_Source\PSoC5/P2_Data_3.c **** *  Mode for the selected signals. Valid options are documented in 
  75:.\Generated_Source\PSoC5/P2_Data_3.c **** *  \ref driveMode.
  76:.\Generated_Source\PSoC5/P2_Data_3.c **** *
  77:.\Generated_Source\PSoC5/P2_Data_3.c **** * \return
  78:.\Generated_Source\PSoC5/P2_Data_3.c **** *  None
  79:.\Generated_Source\PSoC5/P2_Data_3.c **** *
  80:.\Generated_Source\PSoC5/P2_Data_3.c **** * \sideeffect
  81:.\Generated_Source\PSoC5/P2_Data_3.c **** *  If you use read-modify-write operations that are not atomic, the ISR can
  82:.\Generated_Source\PSoC5/P2_Data_3.c **** *  cause corruption of this function. An ISR that interrupts this function 
  83:.\Generated_Source\PSoC5/P2_Data_3.c **** *  and performs writes to the Pins component Drive Mode registers can cause 
  84:.\Generated_Source\PSoC5/P2_Data_3.c **** *  corrupted port data. To avoid this issue, you should either use the Per-Pin
  85:.\Generated_Source\PSoC5/P2_Data_3.c **** *  APIs (primary method) or disable interrupts around this function.
  86:.\Generated_Source\PSoC5/P2_Data_3.c **** *
  87:.\Generated_Source\PSoC5/P2_Data_3.c **** * \funcusage
  88:.\Generated_Source\PSoC5/P2_Data_3.c **** *  \snippet P2_Data_3_SUT.c usage_P2_Data_3_SetDriveMode
  89:.\Generated_Source\PSoC5/P2_Data_3.c **** *******************************************************************************/
  90:.\Generated_Source\PSoC5/P2_Data_3.c **** void P2_Data_3_SetDriveMode(uint8 mode)
  91:.\Generated_Source\PSoC5/P2_Data_3.c **** {
 241              		.loc 1 91 0
 242              		.cfi_startproc
 243              		@ args = 0, pretend = 0, frame = 0
 244              		@ frame_needed = 0, uses_anonymous_args = 0
 245              		@ link register save eliminated.
 246              	.LVL4:
  92:.\Generated_Source\PSoC5/P2_Data_3.c **** 	CyPins_SetPinDriveMode(P2_Data_3_0, mode);
 247              		.loc 1 92 0
 248 0000 044A     		ldr	r2, .L5
 249 0002 00F00E00 		and	r0, r0, #14
 250              	.LVL5:
 251 0006 1378     		ldrb	r3, [r2]	@ zero_extendqisi2
 252 0008 03F0F103 		and	r3, r3, #241
 253 000c 1843     		orrs	r0, r0, r3
 254 000e 1070     		strb	r0, [r2]
 255 0010 7047     		bx	lr
 256              	.L6:
 257 0012 00BF     		.align	2
 258              	.L5:
 259 0014 0A500040 		.word	1073762314
 260              		.cfi_endproc
 261              	.LFE1:
 262              		.size	P2_Data_3_SetDriveMode, .-P2_Data_3_SetDriveMode
 263              		.section	.text.P2_Data_3_Read,"ax",%progbits
 264              		.align	2
 265              		.global	P2_Data_3_Read
 266              		.thumb
 267              		.thumb_func
 268              		.type	P2_Data_3_Read, %function
 269              	P2_Data_3_Read:
 270              	.LFB2:
ARM GAS  C:\Users\Thomas\AppData\Local\Temp\ccEgyoHI.s 			page 17


  93:.\Generated_Source\PSoC5/P2_Data_3.c **** }
  94:.\Generated_Source\PSoC5/P2_Data_3.c **** 
  95:.\Generated_Source\PSoC5/P2_Data_3.c **** 
  96:.\Generated_Source\PSoC5/P2_Data_3.c **** /*******************************************************************************
  97:.\Generated_Source\PSoC5/P2_Data_3.c **** * Function Name: P2_Data_3_Read
  98:.\Generated_Source\PSoC5/P2_Data_3.c **** ****************************************************************************//**
  99:.\Generated_Source\PSoC5/P2_Data_3.c **** *
 100:.\Generated_Source\PSoC5/P2_Data_3.c **** * \brief Reads the associated physical port (pin status register) and masks 
 101:.\Generated_Source\PSoC5/P2_Data_3.c **** *  the required bits according to the width and bit position of the component
 102:.\Generated_Source\PSoC5/P2_Data_3.c **** *  instance. 
 103:.\Generated_Source\PSoC5/P2_Data_3.c **** *
 104:.\Generated_Source\PSoC5/P2_Data_3.c **** * The pin's status register returns the current logic level present on the 
 105:.\Generated_Source\PSoC5/P2_Data_3.c **** * physical pin.
 106:.\Generated_Source\PSoC5/P2_Data_3.c **** *
 107:.\Generated_Source\PSoC5/P2_Data_3.c **** * \return 
 108:.\Generated_Source\PSoC5/P2_Data_3.c **** *  The current value for the pins in the component as a right justified number.
 109:.\Generated_Source\PSoC5/P2_Data_3.c **** *
 110:.\Generated_Source\PSoC5/P2_Data_3.c **** * \funcusage
 111:.\Generated_Source\PSoC5/P2_Data_3.c **** *  \snippet P2_Data_3_SUT.c usage_P2_Data_3_Read  
 112:.\Generated_Source\PSoC5/P2_Data_3.c **** *******************************************************************************/
 113:.\Generated_Source\PSoC5/P2_Data_3.c **** uint8 P2_Data_3_Read(void)
 114:.\Generated_Source\PSoC5/P2_Data_3.c **** {
 271              		.loc 1 114 0
 272              		.cfi_startproc
 273              		@ args = 0, pretend = 0, frame = 0
 274              		@ frame_needed = 0, uses_anonymous_args = 0
 275              		@ link register save eliminated.
 115:.\Generated_Source\PSoC5/P2_Data_3.c ****     return (P2_Data_3_PS & P2_Data_3_MASK) >> P2_Data_3_SHIFT;
 276              		.loc 1 115 0
 277 0000 024B     		ldr	r3, .L8
 278 0002 1878     		ldrb	r0, [r3]	@ zero_extendqisi2
 116:.\Generated_Source\PSoC5/P2_Data_3.c **** }
 279              		.loc 1 116 0
 280 0004 C0F38000 		ubfx	r0, r0, #2, #1
 281 0008 7047     		bx	lr
 282              	.L9:
 283 000a 00BF     		.align	2
 284              	.L8:
 285 000c 11510040 		.word	1073762577
 286              		.cfi_endproc
 287              	.LFE2:
 288              		.size	P2_Data_3_Read, .-P2_Data_3_Read
 289              		.section	.text.P2_Data_3_ReadDataReg,"ax",%progbits
 290              		.align	2
 291              		.global	P2_Data_3_ReadDataReg
 292              		.thumb
 293              		.thumb_func
 294              		.type	P2_Data_3_ReadDataReg, %function
 295              	P2_Data_3_ReadDataReg:
 296              	.LFB3:
 117:.\Generated_Source\PSoC5/P2_Data_3.c **** 
 118:.\Generated_Source\PSoC5/P2_Data_3.c **** 
 119:.\Generated_Source\PSoC5/P2_Data_3.c **** /*******************************************************************************
 120:.\Generated_Source\PSoC5/P2_Data_3.c **** * Function Name: P2_Data_3_ReadDataReg
 121:.\Generated_Source\PSoC5/P2_Data_3.c **** ****************************************************************************//**
 122:.\Generated_Source\PSoC5/P2_Data_3.c **** *
 123:.\Generated_Source\PSoC5/P2_Data_3.c **** * \brief Reads the associated physical port's data output register and masks 
ARM GAS  C:\Users\Thomas\AppData\Local\Temp\ccEgyoHI.s 			page 18


 124:.\Generated_Source\PSoC5/P2_Data_3.c **** *  the correct bits according to the width and bit position of the component 
 125:.\Generated_Source\PSoC5/P2_Data_3.c **** *  instance. 
 126:.\Generated_Source\PSoC5/P2_Data_3.c **** *
 127:.\Generated_Source\PSoC5/P2_Data_3.c **** * The data output register controls the signal applied to the physical pin in 
 128:.\Generated_Source\PSoC5/P2_Data_3.c **** * conjunction with the drive mode parameter. This is not the same as the 
 129:.\Generated_Source\PSoC5/P2_Data_3.c **** * preferred P2_Data_3_Read() API because the 
 130:.\Generated_Source\PSoC5/P2_Data_3.c **** * P2_Data_3_ReadDataReg() reads the data register instead of the status 
 131:.\Generated_Source\PSoC5/P2_Data_3.c **** * register. For output pins this is a useful function to determine the value 
 132:.\Generated_Source\PSoC5/P2_Data_3.c **** * just written to the pin.
 133:.\Generated_Source\PSoC5/P2_Data_3.c **** *
 134:.\Generated_Source\PSoC5/P2_Data_3.c **** * \return 
 135:.\Generated_Source\PSoC5/P2_Data_3.c **** *  The current value of the data register masked and shifted into a right 
 136:.\Generated_Source\PSoC5/P2_Data_3.c **** *  justified number for the component instance.
 137:.\Generated_Source\PSoC5/P2_Data_3.c **** *
 138:.\Generated_Source\PSoC5/P2_Data_3.c **** * \funcusage
 139:.\Generated_Source\PSoC5/P2_Data_3.c **** *  \snippet P2_Data_3_SUT.c usage_P2_Data_3_ReadDataReg 
 140:.\Generated_Source\PSoC5/P2_Data_3.c **** *******************************************************************************/
 141:.\Generated_Source\PSoC5/P2_Data_3.c **** uint8 P2_Data_3_ReadDataReg(void)
 142:.\Generated_Source\PSoC5/P2_Data_3.c **** {
 297              		.loc 1 142 0
 298              		.cfi_startproc
 299              		@ args = 0, pretend = 0, frame = 0
 300              		@ frame_needed = 0, uses_anonymous_args = 0
 301              		@ link register save eliminated.
 143:.\Generated_Source\PSoC5/P2_Data_3.c ****     return (P2_Data_3_DR & P2_Data_3_MASK) >> P2_Data_3_SHIFT;
 302              		.loc 1 143 0
 303 0000 024B     		ldr	r3, .L11
 304 0002 1878     		ldrb	r0, [r3]	@ zero_extendqisi2
 144:.\Generated_Source\PSoC5/P2_Data_3.c **** }
 305              		.loc 1 144 0
 306 0004 C0F38000 		ubfx	r0, r0, #2, #1
 307 0008 7047     		bx	lr
 308              	.L12:
 309 000a 00BF     		.align	2
 310              	.L11:
 311 000c 10510040 		.word	1073762576
 312              		.cfi_endproc
 313              	.LFE3:
 314              		.size	P2_Data_3_ReadDataReg, .-P2_Data_3_ReadDataReg
 315              		.text
 316              	.Letext0:
 317              		.file 2 ".\\Generated_Source\\PSoC5\\cytypes.h"