ARM GAS  C:\Users\Thomas\AppData\Local\Temp\ccKRziIk.s 			page 1


   1              		.syntax unified
   2              		.cpu cortex-m3
   3              		.fpu softvfp
   4              		.eabi_attribute 20, 1
   5              		.eabi_attribute 21, 1
   6              		.eabi_attribute 23, 3
   7              		.eabi_attribute 24, 1
   8              		.eabi_attribute 25, 1
   9              		.eabi_attribute 26, 1
  10              		.eabi_attribute 30, 2
  11              		.eabi_attribute 34, 1
  12              		.eabi_attribute 18, 4
  13              		.thumb
  14              		.file	"P2_Data_2.c"
  15              		.text
  16              	.Ltext0:
  17              		.section	.gnu.lto_.profile.b949abe5,"",%progbits
  18 0000 789C6366 		.ascii	"x\234cf```a\200\000F\0061!\000\000\262\0001"
  18      60606061 
  18      80004606 
  18      31210000 
  18      B20031
  19              		.text
  20              		.section	.gnu.lto_.jmpfuncs.b949abe5,"",%progbits
  21 0000 789C6366 		.ascii	"x\234cf\300\016\204\2404\013\003##c=#\210`b``\006\212"
  21      C00E84A0 
  21      340B0323 
  21      23633D23 
  21      88606260 
  22 0017 00000DC0 		.ascii	"\000\000\015\300\001$"
  22      0124
  23              		.text
  24              		.section	.gnu.lto_.inline.b949abe5,"",%progbits
  25 0000 789C6366 		.ascii	"x\234cf\300\016\022\2404\013\003\003\007;##\003#\003"
  25      C00E12A0 
  25      340B0303 
  25      073B2323 
  25      032303
  26 0013 0333C701 		.ascii	"\0033\307\001;\006\266\005\362L\014L\027\370Y@\222\214"
  26      3B06B605 
  26      F24C0C4C 
  26      17F85940 
  26      928C
  27 0025 78E49818 		.ascii	"x\344\230\030XY\030\031\230X\026\310C\304\201\200\031"
  27      58591819 
  27      985816C8 
  27      43C48180 
  27      19
  28 0036 53880100 		.ascii	"S\210\001\000\322\320\011("
  28      D2D00928 
  29              		.text
  30              		.section	.gnu.lto_.pureconst.b949abe5,"",%progbits
  31 0000 789C6366 		.ascii	"x\234cf``\340d\200\000\026\006)F)&)f)\000\002\305\000"
  31      6060E064 
  31      80001606 
  31      29462926 
  31      29662900 
ARM GAS  C:\Users\Thomas\AppData\Local\Temp\ccKRziIk.s 			page 2


  32 0017 7F       		.ascii	"\177"
  33              		.text
  34              		.section	.gnu.lto_P2_Data_2_Write.b949abe5,"",%progbits
  35 0000 789C6591 		.ascii	"x\234e\221AHTQ\024\206\317\177\357{3\223Z\212\313\331"
  35      41485451 
  35      1486CF7F 
  35      EF7B3393 
  35      5A8ACBD9 
  36 0014 CAA081CC 		.ascii	"\312\240\201\314B\010ZJ\011n\007\334\016\014\217\351"
  36      42085A4A 
  36      096E07DC 
  36      0E0C8FE9 
  37 0024 2D8450D0 		.ascii	"-\204P\320\247[\357\323\251\205\020\250\004\205\242"
  37      A75BEFD3 
  37      A98510A8 
  37      0485A2
  38 0033 68615653 		.ascii	"haVSj\026\256,^\203\013AJf\243$1\032LQ\273\304\310T"
  38      6A16AE2C 
  38      5E830B41 
  38      4A66A324 
  38      311A4C51 
  39 004b 9CE9DC77 		.ascii	"\234\351\334w7\212\027\356\273\367\035\376\357\234\377"
  39      378A17EE 
  39      BBF71DFE 
  39      EF9CFF
  40 005a 9C2BE9F2 		.ascii	"\234+\351\362\212\363\256\200\350&\237\220\0041\366"
  40      8AF3AE80 
  40      E8269F90 
  40      0431F6
  41 0069 99C88F09 		.ascii	"\231\310\217\011@_\0104$0\204_\342@`,\310?\256m\236"
  41      405F0834 
  41      2430845F 
  41      E240602C 
  41      C83FAE6D 
  42 007e 574AFD9E 		.ascii	"WJ\375\236\330\362S\001\216\005\321\2410y\260\200f\326"
  42      D8F25301 
  42      8E05D1A1 
  42      3079B080 
  42      66D6
  43 0090 1CE6D543 		.ascii	"\034\346\325C)[@|_.~\252D\023O\225\032\016\326\026U"
  43      295B407C 
  43      5F2E7EAA 
  43      44134F95 
  43      1A0ED616 
  44 00a5 3BCB81E7 		.ascii	";\313\201\347\220L\2405\216\353q\342\000\341\005\022"
  44      904CA035 
  44      8EEB71E2 
  44      00E10512 
  45 00b5 5ABCF260 		.ascii	"Z\274\362`}U\310d\010\316m~[\257k\232cp\377t5\035\370"
  45      7D55C864 
  45      08CE6D7E 
  45      5BAF6B9A 
  45      6370FF74 
  46 00cc B3AA52AD 		.ascii	"\263\252R\255\206\370\313\363\270Y\254?\310\235\355"
  46      86F8CBF3 
  46      B859AC3F 
  46      C89DED
ARM GAS  C:\Users\Thomas\AppData\Local\Temp\ccKRziIk.s 			page 3


  47 00db D446726C 		.ascii	"\324Frl\254\001y4\031Ox\205\010\367\005\035Yj\014T\265"
  47      AC017934 
  47      194F7885 
  47      08F7051D 
  47      596A0C54 
  48 00f0 FAF6FDC7 		.ascii	"\372\366\375\307\023\304\004\227\025\334(\207-\350\352"
  48      13C40497 
  48      15DC2887 
  48      2DE8EA
  49 00ff B60E44F4 		.ascii	"\266\016D\364\207\250\314[\367\375\235\177\370\224\273"
  49      87A8CC5B 
  49      F7FD9D7F 
  49      F894BB
  50 010e 28FC1D2D 		.ascii	"(\374\035-=\212\352dGB\017\341\336Fa\370\352Oq,\344"
  50      3D8AEA64 
  50      47420FE1 
  50      DE4661F8 
  50      EA4F712C 
  51 0123 EC135F59 		.ascii	"\354\023_Y\272\374^y\253\030\013C\241\233/\243\245\017"
  51      BAFC5E79 
  51      AB180B43 
  51      A19B2FA3 
  51      A50F
  52 0135 57A631E5 		.ascii	"W\2461\345\347\330\262\205\327\210c\021\354\026K\230"
  52      E7D8B285 
  52      D7886311 
  52      EC164B98 
  53 0145 06ED62E4 		.ascii	"\006\355b\344\337\375\2570\011\245\3119>\376n\346\232"
  53      DFFDAF30 
  53      09A5C939 
  53      3EFE6EE6 
  53      9A
  54 0156 4E007E09 		.ascii	"N\000~\011,\263x\033\"\364\317&Ye\240\037\013\266\241"
  54      2CB3781B 
  54      22F4CF26 
  54      5965A01F 
  54      0BB6A1
  55 0169 EC236131 		.ascii	"\354#a1U\234|6R\257)\213\2417\014\261\352O\304H\214"
  55      559C7C36 
  55      52AF298B 
  55      A1370CB1 
  55      EA4FC448 
  56 017e 4A838589 		.ascii	"J\203\205\211\260\326\005_~`_t\266\302\316\030\242\022"
  56      B0D6055F 
  56      7E605F74 
  56      B6C2CE18 
  56      A212
  57 0190 FCE034AC 		.ascii	"\374\3404\254\242'[\346\347\341!\360H\022\311t\247\333"
  57      A2275BE6 
  57      E7E121F0 
  57      4812C974 
  57      A7DB
  58 01a2 E3F6399E 		.ascii	"\343\3669\236{'\323\325;\320\227u\323\251\256\336\333"
  58      7B27D3D5 
  58      3BD09775 
  58      D3A9AEDE 
  58      DB
ARM GAS  C:\Users\Thomas\AppData\Local\Temp\ccKRziIk.s 			page 4


  59 01b3 37D2A9B6 		.ascii	"7\322\251\266L\207\3439\231\266d\226\354A\347\356\200"
  59      4C87E339 
  59      99B66496 
  59      EC41E7EE 
  59      80
  60 01c4 5BD3EF39 		.ascii	"[\323\3579^w\366V\267\327\377\037oo\300W"
  60      5E77F656 
  60      B7D7FF1F 
  60      6F6FC057 
  61              		.text
  62              		.section	.gnu.lto_P2_Data_2_SetDriveMode.b949abe5,"",%progbits
  63 0000 789C7D51 		.ascii	"x\234}QKH\002Q\024\275\347\275\3211\244\210V\342^*\020"
  63      4B480251 
  63      14BDE7BD 
  63      D131A488 
  63      56E25E2A 
  64 0015 83A07D50 		.ascii	"\203\240}P\3246h+\210\324,K\020[;SF\320\312\\\005\022"
  64      D436682B 
  64      88D42C4B 
  64      105B3B53 
  64      46D0CA5C 
  65 002b 441FFA7F 		.ascii	"D\037\372\177\240\240\255E\273\240\260M$dP\366\205\""
  65      A0A0AD45 
  65      BBA0B04D 
  65      246450F6 
  65      8522
  66 003d 29AA21C2 		.ascii	")\252!\302\356sZ\010A\217y\367\335s9\347\314}\367I\372"
  66      EE735A08 
  66      418F79F7 
  66      DD7339E7 
  66      CC7DF749 
  67 0052 BBFCBC1F 		.ascii	"\273\374\274\037A\024\344\023\222 \322\307D\226G\000"
  67      4114E413 
  67      9220D2C7 
  67      44964700 
  68 0062 2A215052 		.ascii	"*!PR \211\007Q\026H\347\326\246\275\315\213\246i\276"
  68      20890751 
  68      1648E7D6 
  68      A6BDCD8B 
  68      A669BE
  69 0075 CCEDF9C6 		.ascii	"\314\355\371\306}\266 z\025\216\015\226\320\314\224"
  69      7DB6207A 
  69      158E0D96 
  69      D0CC94
  70 0084 3BFB61A9 		.ascii	";\373a\251^\266\2008\377\236:;\025\201y\323\034\315"
  70      5EB68038 
  70      FF9E3A3B 
  70      158179D3 
  70      1CCD
  71 0096 1D6D9A9D 		.ascii	"\035m\232\235\260\331s\031\222\025\010\372\321\352'"
  71      B0D97319 
  71      921508FA 
  71      D1EA27
  72 00a5 2E105610 		.ascii	".\020V\020P\344r\352\373\314\353N\261w\243\343\211U"
  72      50E472EA 
  72      FBCCEB4E 
  72      B177A3E3 
ARM GAS  C:\Users\Thomas\AppData\Local\Temp\ccKRziIk.s 			page 5


  72      8955
  73 00b7 B8B92DDA 		.ascii	"\270\271-\332j\312\231\225\312\353\305\324r\033\274"
  73      6ACA9995 
  73      CAEBC5D4 
  73      721BBC
  74 00c6 82354272 		.ascii	"\2025Br\220\232\012.(\271[\245\272\012\036\025\352\024"
  74      909A0A2E 
  74      28B95BA5 
  74      BA0A1E15 
  74      EA14
  75 00d8 87A8C45B 		.ascii	"\207\250\304[\335\340\206\001\237\262\200\203\367\311"
  75      DDE08601 
  75      9FB28083 
  75      F7C9
  76 00e6 DBACA67C 		.ascii	"\333\254\246|?\204\272\316\376\356D\306s/l\241\245g"
  76      3F84BACE 
  76      FEEE44C6 
  76      732F6CA1 
  76      A567
  77 00f8 2D53535D 		.ascii	"-SS]\\\226N\362N\211\024\274\272\266\026\364\031d\255"
  77      5C964EF2 
  77      4E8914BC 
  77      BAB616F4 
  77      1964AD
  78 010b 1437EFC2 		.ascii	"\0247\357\302\032\374X\007\017\014\033\230\001\0250"
  78      1AFC5807 
  78      0F0C1B98 
  78      011530
  79 011a 5AD41D3B 		.ascii	"Z\324\035;\311\216\214\307>\335\016\326\270\304\372"
  79      C98E8CC7 
  79      3EDD0ED6 
  79      B8C4FA
  80 0129 F3E797A3 		.ascii	"\363\347\227\243\252\235,W~\027\317r\223-j\264\374\271"
  80      AA9D2C57 
  80      7E17CF72 
  80      932D6AB4 
  80      FCB9
  81 013b 6AB53A97 		.ascii	"j\265:\227X\233\337y:tU\265\015\204\255\252d\354\355"
  81      589BDF79 
  81      3A7455B5 
  81      0D84ADAA 
  81      64ECED
  82 014e 97E2A9FE 		.ascii	"\227\342\251\376A\257u\251\343*\343\203\014\024\376"
  82      41AF75A9 
  82      E32AE383 
  82      0C14FE
  83 015d AFF76DEE 		.ascii	"\257\367m\356\235\371T\204\225\373\352Ql\365~%~\013"
  83      9DF95484 
  83      95FBEA51 
  83      6CF57E25 
  83      7E0B
  84 016f 1E130F2D 		.ascii	"\036\023\017-\020\012\367\032\303F<\2320\006#\375\261"
  84      100AF71A 
  84      C3463C9A 
  84      300623FD 
  84      B1
  85 0180 91F88011 		.ascii	"\221\370\200\021\356\353\217uu\204\373\332#\335\321"
ARM GAS  C:\Users\Thomas\AppData\Local\Temp\ccKRziIk.s 			page 6


  85      EEEB8F75 
  85      7584FBDA 
  85      23DDD1
  86 018f 4434D21E 		.ascii	"D4\322\036\032 m(6h\374\000#+\270G"
  86      1A206D28 
  86      3668FC00 
  86      232BB847 
  87              		.text
  88              		.section	.gnu.lto_P2_Data_2_Read.b949abe5,"",%progbits
  89 0000 789C6366 		.ascii	"x\234cf\300\004R@\374\007\210\325\201\230\221\231\201"
  89      C0045240 
  89      FC0788D5 
  89      81989199 
  89      81
  90 0011 9169C239 		.ascii	"\221i\3029\006\206F\016&FF\020\203\201\221\241\236\211"
  90      0686460E 
  90      26464610 
  90      838191A1 
  90      9E89
  91 0023 B19EF125 		.ascii	"\261\236\361%\323G&\3063;\377]fT_\332\320\320\364a\322"
  91      D34726C6 
  91      333BFF5D 
  91      66545FDA 
  91      D0D0F461 
  92 0038 DE3BDCAD 		.ascii	"\336;\334\255\022?\231\030\030>310\352H1j\202\314a\\"
  92      123F9918 
  92      183E3331 
  92      30EA4831 
  92      6A82CC61 
  93 004d CEA8CE00 		.ascii	"\316\250\316\000T\370\261\345\357un\266\226\206\206"
  93      54F8B1E5 
  93      EF756EB6 
  93      968686
  94 005c 0601903C 		.ascii	"\006\001\220<Pb\005#\033#\220^/t\240\341\377\377\315"
  94      50620523 
  94      1B23905E 
  94      2F74A0E1 
  94      FFFFCD
  95 006f 5F277658 		.ascii	"_'vX3\26201\374d\002\332\0102\204\341\011\220\000\331"
  95      33B23031 
  95      FC6402DA 
  95      083284E1 
  95      099000D9 
  96 0083 F7948909 		.ascii	"\367\224\211\011D3\337b<\364\255\353\336<+\220\306\357"
  96      4433DF62 
  96      3CF4ADEB 
  96      DE3C2B90 
  96      C6EF
  97 0095 4C20CB1F 		.ascii	"L \313\037_Z\364\201\363\005\323O&\246\205\213\032\033"
  97      5F5AF481 
  97      F305D34F 
  97      26A6858B 
  97      1A1B
  98 00a7 5840D6DC 		.ascii	"X@\326\334\177r\376\"\007X\210\001\304=\370q\375\026"
  98      7F72FE22 
  98      07588801 
  98      C43DF871 
ARM GAS  C:\Users\Thomas\AppData\Local\Temp\ccKRziIk.s 			page 7


  98      FD16
  99 00b9 8EB98CB3 		.ascii	"\216\271\214\263\033[\030\177213\256d\224b\\\305\010"
  99      1B5B187F 
  99      323133AE 
  99      6494625C 
  99      C508
 100 00cb 7416E36A 		.ascii	"t\026\343j\306\271\214\014\267\030\233\177\264\351@"
 100      C6B98C0C 
 100      B7189B7F 
 100      B4E940
 101 00da CC638618 		.ascii	"\314c\206\030yq\326\262f~\220~\240/\031\327\000\225"
 101      7971D6B2 
 101      667E907E 
 101      A02F19D7 
 101      0095
 102 00ec DE636484 		.ascii	"\336cd\204*\000;\211\021\344\024\240\331\252z1\356\251"
 102      2A003B89 
 102      11E414A0 
 102      D9AA7A31 
 102      EEA9
 103 00fe 79A94589 		.ascii	"y\251E\211%\251)\361\301\371\245E\311\2511\001\301\371"
 103      25A929F1 
 103      C1F9A545 
 103      C9A93101 
 103      C1F9
 104 0110 CEA63101 		.ascii	"\316\2461\001F\361.\211%\211\361Fz\311\014\000L\360"
 104      46F12E89 
 104      2589F146 
 104      7AC90C00 
 104      4CF0
 105 0122 66A7     		.ascii	"f\247"
 106              		.text
 107              		.section	.gnu.lto_P2_Data_2_ReadDataReg.b949abe5,"",%progbits
 108 0000 789C6366 		.ascii	"x\234cf\300\004R@\374\007\210\325\201\230\221\231\201"
 108      C0045240 
 108      FC0788D5 
 108      81989199 
 108      81
 109 0011 9169C239 		.ascii	"\221i\3029\006\206F\016&FF\020\203\201\221\241\236\211"
 109      0686460E 
 109      26464610 
 109      838191A1 
 109      9E89
 110 0023 B19EF125 		.ascii	"\261\236\361%\323G&\3063;\377]fT_\332\320\320\364\341"
 110      D34726C6 
 110      333BFF5D 
 110      66545FDA 
 110      D0D0F4E1 
 111 0037 D2E53BDC 		.ascii	"\322\345;\334\255\022?\231\030\030>310\352H1j\202\314"
 111      AD123F99 
 111      18183E33 
 111      3130EA48 
 111      316A82CC 
 112 004b 615CCEA8 		.ascii	"a\\\316\250\316\000T\370\261\345\357un\266\226\206\206"
 112      CE0054F8 
 112      B1E5EF75 
 112      6EB69686 
ARM GAS  C:\Users\Thomas\AppData\Local\Temp\ccKRziIk.s 			page 8


 112      86
 113 005c 0601903C 		.ascii	"\006\001\220<Pb\005#\033#\220^/t\240\341\377\377\315"
 113      50620523 
 113      1B23905E 
 113      2F74A0E1 
 113      FFFFCD
 114 006f E7277568 		.ascii	"\347'uh1\26101\374d\002\332\0102\204\341\011\220\000"
 114      31B13031 
 114      FC6402DA 
 114      083284E1 
 114      099000
 115 0082 D9F79489 		.ascii	"\331\367\224\211\011D3\337b<\364\255\353\337J+\220\306"
 115      094433DF 
 115      623CF4AD 
 115      EBDF4A2B 
 115      90C6
 116 0094 EF4C20CB 		.ascii	"\357L \313[O\034j\342}\301\364\223\211i\301\242\306"
 116      5B4F1C6A 
 116      E27DC1F4 
 116      938969C1 
 116      A2C6
 117 00a6 06169035 		.ascii	"\006\026\2205\367\237\234\277\310\001\026b\000qov\335"
 117      F79F9CBF 
 117      C8011662 
 117      00716F76 
 117      DD
 118 00b7 DBC73997 		.ascii	"\333\3079\227qvc\013\343O&f\306\225\214R\214\253\030"
 118      7176630B 
 118      E34F2666 
 118      C6958C52 
 118      8CAB18
 119 00ca 81CE625C 		.ascii	"\201\316b\\\3158\227\221\341\026c\363\2176\035\210y"
 119      CD389791 
 119      E11663F3 
 119      8F361D88 
 119      79
 120 00db CC10232F 		.ascii	"\314\020#/\316Z\326\314\017\322\017\364%\343\032\240"
 120      CE5AD6CC 
 120      0FD20FF4 
 120      25E31AA0 
 121 00eb D27B8C8C 		.ascii	"\322{\214\214P\005`'1\202\234\0024[U/\306=5/\265(\261"
 121      50056027 
 121      31829C02 
 121      345B552F 
 121      C63D352F 
 122 0102 2435253E 		.ascii	"$5%>8\277\264(95& 8\337\3314&\300(\336%\261$1\336H/"
 122      38BFB428 
 122      39352620 
 122      38DFD934 
 122      26C028DE 
 123 011d 99010020 		.ascii	"\231\001\000 wf+"
 123      77662B
 124              		.text
 125              		.section	.gnu.lto_.symbol_nodes.b949abe5,"",%progbits
 126 0000 789C6366 		.ascii	"x\234cf``pb\200\002&\206z\006\206\011\347\030\030\352"
 126      60607062 
 126      80022686 
ARM GAS  C:\Users\Thomas\AppData\Local\Temp\ccKRziIk.s 			page 9


 126      7A068609 
 126      E71818EA 
 127 0014 EB19E62D 		.ascii	"\353\031\346-\340``b\254gD\3413\3253\241\360\231\353"
 127      E0606062 
 127      AC6744E1 
 127      33D533A1 
 127      F099EB
 128 0027 9991F90C 		.ascii	"\231\221\371\014\0003\356\020\336"
 128      0033EE10 
 128      DE
 129              		.text
 130              		.section	.gnu.lto_.refs.b949abe5,"",%progbits
 131 0000 789C6366 		.ascii	"x\234cf```d\200\002\000\000=\000\005"
 131      60606064 
 131      80020000 
 131      3D0005
 132              		.text
 133              		.section	.gnu.lto_.decls.b949abe5,"",%progbits
 134 0000 789C8D52 		.ascii	"x\234\215R_HSQ\030?\337=\327\351nk\371\322\214\0214"
 134      5F485351 
 134      183FDF3D 
 134      D7E96E6B 
 134      F9D28C11 
 135 0015 8884407C 		.ascii	"\210\204@|0\002\337\0124\354\245\030J\364\2400\206^"
 135      3002DF0A 
 135      34ECA518 
 135      4AF4A030 
 135      865E
 136 0027 6C2F1A6B 		.ascii	"l/\032k\006>u\374\023N\215\374C\3212RA\315\234\371'"
 136      063E75FC 
 136      134E8DFC 
 136      43D13252 
 136      41CD9CF9 
 137 003c 9DCEA9E9 		.ascii	"\235\316\251\351]\275,\302\350A\004\255\207L\012{\333"
 137      5DBD2CC2 
 137      E84104AD 
 137      874C0A7B 
 137      DB
 138 004d A0C240BA 		.ascii	"\240\302@\272}\367l\363.\233\324\007\337\275\347;\347"
 138      7DF76CF3 
 138      2E9BD407 
 138      DFBDE73B 
 138      E7
 139 005e FBFDBEDF 		.ascii	"\373\375\276\337w\316G\011!\331@\210\212v\201\0222\202"
 139      77CE4709 
 139      21D94088 
 139      8A768112 
 139      3282
 140 0070 7106BA9D 		.ascii	"q\006\272\235\350&\242O\241\007\320\203\350!\362\267"
 140      E826A24F 
 140      A107D083 
 140      E821F2B7 
 141 0080 4DA5E0C6 		.ascii	"M\245\340\306\320-\350K\350\213\211sH\344\3547\215\323"
 141      D02DE84B 
 141      E88B8973 
 141      48E4EC37 
 141      8DD3
ARM GAS  C:\Users\Thomas\AppData\Local\Temp\ccKRziIk.s 			page 10


 142 0092 B00FA7A4 		.ascii	"\260\017\247\244\301\006\322`\203\011m\007\325\013\246"
 142      C106D260 
 142      83096D07 
 142      D50BA6
 143 00a1 C184FE81 		.ascii	"\301\204\376\201I\327[L\200\320\370\267\225C\333\002"
 143      49D75B4C 
 143      80D0F8B7 
 143      9543DB02 
 144 00b1 98259B16 		.ascii	"\230%\233\026\316wG|\006\014M\222\250\205k\313--YT\000"
 144      CE77477C 
 144      060C4D92 
 144      A8856BCB 
 144      2D2D5954 
 145 00c6 6D3DE0DB 		.ascii	"m=\340\333\\\225\362\374\2141/S\024\320)\032\236,\334"
 145      5C95F2FC 
 145      8C312F53 
 145      14D0291A 
 145      9E2CDC
 146 00d9 C9448C45 		.ascii	"\311D\214E\342\341\3357=a\312CU\303\011\353\353\367"
 146      E2E1DD37 
 146      3D61CA43 
 146      55C309EB 
 146      EBF7
 147 00eb 7E529072 		.ascii	"~R\220r\275\2145\262h7\243\307\010\344Y\341\264\225"
 147      BD8C35B2 
 147      6837A3C7 
 147      08E459E1 
 147      B495
 148 00fd C038E462 		.ascii	"\3008\344b\032\370!\217\300(X\341\031X\311 \026\210"
 148      1AF8218F 
 148      C02858E1 
 148      1958C920 
 148      1688
 149 010f F6AD6E1C 		.ascii	"\366\255n\034gL\2041\220`\004(\317\3006\264\012\211"
 149      674C8431 
 149      90600428 
 149      CFC036B4 
 149      0A89
 150 0121 A29DB7C3 		.ascii	"\242\235\267\303\235\242(\340\246\226S\316\325~W7\207"
 150      9DA228E0 
 150      A69653CE 
 150      D57E5737 
 150      87
 151 0132 849CFB48 		.ascii	"\204\234\373H\300:\233X\266\010v\013\014#\355S\244%"
 151      C03A9B58 
 151      B608760B 
 151      0C23ED53 
 151      A425
 152 0144 300939F8 		.ascii	"0\0119\370\235\0001N\260\262\373\256\313H\317\360\326"
 152      9D00314E 
 152      B0B2FBAE 
 152      CB48CFF0 
 152      D6
 153 0155 FC13AF3F 		.ascii	"\374\023\257?g\332zY\377d\264}\240\227>d\375\215\354"
 153      67DA7A59 
 153      FF64B47D 
 153      A0973E64 
ARM GAS  C:\Users\Thomas\AppData\Local\Temp\ccKRziIk.s 			page 11


 153      FD8DEC
 154 0168 978AF235 		.ascii	"\227\212\3625\020<\337\023@\264u\374F\247\300\206@5"
 154      103CDF13 
 154      40B475FC 
 154      46A7C086 
 154      4035
 155 017a FC5211A9 		.ascii	"\374R\021\251\213\223\304\306\275_\200\223\364\317\017"
 155      8B93C4C6 
 155      BD5F8093 
 155      F4CF0F
 156 0189 18224C51 		.ascii	"\030\"LQ\325s\034?\235\202\237N\342\003\034\337\332"
 156      D5731C3F 
 156      9D829F4E 
 156      E2031CDF 
 156      DA
 157 019a 3C495305 		.ascii	"<IS\005k\275\350\212g\270\342\362\204\340\250\277+b"
 157      6BBDE88A 
 157      67B8E2F2 
 157      84E0A8BF 
 157      2B62
 158 01ac A40C78B1 		.ascii	"\244\014x\261W\261G\037\214\274\330\307\257[\262\322"
 158      57B1471F 
 158      8CBCD8C7 
 158      AF5BB2D2 
 159 01bc CC765595 		.ascii	"\314vU\225r\004\314\246\224\233M\226\013\362r}\035\015"
 159      7204CCA6 
 159      949B4D96 
 159      0BF2727D 
 159      1D0D
 160 01ce A302ED88 		.ascii	"\243\002\355\210S\004\302\015\357Mq\275\217\207\222"
 160      5304C20D 
 160      EF4D71BD 
 160      8F8792
 161 01dd 7A3582B9 		.ascii	"z5\202\271\024\202\271$A\210\023\260\007\355\203Yt("
 161      1482B924 
 161      418813B0 
 161      07ED8359 
 161      7428
 162 01ef 4E30F3A3 		.ascii	"N0\363\243-tX\302gm\372\217g\305AX}\333\266f\214\017"
 162      2D7458C2 
 162      676DFA8F 
 162      67C54158 
 162      7DDBB666 
 163 0205 C27EC48B 		.ascii	"\302~\304\213\003\007ag\353b3;\017\213x1\363\372 ,\200"
 163      03076167 
 163      EB62333B 
 163      0F8B7831 
 163      F3FA202C 
 164 021a 3E09AD9F 		.ascii	">\011\255\237zVL\2466m\272\360\022\215\0213O\326oq\011"
 164      7A564CA6 
 164      366DBAF0 
 164      128D1133 
 164      4FD66F71 
 165 022f 4CBC03FC 		.ascii	"L\274\003\374\307\004\032\036\016oH`\225\254>\034\343"
 165      C7041A1E 
 165      0E6F4860 
 165      95AC3E1C 
ARM GAS  C:\Users\Thomas\AppData\Local\Temp\ccKRziIk.s 			page 12


 165      E3
 166 0240 9D13A020 		.ascii	"\235\023\240 \223W{\200h#\243>sR\021\341\007\004\302"
 166      93577B80 
 166      6823A33E 
 166      735211E1 
 166      0704C2
 167 0253 48B38C34 		.ascii	"H\263\2144Z\266\262\255\252\267\324\270ud\362\004\376"
 167      5AB6B2AD 
 167      AAB7D4B8 
 167      7564F204 
 167      FE
 168 0264 C9A873D5 		.ascii	"\311\250s\325x\012\015%\227\257\330\212\310\311\374"
 168      780A0D25 
 168      97AFD88A 
 168      C8C9FC
 169 0273 8A12B946 		.ascii	"\212\022\271Fv;=r\225\243\254\266\316])W\330\313j\213"
 169      763B3D72 
 169      95A3ACB6 
 169      CE5D2957 
 169      D8CB6A8B 
 170 0287 CE5654D6 		.ascii	"\316VT\326{\352\257\3137\362\257\221#\366\002G\261\323"
 170      7BEAAFCB 
 170      37F2AF91 
 170      23F60247 
 170      B1D3
 171 0299 E3741438 		.ascii	"\343t\0248\256\272]\036\371\324\201\230\275\304\374"
 171      AEBA5D1E 
 171      F9D48198 
 171      BDC4FC
 172 02a8 4A62D151 		.ascii	"Jb\321Qe\262\247\330\355\272)_\252\255\222\315\372v"
 172      65B2A7D8 
 172      EDBA295F 
 172      AAAD92CD 
 172      FA76
 173 02ba A9ECAC3A 		.ascii	"\251\354\254:\372g\250-K\345j\321-W\027\376\006_YN^"
 173      FA67A82D 
 173      4BE56AD1 
 173      2D5717FE 
 173      065F594E 
 174              		.text
 175              		.section	.gnu.lto_.symtab.b949abe5,"",%progbits
 176 0000 50325F44 		.ascii	"P2_Data_2_Write\000\000\000\000\000\000\000\000\000"
 176      6174615F 
 176      325F5772 
 176      69746500 
 176      00000000 
 177 0018 000000B2 		.ascii	"\000\000\000\262\000\000\000P2_Data_2_SetDriveMode\000"
 177      00000050 
 177      325F4461 
 177      74615F32 
 177      5F536574 
 178 0036 00000000 		.ascii	"\000\000\000\000\000\000\000\000\000\000\000\264\000"
 178      00000000 
 178      000000B4 
 178      00
 179 0043 00005032 		.ascii	"\000\000P2_Data_2_Read\000\000\000\000\000\000\000\000"
 179      5F446174 
ARM GAS  C:\Users\Thomas\AppData\Local\Temp\ccKRziIk.s 			page 13


 179      615F325F 
 179      52656164 
 179      00000000 
 180 005b 00000000 		.ascii	"\000\000\000\000\267\000\000\000P2_Data_2_ReadDataR"
 180      B7000000 
 180      50325F44 
 180      6174615F 
 180      325F5265 
 181 0076 65670000 		.ascii	"eg\000\000\000\000\000\000\000\000\000\000\000\000\271"
 181      00000000 
 181      00000000 
 181      0000B9
 182 0085 000000   		.ascii	"\000\000\000"
 183              		.text
 184              		.section	.gnu.lto_.opts,"",%progbits
 185 0000 272D666E 		.ascii	"'-fno-trapv' '-mcpu=cortex-m3' '-mthumb' '-g' '-O3'"
 185      6F2D7472 
 185      61707627 
 185      20272D6D 
 185      6370753D 
 186 0033 20272D66 		.ascii	" '-ffunction-sections' '-finline-functions' '-flto'"
 186      66756E63 
 186      74696F6E 
 186      2D736563 
 186      74696F6E 
 187 0066 20272D66 		.ascii	" '-ffat-lto-objects'\000"
 187      6661742D 
 187      6C746F2D 
 187      6F626A65 
 187      63747327 
 188              		.text
 189              		.cfi_sections	.debug_frame
 190              		.section	.text.P2_Data_2_Write,"ax",%progbits
 191              		.align	2
 192              		.global	P2_Data_2_Write
 193              		.thumb
 194              		.thumb_func
 195              		.type	P2_Data_2_Write, %function
 196              	P2_Data_2_Write:
 197              	.LFB0:
 198              		.file 1 ".\\Generated_Source\\PSoC5\\P2_Data_2.c"
   1:.\Generated_Source\PSoC5/P2_Data_2.c **** /*******************************************************************************
   2:.\Generated_Source\PSoC5/P2_Data_2.c **** * File Name: P2_Data_2.c  
   3:.\Generated_Source\PSoC5/P2_Data_2.c **** * Version 2.20
   4:.\Generated_Source\PSoC5/P2_Data_2.c **** *
   5:.\Generated_Source\PSoC5/P2_Data_2.c **** * Description:
   6:.\Generated_Source\PSoC5/P2_Data_2.c **** *  This file contains API to enable firmware control of a Pins component.
   7:.\Generated_Source\PSoC5/P2_Data_2.c **** *
   8:.\Generated_Source\PSoC5/P2_Data_2.c **** * Note:
   9:.\Generated_Source\PSoC5/P2_Data_2.c **** *
  10:.\Generated_Source\PSoC5/P2_Data_2.c **** ********************************************************************************
  11:.\Generated_Source\PSoC5/P2_Data_2.c **** * Copyright 2008-2015, Cypress Semiconductor Corporation.  All rights reserved.
  12:.\Generated_Source\PSoC5/P2_Data_2.c **** * You may use this file only in accordance with the license, terms, conditions, 
  13:.\Generated_Source\PSoC5/P2_Data_2.c **** * disclaimers, and limitations in the end user license agreement accompanying 
  14:.\Generated_Source\PSoC5/P2_Data_2.c **** * the software package with which this file was provided.
  15:.\Generated_Source\PSoC5/P2_Data_2.c **** *******************************************************************************/
  16:.\Generated_Source\PSoC5/P2_Data_2.c **** 
ARM GAS  C:\Users\Thomas\AppData\Local\Temp\ccKRziIk.s 			page 14


  17:.\Generated_Source\PSoC5/P2_Data_2.c **** #include "cytypes.h"
  18:.\Generated_Source\PSoC5/P2_Data_2.c **** #include "P2_Data_2.h"
  19:.\Generated_Source\PSoC5/P2_Data_2.c **** 
  20:.\Generated_Source\PSoC5/P2_Data_2.c **** /* APIs are not generated for P15[7:6] on PSoC 5 */
  21:.\Generated_Source\PSoC5/P2_Data_2.c **** #if !(CY_PSOC5A &&\
  22:.\Generated_Source\PSoC5/P2_Data_2.c **** 	 P2_Data_2__PORT == 15 && ((P2_Data_2__MASK & 0xC0) != 0))
  23:.\Generated_Source\PSoC5/P2_Data_2.c **** 
  24:.\Generated_Source\PSoC5/P2_Data_2.c **** 
  25:.\Generated_Source\PSoC5/P2_Data_2.c **** /*******************************************************************************
  26:.\Generated_Source\PSoC5/P2_Data_2.c **** * Function Name: P2_Data_2_Write
  27:.\Generated_Source\PSoC5/P2_Data_2.c **** ****************************************************************************//**
  28:.\Generated_Source\PSoC5/P2_Data_2.c **** *
  29:.\Generated_Source\PSoC5/P2_Data_2.c **** * \brief Writes the value to the physical port (data output register), masking
  30:.\Generated_Source\PSoC5/P2_Data_2.c **** *  and shifting the bits appropriately. 
  31:.\Generated_Source\PSoC5/P2_Data_2.c **** *
  32:.\Generated_Source\PSoC5/P2_Data_2.c **** * The data output register controls the signal applied to the physical pin in 
  33:.\Generated_Source\PSoC5/P2_Data_2.c **** * conjunction with the drive mode parameter. This function avoids changing 
  34:.\Generated_Source\PSoC5/P2_Data_2.c **** * other bits in the port by using the appropriate method (read-modify-write or
  35:.\Generated_Source\PSoC5/P2_Data_2.c **** * bit banding).
  36:.\Generated_Source\PSoC5/P2_Data_2.c **** *
  37:.\Generated_Source\PSoC5/P2_Data_2.c **** * <b>Note</b> This function should not be used on a hardware digital output pin 
  38:.\Generated_Source\PSoC5/P2_Data_2.c **** * as it is driven by the hardware signal attached to it.
  39:.\Generated_Source\PSoC5/P2_Data_2.c **** *
  40:.\Generated_Source\PSoC5/P2_Data_2.c **** * \param value
  41:.\Generated_Source\PSoC5/P2_Data_2.c **** *  Value to write to the component instance.
  42:.\Generated_Source\PSoC5/P2_Data_2.c **** *
  43:.\Generated_Source\PSoC5/P2_Data_2.c **** * \return 
  44:.\Generated_Source\PSoC5/P2_Data_2.c **** *  None 
  45:.\Generated_Source\PSoC5/P2_Data_2.c **** *
  46:.\Generated_Source\PSoC5/P2_Data_2.c **** * \sideeffect
  47:.\Generated_Source\PSoC5/P2_Data_2.c **** *  If you use read-modify-write operations that are not atomic; the Interrupt 
  48:.\Generated_Source\PSoC5/P2_Data_2.c **** *  Service Routines (ISR) can cause corruption of this function. An ISR that 
  49:.\Generated_Source\PSoC5/P2_Data_2.c **** *  interrupts this function and performs writes to the Pins component data 
  50:.\Generated_Source\PSoC5/P2_Data_2.c **** *  register can cause corrupted port data. To avoid this issue, you should 
  51:.\Generated_Source\PSoC5/P2_Data_2.c **** *  either use the Per-Pin APIs (primary method) or disable interrupts around 
  52:.\Generated_Source\PSoC5/P2_Data_2.c **** *  this function.
  53:.\Generated_Source\PSoC5/P2_Data_2.c **** *
  54:.\Generated_Source\PSoC5/P2_Data_2.c **** * \funcusage
  55:.\Generated_Source\PSoC5/P2_Data_2.c **** *  \snippet P2_Data_2_SUT.c usage_P2_Data_2_Write
  56:.\Generated_Source\PSoC5/P2_Data_2.c **** *******************************************************************************/
  57:.\Generated_Source\PSoC5/P2_Data_2.c **** void P2_Data_2_Write(uint8 value)
  58:.\Generated_Source\PSoC5/P2_Data_2.c **** {
 199              		.loc 1 58 0
 200              		.cfi_startproc
 201              		@ args = 0, pretend = 0, frame = 0
 202              		@ frame_needed = 0, uses_anonymous_args = 0
 203              		@ link register save eliminated.
 204              	.LVL0:
  59:.\Generated_Source\PSoC5/P2_Data_2.c ****     uint8 staticBits = (P2_Data_2_DR & (uint8)(~P2_Data_2_MASK));
 205              		.loc 1 59 0
 206 0000 044A     		ldr	r2, .L2
  60:.\Generated_Source\PSoC5/P2_Data_2.c ****     P2_Data_2_DR = staticBits | ((uint8)(value << P2_Data_2_SHIFT) & P2_Data_2_MASK);
 207              		.loc 1 60 0
 208 0002 00F00100 		and	r0, r0, #1
 209              	.LVL1:
  59:.\Generated_Source\PSoC5/P2_Data_2.c ****     uint8 staticBits = (P2_Data_2_DR & (uint8)(~P2_Data_2_MASK));
 210              		.loc 1 59 0
ARM GAS  C:\Users\Thomas\AppData\Local\Temp\ccKRziIk.s 			page 15


 211 0006 1378     		ldrb	r3, [r2]	@ zero_extendqisi2
 212              	.LVL2:
 213 0008 03F0FE03 		and	r3, r3, #254
 214              	.LVL3:
 215              		.loc 1 60 0
 216 000c 1843     		orrs	r0, r0, r3
 217 000e 1070     		strb	r0, [r2]
 218 0010 7047     		bx	lr
 219              	.L3:
 220 0012 00BF     		.align	2
 221              	.L2:
 222 0014 20510040 		.word	1073762592
 223              		.cfi_endproc
 224              	.LFE0:
 225              		.size	P2_Data_2_Write, .-P2_Data_2_Write
 226              		.section	.text.P2_Data_2_SetDriveMode,"ax",%progbits
 227              		.align	2
 228              		.global	P2_Data_2_SetDriveMode
 229              		.thumb
 230              		.thumb_func
 231              		.type	P2_Data_2_SetDriveMode, %function
 232              	P2_Data_2_SetDriveMode:
 233              	.LFB1:
  61:.\Generated_Source\PSoC5/P2_Data_2.c **** }
  62:.\Generated_Source\PSoC5/P2_Data_2.c **** 
  63:.\Generated_Source\PSoC5/P2_Data_2.c **** 
  64:.\Generated_Source\PSoC5/P2_Data_2.c **** /*******************************************************************************
  65:.\Generated_Source\PSoC5/P2_Data_2.c **** * Function Name: P2_Data_2_SetDriveMode
  66:.\Generated_Source\PSoC5/P2_Data_2.c **** ****************************************************************************//**
  67:.\Generated_Source\PSoC5/P2_Data_2.c **** *
  68:.\Generated_Source\PSoC5/P2_Data_2.c **** * \brief Sets the drive mode for each of the Pins component's pins.
  69:.\Generated_Source\PSoC5/P2_Data_2.c **** * 
  70:.\Generated_Source\PSoC5/P2_Data_2.c **** * <b>Note</b> This affects all pins in the Pins component instance. Use the
  71:.\Generated_Source\PSoC5/P2_Data_2.c **** * Per-Pin APIs if you wish to control individual pin's drive modes.
  72:.\Generated_Source\PSoC5/P2_Data_2.c **** *
  73:.\Generated_Source\PSoC5/P2_Data_2.c **** * \param mode
  74:.\Generated_Source\PSoC5/P2_Data_2.c **** *  Mode for the selected signals. Valid options are documented in 
  75:.\Generated_Source\PSoC5/P2_Data_2.c **** *  \ref driveMode.
  76:.\Generated_Source\PSoC5/P2_Data_2.c **** *
  77:.\Generated_Source\PSoC5/P2_Data_2.c **** * \return
  78:.\Generated_Source\PSoC5/P2_Data_2.c **** *  None
  79:.\Generated_Source\PSoC5/P2_Data_2.c **** *
  80:.\Generated_Source\PSoC5/P2_Data_2.c **** * \sideeffect
  81:.\Generated_Source\PSoC5/P2_Data_2.c **** *  If you use read-modify-write operations that are not atomic, the ISR can
  82:.\Generated_Source\PSoC5/P2_Data_2.c **** *  cause corruption of this function. An ISR that interrupts this function 
  83:.\Generated_Source\PSoC5/P2_Data_2.c **** *  and performs writes to the Pins component Drive Mode registers can cause 
  84:.\Generated_Source\PSoC5/P2_Data_2.c **** *  corrupted port data. To avoid this issue, you should either use the Per-Pin
  85:.\Generated_Source\PSoC5/P2_Data_2.c **** *  APIs (primary method) or disable interrupts around this function.
  86:.\Generated_Source\PSoC5/P2_Data_2.c **** *
  87:.\Generated_Source\PSoC5/P2_Data_2.c **** * \funcusage
  88:.\Generated_Source\PSoC5/P2_Data_2.c **** *  \snippet P2_Data_2_SUT.c usage_P2_Data_2_SetDriveMode
  89:.\Generated_Source\PSoC5/P2_Data_2.c **** *******************************************************************************/
  90:.\Generated_Source\PSoC5/P2_Data_2.c **** void P2_Data_2_SetDriveMode(uint8 mode)
  91:.\Generated_Source\PSoC5/P2_Data_2.c **** {
 234              		.loc 1 91 0
 235              		.cfi_startproc
 236              		@ args = 0, pretend = 0, frame = 0
ARM GAS  C:\Users\Thomas\AppData\Local\Temp\ccKRziIk.s 			page 16


 237              		@ frame_needed = 0, uses_anonymous_args = 0
 238              		@ link register save eliminated.
 239              	.LVL4:
  92:.\Generated_Source\PSoC5/P2_Data_2.c **** 	CyPins_SetPinDriveMode(P2_Data_2_0, mode);
 240              		.loc 1 92 0
 241 0000 044A     		ldr	r2, .L5
 242 0002 00F00E00 		and	r0, r0, #14
 243              	.LVL5:
 244 0006 1378     		ldrb	r3, [r2]	@ zero_extendqisi2
 245 0008 03F0F103 		and	r3, r3, #241
 246 000c 1843     		orrs	r0, r0, r3
 247 000e 1070     		strb	r0, [r2]
 248 0010 7047     		bx	lr
 249              	.L6:
 250 0012 00BF     		.align	2
 251              	.L5:
 252 0014 10500040 		.word	1073762320
 253              		.cfi_endproc
 254              	.LFE1:
 255              		.size	P2_Data_2_SetDriveMode, .-P2_Data_2_SetDriveMode
 256              		.section	.text.P2_Data_2_Read,"ax",%progbits
 257              		.align	2
 258              		.global	P2_Data_2_Read
 259              		.thumb
 260              		.thumb_func
 261              		.type	P2_Data_2_Read, %function
 262              	P2_Data_2_Read:
 263              	.LFB2:
  93:.\Generated_Source\PSoC5/P2_Data_2.c **** }
  94:.\Generated_Source\PSoC5/P2_Data_2.c **** 
  95:.\Generated_Source\PSoC5/P2_Data_2.c **** 
  96:.\Generated_Source\PSoC5/P2_Data_2.c **** /*******************************************************************************
  97:.\Generated_Source\PSoC5/P2_Data_2.c **** * Function Name: P2_Data_2_Read
  98:.\Generated_Source\PSoC5/P2_Data_2.c **** ****************************************************************************//**
  99:.\Generated_Source\PSoC5/P2_Data_2.c **** *
 100:.\Generated_Source\PSoC5/P2_Data_2.c **** * \brief Reads the associated physical port (pin status register) and masks 
 101:.\Generated_Source\PSoC5/P2_Data_2.c **** *  the required bits according to the width and bit position of the component
 102:.\Generated_Source\PSoC5/P2_Data_2.c **** *  instance. 
 103:.\Generated_Source\PSoC5/P2_Data_2.c **** *
 104:.\Generated_Source\PSoC5/P2_Data_2.c **** * The pin's status register returns the current logic level present on the 
 105:.\Generated_Source\PSoC5/P2_Data_2.c **** * physical pin.
 106:.\Generated_Source\PSoC5/P2_Data_2.c **** *
 107:.\Generated_Source\PSoC5/P2_Data_2.c **** * \return 
 108:.\Generated_Source\PSoC5/P2_Data_2.c **** *  The current value for the pins in the component as a right justified number.
 109:.\Generated_Source\PSoC5/P2_Data_2.c **** *
 110:.\Generated_Source\PSoC5/P2_Data_2.c **** * \funcusage
 111:.\Generated_Source\PSoC5/P2_Data_2.c **** *  \snippet P2_Data_2_SUT.c usage_P2_Data_2_Read  
 112:.\Generated_Source\PSoC5/P2_Data_2.c **** *******************************************************************************/
 113:.\Generated_Source\PSoC5/P2_Data_2.c **** uint8 P2_Data_2_Read(void)
 114:.\Generated_Source\PSoC5/P2_Data_2.c **** {
 264              		.loc 1 114 0
 265              		.cfi_startproc
 266              		@ args = 0, pretend = 0, frame = 0
 267              		@ frame_needed = 0, uses_anonymous_args = 0
 268              		@ link register save eliminated.
 115:.\Generated_Source\PSoC5/P2_Data_2.c ****     return (P2_Data_2_PS & P2_Data_2_MASK) >> P2_Data_2_SHIFT;
 269              		.loc 1 115 0
ARM GAS  C:\Users\Thomas\AppData\Local\Temp\ccKRziIk.s 			page 17


 270 0000 024B     		ldr	r3, .L8
 271 0002 1878     		ldrb	r0, [r3]	@ zero_extendqisi2
 116:.\Generated_Source\PSoC5/P2_Data_2.c **** }
 272              		.loc 1 116 0
 273 0004 00F00100 		and	r0, r0, #1
 274 0008 7047     		bx	lr
 275              	.L9:
 276 000a 00BF     		.align	2
 277              	.L8:
 278 000c 21510040 		.word	1073762593
 279              		.cfi_endproc
 280              	.LFE2:
 281              		.size	P2_Data_2_Read, .-P2_Data_2_Read
 282              		.section	.text.P2_Data_2_ReadDataReg,"ax",%progbits
 283              		.align	2
 284              		.global	P2_Data_2_ReadDataReg
 285              		.thumb
 286              		.thumb_func
 287              		.type	P2_Data_2_ReadDataReg, %function
 288              	P2_Data_2_ReadDataReg:
 289              	.LFB3:
 117:.\Generated_Source\PSoC5/P2_Data_2.c **** 
 118:.\Generated_Source\PSoC5/P2_Data_2.c **** 
 119:.\Generated_Source\PSoC5/P2_Data_2.c **** /*******************************************************************************
 120:.\Generated_Source\PSoC5/P2_Data_2.c **** * Function Name: P2_Data_2_ReadDataReg
 121:.\Generated_Source\PSoC5/P2_Data_2.c **** ****************************************************************************//**
 122:.\Generated_Source\PSoC5/P2_Data_2.c **** *
 123:.\Generated_Source\PSoC5/P2_Data_2.c **** * \brief Reads the associated physical port's data output register and masks 
 124:.\Generated_Source\PSoC5/P2_Data_2.c **** *  the correct bits according to the width and bit position of the component 
 125:.\Generated_Source\PSoC5/P2_Data_2.c **** *  instance. 
 126:.\Generated_Source\PSoC5/P2_Data_2.c **** *
 127:.\Generated_Source\PSoC5/P2_Data_2.c **** * The data output register controls the signal applied to the physical pin in 
 128:.\Generated_Source\PSoC5/P2_Data_2.c **** * conjunction with the drive mode parameter. This is not the same as the 
 129:.\Generated_Source\PSoC5/P2_Data_2.c **** * preferred P2_Data_2_Read() API because the 
 130:.\Generated_Source\PSoC5/P2_Data_2.c **** * P2_Data_2_ReadDataReg() reads the data register instead of the status 
 131:.\Generated_Source\PSoC5/P2_Data_2.c **** * register. For output pins this is a useful function to determine the value 
 132:.\Generated_Source\PSoC5/P2_Data_2.c **** * just written to the pin.
 133:.\Generated_Source\PSoC5/P2_Data_2.c **** *
 134:.\Generated_Source\PSoC5/P2_Data_2.c **** * \return 
 135:.\Generated_Source\PSoC5/P2_Data_2.c **** *  The current value of the data register masked and shifted into a right 
 136:.\Generated_Source\PSoC5/P2_Data_2.c **** *  justified number for the component instance.
 137:.\Generated_Source\PSoC5/P2_Data_2.c **** *
 138:.\Generated_Source\PSoC5/P2_Data_2.c **** * \funcusage
 139:.\Generated_Source\PSoC5/P2_Data_2.c **** *  \snippet P2_Data_2_SUT.c usage_P2_Data_2_ReadDataReg 
 140:.\Generated_Source\PSoC5/P2_Data_2.c **** *******************************************************************************/
 141:.\Generated_Source\PSoC5/P2_Data_2.c **** uint8 P2_Data_2_ReadDataReg(void)
 142:.\Generated_Source\PSoC5/P2_Data_2.c **** {
 290              		.loc 1 142 0
 291              		.cfi_startproc
 292              		@ args = 0, pretend = 0, frame = 0
 293              		@ frame_needed = 0, uses_anonymous_args = 0
 294              		@ link register save eliminated.
 143:.\Generated_Source\PSoC5/P2_Data_2.c ****     return (P2_Data_2_DR & P2_Data_2_MASK) >> P2_Data_2_SHIFT;
 295              		.loc 1 143 0
 296 0000 024B     		ldr	r3, .L11
 297 0002 1878     		ldrb	r0, [r3]	@ zero_extendqisi2
 144:.\Generated_Source\PSoC5/P2_Data_2.c **** }
ARM GAS  C:\Users\Thomas\AppData\Local\Temp\ccKRziIk.s 			page 18


 298              		.loc 1 144 0
 299 0004 00F00100 		and	r0, r0, #1
 300 0008 7047     		bx	lr
 301              	.L12:
 302 000a 00BF     		.align	2
 303              	.L11:
 304 000c 20510040 		.word	1073762592
 305              		.cfi_endproc
 306              	.LFE3:
 307              		.size	P2_Data_2_ReadDataReg, .-P2_Data_2_ReadDataReg
 308              		.text
 309              	.Letext0:
 310              		.file 2 ".\\Generated_Source\\PSoC5\\cytypes.h"