ARM GAS  C:\Users\Thomas\AppData\Local\Temp\ccJ4d7EI.s 			page 1


   1              		.syntax unified
   2              		.cpu cortex-m3
   3              		.fpu softvfp
   4              		.eabi_attribute 20, 1
   5              		.eabi_attribute 21, 1
   6              		.eabi_attribute 23, 3
   7              		.eabi_attribute 24, 1
   8              		.eabi_attribute 25, 1
   9              		.eabi_attribute 26, 1
  10              		.eabi_attribute 30, 2
  11              		.eabi_attribute 34, 1
  12              		.eabi_attribute 18, 4
  13              		.thumb
  14              		.file	"P2_Data_6.c"
  15              		.text
  16              	.Ltext0:
  17              		.section	.gnu.lto_.profile.b94984e5,"",%progbits
  18 0000 789C6366 		.ascii	"x\234cf```a\200\000F\006IQ\000\000\273\0007"
  18      60606061 
  18      80004606 
  18      49510000 
  18      BB0037
  19              		.text
  20              		.section	.gnu.lto_.jmpfuncs.b94984e5,"",%progbits
  21 0000 789C6366 		.ascii	"x\234cf\300\016\204\2404\013\003##c=#\210`b``\006\212"
  21      C00E84A0 
  21      340B0323 
  21      23633D23 
  21      88606260 
  22 0017 00000DC0 		.ascii	"\000\000\015\300\001$"
  22      0124
  23              		.text
  24              		.section	.gnu.lto_.inline.b94984e5,"",%progbits
  25 0000 789C6366 		.ascii	"x\234cf\300\016\022\2404\013\003\003'\007##\003#\003"
  25      C00E12A0 
  25      340B0303 
  25      27072323 
  25      032303
  26 0013 0333C701 		.ascii	"\0033\307\001;\006\266\005\362L\014,\013\344Y@\222\214"
  26      3B06B605 
  26      F24C0C2C 
  26      0BE45940 
  26      928C
  27 0025 0C1CECE8 		.ascii	"\014\034\354\350rL\027\370\301rL\014l\254\214\014Ll"
  27      724C17F8 
  27      C1724C0C 
  27      6CAC8C0C 
  27      4C6C
  28 0037 1FF420E2 		.ascii	"\037\364 \342@\300\214)\304\000\000\333l\011\322"
  28      40C08C29 
  28      C40000DB 
  28      6C09D2
  29              		.text
  30              		.section	.gnu.lto_.pureconst.b94984e5,"",%progbits
  31 0000 789C6366 		.ascii	"x\234cf``\340d\200\000\026\006)F)&)f)\000\002\305\000"
  31      6060E064 
  31      80001606 
ARM GAS  C:\Users\Thomas\AppData\Local\Temp\ccJ4d7EI.s 			page 2


  31      29462926 
  31      29662900 
  32 0017 7F       		.ascii	"\177"
  33              		.text
  34              		.section	.gnu.lto_P2_Data_6_Write.b94984e5,"",%progbits
  35 0000 789C6591 		.ascii	"x\234e\221MHTQ\030\206\317{\316\2753\232\"\321r\266"
  35      4D485451 
  35      1886CF7B 
  35      CEBD339A 
  35      22D172B6 
  36 0014 326810B3 		.ascii	"2h\020\263\020\212\226QA\333\001\267\003\303e\272\013"
  36      108A9651 
  36      41DB01B7 
  36      03C365BA 
  36      0B
  37 0025 2112F4DA 		.ascii	"!\022\364\332\326skp\021H\"\202AL(\026VS\376\214(-,"
  37      D6736B70 
  37      11482282 
  37      414C2816 
  37      5653FE8C 
  38 003c AE3FE022 		.ascii	"\256?\340\"jP\242@l2\230\302v\212\221\232\350\364}\347"
  38      6A50A240 
  38      6C3298C2 
  38      768A919A 
  38      E8F47DE7 
  39 0050 6C140F9C 		.ascii	"l\024\017\234\237\373\361\274\357y\317w\2258;\0224["
  39      9FFBF1BC 
  39      EF79CF77 
  39      95383B12 
  39      345B
  40 0062 A5105769 		.ascii	"\245\020Wi\207\022\220\003\237\204\010\353$\300\007"
  40      87129003 
  40      9F8408EB 
  40      24C007
  41 0071 01D12BD1 		.ascii	"\001\321+\321\213\337rGb *>nhy\256\265\336\036,\207"
  41      8BDF7247 
  41      62202A3E 
  41      6E6879AE 
  41      B5DE1E2C 
  42 0086 E90807A4 		.ascii	"\351\010\007\244\333\225\326\007\343h!f\267\250\207"
  42      DB95D607 
  42      E3682166 
  42      B7A887
  43 0095 946A85A0 		.ascii	"\224j\205\240\363\324\352\307\343xrL\353\373\321\374"
  43      F3D4EAC7 
  43      E378724C 
  43      EBFBD1FC 
  44 00a5 84BE4638 		.ascii	"\204\276F8\360\002\212\024\270\224\300\305\204\240\202"
  44      F0028A14 
  44      B894C0C5 
  44      84A082
  45 00b4 C04B2419 		.ascii	"\300K$\031.\365/\317I\2252\302\321\017?\226\033\233"
  45      2EF52FCF 
  45      499532C2 
  45      D10F3F96 
  45      1B9B
  46 00c6 4749B879 		.ascii	"GI\270y8\227\211\302\021}\\\253\031\371\253\223r;\210"
ARM GAS  C:\Users\Thomas\AppData\Local\Temp\ccJ4d7EI.s 			page 3


  46      389789C2 
  46      117D5CAB 
  46      19F9AB93 
  46      723B88
  47 00d9 DFC91F7D 		.ascii	"\337\311\037}m\210\345)\330y\024\321l3\3415b\240\215"
  47      6D88E529 
  47      D87914D1 
  47      6C33E135 
  47      62A08D
  48 00ec 2B931722 		.ascii	"+\223\027\"]\253\315\274[\370\207zI\327Jz(\225\035\360"
  48      5DABCDBC 
  48      5BF8877A 
  48      49D74A7A 
  48      28951DF0 
  49 0100 ED2E1762 		.ascii	"\355.\027b\274\304y\021\242J\223\037\377\223>hW\353"
  49      BCC47911 
  49      A24A931F 
  49      FF933E68 
  49      57EB
  50 0112 58FCFBB0 		.ascii	"X\374\373\2602\034g\307=\311\235X\370\366\366Y\323\226"
  50      321C67C7 
  50      3DC99D58 
  50      F8F6F659 
  50      D396
  51 0124 3C906A7B 		.ascii	"<\220j{,\324\016g\370^-\257\326\231\222\211\364\364"
  51      2CD40E67 
  51      F85E2DAF 
  51      D6999289 
  51      F4F4
  52 0136 FDEC5A53 		.ascii	"\375\354ZS\001O\302<\345v\360\006\011L\200\"c\022\005"
  52      014FC23C 
  52      E576F006 
  52      094C8022 
  52      631205
  53 0149 88753CD8 		.ascii	"\210u<\330\357\333\2005T\326sd\276\322\337\310\0068"
  53      EFDB8035 
  53      54D67364 
  53      BED2DFC8 
  53      0638
  54 015b A2AE4C11 		.ascii	"\242\256L\021\374\005\322<\202\222\022\305\242\215\276"
  54      FC05D23C 
  54      829212C5 
  54      A28DBE
  55 016a 5FE3F556 		.ascii	"_\343\365V\345\356I\207T+\205\255\222\303*n\3454\211"
  55      E5EE4987 
  55      542B85AD 
  55      92C32A6E 
  55      E53489
  56 017d 8CF56769 		.ascii	"\214\365gi!\346\010*o.=2\326\016\365\256d\241?1\213"
  56      21E6082A 
  56      6F2E3D32 
  56      D60EF5AE 
  56      64A13F31 
  57 0192 C40DC5EE 		.ascii	"\304\015\305\356\213\203&\320\251\360a\344\236\216?"
  57      8B8326D0 
  57      A9F061E4 
  57      9E8E3F
ARM GAS  C:\Users\Thomas\AppData\Local\Temp\ccJ4d7EI.s 			page 4


  58 01a1 43F14924 		.ascii	"C\361I$*\010\243C\227y\376\007U\272\235:E}K\2462\267"
  58      2A08A343 
  58      9779FE07 
  58      55BA9D3A 
  58      457D4BA6 
  59 01b7 FCBB7E97 		.ascii	"\374\273~\227\027\370\267\263\355\235=]9?\223n\357\274"
  59      17F8B7B3 
  59      ED9D3D5D 
  59      393F936E 
  59      EFBC
  60 01c9 7139936E 		.ascii	"q9\223n\313\336\364\002/{%\225\023\356=\357N\217\177"
  60      CBDEF402 
  60      2F7B2595 
  60      13EE3DEF 
  60      4E8F7F
  61 01dc AE3BF082 		.ascii	"\256;\360\202\216\334\365\216\240\373?^\231\316\316"
  61      8EDCF58E 
  61      A0FB3F5E 
  61      99CECE
  62              		.text
  63              		.section	.gnu.lto_P2_Data_6_SetDriveMode.b94984e5,"",%progbits
  64 0000 789C7D51 		.ascii	"x\234}QKHBA\024\275g\346\251\257\244\210V\341^*\220"
  64      4B484241 
  64      14BD67E6 
  64      A9AFA488 
  64      56E15E2A 
  65 0015 82A0D641 		.ascii	"\202\240\326AQ[\301\255 RoY\202\330\272g\332\246ET\253"
  65      515BC1AD 
  65      20526F59 
  65      82D8BA67 
  65      DAA64554 
  66 002a 208428A2 		.ascii	" \204(\242\377\007Z\264\225hUP\330&\012R\020\373B\241"
  66      FF075AB4 
  66      95685550 
  66      D8260A52 
  66      10FB42A1 
  67 003e D8EF1162 		.ascii	"\330\357\021bw\236-\204\240\341\315\235{.\347\234w\347"
  67      779E2D84 
  67      A0E1CD9D 
  67      7B2EE79C 
  67      77E7
  68 0050 8EA4BFCB 		.ascii	"\216\244\277\313\303\373\031D>>!\011b\356\234(\256\013"
  68      C3FB1944 
  68      3E3E2109 
  68      62EE9C28 
  68      AE0B
  69 0062 4025049A 		.ascii	"@%\004\232\024\230\304\223(\011\314\245\267\027\335"
  69      1498C493 
  69      2809CCA5 
  69      B717DD
  70 0071 ED6BA669 		.ascii	"\355k\246i\026W\216\332\246\333,AT\0265\033\254\243"
  70      16578EDA 
  70      A6DB2C41 
  70      5416351B 
  70      ACA3
  71 0083 9D290FD6 		.ascii	"\235)\017\326\323z\223\354\000q^\231\277\272\024\336"
  71      D37A93EC 
ARM GAS  C:\Users\Thomas\AppData\Local\Temp\ccJ4d7EI.s 			page 5


  71      00715E99 
  71      BFBA14DE 
  72 0093 55D39C4A 		.ascii	"U\323\234J\237\355\231\375\260\330s\003\222\025\360"
  72      9FED99FD 
  72      B0D87303 
  72      9215F0
  73 00a2 79D0E921 		.ascii	"y\320\351!.\0206\341U\344R\262r\345v&\331\273\245\346"
  73      2E1036E1 
  73      55E452B2 
  73      72E57626 
  73      D9BBA5E6 
  74 00b6 892D38B9 		.ascii	"\211-8\271-\332oM\233\325j\371v~\243\033n\301\032!9"
  74      2DDA6F4D 
  74      9BD56AF9 
  74      767EA31B 
  74      6EC11A21 
  75 00cb 484D0507 		.ascii	"HM\005\007\224\334\251R\227\012\272\012\015\212CT\340"
  75      94DCA952 
  75      970ABA0A 
  75      0D8A4354 
  75      E0
  76 00dc AD6E70C7 		.ascii	"\255np\307\200Oy\203\343\217\231\373%M\371~\012u\235"
  76      804F7983 
  76      E38F99FB 
  76      254DF97E 
  76      0A759D
  77 00ef D3CC7BAE 		.ascii	"\323\314{\256\361QXB\263\226\343\246\246\272\310\025"
  77      F1515842 
  77      B396E3A6 
  77      A6BAC815 
  78 00ff 2E32BA5D 		.ascii	".2\272]\"\005S\371\374\254\236\302R<\311\315;\260\015"
  78      220553F9 
  78      FCAC9EC2 
  78      523CC9CD 
  78      3BB00D
  79 0112 0F76C003 		.ascii	"\017v\300\003\303.R\240\033Le]5;\311\216\214\023_\316"
  79      C32E52A0 
  79      1B4C655D 
  79      353BC98E 
  79      8C135FCE 
  80 0126 1AD6B8C4 		.ascii	"\032\326\270\304\372\353\327\342\231m'K\325\337\305"
  80      FAEBD7E2 
  80      996D274B 
  80      D5DFC5
  81 0135 B3DC638B 		.ascii	"\263\334c\213:-\177\216z\255\213K\254\315\034\276\234"
  81      3A2D7F8E 
  81      7AAD8B4B 
  81      ACCD1CBE 
  81      9C
  82 0146 386C6D33 		.ascii	"8lm3a\337\226$\336~)\272\375\007W\275K\003W\031\037"
  82      61DF9624 
  82      DE7E29BA 
  82      FD0757BD 
  82      4B035719 
  83 015b 2F40E1FF 		.ascii	"/@\341\377z?\340\336\231OY\304\323\337C\212\255\336"
  83      7A3FE0DE 
  83      994F59C4 
ARM GAS  C:\Users\Thomas\AppData\Local\Temp\ccJ4d7EI.s 			page 6


  83      D3DF438A 
  83      ADDE
  84 016d AFC06FC1 		.ascii	"\257\300o\301c\342\241y\273\202\303\306\270\021\015"
  84      63E2A179 
  84      BB82C3C6 
  84      B8110D
  85 017c C78CD150 		.ascii	"\307\214\321P 2\021\0351\202\376@d\2407\350\357\011"
  85      2032111D 
  85      3182FE40 
  85      64A037E8 
  85      EF09
  86 018e 0D8663E1 		.ascii	"\015\206c\341P_\327\010ic\221Q\343\007\307\006\271\243"
  86      505FD708 
  86      69639151 
  86      E307C706 
  86      B9A3
  87              		.text
  88              		.section	.gnu.lto_P2_Data_6_Read.b94984e5,"",%progbits
  89 0000 789C654F 		.ascii	"x\234eO;H\003A\024|\263w\371`\032\261\222\324J\020B"
  89      3B480341 
  89      147CB377 
  89      F9601AB1 
  89      92D44A10 
  90 0015 0A410BED 		.ascii	"\012A\013\355T\260\015\244\015\204\020\2575\020b\235"
  90      54B00DA4 
  90      0D8410AF 
  90      3510629D 
  91 0025 4D8CF153 		.ascii	"M\214\361S\371\351\024-\"\376\025\013+\013A\254E\021"
  91      F9E9142D 
  91      22FE150B 
  91      2B0B41AC 
  91      4511
  92 0037 854890B3 		.ascii	"\205H\220\263I\300t\206\370\273B\343{9;\027vv\337\274"
  92      49C07486 
  92      F8BB42E3 
  92      7B393B17 
  92      7676DFBC 
  93 004b D9997D06 		.ascii	"\331\231}\006\375_A\336c \012\361\011\203\240\226o\210"
  93      FD5F41DE 
  93      63200AF1 
  93      0983A096 
  93      6F88
  94 005d F27E05C8 		.ascii	"\362~\005\310\205@9\205\034\032\252\251p}\376s\217\320"
  94      85403985 
  94      1C1AAAA9 
  94      707DFE73 
  94      8FD0
  95 006f 8ED685D7 		.ascii	"\216\326\205\327\325\213\247\300\\\257\243\210Z\212"
  95      D58BA7C0 
  95      5CAFA388 
  95      5A8A
  96 007d 100E6240 		.ascii	"\020\016b@|\260\207\020\261\260Y\374\256\004\274E\255"
  96      7CB08710 
  96      B1B059FC 
  96      AE04BC45 
  96      AD
  97 008e 75B7F4B9 		.ascii	"u\267\364\271\261\017/g\320i\317\245n\267\317\336W\026"
ARM GAS  C:\Users\Thomas\AppData\Local\Temp\ccJ4d7EI.s 			page 7


  97      B10F2F67 
  97      D069CFA5 
  97      6EB7CFDE 
  97      5716
  98 00a0 46E10339 		.ascii	"F\341\0039\212\023\031L\006\345\021\360\222xR\215A\342"
  98      8A13194C 
  98      06E511F0 
  98      9278528D 
  98      41E2
  99 00b2 EB4AC969 		.ascii	"\353J\311iTq\365\261do\215\210\317\24728bw\355\244\334"
  99      5471F5B1 
  99      646F8D88 
  99      CFA73238 
  99      6277EDA4 
 100 00c7 F5A21C2E 		.ascii	"\365\242\034.\266\363\332\224\324\347\332\355\235\277"
 100      B6F3DA94 
 100      D4E7DAED 
 100      9DBF
 101 00d5 439194F5 		.ascii	"C\221\224\365\306b\013\233\330\310\027\341(\023\007"
 101      C6620B9B 
 101      D8C817E1 
 101      281307
 102 00e4 08E210FC 		.ascii	"\010\342\020\374K\0341KU\314~\225\036\014\327\020\256"
 102      4B1C314B 
 102      55CC7E95 
 102      1E0CD710 
 102      AE
 103 00f5 E77AA5FE 		.ascii	"\347z\245\376f\210\001x\246c\326VQ\260}\256\304d\225"
 103      66880178 
 103      A663D656 
 103      51B07DAE 
 103      C46495
 104 0108 3CB24B35 		.ascii	"<\262K5\217\313x\230D_G\3648\037v9\241\311\006\376\252"
 104      8FCB7898 
 104      445F47F4 
 104      381F7639 
 104      A1C906FE 
 105 011d CE249009 		.ascii	"\316$\220\011x\236\376H|\322\232\2662\311\2545\225\210"
 105      789EFE48 
 105      7CD29AB6 
 105      32C9AC35 
 105      9588
 106 012f A5673229 		.ascii	"\245g2)+\036\215\245\307\207\342\321\301\304D2\233L"
 106      2B1E8DA5 
 106      C787E2D1 
 106      C1C44432 
 106      9B4C
 107 0141 0C4752F4 		.ascii	"\014GR\364\0133\224{*"
 107      0B33947B 
 107      2A
 108              		.text
 109              		.section	.gnu.lto_P2_Data_6_ReadDataReg.b94984e5,"",%progbits
 110 0000 789C654F 		.ascii	"x\234eO=HBQ\030\375\316\367\236? H4\205s!\2058\0045"
 110      3D484251 
 110      18FDCEF7 
 110      9E3F2048 
 110      34857321 
ARM GAS  C:\Users\Thomas\AppData\Local\Temp\ccJ4d7EI.s 			page 8


 111 0018 3456D02A 		.ascii	"4V\320*\270\012\362\260\267&\210\315>\315,\232\242\261"
 111      B80AF2B0 
 111      B72688CD 
 111      3ECD2C9A 
 111      A2B1
 112 002a B0A5A2AC 		.ascii	"\260\245\242\254\240!\202Z\242\232#I\003C\312\026\205"
 112      A021825A 
 112      A29A2349 
 112      0343CA16 
 112      85
 113 003b DA94A27A 		.ascii	"\332\224\242zC\332w}m]\270\347\273\367|\347\236s?\215"
 113      43DA777D 
 113      6D5DB8E7 
 113      BBF77CE7 
 113      9E733F8D 
 114 004f FEAF80EC 		.ascii	"\376\257\200\354i\020\005\245B#\360\372\035Q\326\313"
 114      691005A5 
 114      4223F0FA 
 114      1D51D6CB 
 115 005f 803A1028 		.ascii	"\200:\020(\303\310\340\215;\214\333\213n\025\301=\313"
 115      C3C8E08D 
 115      3B8CDB8B 
 115      6E15C13D 
 115      CB
 116 0070 CAB52BD5 		.ascii	"\312\265+\325'\337\362\220\315D\357L\010\0050\252|\260"
 116      27DFF290 
 116      CD44EF4C 
 116      080530AA 
 116      7CB0
 117 0082 8F2089B0 		.ascii	"\217 \211\260\223\377\251\371\334y\313\262\006T_\032"
 117      93FFA9F9 
 117      DC79CBB2 
 117      06545F1A 
 118 0092 07704B06 		.ascii	"\007pK\006\235\014^Y\275\336iycu\214= \233%Q@\027`\227"
 118      9D0C5E59 
 118      BDDE6979 
 118      63758C3D 
 118      209B2551 
 119 00aa 0237294F 		.ascii	"\0027)Oj\012\250\370\026\263\252Z\0357\237k\335\322"
 119      6A0AA8F8 
 119      16B3AA5A 
 119      1D379F6B 
 119      DDD2
 120 00bc 94F2F962 		.ascii	"\224\362\371bM\"\256\237\317w\375\257l\263\326\336\311"
 120      4D22AE9F 
 120      CF77FDAF 
 120      6CB3D6DE 
 120      C9
 121 00cd 5ABA4A7D 		.ascii	"Z\272J}i\226\357\275}\212\324u\373\362\254\342/b+\233"
 121      6996EFBD 
 121      7D8AD475 
 121      FBF2ACE2 
 121      2F622B9B 
 122 00e1 87CD3A4A 		.ascii	"\207\315:J\010\340\020\362K\034\241\010\252c\351\273"
 122      08E010F2 
 122      4B1CA108 
 122      AA63E9BB 
ARM GAS  C:\Users\Thomas\AppData\Local\Temp\ccJ4d7EI.s 			page 9


 123 00f1 F0A03986 		.ascii	"\360\2409\206p<7k\255\017M\031@f:\026m\035\271\206\307"
 123      703C376B 
 123      AD0F4D19 
 123      40663A16 
 123      6D1DB986 
 124 0106 91E8A252 		.ascii	"\221\350\242R\217\032\205\246\313a\\Bb\270/z\\\0119"
 124      8F1A85A6 
 124      CB615C42 
 124      62B82F7A 
 124      5C0939
 125 0119 9CA2A901 		.ascii	"\234\242\251\001\374\335\372\223@M \363\214\204cs\346"
 125      FCDDFA93 
 125      404D20F3 
 125      8C846373 
 125      E6
 126 012a 829932D2 		.ascii	"\202\2312\322\346|<\232\\L%\314X$\232\234\231\210E\306"
 126      E67C3C9A 
 126      5C4C25CC 
 126      58249A9C 
 126      998845C6 
 127 013e E3B346DA 		.ascii	"\343\263F\332\210O\206\023\364\013\265\271{\221"
 127      884F8613 
 127      F40BB5B9 
 127      7B91
 128              		.text
 129              		.section	.gnu.lto_.symbol_nodes.b94984e5,"",%progbits
 130 0000 789C6366 		.ascii	"x\234cf``pb\200\002&\206z\006\206\011\347\030\030\352"
 130      60607062 
 130      80022686 
 130      7A068609 
 130      E71818EA 
 131 0014 EB19E62D 		.ascii	"\353\031\346-\340``b\254gD\3413\3253\241\360\231\353"
 131      E0606062 
 131      AC6744E1 
 131      33D533A1 
 131      F099EB
 132 0027 9991F90C 		.ascii	"\231\221\371\014\0003\356\020\336"
 132      0033EE10 
 132      DE
 133              		.text
 134              		.section	.gnu.lto_.refs.b94984e5,"",%progbits
 135 0000 789C6366 		.ascii	"x\234cf```d\200\002\000\000=\000\005"
 135      60606064 
 135      80020000 
 135      3D0005
 136              		.text
 137              		.section	.gnu.lto_.decls.b94984e5,"",%progbits
 138 0000 789C8D92 		.ascii	"x\234\215\222_HSq\024\307\177\347\376\256s^\327\352"
 138      5F485371 
 138      14C77FE7 
 138      FEAE735E 
 138      D7EA
 139 0012 A5292368 		.ascii	"\245)#h\020\011\201\370P\024\276\025h\350K1\224\350"
 139      100981F8 
 139      5014BE15 
 139      68E84B31 
 139      94E8
ARM GAS  C:\Users\Thomas\AppData\Local\Temp\ccJ4d7EI.s 			page 10


 140 0024 41610CBD 		.ascii	"Aa\014\275\330^4\326\014|\352\247.\234\032)b\264\204"
 140      D85E34D6 
 140      0C7CEAA7 
 140      2E9C1A29 
 140      62B484
 141 0037 6CA0D3FC 		.ascii	"l\240\323\374\233\371oNM\357\236\022D\237D\320\0275"
 141      9BF96F4E 
 141      4DEF9E12 
 141      449F44D0 
 141      1735
 142 0049 5F0C7A98 		.ascii	"_\014z\230\364\007#\361v\356o\233w\331\004\017\234{"
 142      F40723F1 
 142      76EE6F9B 
 142      77D9040F 
 142      9C7B
 143 005b 7FE7DEF3 		.ascii	"\177\347\336\363\371\236\363\373\375\016%\204d\003!"
 143      F99EF3FB 
 143      FD0E2584 
 143      640321
 144 006a 2ADA5D4A 		.ascii	"*\332]J\310\000\306i\350v\242\233\210>\216>\211\036"
 144      C800C669 
 144      E876A29B 
 144      883E8E3E 
 144      891E
 145 007c 420F93FF 		.ascii	"B\017\223\377m<\211\033A\267\240/\240\317\307\377C<"
 145      6D3C891B 
 145      41B7A02F 
 145      A0CFC7FF 
 145      433C
 146 008e E7A4699A 		.ascii	"\347\244i\232\206\023\234\222\202\235L\301\206\3425"
 146      86139C92 
 146      829D4CC1 
 146      86E235
 147 009d 135C710A 		.ascii	"\023\\q\012.\224\202\013\237\201K\265\307}\001\302\243"
 147      2E94820B 
 147      9F814BB5 
 147      C77D01C2 
 147      A3
 148 00ae 3F5632F7 		.ascii	"?V2\367\0040K6-\234\355X\362\03304I\242\026\256/65\031"
 148      04304B36 
 148      2D9CED58 
 148      F21B3034 
 148      49A216AE 
 149 00c6 A900DABA 		.ascii	"\251\000\332\272\307\277\263&\345\0162\306|LQ@\227\250"
 149      C7BFB326 
 149      E50E32C6 
 149      7C4C5140 
 149      97A8
 150 00d8 EF9B7B91 		.ascii	"\357\233{\221\216\214E\342\341\313\345\256\010\345\241"
 150      8E8C45E2 
 150      E1CBE5AE 
 150      08E5A1
 151 00e7 AA71C2C6 		.ascii	"\252q\302\306F\347o\012R\216\217\261\006\026\355`4\233"
 151      46E76F0A 
 151      528E8FB1 
 151      0616ED60 
 151      349B
ARM GAS  C:\Users\Thomas\AppData\Local\Temp\ccJ4d7EI.s 			page 11


 152 00f9 40AE15AE 		.ascii	"@\256\025\256Y\011\214B\016\246\301 \344\022\030\002"
 152      59098C42 
 152      0EA6C120 
 152      E4121802 
 153 0109 2B0C8395 		.ascii	"+\014\203\225\364b\201\350\273\265\315K\214\2110\002"
 153      F46281E8 
 153      BBB5CD4B 
 153      8C893002 
 154 0119 120C00E5 		.ascii	"\022\014\000\345\031\270\015\255B\274h\373\363H\273"
 154      19B80DAD 
 154      42BC68FB 
 154      F348BB
 155 0128 280AF851 		.ascii	"(\012\370Q\313)\343\335\376Tw\202B\326+\024`\355\215"
 155      CB29E3DD 
 155      FE547782 
 155      42D62B14 
 155      60ED8D
 156 013b EC820876 		.ascii	"\354\202\010v\013\364\243\354{\224%0\006Y\370\374\000"
 156      0BF4A3EC 
 156      7B942530 
 156      0659F8FC 
 156      00
 157 014c 624C60E2 		.ascii	"bL`\342\363\267C#\275\301\267V\277\036\2557\331\272"
 157      F3B74323 
 157      BDC1B756 
 157      BF1EAD37 
 157      D9BA
 158 015e 59602CDA 		.ascii	"Y`,\332\332\323M\337\260@\003;R\261}\015\202\217\307"
 158      DAD34DDF 
 158      B040033B 
 158      52B17D0D 
 158      828FC7
 159 0171 0D106D1D 		.ascii	"\015\020m\035;\321q\260!\0308\352[\225\250\213\213\354"
 159      3BD171B0 
 159      211838EA 
 159      5B95A88B 
 159      8BEC
 160 0183 ED06E78D 		.ascii	"\355\006\347\215\\$0\333cXb\212\252\336\346\374D\022"
 160      5C2430DB 
 160      6358628A 
 160      AADEE6FC 
 160      4412
 161 0195 3F91E027 		.ascii	"?\221\340'9\337\354\035\243\311\015k{\321;\236\342\035"
 161      39DFEC1D 
 161      A3C90D6B 
 161      7BD13B9E 
 161      E21D
 162 01a7 97C51BF6 		.ascii	"\227\305\033\366vnmeR\006\274\330w\337\362\252\300\213"
 162      766E6D65 
 162      5206BCD8 
 162      77DFF2AA 
 162      C08B
 163 01b9 6D7FDD95 		.ascii	"m\177\335\225\025/;TU\312\011\230N*7\235(\027\342\345"
 163      152F3B54 
 163      55CA0998 
 163      4E2A379D 
 163      2817E2E5 
ARM GAS  C:\Users\Thomas\AppData\Local\Temp\ccJ4d7EI.s 			page 12


 164 01cd B643EA90 		.ascii	"\266C\352\220\201\266\305$\206\3774u\307$\002o\203\211"
 164      81B6C524 
 164      86FF3475 
 164      C724026F 
 164      8389
 165 01df 7E358199 		.ascii	"~5\201\231$\201\231\204@\230\013\260\327\255\275F\032"
 165      24819984 
 165      40980BB0 
 165      D7ADBD46 
 165      1A
 166 01f0 8C094CFD 		.ascii	"\214\011L\375j\011\237\223\360Z\033\317p\2558\010k\253"
 166      6A099F93 
 166      F05A1BCF 
 166      70AD3808 
 166      6BAB
 167 0202 2DEB19B1 		.ascii	"-\353\031\261A8I|:u\020\016v\213\275\354\016\314\343"
 167      4138497C 
 167      3A75100E 
 167      768BBDEC 
 167      0ECCE3
 168 0215 C1CCEA83 		.ascii	"\301\314\352\2030\007\372$4\177\351Z1\231Z\264\351\302"
 168      3007FA24 
 168      347FE95A 
 168      31995AB4 
 168      E9C2
 169 0227 43CC5832 		.ascii	"C\314X2\363d\375\024\027\300\304w\200\357}\201F\372"
 169      F364FD14 
 169      17C0C477 
 169      80EF7D81 
 169      46FA
 170 0239 239B1258 		.ascii	"#\233\022X%\253\037\307\370\3402(\250\344\323. \332"
 170      25AB1FC7 
 170      F8E03228 
 170      A8E4D32E 
 170      20DA
 171 024b C0A8DF9C 		.ascii	"\300\250\337\234\350\210\360\037\004\"(\263\2102Z\266"
 171      E888F01F 
 171      042228B3 
 171      88325AB6 
 172 025b B2A7AACF 		.ascii	"\262\247\252\317\324\230\265\245\363\004\376H\253uU"
 172      D498B5A5 
 172      F304FE48 
 172      AB7555
 173 026a 7BF20D45 		.ascii	"{\362\015E\367\037\330\012\310\225\274\362\"\271Zv;"
 173      F71FD80A 
 173      C895BCF2 
 173      22B95A76 
 173      3B
 174 027b 3D72A5A3 		.ascii	"=r\245\243\264\246\326]!\227\333Kk\012n\226W\324y\352"
 174      B4A6D65D 
 174      2197DB4B 
 174      6B0A6E96 
 174      57D479EA 
 175 028f 1ECB4FF2 		.ascii	"\036\313O\362\036\221\363\366\353\216B\247\307\351\270"
 175      1E91F3F6 
 175      EB8E42A7 
 175      C7E9B8
ARM GAS  C:\Users\Thomas\AppData\Local\Temp\ccJ4d7EI.s 			page 13


 176 029e E578E876 		.ascii	"\345x\350vy\344\253\2472\307\211y\025\304\242S\245\262"
 176      79E4ABA7 
 176      32C78979 
 176      15C4A253 
 176      A5B2
 177 02b0 A7D0ED7A 		.ascii	"\247\320\355z*\337\253\251\224\315\372\347\022\331Y"
 177      2ADFABA9 
 177      94CDFAE7 
 177      12D959
 178 02bf 79F1DF50 		.ascii	"y\361\337P[\226\310U\242[\256\312\377\013\266\237O\250"
 178      5B96C855 
 178      A25BAECA 
 178      FF0BB69F 
 178      4FA8
 179              		.text
 180              		.section	.gnu.lto_.symtab.b94984e5,"",%progbits
 181 0000 50325F44 		.ascii	"P2_Data_6_Write\000\000\000\000\000\000\000\000\000"
 181      6174615F 
 181      365F5772 
 181      69746500 
 181      00000000 
 182 0018 000000B2 		.ascii	"\000\000\000\262\000\000\000P2_Data_6_SetDriveMode\000"
 182      00000050 
 182      325F4461 
 182      74615F36 
 182      5F536574 
 183 0036 00000000 		.ascii	"\000\000\000\000\000\000\000\000\000\000\000\264\000"
 183      00000000 
 183      000000B4 
 183      00
 184 0043 00005032 		.ascii	"\000\000P2_Data_6_Read\000\000\000\000\000\000\000\000"
 184      5F446174 
 184      615F365F 
 184      52656164 
 184      00000000 
 185 005b 00000000 		.ascii	"\000\000\000\000\267\000\000\000P2_Data_6_ReadDataR"
 185      B7000000 
 185      50325F44 
 185      6174615F 
 185      365F5265 
 186 0076 65670000 		.ascii	"eg\000\000\000\000\000\000\000\000\000\000\000\000\271"
 186      00000000 
 186      00000000 
 186      0000B9
 187 0085 000000   		.ascii	"\000\000\000"
 188              		.text
 189              		.section	.gnu.lto_.opts,"",%progbits
 190 0000 272D666E 		.ascii	"'-fno-trapv' '-mcpu=cortex-m3' '-mthumb' '-g' '-O3'"
 190      6F2D7472 
 190      61707627 
 190      20272D6D 
 190      6370753D 
 191 0033 20272D66 		.ascii	" '-ffunction-sections' '-finline-functions' '-flto'"
 191      66756E63 
 191      74696F6E 
 191      2D736563 
 191      74696F6E 
ARM GAS  C:\Users\Thomas\AppData\Local\Temp\ccJ4d7EI.s 			page 14


 192 0066 20272D66 		.ascii	" '-ffat-lto-objects'\000"
 192      6661742D 
 192      6C746F2D 
 192      6F626A65 
 192      63747327 
 193              		.text
 194              		.cfi_sections	.debug_frame
 195              		.section	.text.P2_Data_6_Write,"ax",%progbits
 196              		.align	2
 197              		.global	P2_Data_6_Write
 198              		.thumb
 199              		.thumb_func
 200              		.type	P2_Data_6_Write, %function
 201              	P2_Data_6_Write:
 202              	.LFB0:
 203              		.file 1 ".\\Generated_Source\\PSoC5\\P2_Data_6.c"
   1:.\Generated_Source\PSoC5/P2_Data_6.c **** /*******************************************************************************
   2:.\Generated_Source\PSoC5/P2_Data_6.c **** * File Name: P2_Data_6.c  
   3:.\Generated_Source\PSoC5/P2_Data_6.c **** * Version 2.20
   4:.\Generated_Source\PSoC5/P2_Data_6.c **** *
   5:.\Generated_Source\PSoC5/P2_Data_6.c **** * Description:
   6:.\Generated_Source\PSoC5/P2_Data_6.c **** *  This file contains API to enable firmware control of a Pins component.
   7:.\Generated_Source\PSoC5/P2_Data_6.c **** *
   8:.\Generated_Source\PSoC5/P2_Data_6.c **** * Note:
   9:.\Generated_Source\PSoC5/P2_Data_6.c **** *
  10:.\Generated_Source\PSoC5/P2_Data_6.c **** ********************************************************************************
  11:.\Generated_Source\PSoC5/P2_Data_6.c **** * Copyright 2008-2015, Cypress Semiconductor Corporation.  All rights reserved.
  12:.\Generated_Source\PSoC5/P2_Data_6.c **** * You may use this file only in accordance with the license, terms, conditions, 
  13:.\Generated_Source\PSoC5/P2_Data_6.c **** * disclaimers, and limitations in the end user license agreement accompanying 
  14:.\Generated_Source\PSoC5/P2_Data_6.c **** * the software package with which this file was provided.
  15:.\Generated_Source\PSoC5/P2_Data_6.c **** *******************************************************************************/
  16:.\Generated_Source\PSoC5/P2_Data_6.c **** 
  17:.\Generated_Source\PSoC5/P2_Data_6.c **** #include "cytypes.h"
  18:.\Generated_Source\PSoC5/P2_Data_6.c **** #include "P2_Data_6.h"
  19:.\Generated_Source\PSoC5/P2_Data_6.c **** 
  20:.\Generated_Source\PSoC5/P2_Data_6.c **** /* APIs are not generated for P15[7:6] on PSoC 5 */
  21:.\Generated_Source\PSoC5/P2_Data_6.c **** #if !(CY_PSOC5A &&\
  22:.\Generated_Source\PSoC5/P2_Data_6.c **** 	 P2_Data_6__PORT == 15 && ((P2_Data_6__MASK & 0xC0) != 0))
  23:.\Generated_Source\PSoC5/P2_Data_6.c **** 
  24:.\Generated_Source\PSoC5/P2_Data_6.c **** 
  25:.\Generated_Source\PSoC5/P2_Data_6.c **** /*******************************************************************************
  26:.\Generated_Source\PSoC5/P2_Data_6.c **** * Function Name: P2_Data_6_Write
  27:.\Generated_Source\PSoC5/P2_Data_6.c **** ****************************************************************************//**
  28:.\Generated_Source\PSoC5/P2_Data_6.c **** *
  29:.\Generated_Source\PSoC5/P2_Data_6.c **** * \brief Writes the value to the physical port (data output register), masking
  30:.\Generated_Source\PSoC5/P2_Data_6.c **** *  and shifting the bits appropriately. 
  31:.\Generated_Source\PSoC5/P2_Data_6.c **** *
  32:.\Generated_Source\PSoC5/P2_Data_6.c **** * The data output register controls the signal applied to the physical pin in 
  33:.\Generated_Source\PSoC5/P2_Data_6.c **** * conjunction with the drive mode parameter. This function avoids changing 
  34:.\Generated_Source\PSoC5/P2_Data_6.c **** * other bits in the port by using the appropriate method (read-modify-write or
  35:.\Generated_Source\PSoC5/P2_Data_6.c **** * bit banding).
  36:.\Generated_Source\PSoC5/P2_Data_6.c **** *
  37:.\Generated_Source\PSoC5/P2_Data_6.c **** * <b>Note</b> This function should not be used on a hardware digital output pin 
  38:.\Generated_Source\PSoC5/P2_Data_6.c **** * as it is driven by the hardware signal attached to it.
  39:.\Generated_Source\PSoC5/P2_Data_6.c **** *
  40:.\Generated_Source\PSoC5/P2_Data_6.c **** * \param value
  41:.\Generated_Source\PSoC5/P2_Data_6.c **** *  Value to write to the component instance.
ARM GAS  C:\Users\Thomas\AppData\Local\Temp\ccJ4d7EI.s 			page 15


  42:.\Generated_Source\PSoC5/P2_Data_6.c **** *
  43:.\Generated_Source\PSoC5/P2_Data_6.c **** * \return 
  44:.\Generated_Source\PSoC5/P2_Data_6.c **** *  None 
  45:.\Generated_Source\PSoC5/P2_Data_6.c **** *
  46:.\Generated_Source\PSoC5/P2_Data_6.c **** * \sideeffect
  47:.\Generated_Source\PSoC5/P2_Data_6.c **** *  If you use read-modify-write operations that are not atomic; the Interrupt 
  48:.\Generated_Source\PSoC5/P2_Data_6.c **** *  Service Routines (ISR) can cause corruption of this function. An ISR that 
  49:.\Generated_Source\PSoC5/P2_Data_6.c **** *  interrupts this function and performs writes to the Pins component data 
  50:.\Generated_Source\PSoC5/P2_Data_6.c **** *  register can cause corrupted port data. To avoid this issue, you should 
  51:.\Generated_Source\PSoC5/P2_Data_6.c **** *  either use the Per-Pin APIs (primary method) or disable interrupts around 
  52:.\Generated_Source\PSoC5/P2_Data_6.c **** *  this function.
  53:.\Generated_Source\PSoC5/P2_Data_6.c **** *
  54:.\Generated_Source\PSoC5/P2_Data_6.c **** * \funcusage
  55:.\Generated_Source\PSoC5/P2_Data_6.c **** *  \snippet P2_Data_6_SUT.c usage_P2_Data_6_Write
  56:.\Generated_Source\PSoC5/P2_Data_6.c **** *******************************************************************************/
  57:.\Generated_Source\PSoC5/P2_Data_6.c **** void P2_Data_6_Write(uint8 value)
  58:.\Generated_Source\PSoC5/P2_Data_6.c **** {
 204              		.loc 1 58 0
 205              		.cfi_startproc
 206              		@ args = 0, pretend = 0, frame = 0
 207              		@ frame_needed = 0, uses_anonymous_args = 0
 208              		@ link register save eliminated.
 209              	.LVL0:
  59:.\Generated_Source\PSoC5/P2_Data_6.c ****     uint8 staticBits = (P2_Data_6_DR & (uint8)(~P2_Data_6_MASK));
 210              		.loc 1 59 0
 211 0000 044A     		ldr	r2, .L2
  60:.\Generated_Source\PSoC5/P2_Data_6.c ****     P2_Data_6_DR = staticBits | ((uint8)(value << P2_Data_6_SHIFT) & P2_Data_6_MASK);
 212              		.loc 1 60 0
 213 0002 4000     		lsls	r0, r0, #1
 214              	.LVL1:
  59:.\Generated_Source\PSoC5/P2_Data_6.c ****     uint8 staticBits = (P2_Data_6_DR & (uint8)(~P2_Data_6_MASK));
 215              		.loc 1 59 0
 216 0004 1378     		ldrb	r3, [r2]	@ zero_extendqisi2
 217              	.LVL2:
 218              		.loc 1 60 0
 219 0006 00F00200 		and	r0, r0, #2
  59:.\Generated_Source\PSoC5/P2_Data_6.c ****     uint8 staticBits = (P2_Data_6_DR & (uint8)(~P2_Data_6_MASK));
 220              		.loc 1 59 0
 221 000a 03F0FD03 		and	r3, r3, #253
 222              	.LVL3:
 223              		.loc 1 60 0
 224 000e 1843     		orrs	r0, r0, r3
 225 0010 1070     		strb	r0, [r2]
 226 0012 7047     		bx	lr
 227              	.L3:
 228              		.align	2
 229              	.L2:
 230 0014 F0510040 		.word	1073762800
 231              		.cfi_endproc
 232              	.LFE0:
 233              		.size	P2_Data_6_Write, .-P2_Data_6_Write
 234              		.section	.text.P2_Data_6_SetDriveMode,"ax",%progbits
 235              		.align	2
 236              		.global	P2_Data_6_SetDriveMode
 237              		.thumb
 238              		.thumb_func
 239              		.type	P2_Data_6_SetDriveMode, %function
ARM GAS  C:\Users\Thomas\AppData\Local\Temp\ccJ4d7EI.s 			page 16


 240              	P2_Data_6_SetDriveMode:
 241              	.LFB1:
  61:.\Generated_Source\PSoC5/P2_Data_6.c **** }
  62:.\Generated_Source\PSoC5/P2_Data_6.c **** 
  63:.\Generated_Source\PSoC5/P2_Data_6.c **** 
  64:.\Generated_Source\PSoC5/P2_Data_6.c **** /*******************************************************************************
  65:.\Generated_Source\PSoC5/P2_Data_6.c **** * Function Name: P2_Data_6_SetDriveMode
  66:.\Generated_Source\PSoC5/P2_Data_6.c **** ****************************************************************************//**
  67:.\Generated_Source\PSoC5/P2_Data_6.c **** *
  68:.\Generated_Source\PSoC5/P2_Data_6.c **** * \brief Sets the drive mode for each of the Pins component's pins.
  69:.\Generated_Source\PSoC5/P2_Data_6.c **** * 
  70:.\Generated_Source\PSoC5/P2_Data_6.c **** * <b>Note</b> This affects all pins in the Pins component instance. Use the
  71:.\Generated_Source\PSoC5/P2_Data_6.c **** * Per-Pin APIs if you wish to control individual pin's drive modes.
  72:.\Generated_Source\PSoC5/P2_Data_6.c **** *
  73:.\Generated_Source\PSoC5/P2_Data_6.c **** * \param mode
  74:.\Generated_Source\PSoC5/P2_Data_6.c **** *  Mode for the selected signals. Valid options are documented in 
  75:.\Generated_Source\PSoC5/P2_Data_6.c **** *  \ref driveMode.
  76:.\Generated_Source\PSoC5/P2_Data_6.c **** *
  77:.\Generated_Source\PSoC5/P2_Data_6.c **** * \return
  78:.\Generated_Source\PSoC5/P2_Data_6.c **** *  None
  79:.\Generated_Source\PSoC5/P2_Data_6.c **** *
  80:.\Generated_Source\PSoC5/P2_Data_6.c **** * \sideeffect
  81:.\Generated_Source\PSoC5/P2_Data_6.c **** *  If you use read-modify-write operations that are not atomic, the ISR can
  82:.\Generated_Source\PSoC5/P2_Data_6.c **** *  cause corruption of this function. An ISR that interrupts this function 
  83:.\Generated_Source\PSoC5/P2_Data_6.c **** *  and performs writes to the Pins component Drive Mode registers can cause 
  84:.\Generated_Source\PSoC5/P2_Data_6.c **** *  corrupted port data. To avoid this issue, you should either use the Per-Pin
  85:.\Generated_Source\PSoC5/P2_Data_6.c **** *  APIs (primary method) or disable interrupts around this function.
  86:.\Generated_Source\PSoC5/P2_Data_6.c **** *
  87:.\Generated_Source\PSoC5/P2_Data_6.c **** * \funcusage
  88:.\Generated_Source\PSoC5/P2_Data_6.c **** *  \snippet P2_Data_6_SUT.c usage_P2_Data_6_SetDriveMode
  89:.\Generated_Source\PSoC5/P2_Data_6.c **** *******************************************************************************/
  90:.\Generated_Source\PSoC5/P2_Data_6.c **** void P2_Data_6_SetDriveMode(uint8 mode)
  91:.\Generated_Source\PSoC5/P2_Data_6.c **** {
 242              		.loc 1 91 0
 243              		.cfi_startproc
 244              		@ args = 0, pretend = 0, frame = 0
 245              		@ frame_needed = 0, uses_anonymous_args = 0
 246              		@ link register save eliminated.
 247              	.LVL4:
  92:.\Generated_Source\PSoC5/P2_Data_6.c **** 	CyPins_SetPinDriveMode(P2_Data_6_0, mode);
 248              		.loc 1 92 0
 249 0000 044A     		ldr	r2, .L5
 250 0002 00F00E00 		and	r0, r0, #14
 251              	.LVL5:
 252 0006 1378     		ldrb	r3, [r2]	@ zero_extendqisi2
 253 0008 03F0F103 		and	r3, r3, #241
 254 000c 1843     		orrs	r0, r0, r3
 255 000e 1070     		strb	r0, [r2]
 256 0010 7047     		bx	lr
 257              	.L6:
 258 0012 00BF     		.align	2
 259              	.L5:
 260 0014 79500040 		.word	1073762425
 261              		.cfi_endproc
 262              	.LFE1:
 263              		.size	P2_Data_6_SetDriveMode, .-P2_Data_6_SetDriveMode
 264              		.section	.text.P2_Data_6_Read,"ax",%progbits
ARM GAS  C:\Users\Thomas\AppData\Local\Temp\ccJ4d7EI.s 			page 17


 265              		.align	2
 266              		.global	P2_Data_6_Read
 267              		.thumb
 268              		.thumb_func
 269              		.type	P2_Data_6_Read, %function
 270              	P2_Data_6_Read:
 271              	.LFB2:
  93:.\Generated_Source\PSoC5/P2_Data_6.c **** }
  94:.\Generated_Source\PSoC5/P2_Data_6.c **** 
  95:.\Generated_Source\PSoC5/P2_Data_6.c **** 
  96:.\Generated_Source\PSoC5/P2_Data_6.c **** /*******************************************************************************
  97:.\Generated_Source\PSoC5/P2_Data_6.c **** * Function Name: P2_Data_6_Read
  98:.\Generated_Source\PSoC5/P2_Data_6.c **** ****************************************************************************//**
  99:.\Generated_Source\PSoC5/P2_Data_6.c **** *
 100:.\Generated_Source\PSoC5/P2_Data_6.c **** * \brief Reads the associated physical port (pin status register) and masks 
 101:.\Generated_Source\PSoC5/P2_Data_6.c **** *  the required bits according to the width and bit position of the component
 102:.\Generated_Source\PSoC5/P2_Data_6.c **** *  instance. 
 103:.\Generated_Source\PSoC5/P2_Data_6.c **** *
 104:.\Generated_Source\PSoC5/P2_Data_6.c **** * The pin's status register returns the current logic level present on the 
 105:.\Generated_Source\PSoC5/P2_Data_6.c **** * physical pin.
 106:.\Generated_Source\PSoC5/P2_Data_6.c **** *
 107:.\Generated_Source\PSoC5/P2_Data_6.c **** * \return 
 108:.\Generated_Source\PSoC5/P2_Data_6.c **** *  The current value for the pins in the component as a right justified number.
 109:.\Generated_Source\PSoC5/P2_Data_6.c **** *
 110:.\Generated_Source\PSoC5/P2_Data_6.c **** * \funcusage
 111:.\Generated_Source\PSoC5/P2_Data_6.c **** *  \snippet P2_Data_6_SUT.c usage_P2_Data_6_Read  
 112:.\Generated_Source\PSoC5/P2_Data_6.c **** *******************************************************************************/
 113:.\Generated_Source\PSoC5/P2_Data_6.c **** uint8 P2_Data_6_Read(void)
 114:.\Generated_Source\PSoC5/P2_Data_6.c **** {
 272              		.loc 1 114 0
 273              		.cfi_startproc
 274              		@ args = 0, pretend = 0, frame = 0
 275              		@ frame_needed = 0, uses_anonymous_args = 0
 276              		@ link register save eliminated.
 115:.\Generated_Source\PSoC5/P2_Data_6.c ****     return (P2_Data_6_PS & P2_Data_6_MASK) >> P2_Data_6_SHIFT;
 277              		.loc 1 115 0
 278 0000 024B     		ldr	r3, .L8
 279 0002 1878     		ldrb	r0, [r3]	@ zero_extendqisi2
 116:.\Generated_Source\PSoC5/P2_Data_6.c **** }
 280              		.loc 1 116 0
 281 0004 C0F34000 		ubfx	r0, r0, #1, #1
 282 0008 7047     		bx	lr
 283              	.L9:
 284 000a 00BF     		.align	2
 285              	.L8:
 286 000c F1510040 		.word	1073762801
 287              		.cfi_endproc
 288              	.LFE2:
 289              		.size	P2_Data_6_Read, .-P2_Data_6_Read
 290              		.section	.text.P2_Data_6_ReadDataReg,"ax",%progbits
 291              		.align	2
 292              		.global	P2_Data_6_ReadDataReg
 293              		.thumb
 294              		.thumb_func
 295              		.type	P2_Data_6_ReadDataReg, %function
 296              	P2_Data_6_ReadDataReg:
 297              	.LFB3:
ARM GAS  C:\Users\Thomas\AppData\Local\Temp\ccJ4d7EI.s 			page 18


 117:.\Generated_Source\PSoC5/P2_Data_6.c **** 
 118:.\Generated_Source\PSoC5/P2_Data_6.c **** 
 119:.\Generated_Source\PSoC5/P2_Data_6.c **** /*******************************************************************************
 120:.\Generated_Source\PSoC5/P2_Data_6.c **** * Function Name: P2_Data_6_ReadDataReg
 121:.\Generated_Source\PSoC5/P2_Data_6.c **** ****************************************************************************//**
 122:.\Generated_Source\PSoC5/P2_Data_6.c **** *
 123:.\Generated_Source\PSoC5/P2_Data_6.c **** * \brief Reads the associated physical port's data output register and masks 
 124:.\Generated_Source\PSoC5/P2_Data_6.c **** *  the correct bits according to the width and bit position of the component 
 125:.\Generated_Source\PSoC5/P2_Data_6.c **** *  instance. 
 126:.\Generated_Source\PSoC5/P2_Data_6.c **** *
 127:.\Generated_Source\PSoC5/P2_Data_6.c **** * The data output register controls the signal applied to the physical pin in 
 128:.\Generated_Source\PSoC5/P2_Data_6.c **** * conjunction with the drive mode parameter. This is not the same as the 
 129:.\Generated_Source\PSoC5/P2_Data_6.c **** * preferred P2_Data_6_Read() API because the 
 130:.\Generated_Source\PSoC5/P2_Data_6.c **** * P2_Data_6_ReadDataReg() reads the data register instead of the status 
 131:.\Generated_Source\PSoC5/P2_Data_6.c **** * register. For output pins this is a useful function to determine the value 
 132:.\Generated_Source\PSoC5/P2_Data_6.c **** * just written to the pin.
 133:.\Generated_Source\PSoC5/P2_Data_6.c **** *
 134:.\Generated_Source\PSoC5/P2_Data_6.c **** * \return 
 135:.\Generated_Source\PSoC5/P2_Data_6.c **** *  The current value of the data register masked and shifted into a right 
 136:.\Generated_Source\PSoC5/P2_Data_6.c **** *  justified number for the component instance.
 137:.\Generated_Source\PSoC5/P2_Data_6.c **** *
 138:.\Generated_Source\PSoC5/P2_Data_6.c **** * \funcusage
 139:.\Generated_Source\PSoC5/P2_Data_6.c **** *  \snippet P2_Data_6_SUT.c usage_P2_Data_6_ReadDataReg 
 140:.\Generated_Source\PSoC5/P2_Data_6.c **** *******************************************************************************/
 141:.\Generated_Source\PSoC5/P2_Data_6.c **** uint8 P2_Data_6_ReadDataReg(void)
 142:.\Generated_Source\PSoC5/P2_Data_6.c **** {
 298              		.loc 1 142 0
 299              		.cfi_startproc
 300              		@ args = 0, pretend = 0, frame = 0
 301              		@ frame_needed = 0, uses_anonymous_args = 0
 302              		@ link register save eliminated.
 143:.\Generated_Source\PSoC5/P2_Data_6.c ****     return (P2_Data_6_DR & P2_Data_6_MASK) >> P2_Data_6_SHIFT;
 303              		.loc 1 143 0
 304 0000 024B     		ldr	r3, .L11
 305 0002 1878     		ldrb	r0, [r3]	@ zero_extendqisi2
 144:.\Generated_Source\PSoC5/P2_Data_6.c **** }
 306              		.loc 1 144 0
 307 0004 C0F34000 		ubfx	r0, r0, #1, #1
 308 0008 7047     		bx	lr
 309              	.L12:
 310 000a 00BF     		.align	2
 311              	.L11:
 312 000c F0510040 		.word	1073762800
 313              		.cfi_endproc
 314              	.LFE3:
 315              		.size	P2_Data_6_ReadDataReg, .-P2_Data_6_ReadDataReg
 316              		.text
 317              	.Letext0:
 318              		.file 2 ".\\Generated_Source\\PSoC5\\cytypes.h"