ARM GAS  C:\Users\Thomas\AppData\Local\Temp\ccbt6k6D.s 			page 1


   1              		.syntax unified
   2              		.cpu cortex-m3
   3              		.fpu softvfp
   4              		.eabi_attribute 20, 1
   5              		.eabi_attribute 21, 1
   6              		.eabi_attribute 23, 3
   7              		.eabi_attribute 24, 1
   8              		.eabi_attribute 25, 1
   9              		.eabi_attribute 26, 1
  10              		.eabi_attribute 30, 2
  11              		.eabi_attribute 34, 1
  12              		.eabi_attribute 18, 4
  13              		.thumb
  14              		.file	"P2_RegD1_PM.c"
  15              		.text
  16              	.Ltext0:
  17              		.section	.gnu.lto_.profile.c0d68e78,"",%progbits
  18 0000 789C6366 		.ascii	"x\234cf```a\200\000F\006cY\000\000\367\000Y"
  18      60606061 
  18      80004606 
  18      63590000 
  18      F70059
  19              		.text
  20              		.section	.gnu.lto_.jmpfuncs.c0d68e78,"",%progbits
  21 0000 789C6366 		.ascii	"x\234cf\300\016\004\2404\013\0203100C\231\014\000\002"
  21      C00E04A0 
  21      340B1033 
  21      31303043 
  21      990C0002 
  22 0014 C70021   		.ascii	"\307\000!"
  23              		.text
  24              		.section	.gnu.lto_.inline.c0d68e78,"",%progbits
  25 0000 789C6366 		.ascii	"x\234cf\300\016\"\2404\013\003\003;\033#\003\023\307"
  25      C00E22A0 
  25      340B0303 
  25      3B1B2303 
  25      13C7
  26 0012 013B06B6 		.ascii	"\001;\006\266\005\362L 1&L!f\006\036\021\240\220@C-"
  26      05F24C20 
  26      31264C21 
  26      66061E11 
  26      A0904043 
  27 0027 5C88910B 		.ascii	"\\\210\221\013\254\235\233\027(\316\267!\027U\234\001"
  27      AC9D9B17 
  27      28CEB721 
  27      17559C01 
  28 0037 00917408 		.ascii	"\000\221t\010="
  28      3D
  29              		.text
  30              		.section	.gnu.lto_.pureconst.c0d68e78,"",%progbits
  31 0000 789C6366 		.ascii	"x\234cf``\340d\200\000\026\006)&)f)\026)\000\002\321"
  31      6060E064 
  31      80001606 
  31      29262966 
  31      29162900 
  32 0016 0082     		.ascii	"\000\202"
  33              		.text
ARM GAS  C:\Users\Thomas\AppData\Local\Temp\ccbt6k6D.s 			page 2


  34              		.section	.gnu.lto_P2_RegD1_SaveConfig.c0d68e78,"",%progbits
  35 0000 789C8D91 		.ascii	"x\234\215\221\335+\004Q\030\306\337\347\3351\255\334"
  35      DD2B0451 
  35      18C6DFE7 
  35      DD31ADDC 
  36 0010 C8A57B6D 		.ascii	"\310\245{m\312*\312_@\271R\033\267[\233\326\344\316"
  36      CA2ACA5F 
  36      40B9521B 
  36      B75B9BD6 
  36      E4CE
  37 0022 96B8DCCC 		.ascii	"\226\270\334\314h\213$\344J\371\270P\262\354\332]_\367"
  37      688B24E4 
  37      4AF9B850 
  37      B2ECDA5D 
  37      5FF7
  38 0034 4329C592 		.ascii	"C)\305\222\024\345\302W\253\326\315\346\253\325$\037"
  38      14E5C257 
  38      ABD6CDE6 
  38      ABD5241F 
  39 0044 EF19F988 		.ascii	"\357\031\371\210\222\251\2313\347\274\317y\336\337s"
  39      92A99933 
  39      E7BCCF79 
  39      DEDF73
  40 0053 8E877E3F 		.ascii	"\216\207~?\225\362\346AT-#<\004\036\333#\262\274\014"
  40      95F2E641 
  40      542D233C 
  40      041EDB23 
  40      B2BC0C
  41 0066 A81F02F5 		.ascii	"\250\037\002\3651\372p\315\267\2141;1Q\346\2333M\363"
  41      31FA70CD 
  41      B78C313B 
  41      3151E69B 
  41      334DF3
  42 0079 66366B05 		.ascii	"f6k\005l8Lt\317\357>\230\207\217Dt\033{>.\323c\"*\177"
  42      6C384C74 
  42      CFEF3E98 
  42      878F4474 
  42      1B7B3E2E 
  43 0092 AF210E5D 		.ascii	"\257!\016]\374)]a\233\257\257\367\353\033E\350L\016"
  43      FC295D61 
  43      9BAFAFF7 
  43      EB1B45E8 
  43      4C0E
  44 00a4 43531FA2 		.ascii	"CS\037\242\234\210T\253+f5zN\260Y\034*\034\225\252}"
  44      9C8854AB 
  44      2B66357A 
  44      4EB0591C 
  44      2A1C95AA 
  45 00b9 8FACFAEE 		.ascii	"\217\254\372\356d\266v9\317\016\363\360\266ej\252\313"
  45      64B67639 
  45      CF0EF3F0 
  45      B6656AAA 
  45      CB
  46 00ca 596EFFC0 		.ascii	"Yn\377\300\353.\221\232>\024\016\262\230\306\244\025"
  46      EB2E919A 
  46      3E140EB2 
  46      98C6A415 
ARM GAS  C:\Users\Thomas\AppData\Local\Temp\ccbt6k6D.s 			page 3


  47 00da 13260F16 		.ascii	"\023&\017\026P\211EH2$d\225N\320?~Q\245\374D:s8\222"
  47      50894548 
  47      32246495 
  47      4ED03F7E 
  47      51A5FC44 
  48 00f2 E2E89339 		.ascii	"\342\350\2239hz\035\326\236\025\341w?\315\235\306\255"
  48      687A1DD6 
  48      9E15E177 
  48      3FCD9DC6 
  48      AD
  49 0103 D894EB67 		.ascii	"\330\224\353g*U\011\222\210bI\031J\355%9\272\242\373"
  49      2A550992 
  49      88624919 
  49      4AED2539 
  49      BAA2FB
  50 0116 1312D0AE 		.ascii	"\023\022\320\256qXGJ\204w\356! \015\277\020\223\233"
  50      7158474A 
  50      8477EE21 
  50      200DBF10 
  50      939B
  51 0128 A0F89140 		.ascii	"\240\370\221@\223=\347\227\231\264\356\342N}$\0308\\"
  51      933DE797 
  51      99B4EEE2 
  51      4E7D2418 
  51      385C
  52 013a 1DD4BF90 		.ascii	"\035\324\277\2203\237\310\313\377D\376\311\270\362\007"
  52      339FC8CB 
  52      FF44FEC9 
  52      B8F207
  53 0149 E3AACBA8 		.ascii	"\343\252\313\250n\001k\212Q\243SX\366c\211j\240\310"
  53      6E016B8A 
  53      51A35358 
  53      F663896A 
  53      A0C8
  54 015b 735293B3 		.ascii	"sR\223\263\027g_m\260\331\3502\272\333{\214\216P[\244"
  54      17675F6D 
  54      B0D9E832 
  54      BADB7B8C 
  54      8E505BA4 
  55 016f B73B6C04 		.ascii	"\267;l\004\003m\221\306\206`\240>\324jt6\325\205\002"
  55      036D91C6 
  55      8660A03E 
  55      D46A7436 
  55      D58502
  56 0182 2DB5617A 		.ascii	"-\265az\003tH\276#"
  56      037448BE 
  56      23
  57              		.text
  58              		.section	.gnu.lto_P2_RegD1_RestoreConfig.c0d68e78,"",%progbits
  59 0000 789C7590 		.ascii	"x\234u\220\337+\203Q\034\306\277\317w\357\336V\273\221"
  59      DF2B8351 
  59      1CC6BFCF 
  59      77EFDE56 
  59      BB91
  60 0012 ABB57F60 		.ascii	"\253\265\177`IV\224\277\200\270Rc\267\253\245ysg\265"
  60      495694BF 
  60      80B85263 
ARM GAS  C:\Users\Thomas\AppData\Local\Temp\ccbt6k6D.s 			page 4


  60      B7ABA579 
  60      7367B5
  61 0025 B8D4DE57 		.ascii	"\270\324\336W\023\027b\\)?\356d\030\233M\256\327J)l"
  61      1317625C 
  61      293FEE64 
  61      189B4DAE 
  61      D74A296C 
  62 0039 694A4D21 		.ascii	"iJM!Mq#C\351M~\234\363.d8u~}\317s\236\347s\216\215~"
  62      4D712343 
  62      E94D7E9C 
  62      F32E6438 
  62      757E7DCF 
  63 0054 37B7E865 		.ascii	"7\267\350e\0205\211\0316\002\307\013D\206\203\001\271"
  63      10358919 
  63      3602C70B 
  63      44868301 
  63      B9
  64 0065 20509411 		.ascii	" P\224\021\305-W\031\361\334\306\274\323\263\242\353"
  64      C52D5719 
  64      F1DCC6BC 
  64      D3B3A2EB 
  65 0075 FA7D3EEB 		.ascii	"\372}>\353\032w\231L\364\3105\033\254\302CBS\215\275"
  65      1A77994C 
  65      F4C8351B 
  65      ACC24342 
  65      538DBD
  66 0088 9E3AD598 		.ascii	"\236:\325\230\3204\324\316\220\200*\354)\325\230\323"
  66      D034D4CE 
  66      90802AEC 
  66      29D598D3 
  67 0098 DFDF1F0B 		.ascii	"\337\337\037\013\263\211f\250L&C\221\003QE\250d\324"
  67      B38966A8 
  67      4C264391 
  67      035145A8 
  67      64D4
  68 00aa 35B39C6D 		.ascii	"5\263\234me\214\355V\213\275\362\3363\313\330\345\322"
  68      658CED56 
  68      8BBDF2DE 
  68      33CBD8E5 
  68      D2
  69 00bb F4168FBE 		.ascii	"\364\026\217\276\350\223\272\303d~\225\246\242zQ)\036"
  69      E893BAC3 
  69      647E95A6 
  69      A27A5129 
  69      1E
  70 00cc 3B6E5854 		.ascii	";nXT\254m\302\210-b\011\013\206.U6\254a\024\353p[go"
  70      AC6DC288 
  70      2D62090B 
  70      862E5536 
  70      AC6114EB 
  71 00e4 C9998CDA 		.ascii	"\311\231\214\332\322l\262\202\015\241y\260\220\221D"
  71      D26CB282 
  71      0DA179B0 
  71      909144
  72 00f3 8B78787E 		.ascii	"\213xx~\0162I\250\016\322{\207,\015\355S\373\206\256"
  72      0E3249A8 
  72      0ED27B87 
ARM GAS  C:\Users\Thomas\AppData\Local\Temp\ccbt6k6D.s 			page 5


  72      2C0DED53 
  72      FB86AE
  73 0106 FCC8B05B 		.ascii	"\374\310\260[>Ow\307GVF\014&\253\330\204\033[2\002)"
  73      3E4F77C7 
  73      4756460C 
  73      26ABD884 
  73      1B5B3202 
  74 011b 5115AC24 		.ascii	"Q\025\254$\321gOPCW\376E\257gM\377\315\272m\261\312"
  74      D1674F50 
  74      4357FE45 
  74      AF674DFF 
  74      CDBA6DB1 
  75 0130 BF43A68E 		.ascii	"\277C\246\216\365\362*\235R-\260\305O\326\211RvR\375"
  75      F5F22A9D 
  75      522DB0C5 
  75      4FD68952 
  75      7652FD
  76 0143 86CB7EC1 		.ascii	"\206\313~\301\355Xp\012\235\303\310\235uI\003\371\374"
  76      ED58700A 
  76      9DC3C89D 
  76      754903F9 
  76      FC
  77 0154 8A3016BF 		.ascii	"\2120\026\277-\210<\336@\2676\244E\372\207\265\201\240"
  77      2D883CDE 
  77      40B736A4 
  77      45FA87B5 
  77      81A0
  78 0166 3F3C1209 		.ascii	"?<\022\011i\001\237?\334\321\036\360\265\005\373\264"
  78      69019F3F 
  78      DCD11EF0 
  78      B505FBB4 
  79 0176 C1CED6A0 		.ascii	"\301\316\326\240\257\307\033\242\017\326m\263\212"
  79      AFC71BA2 
  79      0FD66DB3 
  79      8A
  80              		.text
  81              		.section	.gnu.lto_P2_RegD1_Sleep.c0d68e78,"",%progbits
  82 0000 789C9592 		.ascii	"x\234\225\222\337KSa\030\307\337\357{\266\263\235\315"
  82      DF4B5361 
  82      18C7DFEF 
  82      7BB6B39D 
  82      CD
  83 0011 7ED09578 		.ascii	"~\320\225x]\214 \205\202\350\017(\360\"\202\221\267"
  83      5D8C2085 
  83      82E80F28 
  83      F0228291 
  83      B7
  84 0022 831136BA 		.ascii	"\203\0216\272\010\022\244.\207\347\350\242\010)\033"
  84      0812A42E 
  84      87E7E8A2 
  84      08291B
  85 0031 41415B77 		.ascii	"AA[w\2315sk\226Z\313<\0042\241(B0\030\2652\026\030\222"
  85      9935736B 
  85      965ACB3C 
  85      0432A128 
  85      423018B5 
  86 0049 B816DAA1 		.ascii	"\270\026\332\241\314\236\347=\03161\350\300y\177~\337"
ARM GAS  C:\Users\Thomas\AppData\Local\Temp\ccbt6k6D.s 			page 6


  86      CC9EE73D 
  86      193631E8 
  86      C0797F7E 
  86      DF
  87 005a E7F9BCDF 		.ascii	"\347\371\274\337\347\325\304\306\257\211\376\223\232"
  87      E7D5C4C6 
  87      AF89FE93 
  87      9A
  88 0067 10BBA987 		.ascii	"\020\273\251\207& \373^\010a\371%\300\003\001\321%\321"
  88      2620FB5E 
  88      0861F925 
  88      C00301D1 
  88      25D1
  89 0079 854FB22A 		.ascii	"\205O\262*\321gg\256\005C7M\323\\L\026\032\3176:R\210"
  89      D16767AE 
  89      0543374D 
  89      D35C4C16 
  89      1ACF363A 
  90 008f 9A74C3E0 		.ascii	"\232t\303\340\026B\2024\325\304\312\353\240\236 \315"
  90      16428234 
  90      D5C4CAEB 
  90      A09E20CD 
  91 009f 76770F03 		.ascii	"vw\017\003\320A}v\207m\256\256\016\177\276<w\000\015"
  91      D0417D76 
  91      876DAEAE 
  91      0E7FBE3C 
  91      77000D
  92 00b2 108EA464 		.ascii	"\020\216\244d\324x\250\221^\036\031\324h\001n\204\250"
  92      D478A891 
  92      5E1E19D4 
  92      68016E84 
  92      A8
  93 00c3 D0494EFF 		.ascii	"\320IN\377QJ\356\265\022\236.](\247\307\300\321\226"
  93      514AEEB5 
  93      129E2E5D 
  93      28A7C7C0 
  93      D196
  94 00d5 A54689E6 		.ascii	"\245F\211\346\247\337\226\266\315IGz~LY\246\207s\277"
  94      A7DF96B6 
  94      CD49477A 
  94      7E4C59A6 
  94      8773BF
  95 00e8 ABBC7CE5 		.ascii	"\253\274|\345WK\202\247\213\326\362\324\3264\256[\011"
  95      574B82A7 
  95      8BD6F2D4 
  95      D634AE5B 
  95      09
  96 00f9 38D28BDB 		.ascii	"8\322\213\333h\302\035\320u\221A\032\242\204\236o\272"
  96      68C21DD0 
  96      7591411A 
  96      A2849E6F 
  96      BA
  97 010a 1B0E6EC4 		.ascii	"\033\016n\304bz.\357\341\343\200\300 )I\222?W\361\270"
  97      627A2EEF 
  97      E1E380C0 
  97      20294992 
  97      3F57F1B8 
ARM GAS  C:\Users\Thomas\AppData\Local\Temp\ccbt6k6D.s 			page 7


  98 011e 220FE948 		.ascii	"\"\017\351Hd\365\027z}JD\201\356*Qw\331\347J\274\244"
  98      64F5177A 
  98      7D4A4481 
  98      EE2A5177 
  98      D9E74ABC 
  99 0133 E2797276 		.ascii	"\342yrv'/\220\372\306\364\305!\031\377n\2367\375\216"
  99      272F90FA 
  99      C6F4C521 
  99      19FF6E9E 
  99      37FD8E
 100 0146 D457D88F 		.ascii	"\324W\330\217\365\234\272\232\016X\211\024\230\323d"
 100      F59CBA9A 
 100      0E588914 
 100      98D364
 101 0155 950F4388 		.ascii	"\225\017C\210#\313\240\264\367s\360R^o\316\220\235\366"
 101      23CBA0B4 
 101      F773F052 
 101      5E6FCE90 
 101      9DF6
 102 0167 1E47FA91 		.ascii	"\036G\372\221#\341\027e9\356\241\231R\2127\350\261\013"
 102      23E11765 
 102      39EEA199 
 102      528A37E8 
 102      B10B
 103 0179 45C90945 		.ascii	"E\311\011E}F\243\2460\363\210\223\255\001\241\\\\\230"
 103      7D46A3A6 
 103      30F38893 
 103      AD01A15C 
 103      5C98
 104 018b 31FE2A93 		.ascii	"1\376*\223=^\224\252H5\362\272\256\200\030\246\240\002"
 104      3D5E94AA 
 104      4835F2BA 
 104      AE8018A6 
 104      A002
 105 019d F7F9727C 		.ascii	"\367\371r|\352Yn\362\271d\360`\357\006\317\203\212\367"
 105      EA596EF2 
 105      B964F060 
 105      EF06CF83 
 105      8AF7
 106 01af 6BFFE4A8 		.ascii	"k\377\344\250\301w\271bQ\376\006< \323G\224\351\243"
 106      C177B962 
 106      51FE063C 
 106      20D34794 
 106      E9A3
 107 01c1 AEE9DDC9 		.ascii	"\256\351\335\311\352\310a\216\270\251;\365v\214mj\307"
 107      EAC8618E 
 107      B8A93BF5 
 107      768C6D6A 
 107      C7
 108 01d2 163C5476 		.ascii	"\026<Tv\300\005\305#v\304p\257\2714c\270\334\001:\366"
 108      C005C523 
 108      76C470AF 
 108      B93463B8 
 108      DC013AF6 
 109 01e6 FE432EAB 		.ascii	"\376C.\253+\310\324\032\367\374\325\205T`\035h\341\017"
 109      2BC8D41A 
 109      F7FCD585 
ARM GAS  C:\Users\Thomas\AppData\Local\Temp\ccbt6k6D.s 			page 8


 109      54601D68 
 109      E10F
 110 01f8 E8E335D0 		.ascii	"\350\3435\320\331]\377\3059\376\017\316'\212S\376\346"
 110      D95DFFC5 
 110      39FE0FCE 
 110      278A53FE 
 110      E6
 111 0209 9C60CE80 		.ascii	"\234`\316\200(\303\262'ZU\341\004?y\360S\247\340\241"
 111      28C3B227 
 111      5A55E104 
 111      3F79F053 
 111      A7E0A1
 112 021c 96486BEC 		.ascii	"\226Hk\354T\254\363\330\351\330\361h[\307\231\316\366"
 112      54ACF3D8 
 112      E9D8F168 
 112      5BC799CE 
 112      F6
 113 022d 5824DCD6 		.ascii	"X$\334\326qp\177$\274/z4v\342\320\336h\370HK\273\370"
 113      71707F24 
 113      BC2F7A34 
 113      76E2D0DE 
 113      68F8484B 
 114 0243 05B91E45 		.ascii	"\005\271\036E;"
 114      3B
 115              		.text
 116              		.section	.gnu.lto_P2_RegD1_Wakeup.c0d68e78,"",%progbits
 117 0000 789C8D92 		.ascii	"x\234\215\222\315k\023Q\024\305\357\2713\235I\322.\304"
 117      CD6B1351 
 117      14C5EFB9 
 117      339D49D2 
 117      2EC4
 118 0012 55E9224B 		.ascii	"U\351\"K\203H+*\376\005\012\202 D\273\015\004\251\203"
 118      83482B2A 
 118      FE050A82 
 118      2044BB0D 
 118      04A983
 119 0025 3B0B4597 		.ascii	";\013E\227\241o\332\010]\024\255\245\240`\252n\354\207"
 119      A16FDA08 
 119      5D14ADA5 
 119      A060AA6E 
 119      EC87
 120 0037 A94D52B5 		.ascii	"\251MR\265\325t3\210\025Q\261\324O\014\242\"\025,\005"
 120      D5743388 
 120      1551B1D4 
 120      4F0CA222 
 120      152C05
 121 004a 31462841 		.ascii	"1F(Aj\275\357\305\257\246\012\016\274y\363\356;\357"
 121      6ABDEFC5 
 121      AFA60A0E 
 121      BC79F3EE 
 121      3BEF
 122 005c 9CDF63AE 		.ascii	"\234\337c\256E\033\237]2JL\264Uf4\020x\340\021\221\037"
 122      451B9F5D 
 122      324A4CB4 
 122      55663410 
 122      78E01191 
 123 0071 62B68A51 		.ascii	"b\266\212QR\021\373\371vRM\026\354Z\331\006\364\007"
ARM GAS  C:\Users\Thomas\AppData\Local\Temp\ccbt6k6D.s 			page 9


 123      5211FBF9 
 123      76524D16 
 123      EC5AD906 
 123      F407
 124 0083 81BAD9B2 		.ascii	"\201\272\331\262\321\215%.3\006\202\354\271\306\330"
 124      D18D252E 
 124      330682EC 
 124      B9C6D8
 125 0092 65A5D4A7 		.ascii	"e\245\324\247\236\205\346\223\315U\361\253p\315\037"
 125      9E85E693 
 125      CD55F1AB 
 125      70CD1F
 126 00a1 A3889168 		.ascii	"\243\210\221h\312\351\325\027\215NZ4\233j{\030\203\003"
 126      CAE9D517 
 126      8D4E5A34 
 126      9B6A7B18 
 126      8303
 127 00b3 99739B03 		.ascii	"\231s\233\003\265\266V\2713\330\267\205\3036U\031\216"
 127      B5B656B9 
 127      33D8B785 
 127      C3365519 
 127      8E
 128 00c4 BCD8D52F 		.ascii	"\274\330\325/\242E\031:\361\275,d\266J\350\231.\317"
 128      A245193A 
 128      F1BD2C64 
 128      B64AE899 
 128      2ECF
 129 00d6 1F5C6718 		.ascii	"\037\\g\030\014E\214[\205Q\237\204qq#\\\201\263\302"
 129      0C458C5B 
 129      85519F84 
 129      7171235C 
 129      81B3C2
 130 00e9 8EEC5D78 		.ascii	"\216\354]xrj\222S_U\237\012U\331Z\325\034R}\2638\277"
 130      726A9253 
 130      5F559F0A 
 130      55D95AD5 
 130      1C527DB3 
 131 00ff 10FAC052 		.ascii	"\020\372\300R1\3131?\235\3010\316\373J\253ld\221\302"
 131      31CB313F 
 131      9DC130CE 
 131      FB4AAB6C 
 131      6491C2
 132 0112 045ACCDE 		.ascii	"\004Z\314\336\267\211\323SNkV\314/]\264\252\334\200"
 132      B789D353 
 132      4E6B56CC 
 132      2F5DB4AA 
 132      DC80
 133 0124 ABA2FC2C 		.ascii	"\253\242\374,>&\011\223h\245\022n\017BG\212\374A~\356"
 133      3E260993 
 133      68A5126E 
 133      0F42478A 
 133      FC417EEE 
 134 0138 216B67A7 		.ascii	"!kg\247\377\236\257\354ua\2161\374227\023\326aC\276"
 134      FF9EAFEC 
 134      75618E31 
 134      FC323237 
 134      13D66143 
ARM GAS  C:\Users\Thomas\AppData\Local\Temp\ccbt6k6D.s 			page 10


 135 014d 84B9C8A1 		.ascii	"\204\271\310\241\005y\035\206\2028\0135\351+\237y\212"
 135      05791D86 
 135      82380B35 
 135      E92B9F79 
 135      8A
 136 015e DA25DC7F 		.ascii	"\332%\334\177^\242\236zj\003\3656\315{\315\360\342\007"
 136      5EA29E7A 
 136      6A03F536 
 136      CD7BCDF0 
 136      E207
 137 0170 EFF53ADE 		.ascii	"\357\365:\336\267\357\3629\307\300e~\362.\237\375\230"
 137      B7EFF239 
 137      C7C0657E 
 137      F22E9FFD 
 137      98
 138 0181 89FC0178 		.ascii	"\211\374\001x\343\027\340\264\001t\015`\341\356cW\377"
 138      E317E0B4 
 138      01740D60 
 138      E1EE6357 
 138      FF
 139 0192 8315B6FF 		.ascii	"\203\025\266\377\233p\346o\204!\3344\204\246En\011\336"
 139      9B70E66F 
 139      8421DC34 
 139      84A6456E 
 139      09DE
 140 01a4 33A45FF6 		.ascii	"3\244_\366F\177{\373#\263\375\256F\224\346AQ\037'\335"
 140      467F7BFB 
 140      23B3FDAE 
 140      4694E641 
 140      511F27DD 
 141 01b8 1E1615A3 		.ascii	"\036\026\025\243\326+\364\006\303\367\233\264\230\352"
 141      D62BF406 
 141      C3F79BB4 
 141      98EA
 142 01c6 31C215ED 		.ascii	"1\302\025\355\211Y\244\244\263\"\346\214mZ\3525\374"
 142      8959A4A4 
 142      B322E68C 
 142      6D5AEA35 
 142      FC
 143 01d7 A0B0DF9C 		.ascii	"\240\260\337\234!\335p\320U\221\306\332\022\373\274"
 143      21DD70D0 
 143      5591C6DA 
 143      12FBBC
 144 01e6 635ED7E1 		.ascii	"c^\327\341\343\336\221d{\347\211\256\016/\021o\357\334"
 144      E3DE9164 
 144      7BE789AE 
 144      0E2F116F 
 144      EFDC
 145 01f8 B33B11DF 		.ascii	"\263;\021\337\231<\344\035\335\273#\031?\320\326A\337"
 145      993CE41D 
 145      DDBB2319 
 145      3FD0D641 
 145      DF
 146 0209 01F2A80D 		.ascii	"\001\362\250\015\340"
 146      E0
 147              		.text
 148              		.section	.gnu.lto_.symbol_nodes.c0d68e78,"",%progbits
ARM GAS  C:\Users\Thomas\AppData\Local\Temp\ccbt6k6D.s 			page 11


 149 0000 789C55C8 		.ascii	"x\234U\310A\015\2000\020\005\321\351n\267A\020\332\270"
 149      410D8030 
 149      1005D1E9 
 149      6EB74110 
 149      DAB8
 150 0012 FE4A4001 		.ascii	"\376J@\001\251\011\034p\306\003\011:\010$p(s{\343\300"
 150      A9091C70 
 150      C603093A 
 150      08247028 
 150      737BE3C0 
 151 0026 C49725C1 		.ascii	"\304\227%\301\274\203\304\322\006\002\232\311\315\224"
 151      BC83C4D2 
 151      06029AC9 
 151      CD94
 152 0034 FA6D2EFB 		.ascii	"\372m.\3739\313{\247P~M\255\017\213\242\243{\260\035"
 152      39CB7BA7 
 152      507E4DAD 
 152      0F8BA2A3 
 152      7BB01D
 153 0047 57F25C38 		.ascii	"W\362\\8\327\221\033\317\310\035\246"
 153      D7911BCF 
 153      C81DA6
 154              		.text
 155              		.section	.gnu.lto_.refs.c0d68e78,"",%progbits
 156 0000 789C25C8 		.ascii	"x\234%\310\321\011\000 \014\304\320\244WA\\\304\375"
 156      D1090020 
 156      0CC4D0A4 
 156      57415CC4 
 156      FD
 157 0011 371469BE 		.ascii	"7\024i\276\036\011p\231\012-\355\372\300$\272t\353I"
 157      1E097099 
 157      0A2DEDFA 
 157      C024BA74 
 157      EB49
 158 0023 CFC2C503 		.ascii	"\317\302\305\003\015{\000w"
 158      0D7B0077 
 159              		.text
 160              		.section	.gnu.lto_.decls.c0d68e78,"",%progbits
 161 0000 789C8D54 		.ascii	"x\234\215TkL\024W\024\236\263w\337,+\011\011\032~m\240"
 161      6B4C1457 
 161      149EB377 
 161      DF2C2B09 
 161      091A7E6D 
 162 0015 A18F1823 		.ascii	"\241\217\030#&%\376\253J\215IM\033\"\222\376(\011E\234"
 162      2625FEAB 
 162      4A8D494D 
 162      1B2292FE 
 162      2809459C 
 163 0029 52A36129 		.ascii	"R\243a)B\023\323?\027\250uEm\224\252,H\315\032\264("
 163      4213D33F 
 163      17A87545 
 163      6D94AA2C 
 163      48CD1AB4 
 164 003e EA8A0296 		.ascii	"\352\212\002\226\247\254h\021A@aEV\024q\205\024kZ\327"
 164      A7AC6811 
 164      41406145 
 164      56147185 
ARM GAS  C:\Users\Thomas\AppData\Local\Temp\ccbt6k6D.s 			page 12


 164      146B5AD7 
 165 0052 577D40BA 		.ascii	"W}@\272=\367\316,3k@\275\311\331\275g\346;\337\371\356"
 165      3DF7CE2C 
 165      336B40BD 
 165      C9D9BD67 
 165      E63BDFF9 
 166 0067 B9670E11 		.ascii	"\271g\016\021\004\241\036\004!\210\353\232A\020>\303"
 166      04A11E04 
 166      2188EB9A 
 166      41103EC3 
 167 0077 BD0E9FA5 		.ascii	"\275\016\237\245\010\312\322\243\235@s\243\325\242\235"
 167      08CAD2A3 
 167      9D4073A3 
 167      D5A29D
 168 0086 61316867 		.ascii	"a1hg\321\020.\014\010\341\213a\0152\207\015m\030\355"
 168      D1102E0C 
 168      08E18B61 
 168      0D32870D 
 168      6D18ED
 169 0099 069A0FAD 		.ascii	"\006\232\017\255\037\255\023M\203v\031\255W\34681\007"
 169      1FAD134D 
 169      837619AD 
 169      57E63831 
 169      07
 170 00aa 97FB352E 		.ascii	"\227\3735.5\307M\264\241Y\270\334sp1\355V\231+\006\355"
 170      35C74DB4 
 170      A159B8DC 
 170      737031ED 
 170      56992B06 
 171 00bf B6CC398E 		.ascii	"\266\3149\216\346Wq\267\241M\240\035Sig\371\010Z\267"
 171      E65771B7 
 171      A14DA01D 
 171      536967F9 
 171      085AB7
 172 00d2 2A179139 		.ascii	"*\027\2219\353\337\240\237\325*B\225s\2563\250s\022"
 172      EBDFA09F 
 172      D52A4295 
 172      73AE33A8 
 172      7312
 173 00e4 558E6ED9 		.ascii	"U\216n\331?#\237k\256\232?\322@\223\373io\304\244\006"
 173      3F239F6B 
 173      AE9A3FD2 
 173      4093FB69 
 173      6FC4A406 
 174 00f8 AC661B73 		.ascii	"\254f\033s\233K\273\234zt-f-s[\246\374^\355\374}\024"
 174      9B4BBB9C 
 174      7A742D66 
 174      2D735BA6 
 174      FC5EEDFC 
 175 010e D7EE621A 		.ascii	"\327\356b\032\245\205\224\030\250\206X8\012\261\310"
 175      A5859418 
 175      A8865838 
 175      0AB1C8
 176 011d 780CE6E3 		.ascii	"x\014\346\343\357WZ\211\351\227\301\335uF\242\001\266"
 176      EF575A89 
 176      E997C1DD 
 176      7546A201 
ARM GAS  C:\Users\Thomas\AppData\Local\Temp\ccbt6k6D.s 			page 13


 176      B6
 177 012e AF72DEF5 		.ascii	"\257r\336\365\232\027\326`\230\203z\002\032%]\335Sw"
 177      9A17D660 
 177      98837A02 
 177      1A255DDD 
 177      5377
 178 0140 65A4ED20 		.ascii	"e\244\355 \035\253\015\264y}\026\332E=\301`;\005N\006"
 178      1DAB0DB4 
 178      797D16DA 
 178      453DC160 
 178      3B054E06 
 179 0154 3540E038 		.ascii	"5@\3408,dX\266\347Ap\002l\030\330\372\352\342\244\216"
 179      2C6458B6 
 179      E7417002 
 179      6C18D8FA 
 179      EAE2A48E 
 180 0168 ACE4ECC3 		.ascii	"\254\344\354\303WZ.\2308\211\253\262J\037\242\340\014"
 180      575A2E98 
 180      3889ABB2 
 180      4A1FA2E0 
 180      0C
 181 0179 27550C27 		.ascii	"'U\014'C\014n\316p\247\262\357\301<\222\316\031J<\007"
 181      430C6ECE 
 181      70A7B2EF 
 181      C13C92CE 
 181      194A3C07 
 182 018d B75B91C1 		.ascii	"\267[\221\301U\353\362\311\014\237\360\370S\252\370"
 182      55EBF2C9 
 182      0C9FF0F8 
 182      53AAF8
 183 019c 53A1F85A 		.ascii	"S\241\370Z\036\377\252\355\370D$\331\310\343\233\373"
 183      1EFFAAED 
 183      F84424D9 
 183      C8E39BFB 
 184 01ac 860F8014 		.ascii	"\206\017\200\024\3578\242\216?\255\212?\035\212?\303"
 184      EF38A28E 
 184      3FAD8A3F 
 184      1D8A3FC3 
 185 01bc E3838FFF 		.ascii	"\343\203\217\377\214\"?\360\360\216\355\367\367k\330"
 185      8C223FF0 
 185      F08EEDF7 
 185      F76BD8
 186 01cb 0168A07C 		.ascii	"\001h\240|\302\277\264\234\036*\242\377\005\203r\025"
 186      C2BFB49C 
 186      1E2AA2FF 
 186      05837215 
 187 01db EA541C75 		.ascii	"\352T\034u!\216z\316q\377\241\347\226\225\270\201\263"
 187      218E7ACE 
 187      71FFA1E7 
 187      9695B881 
 187      B3
 188 01ec 3CF30DB6 		.ascii	"<\363\015\266\2329\213kW\325O6\225\212\006\025CC\210"
 188      9A398B6B 
 188      57D54F36 
 188      958A0615 
 188      434388
 189 01ff E1AC5485 		.ascii	"\341\254T\205\347w:\014\374\276\0273\216\322\255\215"
ARM GAS  C:\Users\Thomas\AppData\Local\Temp\ccbt6k6D.s 			page 14


 189      E7773A0C 
 189      FCBE1733 
 189      8ED2AD8D 
 190 020f 8D567EDF 		.ascii	"\215V~\337z\346\356{\364$\233\234\223\350\207\332\267"
 190      7AE6EE7B 
 190      F4249B9C 
 190      93E887DA 
 190      B7
 191 0220 6D3392EB 		.ascii	"m3\222\353\222S\370[\313N\026\026c\346\327\370sO\305"
 191      9253F85B 
 191      CB4E1616 
 191      63E6D7F8 
 191      734FC5
 192 0233 79C2DD20 		.ascii	"y\302\335 {\255\361\371\366\276$`NpPZD\003\245\224,"
 192      7BADF1F9 
 192      F6BE2460 
 192      4E70505A 
 192      4403A594 
 193 0248 1060612C 		.ascii	"\020`a,|\030+\3009H@\030\227\003-\330:\255\330:\207"
 193      7C182BC0 
 193      39484018 
 193      97032DD8 
 193      3AADD83A 
 194 025d B131022D 		.ascii	"\2611\002-\227jV\027\323e\320\006fh\236\021\3143\310"
 194      976A5617 
 194      D365D006 
 194      66689E11 
 194      CC33C8
 195 0270 CDD2EE1E 		.ascii	"\315\322\356\036t\032IPR\320\343\177\361\304\302\205"
 195      741A4950 
 195      52D0E37F 
 195      F1C4C285 
 196 0280 4731B7E2 		.ascii	"G1\267\342\306\304S\302\205k\230\373\353\343\177ZMd"
 196      C6C453C2 
 196      856B98FB 
 196      EBE37F5A 
 196      4D64
 197 0292 87264CAC 		.ascii	"\207&L\254M\022[\366\340E\275\221\273\301 aj\247\356"
 197      4D125BF6 
 197      E045BD91 
 197      BBC12061 
 197      6AA7EE
 198 02a5 B9ABF590 		.ascii	"\271\253\365\220`f2\\\307#\001:QB\207\"\301&K\340\247"
 198      6066325C 
 198      C723013A 
 198      51428722 
 198      C1264BE0 
 199 02ba A1C55477 		.ascii	"\241\305Tw\324*\200\007\265\237G\355\360\007\036\310"
 199      D42A8007 
 199      B59F47ED 
 199      F0071EC8 
 200 02ca 261FE802 		.ascii	"&\037\350\002>\274\210\017Y\203vw=2\220RI\301tcq\261"
 200      3EBC880F 
 200      59837677 
 200      3D329052 
 200      49C17463 
 201 02e0 861CE48E 		.ascii	"\206\034\344\216\356b\177\303.-\304\305E'\304\271\220"
ARM GAS  C:\Users\Thomas\AppData\Local\Temp\ccbt6k6D.s 			page 15


 201      EE627FC3 
 201      2E2DC4C5 
 201      4527C4B9 
 201      90
 202 02f1 3150BEF5 		.ascii	"1P\276\365\200\325I]\347\245\274\2270o\017D+\374\037"
 202      80D5495D 
 202      E7A5BC97 
 202      306F0F44 
 202      2BFC1F
 203 0304 B04FCBC3 		.ascii	"\260O\313\303>0\201\301\307\376:\233\356)$\274L\355"
 203      3E3081C1 
 203      C7FE3A9B 
 203      EE2924BC 
 203      4CED
 204 0316 32562E2D 		.ascii	"2V.-G~\304\200{\370\027J\351\262<\001~G\242F\376}2("
 204      477EC480 
 204      7BF8174A 
 204      E9B23C01 
 204      7E47A246 
 205 032e CA842BA8 		.ascii	"\312\204+\250\270\033\342\3402Z/\304\361\263\261\263"
 205      B81BE2E0 
 205      325A2FC4 
 205      F1B3B1B3 
 206 033e 8F4D2E31 		.ascii	"\217M.12\220\020j\026i\361\254\1777~\355)\"\\a\327\254"
 206      3290106A 
 206      1669F1AC 
 206      7F377EED 
 206      29225C61 
 207 0354 0AABB942 		.ascii	"\012\253\271B\254\246\253h\360~$$Ds\306)=@?b\233\224"
 207      ACA6AB68 
 207      F07E2424 
 207      4473C629 
 207      3D403F62 
 208 036a 6AB2047C 		.ascii	"j\262\004|\315&\022\372P\333\233tb1\017l\255\332\253"
 208      CD2612FA 
 208      50DB9B74 
 208      62310F6C 
 208      ADDAAB
 209 037d 21355265 		.ascii	"!5Re]\017\007\206\014I\365\324\341Z\300\0231<k+\026"
 209      5D0F0786 
 209      0C49F5D4 
 209      E15AC013 
 209      313C6B2B 
 210 0392 C36EA357 		.ascii	"\303n\243W\372g\320S\323^7\211?\204w\034h\033\236\206"
 210      FA67D053 
 210      D35E3789 
 210      3F84771C 
 210      681B9E86 
 211 03a6 42EAC2DB 		.ascii	"B\352\302\333d\237\010\017\274*)T\225\353*\373R\340"
 211      649F080F 
 211      BC2A2954 
 211      95EB2AFB 
 211      52E0
 212 03b8 1A240930 		.ascii	"\032$\0110\000\361l6\366\215\214\022\322,%\0168v=\320"
 212      00F16C36 
 212      F68D8C12 
 212      D22C250E 
ARM GAS  C:\Users\Thomas\AppData\Local\Temp\ccbt6k6D.s 			page 16


 212      38763DD0 
 213 03cc 9A1DAC1F 		.ascii	"\232\035\254\037\336\261%4e'oW\200\334g\201\226\352"
 213      DEB12534 
 213      65276F57 
 213      80DC6781 
 213      96EA
 214 03de 76CB654A 		.ascii	"v\313eJ\2150\204%\035T\312\343\005\245\333f\241\276"
 214      8D308425 
 214      1D54CAE3 
 214      05A5DB66 
 214      A1BE
 215 03f0 3E7BB7ED 		.ascii	">{\267\355\234|V\025\021R\343x\247\220c\035M\225\021"
 215      9C7C5615 
 215      1152E378 
 215      A790631D 
 215      4D9511
 216 0403 9612D6D3 		.ascii	"\226\022\326\3238\313M]V\270\201J\224i>\014\026>'\360"
 216      38CB4D5D 
 216      56B8814A 
 216      94693E0C 
 216      163E27F0 
 217 0417 9F0D861F 		.ascii	"\237\015\206\037G\272\303\321\254h\012\332'\243}\034"
 217      47BAC3D1 
 217      AC680ADA 
 217      27A37D1C 
 218 0427 7D644F27 		.ascii	"}dO'\011\003\017\205Q\337\224\30179\270l\177O\245\201"
 218      09030F85 
 218      51DF94C1 
 218      3739B86C 
 218      7F4FA581 
 219 043b 787859B5 		.ascii	"xxY\265\343/G\237\033 \326\224\020\353\304\332\334\006"
 219      E32F479F 
 219      1B20D694 
 219      10EBC4DA 
 219      DC06
 220 044d 93B08DCF 		.ascii	"\223\260\215\317\220\242\335Q\337\315\314\220Q<\021"
 220      90A2DD51 
 220      DFCDCC90 
 220      513C11
 221 045c 7B25C02D 		.ascii	"{%\300-\344\274#O\020\007\016\017|\012#\362\204\223"
 221      E4BC234F 
 221      10070E0F 
 221      7C0A23F2 
 221      8493
 222 046e 96139F4B 		.ascii	"\226\023\237KD\354\007\323\321\262\035\207\215\244S"
 222      44EC07D3 
 222      D1B21D87 
 222      8DA453
 223 047d BAC5867F 		.ascii	"\272\305\206\177K\232\"\245\272\275}L\341\025z\373J"
 223      4B9A22A5 
 223      BABD7D4C 
 223      E1157AFB 
 223      4A
 224 048e 864CD260 		.ascii	"\206L\322`{=\342\336\034\203\3155\235h\004?\236\177"
 224      7B3DE2DE 
 224      1C83CD35 
 224      9D68043F 
ARM GAS  C:\Users\Thomas\AppData\Local\Temp\ccbt6k6D.s 			page 17


 224      9E7F
 225 04a0 4CB9E4BB 		.ascii	"L\271\344\273\240L\265\355\376\212^KX\261\374a\305\032"
 225      A04CB5ED 
 225      FE8A5E4B 
 225      58B1FC61 
 225      C51A
 226 04b2 978B35CE 		.ascii	"\227\2135\316\2135\352\364\224h\303\320l\300+\350\011"
 226      8B35EAF4 
 226      9468C3D0 
 226      6CC02BE8 
 226      09
 227 04c3 B08492E0 		.ascii	"\260\204\222\340V\210NY\222\261F\314\37641#5\363{1\331"
 227      56884E59 
 227      92B146CC 
 227      FE343123 
 227      35F37B31 
 228 04d8 9EF3CD86 		.ascii	"\236\363\315\206l\375\252/\322l\311\302\373\213\322"
 228      6CFDAA2F 
 228      D26CC9C2 
 228      FB8BD2
 229 04e7 57893962 		.ascii	"W\2119b^f\276\270>#\325^\220\227%\246\247\244\332\223"
 229      5E66BEB8 
 229      3E23D55E 
 229      909725A6 
 229      A7A4DA93 
 230 04fb 3F4E9F89 		.ascii	"?N\237\211I\371|Q\226\0203\343\256\0217\347\333\363"
 230      49F97C51 
 230      961033E3 
 230      AE1137E7 
 230      DBF3
 231 050d 6416ABC2 		.ascii	"d\026\253\302\274I\024s\347\315\270_fn\024\013r#\225"
 231      BC491473 
 231      E7CDB85F 
 231      666E140B 
 231      722395
 232 0520 D7F9F6DC 		.ascii	"\327\371\366\334\367\336\232k\321\267\202B\2612's\335"
 232      F7DE9A6B 
 232      D1B78242 
 232      B1322773 
 232      DD
 233 0531 265149BC 		.ascii	"&QI\274by\362\352\264\224\214\324\265k\322\222\327\352"
 233      6279F2EA 
 233      B4948CD4 
 233      B56BD292 
 233      D7EA
 234 0543 0A36E4E4 		.ascii	"\0126\344\344/\215\237\2231kK\376\226\\q3\022F\210\234"
 234      2F8D9F93 
 234      316B4BFE 
 234      965C7133 
 234      1246889C 
 235 0557 27351F41 		.ascii	"'5\037Az\026\225\230\024\261\031\313\220\232\267|1\022"
 235      7A169598 
 235      14B119CB 
 235      909AB77C 
 235      3112
 236 0569 87F689B8 		.ascii	"\207\366\211\270Wr\257\313\314\332X\220\253\313\023"
 236      5772AFCB 
ARM GAS  C:\Users\Thomas\AppData\Local\Temp\ccbt6k6D.s 			page 18


 236      CCDA5890 
 236      ABCB13
 237 0578 B3139374 		.ascii	"\263\023\223t\031+\354\366MZ\334/\375\037h\374\363\246"
 237      192BECF6 
 237      4D5ADC2F 
 237      FD1F68FC 
 237      F3A6
 238              		.text
 239              		.section	.gnu.lto_.symtab.c0d68e78,"",%progbits
 240 0000 50325F52 		.ascii	"P2_RegD1_SaveConfig\000\000\000\000\000\000\000\000"
 240      65674431 
 240      5F536176 
 240      65436F6E 
 240      66696700 
 241 001b 00000000 		.ascii	"\000\000\000\000\254\000\000\000P2_RegD1_RestoreCon"
 241      AC000000 
 241      50325F52 
 241      65674431 
 241      5F526573 
 242 0036 66696700 		.ascii	"fig\000\000\000\000\000\000\000\000\000\000\000\000"
 242      00000000 
 242      00000000 
 242      000000
 243 0045 AE000000 		.ascii	"\256\000\000\000P2_RegD1_Sleep\000\000\000\000\000\000"
 243      50325F52 
 243      65674431 
 243      5F536C65 
 243      65700000 
 244 005d 00000000 		.ascii	"\000\000\000\000\000\000\260\000\000\000P2_RegD1_Wa"
 244      0000B000 
 244      00005032 
 244      5F526567 
 244      44315F57 
 245 0072 6B657570 		.ascii	"keup\000\000\000\000\000\000\000\000\000\000\000\000"
 245      00000000 
 245      00000000 
 245      00000000 
 246 0082 B2000000 		.ascii	"\262\000\000\000P2_RegD1_Stop\000\000\002\000\000\000"
 246      50325F52 
 246      65674431 
 246      5F53746F 
 246      70000002 
 247 0099 00000000 		.ascii	"\000\000\000\000\000\000\264\000\000\000P2_RegD1_En"
 247      0000B400 
 247      00005032 
 247      5F526567 
 247      44315F45 
 248 00ae 61626C65 		.ascii	"able\000\000\002\000\000\000\000\000\000\000\000\000"
 248      00000200 
 248      00000000 
 248      00000000 
 249 00be B6000000 		.ascii	"\266\000\000\000"
 250              		.text
 251              		.section	.gnu.lto_.opts,"",%progbits
 252 0000 272D666E 		.ascii	"'-fno-trapv' '-mcpu=cortex-m3' '-mthumb' '-g' '-O3'"
 252      6F2D7472 
 252      61707627 
ARM GAS  C:\Users\Thomas\AppData\Local\Temp\ccbt6k6D.s 			page 19


 252      20272D6D 
 252      6370753D 
 253 0033 20272D66 		.ascii	" '-ffunction-sections' '-finline-functions' '-flto'"
 253      66756E63 
 253      74696F6E 
 253      2D736563 
 253      74696F6E 
 254 0066 20272D66 		.ascii	" '-ffat-lto-objects'\000"
 254      6661742D 
 254      6C746F2D 
 254      6F626A65 
 254      63747327 
 255              		.text
 256              		.cfi_sections	.debug_frame
 257              		.section	.text.P2_RegD1_SaveConfig,"ax",%progbits
 258              		.align	2
 259              		.global	P2_RegD1_SaveConfig
 260              		.thumb
 261              		.thumb_func
 262              		.type	P2_RegD1_SaveConfig, %function
 263              	P2_RegD1_SaveConfig:
 264              	.LFB0:
 265              		.file 1 ".\\Generated_Source\\PSoC5\\P2_RegD1_PM.c"
   1:.\Generated_Source\PSoC5/P2_RegD1_PM.c **** /*******************************************************************************
   2:.\Generated_Source\PSoC5/P2_RegD1_PM.c **** * File Name: P2_RegD1_PM.c
   3:.\Generated_Source\PSoC5/P2_RegD1_PM.c **** * Version 2.30
   4:.\Generated_Source\PSoC5/P2_RegD1_PM.c **** *
   5:.\Generated_Source\PSoC5/P2_RegD1_PM.c **** * Description:
   6:.\Generated_Source\PSoC5/P2_RegD1_PM.c **** *  This file provides the API source code for sleep mode support for Shift
   7:.\Generated_Source\PSoC5/P2_RegD1_PM.c **** *  Register component.
   8:.\Generated_Source\PSoC5/P2_RegD1_PM.c **** *
   9:.\Generated_Source\PSoC5/P2_RegD1_PM.c **** * Note:
  10:.\Generated_Source\PSoC5/P2_RegD1_PM.c **** *
  11:.\Generated_Source\PSoC5/P2_RegD1_PM.c **** ********************************************************************************
  12:.\Generated_Source\PSoC5/P2_RegD1_PM.c **** * Copyright 2008-2013, Cypress Semiconductor Corporation.  All rights reserved.
  13:.\Generated_Source\PSoC5/P2_RegD1_PM.c **** * You may use this file only in accordance with the license, terms, conditions,
  14:.\Generated_Source\PSoC5/P2_RegD1_PM.c **** * disclaimers, and limitations in the end user license agreement accompanying
  15:.\Generated_Source\PSoC5/P2_RegD1_PM.c **** * the software package with which this file was provided.
  16:.\Generated_Source\PSoC5/P2_RegD1_PM.c **** *******************************************************************************/
  17:.\Generated_Source\PSoC5/P2_RegD1_PM.c **** 
  18:.\Generated_Source\PSoC5/P2_RegD1_PM.c **** #include "P2_RegD1.h"
  19:.\Generated_Source\PSoC5/P2_RegD1_PM.c **** 
  20:.\Generated_Source\PSoC5/P2_RegD1_PM.c **** static P2_RegD1_BACKUP_STRUCT P2_RegD1_backup =
  21:.\Generated_Source\PSoC5/P2_RegD1_PM.c **** {
  22:.\Generated_Source\PSoC5/P2_RegD1_PM.c ****     P2_RegD1_DISABLED,
  23:.\Generated_Source\PSoC5/P2_RegD1_PM.c **** 
  24:.\Generated_Source\PSoC5/P2_RegD1_PM.c ****     ((uint16) P2_RegD1_DEFAULT_A0),
  25:.\Generated_Source\PSoC5/P2_RegD1_PM.c ****     ((uint16) P2_RegD1_DEFAULT_A1),
  26:.\Generated_Source\PSoC5/P2_RegD1_PM.c **** 
  27:.\Generated_Source\PSoC5/P2_RegD1_PM.c ****     #if(CY_UDB_V0)
  28:.\Generated_Source\PSoC5/P2_RegD1_PM.c ****         ((uint16) P2_RegD1_INT_SRC),
  29:.\Generated_Source\PSoC5/P2_RegD1_PM.c ****     #endif /* (CY_UDB_V0) */
  30:.\Generated_Source\PSoC5/P2_RegD1_PM.c **** };
  31:.\Generated_Source\PSoC5/P2_RegD1_PM.c **** 
  32:.\Generated_Source\PSoC5/P2_RegD1_PM.c **** 
  33:.\Generated_Source\PSoC5/P2_RegD1_PM.c **** /*******************************************************************************
  34:.\Generated_Source\PSoC5/P2_RegD1_PM.c **** * Function Name: P2_RegD1_SaveConfig
ARM GAS  C:\Users\Thomas\AppData\Local\Temp\ccbt6k6D.s 			page 20


  35:.\Generated_Source\PSoC5/P2_RegD1_PM.c **** ********************************************************************************
  36:.\Generated_Source\PSoC5/P2_RegD1_PM.c **** *
  37:.\Generated_Source\PSoC5/P2_RegD1_PM.c **** * Summary:
  38:.\Generated_Source\PSoC5/P2_RegD1_PM.c **** *  Saves Shift Register configuration.
  39:.\Generated_Source\PSoC5/P2_RegD1_PM.c **** *
  40:.\Generated_Source\PSoC5/P2_RegD1_PM.c **** * Parameters:
  41:.\Generated_Source\PSoC5/P2_RegD1_PM.c **** *  None.
  42:.\Generated_Source\PSoC5/P2_RegD1_PM.c **** *
  43:.\Generated_Source\PSoC5/P2_RegD1_PM.c **** * Return:
  44:.\Generated_Source\PSoC5/P2_RegD1_PM.c **** *  None.
  45:.\Generated_Source\PSoC5/P2_RegD1_PM.c **** *
  46:.\Generated_Source\PSoC5/P2_RegD1_PM.c **** * Reentrant:
  47:.\Generated_Source\PSoC5/P2_RegD1_PM.c **** *  No.
  48:.\Generated_Source\PSoC5/P2_RegD1_PM.c **** *
  49:.\Generated_Source\PSoC5/P2_RegD1_PM.c **** *******************************************************************************/
  50:.\Generated_Source\PSoC5/P2_RegD1_PM.c **** void P2_RegD1_SaveConfig(void) 
  51:.\Generated_Source\PSoC5/P2_RegD1_PM.c **** {
 266              		.loc 1 51 0
 267              		.cfi_startproc
 268              		@ args = 0, pretend = 0, frame = 0
 269              		@ frame_needed = 0, uses_anonymous_args = 0
 270              		@ link register save eliminated.
  52:.\Generated_Source\PSoC5/P2_RegD1_PM.c ****     /* Store working registers A0 and A1 */
  53:.\Generated_Source\PSoC5/P2_RegD1_PM.c ****     P2_RegD1_backup.saveSrA0Reg   = CY_GET_REG16(P2_RegD1_SHIFT_REG_LSB_PTR);
 271              		.loc 1 53 0
 272 0000 034B     		ldr	r3, .L2
  54:.\Generated_Source\PSoC5/P2_RegD1_PM.c ****     P2_RegD1_backup.saveSrA1Reg   = CY_GET_REG16(P2_RegD1_SHIFT_REG_VALUE_LSB_PTR);
 273              		.loc 1 54 0
 274 0002 044A     		ldr	r2, .L2+4
  53:.\Generated_Source\PSoC5/P2_RegD1_PM.c ****     P2_RegD1_backup.saveSrA1Reg   = CY_GET_REG16(P2_RegD1_SHIFT_REG_VALUE_LSB_PTR);
 275              		.loc 1 53 0
 276 0004 1988     		ldrh	r1, [r3]
 277 0006 044B     		ldr	r3, .L2+8
 278              		.loc 1 54 0
 279 0008 1288     		ldrh	r2, [r2]
  53:.\Generated_Source\PSoC5/P2_RegD1_PM.c ****     P2_RegD1_backup.saveSrA1Reg   = CY_GET_REG16(P2_RegD1_SHIFT_REG_VALUE_LSB_PTR);
 280              		.loc 1 53 0
 281 000a 5980     		strh	r1, [r3, #2]	@ movhi
 282              		.loc 1 54 0
 283 000c 9A80     		strh	r2, [r3, #4]	@ movhi
 284 000e 7047     		bx	lr
 285              	.L3:
 286              		.align	2
 287              	.L2:
 288 0010 0C640040 		.word	1073767436
 289 0014 1C640040 		.word	1073767452
 290 0018 00000000 		.word	.LANCHOR0
 291              		.cfi_endproc
 292              	.LFE0:
 293              		.size	P2_RegD1_SaveConfig, .-P2_RegD1_SaveConfig
 294              		.section	.text.P2_RegD1_RestoreConfig,"ax",%progbits
 295              		.align	2
 296              		.global	P2_RegD1_RestoreConfig
 297              		.thumb
 298              		.thumb_func
 299              		.type	P2_RegD1_RestoreConfig, %function
 300              	P2_RegD1_RestoreConfig:
ARM GAS  C:\Users\Thomas\AppData\Local\Temp\ccbt6k6D.s 			page 21


 301              	.LFB1:
  55:.\Generated_Source\PSoC5/P2_RegD1_PM.c **** 
  56:.\Generated_Source\PSoC5/P2_RegD1_PM.c ****     #if(CY_UDB_V0)
  57:.\Generated_Source\PSoC5/P2_RegD1_PM.c ****         P2_RegD1_backup.saveSrIntMask = P2_RegD1_SR_STATUS_MASK;
  58:.\Generated_Source\PSoC5/P2_RegD1_PM.c ****     #endif /* (CY_UDB_V0) */
  59:.\Generated_Source\PSoC5/P2_RegD1_PM.c **** }
  60:.\Generated_Source\PSoC5/P2_RegD1_PM.c **** 
  61:.\Generated_Source\PSoC5/P2_RegD1_PM.c **** 
  62:.\Generated_Source\PSoC5/P2_RegD1_PM.c **** /*******************************************************************************
  63:.\Generated_Source\PSoC5/P2_RegD1_PM.c **** * Function Name: P2_RegD1_RestoreConfig
  64:.\Generated_Source\PSoC5/P2_RegD1_PM.c **** ********************************************************************************
  65:.\Generated_Source\PSoC5/P2_RegD1_PM.c **** *
  66:.\Generated_Source\PSoC5/P2_RegD1_PM.c **** * Summary:
  67:.\Generated_Source\PSoC5/P2_RegD1_PM.c **** *  Restores Shift Register configuration.
  68:.\Generated_Source\PSoC5/P2_RegD1_PM.c **** *
  69:.\Generated_Source\PSoC5/P2_RegD1_PM.c **** * Parameters:
  70:.\Generated_Source\PSoC5/P2_RegD1_PM.c **** *  None.
  71:.\Generated_Source\PSoC5/P2_RegD1_PM.c **** *
  72:.\Generated_Source\PSoC5/P2_RegD1_PM.c **** * Return:
  73:.\Generated_Source\PSoC5/P2_RegD1_PM.c **** *  None.
  74:.\Generated_Source\PSoC5/P2_RegD1_PM.c **** *
  75:.\Generated_Source\PSoC5/P2_RegD1_PM.c **** *******************************************************************************/
  76:.\Generated_Source\PSoC5/P2_RegD1_PM.c **** void P2_RegD1_RestoreConfig(void) 
  77:.\Generated_Source\PSoC5/P2_RegD1_PM.c **** {
 302              		.loc 1 77 0
 303              		.cfi_startproc
 304              		@ args = 0, pretend = 0, frame = 0
 305              		@ frame_needed = 0, uses_anonymous_args = 0
 306              		@ link register save eliminated.
  78:.\Generated_Source\PSoC5/P2_RegD1_PM.c ****     /* Restore working registers A0 and A1 */
  79:.\Generated_Source\PSoC5/P2_RegD1_PM.c ****     CY_SET_REG16(P2_RegD1_SHIFT_REG_LSB_PTR, P2_RegD1_backup.saveSrA0Reg);
 307              		.loc 1 79 0
 308 0000 034B     		ldr	r3, .L5
 309 0002 0449     		ldr	r1, .L5+4
  80:.\Generated_Source\PSoC5/P2_RegD1_PM.c ****     CY_SET_REG16(P2_RegD1_SHIFT_REG_VALUE_LSB_PTR, P2_RegD1_backup.saveSrA1Reg);
 310              		.loc 1 80 0
 311 0004 9A88     		ldrh	r2, [r3, #4]
  79:.\Generated_Source\PSoC5/P2_RegD1_PM.c ****     CY_SET_REG16(P2_RegD1_SHIFT_REG_VALUE_LSB_PTR, P2_RegD1_backup.saveSrA1Reg);
 312              		.loc 1 79 0
 313 0006 5888     		ldrh	r0, [r3, #2]
 314              		.loc 1 80 0
 315 0008 034B     		ldr	r3, .L5+8
  79:.\Generated_Source\PSoC5/P2_RegD1_PM.c ****     CY_SET_REG16(P2_RegD1_SHIFT_REG_VALUE_LSB_PTR, P2_RegD1_backup.saveSrA1Reg);
 316              		.loc 1 79 0
 317 000a 0880     		strh	r0, [r1]	@ movhi
 318              		.loc 1 80 0
 319 000c 1A80     		strh	r2, [r3]	@ movhi
 320 000e 7047     		bx	lr
 321              	.L6:
 322              		.align	2
 323              	.L5:
 324 0010 00000000 		.word	.LANCHOR0
 325 0014 0C640040 		.word	1073767436
 326 0018 1C640040 		.word	1073767452
 327              		.cfi_endproc
 328              	.LFE1:
 329              		.size	P2_RegD1_RestoreConfig, .-P2_RegD1_RestoreConfig
ARM GAS  C:\Users\Thomas\AppData\Local\Temp\ccbt6k6D.s 			page 22


 330              		.section	.text.P2_RegD1_Sleep,"ax",%progbits
 331              		.align	2
 332              		.global	P2_RegD1_Sleep
 333              		.thumb
 334              		.thumb_func
 335              		.type	P2_RegD1_Sleep, %function
 336              	P2_RegD1_Sleep:
 337              	.LFB2:
  81:.\Generated_Source\PSoC5/P2_RegD1_PM.c **** 
  82:.\Generated_Source\PSoC5/P2_RegD1_PM.c ****     #if(CY_UDB_V0)
  83:.\Generated_Source\PSoC5/P2_RegD1_PM.c ****         P2_RegD1_SR_STATUS_MASK = ((uint8) P2_RegD1_backup.saveSrIntMask);
  84:.\Generated_Source\PSoC5/P2_RegD1_PM.c ****     #endif /* (CY_UDB_V0) */
  85:.\Generated_Source\PSoC5/P2_RegD1_PM.c **** }
  86:.\Generated_Source\PSoC5/P2_RegD1_PM.c **** 
  87:.\Generated_Source\PSoC5/P2_RegD1_PM.c **** 
  88:.\Generated_Source\PSoC5/P2_RegD1_PM.c **** /*******************************************************************************
  89:.\Generated_Source\PSoC5/P2_RegD1_PM.c **** * Function Name: P2_RegD1_Sleep
  90:.\Generated_Source\PSoC5/P2_RegD1_PM.c **** ********************************************************************************
  91:.\Generated_Source\PSoC5/P2_RegD1_PM.c **** *
  92:.\Generated_Source\PSoC5/P2_RegD1_PM.c **** * Summary:
  93:.\Generated_Source\PSoC5/P2_RegD1_PM.c **** *  Prepare the component to enter a Sleep mode.
  94:.\Generated_Source\PSoC5/P2_RegD1_PM.c **** *
  95:.\Generated_Source\PSoC5/P2_RegD1_PM.c **** * Parameters:
  96:.\Generated_Source\PSoC5/P2_RegD1_PM.c **** *  None.
  97:.\Generated_Source\PSoC5/P2_RegD1_PM.c **** *
  98:.\Generated_Source\PSoC5/P2_RegD1_PM.c **** * Return:
  99:.\Generated_Source\PSoC5/P2_RegD1_PM.c **** *  None.
 100:.\Generated_Source\PSoC5/P2_RegD1_PM.c **** *
 101:.\Generated_Source\PSoC5/P2_RegD1_PM.c **** * Reentrant:
 102:.\Generated_Source\PSoC5/P2_RegD1_PM.c **** *  No.
 103:.\Generated_Source\PSoC5/P2_RegD1_PM.c **** *
 104:.\Generated_Source\PSoC5/P2_RegD1_PM.c **** *******************************************************************************/
 105:.\Generated_Source\PSoC5/P2_RegD1_PM.c **** void P2_RegD1_Sleep(void) 
 106:.\Generated_Source\PSoC5/P2_RegD1_PM.c **** {
 338              		.loc 1 106 0
 339              		.cfi_startproc
 340              		@ args = 0, pretend = 0, frame = 0
 341              		@ frame_needed = 0, uses_anonymous_args = 0
 342 0000 10B5     		push	{r4, lr}
 343              		.cfi_def_cfa_offset 8
 344              		.cfi_offset 4, -8
 345              		.cfi_offset 14, -4
 107:.\Generated_Source\PSoC5/P2_RegD1_PM.c ****     P2_RegD1_backup.enableState = ((uint8) P2_RegD1_IS_ENABLED);
 346              		.loc 1 107 0
 347 0002 074B     		ldr	r3, .L9
 348 0004 074C     		ldr	r4, .L9+4
 349 0006 1B78     		ldrb	r3, [r3]	@ zero_extendqisi2
 350 0008 03F00103 		and	r3, r3, #1
 351 000c 2370     		strb	r3, [r4]
 108:.\Generated_Source\PSoC5/P2_RegD1_PM.c **** 
 109:.\Generated_Source\PSoC5/P2_RegD1_PM.c ****     P2_RegD1_Stop();
 352              		.loc 1 109 0
 353 000e FFF7FEFF 		bl	P2_RegD1_Stop
 354              	.LVL0:
 355              	.LBB6:
 356              	.LBB7:
  53:.\Generated_Source\PSoC5/P2_RegD1_PM.c ****     P2_RegD1_backup.saveSrA1Reg   = CY_GET_REG16(P2_RegD1_SHIFT_REG_VALUE_LSB_PTR);
ARM GAS  C:\Users\Thomas\AppData\Local\Temp\ccbt6k6D.s 			page 23


 357              		.loc 1 53 0
 358 0012 054A     		ldr	r2, .L9+8
  54:.\Generated_Source\PSoC5/P2_RegD1_PM.c **** 
 359              		.loc 1 54 0
 360 0014 054B     		ldr	r3, .L9+12
  53:.\Generated_Source\PSoC5/P2_RegD1_PM.c ****     P2_RegD1_backup.saveSrA1Reg   = CY_GET_REG16(P2_RegD1_SHIFT_REG_VALUE_LSB_PTR);
 361              		.loc 1 53 0
 362 0016 1288     		ldrh	r2, [r2]
  54:.\Generated_Source\PSoC5/P2_RegD1_PM.c **** 
 363              		.loc 1 54 0
 364 0018 1B88     		ldrh	r3, [r3]
  53:.\Generated_Source\PSoC5/P2_RegD1_PM.c ****     P2_RegD1_backup.saveSrA1Reg   = CY_GET_REG16(P2_RegD1_SHIFT_REG_VALUE_LSB_PTR);
 365              		.loc 1 53 0
 366 001a 6280     		strh	r2, [r4, #2]	@ movhi
  54:.\Generated_Source\PSoC5/P2_RegD1_PM.c **** 
 367              		.loc 1 54 0
 368 001c A380     		strh	r3, [r4, #4]	@ movhi
 369 001e 10BD     		pop	{r4, pc}
 370              	.L10:
 371              		.align	2
 372              	.L9:
 373 0020 7C640040 		.word	1073767548
 374 0024 00000000 		.word	.LANCHOR0
 375 0028 0C640040 		.word	1073767436
 376 002c 1C640040 		.word	1073767452
 377              	.LBE7:
 378              	.LBE6:
 379              		.cfi_endproc
 380              	.LFE2:
 381              		.size	P2_RegD1_Sleep, .-P2_RegD1_Sleep
 382              		.section	.text.P2_RegD1_Wakeup,"ax",%progbits
 383              		.align	2
 384              		.global	P2_RegD1_Wakeup
 385              		.thumb
 386              		.thumb_func
 387              		.type	P2_RegD1_Wakeup, %function
 388              	P2_RegD1_Wakeup:
 389              	.LFB3:
 110:.\Generated_Source\PSoC5/P2_RegD1_PM.c ****     P2_RegD1_SaveConfig();
 111:.\Generated_Source\PSoC5/P2_RegD1_PM.c **** }
 112:.\Generated_Source\PSoC5/P2_RegD1_PM.c **** 
 113:.\Generated_Source\PSoC5/P2_RegD1_PM.c **** 
 114:.\Generated_Source\PSoC5/P2_RegD1_PM.c **** /*******************************************************************************
 115:.\Generated_Source\PSoC5/P2_RegD1_PM.c **** * Function Name: P2_RegD1_Wakeup
 116:.\Generated_Source\PSoC5/P2_RegD1_PM.c **** ********************************************************************************
 117:.\Generated_Source\PSoC5/P2_RegD1_PM.c **** *
 118:.\Generated_Source\PSoC5/P2_RegD1_PM.c **** * Summary:
 119:.\Generated_Source\PSoC5/P2_RegD1_PM.c **** *  Restores and enables the user configuration.
 120:.\Generated_Source\PSoC5/P2_RegD1_PM.c **** *
 121:.\Generated_Source\PSoC5/P2_RegD1_PM.c **** * Parameters:
 122:.\Generated_Source\PSoC5/P2_RegD1_PM.c **** *  None.
 123:.\Generated_Source\PSoC5/P2_RegD1_PM.c **** *
 124:.\Generated_Source\PSoC5/P2_RegD1_PM.c **** * Return:
 125:.\Generated_Source\PSoC5/P2_RegD1_PM.c **** *  None.
 126:.\Generated_Source\PSoC5/P2_RegD1_PM.c **** *
 127:.\Generated_Source\PSoC5/P2_RegD1_PM.c **** *******************************************************************************/
 128:.\Generated_Source\PSoC5/P2_RegD1_PM.c **** void P2_RegD1_Wakeup(void) 
ARM GAS  C:\Users\Thomas\AppData\Local\Temp\ccbt6k6D.s 			page 24


 129:.\Generated_Source\PSoC5/P2_RegD1_PM.c **** {
 390              		.loc 1 129 0
 391              		.cfi_startproc
 392              		@ args = 0, pretend = 0, frame = 0
 393              		@ frame_needed = 0, uses_anonymous_args = 0
 394              		@ link register save eliminated.
 395 0000 10B4     		push	{r4}
 396              		.cfi_def_cfa_offset 4
 397              		.cfi_offset 4, -4
 398              	.LBB8:
 399              	.LBB9:
  79:.\Generated_Source\PSoC5/P2_RegD1_PM.c ****     CY_SET_REG16(P2_RegD1_SHIFT_REG_VALUE_LSB_PTR, P2_RegD1_backup.saveSrA1Reg);
 400              		.loc 1 79 0
 401 0002 084B     		ldr	r3, .L16
 402 0004 0848     		ldr	r0, .L16+4
 403 0006 5C88     		ldrh	r4, [r3, #2]
  80:.\Generated_Source\PSoC5/P2_RegD1_PM.c **** 
 404              		.loc 1 80 0
 405 0008 9988     		ldrh	r1, [r3, #4]
 406 000a 084A     		ldr	r2, .L16+8
  79:.\Generated_Source\PSoC5/P2_RegD1_PM.c ****     CY_SET_REG16(P2_RegD1_SHIFT_REG_VALUE_LSB_PTR, P2_RegD1_backup.saveSrA1Reg);
 407              		.loc 1 79 0
 408 000c 0480     		strh	r4, [r0]	@ movhi
  80:.\Generated_Source\PSoC5/P2_RegD1_PM.c **** 
 409              		.loc 1 80 0
 410 000e 1180     		strh	r1, [r2]	@ movhi
 411              	.LBE9:
 412              	.LBE8:
 130:.\Generated_Source\PSoC5/P2_RegD1_PM.c ****     P2_RegD1_RestoreConfig();
 131:.\Generated_Source\PSoC5/P2_RegD1_PM.c **** 
 132:.\Generated_Source\PSoC5/P2_RegD1_PM.c ****     if(0u != P2_RegD1_backup.enableState)
 413              		.loc 1 132 0
 414 0010 1B78     		ldrb	r3, [r3]	@ zero_extendqisi2
 415 0012 13B9     		cbnz	r3, .L15
 133:.\Generated_Source\PSoC5/P2_RegD1_PM.c ****     {
 134:.\Generated_Source\PSoC5/P2_RegD1_PM.c ****         P2_RegD1_Enable();
 135:.\Generated_Source\PSoC5/P2_RegD1_PM.c ****     }
 136:.\Generated_Source\PSoC5/P2_RegD1_PM.c **** }
 416              		.loc 1 136 0
 417 0014 5DF8044B 		ldr	r4, [sp], #4
 418              		.cfi_remember_state
 419              		.cfi_restore 4
 420              		.cfi_def_cfa_offset 0
 421 0018 7047     		bx	lr
 422              	.L15:
 423              		.cfi_restore_state
 424 001a 5DF8044B 		ldr	r4, [sp], #4
 425              		.cfi_restore 4
 426              		.cfi_def_cfa_offset 0
 134:.\Generated_Source\PSoC5/P2_RegD1_PM.c ****     }
 427              		.loc 1 134 0
 428 001e FFF7FEBF 		b	P2_RegD1_Enable
 429              	.LVL1:
 430              	.L17:
 431 0022 00BF     		.align	2
 432              	.L16:
 433 0024 00000000 		.word	.LANCHOR0
ARM GAS  C:\Users\Thomas\AppData\Local\Temp\ccbt6k6D.s 			page 25


 434 0028 0C640040 		.word	1073767436
 435 002c 1C640040 		.word	1073767452
 436              		.cfi_endproc
 437              	.LFE3:
 438              		.size	P2_RegD1_Wakeup, .-P2_RegD1_Wakeup
 439              		.bss
 440              		.align	2
 441              		.set	.LANCHOR0,. + 0
 442              		.type	P2_RegD1_backup, %object
 443              		.size	P2_RegD1_backup, 6
 444              	P2_RegD1_backup:
 445 0000 00000000 		.space	6
 445      0000
 446 0006 0000     		.text
 447              	.Letext0:
 448              		.file 2 ".\\Generated_Source\\PSoC5\\cytypes.h"
 449              		.file 3 ".\\Generated_Source\\PSoC5\\P2_RegD1.h"