ARM GAS  C:\Users\Thomas\AppData\Local\Temp\ccOOiaEL.s 			page 1


   1              		.syntax unified
   2              		.cpu cortex-m3
   3              		.fpu softvfp
   4              		.eabi_attribute 20, 1
   5              		.eabi_attribute 21, 1
   6              		.eabi_attribute 23, 3
   7              		.eabi_attribute 24, 1
   8              		.eabi_attribute 25, 1
   9              		.eabi_attribute 26, 1
  10              		.eabi_attribute 30, 2
  11              		.eabi_attribute 34, 1
  12              		.eabi_attribute 18, 4
  13              		.thumb
  14              		.file	"Pin_8.c"
  15              		.text
  16              	.Ltext0:
  17              		.section	.gnu.lto_.profile.bdc408ed,"",%progbits
  18 0000 789C6366 		.ascii	"x\234cf```a\200\000F\0061!\000\000\262\0001"
  18      60606061 
  18      80004606 
  18      31210000 
  18      B20031
  19              		.text
  20              		.section	.gnu.lto_.jmpfuncs.bdc408ed,"",%progbits
  21 0000 789C6366 		.ascii	"x\234cf\300\016\204\2404\013\003##c=#\210`b``\006\212"
  21      C00E84A0 
  21      340B0323 
  21      23633D23 
  21      88606260 
  22 0017 00000DC0 		.ascii	"\000\000\015\300\001$"
  22      0124
  23              		.text
  24              		.section	.gnu.lto_.inline.bdc408ed,"",%progbits
  25 0000 789C6366 		.ascii	"x\234cf\300\016\022\2404\013\003\003\007;##\003#\003"
  25      C00E12A0 
  25      340B0303 
  25      073B2323 
  25      032303
  26 0013 0333C701 		.ascii	"\0033\307\001;\006\266\005\362L\014L\027\370Y@\222\214"
  26      3B06B605 
  26      F24C0C4C 
  26      17F85940 
  26      928C
  27 0025 78E49818 		.ascii	"x\344\230\030XY\030\031\230X\026\310C\304\201\200\031"
  27      58591819 
  27      985816C8 
  27      43C48180 
  27      19
  28 0036 53880100 		.ascii	"S\210\001\000\322\320\011("
  28      D2D00928 
  29              		.text
  30              		.section	.gnu.lto_.pureconst.bdc408ed,"",%progbits
  31 0000 789C6366 		.ascii	"x\234cf``\340d\200\000\026\006)F)&)f)\000\002\305\000"
  31      6060E064 
  31      80001606 
  31      29462926 
  31      29662900 
ARM GAS  C:\Users\Thomas\AppData\Local\Temp\ccOOiaEL.s 			page 2


  32 0017 7F       		.ascii	"\177"
  33              		.text
  34              		.section	.gnu.lto_Pin_8_Write.bdc408ed,"",%progbits
  35 0000 789C6591 		.ascii	"x\234e\221AH\033A\024\206\337?\263\033C\025\225\036"
  35      41481B41 
  35      1486DF3F 
  35      B31B4315 
  35      951E
  36 0012 732BA988 		.ascii	"s+\251\210\245xj\301\243\350\241\327\200\327\200\204"
  36      A5786AC1 
  36      A3E8A1D7 
  36      80D78084 
  37 0022 740F81A2 		.ascii	"t\017\201\242\240\261Wg5\364P\020T\012\212\242T\254"
  37      A0B15767 
  37      35F45010 
  37      540A8AA2 
  37      54AC
  38 0034 568D8DD6 		.ascii	"V\215\215\326V\361\242\254\342\255\250\304C\013\242"
  38      56F1A2AC 
  38      E2ADA8C4 
  38      430BA2
  39 0043 D6426AF5 		.ascii	"\326Bj\365\246(Z\025\023\337\354\\\024\007fg\366\361"
  39      A6285A15 
  39      13DFEC5C 
  39      14076667 
  39      F6F1
  40 0055 7FEFFDEF 		.ascii	"\177\357\375\357\215\244\207+\304;\017\242\027|B\022"
  40      8DA4872B 
  40      C43B0FA2 
  40      177C4212 
  41 0065 44F70691 		.ascii	"D\367\006\221\033\024\200\276\020\250]\240\035G\342"
  41      1B1480BE 
  41      10A85DA0 
  41      1D47E2
  42 0074 44A0DB4B 		.ascii	"D\240\333K\367\027W\216)\245\216{7\335\210\207KAt*L"
  42      F717578E 
  42      29A58E7B 
  42      37DD8887 
  42      4B41742A 
  43 0089 1E7C4625 		.ascii	"\036|F%kN\323\352\203\224OA|\237\315\256\347\213*F\225"
  43      6B4ED3EA 
  43      83944F41 
  43      7C9FCDAE 
  43      E78B2A46 
  44 009e EAF01633 		.ascii	"\352\360\0263\252\226\345\300\004$\023x\036BU\2108@"
  44      AA96E5C0 
  44      04241378 
  44      1E425588 
  44      3840
  45 00b0 98448516 		.ascii	"\230D\205\026\317u\255-\010\371\314\007G~\374Y+\011"
  45      CF75AD2D 
  45      08F9CC07 
  45      477EFC59 
  45      2B09
  46 00c2 8F30B87F 		.ascii	"\2170\270\177\275\020\365\334\217*_(\370\370\324]\334"
  46      BD10F5DC 
  46      8F2A5F28 
ARM GAS  C:\Users\Thomas\AppData\Local\Temp\ccOOiaEL.s 			page 3


  46      F8F8D45D 
  46      DC
  47 00d3 2CD69FA4 		.ascii	",\326\237\244n~\025\007Rl\254\034i\204\215'L#\300}A"
  47      6E7E1507 
  47      526CAC1C 
  47      69848D27 
  47      4C23C07D 
  48 00e8 47661E7B 		.ascii	"Gf\036{\252P\370\266\264r\205\240\340\262\202\033\345"
  48      AA50F8B6 
  48      B47285A0 
  48      E0B2821B 
  48      E5
  49 00f9 B0055DDD 		.ascii	"\260\005]\335\326\201\200\376\020\345x\353\276\377\362"
  49      D68180FE 
  49      10E578EB 
  49      BEFFF2
  50 0108 0F9F721B 		.ascii	"\017\237r\033\253\347\357\367\372\212t\262\013\241\207"
  50      ABE7EFF7 
  50      FA8A74B2 
  50      0BA187
  51 0117 B0B2BBF8 		.ascii	"\260\262\273\370\251\364P\\\012y<\352*K\227\377\235"
  51      A9F4505C 
  51      0A793CEA 
  51      2A4B97FF 
  51      9D
  52 0128 DBCC06FD 		.ascii	"\333\314\006\375\220\357fxy~\253t\010\203n\212-[\370"
  52      90EF6678 
  52      797EAB74 
  52      08836E8A 
  52      2D5BF8
  53 013b 82103260 		.ascii	"\202\0202`\267\230\301\020h\033\235\377\337\355\300"
  53      B798C110 
  53      681B9DFF 
  53      DFEDC0
  54 014a 24942667 		.ascii	"$\224&gO\317\367a?'\370%0\313\342\237\020\276\1776\311"
  54      4FCFF761 
  54      3F27F825 
  54      30CBE29F 
  54      10BE7F36 
  55 015f 2A031DFC 		.ascii	"*\003\035\374\223\206\262/\204\305Tv`\274\263LS\026"
  55      9386B22F 
  55      84C55476 
  55      60BCB34C 
  55      5316
  56 0171 435F1962 		.ascii	"C_\031b\325Y\300H\214J\203\253\275~\255{\276\\\317\276"
  56      D559C048 
  56      8C4A83AB 
  56      BD7EAD7B 
  56      BE5CCFBE 
  57 0185 EF6C8E9D 		.ascii	"\357l\216\2351D{p\275k[\353\365ds\374<<\004\036\311"
  57      31447B70 
  57      BD6B5BEB 
  57      F56473FC 
  57      3C3C041E 
  58 019a 93EAE82B 		.ascii	"\223\352\350+\247\311i\211%\235\327\215\015\315m-q'"
  58      A7C96989 
  58      259DD78D 
ARM GAS  C:\Users\Thomas\AppData\Local\Temp\ccOOiaEL.s 			page 4


  58      0DCD6D2D 
  58      7127
  59 01ac 1A6968AE 		.ascii	"\032ih\256\177\031\215$\232\032k\252\343d\277\215\275"
  59      7F198D24 
  59      9A1A6BAA 
  59      E364BF8D 
  59      BD
  60 01bd 69731EB5 		.ascii	"is\036\265&c\311D\274.\221l\275\00506\277\340"
  60      2663C944 
  60      BC2E916C 
  60      BD053036 
  60      BFE0
  61              		.text
  62              		.section	.gnu.lto_Pin_8_SetDriveMode.bdc408ed,"",%progbits
  63 0000 789C7D51 		.ascii	"x\234}Q;H\003A\020\235\267{\227\234\004E\254$\235\240"
  63      3B480341 
  63      109DB77B 
  63      979C0445 
  63      AC249DA0 
  64 0014 A820B112 		.ascii	"\250 \261\022,\005A[!m \210^a\241\201\240\265w\032\033"
  64      2C05415B 
  64      216D2088 
  64      5E61A181 
  64      A0B5771A 
  65 0029 ABC44621 		.ascii	"\253\304F!\010\242\210\237h\024,\3544\210\235\240h#"
  65      08A2889F 
  65      68142CEC 
  65      34889DA0 
  65      6823
  66 003b 068C4DFC 		.ascii	"\006\214M\374DP\014\221\230 !\316\346,\002\202\313\355"
  66      44500C91 
  66      982021CE 
  66      E62C0282 
  66      CBED
  67 004d ECBCE1BD 		.ascii	"\354\274\341\275w\263\263\222\376./\357W\020u\361\011"
  67      77B3B392 
  67      FE2E2FEF 
  67      571075F1 
  67      09
  68 005e 4910D14B 		.ascii	"I\020\321K\"\333\020\200J\0104+0\213\234\310\013DS\211"
  68      22DB1080 
  68      4A08342B 
  68      308B9CC8 
  68      0B445389 
  69 0072 154FE7A6 		.ascii	"\025O\347\246eY\037\353\307\255\013\255eAT\020\216\015"
  69      65591FEB 
  69      C7AD0BAD 
  69      65415410 
  69      8E0D
  70 0084 B6D0C994 		.ascii	"\266\320\311\224\347rn\253Q\266\2038\257\304noD\307"
  70      E7726EAB 
  70      51B68338 
  70      AFC46E6F 
  70      44C7
  71 0096 8665CDA5 		.ascii	"\206e\315\245N\223\326\000\312\354\271\015\311\012\364"
  71      4E93D600 
  71      CAECB90D 
ARM GAS  C:\Users\Thomas\AppData\Local\Temp\ccOOiaEL.s 			page 5


  71      C90AF4
  72 00a5 78D1ED25 		.ascii	"x\321\355%.\020v\320\241\310\371H\345\326\343\212\260"
  72      2E1076D0 
  72      A1C8F948 
  72      E5D6E38A 
  72      B0
  73 00b6 77B3E389 		.ascii	"w\263\343\211]\270\270-:hIY\325j\341>\266\335\013\217"
  73      5DB8B82D 
  73      3A684959 
  73      D56AE13E 
  73      B6DD0B8F 
  74 00ca 608D901C 		.ascii	"`\215\220\034\244\246\202\016%w\251\324\255\202\241"
  74      A4A6820E 
  74      2577A9D4 
  74      AD82A1
  75 00d9 4283E210 		.ascii	"B\203\342\020ey\253\033<2\340S\246qV\\|\212k\312\367"
  75      6579AB1B 
  75      3C32E053 
  75      A671565C 
  75      7C8A6BCA 
  76 00ee 4BA8EBC4 		.ascii	"K\250\353\304\263\217E\343E\224\205VZ\263-Mu\361\220"
  76      B38F45E3 
  76      45948556 
  76      5AB32D4D 
  76      75F190
  77 0101 BDBA764A 		.ascii	"\275\272vJ\244\340af\371D_E\334\216p\363:\022\360b\017"
  77      A4E06166 
  77      F9445F45 
  77      DC8E70F3 
  77      3A12F062 
  78 0116 3C30EC63 		.ascii	"<0\354c\025\224\306\\\306\355\330Ivd<_r9X\343\022\353"
  78      1594C65C 
  78      C6EDD849 
  78      76643C5F 
  78      723958E3 
  79 012c EFDE3F2E 		.ascii	"\357\336?.jv2_\375]<\313$[\324i\371\323\353\265n.\261"
  79      6A76325F 
  79      FD5D3CCB 
  79      245BD469 
  79      F9D3EBB5 
  80 0143 F6FAE8ED 		.ascii	"\366\372\350\355\\\257i\233\010\0075\311\374\347/\305"
  80      5CAF699B 
  80      080735C9 
  80      FCE72FC5 
  81 0153 A8FDC15D 		.ascii	"\250\375\301]\357\322\300U\306gKP\370\277\336\017\271"
  81      EFD2C055 
  81      C6674B50 
  81      F8BFDE0F 
  81      B9
  82 0164 77E65306 		.ascii	"w\346S\006v\352{H\261\325\373e\371-xL<\2646_`\330\234"
  82      76EA7B48 
  82      B1D5FB65 
  82      F92D784C 
  82      3CB4365F 
  83 017b 32C3A3D3 		.ascii	"2\303\243\323\346x\320\037\232\011\217\231\201\021\177"
  83      E678D01F 
  83      9A098F99 
ARM GAS  C:\Users\Thomas\AppData\Local\Temp\ccOOiaEL.s 			page 6


  83      81117F
  84 018a 68B02F30 		.ascii	"h\260/021\025\354\367\215\2216\031\0327\177\000\207"
  84      323115EC 
  84      F78D9136 
  84      191A377F 
  84      0087
  85 019c 9EB823   		.ascii	"\236\270#"
  86              		.text
  87              		.section	.gnu.lto_Pin_8_Read.bdc408ed,"",%progbits
  88 0000 789C6366 		.ascii	"x\234cf\300\004R@\374\007\210\225\201\230\221\231\201"
  88      C0045240 
  88      FC078895 
  88      81989199 
  88      81
  89 0011 9169C239 		.ascii	"\221i\3029\006\206F\016&FF\020\203\201\221\241\236\211"
  89      0686460E 
  89      26464610 
  89      838191A1 
  89      9E89
  90 0023 B19EF125 		.ascii	"\261\236\361%\323G&\3063;\377]fT_\332\320\320\364a\322"
  90      D34726C6 
  90      333BFF5D 
  90      66545FDA 
  90      D0D0F461 
  91 0038 DE3BDCAD 		.ascii	"\336;\334\255\022?\231\030\030>310\352H1j\202\314a\\"
  91      123F9918 
  91      183E3331 
  91      30EA4831 
  91      6A82CC61 
  92 004d CEA8CE00 		.ascii	"\316\250\316\000T\370\261\345\357un\266\226\206\206"
  92      54F8B1E5 
  92      EF756EB6 
  92      968686
  93 005c 0601903C 		.ascii	"\006\001\220<Pb\005#\033#\220^/t\240\341\377\377\315"
  93      50620523 
  93      1B23905E 
  93      2F74A0E1 
  93      FFFFCD
  94 006f 5F277658 		.ascii	"_'vX3\26201\374d\002\332\0102\204\341\011\220\000\331"
  94      33B23031 
  94      FC6402DA 
  94      083284E1 
  94      099000D9 
  95 0083 F7948909 		.ascii	"\367\224\211\011D3\337b<\364\255\353\336<+\220\306\357"
  95      4433DF62 
  95      3CF4ADEB 
  95      DE3C2B90 
  95      C6EF
  96 0095 4C20CB97 		.ascii	"L \313\227M^\273\210\353\005\323O gqc\003\013\310\232"
  96      4D5EBB88 
  96      EB05D34F 
  96      20677163 
  96      030BC89A 
  97 00a9 FB4FCE5F 		.ascii	"\373O\316_\344\000\0131\200\270O_v~f\234\3138\273\261"
  97      E4000B31 
  97      80B84F5F 
  97      767E669C 
ARM GAS  C:\Users\Thomas\AppData\Local\Temp\ccOOiaEL.s 			page 7


  97      CB38BBB1 
  98 00bd 85F12713 		.ascii	"\205\361'\0233\343JF)\306U\214@g1\256\006\2122\334b"
  98      33E34A46 
  98      29C6558C 
  98      406731AE 
  98      068A32DC 
  99 00d2 6CFED1A6 		.ascii	"l\376\321\246\0031\217\031b\344\305Y\313\232\371A\372"
  99      03318F19 
  99      62E4C559 
  99      CB9AF941 
  99      FA
 100 00e3 81BE645C 		.ascii	"\201\276d\\\003Tz\217\221\021\252\000\354$F\220S\200"
 100      03547A8F 
 100      9111AA00 
 100      EC244690 
 100      5380
 101 00f5 662BEAC5 		.ascii	"f+\352\305\270\247\346\245\026%\226\244\246\304\007"
 101      B8A7E6A5 
 101      162596A4 
 101      A6C407
 102 0104 E7971625 		.ascii	"\347\227\026%\247\306\004\004\347;\233\306\004d\346"
 102      A7C60404 
 102      E73B9BC6 
 102      0464E6
 103 0113 C55BE825 		.ascii	"\305[\350%3\000\000\177\027e2"
 103      3300007F 
 103      176532
 104              		.text
 105              		.section	.gnu.lto_Pin_8_ReadDataReg.bdc408ed,"",%progbits
 106 0000 789C6366 		.ascii	"x\234cf\300\004R@\374\007\210\225\201\230\221\231\201"
 106      C0045240 
 106      FC078895 
 106      81989199 
 106      81
 107 0011 9169C239 		.ascii	"\221i\3029\006\206F\016&FF\020\203\201\221\241\236\211"
 107      0686460E 
 107      26464610 
 107      838191A1 
 107      9E89
 108 0023 B19EF125 		.ascii	"\261\236\361%\323G&\3063;\377]fT_\332\320\320\364\341"
 108      D34726C6 
 108      333BFF5D 
 108      66545FDA 
 108      D0D0F4E1 
 109 0037 D2E53BDC 		.ascii	"\322\345;\334\255\022?\231\030\030>310\352H1j\202\314"
 109      AD123F99 
 109      18183E33 
 109      3130EA48 
 109      316A82CC 
 110 004b 615CCEA8 		.ascii	"a\\\316\250\316\000T\370\261\345\357un\266\226\206\206"
 110      CE0054F8 
 110      B1E5EF75 
 110      6EB69686 
 110      86
 111 005c 0601903C 		.ascii	"\006\001\220<Pb\005#\033#\220^/t\240\341\377\377\315"
 111      50620523 
 111      1B23905E 
ARM GAS  C:\Users\Thomas\AppData\Local\Temp\ccOOiaEL.s 			page 8


 111      2F74A0E1 
 111      FFFFCD
 112 006f E7277568 		.ascii	"\347'uh1\26101\374d\002\332\0102\204\341\011\220\000"
 112      31B13031 
 112      FC6402DA 
 112      083284E1 
 112      099000
 113 0082 D9F79489 		.ascii	"\331\367\224\211\011D3\337b<\364\255\353\337J+\220\306"
 113      094433DF 
 113      623CF4AD 
 113      EBDF4A2B 
 113      90C6
 114 0094 EF4C20CB 		.ascii	"\357L \313\017\336\335\261\204\357\005\323O&\246\017"
 114      0FDEDDB1 
 114      84EF05D3 
 114      4F26A60F 
 115 00a4 8B1B1B58 		.ascii	"\213\033\033X@\326\334\177r\376\"\007X\210\001\304\235"
 115      40D6DC7F 
 115      72FE2207 
 115      588801C4 
 115      9D
 116 00b5 B76FEB25 		.ascii	"\267o\353%\276\271\214\263\033[\030\177213\256d\224"
 116      BEB98CB3 
 116      1B5B187F 
 116      323133AE 
 116      6494
 117 00c7 625CC508 		.ascii	"b\\\305\010t\026\343j\306\271\214\014\267\030\233\177"
 117      7416E36A 
 117      C6B98C0C 
 117      B7189B7F 
 118 00d7 B4E940CC 		.ascii	"\264\351@\314c\206\030yq\326\262f~\220~\240/\031\327"
 118      63861879 
 118      71D6B266 
 118      7E907EA0 
 118      2F19D7
 119 00ea 0095DE63 		.ascii	"\000\225\336cd\204*\000;\211\021\344\024\240\331\212"
 119      64842A00 
 119      3B8911E4 
 119      14A0D98A 
 120 00fa 7A31EEA9 		.ascii	"z1\356\251y\251E\211%\251)\361\301\371\245E\311\251"
 120      79A94589 
 120      25A929F1 
 120      C1F9A545 
 120      C9A9
 121 010c 3101C1F9 		.ascii	"1\001\301\371\316\2461\001\231y\361\026z\311\014\000"
 121      CEA63101 
 121      9979F116 
 121      7AC90C00 
 122 011c E7906599 		.ascii	"\347\220e\231"
 123              		.text
 124              		.section	.gnu.lto_.symbol_nodes.bdc408ed,"",%progbits
 125 0000 789C6366 		.ascii	"x\234cf``pb\200\002&\206z\006\206\011\347\030\030\352"
 125      60607062 
 125      80022686 
 125      7A068609 
 125      E71818EA 
 126 0014 EB19E62D 		.ascii	"\353\031\346-\340``b\254gD\3413\3253\241\360\231\353"
ARM GAS  C:\Users\Thomas\AppData\Local\Temp\ccOOiaEL.s 			page 9


 126      E0606062 
 126      AC6744E1 
 126      33D533A1 
 126      F099EB
 127 0027 9991F90C 		.ascii	"\231\221\371\014\0003\356\020\336"
 127      0033EE10 
 127      DE
 128              		.text
 129              		.section	.gnu.lto_.refs.bdc408ed,"",%progbits
 130 0000 789C6366 		.ascii	"x\234cf```d\200\002\000\000=\000\005"
 130      60606064 
 130      80020000 
 130      3D0005
 131              		.text
 132              		.section	.gnu.lto_.decls.bdc408ed,"",%progbits
 133 0000 789C8D52 		.ascii	"x\234\215R]H\024Q\024\276g\356\270\256\343(\326\303"
 133      5D481451 
 133      14BE67EE 
 133      B8AEE328 
 133      D6C3
 134 0012 1A4BD046 		.ascii	"\032K\320F \004\342K\004\373V\241`/\305\242D\017\012"
 134      2004E24B 
 134      04FB56A1 
 134      602FC5A2 
 134      440F0A
 135 0025 B2E860FB 		.ascii	"\262\350`\373\242\261\215\201O^\177B]\243L\2226\301"
 135      A2B18D81 
 135      4F5E7F42 
 135      5DA34C92 
 135      36C1
 136 0037 92D44C4D 		.ascii	"\222\324LM3\377\326U\323\331\247\026\302\202X\004}\312"
 136      33FFD655 
 136      D3D9A716 
 136      C2825804 
 136      7DCA
 137 0049 7CB1205A 		.ascii	"|\261 Z\243B!\230\316\334\331m\026[\251\003g\346\236"
 137      A3422198 
 137      CEDCD96D 
 137      165BA903 
 137      67E69E
 138 005c 99EFFBCE 		.ascii	"\231\357\373\316\317=\224\020\222\007\204\350h\027("
 138      CF3D9410 
 138      920784E8 
 138      681728
 139 006b 21BD1867 		.ascii	"!\275\030g\240{\210e\"\3724\372,z\010=L\376\266\351"
 139      A07B8865 
 139      22FA34FA 
 139      2C7A083D 
 139      4CFEB6E9 
 140 007f 14DE04BA 		.ascii	"\024\336\004\272\003}\005}9\361\037\022\230\203fh\332"
 140      037D057D 
 140      39F11F12 
 140      98836668 
 140      DA
 141 0090 0EF0B434 		.ascii	"\016\360\2644\334\3314\334P\242\266\303\362\205\322"
 141      DCD934DC 
 141      50A2B6C3 
ARM GAS  C:\Users\Thomas\AppData\Local\Temp\ccOOiaEL.s 			page 10


 141      F285D2
 142 009f 70C2FFE0 		.ascii	"p\302\377\340\244\353mW\200\360\344\367\265\354\035"
 142      A4EB6D57 
 142      80F0E4F7 
 142      B5EC1D
 143 00ae 01722597 		.ascii	"\001r%\227\021.\366D\2036\014eI4\302\365\325\366v;\025"
 143      112EF644 
 143      83360C65 
 143      4934C2F5 
 143      D5F6763B 
 144 00c3 C0380F06 		.ascii	"\3008\017\006\267bR\341\030c\254\203i\032X\022\315O"
 144      B76252E1 
 144      1863AC83 
 144      691A5812 
 144      CD4F
 145 00d5 976E6722 		.ascii	"\227ng\"\307!\361\360\316\233\276\010\345\241n\360\204"
 145      C721F1F0 
 145      CE9BBE08 
 145      E5A16EF0 
 145      84
 146 00e6 8D8DFBFB 		.ascii	"\215\215\373\373\024\244\202\016\306ZX\274\207\321c"
 146      14A4820E 
 146      C65A58BC 
 146      87D163
 147 00f5 040A9D70 		.ascii	"\004\012\235p\332I`\022\012\020\006cPH`\034\234\360"
 147      DA496012 
 147      0A100663 
 147      5048601C 
 147      9CF0
 148 0107 1C9C6408 		.ascii	"\034\234d\010\023\304\037\3076\2173&\302\004H0\012\224"
 148      13C41FC7 
 148      368F3326 
 148      C2044830 
 148      0A94
 149 0119 23B00D23 		.ascii	"#\260\015#C\"i\367\255H\267(\012\370\321\300T\360j\177"
 149      432269F7 
 149      AD48B728 
 149      0AF8D1C0 
 149      54F06A7F 
 150 012d E85BC342 		.ascii	"\350[\303B~/\012\260\356V\226'\202\307\001#(\373\014"
 150      7E2F0AB0 
 150      EE569627 
 150      82C70123 
 150      28FB0C
 151 0140 65094C41 		.ascii	"e\011LA>>_\200h\012\214D\265e\033=\303[\333o\355\177"
 151      3E3E5F80 
 151      680A8C44 
 151      B5651B3D 
 151      C35BDB6F 
 152 0156 9DE17AC4 		.ascii	"\235\341z\304\006\246\342\372\267\015\231E\231\246\353"
 152      06A6E2FA 
 152      B70D9945 
 152      99A6EB
 153 0165 E738055E 		.ascii	"\3478\005^\376IO\214\2639\317ip!m\364K\347\270L\275"
 153      FE494F8C 
 153      B339CF69 
 153      70216DF4 
ARM GAS  C:\Users\Thomas\AppData\Local\Temp\ccOOiaEL.s 			page 11


 153      4BE7B84C 
 154 017a 5CA2F95D 		.ascii	"\\\242\371]W@\346\022\003\213\2036S\200\363gR\3703I"
 154      5740E612 
 154      038B8336 
 154      5380F367 
 154      52F83349 
 155 018e FE2CE777 		.ascii	"\376,\347w\266M\321\324r\215N\254z\347x\275\025\211"
 155      B64DD1D4 
 155      728D4EAC 
 155      7AE778BD 
 155      1589
 156 01a0 72BB3E47 		.ascii	"r\273>G\373r\250\312s\305\267\036\276\267\363\\\037"
 156      FB72A8CA 
 156      73C5B71E 
 156      BEB7F35C 
 156      1F
 157 01b1 3E6D2B5A 		.ascii	">m+Z\033\373\245\353\224\023`>%\333|2[\310\314\026\373"
 157      1BFBA5EB 
 157      9413603E 
 157      25DB7C32 
 157      5BC8CC16 
 158 01c6 3A69A34D 		.ascii	":i\243M\\\341I\177l>\307\254\266\1778Y\255\301_H\341"
 158      5CE1497F 
 158      6C3EC7AC 
 158      B67F3859 
 158      ADC15F48 
 159 01db 2F24F961 		.ascii	"/$\371a\316g\017\272\206\354\364\036p\201\271\237\201"
 159      CE670FBA 
 159      86ECF41E 
 159      7081B99F 
 159      81
 160 01ec 708E8457 		.ascii	"p\216\204W\332\372\037W\212K\020{\033X\3172\227\340"
 160      DAFA1F57 
 160      8A4B107B 
 160      1B58CF32 
 160      97E0
 161 01fe 20E3D5A1 		.ascii	" \343\325\241K\260\267}\261\215\235\207e\034\313\242"
 161      4BB0B77D 
 161      B18D9D87 
 161      651CCBA2 
 162 020e B5044B60 		.ascii	"\265\004K`mA\347\307\2765Y\016\030\233\205#\314\212"
 162      6D41E7C7 
 162      BE35590E 
 162      189B8523 
 162      CC8A
 163 0220 E672B035 		.ascii	"\346r\2605\303\025\220y\007\370\336\025hd$\262)\201"
 163      C3159079 
 163      07F8DE15 
 163      686424B2 
 163      2981
 164 0232 53720671 		.ascii	"Sr\006q\205\367N\200\206J\035\306\370\343-\214\006s"
 164      85F74E80 
 164      864A1DC6 
 164      F8E32D8C 
 164      0673
 165 0244 931511FE 		.ascii	"\223\025\021\376\203@\004eVQ\306@k;\272\336\244\233"
 165      83400465 
ARM GAS  C:\Users\Thomas\AppData\Local\Temp\ccOOiaEL.s 			page 12


 165      5651C640 
 165      6B3BBADE 
 165      A49B
 166 0256 76379303 		.ascii	"v7\223\003\370#\243\301W\247\272m\245\227\257\270\212"
 166      F823A3C1 
 166      57A7BA6D 
 166      A597AFB8 
 166      8A
 167 0267 C9A9A2CA 		.ascii	"\311\251\242\312R\245N\361{U\245\246\252\274\276\301"
 167      52A54EF1 
 167      7B55A5A6 
 167      AABCBEC1 
 168 0277 5FAD547A 		.ascii	"_\255Tz\312\353\213\317VV7\252\215\327\225\033E\327"
 168      CAEB8BCF 
 168      565637AA 
 168      8DD7951B 
 168      45D7
 169 0289 48B6C757 		.ascii	"H\266\307WW\345\256\272\352\367\251\312\311C\361\034"
 169      57E5AEBA 
 169      EAF7A9CA 
 169      C943F11C 
 170 0299 54544D8E 		.ascii	"TTM\216\232\350rE-\361\373n*\227\352k\024\311\374T\246"
 170      9AE87245 
 170      2DF1FB6E 
 170      2A97EA6B 
 170      14C9FC54 
 171 02ae 786B8E58 		.ascii	"xk\216X\307\022\257\352-SjE\277R\353\376\015\014(GC"
 171      C712AFEA 
 171      2D536A45 
 171      BF52EBFE 
 171      0D0C2847 
 172              		.text
 173              		.section	.gnu.lto_.symtab.bdc408ed,"",%progbits
 174 0000 50696E5F 		.ascii	"Pin_8_Write\000\000\000\000\000\000\000\000\000\000"
 174      385F5772 
 174      69746500 
 174      00000000 
 174      00000000 
 175 0015 0000B200 		.ascii	"\000\000\262\000\000\000Pin_8_SetDriveMode\000\000\000"
 175      00005069 
 175      6E5F385F 
 175      53657444 
 175      72697665 
 176 0030 00000000 		.ascii	"\000\000\000\000\000\000\000\000\000\264\000\000\000"
 176      00000000 
 176      00B40000 
 176      00
 177 003d 50696E5F 		.ascii	"Pin_8_Read\000\000\000\000\000\000\000\000\000\000\000"
 177      385F5265 
 177      61640000 
 177      00000000 
 177      00000000 
 178 0052 00B70000 		.ascii	"\000\267\000\000\000Pin_8_ReadDataReg\000\000\000\000"
 178      0050696E 
 178      5F385F52 
 178      65616444 
 178      61746152 
ARM GAS  C:\Users\Thomas\AppData\Local\Temp\ccOOiaEL.s 			page 13


 179 006c 00000000 		.ascii	"\000\000\000\000\000\000\000\000\271\000\000\000"
 179      00000000 
 179      B9000000 
 180              		.text
 181              		.section	.gnu.lto_.opts,"",%progbits
 182 0000 272D666E 		.ascii	"'-fno-trapv' '-mcpu=cortex-m3' '-mthumb' '-g' '-O3'"
 182      6F2D7472 
 182      61707627 
 182      20272D6D 
 182      6370753D 
 183 0033 20272D66 		.ascii	" '-ffunction-sections' '-finline-functions' '-flto'"
 183      66756E63 
 183      74696F6E 
 183      2D736563 
 183      74696F6E 
 184 0066 20272D66 		.ascii	" '-ffat-lto-objects'\000"
 184      6661742D 
 184      6C746F2D 
 184      6F626A65 
 184      63747327 
 185              		.text
 186              		.cfi_sections	.debug_frame
 187              		.section	.text.Pin_8_Write,"ax",%progbits
 188              		.align	2
 189              		.global	Pin_8_Write
 190              		.thumb
 191              		.thumb_func
 192              		.type	Pin_8_Write, %function
 193              	Pin_8_Write:
 194              	.LFB0:
 195              		.file 1 ".\\Generated_Source\\PSoC5\\Pin_8.c"
   1:.\Generated_Source\PSoC5/Pin_8.c **** /*******************************************************************************
   2:.\Generated_Source\PSoC5/Pin_8.c **** * File Name: Pin_8.c  
   3:.\Generated_Source\PSoC5/Pin_8.c **** * Version 2.20
   4:.\Generated_Source\PSoC5/Pin_8.c **** *
   5:.\Generated_Source\PSoC5/Pin_8.c **** * Description:
   6:.\Generated_Source\PSoC5/Pin_8.c **** *  This file contains API to enable firmware control of a Pins component.
   7:.\Generated_Source\PSoC5/Pin_8.c **** *
   8:.\Generated_Source\PSoC5/Pin_8.c **** * Note:
   9:.\Generated_Source\PSoC5/Pin_8.c **** *
  10:.\Generated_Source\PSoC5/Pin_8.c **** ********************************************************************************
  11:.\Generated_Source\PSoC5/Pin_8.c **** * Copyright 2008-2015, Cypress Semiconductor Corporation.  All rights reserved.
  12:.\Generated_Source\PSoC5/Pin_8.c **** * You may use this file only in accordance with the license, terms, conditions, 
  13:.\Generated_Source\PSoC5/Pin_8.c **** * disclaimers, and limitations in the end user license agreement accompanying 
  14:.\Generated_Source\PSoC5/Pin_8.c **** * the software package with which this file was provided.
  15:.\Generated_Source\PSoC5/Pin_8.c **** *******************************************************************************/
  16:.\Generated_Source\PSoC5/Pin_8.c **** 
  17:.\Generated_Source\PSoC5/Pin_8.c **** #include "cytypes.h"
  18:.\Generated_Source\PSoC5/Pin_8.c **** #include "Pin_8.h"
  19:.\Generated_Source\PSoC5/Pin_8.c **** 
  20:.\Generated_Source\PSoC5/Pin_8.c **** /* APIs are not generated for P15[7:6] on PSoC 5 */
  21:.\Generated_Source\PSoC5/Pin_8.c **** #if !(CY_PSOC5A &&\
  22:.\Generated_Source\PSoC5/Pin_8.c **** 	 Pin_8__PORT == 15 && ((Pin_8__MASK & 0xC0) != 0))
  23:.\Generated_Source\PSoC5/Pin_8.c **** 
  24:.\Generated_Source\PSoC5/Pin_8.c **** 
  25:.\Generated_Source\PSoC5/Pin_8.c **** /*******************************************************************************
  26:.\Generated_Source\PSoC5/Pin_8.c **** * Function Name: Pin_8_Write
ARM GAS  C:\Users\Thomas\AppData\Local\Temp\ccOOiaEL.s 			page 14


  27:.\Generated_Source\PSoC5/Pin_8.c **** ****************************************************************************//**
  28:.\Generated_Source\PSoC5/Pin_8.c **** *
  29:.\Generated_Source\PSoC5/Pin_8.c **** * \brief Writes the value to the physical port (data output register), masking
  30:.\Generated_Source\PSoC5/Pin_8.c **** *  and shifting the bits appropriately. 
  31:.\Generated_Source\PSoC5/Pin_8.c **** *
  32:.\Generated_Source\PSoC5/Pin_8.c **** * The data output register controls the signal applied to the physical pin in 
  33:.\Generated_Source\PSoC5/Pin_8.c **** * conjunction with the drive mode parameter. This function avoids changing 
  34:.\Generated_Source\PSoC5/Pin_8.c **** * other bits in the port by using the appropriate method (read-modify-write or
  35:.\Generated_Source\PSoC5/Pin_8.c **** * bit banding).
  36:.\Generated_Source\PSoC5/Pin_8.c **** *
  37:.\Generated_Source\PSoC5/Pin_8.c **** * <b>Note</b> This function should not be used on a hardware digital output pin 
  38:.\Generated_Source\PSoC5/Pin_8.c **** * as it is driven by the hardware signal attached to it.
  39:.\Generated_Source\PSoC5/Pin_8.c **** *
  40:.\Generated_Source\PSoC5/Pin_8.c **** * \param value
  41:.\Generated_Source\PSoC5/Pin_8.c **** *  Value to write to the component instance.
  42:.\Generated_Source\PSoC5/Pin_8.c **** *
  43:.\Generated_Source\PSoC5/Pin_8.c **** * \return 
  44:.\Generated_Source\PSoC5/Pin_8.c **** *  None 
  45:.\Generated_Source\PSoC5/Pin_8.c **** *
  46:.\Generated_Source\PSoC5/Pin_8.c **** * \sideeffect
  47:.\Generated_Source\PSoC5/Pin_8.c **** *  If you use read-modify-write operations that are not atomic; the Interrupt 
  48:.\Generated_Source\PSoC5/Pin_8.c **** *  Service Routines (ISR) can cause corruption of this function. An ISR that 
  49:.\Generated_Source\PSoC5/Pin_8.c **** *  interrupts this function and performs writes to the Pins component data 
  50:.\Generated_Source\PSoC5/Pin_8.c **** *  register can cause corrupted port data. To avoid this issue, you should 
  51:.\Generated_Source\PSoC5/Pin_8.c **** *  either use the Per-Pin APIs (primary method) or disable interrupts around 
  52:.\Generated_Source\PSoC5/Pin_8.c **** *  this function.
  53:.\Generated_Source\PSoC5/Pin_8.c **** *
  54:.\Generated_Source\PSoC5/Pin_8.c **** * \funcusage
  55:.\Generated_Source\PSoC5/Pin_8.c **** *  \snippet Pin_8_SUT.c usage_Pin_8_Write
  56:.\Generated_Source\PSoC5/Pin_8.c **** *******************************************************************************/
  57:.\Generated_Source\PSoC5/Pin_8.c **** void Pin_8_Write(uint8 value)
  58:.\Generated_Source\PSoC5/Pin_8.c **** {
 196              		.loc 1 58 0
 197              		.cfi_startproc
 198              		@ args = 0, pretend = 0, frame = 0
 199              		@ frame_needed = 0, uses_anonymous_args = 0
 200              		@ link register save eliminated.
 201              	.LVL0:
  59:.\Generated_Source\PSoC5/Pin_8.c ****     uint8 staticBits = (Pin_8_DR & (uint8)(~Pin_8_MASK));
 202              		.loc 1 59 0
 203 0000 044A     		ldr	r2, .L2
  60:.\Generated_Source\PSoC5/Pin_8.c ****     Pin_8_DR = staticBits | ((uint8)(value << Pin_8_SHIFT) & Pin_8_MASK);
 204              		.loc 1 60 0
 205 0002 00F00100 		and	r0, r0, #1
 206              	.LVL1:
  59:.\Generated_Source\PSoC5/Pin_8.c ****     uint8 staticBits = (Pin_8_DR & (uint8)(~Pin_8_MASK));
 207              		.loc 1 59 0
 208 0006 1378     		ldrb	r3, [r2]	@ zero_extendqisi2
 209              	.LVL2:
 210 0008 03F0FE03 		and	r3, r3, #254
 211              	.LVL3:
 212              		.loc 1 60 0
 213 000c 1843     		orrs	r0, r0, r3
 214 000e 1070     		strb	r0, [r2]
 215 0010 7047     		bx	lr
 216              	.L3:
 217 0012 00BF     		.align	2
ARM GAS  C:\Users\Thomas\AppData\Local\Temp\ccOOiaEL.s 			page 15


 218              	.L2:
 219 0014 F0510040 		.word	1073762800
 220              		.cfi_endproc
 221              	.LFE0:
 222              		.size	Pin_8_Write, .-Pin_8_Write
 223              		.section	.text.Pin_8_SetDriveMode,"ax",%progbits
 224              		.align	2
 225              		.global	Pin_8_SetDriveMode
 226              		.thumb
 227              		.thumb_func
 228              		.type	Pin_8_SetDriveMode, %function
 229              	Pin_8_SetDriveMode:
 230              	.LFB1:
  61:.\Generated_Source\PSoC5/Pin_8.c **** }
  62:.\Generated_Source\PSoC5/Pin_8.c **** 
  63:.\Generated_Source\PSoC5/Pin_8.c **** 
  64:.\Generated_Source\PSoC5/Pin_8.c **** /*******************************************************************************
  65:.\Generated_Source\PSoC5/Pin_8.c **** * Function Name: Pin_8_SetDriveMode
  66:.\Generated_Source\PSoC5/Pin_8.c **** ****************************************************************************//**
  67:.\Generated_Source\PSoC5/Pin_8.c **** *
  68:.\Generated_Source\PSoC5/Pin_8.c **** * \brief Sets the drive mode for each of the Pins component's pins.
  69:.\Generated_Source\PSoC5/Pin_8.c **** * 
  70:.\Generated_Source\PSoC5/Pin_8.c **** * <b>Note</b> This affects all pins in the Pins component instance. Use the
  71:.\Generated_Source\PSoC5/Pin_8.c **** * Per-Pin APIs if you wish to control individual pin's drive modes.
  72:.\Generated_Source\PSoC5/Pin_8.c **** *
  73:.\Generated_Source\PSoC5/Pin_8.c **** * \param mode
  74:.\Generated_Source\PSoC5/Pin_8.c **** *  Mode for the selected signals. Valid options are documented in 
  75:.\Generated_Source\PSoC5/Pin_8.c **** *  \ref driveMode.
  76:.\Generated_Source\PSoC5/Pin_8.c **** *
  77:.\Generated_Source\PSoC5/Pin_8.c **** * \return
  78:.\Generated_Source\PSoC5/Pin_8.c **** *  None
  79:.\Generated_Source\PSoC5/Pin_8.c **** *
  80:.\Generated_Source\PSoC5/Pin_8.c **** * \sideeffect
  81:.\Generated_Source\PSoC5/Pin_8.c **** *  If you use read-modify-write operations that are not atomic, the ISR can
  82:.\Generated_Source\PSoC5/Pin_8.c **** *  cause corruption of this function. An ISR that interrupts this function 
  83:.\Generated_Source\PSoC5/Pin_8.c **** *  and performs writes to the Pins component Drive Mode registers can cause 
  84:.\Generated_Source\PSoC5/Pin_8.c **** *  corrupted port data. To avoid this issue, you should either use the Per-Pin
  85:.\Generated_Source\PSoC5/Pin_8.c **** *  APIs (primary method) or disable interrupts around this function.
  86:.\Generated_Source\PSoC5/Pin_8.c **** *
  87:.\Generated_Source\PSoC5/Pin_8.c **** * \funcusage
  88:.\Generated_Source\PSoC5/Pin_8.c **** *  \snippet Pin_8_SUT.c usage_Pin_8_SetDriveMode
  89:.\Generated_Source\PSoC5/Pin_8.c **** *******************************************************************************/
  90:.\Generated_Source\PSoC5/Pin_8.c **** void Pin_8_SetDriveMode(uint8 mode)
  91:.\Generated_Source\PSoC5/Pin_8.c **** {
 231              		.loc 1 91 0
 232              		.cfi_startproc
 233              		@ args = 0, pretend = 0, frame = 0
 234              		@ frame_needed = 0, uses_anonymous_args = 0
 235              		@ link register save eliminated.
 236              	.LVL4:
  92:.\Generated_Source\PSoC5/Pin_8.c **** 	CyPins_SetPinDriveMode(Pin_8_0, mode);
 237              		.loc 1 92 0
 238 0000 044A     		ldr	r2, .L5
 239 0002 00F00E00 		and	r0, r0, #14
 240              	.LVL5:
 241 0006 1378     		ldrb	r3, [r2]	@ zero_extendqisi2
 242 0008 03F0F103 		and	r3, r3, #241
ARM GAS  C:\Users\Thomas\AppData\Local\Temp\ccOOiaEL.s 			page 16


 243 000c 1843     		orrs	r0, r0, r3
 244 000e 1070     		strb	r0, [r2]
 245 0010 7047     		bx	lr
 246              	.L6:
 247 0012 00BF     		.align	2
 248              	.L5:
 249 0014 78500040 		.word	1073762424
 250              		.cfi_endproc
 251              	.LFE1:
 252              		.size	Pin_8_SetDriveMode, .-Pin_8_SetDriveMode
 253              		.section	.text.Pin_8_Read,"ax",%progbits
 254              		.align	2
 255              		.global	Pin_8_Read
 256              		.thumb
 257              		.thumb_func
 258              		.type	Pin_8_Read, %function
 259              	Pin_8_Read:
 260              	.LFB2:
  93:.\Generated_Source\PSoC5/Pin_8.c **** }
  94:.\Generated_Source\PSoC5/Pin_8.c **** 
  95:.\Generated_Source\PSoC5/Pin_8.c **** 
  96:.\Generated_Source\PSoC5/Pin_8.c **** /*******************************************************************************
  97:.\Generated_Source\PSoC5/Pin_8.c **** * Function Name: Pin_8_Read
  98:.\Generated_Source\PSoC5/Pin_8.c **** ****************************************************************************//**
  99:.\Generated_Source\PSoC5/Pin_8.c **** *
 100:.\Generated_Source\PSoC5/Pin_8.c **** * \brief Reads the associated physical port (pin status register) and masks 
 101:.\Generated_Source\PSoC5/Pin_8.c **** *  the required bits according to the width and bit position of the component
 102:.\Generated_Source\PSoC5/Pin_8.c **** *  instance. 
 103:.\Generated_Source\PSoC5/Pin_8.c **** *
 104:.\Generated_Source\PSoC5/Pin_8.c **** * The pin's status register returns the current logic level present on the 
 105:.\Generated_Source\PSoC5/Pin_8.c **** * physical pin.
 106:.\Generated_Source\PSoC5/Pin_8.c **** *
 107:.\Generated_Source\PSoC5/Pin_8.c **** * \return 
 108:.\Generated_Source\PSoC5/Pin_8.c **** *  The current value for the pins in the component as a right justified number.
 109:.\Generated_Source\PSoC5/Pin_8.c **** *
 110:.\Generated_Source\PSoC5/Pin_8.c **** * \funcusage
 111:.\Generated_Source\PSoC5/Pin_8.c **** *  \snippet Pin_8_SUT.c usage_Pin_8_Read  
 112:.\Generated_Source\PSoC5/Pin_8.c **** *******************************************************************************/
 113:.\Generated_Source\PSoC5/Pin_8.c **** uint8 Pin_8_Read(void)
 114:.\Generated_Source\PSoC5/Pin_8.c **** {
 261              		.loc 1 114 0
 262              		.cfi_startproc
 263              		@ args = 0, pretend = 0, frame = 0
 264              		@ frame_needed = 0, uses_anonymous_args = 0
 265              		@ link register save eliminated.
 115:.\Generated_Source\PSoC5/Pin_8.c ****     return (Pin_8_PS & Pin_8_MASK) >> Pin_8_SHIFT;
 266              		.loc 1 115 0
 267 0000 024B     		ldr	r3, .L8
 268 0002 1878     		ldrb	r0, [r3]	@ zero_extendqisi2
 116:.\Generated_Source\PSoC5/Pin_8.c **** }
 269              		.loc 1 116 0
 270 0004 00F00100 		and	r0, r0, #1
 271 0008 7047     		bx	lr
 272              	.L9:
 273 000a 00BF     		.align	2
 274              	.L8:
 275 000c F1510040 		.word	1073762801
ARM GAS  C:\Users\Thomas\AppData\Local\Temp\ccOOiaEL.s 			page 17


 276              		.cfi_endproc
 277              	.LFE2:
 278              		.size	Pin_8_Read, .-Pin_8_Read
 279              		.section	.text.Pin_8_ReadDataReg,"ax",%progbits
 280              		.align	2
 281              		.global	Pin_8_ReadDataReg
 282              		.thumb
 283              		.thumb_func
 284              		.type	Pin_8_ReadDataReg, %function
 285              	Pin_8_ReadDataReg:
 286              	.LFB3:
 117:.\Generated_Source\PSoC5/Pin_8.c **** 
 118:.\Generated_Source\PSoC5/Pin_8.c **** 
 119:.\Generated_Source\PSoC5/Pin_8.c **** /*******************************************************************************
 120:.\Generated_Source\PSoC5/Pin_8.c **** * Function Name: Pin_8_ReadDataReg
 121:.\Generated_Source\PSoC5/Pin_8.c **** ****************************************************************************//**
 122:.\Generated_Source\PSoC5/Pin_8.c **** *
 123:.\Generated_Source\PSoC5/Pin_8.c **** * \brief Reads the associated physical port's data output register and masks 
 124:.\Generated_Source\PSoC5/Pin_8.c **** *  the correct bits according to the width and bit position of the component 
 125:.\Generated_Source\PSoC5/Pin_8.c **** *  instance. 
 126:.\Generated_Source\PSoC5/Pin_8.c **** *
 127:.\Generated_Source\PSoC5/Pin_8.c **** * The data output register controls the signal applied to the physical pin in 
 128:.\Generated_Source\PSoC5/Pin_8.c **** * conjunction with the drive mode parameter. This is not the same as the 
 129:.\Generated_Source\PSoC5/Pin_8.c **** * preferred Pin_8_Read() API because the 
 130:.\Generated_Source\PSoC5/Pin_8.c **** * Pin_8_ReadDataReg() reads the data register instead of the status 
 131:.\Generated_Source\PSoC5/Pin_8.c **** * register. For output pins this is a useful function to determine the value 
 132:.\Generated_Source\PSoC5/Pin_8.c **** * just written to the pin.
 133:.\Generated_Source\PSoC5/Pin_8.c **** *
 134:.\Generated_Source\PSoC5/Pin_8.c **** * \return 
 135:.\Generated_Source\PSoC5/Pin_8.c **** *  The current value of the data register masked and shifted into a right 
 136:.\Generated_Source\PSoC5/Pin_8.c **** *  justified number for the component instance.
 137:.\Generated_Source\PSoC5/Pin_8.c **** *
 138:.\Generated_Source\PSoC5/Pin_8.c **** * \funcusage
 139:.\Generated_Source\PSoC5/Pin_8.c **** *  \snippet Pin_8_SUT.c usage_Pin_8_ReadDataReg 
 140:.\Generated_Source\PSoC5/Pin_8.c **** *******************************************************************************/
 141:.\Generated_Source\PSoC5/Pin_8.c **** uint8 Pin_8_ReadDataReg(void)
 142:.\Generated_Source\PSoC5/Pin_8.c **** {
 287              		.loc 1 142 0
 288              		.cfi_startproc
 289              		@ args = 0, pretend = 0, frame = 0
 290              		@ frame_needed = 0, uses_anonymous_args = 0
 291              		@ link register save eliminated.
 143:.\Generated_Source\PSoC5/Pin_8.c ****     return (Pin_8_DR & Pin_8_MASK) >> Pin_8_SHIFT;
 292              		.loc 1 143 0
 293 0000 024B     		ldr	r3, .L11
 294 0002 1878     		ldrb	r0, [r3]	@ zero_extendqisi2
 144:.\Generated_Source\PSoC5/Pin_8.c **** }
 295              		.loc 1 144 0
 296 0004 00F00100 		and	r0, r0, #1
 297 0008 7047     		bx	lr
 298              	.L12:
 299 000a 00BF     		.align	2
 300              	.L11:
 301 000c F0510040 		.word	1073762800
 302              		.cfi_endproc
 303              	.LFE3:
 304              		.size	Pin_8_ReadDataReg, .-Pin_8_ReadDataReg
ARM GAS  C:\Users\Thomas\AppData\Local\Temp\ccOOiaEL.s 			page 18


 305              		.text
 306              	.Letext0:
 307              		.file 2 ".\\Generated_Source\\PSoC5\\cytypes.h"