ARM GAS  C:\Users\Thomas\AppData\Local\Temp\ccYtJVrG.s 			page 1


   1              		.syntax unified
   2              		.cpu cortex-m3
   3              		.fpu softvfp
   4              		.eabi_attribute 20, 1
   5              		.eabi_attribute 21, 1
   6              		.eabi_attribute 23, 3
   7              		.eabi_attribute 24, 1
   8              		.eabi_attribute 25, 1
   9              		.eabi_attribute 26, 1
  10              		.eabi_attribute 30, 2
  11              		.eabi_attribute 34, 1
  12              		.eabi_attribute 18, 4
  13              		.thumb
  14              		.file	"Pin_7.c"
  15              		.text
  16              	.Ltext0:
  17              		.section	.gnu.lto_.profile.bdc407a7,"",%progbits
  18 0000 789C6366 		.ascii	"x\234cf```a\200\000F\006IQ\000\000\273\0007"
  18      60606061 
  18      80004606 
  18      49510000 
  18      BB0037
  19              		.text
  20              		.section	.gnu.lto_.jmpfuncs.bdc407a7,"",%progbits
  21 0000 789C6366 		.ascii	"x\234cf\300\016\204\2404\013\003##c=#\210`b``\006\212"
  21      C00E84A0 
  21      340B0323 
  21      23633D23 
  21      88606260 
  22 0017 00000DC0 		.ascii	"\000\000\015\300\001$"
  22      0124
  23              		.text
  24              		.section	.gnu.lto_.inline.bdc407a7,"",%progbits
  25 0000 789C6366 		.ascii	"x\234cf\300\016\022\2404\013\003\003'\007##\003#\003"
  25      C00E12A0 
  25      340B0303 
  25      27072323 
  25      032303
  26 0013 0333C701 		.ascii	"\0033\307\001;\006\266\005\362L\014,\013\344Y@\222\214"
  26      3B06B605 
  26      F24C0C2C 
  26      0BE45940 
  26      928C
  27 0025 0C1CECE8 		.ascii	"\014\034\354\350rL\027\370\301rL\014l\254\214\014Ll"
  27      724C17F8 
  27      C1724C0C 
  27      6CAC8C0C 
  27      4C6C
  28 0037 1FF420E2 		.ascii	"\037\364 \342@\300\214)\304\000\000\333l\011\322"
  28      40C08C29 
  28      C40000DB 
  28      6C09D2
  29              		.text
  30              		.section	.gnu.lto_.pureconst.bdc407a7,"",%progbits
  31 0000 789C6366 		.ascii	"x\234cf``\340d\200\000\026\006)F)&)f)\000\002\305\000"
  31      6060E064 
  31      80001606 
ARM GAS  C:\Users\Thomas\AppData\Local\Temp\ccYtJVrG.s 			page 2


  31      29462926 
  31      29662900 
  32 0017 7F       		.ascii	"\177"
  33              		.text
  34              		.section	.gnu.lto_Pin_7_Write.bdc407a7,"",%progbits
  35 0000 789C6591 		.ascii	"x\234e\221OHTQ\024\306\317w\357{3\226\"\321rV\205\211"
  35      4F485451 
  35      14C6CF77 
  35      EF7B3396 
  35      22D17256 
  36 0016 15E22A69 		.ascii	"\025\342*i\033\265p;\340v@\206\351-\006BA\307\266\336"
  36      1BB5703B 
  36      E0764086 
  36      E92D0642 
  36      41C7B6DE 
  37 002a 67830B41 		.ascii	"g\203\013A\020\021\014\006%Q\261\232RsHD*\236\342.j"
  37      10110C06 
  37      2551B19A 
  37      52734844 
  37      2A9EE22E 
  38 003f 30A140FC 		.ascii	"0\241@\374\013\223&\270P\264\314$\307s\336s\241\370"
  38      0B9326B8 
  38      50B4CC24 
  38      C773DE73 
  38      A1F8
  39 0051 E0FE7987 		.ascii	"\340\376y\207\337\367\335\357\236\253\351\362\027\341"
  39      DFF7DDEF 
  39      9EABE9F2 
  39      17E1
  40 005f 715B11DD 		.ascii	"q[\021\335\343\025\232\240\272\277\022\271%\012\220"
  40      E3159AA0 
  40      BABF12B9 
  40      250A90
  41 006e 0D81DA14 		.ascii	"\015\201\332\024\332\260\255\366\024\272\275\354\363"
  41      DAB0ADF6 
  41      14BABDEC 
  41      F3
  42 007b D2AA1163 		.ascii	"\322\252\021c\314nO\336\215z8b\335\276\012|0\212*f\366"
  42      CC6E4FDE 
  42      8D7A3862 
  42      DDBE0A7C 
  42      308A2A66 
  43 0090 B3A657EB 		.ascii	"\263\246W\353[ \336O,|9\011W\016\031\323\356M\217\231"
  43      5B20DE4F 
  43      2C7C3909 
  43      570E19D3 
  43      EE4D8F99 
  44 00a4 078C032F 		.ascii	"\007\214\003/\241Y\201\352\010\356D\210\013\204W\250"
  44      A15981EA 
  44      08EE4488 
  44      0B8457A8 
  45 00b4 1478B26B 		.ascii	"\024x\262k~J\351\273\276p\360\363\306|Y\305 \013\327"
  45      7E4AE9BB 
  45      BE70F0F3 
  45      C67C59C5 
  45      200BD7
  46 00c7 8FA7629E 		.ascii	"\217\247b\236\373\302\234\024\213\276\374\365yy\360"
ARM GAS  C:\Users\Thomas\AppData\Local\Temp\ccYtJVrG.s 			page 3


  46      FBC29C14 
  46      8BBEFCF5 
  46      7979F0
  47 00d6 31BF97FE 		.ascii	"1\277\227\376\377\2434\224\346`\327\220EE\220\011o\020"
  47      FFA33494 
  47      E660D790 
  47      45459009 
  47      6F10
  48 00e8 022F5219 		.ascii	"\002/R\031\277\356\231b1\367q\366\037\256(>V\361E\271"
  48      BFEE9962 
  48      31F771F6 
  48      1FAE283E 
  48      56F145B9 
  49 00fc 6C414EB7 		.ascii	"lAN\267\245\020\222),\023Q\201\207\\\376'\377\360\252"
  49      A5109229 
  49      2C135181 
  49      875CFE27 
  49      FFF0AA
  50 010f 9730F7A7 		.ascii	"\2270\367\247s\265/,\216\207J:1\2732=\\\376K\035)\275"
  50      73B52F2C 
  50      8E874A3A 
  50      31BB323D 
  50      5CFE4B1D 
  51 0125 3BE41A4B 		.ascii	";\344\032K2\254\025\362\013%~\311\2174\360\351\375\267"
  51      32AC15F2 
  51      0B257EC9 
  51      8F34F0E9 
  51      FDB7
  52 0137 F27E64DC 		.ascii	"\362~d\3344\347\266\360\026\021\214\201#c\034\375\240"
  52      34E7B6F0 
  52      16118C81 
  52      23631CFD 
  52      A0
  53 0148 253CFBDB 		.ascii	"%<\373\333\261\214\300P\007\2363\037\026\363Z\014\260"
  53      B18CC050 
  53      079E331F 
  53      16F35A0C 
  53      B0
  54 0159 C65D9960 		.ascii	"\306]\231`\370;\224\177\011N\312\224\210\226;6\267\316"
  54      F83B947F 
  54      094ECA94 
  54      88963B36 
  54      B7CE
  55 016b 62D887CA 		.ascii	"b\330\207\312b\325\316bf\246LT\312&\274c\221o}pf-\034"
  55      62D5CE62 
  55      66A64C54 
  55      CA26BC63 
  55      916F7D70 
  56 0182 431B5DBF 		.ascii	"C\033]\277s\020\310\272A\230\014\240\203P\200\204}J"
  56      7310C8BA 
  56      41980CA0 
  56      83508084 
  56      7D4A
  57 0194 DCE77A7C 		.ascii	"\334\347z|\325\205\360\256g_\214\237\343\370,\242U\270"
  57      D585F0AE 
  57      675F8C9F 
  57      E3F82CA2 
ARM GAS  C:\Users\Thomas\AppData\Local\Temp\ccYtJVrG.s 			page 4


  57      55B8
  58 01a6 DEB12DBC 		.ascii	"\336\261-\274\274A\201\037\222;\305}\273Y\023\253s\032"
  58      BC41811F 
  58      923BC57D 
  58      BB5913AB 
  58      731A
  59 01b8 9DE678CA 		.ascii	"\235\346x\312y\334P\337\324\332\234pb\321\372\246G\265"
  59      79DC50DF 
  59      D4DA9C70 
  59      62D1FAA6 
  59      47B5
  60 01ca B168B2B1 		.ascii	"\261h\262\261\341~M\202\354\247\361'\255\316\325\226"
  60      E17E4D82 
  60      ECA7F127 
  60      ADCED596 
  61 01da 543C954C 		.ascii	"T<\225L<L\246ZN\001\250+\316X"
  61      3C4CA65A 
  61      4E01A82B 
  61      CE58
  62              		.text
  63              		.section	.gnu.lto_Pin_7_SetDriveMode.bdc407a7,"",%progbits
  64 0000 789C7D51 		.ascii	"x\234}QM(DQ\030\375\316\275o~4\221\254\246\331)B\211"
  64      4D284451 
  64      18FDCEBD 
  64      6F7E3491 
  64      ACA6D929 
  65 0016 956C9562 		.ascii	"\225l\225b\253l\247$\336\302\202)\261\366\206aa\205"
  65      AB6CA724 
  65      DEC28229 
  65      B1F68661 
  65      6185
  66 0028 954889E4 		.ascii	"\225H\211\344\377\247,\254d\310N\021\033Q(\215\237Y"
  66      FFA72CAC 
  66      64C84E11 
  66      1B51288D 
  66      9F59
  67 003a 90C9EFA4 		.ascii	"\220\311\357\244i\234;\317bJ\271\275\373\335\357\234"
  67      699C3BCF 
  67      624AB9BD 
  67      FBDDEF9C 
  68 004a BE73DE77 		.ascii	"\276s\336w\277\253\345\357\012q'!R\311\023Z\240\306"
  68      BFABE5EF 
  68      0A712721 
  68      52C9135A 
  68      A0C6
  69 005c 8E45A27E 		.ascii	"\216E\242~\005\230D \003\012\003H\252\224\302X|u2P\261"
  69      05984420 
  69      030A0348 
  69      AA94C258 
  69      7C753250 
  70 0071 E038CECB 		.ascii	"\3408\316\313\334Np8\230V\"\257\312\265\301\"*X\362"
  70      DC4E7038 
  70      985622AF 
  70      CAB5C122 
  70      2A58F2
  71 0084 904E2E16 		.ascii	"\220N.\026\3522\010\363\314\370\371\231*\237w\234\301"
  71      EA3208F3 
ARM GAS  C:\Users\Thomas\AppData\Local\Temp\ccYtJVrG.s 			page 5


  71      CCF8F999 
  71      2A9F779C 
  71      C1
  72 0095 F8DE86D3 		.ascii	"\370\336\206\323\2004=\227\240\251@u\010U!!!XF\271)"
  72      80343D97 
  72      A0A94075 
  72      08552121 
  72      215846B9 
  73 00aa 4EC532E7 		.ascii	"N\3052\347\001o\214\336\305\256'V\340e[\262Y\022w\262"
  73      016F8CDE 
  73      C5AE2756 
  73      E0655BB2 
  73      591277B2 
  74 00be D9D7ABF1 		.ascii	"\331\327\253\361\245Z\004\0245J3h\313\004\017\214\334"
  74      A55A0414 
  74      354A3368 
  74      CB040F8C 
  74      DC
  75 00cf 6B529F09 		.ascii	"kR\237\011~\023\012L\215H\202\333\334\340\216\200\247"
  75      7E130A4C 
  75      8D4882DB 
  75      DCE08E80 
  75      A7
  76 00e0 BEC4C1C7 		.ascii	"\276\304\301\307\350\375\264e|?\225\271\316\373\324"
  76      E8FDB465 
  76      7C3F95B9 
  76      CEFBD4
  77 00ef B2FF51A5 		.ascii	"\262\377Q\245\225\225\231\215:\226i\342&qr\352Rb\340"
  77      9595998D 
  77      3A9669E2 
  77      267172EA 
  77      5262E0
  78 0102 EEFEC82D 		.ascii	"\356\376\310-f0\035\215\261w\017V\021\302\0328/\254"
  78      66301D8D 
  78      B1770F56 
  78      11C21A38 
  78      2FAC
  79 0114 93954B0C 		.ascii	"\223\225K\014^\373\\7MC\342\241/\257\213-R\324_<\277"
  79      5EFB5C37 
  79      4D43E2A1 
  79      2FAF8B2D 
  79      52D45F3C 
  80 0129 1CE5EC74 		.ascii	"\034\345\354t*\373\2738\312\015Z\344i\371y\362\265>"
  80      2AFBBB38 
  80      CA0D5AE4 
  80      69F979F2 
  80      B53E
  81 013b 52D49E6E 		.ascii	"R\324\236n?\035zr\332\"\301fN2\364\366[\342\317\375"
  81      3F1D7A72 
  81      DA22C166 
  81      4E32F4F6 
  81      5BE2CFFD 
  82 014f C197EF52 		.ascii	"\301\227\357R@\226\370`\002\006\377\327\373\026Y\326"
  82      4096F860 
  82      0206FFD7 
  82      FB1659D6 
  83 015f CB35A2F1 		.ascii	"\3135\242\361\357&Sm\236/\301\247\340\2248\263\322\232"
ARM GAS  C:\Users\Thomas\AppData\Local\Temp\ccYtJVrG.s 			page 6


  83      EF26536D 
  83      9E2FC1A7 
  83      E09438B3 
  83      D29A
  84 0171 70B3DD63 		.ascii	"p\263\335c\367\266\367\331\235m\255\221\376\336\016"
  84      F7B6F7D9 
  84      9D6DAD91 
  84      FEDE0E
  85 0180 3BDCD21A 		.ascii	";\334\322\032i\254\013\267t\365\264\325\327t\210\325"
  85      69AC0BB7 
  85      74F5B4D5 
  85      D77488D5 
  86 0190 1DE9B47F 		.ascii	"\035\351\264\177\000\332\271\267\002"
  86      00DAB9B7 
  86      02
  87              		.text
  88              		.section	.gnu.lto_Pin_7_Read.bdc407a7,"",%progbits
  89 0000 789C654F 		.ascii	"x\234eO;HBa\024>\337\177\357U\311\206h\012\247\242A"
  89      3B484261 
  89      143EDF7F 
  89      EF55C986 
  89      680AA7A2 
  90 0015 02718BA0 		.ascii	"\002q\213\240\306\206V\311U\220\260;\264(H\315^\315"
  90      C68656C9 
  90      5590B03B 
  90      B42848CD 
  90      5ECD
  91 0027 EC31F518 		.ascii	"\3541\365\030\243\206\242w\326\320d\020Ds\017\302\241"
  91      A386A277 
  91      D6D06410 
  91      44730FC2 
  91      A1
  92 0038 90B82D0A 		.ascii	"\220\270-\012\011\015\211\366p(;\307\333\326\017\377"
  92      090D89F6 
  92      70283BC7 
  92      DBD60FFF 
  93 0048 77FE73CE 		.ascii	"w\376s\316w\276\357?\032\375?>\276\343 \352\347\010"
  93      77BEEF3F 
  93      1AFD3F3E 
  93      BEE320EA 
  93      E708
  94 005a 8DA0966F 		.ascii	"\215\240\226o\211\322\036\005\310\203@)\205\024\252"
  94      89D21E05 
  94      C8834029 
  94      8514AA
  95 0069 AAA6705D 		.ascii	"\252\246p]\370)\302\277cY\231\267\325\213'\357\\OS\021"
  95      F829C2BF 
  95      635999B7 
  95      D58B27EF 
  95      5C4F5311 
  96 007d D51521E0 		.ascii	"\325\025!\340\303\200\350`\017~bb-\373\375\340ue-\313"
  96      C380E860 
  96      0F7E6262 
  96      2DFBFDE0 
  96      75652DCB 
  97 0091 EA923E37 		.ascii	"\352\222>7\366\341b\017:\355\276\264Z\255\263\367\225"
  97      F6E1620F 
ARM GAS  C:\Users\Thomas\AppData\Local\Temp\ccYtJVrG.s 			page 7


  97      3AEDBEB4 
  97      5AADB3F7 
  97      95
  98 00a2 8511B841 		.ascii	"\205\021\270AM\305\216\014:\2032\004\\$\232Tf\020\373"
  98      4DC58E0C 
  98      3A833204 
  98      5C249A54 
  98      6610FB
  99 00b5 8A5212B5 		.ascii	"\212R\022\265\022\256>\226\354\315a\321\371T\032[\354"
  99      12AE3E96 
  99      ECCD61D1 
  99      F9541A5B 
  99      EC
 100 00c6 AEE5B73A 		.ascii	"\256\345\267:^T\223\223\355\264\245\213\353s\371\356"
 100      5E549393 
 100      EDB4A58B 
 100      EB73F9EE 
 101 00d6 DED32E91 		.ascii	"\336\323.\221\244\225\352b\035\033XOg\321T:\016\340"
 101      A495EA62 
 101      1D1B584F 
 101      67D1543A 
 101      0EE0
 102 00e8 C321F897 		.ascii	"\303!\370\2278\342*\2250\373\225k(G\020\216f\341\244"
 102      38E22A95 
 102      30FB956B 
 102      2847108E 
 102      66E1A4
 103 00fb 71E31501 		.ascii	"q\343\025\001\364\022\216\231[B\306v;\024\235Y2d\347"
 103      F4128E99 
 103      5B42C676 
 103      3B149D59 
 103      3264E7
 104 010e CABA5331 		.ascii	"\312\272S1\270\310C\257\305\365\363N\0312\014B\336\031"
 104      B8C843AF 
 104      C5F5F34E 
 104      19320C42 
 104      DE19
 105 0120 7A9C0F38 		.ascii	"z\234\0178\034\241\221\015\374e\355\315 \033\361~}\301"
 105      1CA1910D 
 105      FC65EDCD 
 105      201BF17E 
 105      7DC1
 106 0132 C8981937 		.ascii	"\310\230\0317\223\023\323\346d4\234\230I\306\314H(\234"
 106      9313D3E6 
 106      64349C98 
 106      49C6CC48 
 106      289C
 107 0144 181D8C84 		.ascii	"\030\035\214\204\246\342\321\241`\214~\001\352\200\200"
 107      A6E2D1A1 
 107      608C7E01 
 107      EA8080
 108 0153 AE       		.ascii	"\256"
 109              		.text
 110              		.section	.gnu.lto_Pin_7_ReadDataReg.bdc407a7,"",%progbits
 111 0000 789C654F 		.ascii	"x\234eO=H\202Q\024\275\347~\237?`H4\205S\321 \205\270"
 111      3D488251 
 111      14BDE77E 
ARM GAS  C:\Users\Thomas\AppData\Local\Temp\ccYtJVrG.s 			page 8


 111      9F3F6048 
 111      348553D1 
 112 0017 45D0DAD0 		.ascii	"E\320\332\320*\271\012\022\366\015-\012R\263\237f\026"
 112      2AB90A12 
 112      F60D2D0A 
 112      52B39F66 
 112      16
 113 0028 4DD12AB6 		.ascii	"M\321*\266T\224\375\016\021dCTs%\351PH\331bP\320\240"
 113      5494FD0E 
 113      11644354 
 113      7325E950 
 113      48D96250 
 114 003e 249543DA 		.ascii	"$\225C\332}~m=x\347\276{\357\271\347\274\253\321\377"
 114      7D7E6D3D 
 114      78E7BE7B 
 114      EFB9E7BC 
 114      ABD1FF
 115 0051 E3913B05 		.ascii	"\343\221;\005\242!\211\320\010\274zK\224t2\240\036\004"
 115      A22189D0 
 115      08BC7A4B 
 115      947432A0 
 115      1E04
 116 0063 4A301278 		.ascii	"J0\022x\343\006\343\272\320.\303\273e\232\251z\251\374"
 116      E306E3BA 
 116      D02EC3BB 
 116      659AA97A 
 116      A9FC
 117 0075 E85AEC6F 		.ascii	"\350Z\354o1\321\007\023|\036\014+\035l\303KBl\244\177"
 117      31D10713 
 117      7C1E0C2B 
 117      1D6CC34B 
 117      426CA47F 
 118 0089 EE5DF6B4 		.ascii	"\356]\366\264i\232\275\252/\215\035\330\305\203\216"
 118      699ABDAA 
 118      2F8D1DD8 
 118      C5838E
 119 0098 FA2ECC4E 		.ascii	"\372.\314N\347\270\270\266<\302\016P\213\305Q@\027`"
 119      E7B8B8B6 
 119      3CC20E50 
 119      8BC55140 
 119      1760
 120 00aa 9B023B29 		.ascii	"\233\002;)M\252\011(\373\027f\025\265\012\256>W\332"
 120      4DAA0928 
 120      FB176615 
 120      B50AAE3E 
 120      57DA
 121 00bc F971A5F3 		.ascii	"\371q\245\363\305\232X\\>\235n\272_\271\305Z}#i\352"
 121      C59A585C 
 121      3E9D6EBA 
 121      5FB9C55A 
 121      7D2369EA 
 122 00d0 CAF5B956 		.ascii	"\312\365\271V\274svK\244\322\365\363\223\222;\207l2"
 122      BC73764B 
 122      A4D2F5F3 
 122      93923B87 
 122      6C32
 123 00e2 8D16EBC8 		.ascii	"\215\026\353\310\303\203]\310/\261\207\034\250\202\205"
ARM GAS  C:\Users\Thomas\AppData\Local\Temp\ccYtJVrG.s 			page 9


 123      C3835DC8 
 123      2FB1871C 
 123      A88285
 124 00f1 EF4C932D 		.ascii	"\357L\223-AX\232\205\303\346\215K\011`\200\260/\334"
 124      41589A85 
 124      C3E68D4B 
 124      096080B0 
 124      2FDC
 125 0103 0A525587 		.ascii	"\012RU\207E\321\205\245\206\252\231\232nUlR\224\241"
 125      45D185A5 
 125      86AA999A 
 125      6E556C52 
 125      94A1
 126 0115 F772F6AC 		.ascii	"\367r\366\254G\015\331l\204\003k\350a\311gq\024\215"
 126      470DD96C 
 126      84036BE8 
 126      61C96771 
 126      148D
 127 0127 AAC05FD6 		.ascii	"\252\300_\326\335\014j#\331o\320\037\2324\242F|z\316"
 127      DD0C6A23 
 127      D96FD01F 
 127      9A34A246 
 127      7C7ACE
 128 013a 98090763 		.ascii	"\230\011\007c\363\361\210\021\012\004c\023\243\241\300"
 128      F3F18811 
 128      0A046313 
 128      A3A1C0
 129 0149 6C343CE6 		.ascii	"l4<\346\217\320/q\210\201\025"
 129      8FD02F71 
 129      888115
 130              		.text
 131              		.section	.gnu.lto_.symbol_nodes.bdc407a7,"",%progbits
 132 0000 789C6366 		.ascii	"x\234cf``pb\200\002&\206z\006\206\011\347\030\030\352"
 132      60607062 
 132      80022686 
 132      7A068609 
 132      E71818EA 
 133 0014 EB19E62D 		.ascii	"\353\031\346-\340``b\254gD\3413\3253\241\360\231\353"
 133      E0606062 
 133      AC6744E1 
 133      33D533A1 
 133      F099EB
 134 0027 9991F90C 		.ascii	"\231\221\371\014\0003\356\020\336"
 134      0033EE10 
 134      DE
 135              		.text
 136              		.section	.gnu.lto_.refs.bdc407a7,"",%progbits
 137 0000 789C6366 		.ascii	"x\234cf```d\200\002\000\000=\000\005"
 137      60606064 
 137      80020000 
 137      3D0005
 138              		.text
 139              		.section	.gnu.lto_.decls.bdc407a7,"",%progbits
 140 0000 789C8D92 		.ascii	"x\234\215\222]H\024Q\024\307\357\231;\273\3528i\365"
 140      5D481451 
 140      14C7EF99 
 140      3BBBEA38 
ARM GAS  C:\Users\Thomas\AppData\Local\Temp\ccYtJVrG.s 			page 10


 140      69F5
 141 0012 A0B1046D 		.ascii	"\240\261\004m\004B \373\022\221o\025\012JP,J\364\240"
 141      044220FB 
 141      12916F15 
 141      0A4A502C 
 141      4AF4A0
 142 0025 208B0EB6 		.ascii	" \213\016\266/\032\333\032\370\344\365#\374(\312$i\025"
 142      2F1ADB1A 
 142      F8E4F523 
 142      FC28CA24 
 142      6915
 143 0037 2CC1AFB2 		.ascii	",\301\257\262\264\325U\327U\323Yz\221\302\352\301\004"
 143      B4D555D7 
 143      55D3597A 
 143      91C2EAC1 
 143      04
 144 0048 7DCAA430 		.ascii	"}\312\2440HX\305\302(\230\316\334\331m\007[\301\003"
 144      4858C5C2 
 144      2898CEDC 
 144      D96D075B 
 144      C103
 145 005a 67E69E99 		.ascii	"g\346\236\231\363\373\237s\357=\224\020b\007B4\264\213"
 145      F3FB9F73 
 145      EF3D9410 
 145      62074234 
 145      B48B
 146 006c 94900E8C 		.ascii	"\224\220\016\214-\350N\0227\021}\014}\034=\210\036\""
 146      2DE84E12 
 146      37117D0C 
 146      7D1C3D88 
 146      1E22
 147 007e FFDB9889 		.ascii	"\377\333\230\211\033F\317@\237C\237\215\376\207h\316"
 147      1B46CF40 
 147      9F439F8D 
 147      FE8768CE 
 148 008e 5ED335AD 		.ascii	"^\3235\255{85\001;\236\200\015F\331\030W`\342.\231\330"
 148      7B383501 
 148      3B9E800D 
 148      46D91857 
 148      60E22E99 
 149 00a3 60023674 		.ascii	"`\0026t@6\321^\267\004\010\215\354,\246n\010\220&\331"
 149      4036D15E 
 149      B704088D 
 149      EC2CA66E 
 149      089026D9 
 150 00b7 F570BA7D 		.ascii	"\365p\272}\301g\305P\226D=\\\236ojJ\246\002\350\353"
 150      C167C550 
 150      96443D5C 
 150      9E6F6A4A 
 150      A602E8EB 
 151 00cb 5EDFDA92 		.ascii	"^\337\332\222\224=\304\030kf\252\012q\211\272\201\231"
 151      943DC418 
 151      6B66AA0A 
 151      7189BA81 
 151      99
 152 00dc BB49C864 		.ascii	"\273I\310dH<\274\367\266+Ly\250\351\234\260\262\362"
 152      483CBCF7 
ARM GAS  C:\Users\Thomas\AppData\Local\Temp\ccYtJVrG.s 			page 11


 152      B62B4C79 
 152      A8E99CB0 
 152      B2F2
 153 00ee F0170529 		.ascii	"\360\027\005)\253\231\261z\026ig\364\030\201l\033\234"
 153      AB99B17A 
 153      166967F4 
 153      18816C1B 
 153      9C
 154 00ff B6111881 		.ascii	"\266\021\030\201,L\203!\310&\360\034l\360\002l\244\017"
 154      2C4C8321 
 154      C826F01C 
 154      6CF0026C 
 154      A40F
 155 0111 0B449E2C 		.ascii	"\013D\236,\255\036gL\204a\220\340\031P\236\201\333\320"
 155      AD1E674C 
 155      846190E0 
 155      19509E81 
 155      DBD0
 156 0123 2B448BB6 		.ascii	"+D\213\266\335\016\267\211\242\200\037\365\234b\336"
 156      DD0EB789 
 156      A2801FF5 
 156      9C62DE
 157 0132 ED0F6DAD 		.ascii	"\355\017m\255_\310\354@\001\326\326\300\016\213\340"
 157      5FC8EC40 
 157      01D6D6C0 
 157      0E8BE0
 158 0141 CC804194 		.ascii	"\314\200A\224}\212\262\004\374\220\211\317\227 \032"
 158      7D8AB204 
 158      FC9089CF 
 158      97201A
 159 0150 029DA391 		.ascii	"\002\235\243\221\327\351\364\014\337Z\367\367\017\277"
 159      D7E9F40C 
 159      DF5AF7F7 
 159      0FBF
 160 015e C1FE98F5 		.ascii	"\301\376\230\365\370#\332\366\212\314\026\230\252i\347"
 160      F823DAF6 
 160      8ACC1698 
 160      AA69E7
 161 016d 3902A3FF 		.ascii	"9\002\243\377\312\023}m\234\347\030\330\021\333\330"
 161      CA137D6D 
 161      9CE718D8 
 161      11DBD8
 162 017c 7C3365A1 		.ascii	"|3e\241..Q\367\245eS\340\022=\323\275VC\200\363\001"
 162      2E2E51F7 
 162      A56553E0 
 162      123DD3BD 
 162      564380F3 
 163 0191 131F88F1 		.ascii	"\023\037\210\361\343\234oi\364Ss\273\372N\342\375N\360"
 163      E39C6F69 
 163      F45373BB 
 163      FA4EE2FD 
 163      4EF0
 164 01a3 7E8B63ED 		.ascii	"~\213c\355\006v\372e\352\345\265\374\355\235\001\013"
 164      0676FA65 
 164      EAE5B5FC 
 164      ED9D010B 
 165 01b3 AFF5E9DB 		.ascii	"\257\365\351\333\272\2426\262?\232F9\000\223\246j\223"
ARM GAS  C:\Users\Thomas\AppData\Local\Temp\ccYtJVrG.s 			page 12


 165      BAA236B2 
 165      3F9A4639 
 165      0093A66A 
 165      93
 166 01c4 B16A415E 		.ascii	"\261jA^\355\375\327\016&\323Z\256\260=<\3601\335\350"
 166      EDFDD70E 
 166      26D35AAE 
 166      B03D3CF0 
 166      31DDE8
 167 01d7 B6BB3FD6 		.ascii	"\266\273?\326\255\316O\231\370\251\030\037\342<{t\247"
 167      ADCE4F99 
 167      F8A9181F 
 167      E23C7B74 
 167      A7
 168 01e8 2F993E00 		.ascii	"/\231>\000.0\361\2635tH\302+m8\300\225\342\020,\275"
 168      2E30F1B3 
 168      357448C2 
 168      2B6D38C0 
 168      95E2102C 
 169 01fd 6B5D4E31 		.ascii	"k]N1\206`/\361j\337!\330]/hd\027`\026\217e:>\0043\020"
 169      86602FF1 
 169      6ADF21D8 
 169      5D2F6864 
 169      1760168F 
 170 0217 9F8296CF 		.ascii	"\237\202\226\317]\213\262\334\252O\026\036a\312B\032"
 170      5D8BB2DC 
 170      AA4F161E 
 170      61CA421A 
 171 0227 4F8E9FE1 		.ascii	"O\216\237\341\034\310|\007\370\336\022hx0\274*\201M"
 171      1CC87C07 
 171      F8DE1268 
 171      7830BC2A 
 171      814D
 172 0239 B2F97084 		.ascii	"\262\371p\204wO\200\212J\315\372\361G\352\031\365\245"
 172      774F808A 
 172      4ACDFAF1 
 172      47EA19F5 
 172      A5
 173 024a C53A22FC 		.ascii	"\305:\"\374\007\2010\312\314\243\214\236\255nhZ\255"
 173      078130CA 
 173      CCA38C9E 
 173      AD6E685A 
 173      AD
 174 025b 66D8FD24 		.ascii	"f\330\375$\236\300\037\226jw\2457\307\232\177\345\252"
 174      9EC01F96 
 174      6A77A537 
 174      C79A7FE5 
 174      AA
 175 026c 3D979C72 		.ascii	"=\227\234r\224\344+\225\212\307\345U\312K\213\252\252"
 175      94E42B95 
 175      8AC7E555 
 175      CA4B8BAA 
 175      AA
 176 027d 3D654A89 		.ascii	"=eJ\211\263\250*\367lIY\215\267\346\206r\323q\235\244"
 176      B3A82AF7 
 176      6C49598D 
 176      B7E68672 
ARM GAS  C:\Users\Thomas\AppData\Local\Temp\ccYtJVrG.s 			page 13


 176      D3719DA4 
 177 0291 3ADD95A5 		.ascii	":\335\225\245\347J\257y\334^\345\344\276\371<\311QF"
 177      E74AAF79 
 177      DC5EE5E4 
 177      BEF93CC9 
 177      5146
 178 02a3 8E1AD945 		.ascii	"\216\032\331E\2127\317\343\276\245\\\256*W$\343S\241"
 178      8A37CFE3 
 178      BEA55CAE 
 178      2A5724E3 
 178      53A1
 179 02b5 E22A3F12 		.ascii	"\342*?\022_\346\271\274\256B\245B\364(\0259\177\001"
 179      5FE6B9BC 
 179      AE42A542 
 179      F4281539 
 179      7F01
 180 02c7 4CD54979 		.ascii	"L\325Iy"
 181              		.text
 182              		.section	.gnu.lto_.symtab.bdc407a7,"",%progbits
 183 0000 50696E5F 		.ascii	"Pin_7_Write\000\000\000\000\000\000\000\000\000\000"
 183      375F5772 
 183      69746500 
 183      00000000 
 183      00000000 
 184 0015 0000B200 		.ascii	"\000\000\262\000\000\000Pin_7_SetDriveMode\000\000\000"
 184      00005069 
 184      6E5F375F 
 184      53657444 
 184      72697665 
 185 0030 00000000 		.ascii	"\000\000\000\000\000\000\000\000\000\264\000\000\000"
 185      00000000 
 185      00B40000 
 185      00
 186 003d 50696E5F 		.ascii	"Pin_7_Read\000\000\000\000\000\000\000\000\000\000\000"
 186      375F5265 
 186      61640000 
 186      00000000 
 186      00000000 
 187 0052 00B70000 		.ascii	"\000\267\000\000\000Pin_7_ReadDataReg\000\000\000\000"
 187      0050696E 
 187      5F375F52 
 187      65616444 
 187      61746152 
 188 006c 00000000 		.ascii	"\000\000\000\000\000\000\000\000\271\000\000\000"
 188      00000000 
 188      B9000000 
 189              		.text
 190              		.section	.gnu.lto_.opts,"",%progbits
 191 0000 272D666E 		.ascii	"'-fno-trapv' '-mcpu=cortex-m3' '-mthumb' '-g' '-O3'"
 191      6F2D7472 
 191      61707627 
 191      20272D6D 
 191      6370753D 
 192 0033 20272D66 		.ascii	" '-ffunction-sections' '-finline-functions' '-flto'"
 192      66756E63 
 192      74696F6E 
 192      2D736563 
ARM GAS  C:\Users\Thomas\AppData\Local\Temp\ccYtJVrG.s 			page 14


 192      74696F6E 
 193 0066 20272D66 		.ascii	" '-ffat-lto-objects'\000"
 193      6661742D 
 193      6C746F2D 
 193      6F626A65 
 193      63747327 
 194              		.text
 195              		.cfi_sections	.debug_frame
 196              		.section	.text.Pin_7_Write,"ax",%progbits
 197              		.align	2
 198              		.global	Pin_7_Write
 199              		.thumb
 200              		.thumb_func
 201              		.type	Pin_7_Write, %function
 202              	Pin_7_Write:
 203              	.LFB0:
 204              		.file 1 ".\\Generated_Source\\PSoC5\\Pin_7.c"
   1:.\Generated_Source\PSoC5/Pin_7.c **** /*******************************************************************************
   2:.\Generated_Source\PSoC5/Pin_7.c **** * File Name: Pin_7.c  
   3:.\Generated_Source\PSoC5/Pin_7.c **** * Version 2.20
   4:.\Generated_Source\PSoC5/Pin_7.c **** *
   5:.\Generated_Source\PSoC5/Pin_7.c **** * Description:
   6:.\Generated_Source\PSoC5/Pin_7.c **** *  This file contains API to enable firmware control of a Pins component.
   7:.\Generated_Source\PSoC5/Pin_7.c **** *
   8:.\Generated_Source\PSoC5/Pin_7.c **** * Note:
   9:.\Generated_Source\PSoC5/Pin_7.c **** *
  10:.\Generated_Source\PSoC5/Pin_7.c **** ********************************************************************************
  11:.\Generated_Source\PSoC5/Pin_7.c **** * Copyright 2008-2015, Cypress Semiconductor Corporation.  All rights reserved.
  12:.\Generated_Source\PSoC5/Pin_7.c **** * You may use this file only in accordance with the license, terms, conditions, 
  13:.\Generated_Source\PSoC5/Pin_7.c **** * disclaimers, and limitations in the end user license agreement accompanying 
  14:.\Generated_Source\PSoC5/Pin_7.c **** * the software package with which this file was provided.
  15:.\Generated_Source\PSoC5/Pin_7.c **** *******************************************************************************/
  16:.\Generated_Source\PSoC5/Pin_7.c **** 
  17:.\Generated_Source\PSoC5/Pin_7.c **** #include "cytypes.h"
  18:.\Generated_Source\PSoC5/Pin_7.c **** #include "Pin_7.h"
  19:.\Generated_Source\PSoC5/Pin_7.c **** 
  20:.\Generated_Source\PSoC5/Pin_7.c **** /* APIs are not generated for P15[7:6] on PSoC 5 */
  21:.\Generated_Source\PSoC5/Pin_7.c **** #if !(CY_PSOC5A &&\
  22:.\Generated_Source\PSoC5/Pin_7.c **** 	 Pin_7__PORT == 15 && ((Pin_7__MASK & 0xC0) != 0))
  23:.\Generated_Source\PSoC5/Pin_7.c **** 
  24:.\Generated_Source\PSoC5/Pin_7.c **** 
  25:.\Generated_Source\PSoC5/Pin_7.c **** /*******************************************************************************
  26:.\Generated_Source\PSoC5/Pin_7.c **** * Function Name: Pin_7_Write
  27:.\Generated_Source\PSoC5/Pin_7.c **** ****************************************************************************//**
  28:.\Generated_Source\PSoC5/Pin_7.c **** *
  29:.\Generated_Source\PSoC5/Pin_7.c **** * \brief Writes the value to the physical port (data output register), masking
  30:.\Generated_Source\PSoC5/Pin_7.c **** *  and shifting the bits appropriately. 
  31:.\Generated_Source\PSoC5/Pin_7.c **** *
  32:.\Generated_Source\PSoC5/Pin_7.c **** * The data output register controls the signal applied to the physical pin in 
  33:.\Generated_Source\PSoC5/Pin_7.c **** * conjunction with the drive mode parameter. This function avoids changing 
  34:.\Generated_Source\PSoC5/Pin_7.c **** * other bits in the port by using the appropriate method (read-modify-write or
  35:.\Generated_Source\PSoC5/Pin_7.c **** * bit banding).
  36:.\Generated_Source\PSoC5/Pin_7.c **** *
  37:.\Generated_Source\PSoC5/Pin_7.c **** * <b>Note</b> This function should not be used on a hardware digital output pin 
  38:.\Generated_Source\PSoC5/Pin_7.c **** * as it is driven by the hardware signal attached to it.
  39:.\Generated_Source\PSoC5/Pin_7.c **** *
  40:.\Generated_Source\PSoC5/Pin_7.c **** * \param value
ARM GAS  C:\Users\Thomas\AppData\Local\Temp\ccYtJVrG.s 			page 15


  41:.\Generated_Source\PSoC5/Pin_7.c **** *  Value to write to the component instance.
  42:.\Generated_Source\PSoC5/Pin_7.c **** *
  43:.\Generated_Source\PSoC5/Pin_7.c **** * \return 
  44:.\Generated_Source\PSoC5/Pin_7.c **** *  None 
  45:.\Generated_Source\PSoC5/Pin_7.c **** *
  46:.\Generated_Source\PSoC5/Pin_7.c **** * \sideeffect
  47:.\Generated_Source\PSoC5/Pin_7.c **** *  If you use read-modify-write operations that are not atomic; the Interrupt 
  48:.\Generated_Source\PSoC5/Pin_7.c **** *  Service Routines (ISR) can cause corruption of this function. An ISR that 
  49:.\Generated_Source\PSoC5/Pin_7.c **** *  interrupts this function and performs writes to the Pins component data 
  50:.\Generated_Source\PSoC5/Pin_7.c **** *  register can cause corrupted port data. To avoid this issue, you should 
  51:.\Generated_Source\PSoC5/Pin_7.c **** *  either use the Per-Pin APIs (primary method) or disable interrupts around 
  52:.\Generated_Source\PSoC5/Pin_7.c **** *  this function.
  53:.\Generated_Source\PSoC5/Pin_7.c **** *
  54:.\Generated_Source\PSoC5/Pin_7.c **** * \funcusage
  55:.\Generated_Source\PSoC5/Pin_7.c **** *  \snippet Pin_7_SUT.c usage_Pin_7_Write
  56:.\Generated_Source\PSoC5/Pin_7.c **** *******************************************************************************/
  57:.\Generated_Source\PSoC5/Pin_7.c **** void Pin_7_Write(uint8 value)
  58:.\Generated_Source\PSoC5/Pin_7.c **** {
 205              		.loc 1 58 0
 206              		.cfi_startproc
 207              		@ args = 0, pretend = 0, frame = 0
 208              		@ frame_needed = 0, uses_anonymous_args = 0
 209              		@ link register save eliminated.
 210              	.LVL0:
  59:.\Generated_Source\PSoC5/Pin_7.c ****     uint8 staticBits = (Pin_7_DR & (uint8)(~Pin_7_MASK));
 211              		.loc 1 59 0
 212 0000 044A     		ldr	r2, .L2
  60:.\Generated_Source\PSoC5/Pin_7.c ****     Pin_7_DR = staticBits | ((uint8)(value << Pin_7_SHIFT) & Pin_7_MASK);
 213              		.loc 1 60 0
 214 0002 4001     		lsls	r0, r0, #5
 215              	.LVL1:
  59:.\Generated_Source\PSoC5/Pin_7.c ****     uint8 staticBits = (Pin_7_DR & (uint8)(~Pin_7_MASK));
 216              		.loc 1 59 0
 217 0004 1378     		ldrb	r3, [r2]	@ zero_extendqisi2
 218              	.LVL2:
 219              		.loc 1 60 0
 220 0006 00F02000 		and	r0, r0, #32
  59:.\Generated_Source\PSoC5/Pin_7.c ****     uint8 staticBits = (Pin_7_DR & (uint8)(~Pin_7_MASK));
 221              		.loc 1 59 0
 222 000a 03F0DF03 		and	r3, r3, #223
 223              	.LVL3:
 224              		.loc 1 60 0
 225 000e 1843     		orrs	r0, r0, r3
 226 0010 1070     		strb	r0, [r2]
 227 0012 7047     		bx	lr
 228              	.L3:
 229              		.align	2
 230              	.L2:
 231 0014 F0510040 		.word	1073762800
 232              		.cfi_endproc
 233              	.LFE0:
 234              		.size	Pin_7_Write, .-Pin_7_Write
 235              		.section	.text.Pin_7_SetDriveMode,"ax",%progbits
 236              		.align	2
 237              		.global	Pin_7_SetDriveMode
 238              		.thumb
 239              		.thumb_func
ARM GAS  C:\Users\Thomas\AppData\Local\Temp\ccYtJVrG.s 			page 16


 240              		.type	Pin_7_SetDriveMode, %function
 241              	Pin_7_SetDriveMode:
 242              	.LFB1:
  61:.\Generated_Source\PSoC5/Pin_7.c **** }
  62:.\Generated_Source\PSoC5/Pin_7.c **** 
  63:.\Generated_Source\PSoC5/Pin_7.c **** 
  64:.\Generated_Source\PSoC5/Pin_7.c **** /*******************************************************************************
  65:.\Generated_Source\PSoC5/Pin_7.c **** * Function Name: Pin_7_SetDriveMode
  66:.\Generated_Source\PSoC5/Pin_7.c **** ****************************************************************************//**
  67:.\Generated_Source\PSoC5/Pin_7.c **** *
  68:.\Generated_Source\PSoC5/Pin_7.c **** * \brief Sets the drive mode for each of the Pins component's pins.
  69:.\Generated_Source\PSoC5/Pin_7.c **** * 
  70:.\Generated_Source\PSoC5/Pin_7.c **** * <b>Note</b> This affects all pins in the Pins component instance. Use the
  71:.\Generated_Source\PSoC5/Pin_7.c **** * Per-Pin APIs if you wish to control individual pin's drive modes.
  72:.\Generated_Source\PSoC5/Pin_7.c **** *
  73:.\Generated_Source\PSoC5/Pin_7.c **** * \param mode
  74:.\Generated_Source\PSoC5/Pin_7.c **** *  Mode for the selected signals. Valid options are documented in 
  75:.\Generated_Source\PSoC5/Pin_7.c **** *  \ref driveMode.
  76:.\Generated_Source\PSoC5/Pin_7.c **** *
  77:.\Generated_Source\PSoC5/Pin_7.c **** * \return
  78:.\Generated_Source\PSoC5/Pin_7.c **** *  None
  79:.\Generated_Source\PSoC5/Pin_7.c **** *
  80:.\Generated_Source\PSoC5/Pin_7.c **** * \sideeffect
  81:.\Generated_Source\PSoC5/Pin_7.c **** *  If you use read-modify-write operations that are not atomic, the ISR can
  82:.\Generated_Source\PSoC5/Pin_7.c **** *  cause corruption of this function. An ISR that interrupts this function 
  83:.\Generated_Source\PSoC5/Pin_7.c **** *  and performs writes to the Pins component Drive Mode registers can cause 
  84:.\Generated_Source\PSoC5/Pin_7.c **** *  corrupted port data. To avoid this issue, you should either use the Per-Pin
  85:.\Generated_Source\PSoC5/Pin_7.c **** *  APIs (primary method) or disable interrupts around this function.
  86:.\Generated_Source\PSoC5/Pin_7.c **** *
  87:.\Generated_Source\PSoC5/Pin_7.c **** * \funcusage
  88:.\Generated_Source\PSoC5/Pin_7.c **** *  \snippet Pin_7_SUT.c usage_Pin_7_SetDriveMode
  89:.\Generated_Source\PSoC5/Pin_7.c **** *******************************************************************************/
  90:.\Generated_Source\PSoC5/Pin_7.c **** void Pin_7_SetDriveMode(uint8 mode)
  91:.\Generated_Source\PSoC5/Pin_7.c **** {
 243              		.loc 1 91 0
 244              		.cfi_startproc
 245              		@ args = 0, pretend = 0, frame = 0
 246              		@ frame_needed = 0, uses_anonymous_args = 0
 247              		@ link register save eliminated.
 248              	.LVL4:
  92:.\Generated_Source\PSoC5/Pin_7.c **** 	CyPins_SetPinDriveMode(Pin_7_0, mode);
 249              		.loc 1 92 0
 250 0000 044A     		ldr	r2, .L5
 251 0002 00F00E00 		and	r0, r0, #14
 252              	.LVL5:
 253 0006 1378     		ldrb	r3, [r2]	@ zero_extendqisi2
 254 0008 03F0F103 		and	r3, r3, #241
 255 000c 1843     		orrs	r0, r0, r3
 256 000e 1070     		strb	r0, [r2]
 257 0010 7047     		bx	lr
 258              	.L6:
 259 0012 00BF     		.align	2
 260              	.L5:
 261 0014 7D500040 		.word	1073762429
 262              		.cfi_endproc
 263              	.LFE1:
 264              		.size	Pin_7_SetDriveMode, .-Pin_7_SetDriveMode
ARM GAS  C:\Users\Thomas\AppData\Local\Temp\ccYtJVrG.s 			page 17


 265              		.section	.text.Pin_7_Read,"ax",%progbits
 266              		.align	2
 267              		.global	Pin_7_Read
 268              		.thumb
 269              		.thumb_func
 270              		.type	Pin_7_Read, %function
 271              	Pin_7_Read:
 272              	.LFB2:
  93:.\Generated_Source\PSoC5/Pin_7.c **** }
  94:.\Generated_Source\PSoC5/Pin_7.c **** 
  95:.\Generated_Source\PSoC5/Pin_7.c **** 
  96:.\Generated_Source\PSoC5/Pin_7.c **** /*******************************************************************************
  97:.\Generated_Source\PSoC5/Pin_7.c **** * Function Name: Pin_7_Read
  98:.\Generated_Source\PSoC5/Pin_7.c **** ****************************************************************************//**
  99:.\Generated_Source\PSoC5/Pin_7.c **** *
 100:.\Generated_Source\PSoC5/Pin_7.c **** * \brief Reads the associated physical port (pin status register) and masks 
 101:.\Generated_Source\PSoC5/Pin_7.c **** *  the required bits according to the width and bit position of the component
 102:.\Generated_Source\PSoC5/Pin_7.c **** *  instance. 
 103:.\Generated_Source\PSoC5/Pin_7.c **** *
 104:.\Generated_Source\PSoC5/Pin_7.c **** * The pin's status register returns the current logic level present on the 
 105:.\Generated_Source\PSoC5/Pin_7.c **** * physical pin.
 106:.\Generated_Source\PSoC5/Pin_7.c **** *
 107:.\Generated_Source\PSoC5/Pin_7.c **** * \return 
 108:.\Generated_Source\PSoC5/Pin_7.c **** *  The current value for the pins in the component as a right justified number.
 109:.\Generated_Source\PSoC5/Pin_7.c **** *
 110:.\Generated_Source\PSoC5/Pin_7.c **** * \funcusage
 111:.\Generated_Source\PSoC5/Pin_7.c **** *  \snippet Pin_7_SUT.c usage_Pin_7_Read  
 112:.\Generated_Source\PSoC5/Pin_7.c **** *******************************************************************************/
 113:.\Generated_Source\PSoC5/Pin_7.c **** uint8 Pin_7_Read(void)
 114:.\Generated_Source\PSoC5/Pin_7.c **** {
 273              		.loc 1 114 0
 274              		.cfi_startproc
 275              		@ args = 0, pretend = 0, frame = 0
 276              		@ frame_needed = 0, uses_anonymous_args = 0
 277              		@ link register save eliminated.
 115:.\Generated_Source\PSoC5/Pin_7.c ****     return (Pin_7_PS & Pin_7_MASK) >> Pin_7_SHIFT;
 278              		.loc 1 115 0
 279 0000 024B     		ldr	r3, .L8
 280 0002 1878     		ldrb	r0, [r3]	@ zero_extendqisi2
 116:.\Generated_Source\PSoC5/Pin_7.c **** }
 281              		.loc 1 116 0
 282 0004 C0F34010 		ubfx	r0, r0, #5, #1
 283 0008 7047     		bx	lr
 284              	.L9:
 285 000a 00BF     		.align	2
 286              	.L8:
 287 000c F1510040 		.word	1073762801
 288              		.cfi_endproc
 289              	.LFE2:
 290              		.size	Pin_7_Read, .-Pin_7_Read
 291              		.section	.text.Pin_7_ReadDataReg,"ax",%progbits
 292              		.align	2
 293              		.global	Pin_7_ReadDataReg
 294              		.thumb
 295              		.thumb_func
 296              		.type	Pin_7_ReadDataReg, %function
 297              	Pin_7_ReadDataReg:
ARM GAS  C:\Users\Thomas\AppData\Local\Temp\ccYtJVrG.s 			page 18


 298              	.LFB3:
 117:.\Generated_Source\PSoC5/Pin_7.c **** 
 118:.\Generated_Source\PSoC5/Pin_7.c **** 
 119:.\Generated_Source\PSoC5/Pin_7.c **** /*******************************************************************************
 120:.\Generated_Source\PSoC5/Pin_7.c **** * Function Name: Pin_7_ReadDataReg
 121:.\Generated_Source\PSoC5/Pin_7.c **** ****************************************************************************//**
 122:.\Generated_Source\PSoC5/Pin_7.c **** *
 123:.\Generated_Source\PSoC5/Pin_7.c **** * \brief Reads the associated physical port's data output register and masks 
 124:.\Generated_Source\PSoC5/Pin_7.c **** *  the correct bits according to the width and bit position of the component 
 125:.\Generated_Source\PSoC5/Pin_7.c **** *  instance. 
 126:.\Generated_Source\PSoC5/Pin_7.c **** *
 127:.\Generated_Source\PSoC5/Pin_7.c **** * The data output register controls the signal applied to the physical pin in 
 128:.\Generated_Source\PSoC5/Pin_7.c **** * conjunction with the drive mode parameter. This is not the same as the 
 129:.\Generated_Source\PSoC5/Pin_7.c **** * preferred Pin_7_Read() API because the 
 130:.\Generated_Source\PSoC5/Pin_7.c **** * Pin_7_ReadDataReg() reads the data register instead of the status 
 131:.\Generated_Source\PSoC5/Pin_7.c **** * register. For output pins this is a useful function to determine the value 
 132:.\Generated_Source\PSoC5/Pin_7.c **** * just written to the pin.
 133:.\Generated_Source\PSoC5/Pin_7.c **** *
 134:.\Generated_Source\PSoC5/Pin_7.c **** * \return 
 135:.\Generated_Source\PSoC5/Pin_7.c **** *  The current value of the data register masked and shifted into a right 
 136:.\Generated_Source\PSoC5/Pin_7.c **** *  justified number for the component instance.
 137:.\Generated_Source\PSoC5/Pin_7.c **** *
 138:.\Generated_Source\PSoC5/Pin_7.c **** * \funcusage
 139:.\Generated_Source\PSoC5/Pin_7.c **** *  \snippet Pin_7_SUT.c usage_Pin_7_ReadDataReg 
 140:.\Generated_Source\PSoC5/Pin_7.c **** *******************************************************************************/
 141:.\Generated_Source\PSoC5/Pin_7.c **** uint8 Pin_7_ReadDataReg(void)
 142:.\Generated_Source\PSoC5/Pin_7.c **** {
 299              		.loc 1 142 0
 300              		.cfi_startproc
 301              		@ args = 0, pretend = 0, frame = 0
 302              		@ frame_needed = 0, uses_anonymous_args = 0
 303              		@ link register save eliminated.
 143:.\Generated_Source\PSoC5/Pin_7.c ****     return (Pin_7_DR & Pin_7_MASK) >> Pin_7_SHIFT;
 304              		.loc 1 143 0
 305 0000 024B     		ldr	r3, .L11
 306 0002 1878     		ldrb	r0, [r3]	@ zero_extendqisi2
 144:.\Generated_Source\PSoC5/Pin_7.c **** }
 307              		.loc 1 144 0
 308 0004 C0F34010 		ubfx	r0, r0, #5, #1
 309 0008 7047     		bx	lr
 310              	.L12:
 311 000a 00BF     		.align	2
 312              	.L11:
 313 000c F0510040 		.word	1073762800
 314              		.cfi_endproc
 315              	.LFE3:
 316              		.size	Pin_7_ReadDataReg, .-Pin_7_ReadDataReg
 317              		.text
 318              	.Letext0:
 319              		.file 2 ".\\Generated_Source\\PSoC5\\cytypes.h"