ARM GAS  C:\Users\Thomas\AppData\Local\Temp\cckArUoJ.s 			page 1


   1              		.syntax unified
   2              		.cpu cortex-m3
   3              		.fpu softvfp
   4              		.eabi_attribute 20, 1
   5              		.eabi_attribute 21, 1
   6              		.eabi_attribute 23, 3
   7              		.eabi_attribute 24, 1
   8              		.eabi_attribute 25, 1
   9              		.eabi_attribute 26, 1
  10              		.eabi_attribute 30, 2
  11              		.eabi_attribute 34, 1
  12              		.eabi_attribute 18, 4
  13              		.thumb
  14              		.file	"Timer_4_PM.c"
  15              		.text
  16              	.Ltext0:
  17              		.section	.gnu.lto_.profile.be1c0ed7,"",%progbits
  18 0000 789C6366 		.ascii	"x\234cf```a\200\000F\006\001\036\000\000\240\000%"
  18      60606061 
  18      80004606 
  18      011E0000 
  18      A00025
  19              		.text
  20              		.section	.gnu.lto_.jmpfuncs.be1c0ed7,"",%progbits
  21 0000 789C6366 		.ascii	"x\234cf\300\016\370\2404\013\0203100CX\000\002]\000"
  21      C00EF8A0 
  21      340B1033 
  21      31303043 
  21      5800025D 
  22 0015 1F       		.ascii	"\037"
  23              		.text
  24              		.section	.gnu.lto_.inline.be1c0ed7,"",%progbits
  25 0000 789C6366 		.ascii	"x\234cf\300\016\374\2404\013\003\003+\013#\003\023\313"
  25      C00EFCA0 
  25      340B0303 
  25      2B0B2303 
  25      13CB
  26 0012 027906B6 		.ascii	"\002y\006\266\005\362L 1&L!fL!\026L!\006\000\022\360"
  26      05F24C20 
  26      31264C21 
  26      664C2116 
  26      4C210600 
  27 0028 06B7     		.ascii	"\006\267"
  28              		.text
  29              		.section	.gnu.lto_.pureconst.be1c0ed7,"",%progbits
  30 0000 789C6366 		.ascii	"x\234cf``\340d\200\000\026\006)&)f)\026)\000\002\321"
  30      6060E064 
  30      80001606 
  30      29262966 
  30      29162900 
  31 0016 0082     		.ascii	"\000\202"
  32              		.text
  33              		.section	.gnu.lto_Timer_4_SaveConfig.be1c0ed7,"",%progbits
  34 0000 789C654F 		.ascii	"x\234eO=HBQ\024>\337\361'\313%\032\233#\203\320\251"
  34      3D484251 
  34      143EDFF1 
  34      27CB251A 
ARM GAS  C:\Users\Thomas\AppData\Local\Temp\cckArUoJ.s 			page 2


  34      9B2383D0 
  35 0015 E68686A6 		.ascii	"\346\206\206\246@\260Q\220\26074\224 5\212\367\211C"
  35      40B05190 
  35      B0373494 
  35      20358AF7 
  35      8943
  36 0027 34943405 		.ascii	"4\2244\005e[di\012A5\004\361r,(*(p(\012\003\3332\241"
  36      655B6469 
  36      0A413504 
  36      F1722C28 
  36      2A287028 
  37 0040 7A84D9B9 		.ascii	"z\204\331\271\272\004]\270\234{\316\371\356\367\343"
  37      BA045DB8 
  37      9C7BCEF9 
  37      EEF7E3
  38 004f A0FFA75F 		.ascii	"\240\377\247_\356\030\210\206\244\302A\340\314%\221"
  38      EE188886 
  38      A4C241E0 
  38      CC2591
  39 005e E961403F 		.ascii	"\351a@?\010\224d$\361\312uF\306\312\257{}\333J\251\267"
  39      08946424 
  39      F1CA7546 
  39      C6CAAF7B 
  39      7DDB4AA9 
  40 0073 D48519B4 		.ascii	"\324\205\031\264`3Q\203;<\330\201\217\004TO7\357\275"
  40      60335183 
  40      3B3CD881 
  40      8F04544F 
  40      37EFBD
  41 0086 EEB4807A 		.ascii	"\356\264\200z;;\344\340\026~*\365Y\252\325j\024\316"
  41      3B3BE4E0 
  41      167E2AF5 
  41      59AAD56A 
  41      14CE
  42 0098 8EE064B2 		.ascii	"\216\340d\262YfU\331k\225\027f]\035\025\224?\226\357"
  42      596655D9 
  42      6B951766 
  42      5D1D1594 
  42      3F96EF
  43 00ab 0EBBF597 		.ascii	"\016\273\365\227O\326\222\247\205\233rO\215m\346\257"
  43      4FD692A7 
  43      859B724F 
  43      8D6DE6AF 
  44 00bb 735339B5 		.ascii	"sS9\265\300c\365\352\332\323\036\221n\325\311s\255+"
  44      C063F5EA 
  44      DAD31E91 
  44      6ED5C973 
  44      AD2B
  45 00cd 8B0D332D 		.ascii	"\213\0153-v\034\330E?\366 \241\220G\026TAj\355i@\363"
  45      761CD845 
  45      3FF620A1 
  45      90471654 
  45      416AED69 
  46 00e3 0974EB76 		.ascii	"\011t\353v\245\310\211o\265\244<6;\233\332\334_>g\273"
  46      A5C8896F 
  46      B5A43C36 
  46      3B9BDADC 
ARM GAS  C:\Users\Thomas\AppData\Local\Temp\cckArUoJ.s 			page 3


  46      5F3E67BB 
  47 00f7 CD99E94D 		.ascii	"\315\231\351Mh>\245Q.\024\220\300\276&\224\335Oa\365"
  47      683EA551 
  47      2E1490C0 
  47      BE2694DD 
  47      4F61F5
  48 010a C0EDCF4B 		.ascii	"\300\355\317K6k\330f7\212\002|o\347G\011~qL\0170\255"
  48      366BD866 
  48      378A027C 
  48      6FE74709 
  48      7E714C0F 
  49 0120 6397D6D3 		.ascii	"c\227\326\323\323\252\204\224\\\202\030\014\204'\214"
  49      D3AA8494 
  49      5C82180C 
  49      84278C
  50 012f 79233EBD 		.ascii	"y#>\275`\314DB\261\305x\324\010\007C\261\361\321\360"
  50      60CC4442 
  50      B1C578D4 
  50      080743B1 
  50      F1D1F0
  51 0142 D4EC9C11 		.ascii	"\324\354\234\021\217\214D\202\223\201(\375\002\212\353"
  51      8F8C4482 
  51      938128FD 
  51      028AEB
  52 0151 8150     		.ascii	"\201P"
  53              		.text
  54              		.section	.gnu.lto_Timer_4_RestoreConfig.be1c0ed7,"",%progbits
  55 0000 789C658F 		.ascii	"x\234e\217\277KBQ\024\307\317\367\250/\311%Z\002\377"
  55      BF4B4251 
  55      14C7CFF7 
  55      A82FC925 
  55      5A02FF
  56 0013 800C42A7 		.ascii	"\200\014B\247\232\032\203\232\012\241FA\302\336\320"
  56      9A1A839A 
  56      0AA14641 
  56      C2DED0
  57 0022 5082D428 		.ascii	"P\202\324(\336\027\016MeMA?\240!\2624\205\202\226 _"
  57      DE170E4D 
  57      654D413F 
  57      A021B234 
  57      85829620 
  58 0037 8E0D4936 		.ascii	"\216\015I6\004\016\005a`[\326P\2170;W\247\350\302\345"
  58      040E0561 
  58      605BD650 
  58      8F303B57 
  58      A7E8C2E5 
  59 004b DC7BCEF7 		.ascii	"\334{\316\367|?\347\270\350\377\361\313\035\003\321"
  59      7C3FE7B8 
  59      E8FFF1CB 
  59      1D03D1
  60 005a 9044B808 		.ascii	"\220D\270\010\234\271%\262\274\014\350\007\201R\214"
  60      9CB925B2 
  60      BC0CE807 
  60      81528C
  61 0069 145EB9C9 		.ascii	"\024^\271\311\310\330\271m_\340P)\365V\255Xa\033\016"
  61      C8D8B96D 
  61      5FE05029 
ARM GAS  C:\Users\Thomas\AppData\Local\Temp\cckArUoJ.s 			page 4


  61      F556AD58 
  61      611B0E
  62 007c 137D70D7 		.ascii	"\023}p\327\007G\010\220\210\232\351\326\203\317H\213"
  62      07470890 
  62      889AE9D6 
  62      83CF488B 
  63 008c A8AF5B43 		.ascii	"\250\257[C\026\206\370S\261\337V\355\366y\351:c\270"
  63      1686F853 
  63      B1DF56ED 
  63      F679E93A 
  63      63B8
  64 009e 991C965C 		.ascii	"\231\034\226\\]\352\232\362\302\254\243\253\206\325"
  64      5DEA9AF2 
  64      C2ACA3AB 
  64      86D5
  65 00ac 8B66695A 		.ascii	"\213fiZw|\262&\356\337\257\0278\371\255\326\224\327"
  65      777CB226 
  65      EEDFAF17 
  65      38F9ADD6 
  65      94D7
  66 00be 616E693B 		.ascii	"ani;\311>\325+w\336\006K\246\363\315Z\351]\354a\307"
  66      C93ED52B 
  66      77DE064B 
  66      A6F3CD5A 
  66      E95DEC61 
  67 00d3 525AE5C2 		.ascii	"RZ\345\3021\2228\201\277S\373\311o\234\031\301a\207"
  67      31923881 
  67      BF53FBC9 
  67      6F9C19C1 
  67      6187
  68 00e5 DDC889E6 		.ascii	"\335\310\211\346\2753,\362\010R\015\345\255\203\001"
  68      BD332CF2 
  68      08520DE5 
  68      AD8301
  69 00f4 8D12D955 		.ascii	"\215\022\331U\276Z\356\325\216\236\257\033K\271\377"
  69      BE5AEED5 
  69      8E9EAF1B 
  69      4BB9FF
  70 0103 403C1D23 		.ascii	"@<\035#u\371\334\350\321\220\264e\033\016\0338\205\037"
  70      75F9DCE8 
  70      D190B465 
  70      1B0E1B38 
  70      851F
  71 0115 054D4151 		.ascii	"\005MAQ\214e\\z\204eoNhG\015\251\313\202\262\223\000"
  71      8C655C7A 
  71      84656F4E 
  71      68470DA9 
  71      CB82B293 
  72 012a 07439149 		.ascii	"\007C\221Is\311L\314-\233\363\321\231\370J\"fF\3023"
  72      73C94CCC 
  72      2D9BF3D1 
  72      99F84A22 
  72      6646C233 
  73 013e F1F1D1C8 		.ascii	"\361\361\321\310\354\302\242\231\210\216D\303S\241\030"
  73      ECC2A299 
  73      888E44C3 
  73      53A118
ARM GAS  C:\Users\Thomas\AppData\Local\Temp\cckArUoJ.s 			page 5


  74 014d FD0233BB 		.ascii	"\375\0023\273\177\034"
  74      7F1C
  75              		.text
  76              		.section	.gnu.lto_Timer_4_Sleep.be1c0ed7,"",%progbits
  77 0000 789C6590 		.ascii	"x\234e\220\277/CQ\024\307\317\367\274z)]\304\324\364"
  77      BF2F4351 
  77      14C7CFF7 
  77      BC7A295D 
  77      C4D4F4
  78 0013 0F5049C3 		.ascii	"\017PI\303\304_ !\006I\223\032\2334Ro0\320\244\030\245"
  78      C45F2021 
  78      0649931A 
  78      9B34526F 
  78      30D0A418 
  79 0028 EF492565 		.ascii	"\357I%e\240\032\203\204\332Di\213\222\256\322\030\014"
  79      A01A8384 
  79      DA44698B 
  79      92AED218 
  79      0C
  80 0039 0682200C 		.ascii	"\006\202 \014,\225\260\210\037\011^\244\352\334Z\374"
  80      2C95B088 
  80      1F095EA4 
  80      EADC5AFC 
  81 0049 B8C9CDFD 		.ascii	"\270\311\315\375q>\367s\3569\032\375\037\036\231# j"
  81      713EF773 
  81      EE391AFD 
  81      1F1E9923 
  81      206A
  82 005b 91151A81 		.ascii	"\221\025\032\201\223\207D\226\223\001\265!P\214\021"
  82      93874496 
  82      9301B521 
  82      508C11
  83 006a C33D3F31 		.ascii	"\303=?1\222\245\354\202\313\273b\232\346c\252\350\236"
  83      92A5EC82 
  83      CBBB629A 
  83      E663AAE8 
  83      9E
  84 007b 74DB4CF4 		.ascii	"t\333L\364\302\337\032\254\302K\302<\305+\027.=.L\343"
  84      C2DF1AAC 
  84      C24BC23C 
  84      C52B172E 
  84      3D2E4CE3 
  85 008f 770C19E8 		.ascii	"w\014\031\350\242\247\315\246\222Y\255\356\234\315%"
  85      A2A7CDA6 
  85      9259ADEE 
  85      9CCD25
  86 009e 7C706864 		.ascii	"|phd\263\\\226\005PYn\231\325\252]a\357u\372\274X\377"
  86      B35C9605 
  86      50596E99 
  86      D5AA5D61 
  86      EF75FABC 
  87 00b4 CB53BAD8 		.ascii	"\313S\272\330\347\232\345E\236\374\311\2005\350\222"
  87      E79AE545 
  87      9EFCC980 
  87      35E892
  88 00c3 621DFA1B 		.ascii	"b\035\372\033k\022\333\315\235\3545\334\261\315\374"
  88      6B12DBCD 
ARM GAS  C:\Users\Thomas\AppData\Local\Temp\cckArUoJ.s 			page 6


  88      9DEC35DC 
  88      B1CDFC
  89 00d2 7E60990E 		.ascii	"~`\231\016\205\337\224\217\216\235\265+R\307\207\203"
  89      85DF948F 
  89      8E9DB52B 
  89      52C78783 
  90 00e2 C414A7B1 		.ascii	"\304\024\247\261h\315[N\2335d\341A\016\322\004\344\221"
  90      68CD5B4E 
  90      9B3564E1 
  90      410ED204 
  90      E491
  91 00f4 065D6122 		.ascii	"\006]a\"U\310\367(\243\300\313\2473\033<\376a&La\035"
  91      55C8F728 
  91      A3C0CBA7 
  91      331B3CFE 
  91      61264C61 
  92 0109 1555CE4F 		.ascii	"\025U\316O\243\243v\314X\361%(\243\251\250:l`\034\233"
  92      A3A376CC 
  92      58F12528 
  92      A3A9A83A 
  92      6C601C9B 
  93 011d CA28B1CF 		.ascii	"\312(\261\317\334\354\266\336\232UU\370l\326\261%\340"
  93      DCECB6DE 
  93      9A5555F8 
  93      6CD6B125 
  93      E0
  94 012e B3686AFF 		.ascii	"\263hj\377F\001\255\362m\272\206U\272\354R\025\252F"
  94      4601ADF2 
  94      6DBA8655 
  94      BAEC5215 
  94      AA46
  95 0140 96A54AE9 		.ascii	"\226\245J\351\205@\315m\301nc\330\210\366\217\032\003"
  95      8540CD6D 
  95      C16E63D8 
  95      88F68F1A 
  95      03
  96 0151 A140642C 		.ascii	"\241@d,\0326\202\376@\244\263#\33078dDC\355!\177o[\230"
  96      1A3682FE 
  96      40A4B323 
  96      D8373864 
  96      4443ED21 
  97 0169 BE003D06 		.ascii	"\276\000=\006\223\343"
  97      93E3
  98              		.text
  99              		.section	.gnu.lto_Timer_4_Wakeup.be1c0ed7,"",%progbits
 100 0000 789C6590 		.ascii	"x\234e\220\277/CQ\024\307\317\367\274zit\021\213\246"
 100      BF2F4351 
 100      14C7CFF7 
 100      BC7A6974 
 100      118BA6
 101 0013 7F805A74 		.ascii	"\177\200Zt\302?`0\221&56i\244\336`\240I1\212\367\244"
 101      C23F6030 
 101      91263536 
 101      69A4DE60 
 101      A049318A 
 102 0029 925A2831 		.ascii	"\222Z(1H\0241\210\322j\375H$\026\232.\022\003\301 \351"
 102      48143188 
ARM GAS  C:\Users\Thomas\AppData\Local\Temp\cckArUoJ.s 			page 7


 102      D26AFD48 
 102      24169A2E 
 102      1203C120 
 103 003e 80A18245 		.ascii	"\200\241\202E\224\201F\250s_\247r\223\233s\3579\337"
 103      948146A8 
 103      735FA772 
 103      939B73EF 
 103      39DF
 104 0050 F3FDDC73 		.ascii	"\363\375\334s5\372\277<\262GA\324&\021\032\201\023\347"
 104      35FABF3C 
 104      B24741D4 
 104      26111A81 
 104      13E7
 105 0062 44969301 		.ascii	"D\226\223\001u \320$c\022\317\\f$\362\351%\227w\303"
 105      7520D024 
 105      6312CF5C 
 105      6624F2E9 
 105      259777C3 
 106 0076 34CDD7AB 		.ascii	"4\315\327\253#\367\264\273\302D\357\\\263\301&\274$"
 106      23F7B4BB 
 106      C244EF5C 
 106      B3C126BC 
 106      24
 107 0087 9A72ECFB 		.ascii	"\232r\354\373\306\245\307D\323T\253!\005]\354)\327\234"
 107      C6A5C744 
 107      D354AB21 
 107      055DEC29 
 107      D79C
 108 0099 37ABD583 		.ascii	"7\253\325\203\307\371x\027\034\032UX\222%\021(\312\003"
 108      C7F97817 
 108      1C1A5558 
 108      92251128 
 108      CA03
 109 00ab B38A5A11 		.ascii	"\263\212Z\021S\207\345\223\276:\233\374\332)\333&\357"
 109      5387E593 
 109      BE3A9BFC 
 109      DA29DB26 
 109      EF
 110 00bc D2F10780 		.ascii	"\322\361\007\200-\350B\330\206\376\301\232\324V\257"
 110      2DE842D8 
 110      86FEC19A 
 110      D456AF
 111 00cb 67B33CF1 		.ascii	"g\263<\361e\306Mg\205\371[\341%{W\272\270t>\261d\354"
 111      65C64D67 
 111      85F95BE1 
 111      257B57BA 
 111      B8743EB1 
 112 00e1 6BCA8A25 		.ascii	"k\312\212%\261\202e\313T*\015iL \003\217]\373\311\314"
 112      B18265CB 
 112      542A0D69 
 112      4C20038F 
 112      5DFBC9CC 
 113 00f5 EDEBED69 		.ascii	"\355\353\355i1\277\257&Qa\007vD\372&\2156\012Y\264S"
 113      31BFAF26 
 113      51610776 
 113      44FA268D 
 113      360A59B4 
ARM GAS  C:\Users\Thomas\AppData\Local\Temp\cckArUoJ.s 			page 8


 114 010a 118585F5 		.ascii	"\021\205\205\365\026\005\225\206\343\314U\241Qy7|\236"
 114      16059586 
 114      E3CC55A1 
 114      5179377C 
 114      9E
 115 011b 59A6A30E 		.ascii	"Y\246\243\016\327`[\276\234\305gX\341\026-\301\351\310"
 115      D7605BBE 
 115      9CC56758 
 115      E1162DC1 
 115      E9C8
 116 012d C1835D85 		.ascii	"\301\203]\205\303\236X\313\273\351\026V~\257G\215\250"
 116      C39E58CB 
 116      BBE91656 
 116      7EAF478D 
 116      A8
 117 013e 3EB22463 		.ascii	">\262$c\312_\010\262\325\027\3541F\214\350\300\2301"
 117      CA5F08B2 
 117      D517EC31 
 117      468CE8C0 
 117      9831
 118 0150 180A44C6 		.ascii	"\030\012D\306\243a#\350\017D\272;\203\375C\303F4\324"
 118      A36123E8 
 118      0F44BA3B 
 118      83FD43C3 
 118      4634D4
 119 0163 11F2F7FA 		.ascii	"\021\362\367\372\302\364\013\342\340\224)"
 119      C2F40BE2 
 119      E09429
 120              		.text
 121              		.section	.gnu.lto_.symbol_nodes.be1c0ed7,"",%progbits
 122 0000 789C55C8 		.ascii	"x\234U\310A\015\000 \020\304\300\336\036$XC\325Z@\001"
 122      410D0020 
 122      10C4C0DE 
 122      1E245843 
 122      D55A4001 
 123 0014 41119AF8 		.ascii	"A\021\232\370\360\200\376\246\011tn\012\303\330`3W\243"
 123      F080FEA6 
 123      09746E0A 
 123      C3D86033 
 123      57A3
 124 0026 C2925372 		.ascii	"\302\222Sr\274[i}.\316\327\034\222.\022\022"
 124      BC5B697D 
 124      2ECED71C 
 124      922E1212 
 125              		.text
 126              		.section	.gnu.lto_.refs.be1c0ed7,"",%progbits
 127 0000 789C6366 		.ascii	"x\234cf``\020e\200\000F\006FF&F& \311\310\014b\261\000"
 127      60601065 
 127      80004606 
 127      46462646 
 127      2620C9C8 
 128 0018 590C0003 		.ascii	"Y\014\000\003\357\0002"
 128      EF0032
 129              		.text
 130              		.section	.gnu.lto_.decls.be1c0ed7,"",%progbits
 131 0000 789C9553 		.ascii	"x\234\225SKL\023Q\024}wf\300RK5\022\321\260\"\022\033"
 131      4B4C1351 
ARM GAS  C:\Users\Thomas\AppData\Local\Temp\cckArUoJ.s 			page 9


 131      147D7766 
 131      C0524B35 
 131      12D1B022 
 132 0016 35848551 		.ascii	"5\204\205Q\302N\2641.\210\246\261\020c$A\254#\022\225"
 132      C24EB431 
 132      2E88A6B1 
 132      10632441 
 132      AC231295 
 133 002a 622926EE 		.ascii	"b)&\356\036\340\007\321\370!(\004\225\324@\374 \326"
 133      1EE007D1 
 133      F8212804 
 133      95D440FC 
 133      20D6
 134 003c 8A8862AB 		.ascii	"\212\210b\253\005\225\257\342/H\254\013D6\222\350\242"
 134      0595AFE2 
 134      2F48AC0B 
 134      443692E8 
 134      A2
 135 004d C6BF22F5 		.ascii	"\306\277\"\365\276\327\231\266\240M\364%w\336\334y\347"
 135      BED799B6 
 135      A04DF425 
 135      77DEDC79 
 135      E7
 136 005e 9C7BE6DE 		.ascii	"\234{\346\336\031\221\020\262\031\010\011\340J\225\010"
 136      199110B2 
 136      190809E0 
 136      4A9508
 137 006d F981790C 		.ascii	"\371\201y\014\206\211\204\027>&-\030N\014\027F+\006"
 137      86898417 
 137      3E262D18 
 137      4E0C1746 
 137      2B06
 138 007f 52481799 		.ascii	"RH\027\231\272\030f\206\302M\304\350\301x\200\321\213"
 138      BA186686 
 138      C24DC4E8 
 138      C17880D1 
 138      8B
 139 0090 7117E3A6 		.ascii	"q\027\343\246\302s+{K\024\035\3474\235H\276\252\031"
 139      C2732B7B 
 139      4B141DE7 
 139      349D48BE 
 139      AA19
 140 00a2 A9E38CA2 		.ascii	"\251\343\214\242\343\372\017?\202\202\217\346\251\365"
 140      E3FA0F3F 
 140      82828FE6 
 140      A9F5
 141 00b0 3F3C090A 		.ascii	"?<\011\012>\232\257\017\002t8?\015\316\034\027@\257"
 141      3E9AAF0F 
 141      0274383F 
 141      0DCE1C17 
 141      40AF
 142 00c2 4D66E9ED 		.ascii	"Mf\351\355\352\276\272XLuZ\211\245\356\237cC\322\274"
 142      EABEBA58 
 142      4C755A89 
 142      A5EE9F63 
 142      43D2BC
 143 00d5 9314D7F1 		.ascii	"\223\024\327\361\012:[\002S\"\\\200$\270\010I\250x\011"
ARM GAS  C:\Users\Thomas\AppData\Local\Temp\cckArUoJ.s 			page 10


 143      0A3A5B02 
 143      53225C80 
 143      24B80849 
 143      A87809
 144 00e8 E6E17593 		.ascii	"\346\341u\223\024Tz\377\355\314jQ\000v\333X\367fH\233"
 144      14547AFF 
 144      EDCC6A51 
 144      0076DB58 
 144      F766489B 
 145 00fc DA8CAC4A 		.ascii	"\332\214\254J\3329.\204\25354y\317\012\311\015t\324"
 145      DA392E84 
 145      AB353479 
 145      CF0AC90D 
 145      74D4
 146 010e E5F7B87C 		.ascii	"\345\367\270|:\332G;\003\001/\005\256\005\315 \302e"
 146      3ADA473B 
 146      03012F05 
 146      AE05CD20 
 146      C265
 147 0120 48655876 		.ascii	"HeXv\317I\320\002\311H,{\331R.\211F\256\376\302\327"
 147      CF49D002 
 147      C9482C7B 
 147      D9522E89 
 147      46AEFEC2 
 148 0135 EF8BE722 		.ascii	"\357\213\347\"\216_\2554s\037\235\010\004*4\\\341J\204"
 148      8E5FAD34 
 148      731F9D08 
 148      042A345C 
 148      E14A84
 149 0148 C21555C1 		.ascii	"\302\025U\301\311\025\272\272\037-\0247\006\355}~6\306"
 149      C915BABA 
 149      1F2D1437 
 149      06ED7D7E 
 149      36C6
 150 015a 5C385C8E 		.ascii	"\\8\\\216K\215\261\334\303\012N\277\032A\277\252\322"
 150      4B8DB1DC 
 150      C30A4EBF 
 150      1A41BFAA 
 150      D2
 151 016b 5D9C3E30 		.ascii	"]\234>0xqD\022\0138\277\3117\351\021\203\374\301)\374"
 151      78714412 
 151      0B38BFC9 
 151      37E91183 
 151      FCC129FC 
 152 017f 6B11FC6B 		.ascii	"k\021\374k*\277\225\363\333\007\366\277\226\304=\234"
 152      2ABF95F3 
 152      DB07F6BF 
 152      96C43D9C 
 153 018f 3FEC3D78 		.ascii	"?\354=xP#\036\001\236\224\235w\037\231\201\035O\324"
 153      50231E01 
 153      9E949D77 
 153      1F99811D 
 153      4FD4
 154 01a1 F20E1D7D 		.ascii	"\362\016\035}X\337%\3624\300\216\005\237\257\346\273"
 154      58DF25F2 
 154      34C08E05 
 154      9FAFE6BB 
ARM GAS  C:\Users\Thomas\AppData\Local\Temp\cckArUoJ.s 			page 11


 155 01b1 085A4325 		.ascii	"\010ZC%\245\345\324_M\305\371\004R\223`q\022\201[`@"
 155      A5E5D45F 
 155      4DC5F904 
 155      52936071 
 155      12815B60 
 156 01c6 182F0837 		.ascii	"\030/\0107p(\3558\224&\354\271\277\271\2739\253\202"
 156      7028ED38 
 156      9426ECB9 
 156      BFB9BB39 
 156      AB82
 157 01d8 66C24DD0 		.ascii	"f\302M\320B[\310\022\257\240\314\241>0\334\246\027\333"
 157      425BC812 
 157      AFA0CCA1 
 157      3E30DCA6 
 157      17DB
 158 01ea B903B166 		.ascii	"\271\003\261fr\302\245\207\204\005\206\023l\316\376"
 158      72C2A587 
 158      84058613 
 158      6CCEFE
 159 01f9 729AB95B 		.ascii	"r\232\271[\255A\3406$0>x\260\230\033\026p\001\007z\361"
 159      AD41E036 
 159      24303E78 
 159      B0981B16 
 159      7001077A 
 160 020e 1FEE7D12 		.ascii	"\037\356}\022_KG;\201\227\351\3002\014\252X[\304\250"
 160      5F4B473B 
 160      8197E9C0 
 160      320CAA58 
 160      5BC4A8
 161 0221 4BF0C20D 		.ascii	"K\360\302\015\215z\226j\330)Q\233\243\372\020\216y\335"
 161      8D7A966A 
 161      D829519B 
 161      A3FA108E 
 161      79DD
 162 0233 D5B3C090 		.ascii	"\325\263\300\220\300Q}\261\000wQ\343z\3302#\361\365"
 162      C0517DB1 
 162      007751E3 
 162      7AD83223 
 162      F1F5
 163 0245 A735B883 		.ascii	"\2475\270\203\216\376\346\016_o\362\371S\223\3706\330"
 163      8EFEE60E 
 163      5F6FF2F9 
 163      5393F836 
 163      D8
 164 0256 DF8FBF3A 		.ascii	"\337\217\277:\336\305\245\267\321J\207\206\253#\214"
 164      DEC5A5B7 
 164      D14A8786 
 164      AB238C
 165 0265 758B1D0D 		.ascii	"u\213\035\015\035xuJH9G\251\303\357\031\231\200Z\352"
 165      1D78754A 
 165      483947A9 
 165      C3EF1999 
 165      805AEA
 166 0278 28A794CD 		.ascii	"(\247\224\315\222\003\275A\033\241Nx\331@\241\023\322"
 166      9203BD41 
 166      1BA14E78 
 166      D940A113 
ARM GAS  C:\Users\Thomas\AppData\Local\Temp\cckArUoJ.s 			page 12


 166      D2
 167 0289 0974410A 		.ascii	"\011tA\012\322i\355\341&\215\370%X\346\306\227\252\216"
 167      D269EDE1 
 167      268DF825 
 167      58E6C697 
 167      AA8E
 168 029b 782D4EA9 		.ascii	"x-N\251\342\037\246\204o>\364\270j8.8\327\351\214\356"
 168      E21FA684 
 168      6F3EF4B8 
 168      6A382E38 
 168      D7E98CEE 
 169 02af A873DDEF 		.ascii	"\250s\335\357\325\365S\252\201\007\330\361{\341.\335"
 169      D5F553AA 
 169      8107D8F1 
 169      7BE12EDD 
 170 02bf 87F0640F 		.ascii	"\207\360d\017\215\325\017\352tU\354k\301?6\256O\317"
 170      8DD50FEA 
 170      7455EC6B 
 170      C13F36AE 
 170      4FCF
 171 02d1 C1E17FB6 		.ascii	"\301\341\177\266\007t\374\253\304\035\321\247\307\277"
 171      0774FCAB 
 171      C41DD1A7 
 171      C7BF
 172 02df D6E9A7A0 		.ascii	"\326\351\247\240\331\233\207\321\275\012\232\355s\262"
 172      D99B87D1 
 172      BD0A9AED 
 172      73B2
 173 02ed 0B77C9B6 		.ascii	"\013w\311\266\274ey\346\374=\262\321Z\264\255\260 v"
 173      BC6579E6 
 173      FC3DB2D1 
 173      5AB4ADB0 
 173      2076
 174 02ff CDBA9C64 		.ascii	"\315\272\234d#1\244\345\256\221\213d[\276]\336\232g"
 174      2331A4E5 
 174      AE918B64 
 174      5BBE5DDE 
 174      9A67
 175 0311 B696DA2C 		.ascii	"\266\226\332,r\256\311l5.\317U)\246\265i\0262W\315\326"
 175      72AEC96C 
 175      352ECF55 
 175      29A6B569 
 175      163257CD 
 176 0326 CB2576AB 		.ascii	"\313%v\253M\321\210\017\311\356\224\345b\275\232m\310"
 176      4DD1880F 
 176      C9EE94E5 
 176      62BD9A6D 
 176      C8
 177 0337 DF219716 		.ascii	"\337!\227\026\207(\253V\032\263rLy\346\354\3659\306"
 177      8728AB56 
 177      1AB3724C 
 177      79E6ECF5 
 177      39C6
 178 0349 EC98D2C2 		.ascii	"\354\230\322\302\"{FJ\324\252\226\275\366\275\305rI"
 178      227B464A 
 178      D4AA96BD 
 178      F6BDC572 
ARM GAS  C:\Users\Thomas\AppData\Local\Temp\cckArUoJ.s 			page 13


 178      49
 179 035a DA76A2B3 		.ascii	"\332v\242\263X\213\3546\353N\263\035Q\321\011J\025$"
 179      588BEC36 
 179      EB4EB31D 
 179      51D1094A 
 179      1524
 180 036c 84EA6FC9 		.ascii	"\204\352o\311\267\354(-\226lrA\306ojN\272\211"
 180      B7EC282D 
 180      966C7241 
 180      C66F6A4E 
 180      BA89
 181              		.text
 182              		.section	.gnu.lto_.symtab.be1c0ed7,"",%progbits
 183 0000 54696D65 		.ascii	"Timer_4_SaveConfig\000\000\000\000\000\000\000\000\000"
 183      725F345F 
 183      53617665 
 183      436F6E66 
 183      69670000 
 184 001b 000000AC 		.ascii	"\000\000\000\254\000\000\000Timer_4_RestoreConfig\000"
 184      00000054 
 184      696D6572 
 184      5F345F52 
 184      6573746F 
 185 0038 00000000 		.ascii	"\000\000\000\000\000\000\000\000\000\000\000\256\000"
 185      00000000 
 185      000000AE 
 185      00
 186 0045 00005469 		.ascii	"\000\000Timer_4_Sleep\000\000\000\000\000\000\000\000"
 186      6D65725F 
 186      345F536C 
 186      65657000 
 186      00000000 
 187 005c 00000000 		.ascii	"\000\000\000\000\260\000\000\000Timer_4_Wakeup\000\000"
 187      B0000000 
 187      54696D65 
 187      725F345F 
 187      57616B65 
 188 0074 00000000 		.ascii	"\000\000\000\000\000\000\000\000\000\000\262\000\000"
 188      00000000 
 188      0000B200 
 188      00
 189 0081 00       		.ascii	"\000"
 190              		.text
 191              		.section	.gnu.lto_.opts,"",%progbits
 192 0000 272D666E 		.ascii	"'-fno-trapv' '-mcpu=cortex-m3' '-mthumb' '-g' '-O3'"
 192      6F2D7472 
 192      61707627 
 192      20272D6D 
 192      6370753D 
 193 0033 20272D66 		.ascii	" '-ffunction-sections' '-finline-functions' '-flto'"
 193      66756E63 
 193      74696F6E 
 193      2D736563 
 193      74696F6E 
 194 0066 20272D66 		.ascii	" '-ffat-lto-objects'\000"
 194      6661742D 
 194      6C746F2D 
ARM GAS  C:\Users\Thomas\AppData\Local\Temp\cckArUoJ.s 			page 14


 194      6F626A65 
 194      63747327 
 195              		.text
 196              		.cfi_sections	.debug_frame
 197              		.section	.text.Timer_4_SaveConfig,"ax",%progbits
 198              		.align	2
 199              		.global	Timer_4_SaveConfig
 200              		.thumb
 201              		.thumb_func
 202              		.type	Timer_4_SaveConfig, %function
 203              	Timer_4_SaveConfig:
 204              	.LFB0:
 205              		.file 1 ".\\Generated_Source\\PSoC5\\Timer_4_PM.c"
   1:.\Generated_Source\PSoC5/Timer_4_PM.c **** /*******************************************************************************
   2:.\Generated_Source\PSoC5/Timer_4_PM.c **** * File Name: Timer_4_PM.c
   3:.\Generated_Source\PSoC5/Timer_4_PM.c **** * Version 1.80
   4:.\Generated_Source\PSoC5/Timer_4_PM.c **** *
   5:.\Generated_Source\PSoC5/Timer_4_PM.c **** * Description:
   6:.\Generated_Source\PSoC5/Timer_4_PM.c **** *  This file contains the setup, control, and status commands to support 
   7:.\Generated_Source\PSoC5/Timer_4_PM.c **** *  the component operation in the low power mode. 
   8:.\Generated_Source\PSoC5/Timer_4_PM.c **** *
   9:.\Generated_Source\PSoC5/Timer_4_PM.c **** * Note:
  10:.\Generated_Source\PSoC5/Timer_4_PM.c **** *
  11:.\Generated_Source\PSoC5/Timer_4_PM.c **** ********************************************************************************
  12:.\Generated_Source\PSoC5/Timer_4_PM.c **** * Copyright 2015, Cypress Semiconductor Corporation.  All rights reserved.
  13:.\Generated_Source\PSoC5/Timer_4_PM.c **** * You may use this file only in accordance with the license, terms, conditions, 
  14:.\Generated_Source\PSoC5/Timer_4_PM.c **** * disclaimers, and limitations in the end user license agreement accompanying 
  15:.\Generated_Source\PSoC5/Timer_4_PM.c **** * the software package with which this file was provided.
  16:.\Generated_Source\PSoC5/Timer_4_PM.c **** *******************************************************************************/
  17:.\Generated_Source\PSoC5/Timer_4_PM.c **** 
  18:.\Generated_Source\PSoC5/Timer_4_PM.c **** #include "Timer_4.h"
  19:.\Generated_Source\PSoC5/Timer_4_PM.c **** 
  20:.\Generated_Source\PSoC5/Timer_4_PM.c **** /* Check for removal by optimization */
  21:.\Generated_Source\PSoC5/Timer_4_PM.c **** #if !defined(Timer_4_Sync_ctrl_reg__REMOVED)
  22:.\Generated_Source\PSoC5/Timer_4_PM.c **** 
  23:.\Generated_Source\PSoC5/Timer_4_PM.c **** static Timer_4_BACKUP_STRUCT  Timer_4_backup = {0u};
  24:.\Generated_Source\PSoC5/Timer_4_PM.c **** 
  25:.\Generated_Source\PSoC5/Timer_4_PM.c ****     
  26:.\Generated_Source\PSoC5/Timer_4_PM.c **** /*******************************************************************************
  27:.\Generated_Source\PSoC5/Timer_4_PM.c **** * Function Name: Timer_4_SaveConfig
  28:.\Generated_Source\PSoC5/Timer_4_PM.c **** ********************************************************************************
  29:.\Generated_Source\PSoC5/Timer_4_PM.c **** *
  30:.\Generated_Source\PSoC5/Timer_4_PM.c **** * Summary:
  31:.\Generated_Source\PSoC5/Timer_4_PM.c **** *  Saves the control register value.
  32:.\Generated_Source\PSoC5/Timer_4_PM.c **** *
  33:.\Generated_Source\PSoC5/Timer_4_PM.c **** * Parameters:
  34:.\Generated_Source\PSoC5/Timer_4_PM.c **** *  None
  35:.\Generated_Source\PSoC5/Timer_4_PM.c **** *
  36:.\Generated_Source\PSoC5/Timer_4_PM.c **** * Return:
  37:.\Generated_Source\PSoC5/Timer_4_PM.c **** *  None
  38:.\Generated_Source\PSoC5/Timer_4_PM.c **** *
  39:.\Generated_Source\PSoC5/Timer_4_PM.c **** *******************************************************************************/
  40:.\Generated_Source\PSoC5/Timer_4_PM.c **** void Timer_4_SaveConfig(void) 
  41:.\Generated_Source\PSoC5/Timer_4_PM.c **** {
 206              		.loc 1 41 0
 207              		.cfi_startproc
 208              		@ args = 0, pretend = 0, frame = 0
ARM GAS  C:\Users\Thomas\AppData\Local\Temp\cckArUoJ.s 			page 15


 209              		@ frame_needed = 0, uses_anonymous_args = 0
 210              		@ link register save eliminated.
  42:.\Generated_Source\PSoC5/Timer_4_PM.c ****     Timer_4_backup.controlState = Timer_4_Control;
 211              		.loc 1 42 0
 212 0000 024A     		ldr	r2, .L2
 213 0002 034B     		ldr	r3, .L2+4
 214 0004 1278     		ldrb	r2, [r2]	@ zero_extendqisi2
 215 0006 1A70     		strb	r2, [r3]
 216 0008 7047     		bx	lr
 217              	.L3:
 218 000a 00BF     		.align	2
 219              	.L2:
 220 000c 78650040 		.word	1073767800
 221 0010 00000000 		.word	.LANCHOR0
 222              		.cfi_endproc
 223              	.LFE0:
 224              		.size	Timer_4_SaveConfig, .-Timer_4_SaveConfig
 225              		.section	.text.Timer_4_RestoreConfig,"ax",%progbits
 226              		.align	2
 227              		.global	Timer_4_RestoreConfig
 228              		.thumb
 229              		.thumb_func
 230              		.type	Timer_4_RestoreConfig, %function
 231              	Timer_4_RestoreConfig:
 232              	.LFB1:
  43:.\Generated_Source\PSoC5/Timer_4_PM.c **** }
  44:.\Generated_Source\PSoC5/Timer_4_PM.c **** 
  45:.\Generated_Source\PSoC5/Timer_4_PM.c **** 
  46:.\Generated_Source\PSoC5/Timer_4_PM.c **** /*******************************************************************************
  47:.\Generated_Source\PSoC5/Timer_4_PM.c **** * Function Name: Timer_4_RestoreConfig
  48:.\Generated_Source\PSoC5/Timer_4_PM.c **** ********************************************************************************
  49:.\Generated_Source\PSoC5/Timer_4_PM.c **** *
  50:.\Generated_Source\PSoC5/Timer_4_PM.c **** * Summary:
  51:.\Generated_Source\PSoC5/Timer_4_PM.c **** *  Restores the control register value.
  52:.\Generated_Source\PSoC5/Timer_4_PM.c **** *
  53:.\Generated_Source\PSoC5/Timer_4_PM.c **** * Parameters:
  54:.\Generated_Source\PSoC5/Timer_4_PM.c **** *  None
  55:.\Generated_Source\PSoC5/Timer_4_PM.c **** *
  56:.\Generated_Source\PSoC5/Timer_4_PM.c **** * Return:
  57:.\Generated_Source\PSoC5/Timer_4_PM.c **** *  None
  58:.\Generated_Source\PSoC5/Timer_4_PM.c **** *
  59:.\Generated_Source\PSoC5/Timer_4_PM.c **** *
  60:.\Generated_Source\PSoC5/Timer_4_PM.c **** *******************************************************************************/
  61:.\Generated_Source\PSoC5/Timer_4_PM.c **** void Timer_4_RestoreConfig(void) 
  62:.\Generated_Source\PSoC5/Timer_4_PM.c **** {
 233              		.loc 1 62 0
 234              		.cfi_startproc
 235              		@ args = 0, pretend = 0, frame = 0
 236              		@ frame_needed = 0, uses_anonymous_args = 0
 237              		@ link register save eliminated.
  63:.\Generated_Source\PSoC5/Timer_4_PM.c ****      Timer_4_Control = Timer_4_backup.controlState;
 238              		.loc 1 63 0
 239 0000 024A     		ldr	r2, .L5
 240 0002 034B     		ldr	r3, .L5+4
 241 0004 1278     		ldrb	r2, [r2]	@ zero_extendqisi2
 242 0006 1A70     		strb	r2, [r3]
 243 0008 7047     		bx	lr
ARM GAS  C:\Users\Thomas\AppData\Local\Temp\cckArUoJ.s 			page 16


 244              	.L6:
 245 000a 00BF     		.align	2
 246              	.L5:
 247 000c 00000000 		.word	.LANCHOR0
 248 0010 78650040 		.word	1073767800
 249              		.cfi_endproc
 250              	.LFE1:
 251              		.size	Timer_4_RestoreConfig, .-Timer_4_RestoreConfig
 252              		.section	.text.Timer_4_Sleep,"ax",%progbits
 253              		.align	2
 254              		.global	Timer_4_Sleep
 255              		.thumb
 256              		.thumb_func
 257              		.type	Timer_4_Sleep, %function
 258              	Timer_4_Sleep:
 259              	.LFB2:
  64:.\Generated_Source\PSoC5/Timer_4_PM.c **** }
  65:.\Generated_Source\PSoC5/Timer_4_PM.c **** 
  66:.\Generated_Source\PSoC5/Timer_4_PM.c **** 
  67:.\Generated_Source\PSoC5/Timer_4_PM.c **** /*******************************************************************************
  68:.\Generated_Source\PSoC5/Timer_4_PM.c **** * Function Name: Timer_4_Sleep
  69:.\Generated_Source\PSoC5/Timer_4_PM.c **** ********************************************************************************
  70:.\Generated_Source\PSoC5/Timer_4_PM.c **** *
  71:.\Generated_Source\PSoC5/Timer_4_PM.c **** * Summary:
  72:.\Generated_Source\PSoC5/Timer_4_PM.c **** *  Prepares the component for entering the low power mode.
  73:.\Generated_Source\PSoC5/Timer_4_PM.c **** *
  74:.\Generated_Source\PSoC5/Timer_4_PM.c **** * Parameters:
  75:.\Generated_Source\PSoC5/Timer_4_PM.c **** *  None
  76:.\Generated_Source\PSoC5/Timer_4_PM.c **** *
  77:.\Generated_Source\PSoC5/Timer_4_PM.c **** * Return:
  78:.\Generated_Source\PSoC5/Timer_4_PM.c **** *  None
  79:.\Generated_Source\PSoC5/Timer_4_PM.c **** *
  80:.\Generated_Source\PSoC5/Timer_4_PM.c **** *******************************************************************************/
  81:.\Generated_Source\PSoC5/Timer_4_PM.c **** void Timer_4_Sleep(void) 
  82:.\Generated_Source\PSoC5/Timer_4_PM.c **** {
 260              		.loc 1 82 0
 261              		.cfi_startproc
 262              		@ args = 0, pretend = 0, frame = 0
 263              		@ frame_needed = 0, uses_anonymous_args = 0
 264              		@ link register save eliminated.
 265              	.LBB6:
 266              	.LBB7:
  42:.\Generated_Source\PSoC5/Timer_4_PM.c **** }
 267              		.loc 1 42 0
 268 0000 024A     		ldr	r2, .L8
 269 0002 034B     		ldr	r3, .L8+4
 270 0004 1278     		ldrb	r2, [r2]	@ zero_extendqisi2
 271 0006 1A70     		strb	r2, [r3]
 272 0008 7047     		bx	lr
 273              	.L9:
 274 000a 00BF     		.align	2
 275              	.L8:
 276 000c 78650040 		.word	1073767800
 277 0010 00000000 		.word	.LANCHOR0
 278              	.LBE7:
 279              	.LBE6:
 280              		.cfi_endproc
ARM GAS  C:\Users\Thomas\AppData\Local\Temp\cckArUoJ.s 			page 17


 281              	.LFE2:
 282              		.size	Timer_4_Sleep, .-Timer_4_Sleep
 283              		.section	.text.Timer_4_Wakeup,"ax",%progbits
 284              		.align	2
 285              		.global	Timer_4_Wakeup
 286              		.thumb
 287              		.thumb_func
 288              		.type	Timer_4_Wakeup, %function
 289              	Timer_4_Wakeup:
 290              	.LFB3:
  83:.\Generated_Source\PSoC5/Timer_4_PM.c ****     Timer_4_SaveConfig();
  84:.\Generated_Source\PSoC5/Timer_4_PM.c **** }
  85:.\Generated_Source\PSoC5/Timer_4_PM.c **** 
  86:.\Generated_Source\PSoC5/Timer_4_PM.c **** 
  87:.\Generated_Source\PSoC5/Timer_4_PM.c **** /*******************************************************************************
  88:.\Generated_Source\PSoC5/Timer_4_PM.c **** * Function Name: Timer_4_Wakeup
  89:.\Generated_Source\PSoC5/Timer_4_PM.c **** ********************************************************************************
  90:.\Generated_Source\PSoC5/Timer_4_PM.c **** *
  91:.\Generated_Source\PSoC5/Timer_4_PM.c **** * Summary:
  92:.\Generated_Source\PSoC5/Timer_4_PM.c **** *  Restores the component after waking up from the low power mode.
  93:.\Generated_Source\PSoC5/Timer_4_PM.c **** *
  94:.\Generated_Source\PSoC5/Timer_4_PM.c **** * Parameters:
  95:.\Generated_Source\PSoC5/Timer_4_PM.c **** *  None
  96:.\Generated_Source\PSoC5/Timer_4_PM.c **** *
  97:.\Generated_Source\PSoC5/Timer_4_PM.c **** * Return:
  98:.\Generated_Source\PSoC5/Timer_4_PM.c **** *  None
  99:.\Generated_Source\PSoC5/Timer_4_PM.c **** *
 100:.\Generated_Source\PSoC5/Timer_4_PM.c **** *******************************************************************************/
 101:.\Generated_Source\PSoC5/Timer_4_PM.c **** void Timer_4_Wakeup(void)  
 102:.\Generated_Source\PSoC5/Timer_4_PM.c **** {
 291              		.loc 1 102 0
 292              		.cfi_startproc
 293              		@ args = 0, pretend = 0, frame = 0
 294              		@ frame_needed = 0, uses_anonymous_args = 0
 295              		@ link register save eliminated.
 296              	.LBB8:
 297              	.LBB9:
  63:.\Generated_Source\PSoC5/Timer_4_PM.c **** }
 298              		.loc 1 63 0
 299 0000 024A     		ldr	r2, .L11
 300 0002 034B     		ldr	r3, .L11+4
 301 0004 1278     		ldrb	r2, [r2]	@ zero_extendqisi2
 302 0006 1A70     		strb	r2, [r3]
 303 0008 7047     		bx	lr
 304              	.L12:
 305 000a 00BF     		.align	2
 306              	.L11:
 307 000c 00000000 		.word	.LANCHOR0
 308 0010 78650040 		.word	1073767800
 309              	.LBE9:
 310              	.LBE8:
 311              		.cfi_endproc
 312              	.LFE3:
 313              		.size	Timer_4_Wakeup, .-Timer_4_Wakeup
 314              		.bss
 315              		.align	2
 316              		.set	.LANCHOR0,. + 0
ARM GAS  C:\Users\Thomas\AppData\Local\Temp\cckArUoJ.s 			page 18


 317              		.type	Timer_4_backup, %object
 318              		.size	Timer_4_backup, 1
 319              	Timer_4_backup:
 320 0000 00       		.space	1
 321 0001 000000   		.text
 322              	.Letext0:
 323              		.file 2 ".\\Generated_Source\\PSoC5\\cytypes.h"
 324              		.file 3 ".\\Generated_Source\\PSoC5\\Timer_4.h"