ARM GAS  C:\Users\Thomas\AppData\Local\Temp\ccjsRLUi.s 			page 1


   1              		.syntax unified
   2              		.cpu cortex-m3
   3              		.fpu softvfp
   4              		.eabi_attribute 20, 1
   5              		.eabi_attribute 21, 1
   6              		.eabi_attribute 23, 3
   7              		.eabi_attribute 24, 1
   8              		.eabi_attribute 25, 1
   9              		.eabi_attribute 26, 1
  10              		.eabi_attribute 30, 4
  11              		.eabi_attribute 34, 1
  12              		.eabi_attribute 18, 4
  13              		.thumb
  14              		.file	"TIRQ.c"
  15              		.text
  16              	.Ltext0:
  17              		.cfi_sections	.debug_frame
  18              		.section	.text.TIRQ_Interrupt,"ax",%progbits
  19              		.align	1
  20              		.global	TIRQ_Interrupt
  21              		.thumb
  22              		.thumb_func
  23              		.type	TIRQ_Interrupt, %function
  24              	TIRQ_Interrupt:
  25              	.LFB66:
  26              		.file 1 ".\\Generated_Source\\PSoC5\\TIRQ.c"
   1:.\Generated_Source\PSoC5/TIRQ.c **** /*******************************************************************************
   2:.\Generated_Source\PSoC5/TIRQ.c **** * File Name: TIRQ.c  
   3:.\Generated_Source\PSoC5/TIRQ.c **** * Version 1.70
   4:.\Generated_Source\PSoC5/TIRQ.c **** *
   5:.\Generated_Source\PSoC5/TIRQ.c **** *  Description:
   6:.\Generated_Source\PSoC5/TIRQ.c **** *   API for controlling the state of an interrupt.
   7:.\Generated_Source\PSoC5/TIRQ.c **** *
   8:.\Generated_Source\PSoC5/TIRQ.c **** *
   9:.\Generated_Source\PSoC5/TIRQ.c **** *  Note:
  10:.\Generated_Source\PSoC5/TIRQ.c **** *
  11:.\Generated_Source\PSoC5/TIRQ.c **** ********************************************************************************
  12:.\Generated_Source\PSoC5/TIRQ.c **** * Copyright 2008-2015, Cypress Semiconductor Corporation.  All rights reserved.
  13:.\Generated_Source\PSoC5/TIRQ.c **** * You may use this file only in accordance with the license, terms, conditions, 
  14:.\Generated_Source\PSoC5/TIRQ.c **** * disclaimers, and limitations in the end user license agreement accompanying 
  15:.\Generated_Source\PSoC5/TIRQ.c **** * the software package with which this file was provided.
  16:.\Generated_Source\PSoC5/TIRQ.c **** *******************************************************************************/
  17:.\Generated_Source\PSoC5/TIRQ.c **** 
  18:.\Generated_Source\PSoC5/TIRQ.c **** 
  19:.\Generated_Source\PSoC5/TIRQ.c **** #include <cydevice_trm.h>
  20:.\Generated_Source\PSoC5/TIRQ.c **** #include <CyLib.h>
  21:.\Generated_Source\PSoC5/TIRQ.c **** #include <TIRQ.h>
  22:.\Generated_Source\PSoC5/TIRQ.c **** #include "cyapicallbacks.h"
  23:.\Generated_Source\PSoC5/TIRQ.c **** 
  24:.\Generated_Source\PSoC5/TIRQ.c **** #if !defined(TIRQ__REMOVED) /* Check for removal by optimization */
  25:.\Generated_Source\PSoC5/TIRQ.c **** 
  26:.\Generated_Source\PSoC5/TIRQ.c **** /*******************************************************************************
  27:.\Generated_Source\PSoC5/TIRQ.c **** *  Place your includes, defines and code here 
  28:.\Generated_Source\PSoC5/TIRQ.c **** ********************************************************************************/
  29:.\Generated_Source\PSoC5/TIRQ.c **** /* `#START TIRQ_intc` */
  30:.\Generated_Source\PSoC5/TIRQ.c **** #include <main.h>
  31:.\Generated_Source\PSoC5/TIRQ.c **** /* `#END` */
ARM GAS  C:\Users\Thomas\AppData\Local\Temp\ccjsRLUi.s 			page 2


  32:.\Generated_Source\PSoC5/TIRQ.c **** 
  33:.\Generated_Source\PSoC5/TIRQ.c **** #ifndef CYINT_IRQ_BASE
  34:.\Generated_Source\PSoC5/TIRQ.c **** #define CYINT_IRQ_BASE      16
  35:.\Generated_Source\PSoC5/TIRQ.c **** #endif /* CYINT_IRQ_BASE */
  36:.\Generated_Source\PSoC5/TIRQ.c **** #ifndef CYINT_VECT_TABLE
  37:.\Generated_Source\PSoC5/TIRQ.c **** #define CYINT_VECT_TABLE    ((cyisraddress **) CYREG_NVIC_VECT_OFFSET)
  38:.\Generated_Source\PSoC5/TIRQ.c **** #endif /* CYINT_VECT_TABLE */
  39:.\Generated_Source\PSoC5/TIRQ.c **** 
  40:.\Generated_Source\PSoC5/TIRQ.c **** /* Declared in startup, used to set unused interrupts to. */
  41:.\Generated_Source\PSoC5/TIRQ.c **** CY_ISR_PROTO(IntDefaultHandler);
  42:.\Generated_Source\PSoC5/TIRQ.c **** 
  43:.\Generated_Source\PSoC5/TIRQ.c **** 
  44:.\Generated_Source\PSoC5/TIRQ.c **** /*******************************************************************************
  45:.\Generated_Source\PSoC5/TIRQ.c **** * Function Name: TIRQ_Start
  46:.\Generated_Source\PSoC5/TIRQ.c **** ********************************************************************************
  47:.\Generated_Source\PSoC5/TIRQ.c **** *
  48:.\Generated_Source\PSoC5/TIRQ.c **** * Summary:
  49:.\Generated_Source\PSoC5/TIRQ.c **** *  Set up the interrupt and enable it. This function disables the interrupt, 
  50:.\Generated_Source\PSoC5/TIRQ.c **** *  sets the default interrupt vector, sets the priority from the value in the
  51:.\Generated_Source\PSoC5/TIRQ.c **** *  Design Wide Resources Interrupt Editor, then enables the interrupt to the 
  52:.\Generated_Source\PSoC5/TIRQ.c **** *  interrupt controller.
  53:.\Generated_Source\PSoC5/TIRQ.c **** *
  54:.\Generated_Source\PSoC5/TIRQ.c **** * Parameters:  
  55:.\Generated_Source\PSoC5/TIRQ.c **** *   None
  56:.\Generated_Source\PSoC5/TIRQ.c **** *
  57:.\Generated_Source\PSoC5/TIRQ.c **** * Return:
  58:.\Generated_Source\PSoC5/TIRQ.c **** *   None
  59:.\Generated_Source\PSoC5/TIRQ.c **** *
  60:.\Generated_Source\PSoC5/TIRQ.c **** *******************************************************************************/
  61:.\Generated_Source\PSoC5/TIRQ.c **** void TIRQ_Start(void)
  62:.\Generated_Source\PSoC5/TIRQ.c **** {
  63:.\Generated_Source\PSoC5/TIRQ.c ****     /* For all we know the interrupt is active. */
  64:.\Generated_Source\PSoC5/TIRQ.c ****     TIRQ_Disable();
  65:.\Generated_Source\PSoC5/TIRQ.c **** 
  66:.\Generated_Source\PSoC5/TIRQ.c ****     /* Set the ISR to point to the TIRQ Interrupt. */
  67:.\Generated_Source\PSoC5/TIRQ.c ****     TIRQ_SetVector(&TIRQ_Interrupt);
  68:.\Generated_Source\PSoC5/TIRQ.c **** 
  69:.\Generated_Source\PSoC5/TIRQ.c ****     /* Set the priority. */
  70:.\Generated_Source\PSoC5/TIRQ.c ****     TIRQ_SetPriority((uint8)TIRQ_INTC_PRIOR_NUMBER);
  71:.\Generated_Source\PSoC5/TIRQ.c **** 
  72:.\Generated_Source\PSoC5/TIRQ.c ****     /* Enable it. */
  73:.\Generated_Source\PSoC5/TIRQ.c ****     TIRQ_Enable();
  74:.\Generated_Source\PSoC5/TIRQ.c **** }
  75:.\Generated_Source\PSoC5/TIRQ.c **** 
  76:.\Generated_Source\PSoC5/TIRQ.c **** 
  77:.\Generated_Source\PSoC5/TIRQ.c **** /*******************************************************************************
  78:.\Generated_Source\PSoC5/TIRQ.c **** * Function Name: TIRQ_StartEx
  79:.\Generated_Source\PSoC5/TIRQ.c **** ********************************************************************************
  80:.\Generated_Source\PSoC5/TIRQ.c **** *
  81:.\Generated_Source\PSoC5/TIRQ.c **** * Summary:
  82:.\Generated_Source\PSoC5/TIRQ.c **** *  Sets up the interrupt and enables it. This function disables the interrupt,
  83:.\Generated_Source\PSoC5/TIRQ.c **** *  sets the interrupt vector based on the address passed in, sets the priority 
  84:.\Generated_Source\PSoC5/TIRQ.c **** *  from the value in the Design Wide Resources Interrupt Editor, then enables 
  85:.\Generated_Source\PSoC5/TIRQ.c **** *  the interrupt to the interrupt controller.
  86:.\Generated_Source\PSoC5/TIRQ.c **** *  
  87:.\Generated_Source\PSoC5/TIRQ.c **** *  When defining ISR functions, the CY_ISR and CY_ISR_PROTO macros should be 
  88:.\Generated_Source\PSoC5/TIRQ.c **** *  used to provide consistent definition across compilers:
ARM GAS  C:\Users\Thomas\AppData\Local\Temp\ccjsRLUi.s 			page 3


  89:.\Generated_Source\PSoC5/TIRQ.c **** *  
  90:.\Generated_Source\PSoC5/TIRQ.c **** *  Function definition example:
  91:.\Generated_Source\PSoC5/TIRQ.c **** *   CY_ISR(MyISR)
  92:.\Generated_Source\PSoC5/TIRQ.c **** *   {
  93:.\Generated_Source\PSoC5/TIRQ.c **** *   }
  94:.\Generated_Source\PSoC5/TIRQ.c **** *   Function prototype example:
  95:.\Generated_Source\PSoC5/TIRQ.c **** *   CY_ISR_PROTO(MyISR);
  96:.\Generated_Source\PSoC5/TIRQ.c **** *
  97:.\Generated_Source\PSoC5/TIRQ.c **** * Parameters:  
  98:.\Generated_Source\PSoC5/TIRQ.c **** *   address: Address of the ISR to set in the interrupt vector table.
  99:.\Generated_Source\PSoC5/TIRQ.c **** *
 100:.\Generated_Source\PSoC5/TIRQ.c **** * Return:
 101:.\Generated_Source\PSoC5/TIRQ.c **** *   None
 102:.\Generated_Source\PSoC5/TIRQ.c **** *
 103:.\Generated_Source\PSoC5/TIRQ.c **** *******************************************************************************/
 104:.\Generated_Source\PSoC5/TIRQ.c **** void TIRQ_StartEx(cyisraddress address)
 105:.\Generated_Source\PSoC5/TIRQ.c **** {
 106:.\Generated_Source\PSoC5/TIRQ.c ****     /* For all we know the interrupt is active. */
 107:.\Generated_Source\PSoC5/TIRQ.c ****     TIRQ_Disable();
 108:.\Generated_Source\PSoC5/TIRQ.c **** 
 109:.\Generated_Source\PSoC5/TIRQ.c ****     /* Set the ISR to point to the TIRQ Interrupt. */
 110:.\Generated_Source\PSoC5/TIRQ.c ****     TIRQ_SetVector(address);
 111:.\Generated_Source\PSoC5/TIRQ.c **** 
 112:.\Generated_Source\PSoC5/TIRQ.c ****     /* Set the priority. */
 113:.\Generated_Source\PSoC5/TIRQ.c ****     TIRQ_SetPriority((uint8)TIRQ_INTC_PRIOR_NUMBER);
 114:.\Generated_Source\PSoC5/TIRQ.c **** 
 115:.\Generated_Source\PSoC5/TIRQ.c ****     /* Enable it. */
 116:.\Generated_Source\PSoC5/TIRQ.c ****     TIRQ_Enable();
 117:.\Generated_Source\PSoC5/TIRQ.c **** }
 118:.\Generated_Source\PSoC5/TIRQ.c **** 
 119:.\Generated_Source\PSoC5/TIRQ.c **** 
 120:.\Generated_Source\PSoC5/TIRQ.c **** /*******************************************************************************
 121:.\Generated_Source\PSoC5/TIRQ.c **** * Function Name: TIRQ_Stop
 122:.\Generated_Source\PSoC5/TIRQ.c **** ********************************************************************************
 123:.\Generated_Source\PSoC5/TIRQ.c **** *
 124:.\Generated_Source\PSoC5/TIRQ.c **** * Summary:
 125:.\Generated_Source\PSoC5/TIRQ.c **** *   Disables and removes the interrupt.
 126:.\Generated_Source\PSoC5/TIRQ.c **** *
 127:.\Generated_Source\PSoC5/TIRQ.c **** * Parameters:  
 128:.\Generated_Source\PSoC5/TIRQ.c **** *   None
 129:.\Generated_Source\PSoC5/TIRQ.c **** *
 130:.\Generated_Source\PSoC5/TIRQ.c **** * Return:
 131:.\Generated_Source\PSoC5/TIRQ.c **** *   None
 132:.\Generated_Source\PSoC5/TIRQ.c **** *
 133:.\Generated_Source\PSoC5/TIRQ.c **** *******************************************************************************/
 134:.\Generated_Source\PSoC5/TIRQ.c **** void TIRQ_Stop(void)
 135:.\Generated_Source\PSoC5/TIRQ.c **** {
 136:.\Generated_Source\PSoC5/TIRQ.c ****     /* Disable this interrupt. */
 137:.\Generated_Source\PSoC5/TIRQ.c ****     TIRQ_Disable();
 138:.\Generated_Source\PSoC5/TIRQ.c **** 
 139:.\Generated_Source\PSoC5/TIRQ.c ****     /* Set the ISR to point to the passive one. */
 140:.\Generated_Source\PSoC5/TIRQ.c ****     TIRQ_SetVector(&IntDefaultHandler);
 141:.\Generated_Source\PSoC5/TIRQ.c **** }
 142:.\Generated_Source\PSoC5/TIRQ.c **** 
 143:.\Generated_Source\PSoC5/TIRQ.c **** 
 144:.\Generated_Source\PSoC5/TIRQ.c **** /*******************************************************************************
 145:.\Generated_Source\PSoC5/TIRQ.c **** * Function Name: TIRQ_Interrupt
ARM GAS  C:\Users\Thomas\AppData\Local\Temp\ccjsRLUi.s 			page 4


 146:.\Generated_Source\PSoC5/TIRQ.c **** ********************************************************************************
 147:.\Generated_Source\PSoC5/TIRQ.c **** *
 148:.\Generated_Source\PSoC5/TIRQ.c **** * Summary:
 149:.\Generated_Source\PSoC5/TIRQ.c **** *   The default Interrupt Service Routine for TIRQ.
 150:.\Generated_Source\PSoC5/TIRQ.c **** *
 151:.\Generated_Source\PSoC5/TIRQ.c **** *   Add custom code between the coments to keep the next version of this file
 152:.\Generated_Source\PSoC5/TIRQ.c **** *   from over writting your code.
 153:.\Generated_Source\PSoC5/TIRQ.c **** *
 154:.\Generated_Source\PSoC5/TIRQ.c **** * Parameters:  
 155:.\Generated_Source\PSoC5/TIRQ.c **** *
 156:.\Generated_Source\PSoC5/TIRQ.c **** * Return:
 157:.\Generated_Source\PSoC5/TIRQ.c **** *   None
 158:.\Generated_Source\PSoC5/TIRQ.c **** *
 159:.\Generated_Source\PSoC5/TIRQ.c **** *******************************************************************************/
 160:.\Generated_Source\PSoC5/TIRQ.c **** CY_ISR(TIRQ_Interrupt)
 161:.\Generated_Source\PSoC5/TIRQ.c **** {
  27              		.loc 1 161 0
  28              		.cfi_startproc
  29              		@ args = 0, pretend = 0, frame = 0
  30              		@ frame_needed = 0, uses_anonymous_args = 0
  31 0000 08B5     		push	{r3, lr}
  32              		.cfi_def_cfa_offset 8
  33              		.cfi_offset 3, -8
  34              		.cfi_offset 14, -4
 162:.\Generated_Source\PSoC5/TIRQ.c ****     #ifdef TIRQ_INTERRUPT_INTERRUPT_CALLBACK
 163:.\Generated_Source\PSoC5/TIRQ.c ****         TIRQ_Interrupt_InterruptCallback();
 164:.\Generated_Source\PSoC5/TIRQ.c ****     #endif /* TIRQ_INTERRUPT_INTERRUPT_CALLBACK */ 
 165:.\Generated_Source\PSoC5/TIRQ.c **** 
 166:.\Generated_Source\PSoC5/TIRQ.c ****     /*  Place your Interrupt code here. */
 167:.\Generated_Source\PSoC5/TIRQ.c ****     /* `#START TIRQ_Interrupt` */
 168:.\Generated_Source\PSoC5/TIRQ.c ****     TIMER_Stop();
  35              		.loc 1 168 0
  36 0002 FFF7FEFF 		bl	TIMER_Stop
  37              	.LVL0:
 169:.\Generated_Source\PSoC5/TIRQ.c ****     ready = 1;
  38              		.loc 1 169 0
  39 0006 024B     		ldr	r3, .L2
  40 0008 0122     		movs	r2, #1
  41 000a 1A60     		str	r2, [r3]
  42 000c 08BD     		pop	{r3, pc}
  43              	.L3:
  44 000e 00BF     		.align	2
  45              	.L2:
  46 0010 00000000 		.word	ready
  47              		.cfi_endproc
  48              	.LFE66:
  49              		.size	TIRQ_Interrupt, .-TIRQ_Interrupt
  50              		.section	.text.TIRQ_Start,"ax",%progbits
  51              		.align	1
  52              		.global	TIRQ_Start
  53              		.thumb
  54              		.thumb_func
  55              		.type	TIRQ_Start, %function
  56              	TIRQ_Start:
  57              	.LFB63:
  62:.\Generated_Source\PSoC5/TIRQ.c ****     /* For all we know the interrupt is active. */
  58              		.loc 1 62 0
ARM GAS  C:\Users\Thomas\AppData\Local\Temp\ccjsRLUi.s 			page 5


  59              		.cfi_startproc
  60              		@ args = 0, pretend = 0, frame = 0
  61              		@ frame_needed = 0, uses_anonymous_args = 0
  62              		@ link register save eliminated.
  63              	.LBB22:
  64              	.LBB23:
 170:.\Generated_Source\PSoC5/TIRQ.c ****     /* `#END` */
 171:.\Generated_Source\PSoC5/TIRQ.c **** }
 172:.\Generated_Source\PSoC5/TIRQ.c **** 
 173:.\Generated_Source\PSoC5/TIRQ.c **** 
 174:.\Generated_Source\PSoC5/TIRQ.c **** /*******************************************************************************
 175:.\Generated_Source\PSoC5/TIRQ.c **** * Function Name: TIRQ_SetVector
 176:.\Generated_Source\PSoC5/TIRQ.c **** ********************************************************************************
 177:.\Generated_Source\PSoC5/TIRQ.c **** *
 178:.\Generated_Source\PSoC5/TIRQ.c **** * Summary:
 179:.\Generated_Source\PSoC5/TIRQ.c **** *   Change the ISR vector for the Interrupt. Note calling TIRQ_Start
 180:.\Generated_Source\PSoC5/TIRQ.c **** *   will override any effect this method would have had. To set the vector 
 181:.\Generated_Source\PSoC5/TIRQ.c **** *   before the component has been started use TIRQ_StartEx instead.
 182:.\Generated_Source\PSoC5/TIRQ.c **** * 
 183:.\Generated_Source\PSoC5/TIRQ.c **** *   When defining ISR functions, the CY_ISR and CY_ISR_PROTO macros should be 
 184:.\Generated_Source\PSoC5/TIRQ.c **** *   used to provide consistent definition across compilers:
 185:.\Generated_Source\PSoC5/TIRQ.c **** *
 186:.\Generated_Source\PSoC5/TIRQ.c **** *   Function definition example:
 187:.\Generated_Source\PSoC5/TIRQ.c **** *   CY_ISR(MyISR)
 188:.\Generated_Source\PSoC5/TIRQ.c **** *   {
 189:.\Generated_Source\PSoC5/TIRQ.c **** *   }
 190:.\Generated_Source\PSoC5/TIRQ.c **** *
 191:.\Generated_Source\PSoC5/TIRQ.c **** *   Function prototype example:
 192:.\Generated_Source\PSoC5/TIRQ.c **** *     CY_ISR_PROTO(MyISR);
 193:.\Generated_Source\PSoC5/TIRQ.c **** *
 194:.\Generated_Source\PSoC5/TIRQ.c **** * Parameters:
 195:.\Generated_Source\PSoC5/TIRQ.c **** *   address: Address of the ISR to set in the interrupt vector table.
 196:.\Generated_Source\PSoC5/TIRQ.c **** *
 197:.\Generated_Source\PSoC5/TIRQ.c **** * Return:
 198:.\Generated_Source\PSoC5/TIRQ.c **** *   None
 199:.\Generated_Source\PSoC5/TIRQ.c **** *
 200:.\Generated_Source\PSoC5/TIRQ.c **** *******************************************************************************/
 201:.\Generated_Source\PSoC5/TIRQ.c **** void TIRQ_SetVector(cyisraddress address)
 202:.\Generated_Source\PSoC5/TIRQ.c **** {
 203:.\Generated_Source\PSoC5/TIRQ.c ****     cyisraddress * ramVectorTable;
 204:.\Generated_Source\PSoC5/TIRQ.c **** 
 205:.\Generated_Source\PSoC5/TIRQ.c ****     ramVectorTable = (cyisraddress *) *CYINT_VECT_TABLE;
 206:.\Generated_Source\PSoC5/TIRQ.c **** 
 207:.\Generated_Source\PSoC5/TIRQ.c ****     ramVectorTable[CYINT_IRQ_BASE + (uint32)TIRQ__INTC_NUMBER] = address;
 208:.\Generated_Source\PSoC5/TIRQ.c **** }
 209:.\Generated_Source\PSoC5/TIRQ.c **** 
 210:.\Generated_Source\PSoC5/TIRQ.c **** 
 211:.\Generated_Source\PSoC5/TIRQ.c **** /*******************************************************************************
 212:.\Generated_Source\PSoC5/TIRQ.c **** * Function Name: TIRQ_GetVector
 213:.\Generated_Source\PSoC5/TIRQ.c **** ********************************************************************************
 214:.\Generated_Source\PSoC5/TIRQ.c **** *
 215:.\Generated_Source\PSoC5/TIRQ.c **** * Summary:
 216:.\Generated_Source\PSoC5/TIRQ.c **** *   Gets the "address" of the current ISR vector for the Interrupt.
 217:.\Generated_Source\PSoC5/TIRQ.c **** *
 218:.\Generated_Source\PSoC5/TIRQ.c **** * Parameters:
 219:.\Generated_Source\PSoC5/TIRQ.c **** *   None
 220:.\Generated_Source\PSoC5/TIRQ.c **** *
ARM GAS  C:\Users\Thomas\AppData\Local\Temp\ccjsRLUi.s 			page 6


 221:.\Generated_Source\PSoC5/TIRQ.c **** * Return:
 222:.\Generated_Source\PSoC5/TIRQ.c **** *   Address of the ISR in the interrupt vector table.
 223:.\Generated_Source\PSoC5/TIRQ.c **** *
 224:.\Generated_Source\PSoC5/TIRQ.c **** *******************************************************************************/
 225:.\Generated_Source\PSoC5/TIRQ.c **** cyisraddress TIRQ_GetVector(void)
 226:.\Generated_Source\PSoC5/TIRQ.c **** {
 227:.\Generated_Source\PSoC5/TIRQ.c ****     cyisraddress * ramVectorTable;
 228:.\Generated_Source\PSoC5/TIRQ.c **** 
 229:.\Generated_Source\PSoC5/TIRQ.c ****     ramVectorTable = (cyisraddress *) *CYINT_VECT_TABLE;
 230:.\Generated_Source\PSoC5/TIRQ.c **** 
 231:.\Generated_Source\PSoC5/TIRQ.c ****     return ramVectorTable[CYINT_IRQ_BASE + (uint32)TIRQ__INTC_NUMBER];
 232:.\Generated_Source\PSoC5/TIRQ.c **** }
 233:.\Generated_Source\PSoC5/TIRQ.c **** 
 234:.\Generated_Source\PSoC5/TIRQ.c **** 
 235:.\Generated_Source\PSoC5/TIRQ.c **** /*******************************************************************************
 236:.\Generated_Source\PSoC5/TIRQ.c **** * Function Name: TIRQ_SetPriority
 237:.\Generated_Source\PSoC5/TIRQ.c **** ********************************************************************************
 238:.\Generated_Source\PSoC5/TIRQ.c **** *
 239:.\Generated_Source\PSoC5/TIRQ.c **** * Summary:
 240:.\Generated_Source\PSoC5/TIRQ.c **** *   Sets the Priority of the Interrupt. 
 241:.\Generated_Source\PSoC5/TIRQ.c **** *
 242:.\Generated_Source\PSoC5/TIRQ.c **** *   Note calling TIRQ_Start or TIRQ_StartEx will 
 243:.\Generated_Source\PSoC5/TIRQ.c **** *   override any effect this API would have had. This API should only be called
 244:.\Generated_Source\PSoC5/TIRQ.c **** *   after TIRQ_Start or TIRQ_StartEx has been called. 
 245:.\Generated_Source\PSoC5/TIRQ.c **** *   To set the initial priority for the component, use the Design-Wide Resources
 246:.\Generated_Source\PSoC5/TIRQ.c **** *   Interrupt Editor.
 247:.\Generated_Source\PSoC5/TIRQ.c **** *
 248:.\Generated_Source\PSoC5/TIRQ.c **** *   Note This API has no effect on Non-maskable interrupt NMI).
 249:.\Generated_Source\PSoC5/TIRQ.c **** *
 250:.\Generated_Source\PSoC5/TIRQ.c **** * Parameters:
 251:.\Generated_Source\PSoC5/TIRQ.c **** *   priority: Priority of the interrupt, 0 being the highest priority
 252:.\Generated_Source\PSoC5/TIRQ.c **** *             PSoC 3 and PSoC 5LP: Priority is from 0 to 7.
 253:.\Generated_Source\PSoC5/TIRQ.c **** *             PSoC 4: Priority is from 0 to 3.
 254:.\Generated_Source\PSoC5/TIRQ.c **** *
 255:.\Generated_Source\PSoC5/TIRQ.c **** * Return:
 256:.\Generated_Source\PSoC5/TIRQ.c **** *   None
 257:.\Generated_Source\PSoC5/TIRQ.c **** *
 258:.\Generated_Source\PSoC5/TIRQ.c **** *******************************************************************************/
 259:.\Generated_Source\PSoC5/TIRQ.c **** void TIRQ_SetPriority(uint8 priority)
 260:.\Generated_Source\PSoC5/TIRQ.c **** {
 261:.\Generated_Source\PSoC5/TIRQ.c ****     *TIRQ_INTC_PRIOR = priority << 5;
 262:.\Generated_Source\PSoC5/TIRQ.c **** }
 263:.\Generated_Source\PSoC5/TIRQ.c **** 
 264:.\Generated_Source\PSoC5/TIRQ.c **** 
 265:.\Generated_Source\PSoC5/TIRQ.c **** /*******************************************************************************
 266:.\Generated_Source\PSoC5/TIRQ.c **** * Function Name: TIRQ_GetPriority
 267:.\Generated_Source\PSoC5/TIRQ.c **** ********************************************************************************
 268:.\Generated_Source\PSoC5/TIRQ.c **** *
 269:.\Generated_Source\PSoC5/TIRQ.c **** * Summary:
 270:.\Generated_Source\PSoC5/TIRQ.c **** *   Gets the Priority of the Interrupt.
 271:.\Generated_Source\PSoC5/TIRQ.c **** *
 272:.\Generated_Source\PSoC5/TIRQ.c **** * Parameters:
 273:.\Generated_Source\PSoC5/TIRQ.c **** *   None
 274:.\Generated_Source\PSoC5/TIRQ.c **** *
 275:.\Generated_Source\PSoC5/TIRQ.c **** * Return:
 276:.\Generated_Source\PSoC5/TIRQ.c **** *   Priority of the interrupt, 0 being the highest priority
 277:.\Generated_Source\PSoC5/TIRQ.c **** *    PSoC 3 and PSoC 5LP: Priority is from 0 to 7.
ARM GAS  C:\Users\Thomas\AppData\Local\Temp\ccjsRLUi.s 			page 7


 278:.\Generated_Source\PSoC5/TIRQ.c **** *    PSoC 4: Priority is from 0 to 3.
 279:.\Generated_Source\PSoC5/TIRQ.c **** *
 280:.\Generated_Source\PSoC5/TIRQ.c **** *******************************************************************************/
 281:.\Generated_Source\PSoC5/TIRQ.c **** uint8 TIRQ_GetPriority(void)
 282:.\Generated_Source\PSoC5/TIRQ.c **** {
 283:.\Generated_Source\PSoC5/TIRQ.c ****     uint8 priority;
 284:.\Generated_Source\PSoC5/TIRQ.c **** 
 285:.\Generated_Source\PSoC5/TIRQ.c **** 
 286:.\Generated_Source\PSoC5/TIRQ.c ****     priority = *TIRQ_INTC_PRIOR >> 5;
 287:.\Generated_Source\PSoC5/TIRQ.c **** 
 288:.\Generated_Source\PSoC5/TIRQ.c ****     return priority;
 289:.\Generated_Source\PSoC5/TIRQ.c **** }
 290:.\Generated_Source\PSoC5/TIRQ.c **** 
 291:.\Generated_Source\PSoC5/TIRQ.c **** 
 292:.\Generated_Source\PSoC5/TIRQ.c **** /*******************************************************************************
 293:.\Generated_Source\PSoC5/TIRQ.c **** * Function Name: TIRQ_Enable
 294:.\Generated_Source\PSoC5/TIRQ.c **** ********************************************************************************
 295:.\Generated_Source\PSoC5/TIRQ.c **** *
 296:.\Generated_Source\PSoC5/TIRQ.c **** * Summary:
 297:.\Generated_Source\PSoC5/TIRQ.c **** *   Enables the interrupt to the interrupt controller. Do not call this function
 298:.\Generated_Source\PSoC5/TIRQ.c **** *   unless ISR_Start() has been called or the functionality of the ISR_Start() 
 299:.\Generated_Source\PSoC5/TIRQ.c **** *   function, which sets the vector and the priority, has been called.
 300:.\Generated_Source\PSoC5/TIRQ.c **** *
 301:.\Generated_Source\PSoC5/TIRQ.c **** * Parameters:
 302:.\Generated_Source\PSoC5/TIRQ.c **** *   None
 303:.\Generated_Source\PSoC5/TIRQ.c **** *
 304:.\Generated_Source\PSoC5/TIRQ.c **** * Return:
 305:.\Generated_Source\PSoC5/TIRQ.c **** *   None
 306:.\Generated_Source\PSoC5/TIRQ.c **** *
 307:.\Generated_Source\PSoC5/TIRQ.c **** *******************************************************************************/
 308:.\Generated_Source\PSoC5/TIRQ.c **** void TIRQ_Enable(void)
 309:.\Generated_Source\PSoC5/TIRQ.c **** {
 310:.\Generated_Source\PSoC5/TIRQ.c ****     /* Enable the general interrupt. */
 311:.\Generated_Source\PSoC5/TIRQ.c ****     *TIRQ_INTC_SET_EN = TIRQ__INTC_MASK;
 312:.\Generated_Source\PSoC5/TIRQ.c **** }
 313:.\Generated_Source\PSoC5/TIRQ.c **** 
 314:.\Generated_Source\PSoC5/TIRQ.c **** 
 315:.\Generated_Source\PSoC5/TIRQ.c **** /*******************************************************************************
 316:.\Generated_Source\PSoC5/TIRQ.c **** * Function Name: TIRQ_GetState
 317:.\Generated_Source\PSoC5/TIRQ.c **** ********************************************************************************
 318:.\Generated_Source\PSoC5/TIRQ.c **** *
 319:.\Generated_Source\PSoC5/TIRQ.c **** * Summary:
 320:.\Generated_Source\PSoC5/TIRQ.c **** *   Gets the state (enabled, disabled) of the Interrupt.
 321:.\Generated_Source\PSoC5/TIRQ.c **** *
 322:.\Generated_Source\PSoC5/TIRQ.c **** * Parameters:
 323:.\Generated_Source\PSoC5/TIRQ.c **** *   None
 324:.\Generated_Source\PSoC5/TIRQ.c **** *
 325:.\Generated_Source\PSoC5/TIRQ.c **** * Return:
 326:.\Generated_Source\PSoC5/TIRQ.c **** *   1 if enabled, 0 if disabled.
 327:.\Generated_Source\PSoC5/TIRQ.c **** *
 328:.\Generated_Source\PSoC5/TIRQ.c **** *******************************************************************************/
 329:.\Generated_Source\PSoC5/TIRQ.c **** uint8 TIRQ_GetState(void)
 330:.\Generated_Source\PSoC5/TIRQ.c **** {
 331:.\Generated_Source\PSoC5/TIRQ.c ****     /* Get the state of the general interrupt. */
 332:.\Generated_Source\PSoC5/TIRQ.c ****     return ((*TIRQ_INTC_SET_EN & (uint32)TIRQ__INTC_MASK) != 0u) ? 1u:0u;
 333:.\Generated_Source\PSoC5/TIRQ.c **** }
 334:.\Generated_Source\PSoC5/TIRQ.c **** 
ARM GAS  C:\Users\Thomas\AppData\Local\Temp\ccjsRLUi.s 			page 8


 335:.\Generated_Source\PSoC5/TIRQ.c **** 
 336:.\Generated_Source\PSoC5/TIRQ.c **** /*******************************************************************************
 337:.\Generated_Source\PSoC5/TIRQ.c **** * Function Name: TIRQ_Disable
 338:.\Generated_Source\PSoC5/TIRQ.c **** ********************************************************************************
 339:.\Generated_Source\PSoC5/TIRQ.c **** *
 340:.\Generated_Source\PSoC5/TIRQ.c **** * Summary:
 341:.\Generated_Source\PSoC5/TIRQ.c **** *   Disables the Interrupt in the interrupt controller.
 342:.\Generated_Source\PSoC5/TIRQ.c **** *
 343:.\Generated_Source\PSoC5/TIRQ.c **** * Parameters:
 344:.\Generated_Source\PSoC5/TIRQ.c **** *   None
 345:.\Generated_Source\PSoC5/TIRQ.c **** *
 346:.\Generated_Source\PSoC5/TIRQ.c **** * Return:
 347:.\Generated_Source\PSoC5/TIRQ.c **** *   None
 348:.\Generated_Source\PSoC5/TIRQ.c **** *
 349:.\Generated_Source\PSoC5/TIRQ.c **** *******************************************************************************/
 350:.\Generated_Source\PSoC5/TIRQ.c **** void TIRQ_Disable(void)
 351:.\Generated_Source\PSoC5/TIRQ.c **** {
 352:.\Generated_Source\PSoC5/TIRQ.c ****     /* Disable the general interrupt. */
 353:.\Generated_Source\PSoC5/TIRQ.c ****     *TIRQ_INTC_CLR_EN = TIRQ__INTC_MASK;
  65              		.loc 1 353 0
  66 0000 084A     		ldr	r2, .L5
  67 0002 4FF40033 		mov	r3, #131072
  68 0006 1360     		str	r3, [r2]
  69              	.LVL1:
  70              	.LBE23:
  71              	.LBE22:
  72              	.LBB24:
  73              	.LBB25:
 205:.\Generated_Source\PSoC5/TIRQ.c **** 
  74              		.loc 1 205 0
  75 0008 02F68832 		addw	r2, r2, #2952
  76 000c 1268     		ldr	r2, [r2]
  77              	.LVL2:
 207:.\Generated_Source\PSoC5/TIRQ.c **** }
  78              		.loc 1 207 0
  79 000e 0649     		ldr	r1, .L5+4
  80 0010 C2F88410 		str	r1, [r2, #132]
  81              	.LVL3:
  82              	.LBE25:
  83              	.LBE24:
  84              	.LBB26:
  85              	.LBB27:
 261:.\Generated_Source\PSoC5/TIRQ.c **** }
  86              		.loc 1 261 0
  87 0014 054A     		ldr	r2, .L5+8
  88              	.LVL4:
  89 0016 C021     		movs	r1, #192
  90 0018 1170     		strb	r1, [r2]
  91              	.LBE27:
  92              	.LBE26:
  93              	.LBB28:
  94              	.LBB29:
 311:.\Generated_Source\PSoC5/TIRQ.c **** }
  95              		.loc 1 311 0
  96 001a 6FF44471 		mvn	r1, #784
  97 001e 0A44     		add	r2, r2, r1
  98 0020 1360     		str	r3, [r2]
ARM GAS  C:\Users\Thomas\AppData\Local\Temp\ccjsRLUi.s 			page 9


  99 0022 7047     		bx	lr
 100              	.L6:
 101              		.align	2
 102              	.L5:
 103 0024 80E100E0 		.word	-536813184
 104 0028 00000000 		.word	TIRQ_Interrupt
 105 002c 11E400E0 		.word	-536812527
 106              	.LBE29:
 107              	.LBE28:
 108              		.cfi_endproc
 109              	.LFE63:
 110              		.size	TIRQ_Start, .-TIRQ_Start
 111              		.section	.text.TIRQ_StartEx,"ax",%progbits
 112              		.align	1
 113              		.global	TIRQ_StartEx
 114              		.thumb
 115              		.thumb_func
 116              		.type	TIRQ_StartEx, %function
 117              	TIRQ_StartEx:
 118              	.LFB64:
 105:.\Generated_Source\PSoC5/TIRQ.c ****     /* For all we know the interrupt is active. */
 119              		.loc 1 105 0
 120              		.cfi_startproc
 121              		@ args = 0, pretend = 0, frame = 0
 122              		@ frame_needed = 0, uses_anonymous_args = 0
 123              		@ link register save eliminated.
 124              	.LVL5:
 125              	.LBB30:
 126              	.LBB31:
 127              		.loc 1 353 0
 128 0000 084A     		ldr	r2, .L8
 129 0002 4FF40033 		mov	r3, #131072
 130 0006 1360     		str	r3, [r2]
 131              	.LVL6:
 132              	.LBE31:
 133              	.LBE30:
 134              	.LBB32:
 135              	.LBB33:
 205:.\Generated_Source\PSoC5/TIRQ.c **** 
 136              		.loc 1 205 0
 137 0008 02F68832 		addw	r2, r2, #2952
 138 000c 1268     		ldr	r2, [r2]
 139              	.LVL7:
 140              	.LBE33:
 141              	.LBE32:
 142              	.LBB35:
 143              	.LBB36:
 261:.\Generated_Source\PSoC5/TIRQ.c **** }
 144              		.loc 1 261 0
 145 000e C021     		movs	r1, #192
 146              	.LBE36:
 147              	.LBE35:
 148              	.LBB38:
 149              	.LBB34:
 207:.\Generated_Source\PSoC5/TIRQ.c **** }
 150              		.loc 1 207 0
 151 0010 C2F88400 		str	r0, [r2, #132]
ARM GAS  C:\Users\Thomas\AppData\Local\Temp\ccjsRLUi.s 			page 10


 152              	.LVL8:
 153              	.LBE34:
 154              	.LBE38:
 155              	.LBB39:
 156              	.LBB37:
 261:.\Generated_Source\PSoC5/TIRQ.c **** }
 157              		.loc 1 261 0
 158 0014 044A     		ldr	r2, .L8+4
 159              	.LVL9:
 160 0016 1170     		strb	r1, [r2]
 161              	.LBE37:
 162              	.LBE39:
 163              	.LBB40:
 164              	.LBB41:
 311:.\Generated_Source\PSoC5/TIRQ.c **** }
 165              		.loc 1 311 0
 166 0018 6FF44471 		mvn	r1, #784
 167 001c 0A44     		add	r2, r2, r1
 168 001e 1360     		str	r3, [r2]
 169 0020 7047     		bx	lr
 170              	.L9:
 171 0022 00BF     		.align	2
 172              	.L8:
 173 0024 80E100E0 		.word	-536813184
 174 0028 11E400E0 		.word	-536812527
 175              	.LBE41:
 176              	.LBE40:
 177              		.cfi_endproc
 178              	.LFE64:
 179              		.size	TIRQ_StartEx, .-TIRQ_StartEx
 180              		.section	.text.TIRQ_Stop,"ax",%progbits
 181              		.align	1
 182              		.global	TIRQ_Stop
 183              		.thumb
 184              		.thumb_func
 185              		.type	TIRQ_Stop, %function
 186              	TIRQ_Stop:
 187              	.LFB65:
 135:.\Generated_Source\PSoC5/TIRQ.c ****     /* Disable this interrupt. */
 188              		.loc 1 135 0
 189              		.cfi_startproc
 190              		@ args = 0, pretend = 0, frame = 0
 191              		@ frame_needed = 0, uses_anonymous_args = 0
 192              		@ link register save eliminated.
 193              	.LBB42:
 194              	.LBB43:
 195              		.loc 1 353 0
 196 0000 054B     		ldr	r3, .L11
 197 0002 4FF40032 		mov	r2, #131072
 198 0006 1A60     		str	r2, [r3]
 199              	.LVL10:
 200              	.LBE43:
 201              	.LBE42:
 202              	.LBB44:
 203              	.LBB45:
 205:.\Generated_Source\PSoC5/TIRQ.c **** 
 204              		.loc 1 205 0
ARM GAS  C:\Users\Thomas\AppData\Local\Temp\ccjsRLUi.s 			page 11


 205 0008 03F68833 		addw	r3, r3, #2952
 206 000c 1B68     		ldr	r3, [r3]
 207              	.LVL11:
 207:.\Generated_Source\PSoC5/TIRQ.c **** }
 208              		.loc 1 207 0
 209 000e 034A     		ldr	r2, .L11+4
 210 0010 C3F88420 		str	r2, [r3, #132]
 211 0014 7047     		bx	lr
 212              	.L12:
 213 0016 00BF     		.align	2
 214              	.L11:
 215 0018 80E100E0 		.word	-536813184
 216 001c 00000000 		.word	IntDefaultHandler
 217              	.LBE45:
 218              	.LBE44:
 219              		.cfi_endproc
 220              	.LFE65:
 221              		.size	TIRQ_Stop, .-TIRQ_Stop
 222              		.section	.text.TIRQ_SetVector,"ax",%progbits
 223              		.align	1
 224              		.global	TIRQ_SetVector
 225              		.thumb
 226              		.thumb_func
 227              		.type	TIRQ_SetVector, %function
 228              	TIRQ_SetVector:
 229              	.LFB67:
 202:.\Generated_Source\PSoC5/TIRQ.c ****     cyisraddress * ramVectorTable;
 230              		.loc 1 202 0
 231              		.cfi_startproc
 232              		@ args = 0, pretend = 0, frame = 0
 233              		@ frame_needed = 0, uses_anonymous_args = 0
 234              		@ link register save eliminated.
 235              	.LVL12:
 205:.\Generated_Source\PSoC5/TIRQ.c **** 
 236              		.loc 1 205 0
 237 0000 024B     		ldr	r3, .L14
 238 0002 1B68     		ldr	r3, [r3]
 239              	.LVL13:
 207:.\Generated_Source\PSoC5/TIRQ.c **** }
 240              		.loc 1 207 0
 241 0004 C3F88400 		str	r0, [r3, #132]
 242 0008 7047     		bx	lr
 243              	.L15:
 244 000a 00BF     		.align	2
 245              	.L14:
 246 000c 08ED00E0 		.word	-536810232
 247              		.cfi_endproc
 248              	.LFE67:
 249              		.size	TIRQ_SetVector, .-TIRQ_SetVector
 250              		.section	.text.TIRQ_GetVector,"ax",%progbits
 251              		.align	1
 252              		.global	TIRQ_GetVector
 253              		.thumb
 254              		.thumb_func
 255              		.type	TIRQ_GetVector, %function
 256              	TIRQ_GetVector:
 257              	.LFB68:
ARM GAS  C:\Users\Thomas\AppData\Local\Temp\ccjsRLUi.s 			page 12


 226:.\Generated_Source\PSoC5/TIRQ.c ****     cyisraddress * ramVectorTable;
 258              		.loc 1 226 0
 259              		.cfi_startproc
 260              		@ args = 0, pretend = 0, frame = 0
 261              		@ frame_needed = 0, uses_anonymous_args = 0
 262              		@ link register save eliminated.
 263              	.LVL14:
 229:.\Generated_Source\PSoC5/TIRQ.c **** 
 264              		.loc 1 229 0
 265 0000 024B     		ldr	r3, .L17
 266              	.LVL15:
 231:.\Generated_Source\PSoC5/TIRQ.c **** }
 267              		.loc 1 231 0
 268 0002 1B68     		ldr	r3, [r3]
 269              	.LVL16:
 232:.\Generated_Source\PSoC5/TIRQ.c **** 
 270              		.loc 1 232 0
 271 0004 D3F88400 		ldr	r0, [r3, #132]
 272 0008 7047     		bx	lr
 273              	.L18:
 274 000a 00BF     		.align	2
 275              	.L17:
 276 000c 08ED00E0 		.word	-536810232
 277              		.cfi_endproc
 278              	.LFE68:
 279              		.size	TIRQ_GetVector, .-TIRQ_GetVector
 280              		.section	.text.TIRQ_SetPriority,"ax",%progbits
 281              		.align	1
 282              		.global	TIRQ_SetPriority
 283              		.thumb
 284              		.thumb_func
 285              		.type	TIRQ_SetPriority, %function
 286              	TIRQ_SetPriority:
 287              	.LFB69:
 260:.\Generated_Source\PSoC5/TIRQ.c ****     *TIRQ_INTC_PRIOR = priority << 5;
 288              		.loc 1 260 0
 289              		.cfi_startproc
 290              		@ args = 0, pretend = 0, frame = 0
 291              		@ frame_needed = 0, uses_anonymous_args = 0
 292              		@ link register save eliminated.
 293              	.LVL17:
 261:.\Generated_Source\PSoC5/TIRQ.c **** }
 294              		.loc 1 261 0
 295 0000 4001     		lsls	r0, r0, #5
 296              	.LVL18:
 297 0002 024B     		ldr	r3, .L20
 298 0004 C0B2     		uxtb	r0, r0
 299 0006 1870     		strb	r0, [r3]
 300 0008 7047     		bx	lr
 301              	.L21:
 302 000a 00BF     		.align	2
 303              	.L20:
 304 000c 11E400E0 		.word	-536812527
 305              		.cfi_endproc
 306              	.LFE69:
 307              		.size	TIRQ_SetPriority, .-TIRQ_SetPriority
 308              		.section	.text.TIRQ_GetPriority,"ax",%progbits
ARM GAS  C:\Users\Thomas\AppData\Local\Temp\ccjsRLUi.s 			page 13


 309              		.align	1
 310              		.global	TIRQ_GetPriority
 311              		.thumb
 312              		.thumb_func
 313              		.type	TIRQ_GetPriority, %function
 314              	TIRQ_GetPriority:
 315              	.LFB70:
 282:.\Generated_Source\PSoC5/TIRQ.c ****     uint8 priority;
 316              		.loc 1 282 0
 317              		.cfi_startproc
 318              		@ args = 0, pretend = 0, frame = 0
 319              		@ frame_needed = 0, uses_anonymous_args = 0
 320              		@ link register save eliminated.
 286:.\Generated_Source\PSoC5/TIRQ.c **** 
 321              		.loc 1 286 0
 322 0000 014B     		ldr	r3, .L23
 323 0002 1878     		ldrb	r0, [r3]	@ zero_extendqisi2
 324              	.LVL19:
 289:.\Generated_Source\PSoC5/TIRQ.c **** 
 325              		.loc 1 289 0
 326 0004 4009     		lsrs	r0, r0, #5
 327              	.LVL20:
 328 0006 7047     		bx	lr
 329              	.L24:
 330              		.align	2
 331              	.L23:
 332 0008 11E400E0 		.word	-536812527
 333              		.cfi_endproc
 334              	.LFE70:
 335              		.size	TIRQ_GetPriority, .-TIRQ_GetPriority
 336              		.section	.text.TIRQ_Enable,"ax",%progbits
 337              		.align	1
 338              		.global	TIRQ_Enable
 339              		.thumb
 340              		.thumb_func
 341              		.type	TIRQ_Enable, %function
 342              	TIRQ_Enable:
 343              	.LFB71:
 309:.\Generated_Source\PSoC5/TIRQ.c ****     /* Enable the general interrupt. */
 344              		.loc 1 309 0
 345              		.cfi_startproc
 346              		@ args = 0, pretend = 0, frame = 0
 347              		@ frame_needed = 0, uses_anonymous_args = 0
 348              		@ link register save eliminated.
 311:.\Generated_Source\PSoC5/TIRQ.c **** }
 349              		.loc 1 311 0
 350 0000 024B     		ldr	r3, .L26
 351 0002 4FF40032 		mov	r2, #131072
 352 0006 1A60     		str	r2, [r3]
 353 0008 7047     		bx	lr
 354              	.L27:
 355 000a 00BF     		.align	2
 356              	.L26:
 357 000c 00E100E0 		.word	-536813312
 358              		.cfi_endproc
 359              	.LFE71:
 360              		.size	TIRQ_Enable, .-TIRQ_Enable
ARM GAS  C:\Users\Thomas\AppData\Local\Temp\ccjsRLUi.s 			page 14


 361              		.section	.text.TIRQ_GetState,"ax",%progbits
 362              		.align	1
 363              		.global	TIRQ_GetState
 364              		.thumb
 365              		.thumb_func
 366              		.type	TIRQ_GetState, %function
 367              	TIRQ_GetState:
 368              	.LFB72:
 330:.\Generated_Source\PSoC5/TIRQ.c ****     /* Get the state of the general interrupt. */
 369              		.loc 1 330 0
 370              		.cfi_startproc
 371              		@ args = 0, pretend = 0, frame = 0
 372              		@ frame_needed = 0, uses_anonymous_args = 0
 373              		@ link register save eliminated.
 332:.\Generated_Source\PSoC5/TIRQ.c **** }
 374              		.loc 1 332 0
 375 0000 024B     		ldr	r3, .L29
 376 0002 1868     		ldr	r0, [r3]
 333:.\Generated_Source\PSoC5/TIRQ.c **** 
 377              		.loc 1 333 0
 378 0004 C0F34040 		ubfx	r0, r0, #17, #1
 379 0008 7047     		bx	lr
 380              	.L30:
 381 000a 00BF     		.align	2
 382              	.L29:
 383 000c 00E100E0 		.word	-536813312
 384              		.cfi_endproc
 385              	.LFE72:
 386              		.size	TIRQ_GetState, .-TIRQ_GetState
 387              		.section	.text.TIRQ_Disable,"ax",%progbits
 388              		.align	1
 389              		.global	TIRQ_Disable
 390              		.thumb
 391              		.thumb_func
 392              		.type	TIRQ_Disable, %function
 393              	TIRQ_Disable:
 394              	.LFB73:
 351:.\Generated_Source\PSoC5/TIRQ.c ****     /* Disable the general interrupt. */
 395              		.loc 1 351 0
 396              		.cfi_startproc
 397              		@ args = 0, pretend = 0, frame = 0
 398              		@ frame_needed = 0, uses_anonymous_args = 0
 399              		@ link register save eliminated.
 400              		.loc 1 353 0
 401 0000 024B     		ldr	r3, .L32
 402 0002 4FF40032 		mov	r2, #131072
 403 0006 1A60     		str	r2, [r3]
 404 0008 7047     		bx	lr
 405              	.L33:
 406 000a 00BF     		.align	2
 407              	.L32:
 408 000c 80E100E0 		.word	-536813184
 409              		.cfi_endproc
 410              	.LFE73:
 411              		.size	TIRQ_Disable, .-TIRQ_Disable
 412              		.section	.text.TIRQ_SetPending,"ax",%progbits
 413              		.align	1
ARM GAS  C:\Users\Thomas\AppData\Local\Temp\ccjsRLUi.s 			page 15


 414              		.global	TIRQ_SetPending
 415              		.thumb
 416              		.thumb_func
 417              		.type	TIRQ_SetPending, %function
 418              	TIRQ_SetPending:
 419              	.LFB74:
 354:.\Generated_Source\PSoC5/TIRQ.c **** }
 355:.\Generated_Source\PSoC5/TIRQ.c **** 
 356:.\Generated_Source\PSoC5/TIRQ.c **** 
 357:.\Generated_Source\PSoC5/TIRQ.c **** /*******************************************************************************
 358:.\Generated_Source\PSoC5/TIRQ.c **** * Function Name: TIRQ_SetPending
 359:.\Generated_Source\PSoC5/TIRQ.c **** ********************************************************************************
 360:.\Generated_Source\PSoC5/TIRQ.c **** *
 361:.\Generated_Source\PSoC5/TIRQ.c **** * Summary:
 362:.\Generated_Source\PSoC5/TIRQ.c **** *   Causes the Interrupt to enter the pending state, a software method of
 363:.\Generated_Source\PSoC5/TIRQ.c **** *   generating the interrupt.
 364:.\Generated_Source\PSoC5/TIRQ.c **** *
 365:.\Generated_Source\PSoC5/TIRQ.c **** * Parameters:
 366:.\Generated_Source\PSoC5/TIRQ.c **** *   None
 367:.\Generated_Source\PSoC5/TIRQ.c **** *
 368:.\Generated_Source\PSoC5/TIRQ.c **** * Return:
 369:.\Generated_Source\PSoC5/TIRQ.c **** *   None
 370:.\Generated_Source\PSoC5/TIRQ.c **** *
 371:.\Generated_Source\PSoC5/TIRQ.c **** * Side Effects:
 372:.\Generated_Source\PSoC5/TIRQ.c **** *   If interrupts are enabled and the interrupt is set up properly, the ISR is
 373:.\Generated_Source\PSoC5/TIRQ.c **** *   entered (depending on the priority of this interrupt and other pending 
 374:.\Generated_Source\PSoC5/TIRQ.c **** *   interrupts).
 375:.\Generated_Source\PSoC5/TIRQ.c **** *
 376:.\Generated_Source\PSoC5/TIRQ.c **** *******************************************************************************/
 377:.\Generated_Source\PSoC5/TIRQ.c **** void TIRQ_SetPending(void)
 378:.\Generated_Source\PSoC5/TIRQ.c **** {
 420              		.loc 1 378 0
 421              		.cfi_startproc
 422              		@ args = 0, pretend = 0, frame = 0
 423              		@ frame_needed = 0, uses_anonymous_args = 0
 424              		@ link register save eliminated.
 379:.\Generated_Source\PSoC5/TIRQ.c ****     *TIRQ_INTC_SET_PD = TIRQ__INTC_MASK;
 425              		.loc 1 379 0
 426 0000 024B     		ldr	r3, .L35
 427 0002 4FF40032 		mov	r2, #131072
 428 0006 1A60     		str	r2, [r3]
 429 0008 7047     		bx	lr
 430              	.L36:
 431 000a 00BF     		.align	2
 432              	.L35:
 433 000c 00E200E0 		.word	-536813056
 434              		.cfi_endproc
 435              	.LFE74:
 436              		.size	TIRQ_SetPending, .-TIRQ_SetPending
 437              		.section	.text.TIRQ_ClearPending,"ax",%progbits
 438              		.align	1
 439              		.global	TIRQ_ClearPending
 440              		.thumb
 441              		.thumb_func
 442              		.type	TIRQ_ClearPending, %function
 443              	TIRQ_ClearPending:
 444              	.LFB75:
ARM GAS  C:\Users\Thomas\AppData\Local\Temp\ccjsRLUi.s 			page 16


 380:.\Generated_Source\PSoC5/TIRQ.c **** }
 381:.\Generated_Source\PSoC5/TIRQ.c **** 
 382:.\Generated_Source\PSoC5/TIRQ.c **** 
 383:.\Generated_Source\PSoC5/TIRQ.c **** /*******************************************************************************
 384:.\Generated_Source\PSoC5/TIRQ.c **** * Function Name: TIRQ_ClearPending
 385:.\Generated_Source\PSoC5/TIRQ.c **** ********************************************************************************
 386:.\Generated_Source\PSoC5/TIRQ.c **** *
 387:.\Generated_Source\PSoC5/TIRQ.c **** * Summary:
 388:.\Generated_Source\PSoC5/TIRQ.c **** *   Clears a pending interrupt in the interrupt controller.
 389:.\Generated_Source\PSoC5/TIRQ.c **** *
 390:.\Generated_Source\PSoC5/TIRQ.c **** *   Note Some interrupt sources are clear-on-read and require the block 
 391:.\Generated_Source\PSoC5/TIRQ.c **** *   interrupt/status register to be read/cleared with the appropriate block API 
 392:.\Generated_Source\PSoC5/TIRQ.c **** *   (GPIO, UART, and so on). Otherwise the ISR will continue to remain in 
 393:.\Generated_Source\PSoC5/TIRQ.c **** *   pending state even though the interrupt itself is cleared using this API.
 394:.\Generated_Source\PSoC5/TIRQ.c **** *
 395:.\Generated_Source\PSoC5/TIRQ.c **** * Parameters:
 396:.\Generated_Source\PSoC5/TIRQ.c **** *   None
 397:.\Generated_Source\PSoC5/TIRQ.c **** *
 398:.\Generated_Source\PSoC5/TIRQ.c **** * Return:
 399:.\Generated_Source\PSoC5/TIRQ.c **** *   None
 400:.\Generated_Source\PSoC5/TIRQ.c **** *
 401:.\Generated_Source\PSoC5/TIRQ.c **** *******************************************************************************/
 402:.\Generated_Source\PSoC5/TIRQ.c **** void TIRQ_ClearPending(void)
 403:.\Generated_Source\PSoC5/TIRQ.c **** {
 445              		.loc 1 403 0
 446              		.cfi_startproc
 447              		@ args = 0, pretend = 0, frame = 0
 448              		@ frame_needed = 0, uses_anonymous_args = 0
 449              		@ link register save eliminated.
 404:.\Generated_Source\PSoC5/TIRQ.c ****     *TIRQ_INTC_CLR_PD = TIRQ__INTC_MASK;
 450              		.loc 1 404 0
 451 0000 024B     		ldr	r3, .L38
 452 0002 4FF40032 		mov	r2, #131072
 453 0006 1A60     		str	r2, [r3]
 454 0008 7047     		bx	lr
 455              	.L39:
 456 000a 00BF     		.align	2
 457              	.L38:
 458 000c 80E200E0 		.word	-536812928
 459              		.cfi_endproc
 460              	.LFE75:
 461              		.size	TIRQ_ClearPending, .-TIRQ_ClearPending
 462              		.comm	ready,4,4
 463              		.comm	input,4096,2
 464              		.comm	data,2,2
 465              		.comm	buf_ptr,1,1
 466              		.comm	input_ptr,1,1
 467              		.comm	playing,4,4
 468              		.comm	sent,4,4
 469              		.text
 470              	.Letext0:
 471              		.file 2 "c:\\program files (x86)\\cypress\\psoc creator\\3.3\\psoc creator\\import\\gnu\\arm\\4.9.
 472              		.file 3 "c:\\program files (x86)\\cypress\\psoc creator\\3.3\\psoc creator\\import\\gnu\\arm\\4.9.
 473              		.file 4 "Generated_Source\\PSoC5/cytypes.h"
 474              		.file 5 "Generated_Source\\PSoC5/core_cm3.h"
 475              		.file 6 "./main.h"
 476              		.file 7 "Generated_Source\\PSoC5/TIMER.h"
ARM GAS  C:\Users\Thomas\AppData\Local\Temp\ccjsRLUi.s 			page 17

