ARM GAS  C:\Users\Thomas\AppData\Local\Temp\cc9NNei7.s 			page 1


   1              		.syntax unified
   2              		.cpu cortex-m3
   3              		.fpu softvfp
   4              		.eabi_attribute 20, 1
   5              		.eabi_attribute 21, 1
   6              		.eabi_attribute 23, 3
   7              		.eabi_attribute 24, 1
   8              		.eabi_attribute 25, 1
   9              		.eabi_attribute 26, 1
  10              		.eabi_attribute 30, 2
  11              		.eabi_attribute 34, 1
  12              		.eabi_attribute 18, 4
  13              		.thumb
  14              		.file	"USBUART_pm.c"
  15              		.text
  16              	.Ltext0:
  17              		.section	.gnu.lto_.profile.c0d6900c,"",%progbits
  18 0000 789C6366 		.ascii	"x\234cf```e\200\000F\206\026\2464\000\002\200\000\366"
  18      60606065 
  18      80004686 
  18      16A63400 
  18      028000F6 
  19              		.text
  20              		.section	.gnu.lto_.jmpfuncs.c0d6900c,"",%progbits
  21 0000 789C6366 		.ascii	"x\234cf\300\016\026BiV\020\301\310\300\300\004\242Y"
  21      C00E1642 
  21      695610C1 
  21      C8C0C004 
  21      A259
  22 0012 206C46A6 		.ascii	" lF\246\217L\214\027g-k\346\177\301\364\223\011(\302"
  22      8F4C8C17 
  22      672D6BE6 
  22      7FC1F493 
  22      0928C2
  23 0025 B89C510A 		.ascii	"\270\234Q\012(\012\245\200\222\367\237\234\277\310\001"
  23      280AA580 
  23      92F79F9C 
  23      BFC801
  24 0034 9604AA5E 		.ascii	"\226\004\252^\001\221\004Q\014l`\003\320L`\004\232\260"
  24      01910451 
  24      0C6C6003 
  24      D04C6004 
  24      9AB0
  25 0046 12A6F5FC 		.ascii	"\022\246\365\374\203\303\375<`\255@\223W!\264\202%\367"
  25      83C3FD3C 
  25      60AD4093 
  25      5721B482 
  25      25F7
  26 0058 DEBFFD90 		.ascii	"\336\277\375\220\031,\251\301\300\270\032d \003\000"
  26      192CA9C1 
  26      C0B81A64 
  26      200300
  27 0067 7A5C2478 		.ascii	"z\\$x"
  28              		.text
  29              		.section	.gnu.lto_.inline.c0d6900c,"",%progbits
  30 0000 789C6366 		.ascii	"x\234cf\300\016\016AiV\006\006\026\036F\006& \223m\201"
  30      C00E0E41 
ARM GAS  C:\Users\Thomas\AppData\Local\Temp\cc9NNei7.s 			page 2


  30      69560606 
  30      161E4606 
  30      2620936D 
  31 0015 3C886260 		.ascii	"<\210b`\344\002\021\014\314L\250\302L\014\034\274@\021"
  31      E402110C 
  31      CC4CA8C2 
  31      4C0C1CBC 
  31      4011
  32 0027 B60F7A68 		.ascii	"\266\017zh*A\004\013\203\221\036P\322\345]\023#\252"
  32      2A41040B 
  32      83911E50 
  32      D2E55D13 
  32      23AA
  33 0039 2C133790 		.ascii	",\0237\2201\301\017L1`'\031\330\030\364\255\201L\273"
  33      31C10F4C 
  33      31602719 
  33      D818F4AD 
  33      814CBB
  34 004c 8E9B08CD 		.ascii	"\216\233\010\315P}\0103pif\000\000i\023\014\320"
  34      507D0833 
  34      70696600 
  34      0069130C 
  34      D0
  35              		.text
  36              		.section	.gnu.lto_.pureconst.c0d6900c,"",%progbits
  37 0000 789C6366 		.ascii	"x\234cf``\340f\200\000V\006\011F\006&)\026)6)\000\003"
  37      6060E066 
  37      80005606 
  37      09460626 
  37      29162936 
  38 0017 560087   		.ascii	"V\000\207"
  39              		.text
  40              		.section	.gnu.lto_USBUART_DP_ISR.c0d6900c,"",%progbits
  41 0000 789C6366 		.ascii	"x\234cf\300\004R@\274\020\2105\200\230\221\231\201\221"
  41      C0045240 
  41      BC108835 
  41      80989199 
  41      8191
  42 0012 69C23906 		.ascii	"i\3029\006\206F\016&FF\020\203\201\221\241\236\211\261"
  42      86460E26 
  42      46461083 
  42      8191A19E 
  42      89B1
  43 0024 9EF125D3 		.ascii	"\236\361%\323G&\306\011\007V\317\340V_\332\320\320\360"
  43      4726C609 
  43      0756CFE0 
  43      565FDAD0 
  43      D0F0
  44 0036 61D3EAC6 		.ascii	"a\323\352\306\200\003\214?\231\030\030>3A\314a\\\316"
  44      80038C3F 
  44      9918183E 
  44      3341CC61 
  44      5CCE
  45 0048 A8CE0054 		.ascii	"\250\316\000T\364\261\345\357un\266\026\240\"\001\210"
  45      F4B1E5EF 
  45      756EB616 
  45      A0220188 
ARM GAS  C:\Users\Thomas\AppData\Local\Temp\cc9NNei7.s 			page 3


  46 0058 1CE30A46 		.ascii	"\034\343\012F6F \275^\350@\303\377\377\223\327-\341"
  46      364620BD 
  46      5EE840C3 
  46      FFFF93D7 
  46      2DE1
  47 006a 67666078 		.ascii	"gf`x\002\224\001\231\377\224\211\011D3\337al>p;\025"
  47      02940199 
  47      FF948909 
  47      4433DF61 
  47      6C3E703B 
  48 007f A41464C6 		.ascii	"\244\024d\306\274\313}\353\230j\1777t4p\374db\374\314"
  48      BCCB7DEB 
  48      986A7F37 
  48      743470FC 
  48      6462FCCC 
  49 0093 04D4CEB8 		.ascii	"\004\324\316\270\222\261\226\341'P\365=\306\306\003"
  49      92B196E1 
  49      2750F53D 
  49      C6C603
  50 00a2 5F45C12A 		.ascii	"_E\301*\031@\3460\202\364\003MS\323\213qO\315K-J,IM"
  50      1940E630 
  50      82F4034D 
  50      53D38B71 
  50      4FCD4B2D 
  51 00ba 890FCE2F 		.ascii	"\211\017\316/-JN\215\011\010\316w6\215\011\015v\012"
  51      2D4A4E8D 
  51      0908CE77 
  51      368D090D 
  51      760A
  52 00cc 750C0A89 		.ascii	"u\014\012\211/\310\325Kf\000\000\221\015Ge"
  52      2FC8D54B 
  52      66000091 
  52      0D4765
  53              		.text
  54              		.section	.gnu.lto_USBUART_SaveConfig.c0d6900c,"",%progbits
  55 0000 789C6366 		.ascii	"x\234cf\300\004R@\\\012\304\032@\314\310\314\300\310"
  55      C0045240 
  55      5C0AC41A 
  55      40CCC8CC 
  55      C0C8
  56 0012 34E11C03 		.ascii	"4\341\034\003C#\007\023##\210\301\300\310P\317\304X"
  56      43230713 
  56      232388C1 
  56      C0C850CF 
  56      C458
  57 0024 CFF892E9 		.ascii	"\317\370\222\351#\023\343\204\003\253gp\253/mhh\370"
  57      2313E384 
  57      03AB6770 
  57      AB2F6D68 
  57      68F8
  58 0036 D0B459A2 		.ascii	"\320\264Y\242U\342'\023\003\303g&\2101\214\313\031\325"
  58      55E22713 
  58      03C36726 
  58      88318CCB 
  58      19D5
  59 0048 19806A3E 		.ascii	"\031\200j>\266\374\275\316\315\326\002T#\000\221c\\"
  59      B6FCBDCE 
ARM GAS  C:\Users\Thomas\AppData\Local\Temp\cc9NNei7.s 			page 4


  59      CDD60254 
  59      23009163 
  59      5C
  60 0059 C1C8C608 		.ascii	"\301\310\306\010\244\327\013\035h\370\377\377\363\231"
  60      A4D70B1D 
  60      68F8FFFF 
  60      F399
  61 0067 892FD418 		.ascii	"\211/\324\030\201\342O\200\030d\301S&&\020\315|\217"
  61      81E24F80 
  61      1864C153 
  61      262610CD 
  61      7C8F
  62 0079 9111A412 		.ascii	"\221\021\244\022d\324\023&F\220\020P\201\232^\214{j"
  62      64D41326 
  62      46901050 
  62      819A5E8C 
  62      7B6A
  63 008b 5E6A5162 		.ascii	"^jQbIjJ|p~iQrjL@p\276\263iLh\260S\250cPH|A\256^2\003"
  63      496A4A7C 
  63      707E6951 
  63      726A4C40 
  63      70BEB369 
  64 00ad 0062CB36 		.ascii	"\000b\3136\202"
  64      82
  65              		.text
  66              		.section	.gnu.lto_USBUART_RestoreConfig.c0d6900c,"",%progbits
  67 0000 789C758F 		.ascii	"x\234u\217\277KBQ\024\307\3179\367\371\203t\210\246"
  67      BF4B4251 
  67      14C7CF39 
  67      F7F98374 
  67      88A6
  68 0012 6870CC26 		.ascii	"hp\314&\035\242?\240\202Z#s\223\244\354\215eH\215\342"
  68      1DA23FA0 
  68      825A2373 
  68      93A4EC8D 
  68      65488DE2 
  69 0026 7D69D010 		.ascii	"}i\320\020aMA\330\226\375\260\214\246\300\226GCc\021"
  69      614D41D8 
  69      96FDB08C 
  69      A6C09647 
  69      436311
  70 0039 51515841 		.ascii	"QQXA\030\330\2268\304+\304\316}\006A\321\205\313\275"
  70      18D89638 
  70      C42BC4CE 
  70      7D0641D1 
  70      85CBBD
  71 004c F77B3FDF 		.ascii	"\367{?\337\3579G\300\337\325\313{\034\001z\370D\007"
  71      EF3947C0 
  71      DFD5CB7B 
  71      1C017AF8 
  71      4407
  72 005e 2065CF01 		.ascii	" e\317\001\0147\221(\371@\266i7A\220^\201ZK\326\020"
  72      0C379128 
  72      F940B669 
  72      3741905E 
  72      815A4BD6 
  73 0073 D5051052 		.ascii	"\325\005\020R$4L\341+\325\010\263fa\335\343\337\222"
ARM GAS  C:\Users\Thomas\AppData\Local\Temp\cc9NNei7.s 			page 5


  73      24344CE1 
  73      2BD508B3 
  73      6661DDE3 
  73      DF92
  74 0085 52BE2D1C 		.ascii	"R\276-\034w.vZ\004P\247V>n\243\037\230\251e\032\267"
  74      772E765A 
  74      0450A756 
  74      3E6EA31F 
  74      98A9651A 
  75 009a 1E678699 		.ascii	"\036g\206\231\366\326\037\356\240\223\353\302a\207)"
  75      F6D61FEE 
  75      A093EBC2 
  75      618729
  76 00a9 9BCD7A79 		.ascii	"\233\315zy\265\032D\247\000\213X\2540\240\352\274\020"
  76      B51A44A7 
  76      008B58AC 
  76      30A0EABC 
  76      10
  77 00ba A953DCE3 		.ascii	"\251S\334\343\351\332\321C\315\245<\357$8n\363j\245"
  77      E9DAD143 
  77      CDA53CEF 
  77      24386EF3 
  77      6AA5
  78 00cc 48C94FB9 		.ascii	"H\311O\271$\335\026QC\005\262\372T\271\270tW\211\025"
  78      24DD1651 
  78      4305B2FA 
  78      54B9B874 
  78      578915
  79 00df FBF92CF3 		.ascii	"\373\371,\363\226+\207\033\2064\230\022\270\213I\334"
  79      962B871B 
  79      86349812 
  79      B88B49DC 
  80 00ef C32EAE5D 		.ascii	"\303.\256]\300\034\3025f\356\322\223?\231F\376d\331"
  80      C01CC235 
  80      66EED293 
  80      3F9946FE 
  80      64D9
  81 0101 A5DCDC01 		.ascii	"\245\334\334\001\356+\016T\013\002J>Q\306\264i\235y"
  81      EE2B0E54 
  81      0B024A3E 
  81      51C6B469 
  81      9D79
  82 0113 150CBFCB 		.ascii	"\025\014\277\313ku\333q\200I\356\336\001\012\375p\376"
  82      6B75DB71 
  82      8049EEDE 
  82      010AFD70 
  82      FE
  83 0124 47726758 		.ascii	"GrgX\374&U\272f\017\370\210\206\331\034\262=\240\306"
  83      FC2655BA 
  83      660FF888 
  83      86D91CB2 
  83      3DA0C6
  84 0137 47A532DA 		.ascii	"G\2452\332\035\210\014\3533zbbN\237\212\206\342\363"
  84      1D880CEB 
  84      337A6262 
  84      4E9F8A86 
  84      E2F3
ARM GAS  C:\Users\Thomas\AppData\Local\Temp\cc9NNei7.s 			page 6


  85 0149 89981E19 		.ascii	"\211\230\036\031\011\305\007\373\"\341\320@\270\177"
  85      09C507FB 
  85      22E1D040 
  85      B87F
  86 0157 742C3A3B 		.ascii	"t,:;\035\210\301\027\014\302\214W"
  86      1D88C117 
  86      0CC28C57 
  87              		.text
  88              		.section	.gnu.lto_USBUART_Suspend.c0d6900c,"",%progbits
  89 0000 789C8556 		.ascii	"x\234\205V_LSg\024\377\316\275mimK\273i\304\224\310"
  89      5F4C5367 
  89      14FFCEBD 
  89      6D696D4B 
  89      BB69C494 
  90 0015 20108D89 		.ascii	" \020\215\211\260\247=\354e\311\266\207e/\213\031\363"
  90      B0A73DEC 
  90      65C9B687 
  90      652F8B19 
  90      F3
  91 0026 8DC4A8EB 		.ascii	"\215\304\250\353\333\206\206a\262\027\306-\324\201f"
  91      DB868661 
  91      B217C62D 
  91      D48166
  92 0035 71A5630B 		.ascii	"q\245c\013\233\"c\031\023G\3713T\234\272i\207\002\216"
  92      9B226319 
  92      1347F933 
  92      549CBA69 
  92      87028E
  93 0048 7F824C18 		.ascii	"\177\202L\030\312\020g1\350\334R(q6\002\3359\337w{\213"
  93      CA106731 
  93      E8DC5228 
  93      713602DD 
  93      39DF777B 
  94 005d 17DB35E9 		.ascii	"\027\3335\351\271\367~=\347\367\375\316\357\234\357"
  94      B9F77E3D 
  94      E7F7FDCE 
  94      EF9CEF
  95 006c 9ECA6CED 		.ascii	"\236\312l\355\347\025\374v[\030{\031\257`b \371\206"
  95      E715FC76 
  95      5B187B19 
  95      AF606220 
  95      F986
  96 007e 19F39825 		.ascii	"\031\363\230%I\23671e\235\241\241\2171\305&\203Q\254"
  96      499E3731 
  96      659DA1A1 
  96      8F31C526 
  96      8351AC
  97 0091 1BE23746 		.ascii	"\033\3427F\000\272a\300\312%\331`\204r\270/\315K\340"
  97      00BA61C0 
  97      CA25D960 
  97      8472B82F 
  97      CD4BE0
  98 00a4 0BB6D459 		.ascii	"\013\266\324Y\2676)\212\022\356\274\264\351\340\246"
  98      B736298A 
  98      12EEBCB4 
  98      E9E0A6
  99 00b3 A8C45844 		.ascii	"\250\304XD\022[\301\011\330\312\320\247\351A\254\321"
ARM GAS  C:\Users\Thomas\AppData\Local\Temp\cc9NNei7.s 			page 7


  99      125BC109 
  99      D8CAD0A7 
  99      E941ACD1 
 100 00c3 266F03BA 		.ascii	"&o\003\272\237\237\210|b\311mT\224\212\231\345\273\275"
 100      9F9F887C 
 100      62C96D54 
 100      948A99E5 
 100      BBBD
 101 00d5 56A54EF1 		.ascii	"V\245N\361\316\304b/D%\200f\2201\022\266\273`\233K%"
 101      CEC4622F 
 101      44258066 
 101      903112B6 
 101      BB609B4B 
 102 00ea 4B01DEE5 		.ascii	"K\001\336\345\011\253\311\213\0338\341$\344\012p\370"
 102      09ABC98B 
 102      1B38E124 
 102      E40A70F8 
 103 00fa 1E4C8017 		.ascii	"\036L\200\027Zi\177>\250\304b\247Vj\232s\345\355\006"
 103      5A697F3E 
 103      A8C462A7 
 103      566A9A73 
 103      E5ED06
 104 010d 464B4616 		.ascii	"FKF\026\225$\023\032\331Lw\026262v2\0162N2\353\311l"
 104      9524131A 
 104      D94C7716 
 104      32363276 
 104      320E324E 
 105 0125 20B3914C 		.ascii	" \263\221L\006\031\027\231L2\233\311d\221\311&\223C"
 105      06191799 
 105      4C329BC9 
 105      6491C926 
 105      9343
 106 0137 26974C1E 		.ascii	"&\227L\036\031\306B\370%If\361\001\257\362\024T\006"
 106      19C642F8 
 106      254966F1 
 106      01AFF214 
 106      5406
 107 0149 635519C4 		.ascii	"cU\031\304\355_\311\200\324\217\217\035i\223\312\236"
 107      ED5FC980 
 107      D48F8F1D 
 107      6993CA9E 
 108 0159 28D58A39 		.ascii	"(\325\2129*\031\"\0221n\2012\2146\262q\220x\022\310"
 108      2A192212 
 108      316E8132 
 108      8C36B271 
 108      907812C8 
 109 016d 169DD94D 		.ascii	"\026\235\331M\350~tx\270y\207\0106b\360\364\311\352"
 109      E87E7478 
 109      B8798708 
 109      3662F0F4 
 109      C9EA
 110 017f 6F614E8A 		.ascii	"oaN\212J\246\352\240G1\220\024\267C\327F\315|\211+s"
 110      4AA6EAA0 
 110      47319014 
 110      B743D746 
 110      CD7C892B 
 111 0194 F56CA833 		.ascii	"\365l\2503\275\036\216z\274\020\225\322 \000.h\005T"
ARM GAS  C:\Users\Thomas\AppData\Local\Temp\cc9NNei7.s 			page 8


 111      BD1E8E7A 
 111      BC1095D2 
 111      20002E68 
 111      0554
 112 01a6 0EDAA01E 		.ascii	"\016\332\240\036\020\261b\272*\004\002\2200\331\015"
 112      10B162BA 
 112      2A040290 
 112      30D90D
 113 01b5 F00E56EE 		.ascii	"\360\016V\356Q\027V\303\311\030\323\016B\363Y|\2327"
 113      511756C3 
 113      C918D30E 
 113      42F3597C 
 113      9A37
 114 01c7 C9181DEE 		.ascii	"\311\030\035\356\350\355\266\220\267>\023\363\262$J"
 114      E8EDB690 
 114      B73E13F3 
 114      B2244A
 115 01d6 A30198F9 		.ascii	"\243\001\230\371c\263\307{\014\210\217B^\026\350\200"
 115      63B3C77B 
 115      0C888F42 
 115      5E16E880 
 116 01e6 32F88160 		.ascii	"2\370\201`\361\267\225\300\247\235\246\374\026\254b"
 116      F1B795C0 
 116      A79DA6FC 
 116      16AC62
 117 01f5 F045AA75 		.ascii	"\360E\252u':.\3606\201S\220\217\016\243_}W\351 ,\000"
 117      273A2EF0 
 117      36815390 
 117      8F0EA35F 
 117      7D57E920 
 118 020b 06A7318A 		.ascii	"\006\2471\212+\322\333\362\221\340kF\227\207\013\203"
 118      2BD2DBF2 
 118      91E06B46 
 118      97870B83 
 119 021b 1D369EBE 		.ascii	"\0356\236\276/\256H\373\322g\313\216\204\004g4\011\272"
 119      2FAE48FB 
 119      D267CB8E 
 119      84046734 
 119      09BA
 120 022d 8404958F 		.ascii	"\204\004\225\217M\"\336\" \032\356\257\314\031\010\""
 120      4D22DE22 
 120      201AEEAF 
 120      CC190822 
 121 023d AD9CC159 		.ascii	"\255\234\301Y\261\213\037\324$\223\202\375\210`\010"
 121      B18B1FD4 
 121      249382FD 
 121      886008
 122 024c C1A6C01B 		.ascii	"\301\246\300\033\214\364\333\310\235\351EY\027\241\226"
 122      8CF4DBC8 
 122      9DE94559 
 122      17A196
 123 025b 807358DE 		.ascii	"\200sX\336\325\312Xq\355<\270\242\330~<\241{->\265$"
 123      D5CA5871 
 123      ED3CB8A2 
 123      D87E3CA1 
 123      7B2D3EB5 
 124 0270 3674FBFA 		.ascii	"6t\373\372\211o\324\3023\252\255R3\252\355=1)'H\\\320"
ARM GAS  C:\Users\Thomas\AppData\Local\Temp\cc9NNei7.s 			page 9


 124      896FD4C2 
 124      33AAAD52 
 124      33AAED3D 
 124      31292748 
 125 0286 48FCA4CB 		.ascii	"H\374\244\313\310. \0165U\0078DZ\024\205\373Y\227RR"
 125      C82E200E 
 125      35550738 
 125      445A1485 
 125      FB599752 
 126 029b B48B3C25 		.ascii	"\264\213<%\273\252r\240D`:Ru\325%\035\001'\372\257\321"
 126      BBAA72A0 
 126      44603A52 
 126      75D5251D 
 126      0127FAAF 
 127 02b0 30697490 		.ascii	"0it\220o\350\344\032~>\220R\303_P\303\247E\013t\250"
 127      6FE8E41A 
 127      7E3E9052 
 127      C35F50C3 
 127      A7450B74 
 128 02c5 A2ADC790 		.ascii	"\242\255\307\220\232\261\277\373M\\\264C\3616\010\325"
 128      9AB1BFFB 
 128      4D5CB443 
 128      F13608D5 
 129 02d5 36D6A525 		.ascii	"6\326\245%v\355\326v\275\034\347\374\361\222,\0206\010"
 129      76EDD676 
 129      BD1CE7FC 
 129      F1922C10 
 129      3608
 130 02e7 90BEFAB9 		.ascii	"\220\276\372\271N\336\010x(\341\012O\242\302\177'+e"
 130      4EDE0878 
 130      28E10A4F 
 130      A2C27F27 
 130      2B65
 131 02f9 BBEBFBBB 		.ascii	"\273\353\373\273'E\177\367\362\376\006\352\357>\310"
 131      27457FF7 
 131      F2FE06EA 
 131      EF3EC8
 132 0308 C76D4526 		.ascii	"\307mE&\377\004>\02446\246b}U\247t\206\360\257\2519"
 132      FF043E14 
 132      3436A662 
 132      7D55A774 
 132      86F0AFA9 
 133 031d 7D3C9D97 		.ascii	"}<\235\227z\005I\377\252S>)Z?W>\203+\337\220Z\371\001"
 133      7A0549FF 
 133      AA533E29 
 133      5A3F573E 
 133      832BDF90 
 134 0334 D1BDDA59 		.ascii	"\321\275\332Y\264\342>\203\253\0121\336\032\357^W\252"
 134      B4E23E83 
 134      AB0A31DE 
 134      1AEF5E57 
 134      AA
 135 0345 E61AD2F1 		.ascii	"\346\032\322\361\317D\3775|\223F\017s\276\231\252`\255"
 135      CF44FF35 
 135      7C93460F 
 135      73BE99AA 
 135      60AD
ARM GAS  C:\Users\Thomas\AppData\Local\Temp\cc9NNei7.s 			page 10


 136 0357 EA0B6033 		.ascii	"\352\013`3\206\324\365\255<\226y\345\375\361\312Ot}"
 136      86D4F5AD 
 136      3C9679E5 
 136      FDF1CA4F 
 136      747D
 137 0369 919700B9 		.ascii	"\221\227\000\271\246\201\214\250\024\026U\012Y\002\341"
 137      A6818CA8 
 137      1416550A 
 137      5902E1
 138 0378 5CDBE290 		.ascii	"\\\333\342\220\225\227=\233\301\250\216Q2\254\353\234"
 138      95973D9B 
 138      C1A88E51 
 138      32ACEB9C 
 139 0388 5096FA8E 		.ascii	"P\226\372\216n\363\253\022dc\310\227\017\033\273D/6"
 139      6EF3AB12 
 139      6463C897 
 139      0F1BBB44 
 139      2F36
 140 039a C50FF0E1 		.ascii	"\305\017\360\341\213\217\202\226\004\314\230\006\363"
 140      8B8F8296 
 140      04CC9806 
 140      F3
 141 03a7 9B4E951C 		.ascii	"\233N\225\034\204X\243J\322\350\033\234D\216 q\275@"
 141      8458A34A 
 141      D2E81B9C 
 141      448E2071 
 141      BD40
 142 03b9 40E462C4 		.ascii	"@\344b\304\255\232\360\220\030\012g\342\024f&<\035\266"
 142      AD9AF090 
 142      180A67E2 
 142      1466263C 
 142      1DB6
 143 03cb 04C8B806 		.ascii	"\004\310\270\0062\241\243\220\207\020k($\215\376\235"
 143      32A1A390 
 143      87106B28 
 143      248DFE9D 
 144 03db 53C8E38D 		.ascii	"S\310\343\2154\231\272\221&\351\010\253\235C3\305\300"
 144      3499BA91 
 144      26E908AB 
 144      9D4333C5 
 144      C0
 145 03ec F06F051F 		.ascii	"\360o\005\037*\341\245\377\031*\372Sv3\305)\273\225"
 145      2AE1A5FF 
 145      192AFA53 
 145      7633C529 
 145      BB95
 146 03fe 9822537C 		.ascii	"\230\"S|\212h\357]\032\265\177\360\2216\213\223OLgo"
 146      8A68EF5D 
 146      1AB57FF0 
 146      91368B93 
 146      4F4C676F 
 147 0412 303A203D 		.ascii	"0: =\223\265=\302g\3404\262\306a\034\225\322\031\315"
 147      93B53DC2 
 147      67E034B2 
 147      C6611C95 
 147      D219CD
 148 0425 725FFA33 		.ascii	"r_\3723\235q\220\033\320\371\266:\310Q\272\360\310\025"
ARM GAS  C:\Users\Thomas\AppData\Local\Temp\cc9NNei7.s 			page 11


 148      9D71901B 
 148      D0F9B63A 
 148      C851BAF0 
 148      C815
 149 0437 59CDE988 		.ascii	"Y\315\351\210\277\376\240\235\0108\224\236J%\375\251"
 149      BFFEA09D 
 149      0838949E 
 149      4A25FDA9 
 150 0447 59E0E039 		.ascii	"Y\340\3409\034\253\256\273\240\235S'\314\240\274w\270"
 150      1CABAEBB 
 150      A09D5327 
 150      CCA0BC77 
 150      B8
 151 0458 BC7F6232 		.ascii	"\274\177b2\370\373\370\320\203{\334\3759\005{\364\256"
 151      F8FBF8D0 
 151      837BDCFD 
 151      39057BF4 
 151      AE
 152 0469 284E78A4 		.ascii	"(Nx\244'\276\303\302_J\275A\354\320\255\356\260\270"
 152      27BEC3C2 
 152      5F4ABD41 
 152      ECD0ADEE 
 152      B0B8
 153 047b F08DDF9E 		.ascii	"\360\215\337\236\200\014i\220\263\010\311!\246\301\023"
 153      800C6990 
 153      B308C921 
 153      A6C113
 154 048a 3CFA164F 		.ascii	"<\372\026O\207\321\037\027 IP\270-\005Eo\270\213\335"
 154      87D11F17 
 154      204950B8 
 154      2D05456F 
 154      B88BDD
 155 049d 25BB4BDD 		.ascii	"%\273K\335\357\356*\334w\240d\257\273hG\341\276\327"
 155      EFEE2ADC 
 155      77A064AF 
 155      BB6847E1 
 155      BED7
 156 04af 5F2ADA59 		.ascii	"_*\332Y\370\332\316W\337~g\327\376\367\013\3662\247"
 156      F8DACE57 
 156      DF7E67D7 
 156      FEF70BF6 
 156      32A7
 157 04c1 BB78F79E 		.ascii	"\273x\367\236\367\334o\026\227\272KJ\016\354/\375\340"
 157      F7DC6F16 
 157      97BA4B4A 
 157      0EEC2FFD 
 157      E0
 158 04d2 3F5CBD78 		.ascii	"?\\\275x\363"
 158      F3
 159              		.text
 160              		.section	.gnu.lto_USBUART_Resume.c0d6900c,"",%progbits
 161 0000 789C8D95 		.ascii	"x\234\215\225_L\323W\024\307\357\271\277\376\243-\010"
 161      5F4CD357 
 161      14C7EFB9 
 161      BFFEA32D 
 161      08
 162 0011 0E993491 		.ascii	"\016\2314\221M\\\374\223\015\367\260\354a\217\333\036"
ARM GAS  C:\Users\Thomas\AppData\Local\Temp\cc9NNei7.s 			page 12


 162      4D5CFC93 
 162      0DF7B0EC 
 162      618FDB1E 
 163 0021 96652FCB 		.ascii	"\226e/\313\230{\"1\352\372\266\241a\370H\374\025\352"
 163      987B2231 
 163      EAFAB6A1 
 163      61F848FC 
 163      15EA
 164 0033 64860C04 		.ascii	"d\206\014\004f\252\223\271&C\353t\202\240\350\360\317"
 164      66AA93B9 
 164      2643EB74 
 164      82A0E8F0 
 164      CF
 165 0044 2A3040A4 		.ascii	"*0@\2442d\266\343\317\012&\340\234\021\006V\335\032"
 165      3264B6E3 
 165      CF0A26E0 
 165      9C110656 
 165      DD1A
 166 0056 D3B273EE 		.ascii	"\323\262s\356\355\257\205B\211Mz~\355\375\235\363=\237"
 166      EDAF8542 
 166      894D7A7E 
 166      EDFD9DF3 
 166      3D9F
 167 0068 7BEE3DF7 		.ascii	"{\356=\367*l\351\347\015\374\316\230\030{\013\237\240"
 167      2A6CE9E7 
 167      0DFCCE98 
 167      187B0B9F 
 167      A0
 168 0079 67C06B6E 		.ascii	"g\300kn1\3460q\256\264\3471\325\254\363\277\316T\253"
 168      31E63071 
 168      AEB4E731 
 168      D5ACF3BF 
 168      CE54AB
 169 008c 023A39AC 		.ascii	"\002:9\254\003\240\037\014\330>\256\350`\037\374\315"
 169      03A01F0C 
 169      D83EAEE8 
 169      601FFCCD 
 170 009c E738D478 		.ascii	"\3478\324xO\273,\233\032UU\235m\011\257\335\2776\314"
 170      4FBB2C9B 
 170      1A55559D 
 170      6D09AFDD 
 170      BF36CC
 171 00af 190B71A9 		.ascii	"\031\013q\251\017'a\023C\237\306\007\363n\253\262\005"
 171      0F276113 
 171      439FC607 
 171      F36EABB2 
 171      05
 172 00c0 E8F75C20 		.ascii	"\350\367\\ T\225\266\301\255\252\345\023\276\277\272"
 172      5495B6C1 
 172      ADAAE513 
 172      BEBFBA
 173 00cf 2DAA4B75 		.ascii	"-\252KuN\314\317\277\024\346\000\036P0\022^\263\301"
 173      4ECCCFBF 
 173      14E6001E 
 173      5030125E 
 173      B3C1
 174 00e1 165B8C90 		.ascii	"\026[\214\220\002\234\221\200\305\340\304\004\231p\012"
ARM GAS  C:\Users\Thomas\AppData\Local\Temp\cc9NNei7.s 			page 13


 174      029C9180 
 174      C5E0C404 
 174      99700A
 175 00f0 364871F8 		.ascii	"6Hq\370\021\014\200\017\032iZ\355U\347\347[\357\325"
 175      110C800F 
 175      1A695AED 
 175      55E7E75B 
 175      EFD5
 176 0102 7936EA37 		.ascii	"y6\3527\353\030\015\351Y\230s#\031\023\0313\031\013"
 176      EB180DE9 
 176      59987323 
 176      19131933 
 176      190B
 177 0114 99743219 		.ascii	"\231t2\031d2\311d\221\311&\263\206L\016\231\\262\353"
 177      6432C964 
 177      91C926B3 
 177      864C0E99 
 177      5C323632 
 178 0129 C8E49159 		.ascii	"\310\344\221YO&\237\014c\223\370\245:L\341\037|*cP\341"
 178      4F269F0C 
 178      6393F8A5 
 178      3A4CE11F 
 178      7C2A6350 
 179 013e 3D5EFD22 		.ascii	"=^\375\"\021\375\313u\010\374\335\320\327gy\3313\265"
 179      11FDCB75 
 179      08FCDDD0 
 179      D76779D9 
 179      33B5
 180 0150 52358539 		.ascii	"R5\2059\316\2108OC\031F\353\230\037\270@GFtf#P\3366"
 180      CE88384F 
 180      431946EB 
 180      981FB840 
 180      47467466 
 181 0168 F770C828 		.ascii	"\367p\310(\203\365\311\301\372\010\2275\030\237\034"
 181      83F5C9C1 
 181      FA089735 
 181      189F1C
 182 0177 1834DDE7 		.ascii	"\0304\335\3478\"\376z\034\316c\320\000\337:T\3622\300"
 182      3822FE7A 
 182      1CCE63D0 
 182      00DF3A54 
 182      F232C0
 183 018a 1928839F 		.ascii	"\031(\203\237\300&\336E\317T\267\030\012^\245z\236E"
 183      C026DE45 
 183      CF54B718 
 183      0A5EA57A 
 183      9E45
 184 019c 9F476229 		.ascii	"\237Gb)\240\011\012\330\035p\016W\354L\244r\234\270"
 184      A0090AD8 
 184      1D700E57 
 184      EC4CA472 
 184      9CB8
 185 01ae 5C652451 		.ascii	"\\e$Qt\201f\220%\237\342\012k\317SF\240c\266y\246N!"
 185      74816690 
 185      259FE20A 
 185      6BCF5346 
 185      A063B679 
ARM GAS  C:\Users\Thomas\AppData\Local\Temp\cc9NNei7.s 			page 14


 186 01c5 6F743DF4 		.ascii	"ot=\364\317\001\237\231\\\215jg\205\232\261\010\311"
 186      CF019F99 
 186      5C8D6A67 
 186      859AB108 
 186      C9
 187 01d6 28D20E3A 		.ascii	"(\322\016:\325\210\236\220\234\020\346&8\0076h!IhE\010"
 187      D5889E90 
 187      9C10E626 
 187      38073668 
 187      21496845 
 188 01eb 7CEFF73D 		.ascii	"|\357\367=\270'\334\323\324\227\031\234\307W\230\342"
 188      B827DCD3 
 188      D497199C 
 188      C75798E2 
 189 01fb E9C1685F 		.ascii	"\351\301h_-H\"#:\035y\350n3\220\223\271\361\200C\325"
 189      2D482223 
 189      3A1D79E8 
 189      6E339093 
 189      B9F18043 
 190 0210 2D4A6316 		.ascii	"-Jc\026i\016^{\352M\323\322X\340\002\246i\023i.b\032"
 190      690E5E7B 
 190      EA4DD3D2 
 190      58E002A6 
 190      6913692E 
 191 0226 94AC786C 		.ascii	"\224\254xl\220r&\251\330\323p\277E'\346\010\014.\311"
 191      907226A9 
 191      D8D370BF 
 191      4527E608 
 191      0C2EC9
 192 0239 AC32E34A 		.ascii	"\2542\343Jb?\243\030JH\304\216\017\244\242\031#F\017"
 192      623FA318 
 192      4A48C48E 
 192      0FA4A219 
 192      23460F
 193 024c CDFA24CD 		.ascii	"\315\372$\315\005\015p\"\340h\266&D\332\343\"\227\223"
 193      050D7022 
 193      E068B626 
 193      44DAE322 
 193      9793
 194 025e 882C28B1 		.ascii	"\210,(\261\004!e\364\025\201`\221\010\301\2335\261*"
 194      042165F4 
 194      15816091 
 194      08C19B35 
 194      B12A
 195 0270 A563CCF9 		.ascii	"\245c\314\371\351\351.\213\200h\270\036\203p\006\366"
 195      E9E92E8B 
 195      8068B81E 
 195      837006F6 
 196 0280 8F5A1232 		.ascii	"\217Z\0222W\3432\327\222 2Pb\011D\312\350_\004D\206"
 196      57E332D7 
 196      92203250 
 196      620944CA 
 196      E85F0444 
 197 0295 847814AB 		.ascii	"\204x\024\253C&F|\377\254f0M \324ku\250\357>9\254$D"
 197      4326467C 
 197      FFAC6630 
 197      4D20D46B 
ARM GAS  C:\Users\Thomas\AppData\Local\Temp\cc9NNei7.s 			page 15


 197      75A8EF3E 
 198 02ad BC7191EB 		.ascii	"\274q\221\353I\010Y(\261\004!et\207@\310bc\340\364\326"
 198      49085928 
 198      B1042165 
 198      748740C8 
 198      6263E0F4 
 199 02c2 0D59C99D 		.ascii	"\015Y\311\235%\267\2115$\266p'\366\030\276\272:>zW!"
 199      25B78935 
 199      24B67027 
 199      F618BEBA 
 199      3A3E7A57 
 200 02d7 B6F4CD0C 		.ascii	"\266\364\315\014\272\300\026\326&\020\354/\221\004\331"
 200      BAC016D6 
 200      2610EC2F 
 200      9104D9
 201 02e6 B4A387A6 		.ascii	"\264\243\207\246\373\344V\373\312\033\233\301d\275\333"
 201      FBE456FB 
 201      CA1B9BC1 
 201      64BDDB
 202 02f5 654C30FC 		.ascii	"eL0\374\032g\350\2263(os\027H\2015)\0335\2713{\226\357"
 202      1A67E896 
 202      33286F73 
 202      17488135 
 202      291B35B9 
 203 030d CC5ED199 		.ascii	"\314^\321\231@\235y\003;\223\252\363e\277\"\305s\020"
 203      409D7903 
 203      3B93AAF3 
 203      65BF22C5 
 203      7310
 204 031f 10532C2A 		.ascii	"\020S,*OJ\264>Q\236\034Q\236#+\227\347\246,O\274\241"
 204      4F4AB43E 
 204      519E1C51 
 204      9E232B97 
 204      E7A62C4F 
 205 0335 D271AC7F 		.ascii	"\322q\254\177Ay\242\375\332&\313]iA|I\313i\223\376G"
 205      4179A2FD 
 205      DA26CB5D 
 205      69417C49 
 205      CB6993FE 
 206 034a 03538F45 		.ascii	"\003S\217E\3251\027\334z\336\325\035\020\3706\201\177"
 206      D53117DC 
 206      7ADED51D 
 206      10F83681 
 206      7F
 207 035b 6E65FCDF 		.ascii	"ne\374\337$\376\300Dg\265U\340c\236\301\005\370~\237"
 207      24FEC044 
 207      67B555E0 
 207      639EC105 
 207      F87E9F
 208 036e 86BF6EA5 		.ascii	"\206\277n\245\214\267\223\360\363\244\177{m\257Kl\007"
 208      8CB793F0 
 208      F3A47F7B 
 208      6DAF4B6C 
 208      07
 209 037f 3C9461E8 		.ascii	"<\224a\350y\361\177\027\370yL\234\226\221.\243v\256"
 209      79F17F17 
 209      F8794C9C 
ARM GAS  C:\Users\Thomas\AppData\Local\Temp\cc9NNei7.s 			page 16


 209      96912EA3 
 209      76AE
 210 0391 54796EE8 		.ascii	"Tyn\350\305\336\362h{\253\332u\370\266<\036\035\336"
 210      C5DEF268 
 210      7BABDA75 
 210      F8B63C1E 
 210      1DDE
 211 03a3 5C12B913 		.ascii	"\\\022\271\023\027\361\313\003\262\351\370\223(P\220"
 211      17F1CB03 
 211      B2E9F893 
 211      285090
 212 03b2 456110D0 		.ascii	"Ea\020\320\316\307\231\201\330\236]\217.\301S\225?\010"
 212      CEC79981 
 212      D89E5D8F 
 212      2EC15395 
 212      3F08
 213 03c4 1773A5A6 		.ascii	"\027s\245\246\333{q\262%#\201\366G\\u8i\236\371R\342"
 213      DB7B71B2 
 213      252381F6 
 213      475C7538 
 213      699EF952 
 214 03d9 9B2BC76A 		.ascii	"\233+\307jE\343r\025\017\304\221\244\211\246T\033\025"
 214      45E37215 
 214      0FC491A4 
 214      89A6541B 
 214      15
 215 03ea 13CD17EB 		.ascii	"\023\315\027\353\024I\261N\253Bxu0\030\223\3534x\364"
 215      1449B14E 
 215      AB427875 
 215      301893EB 
 215      3478F4
 216 03fd 44C52A4A 		.ascii	"D\305*J\224\211y\376\244u\312\022e\232\355z\242\225"
 216      948979FE 
 216      A475CA12 
 216      659AED7A 
 216      A295
 217 040f C9D513FD 		.ascii	"\311\325\023\375Ol\031s\2556\235@\333\341W\026V)\030"
 217      4F6C1973 
 217      AD369D40 
 217      DBE15716 
 217      562918
 218 0422 27184702 		.ascii	"'\030G\002\2610t\335\272r\226%X\035\302\325c0!\356\332"
 218      B13074DD 
 218      BA729625 
 218      581DC2D5 
 218      633021EE 
 219 0437 17C465A6 		.ascii	"\027\304e\246\213]\321\270\275\374|\331\240\354\020"
 219      8B5DD1B8 
 219      BDFC7CD9 
 219      A0EC10
 220 0446 5DAA7017 		.ascii	"]\252p\027\203\360F\016c\343\005\301\341m\375D83\272"
 220      83F0460E 
 220      63E305C1 
 220      E16DFD44 
 220      3833BA
 221 0459 EE813470 		.ascii	"\356\2014p\013n\334Z\364\236\275\330^\262\243\324\376"
 221      0B6EDC5A 
ARM GAS  C:\Users\Thomas\AppData\Local\Temp\cc9NNei7.s 			page 17


 221      F49EBDD8 
 221      5EB2A3D4 
 221      FE
 222 046a E9F6C2DD 		.ascii	"\351\366\302\335{Kv\331\213>,\334\375\356\233E\333\012"
 222      7B4B76D9 
 222      8B3E2CDC 
 222      FDEE9B45 
 222      DB0A
 223 047c DFD9F6F6 		.ascii	"\337\331\366\366G\037o\337\363\371\326],\323^\274c\347"
 223      471F6FDF 
 223      F3F9D65D 
 223      2CD35EBC 
 223      63E7
 224 048e 67F6F78B 		.ascii	"g\366\367\213K\355%%{\367\224~\361?\270\300,M"
 224      4BED2525 
 224      7BF7947E 
 224      F13FB8C0 
 224      2C4D
 225              		.text
 226              		.section	.gnu.lto_.symbol_nodes.c0d6900c,"",%progbits
 227 0000 789C55CB 		.ascii	"x\234U\3131\012\302@\020\205\341\2673\233M\262I\300"
 227      310AC240 
 227      1085E1B7 
 227      339B4DB2 
 227      49C0
 228 0012 1B78899C 		.ascii	"\033x\211\234\303+M\212`a!B\300R\202\344\010z\203`\241"
 228      C32B4D8A 
 228      60612142 
 228      C05282E4 
 228      087A8360 
 229 0027 90425B0B 		.ascii	"\220B[\013\213\224\236A\3345)\326i~\276\007\303\000"
 229      8B949E41 
 229      DC3529D6 
 229      697EBE07 
 229      C300
 230 0039 560AD391 		.ascii	"V\012\323\221\022`7\000\"8\264\011\210D\375\231\205"
 230      12603700 
 230      2238B409 
 230      8844FD99 
 230      85
 231 004a 42473116 		.ascii	"BG1\026\002\322\302\177+TK\302\024\211\016ge$\232\214"
 231      02D2C27F 
 231      2B544BC2 
 231      14890E67 
 231      65249A8C 
 232 005e AA724CC5 		.ascii	"\252rL\305\204L$\016\231K\0222\2234\244\025\033\262"
 232      844C240E 
 232      994B1232 
 232      9334A415 
 232      1BB2
 233 0070 902C2023 		.ascii	"\220, #F\367\372(\246\024\343\251dJP\237K\326\371\264"
 233      46F7FA28 
 233      A614E3A9 
 233      644A509F 
 233      4BD6F9B4 
 234 0084 EA0CFDFA 		.ascii	"\352\014\375\372\371k\267\231Zog7\276\026c\363^\262"
 234      F96BB799 
ARM GAS  C:\Users\Thomas\AppData\Local\Temp\cc9NNei7.s 			page 18


 234      5A6F6737 
 234      BE1663F3 
 234      5EB2
 235 0096 8E51EF5D 		.ascii	"\216Q\357]\315\374g\334\337\365b|\307\333\334\301\267"
 235      CDFC67DC 
 235      DFF5627C 
 235      C7DBDCC1 
 235      B7
 236 00a7 C078F725 		.ascii	"\300x\367%\034\037\276\026\275\373\307\027\202\337V"
 236      1C1FBE16 
 236      BDFBC717 
 236      82DF56
 237 00b6 5A       		.ascii	"Z"
 238              		.text
 239              		.section	.gnu.lto_.refs.c0d6900c,"",%progbits
 240 0000 789C6366 		.ascii	"x\234cf``\220d\200\000F&\006fFf\026FV6FV\021FV5&6\006"
 240      60609064 
 240      80004626 
 240      06664666 
 240      16465636 
 241 001d 56660656 		.ascii	"Vf\006V\021\006\000\011z\000\246"
 241      11060009 
 241      7A00A6
 242              		.text
 243              		.section	.gnu.lto_.decls.c0d6900c,"",%progbits
 244 0000 789C8D56 		.ascii	"x\234\215VmPTU\030\276g\317\262\300\345\303\312\244"
 244      6D505455 
 244      18BE67CF 
 244      B2C0E5C3 
 244      CAA4
 245 0012 629A0974 		.ascii	"b\232\011t\206>\206,\355c\232\351\207\325\332\224S\323"
 245      863E862C 
 245      ED639AE9 
 245      87D5DA94 
 245      53D3
 246 0024 3020BF72 		.ascii	"0 \277r\206A\274\031\023\002\301\322\304\257\216\200"
 246      8641BC19 
 246      1302C1D2 
 246      C4AF8E80 
 247 0034 1F691952 		.ascii	"\037i\031R)\254}\254\001ad\210\025\310\307&\273b\272"
 247      29AC7DAC 
 247      01616488 
 247      15C8C726 
 247      BB62BA
 248 0047 862022A2 		.ascii	"\206 \"\242@\352\002!\010*+_-l\271\275\347\334sw\357"
 248      40EA0221 
 248      082A2B5F 
 248      2D6CB9BD 
 248      E7DC7377 
 249 005c 2D76ECCE 		.ascii	"-v\354\316\274\273\367\334}\336\347<\357\363\236s\356"
 249      BCBBF7DC 
 249      7DDEE73C 
 249      EFF39E73 
 249      EE
 250 006d 624110E2 		.ascii	"bA\020\342u\202\340\205+(L\020\236\200{\003<K\200\200"
 250      7582E085 
 250      2B284C10 
ARM GAS  C:\Users\Thomas\AppData\Local\Temp\cc9NNei7.s 			page 19


 250      9E807B03 
 250      3C4B8080 
 251 0081 5BA106A2 		.ascii	"[\241\006\242N\220\257p\210\006\210&\010+\304Q\010\033"
 251      4E90AF70 
 251      88068826 
 251      082BC451 
 251      081B
 252 0093 8403E237 		.ascii	"\204\003\3427\210\323\020\235\020\335\020=\020}\234"
 252      88D3109D 
 252      10DD103D 
 252      107D9C
 253 00a2 E312C4A8 		.ascii	"\343\022\304\250\240\275(\017\346\363\\\2038\301\237"
 253      A0BD280F 
 253      E6F35C83 
 253      38C19F
 254 00b1 EBF86F0E 		.ascii	"\353\370o\016\341\277\027\235\027\361\034\201\3377-"
 254      E1BF179D 
 254      17F11C81 
 254      DF372D
 255 00c0 80A3DA94 		.ascii	"\200\243\332\224\032\242 \306 \372!\306!\3529\006s\334"
 255      1AA220C6 
 255      20FA21C6 
 255      21EA3906 
 255      73DC
 256 00d2 69AE1D71 		.ascii	"i\256\035q\235\352\213\326w\017\3479\316\271n\250\364"
 256      9DEA8BD6 
 256      770FE739 
 256      CEB96EA8 
 256      F4
 257 00e3 4E42B820 		.ascii	"NB\270 \246 \256BL\013\262_]\0203\020\035\020\363\020"
 257      A620AE42 
 257      4C0BB25F 
 257      5D103310 
 257      1D10F310 
 258 00f7 6E88585E 		.ascii	"n\210X^\333 \304\000D\020\347\357\341~u\362\232\321"
 258      DB20C400 
 258      4410E7EF 
 258      E17E75F2 
 258      9AD1
 259 0109 025ED9F8 		.ascii	"\002^\331\370\334j\035\212\006en\365<\212.\265\036\217"
 259      DC6A1D8A 
 259      06656EF5 
 259      3C8A2EB5 
 259      1E8F
 260 011b 20F7F1A2 		.ascii	" \367\361\242\312\007E\243Z\227\201\317\247\350\352"
 260      CA0745A3 
 260      5A9781CF 
 260      A7E8EA
 261 012a E33E7506 		.ascii	"\343>u\006\320vK\207\332\006\335S\341\243:\024)\336"
 261      D0764B87 
 261      DA06DD53 
 261      E1A33A14 
 261      29DE
 262 013c 4587E60B 		.ascii	"E\207\346\013\303\323\030\206\341\242\216\016\277\234"
 262      C3D31886 
 262      E1A28E0E 
 262      BF9C
ARM GAS  C:\Users\Thomas\AppData\Local\Temp\cc9NNei7.s 			page 20


 263 014a BC690DC5 		.ascii	"\274i\015\305:D\357\313K\007\272\305\370jB\310vbs ?"
 263      3A44EFCB 
 263      4B07BAC5 
 263      F86A42C8 
 263      76627320 
 264 015f C5E66F9B 		.ascii	"\305\346o\233?\012\206\234\030\221\015\367\216\273\177"
 264      3F0A869C 
 264      18910DF7 
 264      8EBB7F
 265 016e 0E6143AF 		.ascii	"\016aC\257\027\303\003\235g\250\246\312\200\342\304"
 265      17C3039D 
 265      67A8A6CA 
 265      80E2C4
 266 017d 0A48751D 		.ascii	"\012Hu\035\350\351{\220\020=\252A\"\372\016aT\215\342"
 266      E8E97B90 
 266      103DAA41 
 266      22FA0E61 
 266      548DE2
 267 0190 A9389A4B 		.ascii	"\2518\232K\257\355\204\024\020RH\202\016D\012\250\012"
 267      AFED8414 
 267      10524882 
 267      0E440AA8 
 267      0A
 268 01a1 45A30328 		.ascii	"E\243\003(Z@?\2408@0,\372\036\036\036\244\017\201\001"
 268      5A403FA0 
 268      3840302C 
 268      FA1E1E1E 
 268      A40F8101 
 269 01b5 666BAC99 		.ascii	"fk\254\231n\017c\372c\350\344M%\216R\003\323\257\247"
 269      6E0F63FA 
 269      63E8E44D 
 269      258E5203 
 269      D3AFA7
 270 01c8 C3818B17 		.ascii	"\303\201\213\027\254\301\370i\244\226\031+\313\274\262"
 270      ACC1F869 
 270      A496192B 
 270      CBBCB2
 271 01d7 6FAE2294 		.ascii	"o\256\"\224\015\351\356YD\2056\037+9+r\241\226\203\021"
 271      0DE9EE59 
 271      4485361F 
 271      2B392B72 
 271      A1968311 
 272 01eb 08D581C8 		.ascii	"\010\325\201\310\303~\221\261j\221\305\205$\324\001"
 272      C37E91B1 
 272      6A91C585 
 272      24D401
 273 01fa 220F819E 		.ascii	"\"\017\201\236Z\252\347g\020\031\313E\376\010\017\177"
 273      5AAAE767 
 273      1019CB45 
 273      FE080F7F 
 274 020a A20FEB98 		.ascii	"\242\017\353\230\310f\317`\267\376\276\317\201\226\246"
 274      C866CF60 
 274      B7FEBECF 
 274      8196A6
 275 0219 DDA54709 		.ascii	"\335\245G\011Q\276<\001\325\243\373\340\363M\275\354"
 275      51BE3C01 
 275      D5A3FBE0 
ARM GAS  C:\Users\Thomas\AppData\Local\Temp\cc9NNei7.s 			page 21


 275      F34DBDEC 
 276 0229 66735F77 		.ascii	"fs_wQ\010~\236I\356\257\250?\267(\346+b\251u\231\207"
 276      51087E9E 
 276      49EEAFA8 
 276      3FB728E6 
 276      2B62A975 
 277 023f 7A7465C4 		.ascii	"zte\304R@n{\275\210\345\240#>e\002\275g\322P\003\212"
 277      52406E7B 
 277      BD88E5A0 
 277      233E6502 
 277      BD67D250 
 278 0255 8144FBA1 		.ascii	"\201D\373\2412{0~\227\221\\\376f\327G\006 \251\255u"
 278      327B307E 
 278      97915CFE 
 278      66D74706 
 278      20A9AD75 
 279 0269 96B64AB6 		.ascii	"\226\266J\266\"\362\027\355\013chT14*\014M\214a\334"
 279      22F217ED 
 279      0B636854 
 279      31342A0C 
 279      4D8C61DC 
 280 027d 7564C280 		.ascii	"ud\302\200\213\020\243\030\331\351\271\027\030\234\265"
 280      8B10A318 
 280      D9E9B917 
 280      189CB5
 281 028c 96867283 		.ascii	"\226\206r\203\203\330\274\336U,\277Y\225\337\254\344"
 281      83D8BCDE 
 281      552CBF59 
 281      95DFACE4 
 282 029c 5B59BEBB 		.ascii	"[Y\276\273\313l\023\261Y\316\257\370j\344o=\253\303"
 282      CB6C13B1 
 282      59CEAFF8 
 282      6AE46F3D 
 282      ABC3
 283 02ae E2D110FC 		.ascii	"\342\321\020\374\242\"\370E!8\312\010H\361\231Sz\\-"
 283      A222F845 
 283      2138CA08 
 283      48F19953 
 283      7A5C2D
 284 02c1 134C381A 		.ascii	"\023L8\032\354a2A[\225\232\240EE\320\242\020\330\030"
 284      EC613241 
 284      5B959AA0 
 284      4545D0A2 
 284      10D818
 285 02d4 414FCBB6 		.ascii	"AO\313\266m!\270\021i\232\037%7\177W\233\331\216\331"
 285      6D21B811 
 285      699A1F25 
 285      377F579B 
 285      D98ED9
 286 02e7 D04B7FD6 		.ascii	"\320K\177\326\365\366~6\207\221\030\307:\353*!\370~"
 286      F5F67E36 
 286      879118C7 
 286      3AEB2A21 
 286      F87E
 287 02f9 01C547A3 		.ascii	"\001\305G\243G\241\203\277B[\243x[\217A\317Z\241g\362"
 287      47A183BF 
 287      425BA378 
ARM GAS  C:\Users\Thomas\AppData\Local\Temp\cc9NNei7.s 			page 22


 287      5B8F41CF 
 287      5AA167F2 
 288 030d 4AEE9657 		.ascii	"J\356\226W\362qX$v\377\"\211\022}\033\343\303\242Z\254"
 288      F2715824 
 288      76FF2289 
 288      127D1BE3 
 288      C3A25AAC 
 289 0321 EE3A45FA 		.ascii	"\356:E\372\333~B\323\366\261\003\016p\260EV[0\323\330"
 289      DB7E42D3 
 289      F6B1030E 
 289      70B04556 
 289      5B30D3D8 
 290 0335 485BE624 		.ascii	"H[\346$\256\306\221\236\3602\262_\351;$\241\223\252"
 290      AEC6919E 
 290      F032B25F 
 290      E93B24A1 
 290      93AA
 291 0347 9A4F2A35 		.ascii	"\232O*5;X\315\177\225\357\361\0300\2217\354|]\313`\244"
 291      3B58CD7F 
 291      95EFF118 
 291      309137EC 
 291      7C5DCB60 
 292 035c CC72F0C3 		.ascii	"\314r\360\303\226\025*\026\352\334)\025\313)\205\345"
 292      96152A16 
 292      EADC2915 
 292      CB2985E5 
 293 036c 37C672DB 		.ascii	"7\306r\333Y\262[\217\2552\313\307\255\236\356\010\306"
 293      59B25B8F 
 293      AD32CBC7 
 293      AD9EEE08 
 293      C6
 294 037d 62F1546E 		.ascii	"b\361Tn\215Qy\337\246bhS\030N3\206\342-\366b\275\036"
 294      8D5179DF 
 294      A6626853 
 294      184E3386 
 294      E22DF662 
 295 0393 8E2656F3 		.ascii	"\216&V\363\233l/\316x\007*u\0017A\007s\243\035q;\256"
 295      9B6C2FCE 
 295      78072A75 
 295      01374107 
 295      73A31D71 
 296 03a9 FF70B836 		.ascii	"\377p\2706\014w\360\223\247\330\332/\333Q{\272\355\003"
 296      0C77F093 
 296      A7D8DA2F 
 296      DB517BBA 
 296      ED03
 297 03bb 551D9084 		.ascii	"U\035\220\204\316\250T\234QTt2\025\326\212\261\233a"
 297      CEA8549C 
 297      51547432 
 297      15D68AB1 
 297      9B61
 298 03cd 4C458D4F 		.ascii	"LE\215O\305\225\272\331#b@\025]L\305YE\305\247\003N"
 298      C595BAD9 
 298      23624015 
 298      5D4CC559 
 298      45C5A703 
 299 03e2 7310DE8A 		.ascii	"s\020\336\212\231\212\235\263\227\247\220l\304D\271"
ARM GAS  C:\Users\Thomas\AppData\Local\Temp\cc9NNei7.s 			page 23


 299      998A9DB3 
 299      97A7906C 
 299      C444B9
 300 03f1 CF08C840 		.ascii	"\317\010\310@\347T\022\316)\022\272\231\2043c\263e\""
 300      E75412CE 
 300      2912BA99 
 300      843363B3 
 300      6522
 301 0403 2E9619AE 		.ascii	".\226\031\256|_\231\301\010\234\177\017I\307\224\215"
 301      7C5F99C1 
 301      089C7F0F 
 301      49C7948D 
 302 0413 485B7A5E 		.ascii	"H[z^\305p^a\350a\014\346\262^\202X\021u\276\"F;\255"
 302      C5705E61 
 302      E8610CE6 
 302      B25E8258 
 302      1175BE22 
 303 042a 8F07ACE1 		.ascii	"\217\007\254\341\"\253\341\202RC\337\256\371v\021W\311"
 303      22ABE182 
 303      5243DFAE 
 303      F9761157 
 303      C9
 304 043b 0A0AEAAD 		.ascii	"\012\012\352\255[\364\262\204\271V\277\004HA\275*\011"
 304      5BF4B284 
 304      B956BF04 
 304      4841BD2A 
 304      09
 305 044c BD8A843E 		.ascii	"\275\212\204>&\241nvGc\204\270\235\236\313w\336\033"
 305      26A16E76 
 305      476384B8 
 305      9D9ECB77 
 305      DE1B
 306 045e F4C469DD 		.ascii	"\364\304i\335?\020\214\353\344)\311\361\362V\274l?\251"
 306      3F108CEB 
 306      E429C9F1 
 306      F256BC6C 
 306      3FA9
 307 0470 2874EDFB 		.ascii	"(t\355\373d<\342P\0159\266\271\210\334^\345\305\250"
 307      643CE250 
 307      0D39B6B9 
 307      88DC5EE5 
 307      C5A8
 308 0482 1F0AFA5D 		.ascii	"\037\012\372]\236\2263\012t\314f\276\204\226A\362\357"
 308      9E96330A 
 308      74CC66BE 
 308      849641F2 
 308      EF
 309 0493 935737E1 		.ascii	"\223W7\341\011\231\250\245\346\\i\010\336\242\227O\244"
 309      0999A8A5 
 309      E65C6908 
 309      DEA2974F 
 309      A4
 310 04a4 B96B5511 		.ascii	"\271kU\021x7\033\350\277k\252\337\023\212\226.]\034"
 310      78371BE8 
 310      BF6BAADF 
 310      138A962E 
 310      5D1C
ARM GAS  C:\Users\Thomas\AppData\Local\Temp\cc9NNei7.s 			page 24


 311 04b6 6781FDEB 		.ascii	"g\201\375\353\364\014\237\010#\245O\262\245\347\004"
 311      F40C9F08 
 311      23A54FB2 
 311      A5E704
 312 04c5 FA21B458 		.ascii	"\372!\264X\021\374\010\235\"\036>\004\212\264\314\017"
 312      11FC089D 
 312      221E3E04 
 312      8AB4CC0F 
 313 04d5 0771DC95 		.ascii	"\007q\334\225\005p\217Q\334n\346\262\205\274\360\256"
 313      05708F51 
 313      DC6EE6B2 
 313      85BCF0AE 
 314 04e5 FF7D2430 		.ascii	"\377}$0(U\375\007\0300\210\226\242\001\264\224\031F"
 314      2855FD07 
 314      18308896 
 314      A201B494 
 314      1946
 315 04f7 0F06A7BB 		.ascii	"\017\006\247\273\322@\020\205\010\212\241\312\211\240"
 315      D2401085 
 315      088AA1CA 
 315      89A0
 316 0505 EB6F37EF 		.ascii	"\353o7\357\2057\314b\206\363J!\350*\020]\366\037\036"
 316      8537CC62 
 316      86F34A21 
 316      E82A105D 
 316      F61F1E
 317 0518 34895D0B 		.ascii	"4\211]\013M\213\206a\266@3\203'U\303\023GD\274G6\350"
 317      4D8B8661 
 317      B6403383 
 317      2755C313 
 317      4744BC47 
 318 052e C2DEEAE3 		.ascii	"\302\336\352\343\"\330N,.sa\327C\233\351\253\203\320"
 318      22D84E2C 
 318      2E7361D7 
 318      439BE9AB 
 318      83D0
 319 0540 05CBA61C 		.ascii	"\005\313\246\034\341\256\373+\032\341\276\2172\337\335"
 319      E1AEFB2B 
 319      1AE1BE8F 
 319      32DFDD
 320 054f FB07AE2E 		.ascii	"\373\007\256.\012\337\341\177\317\261U\352_c\327P8C"
 320      0ADFE17F 
 320      CFB155EA 
 320      5F63D750 
 320      3843
 321 0561 C337A07B 		.ascii	"\3037\240{\247\257\177\021\256A\367kN\2721\216\036c"
 321      A7AF7F11 
 321      AE41F76B 
 321      4EBA318E 
 321      1E63
 322 0573 E8CBA5B6 		.ascii	"\350\313\245\266\035z\015\272^\303=\216\302\025;\306"
 322      1D7A0DBA 
 322      5EC33D8E 
 322      C2153BC6 
 323 0583 6902B657 		.ascii	"i\002\266W\331\373D\024-F\227\302?\017\367C\350\006"
 323      D9FB4414 
 323      2D4697C2 
ARM GAS  C:\Users\Thomas\AppData\Local\Temp\cc9NNei7.s 			page 25


 323      3F0FF743 
 323      E806
 324 0595 12E92B18 		.ascii	"\022\351+\030\216\340\002\202K#\005\337\332\241?\010"
 324      8EE00282 
 324      4B2305DF 
 324      DAA13F08 
 325 05a5 E826305D 		.ascii	"\350&0]\007&\212\266\215z\275\037x\345\353\223`\006"
 325      07268AB6 
 325      8D7ABD1F 
 325      78E5EB93 
 325      6006
 326 05b7 A01F7459 		.ascii	"\240\037tY\356\335Y\021\202+\231Y\272\356\216\035=\241"
 326      EEDD5911 
 326      822B9959 
 326      BAEE8E1D 
 326      3DA1
 327 05c9 F2F1FFEF 		.ascii	"\362\361\377\357%~+\340\361\357\036z\265\210\274\200"
 327      257E2BE0 
 327      F1EF1E7A 
 327      B588BC80 
 328 05d9 5C50EA84 		.ascii	"\\P\352\204\277\203\375Hu\376\017\232\333\265\276\270"
 328      BF83FD48 
 328      75FE0F9A 
 328      DBB5BEB8 
 329 05e9 34BE4C72 		.ascii	"4\276Lr_&\231/\205'\311r\015\2306\312\017\236\342\340"
 329      5F26992F 
 329      8527C972 
 329      0D9836CA 
 329      0F9EE2E0 
 330 05fd 2906EE6B 		.ascii	")\006\356k\262_\212\320\240\2734&Ns\3644C\027\227\354"
 330      B25F8AD0 
 330      A0BB3426 
 330      4E73F434 
 330      431797EC 
 331 0611 3B1AAA41 		.ascii	";\032\252Awh\3203\034=\303\320\333K\352\307\203p\265"
 331      7768D033 
 331      1C3DC3D0 
 331      DB4BEAC7 
 331      8370B5
 332 0624 BC8EBA3E 		.ascii	"\274\216\272>\277\365u\210\274\367\377\327?\036ps\247"
 332      BFF57588 
 332      BCF7FFD7 
 332      3F1E7073 
 332      A7
 333 0635 7BF456A4 		.ascii	"{\364V\244\342\346\177\222\346\026Hb\177\270n\257\010"
 333      E2E67F92 
 333      E6164862 
 333      7FB86EAF 
 333      08
 334 0646 416EF067 		.ascii	"An\360g\326o\346\237*3\033N\035\036\324ijpk\314\234"
 334      D66FE69F 
 334      2A331B4E 
 334      1D1ED469 
 334      6A706BCC 
 335 065b E735CCB3 		.ascii	"\3475\314\263\032\254\205\255Ea\032\364EM\305\036\216"
 335      1AAC85AD 
 335      45611AF4 
ARM GAS  C:\Users\Thomas\AppData\Local\Temp\cc9NNei7.s 			page 26


 335      454DC51E 
 335      8E
 336 066c A6DF86BC 		.ascii	"\246\337\206\274\364L\323\212g\015\257\274\221\034c"
 336      F44CD38A 
 336      670DAFBC 
 336      911C63
 337 067b 14962D5F 		.ascii	"\024\226-_\367\212\224)\345\244\232\244\015)IYy9i\322"
 337      F78A9429 
 337      E5A49AA4 
 337      0D294959 
 337      793969D2 
 338 068f BA84A42C 		.ascii	"\272\204\244,\3433\353\322\362M\371\331R\356\362\267"
 338      E333EBD2 
 338      F24DF9D9 
 338      52EEF2B7 
 339 069f E58CA756 		.ascii	"\345\214\247VF&'\275\224\374b\342\332\224\325\011)k"
 339      462627BD 
 339      94FC62E2 
 339      DA94D509 
 339      296B
 340 06b1 9212E302 		.ascii	"\222\022\343\002f*\270\354M\313\323\204{\224QR\352{"
 340      662AB8EC 
 340      4DCBD384 
 340      7B945152 
 340      EA7B
 341 06c3 92312BF3 		.ascii	"\2221+\363\255\364\215K\224G\211R\256)+\207?]\344\003"
 341      ADF48D4B 
 341      94478952 
 341      AE292B87 
 341      3F5DE403 
 342 06d7 E6E5664B 		.ascii	"\346\345fK\231\033\"U\250\274MR\020\025\361\334\003"
 342      991B2255 
 342      A8BC4D52 
 342      1015F1DC 
 342      03
 343 06e8 3E0DD929 		.ascii	">\015\331)\306\014)5gM\246I\312\311\311\3136\335Y\316"
 343      C60C2935 
 343      674DA649 
 343      CAC9C9CB 
 343      36DD59CE 
 344 06fc EA6CA865 		.ascii	"\352l\250e\2612z9;\311\004\3305\231\351\246\207\357"
 344      B1327A39 
 344      3BC904D8 
 344      3599E9A6 
 344      87EF
 345 070e 5CC97B26 		.ascii	"\\\311{&\310\275[\031\312\202\023\245\215K\214\371/"
 345      C8BD5B19 
 345      CA8213A5 
 345      8D4B8CF9 
 345      2F
 346 071f BF9F6E32 		.ascii	"\277\237n2\346\244\233\322\323R3\222\2444SzVfl@>c\376"
 346      E6A49BD2 
 346      D3523392 
 346      A434537A 
 346      56666C40 
 347 0736 EBE9EB81 		.ascii	"\353\351\353\201)\324\230\277Z\312H\315O\316\215\002"
 347      29D498BF 
ARM GAS  C:\Users\Thomas\AppData\Local\Temp\cc9NNei7.s 			page 27


 347      5ACA48CD 
 347      4FCE8D02 
 348 0746 065AC2BF 		.ascii	"\006Z\302\277(\"8\300\230\237\226!\345\372\014Kc\023"
 348      282238C0 
 348      989F9621 
 348      E5FA0C4B 
 348      6313
 349 0758 E7013360 		.ascii	"\347\0013`\002\267\216\303a\"_\346K/\032_KNHIZ\233\230"
 349      02B78EC3 
 349      61225FE6 
 349      4B2F1A5F 
 349      4B4E4849 
 350 076f 6C5C1B26 		.ascii	"l\\\033&e\246\256\317\220\230\001\372MY\033$\237\327"
 350      65A6AECF 
 350      909801FA 
 350      4D591B24 
 350      9FD7
 351 0781 EB53D3DE 		.ascii	"\353S\323\336\311\313\326\347H\033\237\013\202\217\247"
 351      C9CBD6E7 
 351      481B9F0B 
 351      828FA7
 352 0790 56FE0313 		.ascii	"V\376\003\023\030l\273"
 352      186CBB
 353              		.text
 354              		.section	.gnu.lto_.symtab.c0d6900c,"",%progbits
 355 0000 55534255 		.ascii	"USBUART_DP_ISR\000\000\000\000\000\000\000\000\000\000"
 355      4152545F 
 355      44505F49 
 355      53520000 
 355      00000000 
 356 0018 0000B800 		.ascii	"\000\000\270\000\000\000USBUART_SaveConfig\000\000\000"
 356      00005553 
 356      42554152 
 356      545F5361 
 356      7665436F 
 357 0033 00000000 		.ascii	"\000\000\000\000\000\000\000\000\000\272\000\000\000"
 357      00000000 
 357      00BA0000 
 357      00
 358 0040 55534255 		.ascii	"USBUART_RestoreConfig\000\000\000\000\000\000\000\000"
 358      4152545F 
 358      52657374 
 358      6F726543 
 358      6F6E6669 
 359 005d 00000000 		.ascii	"\000\000\000\000\274\000\000\000USBUART_Suspend\000"
 359      BC000000 
 359      55534255 
 359      4152545F 
 359      53757370 
 360 0075 00000000 		.ascii	"\000\000\000\000\000\000\000\000\000\000\000\276\000"
 360      00000000 
 360      000000BE 
 360      00
 361 0082 00005553 		.ascii	"\000\000USBUART_Resume\000\000\000\000\000\000\000\000"
 361      42554152 
 361      545F5265 
 361      73756D65 
ARM GAS  C:\Users\Thomas\AppData\Local\Temp\cc9NNei7.s 			page 28


 361      00000000 
 362 009a 00000000 		.ascii	"\000\000\000\000\300\000\000\000USBUART_configurati"
 362      C0000000 
 362      55534255 
 362      4152545F 
 362      636F6E66 
 363 00b5 6F6E0000 		.ascii	"on\000\000\002\000\000\000\000\000\000\000\000\000\335"
 363      02000000 
 363      00000000 
 363      0000DD
 364 00c4 00000055 		.ascii	"\000\000\000USBUART_Dp_ClearInterrupt\000\000\002\000"
 364      53425541 
 364      52545F44 
 364      705F436C 
 364      65617249 
 365 00e4 00000000 		.ascii	"\000\000\000\000\000\000\000\000\310\000\000\000USB"
 365      00000000 
 365      C8000000 
 365      555342
 366 00f3 55415254 		.ascii	"UART_EpStateInit\000\000\002\000\000\000\000\000\000"
 366      5F457053 
 366      74617465 
 366      496E6974 
 366      00000200 
 367 010c 000000CA 		.ascii	"\000\000\000\312\000\000\000USBUART_ConfigReg\000\000"
 367      00000055 
 367      53425541 
 367      52545F43 
 367      6F6E6669 
 368 0126 02000000 		.ascii	"\002\000\000\000\000\000\000\000\000\000\314\000\000"
 368      00000000 
 368      0000CC00 
 368      00
 369 0133 00437945 		.ascii	"\000CyExitCriticalSection\000\000\002\000\000\000\000"
 369      78697443 
 369      72697469 
 369      63616C53 
 369      65637469 
 370 0150 00000000 		.ascii	"\000\000\000\000\000\320\000\000\000CyDelayUs\000\000"
 370      00D00000 
 370      00437944 
 370      656C6179 
 370      55730000 
 371 0164 02000000 		.ascii	"\002\000\000\000\000\000\000\000\000\000\324\000\000"
 371      00000000 
 371      0000D400 
 371      00
 372 0171 00437945 		.ascii	"\000CyEnterCriticalSection\000\000\002\000\000\000\000"
 372      6E746572 
 372      43726974 
 372      6963616C 
 372      53656374 
 373 018f 00000000 		.ascii	"\000\000\000\000\000\326\000\000\000CyDelayCycles\000"
 373      00D60000 
 373      00437944 
 373      656C6179 
 373      4379636C 
ARM GAS  C:\Users\Thomas\AppData\Local\Temp\cc9NNei7.s 			page 29


 374 01a6 00020000 		.ascii	"\000\002\000\000\000\000\000\000\000\000\000\332\000"
 374      00000000 
 374      000000DA 
 374      00
 375 01b3 0000     		.ascii	"\000\000"
 376              		.text
 377              		.section	.gnu.lto_.opts,"",%progbits
 378 0000 272D666E 		.ascii	"'-fno-trapv' '-mcpu=cortex-m3' '-mthumb' '-g' '-O3'"
 378      6F2D7472 
 378      61707627 
 378      20272D6D 
 378      6370753D 
 379 0033 20272D66 		.ascii	" '-ffunction-sections' '-finline-functions' '-flto'"
 379      66756E63 
 379      74696F6E 
 379      2D736563 
 379      74696F6E 
 380 0066 20272D66 		.ascii	" '-ffat-lto-objects'\000"
 380      6661742D 
 380      6C746F2D 
 380      6F626A65 
 380      63747327 
 381              		.text
 382              		.cfi_sections	.debug_frame
 383              		.section	.text.USBUART_DP_ISR,"ax",%progbits
 384              		.align	2
 385              		.global	USBUART_DP_ISR
 386              		.thumb
 387              		.thumb_func
 388              		.type	USBUART_DP_ISR, %function
 389              	USBUART_DP_ISR:
 390              	.LFB0:
 391              		.file 1 ".\\Generated_Source\\PSoC5\\USBUART_pm.c"
   1:.\Generated_Source\PSoC5/USBUART_pm.c **** /***************************************************************************//**
   2:.\Generated_Source\PSoC5/USBUART_pm.c **** * \file USBUART_pm.c
   3:.\Generated_Source\PSoC5/USBUART_pm.c **** * \version 3.0
   4:.\Generated_Source\PSoC5/USBUART_pm.c **** *
   5:.\Generated_Source\PSoC5/USBUART_pm.c **** * \brief
   6:.\Generated_Source\PSoC5/USBUART_pm.c **** *  This file provides Suspend/Resume APIs implementation.
   7:.\Generated_Source\PSoC5/USBUART_pm.c **** *
   8:.\Generated_Source\PSoC5/USBUART_pm.c **** ********************************************************************************
   9:.\Generated_Source\PSoC5/USBUART_pm.c **** * \copyright
  10:.\Generated_Source\PSoC5/USBUART_pm.c **** * Copyright 2008-2015, Cypress Semiconductor Corporation.  All rights reserved.
  11:.\Generated_Source\PSoC5/USBUART_pm.c **** * You may use this file only in accordance with the license, terms, conditions,
  12:.\Generated_Source\PSoC5/USBUART_pm.c **** * disclaimers, and limitations in the end user license agreement accompanying
  13:.\Generated_Source\PSoC5/USBUART_pm.c **** * the software package with which this file was provided.
  14:.\Generated_Source\PSoC5/USBUART_pm.c **** *******************************************************************************/
  15:.\Generated_Source\PSoC5/USBUART_pm.c **** 
  16:.\Generated_Source\PSoC5/USBUART_pm.c **** #include "USBUART_pvt.h"
  17:.\Generated_Source\PSoC5/USBUART_pm.c **** #include "USBUART_Dp.h"
  18:.\Generated_Source\PSoC5/USBUART_pm.c **** #include "cyapicallbacks.h"
  19:.\Generated_Source\PSoC5/USBUART_pm.c **** 
  20:.\Generated_Source\PSoC5/USBUART_pm.c **** /***************************************
  21:.\Generated_Source\PSoC5/USBUART_pm.c **** * Custom Declarations
  22:.\Generated_Source\PSoC5/USBUART_pm.c **** ***************************************/
  23:.\Generated_Source\PSoC5/USBUART_pm.c **** /* `#START PM_CUSTOM_DECLARATIONS` Place your declaration here */
  24:.\Generated_Source\PSoC5/USBUART_pm.c **** 
ARM GAS  C:\Users\Thomas\AppData\Local\Temp\cc9NNei7.s 			page 30


  25:.\Generated_Source\PSoC5/USBUART_pm.c **** /* `#END` */
  26:.\Generated_Source\PSoC5/USBUART_pm.c **** 
  27:.\Generated_Source\PSoC5/USBUART_pm.c **** 
  28:.\Generated_Source\PSoC5/USBUART_pm.c **** /***************************************
  29:.\Generated_Source\PSoC5/USBUART_pm.c **** * Local data allocation
  30:.\Generated_Source\PSoC5/USBUART_pm.c **** ***************************************/
  31:.\Generated_Source\PSoC5/USBUART_pm.c **** 
  32:.\Generated_Source\PSoC5/USBUART_pm.c **** static USBUART_BACKUP_STRUCT  USBUART_backup;
  33:.\Generated_Source\PSoC5/USBUART_pm.c **** 
  34:.\Generated_Source\PSoC5/USBUART_pm.c **** #if (USBUART_DP_ISR_ACTIVE)
  35:.\Generated_Source\PSoC5/USBUART_pm.c ****     /*******************************************************************************
  36:.\Generated_Source\PSoC5/USBUART_pm.c ****     * Function Name: USBUART_DP_ISR
  37:.\Generated_Source\PSoC5/USBUART_pm.c ****     ****************************************************************************//**
  38:.\Generated_Source\PSoC5/USBUART_pm.c ****     *
  39:.\Generated_Source\PSoC5/USBUART_pm.c ****     *  This Interrupt Service Routine handles DP pin changes for wake-up from
  40:.\Generated_Source\PSoC5/USBUART_pm.c ****     *  the sleep mode.
  41:.\Generated_Source\PSoC5/USBUART_pm.c ****     *
  42:.\Generated_Source\PSoC5/USBUART_pm.c ****     *******************************************************************************/
  43:.\Generated_Source\PSoC5/USBUART_pm.c ****     CY_ISR(USBUART_DP_ISR)
  44:.\Generated_Source\PSoC5/USBUART_pm.c ****     {
 392              		.loc 1 44 0
 393              		.cfi_startproc
 394              		@ args = 0, pretend = 0, frame = 0
 395              		@ frame_needed = 0, uses_anonymous_args = 0
 396              		@ link register save eliminated.
  45:.\Generated_Source\PSoC5/USBUART_pm.c ****     #ifdef USBUART_DP_ISR_ENTRY_CALLBACK
  46:.\Generated_Source\PSoC5/USBUART_pm.c ****         USBUART_DP_ISR_EntryCallback();
  47:.\Generated_Source\PSoC5/USBUART_pm.c ****     #endif /* (USBUART_DP_ISR_ENTRY_CALLBACK) */
  48:.\Generated_Source\PSoC5/USBUART_pm.c **** 
  49:.\Generated_Source\PSoC5/USBUART_pm.c ****         /* `#START DP_USER_CODE` Place your code here */
  50:.\Generated_Source\PSoC5/USBUART_pm.c **** 
  51:.\Generated_Source\PSoC5/USBUART_pm.c ****         /* `#END` */
  52:.\Generated_Source\PSoC5/USBUART_pm.c **** 
  53:.\Generated_Source\PSoC5/USBUART_pm.c ****         (void) USBUART_Dp_ClearInterrupt();
 397              		.loc 1 53 0
 398 0000 FFF7FEBF 		b	USBUART_Dp_ClearInterrupt
 399              	.LVL0:
 400              		.cfi_endproc
 401              	.LFE0:
 402              		.size	USBUART_DP_ISR, .-USBUART_DP_ISR
 403              		.section	.text.USBUART_SaveConfig,"ax",%progbits
 404              		.align	2
 405              		.global	USBUART_SaveConfig
 406              		.thumb
 407              		.thumb_func
 408              		.type	USBUART_SaveConfig, %function
 409              	USBUART_SaveConfig:
 410              	.LFB1:
  54:.\Generated_Source\PSoC5/USBUART_pm.c **** 		
  55:.\Generated_Source\PSoC5/USBUART_pm.c **** 	#ifdef USBUART_DP_ISR_EXIT_CALLBACK
  56:.\Generated_Source\PSoC5/USBUART_pm.c ****         USBUART_DP_ISR_ExitCallback();
  57:.\Generated_Source\PSoC5/USBUART_pm.c ****     #endif /* (USBUART_DP_ISR_EXIT_CALLBACK) */
  58:.\Generated_Source\PSoC5/USBUART_pm.c ****     }
  59:.\Generated_Source\PSoC5/USBUART_pm.c **** #endif /* (USBUART_DP_ISR_ACTIVE) */
  60:.\Generated_Source\PSoC5/USBUART_pm.c **** 
  61:.\Generated_Source\PSoC5/USBUART_pm.c **** 
  62:.\Generated_Source\PSoC5/USBUART_pm.c **** /*******************************************************************************
ARM GAS  C:\Users\Thomas\AppData\Local\Temp\cc9NNei7.s 			page 31


  63:.\Generated_Source\PSoC5/USBUART_pm.c **** * Function Name: USBUART_SaveConfig
  64:.\Generated_Source\PSoC5/USBUART_pm.c **** ****************************************************************************//**
  65:.\Generated_Source\PSoC5/USBUART_pm.c **** *
  66:.\Generated_Source\PSoC5/USBUART_pm.c **** *  Saves the current user configuration.
  67:.\Generated_Source\PSoC5/USBUART_pm.c **** *
  68:.\Generated_Source\PSoC5/USBUART_pm.c **** * \reentrant
  69:.\Generated_Source\PSoC5/USBUART_pm.c **** *  No.
  70:.\Generated_Source\PSoC5/USBUART_pm.c **** *
  71:.\Generated_Source\PSoC5/USBUART_pm.c **** *******************************************************************************/
  72:.\Generated_Source\PSoC5/USBUART_pm.c **** void USBUART_SaveConfig(void) 
  73:.\Generated_Source\PSoC5/USBUART_pm.c **** {
 411              		.loc 1 73 0
 412              		.cfi_startproc
 413              		@ args = 0, pretend = 0, frame = 0
 414              		@ frame_needed = 0, uses_anonymous_args = 0
 415              		@ link register save eliminated.
 416 0000 7047     		bx	lr
 417              		.cfi_endproc
 418              	.LFE1:
 419              		.size	USBUART_SaveConfig, .-USBUART_SaveConfig
 420 0002 00BF     		.section	.text.USBUART_RestoreConfig,"ax",%progbits
 421              		.align	2
 422              		.global	USBUART_RestoreConfig
 423              		.thumb
 424              		.thumb_func
 425              		.type	USBUART_RestoreConfig, %function
 426              	USBUART_RestoreConfig:
 427              	.LFB2:
  74:.\Generated_Source\PSoC5/USBUART_pm.c ****     /* Empty function added for the compatibility purpose. */
  75:.\Generated_Source\PSoC5/USBUART_pm.c **** }
  76:.\Generated_Source\PSoC5/USBUART_pm.c **** 
  77:.\Generated_Source\PSoC5/USBUART_pm.c **** 
  78:.\Generated_Source\PSoC5/USBUART_pm.c **** /*******************************************************************************
  79:.\Generated_Source\PSoC5/USBUART_pm.c **** * Function Name: USBUART_RestoreConfig
  80:.\Generated_Source\PSoC5/USBUART_pm.c **** ****************************************************************************//**
  81:.\Generated_Source\PSoC5/USBUART_pm.c **** *
  82:.\Generated_Source\PSoC5/USBUART_pm.c **** *  Restores the current user configuration.
  83:.\Generated_Source\PSoC5/USBUART_pm.c **** *
  84:.\Generated_Source\PSoC5/USBUART_pm.c **** * \reentrant
  85:.\Generated_Source\PSoC5/USBUART_pm.c **** *  No.
  86:.\Generated_Source\PSoC5/USBUART_pm.c **** *
  87:.\Generated_Source\PSoC5/USBUART_pm.c **** *******************************************************************************/
  88:.\Generated_Source\PSoC5/USBUART_pm.c **** void USBUART_RestoreConfig(void) 
  89:.\Generated_Source\PSoC5/USBUART_pm.c **** {
 428              		.loc 1 89 0
 429              		.cfi_startproc
 430              		@ args = 0, pretend = 0, frame = 0
 431              		@ frame_needed = 0, uses_anonymous_args = 0
 432              		.loc 1 89 0
 433 0000 08B5     		push	{r3, lr}
 434              		.cfi_def_cfa_offset 8
 435              		.cfi_offset 3, -8
 436              		.cfi_offset 14, -4
  90:.\Generated_Source\PSoC5/USBUART_pm.c ****     if (USBUART_configuration != 0u)
 437              		.loc 1 90 0
 438 0002 054B     		ldr	r3, .L8
 439 0004 1B78     		ldrb	r3, [r3]	@ zero_extendqisi2
ARM GAS  C:\Users\Thomas\AppData\Local\Temp\cc9NNei7.s 			page 32


 440 0006 03B9     		cbnz	r3, .L7
 441 0008 08BD     		pop	{r3, pc}
 442              	.L7:
  91:.\Generated_Source\PSoC5/USBUART_pm.c ****     {
  92:.\Generated_Source\PSoC5/USBUART_pm.c ****         USBUART_ConfigReg();
 443              		.loc 1 92 0
 444 000a FFF7FEFF 		bl	USBUART_ConfigReg
 445              	.LVL1:
  93:.\Generated_Source\PSoC5/USBUART_pm.c ****         USBUART_EpStateInit();
  94:.\Generated_Source\PSoC5/USBUART_pm.c ****     }
  95:.\Generated_Source\PSoC5/USBUART_pm.c **** }
 446              		.loc 1 95 0
 447 000e BDE80840 		pop	{r3, lr}
 448              		.cfi_restore 14
 449              		.cfi_restore 3
 450              		.cfi_def_cfa_offset 0
  93:.\Generated_Source\PSoC5/USBUART_pm.c ****         USBUART_EpStateInit();
 451              		.loc 1 93 0
 452 0012 FFF7FEBF 		b	USBUART_EpStateInit
 453              	.LVL2:
 454              	.L9:
 455 0016 00BF     		.align	2
 456              	.L8:
 457 0018 00000000 		.word	USBUART_configuration
 458              		.cfi_endproc
 459              	.LFE2:
 460              		.size	USBUART_RestoreConfig, .-USBUART_RestoreConfig
 461              		.section	.text.USBUART_Suspend,"ax",%progbits
 462              		.align	2
 463              		.global	USBUART_Suspend
 464              		.thumb
 465              		.thumb_func
 466              		.type	USBUART_Suspend, %function
 467              	USBUART_Suspend:
 468              	.LFB3:
  96:.\Generated_Source\PSoC5/USBUART_pm.c **** 
  97:.\Generated_Source\PSoC5/USBUART_pm.c **** 
  98:.\Generated_Source\PSoC5/USBUART_pm.c **** /*******************************************************************************
  99:.\Generated_Source\PSoC5/USBUART_pm.c **** * Function Name: USBUART_Suspend
 100:.\Generated_Source\PSoC5/USBUART_pm.c **** ****************************************************************************//**
 101:.\Generated_Source\PSoC5/USBUART_pm.c **** *
 102:.\Generated_Source\PSoC5/USBUART_pm.c **** *  This function prepares the USBFS component to enter low power mode. The 
 103:.\Generated_Source\PSoC5/USBUART_pm.c **** *  interrupt on falling edge on Dp pin is configured to wakeup device when the 
 104:.\Generated_Source\PSoC5/USBUART_pm.c **** *  host drives resume condition. The pull-up is enabled on the Dp line while 
 105:.\Generated_Source\PSoC5/USBUART_pm.c **** *  device is in low power mode. The supported low power modes are Deep Sleep 
 106:.\Generated_Source\PSoC5/USBUART_pm.c **** *  (PSoC 4200L) and Sleep (PSoC 3/ PSoC 5LP).
 107:.\Generated_Source\PSoC5/USBUART_pm.c **** *  
 108:.\Generated_Source\PSoC5/USBUART_pm.c **** *  *Note* For PSoC 4200L devices, this function should not be called before 
 109:.\Generated_Source\PSoC5/USBUART_pm.c **** *  entering Sleep.
 110:.\Generated_Source\PSoC5/USBUART_pm.c **** *  
 111:.\Generated_Source\PSoC5/USBUART_pm.c **** *  *Note* After enter low power mode, the data which is left in the IN or OUT 
 112:.\Generated_Source\PSoC5/USBUART_pm.c **** *  endpoint buffers is not restored after wakeup and lost. Therefore it should 
 113:.\Generated_Source\PSoC5/USBUART_pm.c **** *  be stored in the SRAM for OUT endpoint or read by the host for IN endpoint 
 114:.\Generated_Source\PSoC5/USBUART_pm.c **** *  before enter low power mode.
 115:.\Generated_Source\PSoC5/USBUART_pm.c **** *
 116:.\Generated_Source\PSoC5/USBUART_pm.c **** * \globalvars
 117:.\Generated_Source\PSoC5/USBUART_pm.c **** *  USBUART_backup.enable:  modified.
ARM GAS  C:\Users\Thomas\AppData\Local\Temp\cc9NNei7.s 			page 33


 118:.\Generated_Source\PSoC5/USBUART_pm.c **** *
 119:.\Generated_Source\PSoC5/USBUART_pm.c **** * \reentrant
 120:.\Generated_Source\PSoC5/USBUART_pm.c **** *  No.
 121:.\Generated_Source\PSoC5/USBUART_pm.c **** *
 122:.\Generated_Source\PSoC5/USBUART_pm.c **** *******************************************************************************/
 123:.\Generated_Source\PSoC5/USBUART_pm.c **** void USBUART_Suspend(void) 
 124:.\Generated_Source\PSoC5/USBUART_pm.c **** {
 469              		.loc 1 124 0
 470              		.cfi_startproc
 471              		@ args = 0, pretend = 0, frame = 0
 472              		@ frame_needed = 0, uses_anonymous_args = 0
 473 0000 2DE9F041 		push	{r4, r5, r6, r7, r8, lr}
 474              		.cfi_def_cfa_offset 24
 475              		.cfi_offset 4, -24
 476              		.cfi_offset 5, -20
 477              		.cfi_offset 6, -16
 478              		.cfi_offset 7, -12
 479              		.cfi_offset 8, -8
 480              		.cfi_offset 14, -4
 125:.\Generated_Source\PSoC5/USBUART_pm.c ****     uint8 enableInterrupts;
 126:.\Generated_Source\PSoC5/USBUART_pm.c **** 
 127:.\Generated_Source\PSoC5/USBUART_pm.c ****     enableInterrupts = CyEnterCriticalSection();
 481              		.loc 1 127 0
 482 0004 FFF7FEFF 		bl	CyEnterCriticalSection
 483              	.LVL3:
 128:.\Generated_Source\PSoC5/USBUART_pm.c **** 
 129:.\Generated_Source\PSoC5/USBUART_pm.c ****     if (0u != (USBUART_CR0_REG & USBUART_CR0_ENABLE))
 484              		.loc 1 129 0
 485 0008 294C     		ldr	r4, .L15
 127:.\Generated_Source\PSoC5/USBUART_pm.c **** 
 486              		.loc 1 127 0
 487 000a 0546     		mov	r5, r0
 488              	.LVL4:
 489              		.loc 1 129 0
 490 000c 2378     		ldrb	r3, [r4]	@ zero_extendqisi2
 491 000e 1B06     		lsls	r3, r3, #24
 492 0010 0FD4     		bmi	.L14
 130:.\Generated_Source\PSoC5/USBUART_pm.c ****     {
 131:.\Generated_Source\PSoC5/USBUART_pm.c ****         /* USB block is enabled. */
 132:.\Generated_Source\PSoC5/USBUART_pm.c ****         USBUART_backup.enableState = 1u;
 133:.\Generated_Source\PSoC5/USBUART_pm.c **** 
 134:.\Generated_Source\PSoC5/USBUART_pm.c ****     #if (USBUART_EP_MANAGEMENT_DMA)
 135:.\Generated_Source\PSoC5/USBUART_pm.c ****         USBUART_Stop_DMA(USBUART_MAX_EP);
 136:.\Generated_Source\PSoC5/USBUART_pm.c ****     #endif /* (USBUART_EP_MANAGEMENT_DMA) */
 137:.\Generated_Source\PSoC5/USBUART_pm.c **** 
 138:.\Generated_Source\PSoC5/USBUART_pm.c ****     #if (CY_PSOC4)
 139:.\Generated_Source\PSoC5/USBUART_pm.c ****         /* Suspend enter sequence. */
 140:.\Generated_Source\PSoC5/USBUART_pm.c ****         USBUART_POWER_CTRL_REG |= (USBUART_POWER_CTRL_SUSPEND |
 141:.\Generated_Source\PSoC5/USBUART_pm.c ****                                             USBUART_POWER_CTRL_SUSPEND_DEL);
 142:.\Generated_Source\PSoC5/USBUART_pm.c **** 
 143:.\Generated_Source\PSoC5/USBUART_pm.c ****         /* Store state of USB regulator and disable it. */
 144:.\Generated_Source\PSoC5/USBUART_pm.c ****         USBUART_backup.mode = (uint8)  (USBUART_CR1_REG & USBUART_CR1_REG_ENABLE);
 145:.\Generated_Source\PSoC5/USBUART_pm.c ****         USBUART_CR1_REG    &= (uint32) ~USBUART_CR1_REG_ENABLE;
 146:.\Generated_Source\PSoC5/USBUART_pm.c ****         
 147:.\Generated_Source\PSoC5/USBUART_pm.c ****         /* Store SIE interrupt sources. Valid bits are 0 - 4. */
 148:.\Generated_Source\PSoC5/USBUART_pm.c ****         USBUART_backup.intrSeiMask = (uint8) USBUART_INTR_SIE_MASK_REG;
 149:.\Generated_Source\PSoC5/USBUART_pm.c **** 
ARM GAS  C:\Users\Thomas\AppData\Local\Temp\cc9NNei7.s 			page 34


 150:.\Generated_Source\PSoC5/USBUART_pm.c ****     #else
 151:.\Generated_Source\PSoC5/USBUART_pm.c ****         /* Ensure USB transmit enable is low (USB_USBIO_CR0.ten). - Manual Transmission - Disabled.
 152:.\Generated_Source\PSoC5/USBUART_pm.c ****         USBUART_USBIO_CR0_REG &= (uint8) ~USBUART_USBIO_CR0_TEN;
 153:.\Generated_Source\PSoC5/USBUART_pm.c ****         CyDelayUs(USBUART_WAIT_REG_STABILITY_50NS);  /*~50ns delay. */
 154:.\Generated_Source\PSoC5/USBUART_pm.c **** 
 155:.\Generated_Source\PSoC5/USBUART_pm.c ****         /* Disable the USBIO by asserting PM.USB_CR0.fsusbio_pd_n(Inverted) and pd_pullup_hv(Invert
 156:.\Generated_Source\PSoC5/USBUART_pm.c ****         USBUART_PM_USB_CR0_REG &= (uint8) ~(USBUART_PM_USB_CR0_PD_N |
 157:.\Generated_Source\PSoC5/USBUART_pm.c ****                                                      USBUART_PM_USB_CR0_PD_PULLUP_N);
 158:.\Generated_Source\PSoC5/USBUART_pm.c **** 
 159:.\Generated_Source\PSoC5/USBUART_pm.c ****         /* Disable the SIE. */
 160:.\Generated_Source\PSoC5/USBUART_pm.c ****         USBUART_CR0_REG &= (uint8) ~USBUART_CR0_ENABLE;
 161:.\Generated_Source\PSoC5/USBUART_pm.c **** 
 162:.\Generated_Source\PSoC5/USBUART_pm.c ****         CyDelayUs(USBUART_WAIT_REG_STABILITY_50NS);  /* ~50ns delay. */
 163:.\Generated_Source\PSoC5/USBUART_pm.c ****         /* Store mode and disable VRegulator. */
 164:.\Generated_Source\PSoC5/USBUART_pm.c ****         USBUART_backup.mode = (uint8) (USBUART_CR1_REG & USBUART_CR1_REG_ENABLE);
 165:.\Generated_Source\PSoC5/USBUART_pm.c ****         USBUART_CR1_REG    &= (uint8) ~USBUART_CR1_REG_ENABLE;
 166:.\Generated_Source\PSoC5/USBUART_pm.c **** 
 167:.\Generated_Source\PSoC5/USBUART_pm.c ****         CyDelayUs(USBUART_WAIT_REG_STABILITY_1US); /* min 0.5us delay required. */
 168:.\Generated_Source\PSoC5/USBUART_pm.c **** 
 169:.\Generated_Source\PSoC5/USBUART_pm.c ****         /* Disable the USBIO reference by setting PM.USB_CR0.fsusbio_ref_en.*/
 170:.\Generated_Source\PSoC5/USBUART_pm.c ****         USBUART_PM_USB_CR0_REG &= (uint8) ~USBUART_PM_USB_CR0_REF_EN;
 171:.\Generated_Source\PSoC5/USBUART_pm.c **** 
 172:.\Generated_Source\PSoC5/USBUART_pm.c ****         /* Switch DP and DM terminals to GPIO mode and disconnect 1.5k pull-up. */
 173:.\Generated_Source\PSoC5/USBUART_pm.c ****         USBUART_USBIO_CR1_REG |= USBUART_USBIO_CR1_IOMODE;
 174:.\Generated_Source\PSoC5/USBUART_pm.c **** 
 175:.\Generated_Source\PSoC5/USBUART_pm.c ****         /* Disable USBFS block. */
 176:.\Generated_Source\PSoC5/USBUART_pm.c ****         /* Clear power active and standby mode templates: disable USB block. */
 177:.\Generated_Source\PSoC5/USBUART_pm.c ****         USBUART_PM_ACT_CFG_REG  &= (uint8) ~USBUART_PM_ACT_EN_FSUSB;
 178:.\Generated_Source\PSoC5/USBUART_pm.c ****         USBUART_PM_STBY_CFG_REG &= (uint8) ~USBUART_PM_STBY_EN_FSUSB;
 179:.\Generated_Source\PSoC5/USBUART_pm.c **** 
 180:.\Generated_Source\PSoC5/USBUART_pm.c ****         CyDelayUs(USBUART_WAIT_REG_STABILITY_1US); /* min 0.5us delay required. */
 181:.\Generated_Source\PSoC5/USBUART_pm.c ****     #endif /* (CY_PSOC4) */
 182:.\Generated_Source\PSoC5/USBUART_pm.c ****     }
 183:.\Generated_Source\PSoC5/USBUART_pm.c ****     else
 184:.\Generated_Source\PSoC5/USBUART_pm.c ****     {
 185:.\Generated_Source\PSoC5/USBUART_pm.c ****         USBUART_backup.enableState = 0u;
 493              		.loc 1 185 0
 494 0012 284B     		ldr	r3, .L15+4
 495 0014 0022     		movs	r2, #0
 496 0016 1A70     		strb	r2, [r3]
 497              	.L12:
 186:.\Generated_Source\PSoC5/USBUART_pm.c ****     }
 187:.\Generated_Source\PSoC5/USBUART_pm.c **** 
 188:.\Generated_Source\PSoC5/USBUART_pm.c ****     CyExitCriticalSection(enableInterrupts);
 498              		.loc 1 188 0
 499 0018 2846     		mov	r0, r5
 500 001a FFF7FEFF 		bl	CyExitCriticalSection
 501              	.LVL5:
 189:.\Generated_Source\PSoC5/USBUART_pm.c **** 
 190:.\Generated_Source\PSoC5/USBUART_pm.c **** #if (USBUART_DP_ISR_ACTIVE)
 191:.\Generated_Source\PSoC5/USBUART_pm.c ****     /* Clear active mode Dp interrupt source history. */
 192:.\Generated_Source\PSoC5/USBUART_pm.c ****     (void) USBUART_Dp_ClearInterrupt();
 502              		.loc 1 192 0
 503 001e FFF7FEFF 		bl	USBUART_Dp_ClearInterrupt
 504              	.LVL6:
 193:.\Generated_Source\PSoC5/USBUART_pm.c ****     CyIntClearPending(USBUART_DP_INTC_VECT_NUM);
 505              		.loc 1 193 0
ARM GAS  C:\Users\Thomas\AppData\Local\Temp\cc9NNei7.s 			page 35


 506 0022 2549     		ldr	r1, .L15+8
 194:.\Generated_Source\PSoC5/USBUART_pm.c **** 
 195:.\Generated_Source\PSoC5/USBUART_pm.c ****     CyIntEnable      (USBUART_DP_INTC_VECT_NUM);
 507              		.loc 1 195 0
 508 0024 254A     		ldr	r2, .L15+12
 193:.\Generated_Source\PSoC5/USBUART_pm.c ****     CyIntClearPending(USBUART_DP_INTC_VECT_NUM);
 509              		.loc 1 193 0
 510 0026 4FF48053 		mov	r3, #4096
 511 002a 0B60     		str	r3, [r1]
 512              		.loc 1 195 0
 513 002c 1360     		str	r3, [r2]
 514 002e BDE8F081 		pop	{r4, r5, r6, r7, r8, pc}
 515              	.LVL7:
 516              	.L14:
 132:.\Generated_Source\PSoC5/USBUART_pm.c **** 
 517              		.loc 1 132 0
 518 0032 DFF88080 		ldr	r8, .L15+4
 519 0036 0127     		movs	r7, #1
 152:.\Generated_Source\PSoC5/USBUART_pm.c ****         CyDelayUs(USBUART_WAIT_REG_STABILITY_50NS);  /*~50ns delay. */
 520              		.loc 1 152 0
 521 0038 214A     		ldr	r2, .L15+16
 132:.\Generated_Source\PSoC5/USBUART_pm.c **** 
 522              		.loc 1 132 0
 523 003a 88F80070 		strb	r7, [r8]
 152:.\Generated_Source\PSoC5/USBUART_pm.c ****         CyDelayUs(USBUART_WAIT_REG_STABILITY_50NS);  /*~50ns delay. */
 524              		.loc 1 152 0
 525 003e 1378     		ldrb	r3, [r2]	@ zero_extendqisi2
 156:.\Generated_Source\PSoC5/USBUART_pm.c ****                                                      USBUART_PM_USB_CR0_PD_PULLUP_N);
 526              		.loc 1 156 0
 527 0040 204E     		ldr	r6, .L15+20
 152:.\Generated_Source\PSoC5/USBUART_pm.c ****         CyDelayUs(USBUART_WAIT_REG_STABILITY_50NS);  /*~50ns delay. */
 528              		.loc 1 152 0
 529 0042 03F07F03 		and	r3, r3, #127
 530 0046 1370     		strb	r3, [r2]
 153:.\Generated_Source\PSoC5/USBUART_pm.c **** 
 531              		.loc 1 153 0
 532 0048 0020     		movs	r0, #0
 533 004a FFF7FEFF 		bl	CyDelayUs
 534              	.LVL8:
 156:.\Generated_Source\PSoC5/USBUART_pm.c ****                                                      USBUART_PM_USB_CR0_PD_PULLUP_N);
 535              		.loc 1 156 0
 536 004e 3378     		ldrb	r3, [r6]	@ zero_extendqisi2
 162:.\Generated_Source\PSoC5/USBUART_pm.c ****         /* Store mode and disable VRegulator. */
 537              		.loc 1 162 0
 538 0050 0020     		movs	r0, #0
 156:.\Generated_Source\PSoC5/USBUART_pm.c ****                                                      USBUART_PM_USB_CR0_PD_PULLUP_N);
 539              		.loc 1 156 0
 540 0052 03F0F903 		and	r3, r3, #249
 541 0056 3370     		strb	r3, [r6]
 160:.\Generated_Source\PSoC5/USBUART_pm.c **** 
 542              		.loc 1 160 0
 543 0058 2378     		ldrb	r3, [r4]	@ zero_extendqisi2
 544 005a 03F07F03 		and	r3, r3, #127
 545 005e 2370     		strb	r3, [r4]
 162:.\Generated_Source\PSoC5/USBUART_pm.c ****         /* Store mode and disable VRegulator. */
 546              		.loc 1 162 0
 547 0060 FFF7FEFF 		bl	CyDelayUs
ARM GAS  C:\Users\Thomas\AppData\Local\Temp\cc9NNei7.s 			page 36


 548              	.LVL9:
 164:.\Generated_Source\PSoC5/USBUART_pm.c ****         USBUART_CR1_REG    &= (uint8) ~USBUART_CR1_REG_ENABLE;
 549              		.loc 1 164 0
 550 0064 184A     		ldr	r2, .L15+24
 167:.\Generated_Source\PSoC5/USBUART_pm.c **** 
 551              		.loc 1 167 0
 552 0066 3846     		mov	r0, r7
 164:.\Generated_Source\PSoC5/USBUART_pm.c ****         USBUART_CR1_REG    &= (uint8) ~USBUART_CR1_REG_ENABLE;
 553              		.loc 1 164 0
 554 0068 1378     		ldrb	r3, [r2]	@ zero_extendqisi2
 165:.\Generated_Source\PSoC5/USBUART_pm.c **** 
 555              		.loc 1 165 0
 556 006a 1178     		ldrb	r1, [r2]	@ zero_extendqisi2
 164:.\Generated_Source\PSoC5/USBUART_pm.c ****         USBUART_CR1_REG    &= (uint8) ~USBUART_CR1_REG_ENABLE;
 557              		.loc 1 164 0
 558 006c 3B40     		ands	r3, r3, r7
 165:.\Generated_Source\PSoC5/USBUART_pm.c **** 
 559              		.loc 1 165 0
 560 006e 01F0FE01 		and	r1, r1, #254
 561 0072 1170     		strb	r1, [r2]
 164:.\Generated_Source\PSoC5/USBUART_pm.c ****         USBUART_CR1_REG    &= (uint8) ~USBUART_CR1_REG_ENABLE;
 562              		.loc 1 164 0
 563 0074 88F80130 		strb	r3, [r8, #1]
 167:.\Generated_Source\PSoC5/USBUART_pm.c **** 
 564              		.loc 1 167 0
 565 0078 FFF7FEFF 		bl	CyDelayUs
 566              	.LVL10:
 170:.\Generated_Source\PSoC5/USBUART_pm.c **** 
 567              		.loc 1 170 0
 568 007c 3378     		ldrb	r3, [r6]	@ zero_extendqisi2
 173:.\Generated_Source\PSoC5/USBUART_pm.c **** 
 569              		.loc 1 173 0
 570 007e 134A     		ldr	r2, .L15+28
 170:.\Generated_Source\PSoC5/USBUART_pm.c **** 
 571              		.loc 1 170 0
 572 0080 03F0FE03 		and	r3, r3, #254
 573 0084 3370     		strb	r3, [r6]
 173:.\Generated_Source\PSoC5/USBUART_pm.c **** 
 574              		.loc 1 173 0
 575 0086 1378     		ldrb	r3, [r2]	@ zero_extendqisi2
 177:.\Generated_Source\PSoC5/USBUART_pm.c ****         USBUART_PM_STBY_CFG_REG &= (uint8) ~USBUART_PM_STBY_EN_FSUSB;
 576              		.loc 1 177 0
 577 0088 1149     		ldr	r1, .L15+32
 173:.\Generated_Source\PSoC5/USBUART_pm.c **** 
 578              		.loc 1 173 0
 579 008a 43F02003 		orr	r3, r3, #32
 580 008e 1370     		strb	r3, [r2]
 177:.\Generated_Source\PSoC5/USBUART_pm.c ****         USBUART_PM_STBY_CFG_REG &= (uint8) ~USBUART_PM_STBY_EN_FSUSB;
 581              		.loc 1 177 0
 582 0090 0B78     		ldrb	r3, [r1]	@ zero_extendqisi2
 178:.\Generated_Source\PSoC5/USBUART_pm.c **** 
 583              		.loc 1 178 0
 584 0092 A2F5E252 		sub	r2, r2, #7232
 177:.\Generated_Source\PSoC5/USBUART_pm.c ****         USBUART_PM_STBY_CFG_REG &= (uint8) ~USBUART_PM_STBY_EN_FSUSB;
 585              		.loc 1 177 0
 586 0096 03F0FE03 		and	r3, r3, #254
 178:.\Generated_Source\PSoC5/USBUART_pm.c **** 
ARM GAS  C:\Users\Thomas\AppData\Local\Temp\cc9NNei7.s 			page 37


 587              		.loc 1 178 0
 588 009a 1D3A     		subs	r2, r2, #29
 177:.\Generated_Source\PSoC5/USBUART_pm.c ****         USBUART_PM_STBY_CFG_REG &= (uint8) ~USBUART_PM_STBY_EN_FSUSB;
 589              		.loc 1 177 0
 590 009c 0B70     		strb	r3, [r1]
 178:.\Generated_Source\PSoC5/USBUART_pm.c **** 
 591              		.loc 1 178 0
 592 009e 1378     		ldrb	r3, [r2]	@ zero_extendqisi2
 180:.\Generated_Source\PSoC5/USBUART_pm.c ****     #endif /* (CY_PSOC4) */
 593              		.loc 1 180 0
 594 00a0 3846     		mov	r0, r7
 178:.\Generated_Source\PSoC5/USBUART_pm.c **** 
 595              		.loc 1 178 0
 596 00a2 03F0FE03 		and	r3, r3, #254
 597 00a6 1370     		strb	r3, [r2]
 180:.\Generated_Source\PSoC5/USBUART_pm.c ****     #endif /* (CY_PSOC4) */
 598              		.loc 1 180 0
 599 00a8 FFF7FEFF 		bl	CyDelayUs
 600              	.LVL11:
 601 00ac B4E7     		b	.L12
 602              	.L16:
 603 00ae 00BF     		.align	2
 604              	.L15:
 605 00b0 08600040 		.word	1073766408
 606 00b4 00000000 		.word	.LANCHOR0
 607 00b8 80E200E0 		.word	-536812928
 608 00bc 00E100E0 		.word	-536813312
 609 00c0 10600040 		.word	1073766416
 610 00c4 94430040 		.word	1073759124
 611 00c8 09600040 		.word	1073766409
 612 00cc 12600040 		.word	1073766418
 613 00d0 A5430040 		.word	1073759141
 614              		.cfi_endproc
 615              	.LFE3:
 616              		.size	USBUART_Suspend, .-USBUART_Suspend
 617              		.section	.text.USBUART_Resume,"ax",%progbits
 618              		.align	2
 619              		.global	USBUART_Resume
 620              		.thumb
 621              		.thumb_func
 622              		.type	USBUART_Resume, %function
 623              	USBUART_Resume:
 624              	.LFB4:
 196:.\Generated_Source\PSoC5/USBUART_pm.c **** #endif /* (USBUART_DP_ISR_ACTIVE). */
 197:.\Generated_Source\PSoC5/USBUART_pm.c **** }
 198:.\Generated_Source\PSoC5/USBUART_pm.c **** 
 199:.\Generated_Source\PSoC5/USBUART_pm.c **** 
 200:.\Generated_Source\PSoC5/USBUART_pm.c **** /*******************************************************************************
 201:.\Generated_Source\PSoC5/USBUART_pm.c **** * Function Name: USBUART_Resume
 202:.\Generated_Source\PSoC5/USBUART_pm.c **** ****************************************************************************//**
 203:.\Generated_Source\PSoC5/USBUART_pm.c **** *
 204:.\Generated_Source\PSoC5/USBUART_pm.c **** *  This function prepares the USBFS component for active mode operation after 
 205:.\Generated_Source\PSoC5/USBUART_pm.c **** *  exit low power mode. It restores the component active mode configuration such 
 206:.\Generated_Source\PSoC5/USBUART_pm.c **** *  as device address assigned previously by the host, endpoints buffer and disables 
 207:.\Generated_Source\PSoC5/USBUART_pm.c **** *  interrupt on Dp pin.
 208:.\Generated_Source\PSoC5/USBUART_pm.c **** *  The supported low power modes are Deep Sleep (PSoC 4200L) and Sleep 
 209:.\Generated_Source\PSoC5/USBUART_pm.c **** *  (PSoC 3/ PSoC 5LP).
ARM GAS  C:\Users\Thomas\AppData\Local\Temp\cc9NNei7.s 			page 38


 210:.\Generated_Source\PSoC5/USBUART_pm.c **** *  
 211:.\Generated_Source\PSoC5/USBUART_pm.c **** *  *Note* For PSoC 4200L devices, this function should not be called after 
 212:.\Generated_Source\PSoC5/USBUART_pm.c **** *  exiting Sleep.
 213:.\Generated_Source\PSoC5/USBUART_pm.c **** *  
 214:.\Generated_Source\PSoC5/USBUART_pm.c **** *  *Note* To resume communication with the host, the data endpoints must be 
 215:.\Generated_Source\PSoC5/USBUART_pm.c **** *  managed: the OUT endpoints must be enabled and IN endpoints must be loaded 
 216:.\Generated_Source\PSoC5/USBUART_pm.c **** *  with data. For DMA with Automatic Buffer Management, all endpoints buffers 
 217:.\Generated_Source\PSoC5/USBUART_pm.c **** *  must be initialized again before making them available to the host.
 218:.\Generated_Source\PSoC5/USBUART_pm.c **** *
 219:.\Generated_Source\PSoC5/USBUART_pm.c **** *
 220:.\Generated_Source\PSoC5/USBUART_pm.c **** * \globalvars
 221:.\Generated_Source\PSoC5/USBUART_pm.c **** *  USBUART_backup - checked.
 222:.\Generated_Source\PSoC5/USBUART_pm.c **** *
 223:.\Generated_Source\PSoC5/USBUART_pm.c **** * \reentrant
 224:.\Generated_Source\PSoC5/USBUART_pm.c **** *  No.
 225:.\Generated_Source\PSoC5/USBUART_pm.c **** *
 226:.\Generated_Source\PSoC5/USBUART_pm.c **** *******************************************************************************/
 227:.\Generated_Source\PSoC5/USBUART_pm.c **** void USBUART_Resume(void) 
 228:.\Generated_Source\PSoC5/USBUART_pm.c **** {
 625              		.loc 1 228 0
 626              		.cfi_startproc
 627              		@ args = 0, pretend = 0, frame = 0
 628              		@ frame_needed = 0, uses_anonymous_args = 0
 629 0000 70B5     		push	{r4, r5, r6, lr}
 630              		.cfi_def_cfa_offset 16
 631              		.cfi_offset 4, -16
 632              		.cfi_offset 5, -12
 633              		.cfi_offset 6, -8
 634              		.cfi_offset 14, -4
 229:.\Generated_Source\PSoC5/USBUART_pm.c ****     uint8 enableInterrupts;
 230:.\Generated_Source\PSoC5/USBUART_pm.c **** 
 231:.\Generated_Source\PSoC5/USBUART_pm.c ****     enableInterrupts = CyEnterCriticalSection();
 635              		.loc 1 231 0
 636 0002 FFF7FEFF 		bl	CyEnterCriticalSection
 637              	.LVL12:
 232:.\Generated_Source\PSoC5/USBUART_pm.c **** 
 233:.\Generated_Source\PSoC5/USBUART_pm.c ****     if (0u != USBUART_backup.enableState)
 638              		.loc 1 233 0
 639 0006 294D     		ldr	r5, .L26
 231:.\Generated_Source\PSoC5/USBUART_pm.c **** 
 640              		.loc 1 231 0
 641 0008 0646     		mov	r6, r0
 642              	.LVL13:
 643              		.loc 1 233 0
 644 000a 2B78     		ldrb	r3, [r5]	@ zero_extendqisi2
 645 000c 23B9     		cbnz	r3, .L25
 646              	.L19:
 234:.\Generated_Source\PSoC5/USBUART_pm.c ****     {
 235:.\Generated_Source\PSoC5/USBUART_pm.c ****     #if (USBUART_DP_ISR_ACTIVE)
 236:.\Generated_Source\PSoC5/USBUART_pm.c ****         CyIntDisable(USBUART_DP_INTC_VECT_NUM);
 237:.\Generated_Source\PSoC5/USBUART_pm.c ****     #endif /* (USBUART_DP_ISR_ACTIVE) */
 238:.\Generated_Source\PSoC5/USBUART_pm.c **** 
 239:.\Generated_Source\PSoC5/USBUART_pm.c ****     #if (CY_PSOC4)
 240:.\Generated_Source\PSoC5/USBUART_pm.c ****         /* Enable clock to USB IP. */
 241:.\Generated_Source\PSoC5/USBUART_pm.c ****         USBUART_USB_CLK_EN_REG |= USBUART_USB_CLK_CSR_CLK_EN;
 242:.\Generated_Source\PSoC5/USBUART_pm.c **** 
 243:.\Generated_Source\PSoC5/USBUART_pm.c ****         /* Restore arbiter configuration for DMA transfers. */
ARM GAS  C:\Users\Thomas\AppData\Local\Temp\cc9NNei7.s 			page 39


 244:.\Generated_Source\PSoC5/USBUART_pm.c ****         #if (USBUART_EP_MANAGEMENT_DMA)
 245:.\Generated_Source\PSoC5/USBUART_pm.c ****             #if (USBUART_ARB_ISR_ACTIVE)
 246:.\Generated_Source\PSoC5/USBUART_pm.c ****                 /* Enable ARB EP interrupt sources. */
 247:.\Generated_Source\PSoC5/USBUART_pm.c ****                 USBUART_ARB_INT_EN_REG = USBUART_DEFAULT_ARB_INT_EN;
 248:.\Generated_Source\PSoC5/USBUART_pm.c ****             #endif /* (USBUART_EP_MANAGEMENT_DMA) */
 249:.\Generated_Source\PSoC5/USBUART_pm.c **** 
 250:.\Generated_Source\PSoC5/USBUART_pm.c ****             /* Configure arbiter for Manual or Auto DMA operation and clear 
 251:.\Generated_Source\PSoC5/USBUART_pm.c ****             * configuration completion. 
 252:.\Generated_Source\PSoC5/USBUART_pm.c ****             */
 253:.\Generated_Source\PSoC5/USBUART_pm.c ****             USBUART_ARB_CFG_REG = USBUART_DEFAULT_ARB_CFG;
 254:.\Generated_Source\PSoC5/USBUART_pm.c ****         #endif /* (USBUART_EP_MANAGEMENT_DMA) */
 255:.\Generated_Source\PSoC5/USBUART_pm.c **** 
 256:.\Generated_Source\PSoC5/USBUART_pm.c ****         /* Restore level (hi, lo, med) for each interrupt source. */
 257:.\Generated_Source\PSoC5/USBUART_pm.c ****         USBUART_INTR_LVL_SEL_REG = USBUART_DEFAULT_INTR_LVL_SEL;
 258:.\Generated_Source\PSoC5/USBUART_pm.c ****         
 259:.\Generated_Source\PSoC5/USBUART_pm.c ****         /* Store SIE interrupt sources. */
 260:.\Generated_Source\PSoC5/USBUART_pm.c ****         USBUART_INTR_SIE_MASK_REG = (uint32) USBUART_backup.intrSeiMask;
 261:.\Generated_Source\PSoC5/USBUART_pm.c **** 
 262:.\Generated_Source\PSoC5/USBUART_pm.c ****         /* Set EP0.CR: ACK Setup, NAK IN/OUT. */
 263:.\Generated_Source\PSoC5/USBUART_pm.c ****         USBUART_EP0_CR_REG = USBUART_MODE_NAK_IN_OUT;
 264:.\Generated_Source\PSoC5/USBUART_pm.c **** 
 265:.\Generated_Source\PSoC5/USBUART_pm.c ****         /* Restore data EP1-8 configuration. */
 266:.\Generated_Source\PSoC5/USBUART_pm.c ****         USBUART_RestoreConfig();
 267:.\Generated_Source\PSoC5/USBUART_pm.c **** 
 268:.\Generated_Source\PSoC5/USBUART_pm.c ****         /* Restore state of USB regulator and wait until it supples stable power. */
 269:.\Generated_Source\PSoC5/USBUART_pm.c ****         USBUART_CR1_REG |= USBUART_backup.mode;
 270:.\Generated_Source\PSoC5/USBUART_pm.c ****         CyDelayUs(USBUART_WAIT_VREF_STABILITY);
 271:.\Generated_Source\PSoC5/USBUART_pm.c **** 
 272:.\Generated_Source\PSoC5/USBUART_pm.c ****         /* Suspend exit sequence. */
 273:.\Generated_Source\PSoC5/USBUART_pm.c ****         USBUART_POWER_CTRL_REG &= (uint32) ~USBUART_POWER_CTRL_SUSPEND;
 274:.\Generated_Source\PSoC5/USBUART_pm.c ****         CyDelayUs(USBUART_WAIT_SUSPEND_DEL_DISABLE);
 275:.\Generated_Source\PSoC5/USBUART_pm.c ****         USBUART_POWER_CTRL_REG &= (uint32) ~USBUART_POWER_CTRL_SUSPEND_DEL;
 276:.\Generated_Source\PSoC5/USBUART_pm.c **** 
 277:.\Generated_Source\PSoC5/USBUART_pm.c ****     #else
 278:.\Generated_Source\PSoC5/USBUART_pm.c ****         /* Set power active and standby mode templates: enable USB block. */
 279:.\Generated_Source\PSoC5/USBUART_pm.c ****         USBUART_PM_ACT_CFG_REG  |= USBUART_PM_ACT_EN_FSUSB;
 280:.\Generated_Source\PSoC5/USBUART_pm.c ****         USBUART_PM_STBY_CFG_REG |= USBUART_PM_STBY_EN_FSUSB;
 281:.\Generated_Source\PSoC5/USBUART_pm.c **** 
 282:.\Generated_Source\PSoC5/USBUART_pm.c ****         /* Enable core clock. */
 283:.\Generated_Source\PSoC5/USBUART_pm.c ****         USBUART_USB_CLK_EN_REG |= USBUART_USB_CLK_ENABLE;
 284:.\Generated_Source\PSoC5/USBUART_pm.c **** 
 285:.\Generated_Source\PSoC5/USBUART_pm.c ****         /* Enable the USBIO reference by setting PM.USB_CR0.fsusbio_ref_en.*/
 286:.\Generated_Source\PSoC5/USBUART_pm.c ****         USBUART_PM_USB_CR0_REG |= USBUART_PM_USB_CR0_REF_EN;
 287:.\Generated_Source\PSoC5/USBUART_pm.c **** 
 288:.\Generated_Source\PSoC5/USBUART_pm.c ****         /* The reference is available ~40us after power restored. */
 289:.\Generated_Source\PSoC5/USBUART_pm.c ****         CyDelayUs(USBUART_WAIT_VREF_RESTORE);
 290:.\Generated_Source\PSoC5/USBUART_pm.c ****         /* Restore state of USB regulator and wait until it supples stable power. */
 291:.\Generated_Source\PSoC5/USBUART_pm.c ****         USBUART_CR1_REG |= USBUART_backup.mode;
 292:.\Generated_Source\PSoC5/USBUART_pm.c ****         CyDelayUs(USBUART_WAIT_VREF_STABILITY);   /*~50ns delay. */
 293:.\Generated_Source\PSoC5/USBUART_pm.c **** 
 294:.\Generated_Source\PSoC5/USBUART_pm.c ****         /* Enable USBIO. */
 295:.\Generated_Source\PSoC5/USBUART_pm.c ****         USBUART_PM_USB_CR0_REG |= USBUART_PM_USB_CR0_PD_N;
 296:.\Generated_Source\PSoC5/USBUART_pm.c ****         CyDelayUs(USBUART_WAIT_PD_PULLUP_N_ENABLE);
 297:.\Generated_Source\PSoC5/USBUART_pm.c ****         /* Set the USBIO pull-up enable. */
 298:.\Generated_Source\PSoC5/USBUART_pm.c ****         USBUART_PM_USB_CR0_REG |= USBUART_PM_USB_CR0_PD_PULLUP_N;
 299:.\Generated_Source\PSoC5/USBUART_pm.c **** 
 300:.\Generated_Source\PSoC5/USBUART_pm.c ****         /* Restore arbiter configuration for DMA transfers. */
ARM GAS  C:\Users\Thomas\AppData\Local\Temp\cc9NNei7.s 			page 40


 301:.\Generated_Source\PSoC5/USBUART_pm.c ****         #if (USBUART_EP_MANAGEMENT_DMA)
 302:.\Generated_Source\PSoC5/USBUART_pm.c ****             #if (USBUART_ARB_ISR_ACTIVE)
 303:.\Generated_Source\PSoC5/USBUART_pm.c ****                 /* Enable ARB EP interrupt sources. */
 304:.\Generated_Source\PSoC5/USBUART_pm.c ****                 USBUART_ARB_INT_EN_REG = USBUART_DEFAULT_ARB_INT_EN;
 305:.\Generated_Source\PSoC5/USBUART_pm.c ****             #endif /* (USBUART_EP_MANAGEMENT_DMA) */
 306:.\Generated_Source\PSoC5/USBUART_pm.c **** 
 307:.\Generated_Source\PSoC5/USBUART_pm.c ****             /* Configure arbiter for Manual or Auto DMA operation and clear 
 308:.\Generated_Source\PSoC5/USBUART_pm.c ****             * configuration completion. 
 309:.\Generated_Source\PSoC5/USBUART_pm.c ****             */
 310:.\Generated_Source\PSoC5/USBUART_pm.c ****             USBUART_ARB_CFG_REG = USBUART_DEFAULT_ARB_CFG;
 311:.\Generated_Source\PSoC5/USBUART_pm.c ****         #endif /* (USBUART_EP_MANAGEMENT_DMA) */
 312:.\Generated_Source\PSoC5/USBUART_pm.c **** 
 313:.\Generated_Source\PSoC5/USBUART_pm.c ****         /* Set EP0.CR: ACK Setup, STALL IN/OUT. */
 314:.\Generated_Source\PSoC5/USBUART_pm.c ****         USBUART_EP0_CR_REG = USBUART_MODE_STALL_IN_OUT;
 315:.\Generated_Source\PSoC5/USBUART_pm.c **** 
 316:.\Generated_Source\PSoC5/USBUART_pm.c ****         /* Enable the USB IP to respond to USB traffic with the last address. */
 317:.\Generated_Source\PSoC5/USBUART_pm.c ****         USBUART_CR0_REG |= USBUART_CR0_ENABLE;
 318:.\Generated_Source\PSoC5/USBUART_pm.c ****         CyDelayCycles(USBUART_WAIT_CR0_REG_STABILITY);
 319:.\Generated_Source\PSoC5/USBUART_pm.c **** 
 320:.\Generated_Source\PSoC5/USBUART_pm.c ****         /* Enable D+ pull-up and keep USB control on IO. */
 321:.\Generated_Source\PSoC5/USBUART_pm.c ****         USBUART_USBIO_CR1_REG = USBUART_USBIO_CR1_USBPUEN;
 322:.\Generated_Source\PSoC5/USBUART_pm.c **** 
 323:.\Generated_Source\PSoC5/USBUART_pm.c ****         /* Restore data EP1-8 configuration. */
 324:.\Generated_Source\PSoC5/USBUART_pm.c ****         USBUART_RestoreConfig();
 325:.\Generated_Source\PSoC5/USBUART_pm.c ****     #endif /* (CY_PSOC4) */
 326:.\Generated_Source\PSoC5/USBUART_pm.c ****     }
 327:.\Generated_Source\PSoC5/USBUART_pm.c **** 
 328:.\Generated_Source\PSoC5/USBUART_pm.c ****     CyExitCriticalSection(enableInterrupts);
 647              		.loc 1 328 0
 648 000e 3046     		mov	r0, r6
 329:.\Generated_Source\PSoC5/USBUART_pm.c **** }
 649              		.loc 1 329 0
 650 0010 BDE87040 		pop	{r4, r5, r6, lr}
 651              		.cfi_remember_state
 652              		.cfi_restore 14
 653              		.cfi_restore 6
 654              		.cfi_restore 5
 655              		.cfi_restore 4
 656              		.cfi_def_cfa_offset 0
 657              	.LVL14:
 328:.\Generated_Source\PSoC5/USBUART_pm.c **** }
 658              		.loc 1 328 0
 659 0014 FFF7FEBF 		b	CyExitCriticalSection
 660              	.LVL15:
 661              	.L25:
 662              		.cfi_restore_state
 236:.\Generated_Source\PSoC5/USBUART_pm.c ****     #endif /* (USBUART_DP_ISR_ACTIVE) */
 663              		.loc 1 236 0
 664 0018 254B     		ldr	r3, .L26+4
 279:.\Generated_Source\PSoC5/USBUART_pm.c ****         USBUART_PM_STBY_CFG_REG |= USBUART_PM_STBY_EN_FSUSB;
 665              		.loc 1 279 0
 666 001a 264A     		ldr	r2, .L26+8
 236:.\Generated_Source\PSoC5/USBUART_pm.c ****     #endif /* (USBUART_DP_ISR_ACTIVE) */
 667              		.loc 1 236 0
 668 001c 4FF48051 		mov	r1, #4096
 669 0020 1960     		str	r1, [r3]
 279:.\Generated_Source\PSoC5/USBUART_pm.c ****         USBUART_PM_STBY_CFG_REG |= USBUART_PM_STBY_EN_FSUSB;
ARM GAS  C:\Users\Thomas\AppData\Local\Temp\cc9NNei7.s 			page 41


 670              		.loc 1 279 0
 671 0022 1378     		ldrb	r3, [r2]	@ zero_extendqisi2
 280:.\Generated_Source\PSoC5/USBUART_pm.c **** 
 672              		.loc 1 280 0
 673 0024 2449     		ldr	r1, .L26+12
 279:.\Generated_Source\PSoC5/USBUART_pm.c ****         USBUART_PM_STBY_CFG_REG |= USBUART_PM_STBY_EN_FSUSB;
 674              		.loc 1 279 0
 675 0026 43F00103 		orr	r3, r3, #1
 676 002a 1370     		strb	r3, [r2]
 280:.\Generated_Source\PSoC5/USBUART_pm.c **** 
 677              		.loc 1 280 0
 678 002c 0B78     		ldrb	r3, [r1]	@ zero_extendqisi2
 283:.\Generated_Source\PSoC5/USBUART_pm.c **** 
 679              		.loc 1 283 0
 680 002e 02F5E752 		add	r2, r2, #7392
 280:.\Generated_Source\PSoC5/USBUART_pm.c **** 
 681              		.loc 1 280 0
 682 0032 43F00103 		orr	r3, r3, #1
 683 0036 0B70     		strb	r3, [r1]
 283:.\Generated_Source\PSoC5/USBUART_pm.c **** 
 684              		.loc 1 283 0
 685 0038 1832     		adds	r2, r2, #24
 686 003a 1378     		ldrb	r3, [r2]	@ zero_extendqisi2
 286:.\Generated_Source\PSoC5/USBUART_pm.c **** 
 687              		.loc 1 286 0
 688 003c 1F4C     		ldr	r4, .L26+16
 283:.\Generated_Source\PSoC5/USBUART_pm.c **** 
 689              		.loc 1 283 0
 690 003e 43F00103 		orr	r3, r3, #1
 691 0042 1370     		strb	r3, [r2]
 286:.\Generated_Source\PSoC5/USBUART_pm.c **** 
 692              		.loc 1 286 0
 693 0044 2378     		ldrb	r3, [r4]	@ zero_extendqisi2
 289:.\Generated_Source\PSoC5/USBUART_pm.c ****         /* Restore state of USB regulator and wait until it supples stable power. */
 694              		.loc 1 289 0
 695 0046 2820     		movs	r0, #40
 286:.\Generated_Source\PSoC5/USBUART_pm.c **** 
 696              		.loc 1 286 0
 697 0048 43F00103 		orr	r3, r3, #1
 698 004c 2370     		strb	r3, [r4]
 289:.\Generated_Source\PSoC5/USBUART_pm.c ****         /* Restore state of USB regulator and wait until it supples stable power. */
 699              		.loc 1 289 0
 700 004e FFF7FEFF 		bl	CyDelayUs
 701              	.LVL16:
 291:.\Generated_Source\PSoC5/USBUART_pm.c ****         CyDelayUs(USBUART_WAIT_VREF_STABILITY);   /*~50ns delay. */
 702              		.loc 1 291 0
 703 0052 1B4A     		ldr	r2, .L26+20
 704 0054 6B78     		ldrb	r3, [r5, #1]	@ zero_extendqisi2
 705 0056 1178     		ldrb	r1, [r2]	@ zero_extendqisi2
 292:.\Generated_Source\PSoC5/USBUART_pm.c **** 
 706              		.loc 1 292 0
 707 0058 0020     		movs	r0, #0
 291:.\Generated_Source\PSoC5/USBUART_pm.c ****         CyDelayUs(USBUART_WAIT_VREF_STABILITY);   /*~50ns delay. */
 708              		.loc 1 291 0
 709 005a 0B43     		orrs	r3, r3, r1
 710 005c 1370     		strb	r3, [r2]
 292:.\Generated_Source\PSoC5/USBUART_pm.c **** 
ARM GAS  C:\Users\Thomas\AppData\Local\Temp\cc9NNei7.s 			page 42


 711              		.loc 1 292 0
 712 005e FFF7FEFF 		bl	CyDelayUs
 713              	.LVL17:
 295:.\Generated_Source\PSoC5/USBUART_pm.c ****         CyDelayUs(USBUART_WAIT_PD_PULLUP_N_ENABLE);
 714              		.loc 1 295 0
 715 0062 2378     		ldrb	r3, [r4]	@ zero_extendqisi2
 296:.\Generated_Source\PSoC5/USBUART_pm.c ****         /* Set the USBIO pull-up enable. */
 716              		.loc 1 296 0
 717 0064 0220     		movs	r0, #2
 295:.\Generated_Source\PSoC5/USBUART_pm.c ****         CyDelayUs(USBUART_WAIT_PD_PULLUP_N_ENABLE);
 718              		.loc 1 295 0
 719 0066 0343     		orrs	r3, r3, r0
 720 0068 2370     		strb	r3, [r4]
 296:.\Generated_Source\PSoC5/USBUART_pm.c ****         /* Set the USBIO pull-up enable. */
 721              		.loc 1 296 0
 722 006a FFF7FEFF 		bl	CyDelayUs
 723              	.LVL18:
 298:.\Generated_Source\PSoC5/USBUART_pm.c **** 
 724              		.loc 1 298 0
 725 006e 2378     		ldrb	r3, [r4]	@ zero_extendqisi2
 314:.\Generated_Source\PSoC5/USBUART_pm.c **** 
 726              		.loc 1 314 0
 727 0070 1449     		ldr	r1, .L26+24
 317:.\Generated_Source\PSoC5/USBUART_pm.c ****         CyDelayCycles(USBUART_WAIT_CR0_REG_STABILITY);
 728              		.loc 1 317 0
 729 0072 154A     		ldr	r2, .L26+28
 298:.\Generated_Source\PSoC5/USBUART_pm.c **** 
 730              		.loc 1 298 0
 731 0074 43F00403 		orr	r3, r3, #4
 314:.\Generated_Source\PSoC5/USBUART_pm.c **** 
 732              		.loc 1 314 0
 733 0078 0320     		movs	r0, #3
 298:.\Generated_Source\PSoC5/USBUART_pm.c **** 
 734              		.loc 1 298 0
 735 007a 2370     		strb	r3, [r4]
 314:.\Generated_Source\PSoC5/USBUART_pm.c **** 
 736              		.loc 1 314 0
 737 007c 0870     		strb	r0, [r1]
 317:.\Generated_Source\PSoC5/USBUART_pm.c ****         CyDelayCycles(USBUART_WAIT_CR0_REG_STABILITY);
 738              		.loc 1 317 0
 739 007e 1378     		ldrb	r3, [r2]	@ zero_extendqisi2
 318:.\Generated_Source\PSoC5/USBUART_pm.c **** 
 740              		.loc 1 318 0
 741 0080 0120     		movs	r0, #1
 317:.\Generated_Source\PSoC5/USBUART_pm.c ****         CyDelayCycles(USBUART_WAIT_CR0_REG_STABILITY);
 742              		.loc 1 317 0
 743 0082 43F08003 		orr	r3, r3, #128
 744 0086 1370     		strb	r3, [r2]
 318:.\Generated_Source\PSoC5/USBUART_pm.c **** 
 745              		.loc 1 318 0
 746 0088 FFF7FEFF 		bl	CyDelayCycles
 747              	.LVL19:
 321:.\Generated_Source\PSoC5/USBUART_pm.c **** 
 748              		.loc 1 321 0
 749 008c 0F4A     		ldr	r2, .L26+32
 750 008e 0421     		movs	r1, #4
 751              	.LBB4:
ARM GAS  C:\Users\Thomas\AppData\Local\Temp\cc9NNei7.s 			page 43


 752              	.LBB5:
  90:.\Generated_Source\PSoC5/USBUART_pm.c ****     {
 753              		.loc 1 90 0
 754 0090 0F4B     		ldr	r3, .L26+36
 755              	.LBE5:
 756              	.LBE4:
 321:.\Generated_Source\PSoC5/USBUART_pm.c **** 
 757              		.loc 1 321 0
 758 0092 1170     		strb	r1, [r2]
 759              	.LBB7:
 760              	.LBB6:
  90:.\Generated_Source\PSoC5/USBUART_pm.c ****     {
 761              		.loc 1 90 0
 762 0094 1B78     		ldrb	r3, [r3]	@ zero_extendqisi2
 763 0096 002B     		cmp	r3, #0
 764 0098 B9D0     		beq	.L19
  92:.\Generated_Source\PSoC5/USBUART_pm.c ****         USBUART_EpStateInit();
 765              		.loc 1 92 0
 766 009a FFF7FEFF 		bl	USBUART_ConfigReg
 767              	.LVL20:
  93:.\Generated_Source\PSoC5/USBUART_pm.c ****     }
 768              		.loc 1 93 0
 769 009e FFF7FEFF 		bl	USBUART_EpStateInit
 770              	.LVL21:
 771              	.LBE6:
 772              	.LBE7:
 328:.\Generated_Source\PSoC5/USBUART_pm.c **** }
 773              		.loc 1 328 0
 774 00a2 3046     		mov	r0, r6
 775              		.loc 1 329 0
 776 00a4 BDE87040 		pop	{r4, r5, r6, lr}
 777              		.cfi_restore 4
 778              		.cfi_restore 5
 779              		.cfi_restore 6
 780              		.cfi_restore 14
 781              		.cfi_def_cfa_offset 0
 782              	.LVL22:
 328:.\Generated_Source\PSoC5/USBUART_pm.c **** }
 783              		.loc 1 328 0
 784 00a8 FFF7FEBF 		b	CyExitCriticalSection
 785              	.LVL23:
 786              	.L27:
 787              		.align	2
 788              	.L26:
 789 00ac 00000000 		.word	.LANCHOR0
 790 00b0 80E100E0 		.word	-536813184
 791 00b4 A5430040 		.word	1073759141
 792 00b8 B5430040 		.word	1073759157
 793 00bc 94430040 		.word	1073759124
 794 00c0 09600040 		.word	1073766409
 795 00c4 28600040 		.word	1073766440
 796 00c8 08600040 		.word	1073766408
 797 00cc 12600040 		.word	1073766418
 798 00d0 00000000 		.word	USBUART_configuration
 799              		.cfi_endproc
 800              	.LFE4:
 801              		.size	USBUART_Resume, .-USBUART_Resume
ARM GAS  C:\Users\Thomas\AppData\Local\Temp\cc9NNei7.s 			page 44


 802              		.bss
 803              		.align	2
 804              		.set	.LANCHOR0,. + 0
 805              		.type	USBUART_backup, %object
 806              		.size	USBUART_backup, 2
 807              	USBUART_backup:
 808 0000 0000     		.space	2
 809 0002 0000     		.text
 810              	.Letext0:
 811              		.file 2 ".\\Generated_Source\\PSoC5\\cytypes.h"
 812              		.file 3 ".\\Generated_Source\\PSoC5\\USBUART.h"
 813              		.file 4 ".\\Generated_Source\\PSoC5\\USBUART_pvt.h"
 814              		.file 5 ".\\Generated_Source\\PSoC5\\USBUART_Dp.h"
 815              		.file 6 ".\\Generated_Source\\PSoC5\\CyLib.h"