ARM GAS  C:\Users\Thomas\AppData\Local\Temp\ccCgAAYA.s 			page 1


   1              		.syntax unified
   2              		.cpu cortex-m3
   3              		.fpu softvfp
   4              		.eabi_attribute 20, 1
   5              		.eabi_attribute 21, 1
   6              		.eabi_attribute 23, 3
   7              		.eabi_attribute 24, 1
   8              		.eabi_attribute 25, 1
   9              		.eabi_attribute 26, 1
  10              		.eabi_attribute 30, 2
  11              		.eabi_attribute 34, 1
  12              		.eabi_attribute 18, 4
  13              		.thumb
  14              		.file	"USBUART_episr.c"
  15              		.text
  16              	.Ltext0:
  17              		.section	.gnu.lto_.profile.be9c4250,"",%progbits
  18 0000 789C6366 		.ascii	"x\234cf```a\200\000F\006\013-\000\001\016\000k"
  18      60606061 
  18      80004606 
  18      0B2D0001 
  18      0E006B
  19              		.text
  20              		.section	.gnu.lto_.jmpfuncs.be9c4250,"",%progbits
  21 0000 789C6366 		.ascii	"x\234cf\300\016\204\2404+\020310030\260@8\014\000\003"
  21      C00E84A0 
  21      342B1033 
  21      31303033 
  21      30B04038 
  22 0017 6C0029   		.ascii	"l\000)"
  23              		.text
  24              		.section	.gnu.lto_.inline.be9c4250,"",%progbits
  25 0000 789C6366 		.ascii	"x\234cf\300\016\322\2414+\003\003?/#\003\223\304\204"
  25      C00ED2A1 
  25      342B0303 
  25      3F2F2303 
  25      93C484
  26 0013 4D8C0C6C 		.ascii	"M\214\014l\013\344\231@\202LX\304\230\261\210\26100"
  26      0BE49940 
  26      824C58C4 
  26      98B188B1 
  26      3030
  27 0025 3301C580 		.ascii	"3\001\305\200,\230\010+\003\013\017\252\010#\027\210"
  27      2C98082B 
  27      030B0FAA 
  27      08231788 
  28 0035 040040C9 		.ascii	"\004\000@\311\010\365"
  28      08F5
  29              		.text
  30              		.section	.gnu.lto_.pureconst.be9c4250,"",%progbits
  31 0000 789C6366 		.ascii	"x\234cf``\340f\200\000V\006)&)f)\026\006V\011\000\003"
  31      6060E066 
  31      80005606 
  31      29262966 
  31      29160656 
  32 0017 DA0088   		.ascii	"\332\000\210"
  33              		.text
ARM GAS  C:\Users\Thomas\AppData\Local\Temp\ccCgAAYA.s 			page 2


  34              		.section	.gnu.lto_USBUART_EP_1_ISR.be9c4250,"",%progbits
  35 0000 789C9593 		.ascii	"x\234\225\223\333K\024q\024\307\177\337\337\314^f\324"
  35      DB4B1471 
  35      14C77FDF 
  35      DFCC5E66 
  35      D4
  36 0011 8C1EFD07 		.ascii	"\214\036\375\007$j\365!z\012\204\352!\210 \311|3$l\037"
  36      246AF521 
  36      7A0A84EA 
  36      218820C9 
  36      7C33246C 
  37 0026 7AC9B07A 		.ascii	"z\311\260z\011\304\031\334\300\212\304\013\206T\012"
  37      09C419DC 
  37      C08AC40B 
  37      86540A
  38 0035 45DEDA5C 		.ascii	"E\336\332\\\257i\027\315YKW!\012\255\250|0\010\003{"
  38      AF6917CD 
  38      594B5721 
  38      0AADA87C 
  38      3008037B 
  39 0049 092FA18D 		.ascii	"\011/\241\215\251\33393\233\210\251\324\302\236\337"
  39      A9DB3933 
  39      9B88A9D4 
  39      C29EDF
  40 0058 CE9CEFEF 		.ascii	"\316\234\357\357{>\347\374~\253\210\277?\373\350{U\025"
  40      7B3EE7FC 
  40      7EAB88BF 
  40      3FFBE87B 
  40      5515
  41 006a 620FADF0 		.ascii	"b\017\255\360\010\310\212\327B\230~)\225\321,a\350j"
  41      08C88AD7 
  41      42987E29 
  41      95D12C61 
  41      E86A
  42 007c 2C5518C9 		.ascii	",U\030\311\012T\367\265\012\360\017\001Q\"\025\025%"
  42      0A54F7B5 
  42      0AF00F01 
  42      51221515 
  42      25
  43 008d F8266725 		.ascii	"\370&g%*\254pmRz\203a\0303\343-f\266\005[\0121/\335"
  43      2AAC706D 
  43      527A8361 
  43      1833E32D 
  43      66B6055B 
  44 00a5 026842BA 		.ascii	"\002hB\272 \321lh\345C\2227D\242\235n\016\315\360\202"
  44      20D16C68 
  44      E5439237 
  44      44A29D6E 
  44      0ECDF082 
  45 00b9 D6B65D96 		.ascii	"\326\266]\226\021\217W7u\037H\221\302\226P9x8\3708\370"
  45      118F5737 
  45      751F4891 
  45      C2965039 
  45      7838F838 
  46 00ce 39681C74 		.ascii	"9h\034t\016BL\321f\206\370*%\257\312\004\006\027\256"
  46      0E424CD1 
  46      6686F82A 
ARM GAS  C:\Users\Thomas\AppData\Local\Temp\ccCgAAYA.s 			page 3


  46      25AFCA04 
  46      0617AE
  47 00e1 ADDE54D8 		.ascii	"\255\336T\330oQ\252T\252l\244!\254LK[\312\353\226i\250"
  47      6F51AA54 
  47      AA6CA421 
  47      AC4C4B5B 
  47      CAEB9669 
  48 00f6 5CFDF3D4 		.ascii	"\\\375\363\324\2331\277\363J\360\343\307\361%K\253\303"
  48      9B31BFF3 
  48      4AF0E3C7 
  48      F1254BAB 
  48      C3
  49 0107 6D3344AC 		.ascii	"m3D\254\012Z\220\206\007H#\2460\352 &P\372\323\353\332"
  49      0A5A9086 
  49      074823A6 
  49      30EA2026 
  49      50FAD3EB 
  50 011c 795CC7CA 		.ascii	"y\\\307\312\312\356\372\035\274]Y\205\300C\222R\325"
  50      CAEEFA1D 
  50      BC5D5985 
  50      C0439252 
  50      D5
  51 012d 2AB0663B 		.ascii	"*\260f;\267Vr#\017\026\367t\014\215%\020}\264\345{M"
  51      B7567223 
  51      0F16F774 
  51      0C8D2510 
  51      7DB4E57B 
  52 0142 6F54B2A1 		.ascii	"oT\262\241\272<\260\021Qu\020\227&\273\342\272cjZ{m"
  52      BA3CB011 
  52      51751097 
  52      26BBE2BA 
  52      636A5A7B 
  53 0157 E941846C 		.ascii	"\351A\204l\333\330\226\222\325\257\232\373S\003a\203"
  53      DBD89692 
  53      D5AF9AFB 
  53      53036183 
  54 0167 72C76DE9 		.ascii	"r\307m\351E;\025\232s\006N\311X\335t\247\312F>\360\343"
  54      453B159A 
  54      73064EC9 
  54      58DD74A7 
  54      CA463EF0 
  55 017c 88158DEB 		.ascii	"\210\025\215\353\231\255\254=eK?:\020@'\3738\342+\321"
  55      99ADAC3D 
  55      654B3F3A 
  55      104027FB 
  55      38E22BD1 
  56 0190 DA1F8AEB 		.ascii	"\332\037\212\353t\331\226\032\272\2209\307S\026\350"
  56      74D9961A 
  56      BA9039C7 
  56      5316E8
  57 019f 46C0019F 		.ascii	"F\300\001\237\035\256\364\270\340~\322\327\277-\217"
  57      1DAEF4B8 
  57      E07ED2D7 
  57      BF2D8F
  58 01ae C8E25F46 		.ascii	"\310\342_F\231\341\267\245\276\"]\2275v\335y\374b4\332"
  58      99E1B7A5 
  58      BE225D97 
ARM GAS  C:\Users\Thomas\AppData\Local\Temp\ccCgAAYA.s 			page 4


  58      3576DD79 
  58      FC6234DA 
  59 01c2 3E66374C 		.ascii	">f7LR%\341\021\212\321\223@\277\261\322i\203qhV\311"
  59      5225E111 
  59      8AD19340 
  59      BFB1D269 
  59      83716856 
  60 01d7 E825F075 		.ascii	"\350%\360u4\221\201\345\243\014\003Fy\314(\316My\342"
  60      349181E5 
  60      A30C0346 
  60      79CC28CE 
  60      4D79E2
  61 01ea A0AC1D8A 		.ascii	"\240\254\035\212tQ\312#\367\347S\271(\024\201\247\344"
  61      7451CA23 
  61      F7E753B9 
  61      281481A7 
  61      E4
  62 01fb F11EA14F 		.ascii	"\361\036\241O\245\367\220\020\255\237\004\350\324\236"
  62      A5F79010 
  62      AD9F04E8 
  62      D49E
  63 0209 B955E8DE 		.ascii	"\271U\350\336(b4KqZ\213\335Mq\325\332\226\255m\354\245"
  63      2862344B 
  63      715A8BDD 
  63      4D71D5DA 
  63      96AD6DEC 
  64 021e 6FB35E38 		.ascii	"o\263^8\225\214\376\315\233\341\244\206\347\334\215"
  64      958CFECD 
  64      9BE1A486 
  64      E7DC8D
  65 022d C2DD0CB8 		.ascii	"\302\335\014\270\335,$\272\321\335\3525}w\2524\207\325"
  65      DD2C24BA 
  65      D1DDEA35 
  65      7D77AA34 
  65      87D5
  66 023f 20586BC3 		.ascii	" Xk\303\025\3737\266\350\326l\203\333\261\275Xc{\211"
  66      15FB37B6 
  66      E8D66C83 
  66      DBB1BD58 
  66      637B89
  67 0252 C0221F22 		.ascii	"\300\"\037\"MI\375\363\357\232i\177g\246\374\027\307"
  67      4D49FDF3 
  67      EF9A697F 
  67      67A6FC17 
  67      C7
  68 0263 D0A61C56 		.ascii	"\320\246\034V&\203\014o\001b\035c\222\030\223\250L2"
  68      26830C6F 
  68      01621D63 
  68      921893A8 
  68      4C32
  69 0275 8200A5C7 		.ascii	"\202\000\245\307n5\226:g\254\321PFi\327$L\2537&\031"
  69      6E35963A 
  69      67ACD150 
  69      4669D724 
  69      4CAB3726 
  70 028a 871DA6E8 		.ascii	"\207\035\246\350\256\022&q\354\316\310;\022<\027,:}"
  70      AE122671 
ARM GAS  C:\Users\Thomas\AppData\Local\Temp\ccCgAAYA.s 			page 5


  70      ECCEC83B 
  70      123C172C 
  70      3A7D
  71 029c 3178263F 		.ascii	"1x&?\247\360RQA0/;\247\360\360\376\274\334\234C\271"
  71      A7F05251 
  71      41302F3B 
  71      A7F0F0FE 
  71      BCDC9C43 
  72 02b1 074F9CCC 		.ascii	"\007O\234\314\017\236?{\241(\243@\374\006P\354\251\313"
  72      0F9E3F7B 
  72      A128A340 
  72      FC0650EC 
  72      A9CB
  73              		.text
  74              		.section	.gnu.lto_USBUART_EP_2_ISR.be9c4250,"",%progbits
  75 0000 789C9593 		.ascii	"x\234\225\223\337KTA\024\307\347\234{\367\307\335\037"
  75      DF4B5441 
  75      14C7E79C 
  75      7BF7C7DD 
  75      1F
  76 0011 18D143F8 		.ascii	"\030\321C\370\017H\324*\024\275\012\325C/A\221\371f"
  76      0F48D42A 
  76      14BD0AD5 
  76      432F4191 
  76      F966
  77 0023 48D83EF4 		.ascii	"H\330>\364\222a\365\022\210wu\003\261\0241\204\260\214"
  77      9261F512 
  77      88777503 
  77      B1143184 
  77      B08C
  78 0035 B2346DF3 		.ascii	"\2624m\363w\376\2504\257f\251\024\206\212Y\022\006\241"
  78      77FEA834 
  78      AF66A914 
  78      868A5912 
  78      06A1
  79 0047 6010E16A 		.ascii	"`\020\341jhwU\354\234\031\2230W\352\302=\263s\317w\276"
  79      687755EC 
  79      9C199330 
  79      57EAC23D 
  79      B373CF77 
  80 005c E7736666 		.ascii	"\347sff5\361\367s\200\336b]\210\2754\202C\000\226\016"
  80      35F1F773 
  80      80DE625D 
  80      88BD3482 
  80      4300960E 
  81 0070 0B117223 		.ascii	"\013\021r#jC\251\302\364\350\003\011\302\364i\240\253"
  81      6A43A9C2 
  81      F4E80309 
  81      C2F469A0 
  81      AB
  82 0081 CF3A00FF 		.ascii	"\317:\000\377\020 \362P\323!\017\276b\024\241\324\212"
  82      1020F250 
  82      D3210FBE 
  82      6214A1D4 
  82      8A
  83 0092 DCF42655 		.ascii	"\334\364&U\233\2469\227\337\263\353\352n\033\205X@\345"
  83      9BA63997 
ARM GAS  C:\Users\Thomas\AppData\Local\Temp\ccCgAAYA.s 			page 6


  83      DFB3EBEA 
  83      6E1B8558 
  83      40E5
  84 00a4 0F0F2149 		.ascii	"\017\017!I\220&\032^\235\360:\303\244\331\241rP\013"
  84      90261A5E 
  84      9DF03AC3 
  84      A4D9A172 
  84      500B
  85 00b6 4EA0B171 		.ascii	"N\240\261q\247e\256\255\215\255\364\306\274~\0246\202"
  85      A765AEAD 
  85      8DADF4C6 
  85      BC7E1436 
  85      82
  86 00c7 CEC1C1C1 		.ascii	"\316\301\301\301\305\301\315\301\340\340\341 \3044\255"
  86      C5C1CDC1 
  86      E0E0E120 
  86      C434AD
  87 00d6 66881944 		.ascii	"f\210\031D\036\265I\350[,\032\256\333\317\206K\250S"
  87      1EB549E8 
  87      5B2C1AAE 
  87      DBCF864B 
  87      A853
  88 00e8 ADC2C1EA 		.ascii	"\255\302\301\352\2106\2136\3425+d\352\\\376\363\364"
  88      88368B36 
  88      E2352B64 
  88      EA5CFEF3 
  88      F4
  89 00f9 BB11B7FC 		.ascii	"\273\021\267\374$x\372a4f\031\225p+\024\006\0335\250"
  89      2478FA61 
  89      34661995 
  89      702B1406 
  89      1B35A8
  90 010c 83447804 		.ascii	"\203Dx\004\211\004\025\201J\020\223P\360\323\251\354"
  90      89041581 
  90      4A109350 
  90      F0D3A9EC 
  91 011c 1CCAF16E 		.ascii	"\034\312\361n\327T\261\217\227k\253 \3401I\251j\031"
  91      D754B18F 
  91      976BAB20 
  91      E03149A9 
  91      6A19
  92 012e B0663BB7 		.ascii	"\260f;\267zr#\017\026\2677\277\037\325\224\247\213\226"
  92      7A72230F 
  92      16B737BF 
  92      1FD594A7 
  92      8B96
  93 0140 7C2FEFE8 		.ascii	"|/\357\350E6\324Wz6#\352\02216\325\272\346\221\246!"
  93      4536D457 
  93      7A3623EA 
  93      123136D5 
  93      BAE691A6 
  94 0155 6B9F8D0E 		.ascii	"k\237\215\016h \333F\266\245\344\215\267\265\335\011"
  94      6820DB46 
  94      B6A5E48D 
  94      B7B5DD09 
  95 0165 818849B9 		.ascii	"\201\210I\271\3436:\241\211\012\315\313\035\247d\305"
  95      E3363AA1 
ARM GAS  C:\Users\Thomas\AppData\Local\Temp\ccCgAAYA.s 			page 7


  95      890ACDCB 
  95      1DA764C5 
  96 0175 C4CC0FD9 		.ascii	"\304\314\017\331\276\013y\272\330\322?\346M\251g\355"
  96      BE0B79BA 
  96      D8D23FE6 
  96      4DA967ED 
  97 0185 691BDDD0 		.ascii	"i\033\335\320\014\001ha\037)\376v}\274\315\247\234\256"
  97      0C016861 
  97      1F29FE76 
  97      7DBCCDA7 
  97      9CAE
  98 0197 D868402B 		.ascii	"\330h@+\244\314\363.\013x\002\001\011\036\235(s(p7\351"
  98      A4CCF32E 
  98      0B780201 
  98      091E9D28 
  98      73287037 
  99 01ac EF8C9534 		.ascii	"\357\214\2254`\356\262Yh\272m\364\254\242r\331`\367"
  99      60EEB259 
  99      68BA6DF4 
  99      ACA272D9 
  99      60F7
 100 01be C8E917B3 		.ascii	"\310\351\027\263\306v1\273\031\"\225\027\332 \027\332"
 100      C67631BB 
 100      19229517 
 100      DA2017DA 
 101 01ce D7D13B6B 		.ascii	"\327\321;k\357U;\031\207\366\312\007\035\004\376\007"
 101      EF553B19 
 101      87F6CA07 
 101      1D04FE07 
 102 01de 4DF47E51 		.ascii	"M\364~Q\273\223i\200Y:\231E\336\225\247\222e\343TP\261"
 102      BB936980 
 102      593A9945 
 102      DE95A792 
 102      65E35450 
 103 01f3 94343C58 		.ascii	"\2244<XH\340\252\240\011xF&\343\020\376XP\005\353\""
 103      48E0AAA0 
 103      09784626 
 103      E310FE58 
 103      5005EB22 
 104 0207 520C54CE 		.ascii	"R\014T\316\266\350RA\307\366\\\225\241\213\243\211\241"
 104      B6E85241 
 104      C7F65C95 
 104      A18BA389 
 104      A1
 105 0218 544DF6F6 		.ascii	"TM\366\366\251\312\257\324F\334\33667\323\265U3\234"
 105      A9CAAFD4 
 105      46DCDE36 
 105      37D3B555 
 105      339C
 106 022a F241779C 		.ascii	"\362Aw\234n8k\300\013nG\343vzT;\213\353\355xT\371\362"
 106      6E386BC0 
 106      0B6E47E3 
 106      767A543B 
 106      8BEBED78 
 107 0241 AEDB6586 		.ascii	"\256\333e\206\2045\211\326\332t\311\376\015\2567>\\"
 107      843589D6 
 107      DA74C9FE 
ARM GAS  C:\Users\Thomas\AppData\Local\Temp\ccCgAAYA.s 			page 8


 107      0DAE373E 
 107      5C
 108 0252 DFB6702F 		.ascii	"\337\266p/7\340\372!\260\304\347H\373\244\377\376\203"
 108      37E0FA21 
 108      B0C4E748 
 108      FBA4FFFE 
 108      83
 109 0263 CD35CDE4 		.ascii	"\3155\315\344\373\377\013\344\325\226 V\012\223\274"
 109      FBFF0BE4 
 109      D5962056 
 109      0A93BC
 110 0272 8E47621D 		.ascii	"\216Gb\035c\224\001F\321\031e\020\002\224\037\251\250"
 110      63940146 
 110      D1196510 
 110      02941FA9 
 110      A8
 111 0283 2990C76C 		.ascii	")\220\307l\320\266\014\321\262)\010Y\313o\220y\330b"
 111      D0B60CD1 
 111      B2290859 
 111      CB6F9079 
 111      D862
 112 0295 9AEE2B71 		.ascii	"\232\356+q\022\310\236\344\214\243\301\363\301\2343"
 112      12C89EE4 
 112      8CA3C1F3 
 112      C19C33
 113 02a4 97826733 		.ascii	"\227\202g3\323\262/\347d\0053N\244e\0379\230\221\236"
 113      D3B22FE7 
 113      6405334E 
 113      A4651F39 
 113      98919E
 114 02b7 7638FDD0 		.ascii	"v8\375\320\311S\231\301\013\347.\346$g\211_\334\203"
 114      C95399C1 
 114      0BE72EE6 
 114      2467895F 
 114      DC83
 115 02c9 AA07     		.ascii	"\252\007"
 116              		.text
 117              		.section	.gnu.lto_USBUART_EP_3_ISR.be9c4250,"",%progbits
 118 0000 789C9593 		.ascii	"x\234\225\223\333KTQ\024\306\367Z\373\314\345\214\016"
 118      DB4B5451 
 118      14C6F75A 
 118      FBCCE58C 
 118      0E
 119 0011 86F410FE 		.ascii	"\206\364\020\376\003\0225\012E\257A\365\320KPd\276\031"
 119      0312350A 
 119      45AF41F5 
 119      D04B5064 
 119      BE19
 120 0023 12360FBD 		.ascii	"\0226\017\275dX\275\004\342\031f\004)\022\031\321\242"
 120      6458BD04 
 120      E2196604 
 120      291219D1 
 120      A2
 121 0034 B287CA4B 		.ascii	"\262\207\312KMjji\345\355xk\024\272\240\322E\037\014"
 121      4D6A6A69 
 121      E5ED786B 
 121      14BAA0D2 
ARM GAS  C:\Users\Thomas\AppData\Local\Temp\ccCgAAYA.s 			page 9


 121      451F0C
 122 0047 C2CAA064 		.ascii	"\302\312\240dFI;\232\330Zg\333\020\346H\0358k\317>\353"
 122      46493B9A 
 122      D85A67DB 
 122      10E6481D 
 122      386BCF3E 
 123 005c DBDFFAAD 		.ascii	"\333\337\372\255\275\367H\361\367\263\233\336\313\232"
 123      BDF748F1 
 123      F7B39BDE 
 123      CB9A
 124 006a 103B6804 		.ascii	"\020;h\004\207\000\254x)D\300\215(G\366\012\303\243"
 124      8700AC78 
 124      2944C08D 
 124      2847F60A 
 124      C3A3
 125 007c 45D38491 		.ascii	"E\323\204\221*AS\2375\000\376!@\224\240\324\240\004"
 125      2A41539F 
 125      3500FE21 
 125      4094A0D4 
 125      A004
 126 008e BE601CA1 		.ascii	"\276`\034\241\302\214\\M\311\2545\014#\026\236\337Z"
 126      C28C5C4D 
 126      C9AC350C 
 126      23169EDF 
 126      5A
 127 009f BACD4221 		.ascii	"\272\315B!\346Q\371C=d\012\322\304C+oS\234!\322lQ9h"
 127      E651F943 
 127      3D640AD2 
 127      C4432B6F 
 127      539C21D2 
 128 00b7 0027D0D8 		.ascii	"\000'\320\330\234n\032\253\253\225/\006\272\322\275"
 128      9C6E1AAB 
 128      AB952F06 
 128      BAD2BD
 129 00c6 282C048D 		.ascii	"(,\004\215\203\203\203\213\203\233\203\316\301\303A"
 129      8383838B 
 129      839B83CE 
 129      C1C341
 130 00d5 88695ACD 		.ascii	"\210iZ\315\020\037\021y\224\223\320\277p\361M\347.6"
 130      101F1179 
 130      9493D0BF 
 130      70F14DE7 
 130      2E36
 131 00e7 5C448D6A 		.ascii	"\\D\215j\225\015\327F\344\014Z\210\227\314\200\241q"
 131      950DD746 
 131      E40C5A88 
 131      97CC80A1 
 131      71
 132 00f8 F9F7D3AF 		.ascii	"\371\367\323\257F\335\366'\301\323wcK\246^\003\327\003"
 132      46DDF627 
 132      C1D37763 
 132      4BA65E03 
 132      D703
 133 010a 21B050C2 		.ascii	"!\260P\302]\310\200{\220AP\021\250\0011\011\301\037"
 133      5DC8807B 
 133      90415011 
 133      A8013109 
ARM GAS  C:\Users\Thomas\AppData\Local\Temp\ccCgAAYA.s 			page 10


 133      C11F
 134 011c 4E65E750 		.ascii	"Ne\347P\216\365C\237\373\274\274\\.\203\200\373$\245"
 134      8EF5439F 
 134      FBBCBC5C 
 134      2E8380FB 
 134      24A5
 135 012e AA6160CD 		.ascii	"\252a`\315fn\215\344F\036,n\217\177\032\227\312\323"
 135      666E8DE4 
 135      461E2C6E 
 135      8F7F1A97 
 135      CAD3
 136 0140 454B66AB 		.ascii	"EKf\253:\372\220\015\265\237\275\353\0215\033qi\252"
 136      3AFA900D 
 136      B59FBDEB 
 136      11351B71 
 136      69AA
 137 0152 6DD5639B 		.ascii	"m\325c\233\006\314\235\026:\240\211l\233\331\226\222"
 137      06CC9D16 
 137      3AA0896C 
 137      9BD99692 
 138 0162 95CF1BBA 		.ascii	"\225\317\033\272\323|\021\203r\207-t\302\003*4g\357"
 138      D37C1183 
 138      72872D74 
 138      C2032A34 
 138      67EF
 139 0174 3825CB9B 		.ascii	"8%\313\233\356\314\247\261\221K\362\264\177bjP\317n"
 139      EECCA7B1 
 139      914BF2B4 
 139      7F626A50 
 139      CF6E
 140 0186 64ED710B 		.ascii	"d\355q\013\335\320\002>he\037[\334s%\026\227\312\351"
 140      DDD0023E 
 140      68651F5B 
 140      DC732516 
 140      97CAE9
 141 0199 82853AB4 		.ascii	"\202\205:\264A\366\034\357\262\200\207\340\263\301["
 141      41F61CEF 
 141      B28087E0 
 141      B3C15B
 142 01a8 BE563A14 		.ascii	"\276V:\024\270\233\3647\307\313\233\260x\331(3\334\026"
 142      B89BF437 
 142      C7CB9BB0 
 142      78D92833 
 142      DC16
 143 01ba 7A5650B9 		.ascii	"zVP\271$\330=\366\364\203Qg\271\230\335\010\220*\005"
 143      24D83DF6 
 143      F4835167 
 143      B998DD08 
 143      902A05
 144 01cd 1E4131B4 		.ascii	"\036A1\264\257\241\207\243\315\325\222qh\257R\241\203"
 144      AFA187A3 
 144      CDD59271 
 144      68AF52A1 
 144      83
 145 01de C0FFA029 		.ascii	"\300\377\240)\035\233\255\326\231\006\230\3451\263\330"
 145      1D9BADD6 
 145      990698E5 
ARM GAS  C:\Users\Thomas\AppData\Local\Temp\ccCgAAYA.s 			page 11


 145      31B3D8
 146 01ed 77E589CD 		.ascii	"w\345\211\315\2228\025T,\211FA\012xJ&\257!4\021\274"
 146      92381554 
 146      2C894641 
 146      0A784A26 
 146      AF213411 
 147 0202 056B2252 		.ascii	"\005k\"RDkfZ5[A\307\326\251\312\320\305\221bd\257\264"
 147      446B665A 
 147      355B41C7 
 147      D6A9CAD0 
 147      C5916264 
 148 0218 7BFB76DB 		.ascii	"{\373v\333\253\324z\322\336\3267\323\265Q3\234J\205"
 148      ABD47AD2 
 148      DED637D3 
 148      B551339C 
 148      4A85
 149 022a EE24DD70 		.ascii	"\356$\335pV\207\036nGr;\275\252\235\205\265v<\252|U"
 149      56871E6E 
 149      47723BBD 
 149      AA9D85B5 
 149      763CAA7C 
 150 023f D78DB06E 		.ascii	"\327\215\260n\303\032Dk\256\273d\377\006\327\227\034"
 150      C31A446B 
 150      AEBB64FF 
 150      06D7971C 
 151 024f AE7F53B8 		.ascii	"\256\177S\270\201\004\334 \370\026\371\034i\237\264"
 151      8104DC20 
 151      F816F91C 
 151      699FB4
 152 025e DF7FB058 		.ascii	"\337\177\260X\354{\320\373_ C\033\202\230\331L\362,"
 152      EC7BD0FB 
 152      5F20431B 
 152      8298D94C 
 152      F22C
 153 0270 19897988 		.ascii	"\031\211y\210Q\242\214\2421\3120\370(?z\255.h\037\263"
 153      51A28CA2 
 153      31CA30F8 
 153      283F7AAD 
 153      2E681FB3 
 154 0284 4EDB3242 		.ascii	"N\3332B\313\246 `v\217!\363\260\3054\335W\342$\220\355"
 154      CBA62060 
 154      768F21F3 
 154      B0C534DD 
 154      57E22490 
 155 0299 597907FD 		.ascii	"Yy\007\375\247\375E'\316\371O\346\347\024\236/*\360"
 155      A7FD4527 
 155      CEF94FE6 
 155      E7149E2F 
 155      2AF0
 156 02ab E71DC929 		.ascii	"\347\035\311)<\260'/7g\177\356\276\243\307\362\375g"
 156      3CB0272F 
 156      37677FEE 
 156      BEA3C7F2 
 156      FD67
 157 02bd 4E9D2DCA 		.ascii	"N\235-\312*\020\277\000j\347\251\331"
 157      2A10BF00 
 157      6AE7A9D9 
ARM GAS  C:\Users\Thomas\AppData\Local\Temp\ccCgAAYA.s 			page 12


 158              		.text
 159              		.section	.gnu.lto_USBUART_SOF_ISR.be9c4250,"",%progbits
 160 0000 789C6366 		.ascii	"x\234cf\300\004R@\\\016\304\332@\314\310\314\300\310"
 160      C0045240 
 160      5C0EC4DA 
 160      40CCC8CC 
 160      C0C8
 161 0012 34E11C03 		.ascii	"4\341\034\003C#\007\023##\210\301\300\310P\317\304X"
 161      43230713 
 161      232388C1 
 161      C0C850CF 
 161      C458
 162 0024 CFF892E9 		.ascii	"\317\370\222\351#\023\343\204\003\253gp\253/mhh\370"
 162      2313E384 
 162      03AB6770 
 162      AB2F6D68 
 162      68F8
 163 0036 70E9EE31 		.ascii	"p\351\3561\246\206)\011?\231\030\030>3A\014b\\\316\250"
 163      A6862909 
 163      3F991818 
 163      3E33410C 
 163      625CCEA8 
 164 004a CE0054F5 		.ascii	"\316\000T\365\261\345\357un\266\026\240*\001\210\034"
 164      B1E5EF75 
 164      6EB616A0 
 164      2A01881C 
 165 005a E30A4636 		.ascii	"\343\012F6F \275^\350@\303\377\377\223\277\317\352P"
 165      4620BD5E 
 165      E840C3FF 
 165      FF93BFCF 
 165      EA50
 166 006c 96068A3F 		.ascii	"\226\006\212?\001b\220\025O\231\230@4\363=FF\220J\220"
 166      01629015 
 166      4F999840 
 166      34F33D46 
 166      46904A90 
 167 0080 514F9818 		.ascii	"QO\230\030AB@\005\232z1\356\251y\251E\211%\251)\361"
 167      41424005 
 167      9A7A31EE 
 167      A979A945 
 167      8925A929 
 168 0095 C1F9A545 		.ascii	"\301\371\245E\311\2511\001\301\371\316\2461\241\301"
 168      C9A93101 
 168      C1F9CEA6 
 168      31A1C1
 169 00a4 4EA18E41 		.ascii	"N\241\216A!\361\251\005\231\305Ez\311\014\000\"\244"
 169      21F1A905 
 169      99C5457A 
 169      C90C0022 
 169      A4
 170 00b5 395C     		.ascii	"9\\"
 171              		.text
 172              		.section	.gnu.lto_USBUART_BUS_RESET_ISR.be9c4250,"",%progbits
 173 0000 789C6366 		.ascii	"x\234cf\300\004R@\274\024\210\265\201\230\221\231\201"
 173      C0045240 
 173      BC1488B5 
 173      81989199 
ARM GAS  C:\Users\Thomas\AppData\Local\Temp\ccCgAAYA.s 			page 13


 173      81
 174 0011 9169C239 		.ascii	"\221i\3029\006\206F\016&FF\020\203\201\221\241\236\211"
 174      0686460E 
 174      26464610 
 174      838191A1 
 174      9E89
 175 0023 B19EF125 		.ascii	"\261\236\361%\323G&\306\011\007V\317\340V_\332\320\320"
 175      D34726C6 
 175      090756CF 
 175      E0565FDA 
 175      D0D0
 176 0035 F061D157 		.ascii	"\360a\321W\267\206)\011?\231\030\030>3A\314a\\\316\250"
 176      B7862909 
 176      3F991818 
 176      3E3341CC 
 176      615CCEA8 
 177 0049 CE0054F4 		.ascii	"\316\000T\364\261\345\357un\266\026\240\"\001\210\034"
 177      B1E5EF75 
 177      6EB616A0 
 177      2201881C 
 178 0059 E30A4636 		.ascii	"\343\012F6F \275^\350@\303\377\377\227\257\316~a$\315"
 178      4620BD5E 
 178      E840C3FF 
 178      FF97AFCE 
 178      7E6124CD 
 179 006d CCC0F004 		.ascii	"\314\300\360\004(\007\262\341)\023\023\210f\276\303"
 179      2807B2E1 
 179      29131388 
 179      66BEC3
 180 007c D87CE0EF 		.ascii	"\330|\340\357;\015\220j\2201\363.\367\255c\252\375\335"
 180      3B0D906A 
 180      9031F32E 
 180      F7AD63AA 
 180      FDDD
 181 008e D0D1C0F1 		.ascii	"\320\321\300\361\223\211\3613\023\320\004\306\225\214"
 181      9389F133 
 181      13D004C6 
 181      958C
 182 009c B50C3F81 		.ascii	"\265\014?\201\312\35716\036\230\376\236\003\254\224"
 182      CAEF3136 
 182      1E98FE9E 
 182      03AC94
 183 00ab 01641223 		.ascii	"\001d\022#\310\004\240y\232z1\356\251y\251E\211%\251"
 183      C804A079 
 183      9A7A31EE 
 183      A979A945 
 183      8925A9
 184 00be 29F1C1F9 		.ascii	")\361\301\371\245E\311\2511\001\301\371\316\2461\241"
 184      A545C9A9 
 184      3101C1F9 
 184      CEA631A1 
 185 00ce C14EA18E 		.ascii	"\301N\241\216A!\361\251\005\231\305Ez\311\014\000\232"
 185      4121F1A9 
 185      0599C545 
 185      7AC90C00 
 185      9A
 186 00df A74BF2   		.ascii	"\247K\362"
ARM GAS  C:\Users\Thomas\AppData\Local\Temp\ccCgAAYA.s 			page 14


 187              		.text
 188              		.section	.gnu.lto_.symbol_nodes.be9c4250,"",%progbits
 189 0000 789C55C8 		.ascii	"x\234U\310\261\015\2000\014\005\321\263\035G)\331\224"
 189      B10D8030 
 189      0C05D1B3 
 189      1D4729D9 
 189      94
 190 0011 117E4660 		.ascii	"\021~F`\002D\301<\314\300$\210\002\212\344\272w\001"
 190      0244C13C 
 190      CCC02488 
 190      028AE4BA 
 190      7701
 191 0023 ACFC3982 		.ascii	"\254\3749\202\355\002\211\375hd\262\0107\331x\335\345"
 191      ED0289FD 
 191      6864B208 
 191      37D978DD 
 191      E5
 192 0034 934331B9 		.ascii	"\223C1\271\250\214\266\252\374L\357\215\310\312y?\306"
 192      A88CB6AA 
 192      FC4CEF8D 
 192      C8CA793F 
 192      C6
 193 0045 0BF3731B 		.ascii	"\013\363s\033\320"
 193      D0
 194              		.text
 195              		.section	.gnu.lto_.refs.be9c4250,"",%progbits
 196 0000 789C6366 		.ascii	"x\234cf``\320f\200\000\026\006\006FV\006F\016FF.FFn"
 196      6060D066 
 196      80001606 
 196      06465606 
 196      460E4646 
 197 0018 1626141E 		.ascii	"\026&\024\03632\217\001\000\024s\000\270"
 197      33328F01 
 197      00147300 
 197      B8
 198              		.text
 199              		.section	.gnu.lto_.decls.be9c4250,"",%progbits
 200 0000 789CB556 		.ascii	"x\234\265VoLTW\026\177\367\335\231a\3461\003FR4~\330"
 200      6F4C5457 
 200      167FF7DD 
 200      9961E631 
 200      03465234 
 201 0016 259AD076 		.ascii	"%\232\320vc\014v\263M\373\251\256,\333m\332\255\306"
 201      630C76B3 
 201      4DFBA9AE 
 201      2CDB6DDA 
 201      ADC6
 202 0028 810FCD9A 		.ascii	"\201\017\315\232P\012\017$\351\302t\030\273\351~z2\""
 202      500A0F24 
 202      E9C27418 
 202      BBE97E7A 
 202      3222
 203 003a FF291229 		.ascii	"\377)\022)\240\225\216\012\362\037F\024\344_\013\"\012"
 203      A0958E0A 
 203      F21F4614 
 203      E45F0B22 
 203      0A
ARM GAS  C:\Users\Thomas\AppData\Local\Temp\ccCgAAYA.s 			page 15


 204 004b AEA06E97 		.ascii	"\256\240n\227\242\264\256 \212\024A\034(\025\004d\366"
 204      A2B4AE20 
 204      8A14411C 
 204      28150464 
 204      F6
 205 005c DCFBDE9B 		.ascii	"\334\373\336\2337\2033\355\356&}\311\231\373\316\275"
 205      378333ED 
 205      EE267DC9 
 205      99FBCEBD 
 206 006c BFF33BE7 		.ascii	"\277\363;\347\236s\357y\203\031\206\231F\014\343\204"
 206      9E73EF79 
 206      83198699 
 206      460CE384 
 207 007c E7570686 		.ascii	"\347W\006\206\271\007\357\032\230\333\315(\017\321k"
 207      B907EF1A 
 207      98DBCD28 
 207      0FD16B
 208 008b 41EA41EC 		.ascii	"A\352A\354 \215 \347@\232A\000\316L0\236\017\301\032"
 208      208D20E7 
 208      409A4100 
 208      CE4C309E 
 208      0FC11A
 209 009e 248E60C2 		.ascii	"$\216`\302\017\362\020\304\037\300\034\210\001\344O"
 209      0FF210C4 
 209      1FC01C88 
 209      01E44F
 210 00ad A0EB619C 		.ascii	"\240\353a\234\2041\000\306q\030GA\324D@_\205\361\026"
 210      843100C6 
 210      71184741 
 210      D444405F 
 210      85F116
 211 00c0 C820C8B0 		.ascii	"\310 \310\260\344\247\326\207\277\372_\310_\275\017"
 211      E4A7D687 
 211      BFFA5FC8 
 211      5FBD0F
 212 00cf 7FF65FC8 		.ascii	"\177\366_\310\237\335\207\277Fi^\256\011\222\346\326"
 212      9FDD87BF 
 212      46695EAE 
 212      0992E6D6 
 213 00df 3EA42658 		.ascii	">\244&X\302\005\002\250J\232g\031\245^k\237Y\026\265"
 213      C20502A8 
 213      4A9A6719 
 213      A55E6B9F 
 213      5916B5
 214 00f2 D6CF0FF8 		.ascii	"\326\317\017\370\177\317\242\000.\204\250m\005}\305"
 214      7FCFA200 
 214      2E84A86D 
 214      057DC5
 215 0101 1A50F59C 		.ascii	"\032P\365\234\212\250\355\313c\203\252\015\205\002<"
 215      8AA8EDCB 
 215      6383AA0D 
 215      85023C
 216 0110 F956619D 		.ascii	"\371Va\235\012\355\016F\025h\023\252D\233 \222*\264"
 216      0AED0E46 
 216      156813AA 
 216      449B2092 
 216      2AB4
ARM GAS  C:\Users\Thomas\AppData\Local\Temp\ccCgAAYA.s 			page 16


 217 0122 017EFFA2 		.ascii	"\001~\377\242\022\231\362JW\032\014\230E\344\375T\361"
 217      1299F24A 
 217      571A0C98 
 217      45E4FD54 
 217      F1
 218 0133 DD416E6B 		.ascii	"\335Ank5\230e\010]\267X\305]E\177W\235>\244T\260\331"
 218      35986508 
 218      5DB758C5 
 218      5D457F57 
 218      9D3EA454 
 219 0149 1D6D47BF 		.ascii	"\035mG\277\321\013}B\227\323\371\006\245B\325\010\243"
 219      D10B7D42 
 219      97D3F906 
 219      A542D508 
 219      A3
 220 015a 1AB4956E 		.ascii	"\032\264\225n\022\336\305\335\326\242\0200\313-*I\325"
 220      12DEC5DD 
 220      D6A21030 
 220      CB2D2A49 
 220      D5
 221 016b E13F50EE 		.ascii	"\341?P\356\232\346\212Y\177Ja[<\245\021\011\250}\235"
 221      9AE68A59 
 221      7F4A615B 
 221      3CA51109 
 221      A87D9D
 222 017e 9B7D9D6C 		.ascii	"\233}\235l_O\355\255\207\316\337\363\303Q\324~\241o"
 222      5F4FEDAD 
 222      87CEDFF3 
 222      C351D47E 
 222      A16F
 223 0190 F1AC4AB4 		.ascii	"\361\254J\264/\251p\267op\263o\220\355\355\324~*m\346"
 223      2FA970B7 
 223      6F70B36F 
 223      90EDEDD4 
 223      7E2A6DE6 
 224 01a4 36C2F1D4 		.ascii	"6\302\361\324~\270\307z\014\203\275\335n{\324\024\327"
 224      7EB8C77A 
 224      0C83BDDD 
 224      6E7BD414 
 224      D7
 225 01b5 75505871 		.ascii	"uPXq:\261\270\2033n\014gd\206F\312p\347t\351u\025\376"
 225      3AB1B883 
 225      336E0C67 
 225      648646CA 
 225      70E774E9 
 226 01cc 9832E49C 		.ascii	"\2302\344\234\311\236\326\320\010F\253\317\367x&\341"
 226      C99ED6D0 
 226      0846ABCF 
 226      F77826E1 
 227 01dc AC1BC559 		.ascii	"\254\033\305Y\231\342\034\245\350=\234\227\351\207s"
 227      99E21CA5 
 227      E83D9C97 
 227      E98773
 228 01eb 10E5E8FE 		.ascii	"\020\345\350\376\354\363\203\006\340\030\025\034\375"
 228      ECF38306 
 228      E018151C 
 228      FD
ARM GAS  C:\Users\Thomas\AppData\Local\Temp\ccCgAAYA.s 			page 17


 229 01f8 69675F2F 		.ascii	"ig_/\021N\244\012\253N'\022Y\232\334X\232d\226f\312"
 229      114EA40A 
 229      AB4E2712 
 229      599ADC58 
 229      9A649666 
 230 020d 62EFACC9 		.ascii	"b\357\254\311\324\321\202\277O\263\221\346\310\344h"
 230      D4D182BF 
 230      4FB391E6 
 230      C8E468
 231 021c C1F5441D 		.ascii	"\301\365D\035\352LO\327\342~\321\307\201\323\3559~\260"
 231      EA4C4FD7 
 231      E27ED1C7 
 231      81D3ED39 
 231      7EB0
 232 022e 16CC8905 		.ascii	"\026\314\211\005\276z\364\002\246\252\223,\263\303\303"
 232      BE7AF402 
 232      A6AA932C 
 232      B3C3C3
 233 023d 479E62C4 		.ascii	"G\236b\304\205f\010B\252\340(\020\360F\006m\335\204"
 233      85660842 
 233      AAE02810 
 233      F046066D 
 233      DD84
 234 024f 5EDEC4A0 		.ascii	"^\336\304\240/Q(\300h\010\250\015\316K;\234\22728\015"
 234      2F5128C0 
 234      6808A80D 
 234      CE4B3B9C 
 234      9732380D 
 235 0263 8EEADEEA 		.ascii	"\216\352\336\352\267\255\302\016\324\2018\324\352\012"
 235      B7ADC20E 
 235      D48138D4 
 235      EA0A
 236 0271 927A904E 		.ascii	"\222z\220NH\306\315\366\363~\370\211\030\301\305\221"
 236      48C6CDF6 
 236      F37EF889 
 236      18C1C591 
 237 0281 B26C0E3F 		.ascii	"\262l\016?\023\225\362\376\334q\016g\210'\354\352\330"
 237      1395F2FE 
 237      DC710E67 
 237      8827ECEA 
 237      D8
 238 0292 E20F7ABA 		.ascii	"\342\017z\272\215uD\035\311-8\315\341\002q\255d\241"
 238      8D75441D 
 238      C92D38CD 
 238      E10271AD 
 238      64A1
 239 02a4 FF72205D 		.ascii	"\377r ]\333H\324\324\366\2059\016\037\023\327\312O\337"
 239      DB48D4D4 
 239      F685390E 
 239      1F13D7CA 
 239      4FDF
 240 02b6 58D2609B 		.ascii	"X\322`\233\250T\216]+0P\340KD=zs|\036\323\\\260D=>7"
 240      A8548E5D 
 240      2B3050E0 
 240      4B443D7A 
 240      737C1ED3 
 241 02d0 D3A1C315 		.ascii	"\323\241\303\025\254G.B\304\\\024M-\236\323R\225\024"
ARM GAS  C:\Users\Thomas\AppData\Local\Temp\ccCgAAYA.s 			page 18


 241      AC472E42 
 241      C45C144D 
 241      2D9ED352 
 241      9514
 242 02e2 1F92B17C 		.ascii	"\037\222\261|\257\276B\203B9\262K[\215\001\241~\330"
 242      AFBE4283 
 242      4239B24B 
 242      5B8D01A1 
 242      7ED8
 243 02f4 619FB2C3 		.ascii	"a\237\262\303\020i\2074Y\202UPW\0060\350\002\244\246"
 243      10698734 
 243      59825550 
 243      570630E8 
 243      02A4A6
 244 0307 175283AE 		.ascii	"\027R\203\256B\276B\244|]\201\311\177\300$x\231\177"
 244      42BE42A4 
 244      7C5D81C9 
 244      7FC02478 
 244      997F
 245 0319 D63D8971 		.ascii	"\326=\211q\275\030\301\310\302H\267\037\0156\214\250"
 245      BD18C1C8 
 245      C248B71F 
 245      0D368CA8 
 246 0329 AB3D2B95 		.ascii	"\253=+\225\032\334*\256\225\025~V\253\246\221k\211z"
 246      1ADC2AAE 
 246      95157E56 
 246      ABA6916B 
 246      897A
 247 033b 63B2735A 		.ascii	"c\262sZ\215{\350\232\377\352\320\214C\2176\223'\210"
 247      8D7BE89A 
 247      FFEAD08C 
 247      438F3693 
 247      2788
 248 034d FC84DA20 		.ascii	"\374\204\332 \004GiMu\314l\252\220\263\221\226\242\013"
 248      0447694D 
 248      75CC6CAA 
 248      90B39196 
 248      A20B
 249 035f 02BD8982 		.ascii	"\002\275\211\202\344\362\275Dn\367\005r\307\031\002"
 249      E4F2BD44 
 249      6EF70572 
 249      C71902
 250 036e B6358CAB 		.ascii	"\2665\214\253\213\303(\360\237\236\300\033h\015\262"
 250      8BC328F0 
 250      9F9EC01B 
 250      680DB2
 251 037d DA85ECF6 		.ascii	"\332\205\354\366ByQ\001\326\272\200\227\274\000/+\300"
 251      42795101 
 251      D6BA8097 
 251      BC002F2B 
 251      C0
 252 038e 1A17B0C7 		.ascii	"\032\027\260\307\013\260\202\002\017\323\006%\010;\314"
 252      0BB08202 
 252      0FD30625 
 252      083BCC
 253 039d 0C3A0FE9 		.ascii	"\014:\017\351k\241a\021,d\024\335\206\344\336B\233\321"
 253      6BA16111 
ARM GAS  C:\Users\Thomas\AppData\Local\Temp\ccCgAAYA.s 			page 19


 253      2C6414DD 
 253      86E4DE42 
 253      9BD1
 254 03af 30C8D720 		.ascii	"0\310\327 \203 C \337\200|\007\362-\310\277\320fZ\036"
 254      83204320 
 254      DF807C07 
 254      F22DC8BF 
 254      D0665A1E 
 255 03c3 EAF20B97 		.ascii	"\352\362\013\227\313\257\274\270\374\215+\264J\027\256"
 255      CBAFBCB8 
 255      FC8D2BB4 
 255      4A17AE
 256 03d2 D30B6EAB 		.ascii	"\323\013n\253\013W\237\246\251\014\243\007\342\272\204"
 256      0B579FA6 
 256      A90CA307 
 256      E2BA84
 257 03e1 73155E4C 		.ascii	"s\025^L\240BY\347\202\016\254\205R\322kt\277\344\220"
 257      A04259E7 
 257      820EAC85 
 257      52D26B74 
 257      BFE490
 258 03f4 8D1E2FD7 		.ascii	"\215\036/\327\010\210@\030\371\252\273\356\320lw\305"
 258      08884018 
 258      F9AABBEE 
 258      D06C77C5 
 259 0404 A72C9EA3 		.ascii	"\247,\236\243\365g\017_\036;\256C\241A\324\250\205\327"
 259      F5670F5F 
 259      1E3BAE43 
 259      A141D4A8 
 259      85D7
 260 0416 A21160FD 		.ascii	"\242\021`\375\267r2\011\003}\274e\021\335\201\344\375"
 260      B7723209 
 260      037DBC65 
 260      11DD81E4 
 260      FD
 261 0427 3F898428 		.ascii	"?\211\204(\262\307O\366\372\005\001\353\201\237be\376"
 261      B2C74FF6 
 261      FA0501EB 
 261      819F6265 
 261      FE
 262 0438 17CAE193 		.ascii	"\027\312\341\223\271\227\002\350\035\030\325\020=\375"
 262      B99702E8 
 262      1D18D510 
 262      3DFD
 263 0446 69E538A2 		.ascii	"i\3458\242\347\376C\242\256X\037=\301\\\206\364\271"
 263      E7FE43A2 
 263      AE581F3D 
 263      C15C86F4 
 263      B9
 264 0457 D2F505C0 		.ascii	"\322\365\005\300\202\333\367\352\036\202K\010y\244Y"
 264      82DBF7EA 
 264      1E824B08 
 264      79A459
 265 0466 27BD6FA6 		.ascii	"'\275o\246\357\206\377\372|i\333!f\232\231\273\000\037"
 265      EF86FFFA 
 265      7C69DB21 
 265      669A99BB 
ARM GAS  C:\Users\Thomas\AppData\Local\Temp\ccCgAAYA.s 			page 20


 265      001F
 266 0478 A3F0FB68 		.ascii	"\243\360\373h\275lD\320\235M\035}\001\356\350\321\237"
 266      BD6C44D0 
 266      9D4D1D7D 
 266      01EEE8D1 
 266      9F
 267 0489 422FB51C 		.ascii	"B/\265\034<\245\303\231\230^\317\311\311\211\275[N\010"
 267      3CA5C399 
 267      985ECFC9 
 267      C989BD5B 
 267      4E08
 268 049b 65071CFD 		.ascii	"e\007\034\375\345\253;\012\205\374#6\301\341|\343\327"
 268      E5AB3B0A 
 268      85FC2336 
 268      C1E17CE3 
 268      D7
 269 04ac 681CAD47 		.ascii	"h\034\255G\017\304R\270Q=\020;6\232@[\300X(\312.\323"
 269      0FC452B8 
 269      513D103B 
 269      369A405B 
 269      C05828CA 
 270 04c2 E2232253 		.ascii	"\342#\"S\323\223\254V\003\331\241\365\277\350\270P\374"
 270      D393AC56 
 270      03D9A1F5 
 270      BFE8B850 
 270      FC
 271 04d3 C16B5943 		.ascii	"\301kYC:\261G\257\265\230\362\331\243\323;\365W\004"
 271      3AB147AF 
 271      B598F2D9 
 271      A3D33BF5 
 271      5704
 272 04e5 418B1EC2 		.ascii	"A\213\036\3021\374^9(\223H\351\322\231cG\007\364\372"
 272      31FC5E39 
 272      289348E9 
 272      D2996347 
 272      07F4FA
 273 04f8 2CD2CCA4 		.ascii	",\322\314\244L\023\260\222\352i\244\247[\200\221|~\373"
 273      4C13B092 
 273      EA69A4A7 
 273      5B80917C 
 273      7EFB
 274 050a ADF7395A 		.ascii	"\255\3679Z6AG\254\033/\225>\026\033m>\335Ua\307\347"
 274      364147AC 
 274      1B2F953E 
 274      161B6D3E 
 274      DD5561C7 
 275 051f 05E23749 		.ascii	"\005\3427I\360h\356z\261\271\037\312;v'\020\227\210"
 275      F068EE7A 
 275      B1B91FCA 
 275      3B762710 
 275      9788
 276 0531 19B8DF7B 		.ascii	"\031\270\337{}\301\200\033De\342Q\335w~\270YT~\\z\320"
 276      7DC1801B 
 276      4465E251 
 276      DD777EB8 
 276      59547E5C 
 277 0547 8EF197A2 		.ascii	"\216\361\227\242r,\377\353\022\361\373\260\217\250\323"
ARM GAS  C:\Users\Thomas\AppData\Local\Temp\ccCgAAYA.s 			page 21


 277      722CFFEB 
 277      12F1FBB0 
 277      8FA8D3
 278 0556 8DB6CB5A 		.ascii	"\215\266\313Z\312h\240\225\237\253YV\371>(\013\362A"
 278      CA68A095 
 278      9FAB5956 
 278      F93E280B 
 278      F241
 279 0568 69110F4A 		.ascii	"i\021\017JG\343\027\2078\245\364\210\336\371\037\001"
 279      47E31787 
 279      38A5F488 
 279      DEF91F01 
 280 0578 FE84C217 		.ascii	"\376\204\302\027i\351\027\344\322\317\337-/\360\307"
 280      69E917E4 
 280      D2CFDF2D 
 280      2FF0C7
 281 0587 17691C9A 		.ascii	"\027i\034\232\302\334\234\261@D;\257\324x\247\246\336"
 281      C2DC9CB1 
 281      40443BAF 
 281      D478A7A6 
 281      DE
 282 0598 531AEF0F 		.ascii	"S\032\357\017\220\336eo\215\303u\031?b\320c\360\344"
 282      90DE656F 
 282      8DC37519 
 282      3F62D063 
 282      F0E4
 283 05aa A09E96A5 		.ascii	"\240\236\226\245\233\350\204\332=\203\253\261\004\262"
 283      9BE884DA 
 283      3D83ABB1 
 283      04B2
 284 05b8 0AB2A2B4 		.ascii	"\012\262\242\264/\301\326\372\"t%\210\011=\225\310\345"
 284      2FC1D6FA 
 284      22742588 
 284      093D95C8 
 284      E5
 285 05c9 489F6BC2 		.ascii	"H\237k\302\365\023r\003\233\363\022\207\322\225Z\\\270"
 285      F5137203 
 285      9BF31287 
 285      D2955A5C 
 285      B8
 286 05da 792FB80B 		.ascii	"y/\270\013JO\252\255 =i\331KOb\027\307\233\035\001r"
 286      4A4FAAAD 
 286      203D69D9 
 286      4B4F6217 
 286      C79B1D01 
 287 05ef 1B6A4BD0 		.ascii	"\033jK\320\242\003l\020\232UN\327\362sm\310m\347H`C"
 287      A2036C10 
 287      9A554ED7 
 287      F2736DC8 
 287      6DE74860 
 288 0604 7F76F390 		.ascii	"\177v\363\220\372\231\266\233\003H)\324G\324\311# \231"
 288      FA99B69B 
 288      034829D4 
 288      47D4C923 
 288      2099
 289 0616 A1E94B65 		.ascii	"\241\351Ke=\356h\225\375Z\215\032\367\322B\341\307'"
 289      3DEE6895 
ARM GAS  C:\Users\Thomas\AppData\Local\Temp\ccCgAAYA.s 			page 22


 289      FD5A8D1A 
 289      F7D242E1 
 289      C727
 290 0628 DAAEFAA3 		.ascii	"\332\256\372\243\240\315\241\356\376\025\323\203\254"
 290      A0CDA1EE 
 290      FE15D383 
 290      AC
 291 0635 E8FC1004 		.ascii	"\350\374\020\004\222\306*\331\036\255\234|W\200\344"
 291      92C62AD9 
 291      1EAD9C7C 
 291      5780E4
 292 0644 0035B2B2 		.ascii	"\0005\262\262\230\342d+\2674\322]\227V\221\354\000\342"
 292      98E2642B 
 292      B734D25D 
 292      975691EC 
 292      00E2
 293 0656 F98E7DFB 		.ascii	"\371\216}\373\344WE\006<@Ca\257\244\326\315\031\344"
 293      E4574506 
 293      3C404361 
 293      AFA4D6CD 
 293      19E4
 294 0668 5455256A 		.ascii	"TU%jQ&\220\246\263\256T\021\206\347R\345r\232\001\021"
 294      512690A6 
 294      B3AE5411 
 294      86E752E5 
 294      729A0111 
 295 067c 7A8B16BC 		.ascii	"z\213\026\2744\257\226_\322)\035\331\207\025\343n\262"
 295      34AF965F 
 295      D2291DD9 
 295      8715E36E 
 295      B2
 296 068d 943EF450 		.ascii	"\224>\364P\345q\321\263\000\245\\\225lV\274\3500\002"
 296      E571D1B3 
 296      00A55C95 
 296      6C56BCE8 
 296      3002
 297 069f FA59CF70 		.ascii	"\372Y\317p1\347\341\300[\005\031_\345+z\340\350U\271"
 297      31E7E1C0 
 297      5B05195F 
 297      E52B7AE0 
 297      E855B9
 298 06b2 972FC767 		.ascii	"\227/\307g\371P.\273\236\374G{X\327\216<\302#-U\011"
 298      F9502EBB 
 298      9EFC477B 
 298      58D78E3C 
 298      C2232D55 
 299 06c7 2F4F0A2F 		.ascii	"/O\012/\217\206w\247\270+\313s3\344\317\262\202\376"
 299      8F8677A7 
 299      B82BCB73 
 299      33E4CFB2 
 299      82FE
 300 06d9 94D5CB39 		.ascii	"\224\325\3139\206Wf]\224qg\324\357\367DFG\354\216\336"
 300      8657665D 
 300      947167D4 
 300      EFF74446 
 300      47EC8EDE 
 301 06ed 1EFD9671 		.ascii	"\036\375\226q\217\346\315w\243B\302\231\227\267\355"
ARM GAS  C:\Users\Thomas\AppData\Local\Temp\ccCgAAYA.s 			page 23


 301      8FE6CD77 
 301      A342C299 
 301      97B7ED
 302 06fc 7D934FE2 		.ascii	"}\223O\342\3151\026>.\332\230\274\337\034\313\357\335"
 302      CD31163E 
 302      2EDA98BC 
 302      DF1CCBEF 
 302      DD
 303 070d 6D4C0EFF 		.ascii	"mL\016\377\335^\331\2007%\246\230\267\305z0\274B\030"
 303      DD5ED980 
 303      3725A698 
 303      B7C57A30 
 303      BC4218
 304 0720 DC277E4B 		.ascii	"\334'~K&\002\345\011\343\256?\022\375\005Y\337\031e"
 304      2602E509 
 304      E3AE3F12 
 304      FD0559DF 
 304      1965
 305 0732 8CDE1361 		.ascii	"\214\336\023a\214\210$\263\033\344\331=\374[I\211\226"
 305      8C8824B3 
 305      1BE4D93D 
 305      FC5B4989 
 305      96
 306 0743 F0E4BF9A 		.ascii	"\360\344\277\232\222\223\370$\313\213?\033\211\351c"
 306      9293F824 
 306      CB8B3F1B 
 306      89E963
 307 0752 CBB67D8C 		.ascii	"\313\266}\214z\177b\222\345\265->\321\261\237X>1\361"
 307      7A7F6292 
 307      E5B52D3E 
 307      D1B19F58 
 307      3E31F1
 308 0765 2980D4C4 		.ascii	")\200\324\304X,\346\304\017\270\030Sb\204\311h\001\250"
 308      582CE6C4 
 308      0FB81853 
 308      6284C968 
 308      01A8
 309 0777 6EDFDFA4 		.ascii	"n\337\337\2447-o\212LNH\370\220W\305\304\305\2315\274"
 309      372D6F8A 
 309      4C4E48F8 
 309      9057C5C4 
 309      C59935BC 
 310 078b E9CFC971 		.ascii	"\351\317\311q\274\206Po\177\225\373`\177|\374\256\370"
 310      BC86506F 
 310      7F95FB60 
 310      7F7CFCAE 
 310      F8
 311 079c F814DE42 		.ascii	"\370\024\336B_y\2631\361\357\274\016\326xs|L,\357\333"
 311      5F79B331 
 311      F1EFBC0E 
 311      D678737C 
 311      4C2CEFDB 
 312 07b0 B71429F8 		.ascii	"\267\024)\370\016\216\214vKOx\344;\321;\337\331\025"
 312      0E8E8C76 
 312      4B4F78E4 
 312      3BD13BDF 
 312      D915
ARM GAS  C:\Users\Thomas\AppData\Local\Temp\ccCgAAYA.s 			page 24


 313 07c2 FE36A74C 		.ascii	"\3766\247L\252\314|\302k\256\024\245$\362"
 313      AACC7CC2 
 313      6BAE14A5 
 313      24F2
 314 07d0 90E9E814 		.ascii	"\220\351\350\024\213y\177\254\005\302\011O\262\204\211"
 314      8B797FAC 
 314      05C2094F 
 314      B28489
 315 07df C376350C 		.ascii	"\303v5\014\3460\234\020cR\003*\302\024\354i\223\"\031"
 315      E6309C10 
 315      6352032A 
 315      C214EC69 
 315      932219
 316 07f2 FD077A23 		.ascii	"\375\007z#\230k"
 316      986B
 317              		.text
 318              		.section	.gnu.lto_.symtab.be9c4250,"",%progbits
 319 0000 55534255 		.ascii	"USBUART_EP_1_ISR\000\000\000\000\000\000\000\000\000"
 319      4152545F 
 319      45505F31 
 319      5F495352 
 319      00000000 
 320 0019 000000AC 		.ascii	"\000\000\000\254\000\000\000USBUART_EP_2_ISR\000\000"
 320      00000055 
 320      53425541 
 320      52545F45 
 320      505F325F 
 321 0032 00000000 		.ascii	"\000\000\000\000\000\000\000\000\000\000\256\000\000"
 321      00000000 
 321      0000AE00 
 321      00
 322 003f 00555342 		.ascii	"\000USBUART_EP_3_ISR\000\000\000\000\000\000\000\000"
 322      55415254 
 322      5F45505F 
 322      335F4953 
 322      52000000 
 323 0058 00000000 		.ascii	"\000\000\000\000\260\000\000\000USBUART_SOF_ISR\000"
 323      B0000000 
 323      55534255 
 323      4152545F 
 323      534F465F 
 324 0070 00000000 		.ascii	"\000\000\000\000\000\000\000\000\000\000\000\262\000"
 324      00000000 
 324      000000B2 
 324      00
 325 007d 00005553 		.ascii	"\000\000USBUART_BUS_RESET_ISR\000\000\000\000\000\000"
 325      42554152 
 325      545F4255 
 325      535F5245 
 325      5345545F 
 326 009a 00000000 		.ascii	"\000\000\000\000\000\000\264\000\000\000USBUART_EP\000"
 326      0000B400 
 326      00005553 
 326      42554152 
 326      545F4550 
 327 00af 00020000 		.ascii	"\000\002\000\000\000\000\000\000\000\000\000\347\000"
 327      00000000 
ARM GAS  C:\Users\Thomas\AppData\Local\Temp\ccCgAAYA.s 			page 25


 327      000000E7 
 327      00
 328 00bc 00005553 		.ascii	"\000\000USBUART_ReInitComponent\000\000\002\000\000"
 328      42554152 
 328      545F5265 
 328      496E6974 
 328      436F6D70 
 329 00da 00000000 		.ascii	"\000\000\000\000\000\000\000\266\000\000\000"
 329      000000B6 
 329      000000
 330              		.text
 331              		.section	.gnu.lto_.opts,"",%progbits
 332 0000 272D666E 		.ascii	"'-fno-trapv' '-mcpu=cortex-m3' '-mthumb' '-g' '-O3'"
 332      6F2D7472 
 332      61707627 
 332      20272D6D 
 332      6370753D 
 333 0033 20272D66 		.ascii	" '-ffunction-sections' '-finline-functions' '-flto'"
 333      66756E63 
 333      74696F6E 
 333      2D736563 
 333      74696F6E 
 334 0066 20272D66 		.ascii	" '-ffat-lto-objects'\000"
 334      6661742D 
 334      6C746F2D 
 334      6F626A65 
 334      63747327 
 335              		.text
 336              		.cfi_sections	.debug_frame
 337              		.section	.text.USBUART_EP_1_ISR,"ax",%progbits
 338              		.align	2
 339              		.global	USBUART_EP_1_ISR
 340              		.thumb
 341              		.thumb_func
 342              		.type	USBUART_EP_1_ISR, %function
 343              	USBUART_EP_1_ISR:
 344              	.LFB0:
 345              		.file 1 ".\\Generated_Source\\PSoC5\\USBUART_episr.c"
   1:.\Generated_Source\PSoC5/USBUART_episr.c **** /***************************************************************************//**
   2:.\Generated_Source\PSoC5/USBUART_episr.c **** * \file USBUART_episr.c
   3:.\Generated_Source\PSoC5/USBUART_episr.c **** * \version 3.0
   4:.\Generated_Source\PSoC5/USBUART_episr.c **** *
   5:.\Generated_Source\PSoC5/USBUART_episr.c **** * \brief
   6:.\Generated_Source\PSoC5/USBUART_episr.c **** *  This file contains the Data endpoint Interrupt Service Routines.
   7:.\Generated_Source\PSoC5/USBUART_episr.c **** *
   8:.\Generated_Source\PSoC5/USBUART_episr.c **** ********************************************************************************
   9:.\Generated_Source\PSoC5/USBUART_episr.c **** * \copyright
  10:.\Generated_Source\PSoC5/USBUART_episr.c **** * Copyright 2008-2015, Cypress Semiconductor Corporation.  All rights reserved.
  11:.\Generated_Source\PSoC5/USBUART_episr.c **** * You may use this file only in accordance with the license, terms, conditions,
  12:.\Generated_Source\PSoC5/USBUART_episr.c **** * disclaimers, and limitations in the end user license agreement accompanying
  13:.\Generated_Source\PSoC5/USBUART_episr.c **** * the software package with which this file was provided.
  14:.\Generated_Source\PSoC5/USBUART_episr.c **** *******************************************************************************/
  15:.\Generated_Source\PSoC5/USBUART_episr.c **** 
  16:.\Generated_Source\PSoC5/USBUART_episr.c **** #include "USBUART_pvt.h"
  17:.\Generated_Source\PSoC5/USBUART_episr.c **** #include "USBUART_cydmac.h"
  18:.\Generated_Source\PSoC5/USBUART_episr.c **** #include "cyapicallbacks.h"
  19:.\Generated_Source\PSoC5/USBUART_episr.c **** 
ARM GAS  C:\Users\Thomas\AppData\Local\Temp\ccCgAAYA.s 			page 26


  20:.\Generated_Source\PSoC5/USBUART_episr.c **** 
  21:.\Generated_Source\PSoC5/USBUART_episr.c **** /***************************************
  22:.\Generated_Source\PSoC5/USBUART_episr.c **** * Custom Declarations
  23:.\Generated_Source\PSoC5/USBUART_episr.c **** ***************************************/
  24:.\Generated_Source\PSoC5/USBUART_episr.c **** /* `#START CUSTOM_DECLARATIONS` Place your declaration here */
  25:.\Generated_Source\PSoC5/USBUART_episr.c **** 
  26:.\Generated_Source\PSoC5/USBUART_episr.c **** /* `#END` */
  27:.\Generated_Source\PSoC5/USBUART_episr.c **** 
  28:.\Generated_Source\PSoC5/USBUART_episr.c **** 
  29:.\Generated_Source\PSoC5/USBUART_episr.c **** #if (USBUART_EP1_ISR_ACTIVE)
  30:.\Generated_Source\PSoC5/USBUART_episr.c ****     /******************************************************************************
  31:.\Generated_Source\PSoC5/USBUART_episr.c ****     * Function Name: USBUART_EP_1_ISR
  32:.\Generated_Source\PSoC5/USBUART_episr.c ****     ***************************************************************************//**
  33:.\Generated_Source\PSoC5/USBUART_episr.c ****     *
  34:.\Generated_Source\PSoC5/USBUART_episr.c ****     *  Endpoint 1 Interrupt Service Routine
  35:.\Generated_Source\PSoC5/USBUART_episr.c ****     *
  36:.\Generated_Source\PSoC5/USBUART_episr.c ****     ******************************************************************************/
  37:.\Generated_Source\PSoC5/USBUART_episr.c ****     CY_ISR(USBUART_EP_1_ISR)
  38:.\Generated_Source\PSoC5/USBUART_episr.c ****     {
 346              		.loc 1 38 0
 347              		.cfi_startproc
 348              		@ args = 0, pretend = 0, frame = 0
 349              		@ frame_needed = 0, uses_anonymous_args = 0
 350              		@ link register save eliminated.
  39:.\Generated_Source\PSoC5/USBUART_episr.c **** 
  40:.\Generated_Source\PSoC5/USBUART_episr.c ****     #ifdef USBUART_EP_1_ISR_ENTRY_CALLBACK
  41:.\Generated_Source\PSoC5/USBUART_episr.c ****         USBUART_EP_1_ISR_EntryCallback();
  42:.\Generated_Source\PSoC5/USBUART_episr.c ****     #endif /* (USBUART_EP_1_ISR_ENTRY_CALLBACK) */
  43:.\Generated_Source\PSoC5/USBUART_episr.c **** 
  44:.\Generated_Source\PSoC5/USBUART_episr.c ****         /* `#START EP1_USER_CODE` Place your code here */
  45:.\Generated_Source\PSoC5/USBUART_episr.c **** 
  46:.\Generated_Source\PSoC5/USBUART_episr.c ****         /* `#END` */
  47:.\Generated_Source\PSoC5/USBUART_episr.c **** 
  48:.\Generated_Source\PSoC5/USBUART_episr.c ****     #if (CY_PSOC3 && defined(USBUART_ENABLE_MIDI_STREAMING) && \
  49:.\Generated_Source\PSoC5/USBUART_episr.c ****         !defined(USBUART_MAIN_SERVICE_MIDI_OUT) && USBUART_ISR_SERVICE_MIDI_OUT)
  50:.\Generated_Source\PSoC5/USBUART_episr.c ****         {
  51:.\Generated_Source\PSoC5/USBUART_episr.c ****             uint8 intEn = EA;
  52:.\Generated_Source\PSoC5/USBUART_episr.c ****             CyGlobalIntEnable;  /* Enable nested interrupts. */
  53:.\Generated_Source\PSoC5/USBUART_episr.c ****     #endif /* (CY_PSOC3 && USBUART_ISR_SERVICE_MIDI_OUT) */
  54:.\Generated_Source\PSoC5/USBUART_episr.c ****     
  55:.\Generated_Source\PSoC5/USBUART_episr.c ****         USBUART_ClearSieEpInterruptSource(USBUART_SIE_INT_EP1_INTR);
 351              		.loc 1 55 0
 352 0000 0949     		ldr	r1, .L7
  56:.\Generated_Source\PSoC5/USBUART_episr.c ****             
  57:.\Generated_Source\PSoC5/USBUART_episr.c ****         /* Notifies user that transfer IN or OUT transfer is completed.
  58:.\Generated_Source\PSoC5/USBUART_episr.c ****         * IN endpoint: endpoint buffer can be reloaded, Host is read data.
  59:.\Generated_Source\PSoC5/USBUART_episr.c ****         * OUT endpoint: data is ready to be read from endpoint buffer. 
  60:.\Generated_Source\PSoC5/USBUART_episr.c ****         */
  61:.\Generated_Source\PSoC5/USBUART_episr.c ****     #if (CY_PSOC4 && USBUART_EP_MANAGEMENT_DMA_AUTO)
  62:.\Generated_Source\PSoC5/USBUART_episr.c ****         if (0u != (USBUART_EP[USBUART_EP1].addr & USBUART_DIR_IN))
  63:.\Generated_Source\PSoC5/USBUART_episr.c ****     #endif /* (CY_PSOC4 && USBUART_EP_MANAGEMENT_DMA_AUTO) */
  64:.\Generated_Source\PSoC5/USBUART_episr.c ****         {
  65:.\Generated_Source\PSoC5/USBUART_episr.c ****             /* Read CR0 register to clear SIE lock. */
  66:.\Generated_Source\PSoC5/USBUART_episr.c ****             (void) USBUART_SIE_EP_BASE.sieEp[USBUART_EP1].epCr0;
 353              		.loc 1 66 0
 354 0002 0A48     		ldr	r0, .L7+4
  55:.\Generated_Source\PSoC5/USBUART_episr.c ****             
ARM GAS  C:\Users\Thomas\AppData\Local\Temp\ccCgAAYA.s 			page 27


 355              		.loc 1 55 0
 356 0004 0A78     		ldrb	r2, [r1]	@ zero_extendqisi2
  67:.\Generated_Source\PSoC5/USBUART_episr.c ****             
  68:.\Generated_Source\PSoC5/USBUART_episr.c ****             /* Toggle all endpoint types except ISOC. */
  69:.\Generated_Source\PSoC5/USBUART_episr.c ****             if (USBUART_GET_EP_TYPE(USBUART_EP1) != USBUART_EP_TYPE_ISOC)
 357              		.loc 1 69 0
 358 0006 0A4B     		ldr	r3, .L7+8
  55:.\Generated_Source\PSoC5/USBUART_episr.c ****             
 359              		.loc 1 55 0
 360 0008 02F0FE02 		and	r2, r2, #254
 361 000c 0A70     		strb	r2, [r1]
  66:.\Generated_Source\PSoC5/USBUART_episr.c ****             
 362              		.loc 1 66 0
 363 000e 827C     		ldrb	r2, [r0, #18]	@ zero_extendqisi2
 364              		.loc 1 69 0
 365 0010 1A7B     		ldrb	r2, [r3, #12]	@ zero_extendqisi2
 366 0012 02F00302 		and	r2, r2, #3
 367 0016 012A     		cmp	r2, #1
 368 0018 03D0     		beq	.L2
  70:.\Generated_Source\PSoC5/USBUART_episr.c ****             {
  71:.\Generated_Source\PSoC5/USBUART_episr.c ****                 USBUART_EP[USBUART_EP1].epToggle ^= USBUART_EPX_CNT_DATA_TOGGLE;
 369              		.loc 1 71 0
 370 001a DA7B     		ldrb	r2, [r3, #15]	@ zero_extendqisi2
 371 001c 82F08002 		eor	r2, r2, #128
 372 0020 DA73     		strb	r2, [r3, #15]
 373              	.L2:
  72:.\Generated_Source\PSoC5/USBUART_episr.c ****             }
  73:.\Generated_Source\PSoC5/USBUART_episr.c **** 
  74:.\Generated_Source\PSoC5/USBUART_episr.c ****             /* EP_MANAGEMENT_DMA_AUTO (Ticket ID# 214187): For OUT endpoint this event is used to n
  75:.\Generated_Source\PSoC5/USBUART_episr.c ****             * user that DMA has completed copying data from OUT endpoint which is not completely tr
  76:.\Generated_Source\PSoC5/USBUART_episr.c ****             * Because last chunk of data is being copied.
  77:.\Generated_Source\PSoC5/USBUART_episr.c ****             * For CY_PSOC 3/5LP: it is acceptable as DMA is really fast.
  78:.\Generated_Source\PSoC5/USBUART_episr.c ****             * For CY_PSOC4: this event is set in Arbiter interrupt (source is DMA_TERMIN).
  79:.\Generated_Source\PSoC5/USBUART_episr.c ****             */
  80:.\Generated_Source\PSoC5/USBUART_episr.c ****             USBUART_EP[USBUART_EP1].apiEpState = USBUART_EVENT_PENDING;
 374              		.loc 1 80 0
 375 0022 0122     		movs	r2, #1
 376 0024 5A73     		strb	r2, [r3, #13]
 377 0026 7047     		bx	lr
 378              	.L8:
 379              		.align	2
 380              	.L7:
 381 0028 0B600040 		.word	1073766411
 382 002c FC5F0040 		.word	1073766396
 383 0030 00000000 		.word	USBUART_EP
 384              		.cfi_endproc
 385              	.LFE0:
 386              		.size	USBUART_EP_1_ISR, .-USBUART_EP_1_ISR
 387              		.section	.text.USBUART_EP_2_ISR,"ax",%progbits
 388              		.align	2
 389              		.global	USBUART_EP_2_ISR
 390              		.thumb
 391              		.thumb_func
 392              		.type	USBUART_EP_2_ISR, %function
 393              	USBUART_EP_2_ISR:
 394              	.LFB1:
  81:.\Generated_Source\PSoC5/USBUART_episr.c ****         }
ARM GAS  C:\Users\Thomas\AppData\Local\Temp\ccCgAAYA.s 			page 28


  82:.\Generated_Source\PSoC5/USBUART_episr.c **** 
  83:.\Generated_Source\PSoC5/USBUART_episr.c ****     #if (!(CY_PSOC4 && USBUART_EP_MANAGEMENT_DMA_AUTO))
  84:.\Generated_Source\PSoC5/USBUART_episr.c ****         #if (defined(USBUART_ENABLE_MIDI_STREAMING) && \
  85:.\Generated_Source\PSoC5/USBUART_episr.c ****             !defined(USBUART_MAIN_SERVICE_MIDI_OUT) && USBUART_ISR_SERVICE_MIDI_OUT)
  86:.\Generated_Source\PSoC5/USBUART_episr.c ****             if (USBUART_midi_out_ep == USBUART_EP1)
  87:.\Generated_Source\PSoC5/USBUART_episr.c ****             {
  88:.\Generated_Source\PSoC5/USBUART_episr.c ****                 USBUART_MIDI_OUT_Service();
  89:.\Generated_Source\PSoC5/USBUART_episr.c ****             }
  90:.\Generated_Source\PSoC5/USBUART_episr.c ****         #endif /* (USBUART_ISR_SERVICE_MIDI_OUT) */
  91:.\Generated_Source\PSoC5/USBUART_episr.c ****     #endif /* (!(CY_PSOC4 && USBUART_EP_MANAGEMENT_DMA_AUTO)) */
  92:.\Generated_Source\PSoC5/USBUART_episr.c ****     
  93:.\Generated_Source\PSoC5/USBUART_episr.c ****         /* `#START EP1_END_USER_CODE` Place your code here */
  94:.\Generated_Source\PSoC5/USBUART_episr.c **** 
  95:.\Generated_Source\PSoC5/USBUART_episr.c ****         /* `#END` */
  96:.\Generated_Source\PSoC5/USBUART_episr.c **** 
  97:.\Generated_Source\PSoC5/USBUART_episr.c ****     #ifdef USBUART_EP_1_ISR_EXIT_CALLBACK
  98:.\Generated_Source\PSoC5/USBUART_episr.c ****         USBUART_EP_1_ISR_ExitCallback();
  99:.\Generated_Source\PSoC5/USBUART_episr.c ****     #endif /* (USBUART_EP_1_ISR_EXIT_CALLBACK) */
 100:.\Generated_Source\PSoC5/USBUART_episr.c **** 
 101:.\Generated_Source\PSoC5/USBUART_episr.c ****     #if (CY_PSOC3 && defined(USBUART_ENABLE_MIDI_STREAMING) && \
 102:.\Generated_Source\PSoC5/USBUART_episr.c ****         !defined(USBUART_MAIN_SERVICE_MIDI_OUT) && USBUART_ISR_SERVICE_MIDI_OUT)
 103:.\Generated_Source\PSoC5/USBUART_episr.c ****         
 104:.\Generated_Source\PSoC5/USBUART_episr.c ****             EA = intEn; /* Restore nested interrupt configuration. */
 105:.\Generated_Source\PSoC5/USBUART_episr.c ****         }
 106:.\Generated_Source\PSoC5/USBUART_episr.c ****     #endif /* (CY_PSOC3 && USBUART_ISR_SERVICE_MIDI_OUT) */
 107:.\Generated_Source\PSoC5/USBUART_episr.c ****     }
 108:.\Generated_Source\PSoC5/USBUART_episr.c **** 
 109:.\Generated_Source\PSoC5/USBUART_episr.c **** #endif /* (USBUART_EP1_ISR_ACTIVE) */
 110:.\Generated_Source\PSoC5/USBUART_episr.c **** 
 111:.\Generated_Source\PSoC5/USBUART_episr.c **** 
 112:.\Generated_Source\PSoC5/USBUART_episr.c **** #if (USBUART_EP2_ISR_ACTIVE)
 113:.\Generated_Source\PSoC5/USBUART_episr.c ****     /*******************************************************************************
 114:.\Generated_Source\PSoC5/USBUART_episr.c ****     * Function Name: USBUART_EP_2_ISR
 115:.\Generated_Source\PSoC5/USBUART_episr.c ****     ****************************************************************************//**
 116:.\Generated_Source\PSoC5/USBUART_episr.c ****     *
 117:.\Generated_Source\PSoC5/USBUART_episr.c ****     *  Endpoint 2 Interrupt Service Routine.
 118:.\Generated_Source\PSoC5/USBUART_episr.c ****     *
 119:.\Generated_Source\PSoC5/USBUART_episr.c ****     *******************************************************************************/
 120:.\Generated_Source\PSoC5/USBUART_episr.c ****     CY_ISR(USBUART_EP_2_ISR)
 121:.\Generated_Source\PSoC5/USBUART_episr.c ****     {
 395              		.loc 1 121 0
 396              		.cfi_startproc
 397              		@ args = 0, pretend = 0, frame = 0
 398              		@ frame_needed = 0, uses_anonymous_args = 0
 399              		@ link register save eliminated.
 122:.\Generated_Source\PSoC5/USBUART_episr.c ****     #ifdef USBUART_EP_2_ISR_ENTRY_CALLBACK
 123:.\Generated_Source\PSoC5/USBUART_episr.c ****         USBUART_EP_2_ISR_EntryCallback();
 124:.\Generated_Source\PSoC5/USBUART_episr.c ****     #endif /* (USBUART_EP_2_ISR_ENTRY_CALLBACK) */
 125:.\Generated_Source\PSoC5/USBUART_episr.c **** 
 126:.\Generated_Source\PSoC5/USBUART_episr.c ****         /* `#START EP2_USER_CODE` Place your code here */
 127:.\Generated_Source\PSoC5/USBUART_episr.c **** 
 128:.\Generated_Source\PSoC5/USBUART_episr.c ****         /* `#END` */
 129:.\Generated_Source\PSoC5/USBUART_episr.c **** 
 130:.\Generated_Source\PSoC5/USBUART_episr.c ****     #if (CY_PSOC3 && defined(USBUART_ENABLE_MIDI_STREAMING) && \
 131:.\Generated_Source\PSoC5/USBUART_episr.c ****         !defined(USBUART_MAIN_SERVICE_MIDI_OUT) && USBUART_ISR_SERVICE_MIDI_OUT)
 132:.\Generated_Source\PSoC5/USBUART_episr.c ****         {
 133:.\Generated_Source\PSoC5/USBUART_episr.c ****             uint8 intEn = EA;
ARM GAS  C:\Users\Thomas\AppData\Local\Temp\ccCgAAYA.s 			page 29


 134:.\Generated_Source\PSoC5/USBUART_episr.c ****             CyGlobalIntEnable;  /* Enable nested interrupts. */
 135:.\Generated_Source\PSoC5/USBUART_episr.c ****     #endif /* (CY_PSOC3 && USBUART_ISR_SERVICE_MIDI_OUT) */
 136:.\Generated_Source\PSoC5/USBUART_episr.c **** 
 137:.\Generated_Source\PSoC5/USBUART_episr.c ****         USBUART_ClearSieEpInterruptSource(USBUART_SIE_INT_EP2_INTR);
 400              		.loc 1 137 0
 401 0000 0A49     		ldr	r1, .L14
 138:.\Generated_Source\PSoC5/USBUART_episr.c **** 
 139:.\Generated_Source\PSoC5/USBUART_episr.c ****         /* Notifies user that transfer IN or OUT transfer is completed.
 140:.\Generated_Source\PSoC5/USBUART_episr.c ****         * IN endpoint: endpoint buffer can be reloaded, Host is read data.
 141:.\Generated_Source\PSoC5/USBUART_episr.c ****         * OUT endpoint: data is ready to be read from endpoint buffer. 
 142:.\Generated_Source\PSoC5/USBUART_episr.c ****         */
 143:.\Generated_Source\PSoC5/USBUART_episr.c ****     #if (CY_PSOC4 && USBUART_EP_MANAGEMENT_DMA_AUTO)
 144:.\Generated_Source\PSoC5/USBUART_episr.c ****         if (0u != (USBUART_EP[USBUART_EP2].addr & USBUART_DIR_IN))
 145:.\Generated_Source\PSoC5/USBUART_episr.c ****     #endif /* (CY_PSOC4 && USBUART_EP_MANAGEMENT_DMA_AUTO) */
 146:.\Generated_Source\PSoC5/USBUART_episr.c ****         {            
 147:.\Generated_Source\PSoC5/USBUART_episr.c ****             /* Read CR0 register to clear SIE lock. */
 148:.\Generated_Source\PSoC5/USBUART_episr.c ****             (void) USBUART_SIE_EP_BASE.sieEp[USBUART_EP2].epCr0;
 402              		.loc 1 148 0
 403 0002 0B48     		ldr	r0, .L14+4
 137:.\Generated_Source\PSoC5/USBUART_episr.c **** 
 404              		.loc 1 137 0
 405 0004 0A78     		ldrb	r2, [r1]	@ zero_extendqisi2
 149:.\Generated_Source\PSoC5/USBUART_episr.c ****             
 150:.\Generated_Source\PSoC5/USBUART_episr.c ****             /* Toggle all endpoint types except ISOC. */
 151:.\Generated_Source\PSoC5/USBUART_episr.c ****             if (USBUART_GET_EP_TYPE(USBUART_EP2) != USBUART_EP_TYPE_ISOC)
 406              		.loc 1 151 0
 407 0006 0B4B     		ldr	r3, .L14+8
 137:.\Generated_Source\PSoC5/USBUART_episr.c **** 
 408              		.loc 1 137 0
 409 0008 02F0FD02 		and	r2, r2, #253
 410 000c 0A70     		strb	r2, [r1]
 148:.\Generated_Source\PSoC5/USBUART_episr.c ****             
 411              		.loc 1 148 0
 412 000e 90F82220 		ldrb	r2, [r0, #34]	@ zero_extendqisi2
 413              		.loc 1 151 0
 414 0012 1A7E     		ldrb	r2, [r3, #24]	@ zero_extendqisi2
 415 0014 02F00302 		and	r2, r2, #3
 416 0018 012A     		cmp	r2, #1
 417 001a 03D0     		beq	.L10
 152:.\Generated_Source\PSoC5/USBUART_episr.c ****             {
 153:.\Generated_Source\PSoC5/USBUART_episr.c ****                 USBUART_EP[USBUART_EP2].epToggle ^= USBUART_EPX_CNT_DATA_TOGGLE;
 418              		.loc 1 153 0
 419 001c DA7E     		ldrb	r2, [r3, #27]	@ zero_extendqisi2
 420 001e 82F08002 		eor	r2, r2, #128
 421 0022 DA76     		strb	r2, [r3, #27]
 422              	.L10:
 154:.\Generated_Source\PSoC5/USBUART_episr.c ****             }
 155:.\Generated_Source\PSoC5/USBUART_episr.c **** 
 156:.\Generated_Source\PSoC5/USBUART_episr.c ****             /* EP_MANAGEMENT_DMA_AUTO (Ticket ID# 214187): For OUT endpoint this event is used to n
 157:.\Generated_Source\PSoC5/USBUART_episr.c ****             * user that DMA has completed copying data from OUT endpoint which is not completely tr
 158:.\Generated_Source\PSoC5/USBUART_episr.c ****             * Because last chunk of data is being copied.
 159:.\Generated_Source\PSoC5/USBUART_episr.c ****             * For CY_PSOC 3/5LP: it is acceptable as DMA is really fast.
 160:.\Generated_Source\PSoC5/USBUART_episr.c ****             * For CY_PSOC4: this event is set in Arbiter interrupt (source is DMA_TERMIN).
 161:.\Generated_Source\PSoC5/USBUART_episr.c ****             */
 162:.\Generated_Source\PSoC5/USBUART_episr.c ****             USBUART_EP[USBUART_EP2].apiEpState = USBUART_EVENT_PENDING;
 423              		.loc 1 162 0
 424 0024 0122     		movs	r2, #1
ARM GAS  C:\Users\Thomas\AppData\Local\Temp\ccCgAAYA.s 			page 30


 425 0026 5A76     		strb	r2, [r3, #25]
 426 0028 7047     		bx	lr
 427              	.L15:
 428 002a 00BF     		.align	2
 429              	.L14:
 430 002c 0B600040 		.word	1073766411
 431 0030 FC5F0040 		.word	1073766396
 432 0034 00000000 		.word	USBUART_EP
 433              		.cfi_endproc
 434              	.LFE1:
 435              		.size	USBUART_EP_2_ISR, .-USBUART_EP_2_ISR
 436              		.section	.text.USBUART_EP_3_ISR,"ax",%progbits
 437              		.align	2
 438              		.global	USBUART_EP_3_ISR
 439              		.thumb
 440              		.thumb_func
 441              		.type	USBUART_EP_3_ISR, %function
 442              	USBUART_EP_3_ISR:
 443              	.LFB2:
 163:.\Generated_Source\PSoC5/USBUART_episr.c ****         }
 164:.\Generated_Source\PSoC5/USBUART_episr.c **** 
 165:.\Generated_Source\PSoC5/USBUART_episr.c ****     #if (!(CY_PSOC4 && USBUART_EP_MANAGEMENT_DMA_AUTO))
 166:.\Generated_Source\PSoC5/USBUART_episr.c ****         #if (defined(USBUART_ENABLE_MIDI_STREAMING) && \
 167:.\Generated_Source\PSoC5/USBUART_episr.c ****             !defined(USBUART_MAIN_SERVICE_MIDI_OUT) && USBUART_ISR_SERVICE_MIDI_OUT)
 168:.\Generated_Source\PSoC5/USBUART_episr.c ****             if (USBUART_midi_out_ep == USBUART_EP2)
 169:.\Generated_Source\PSoC5/USBUART_episr.c ****             {
 170:.\Generated_Source\PSoC5/USBUART_episr.c ****                 USBUART_MIDI_OUT_Service();
 171:.\Generated_Source\PSoC5/USBUART_episr.c ****             }
 172:.\Generated_Source\PSoC5/USBUART_episr.c ****         #endif /* (USBUART_ISR_SERVICE_MIDI_OUT) */
 173:.\Generated_Source\PSoC5/USBUART_episr.c ****     #endif /* (!(CY_PSOC4 && USBUART_EP_MANAGEMENT_DMA_AUTO)) */        
 174:.\Generated_Source\PSoC5/USBUART_episr.c ****     
 175:.\Generated_Source\PSoC5/USBUART_episr.c ****         /* `#START EP2_END_USER_CODE` Place your code here */
 176:.\Generated_Source\PSoC5/USBUART_episr.c **** 
 177:.\Generated_Source\PSoC5/USBUART_episr.c ****         /* `#END` */
 178:.\Generated_Source\PSoC5/USBUART_episr.c **** 
 179:.\Generated_Source\PSoC5/USBUART_episr.c ****     #ifdef USBUART_EP_2_ISR_EXIT_CALLBACK
 180:.\Generated_Source\PSoC5/USBUART_episr.c ****         USBUART_EP_2_ISR_ExitCallback();
 181:.\Generated_Source\PSoC5/USBUART_episr.c ****     #endif /* (USBUART_EP_2_ISR_EXIT_CALLBACK) */
 182:.\Generated_Source\PSoC5/USBUART_episr.c **** 
 183:.\Generated_Source\PSoC5/USBUART_episr.c ****     #if (CY_PSOC3 && defined(USBUART_ENABLE_MIDI_STREAMING) && \
 184:.\Generated_Source\PSoC5/USBUART_episr.c ****         !defined(USBUART_MAIN_SERVICE_MIDI_OUT) && USBUART_ISR_SERVICE_MIDI_OUT)
 185:.\Generated_Source\PSoC5/USBUART_episr.c ****         
 186:.\Generated_Source\PSoC5/USBUART_episr.c ****             EA = intEn; /* Restore nested interrupt configuration. */
 187:.\Generated_Source\PSoC5/USBUART_episr.c ****         }
 188:.\Generated_Source\PSoC5/USBUART_episr.c ****     #endif /* (CY_PSOC3 && USBUART_ISR_SERVICE_MIDI_OUT) */
 189:.\Generated_Source\PSoC5/USBUART_episr.c ****     }
 190:.\Generated_Source\PSoC5/USBUART_episr.c **** #endif /* (USBUART_EP2_ISR_ACTIVE) */
 191:.\Generated_Source\PSoC5/USBUART_episr.c **** 
 192:.\Generated_Source\PSoC5/USBUART_episr.c **** 
 193:.\Generated_Source\PSoC5/USBUART_episr.c **** #if (USBUART_EP3_ISR_ACTIVE)
 194:.\Generated_Source\PSoC5/USBUART_episr.c ****     /*******************************************************************************
 195:.\Generated_Source\PSoC5/USBUART_episr.c ****     * Function Name: USBUART_EP_3_ISR
 196:.\Generated_Source\PSoC5/USBUART_episr.c ****     ****************************************************************************//**
 197:.\Generated_Source\PSoC5/USBUART_episr.c ****     *
 198:.\Generated_Source\PSoC5/USBUART_episr.c ****     *  Endpoint 3 Interrupt Service Routine.
 199:.\Generated_Source\PSoC5/USBUART_episr.c ****     *
 200:.\Generated_Source\PSoC5/USBUART_episr.c ****     *******************************************************************************/
ARM GAS  C:\Users\Thomas\AppData\Local\Temp\ccCgAAYA.s 			page 31


 201:.\Generated_Source\PSoC5/USBUART_episr.c ****     CY_ISR(USBUART_EP_3_ISR)
 202:.\Generated_Source\PSoC5/USBUART_episr.c ****     {
 444              		.loc 1 202 0
 445              		.cfi_startproc
 446              		@ args = 0, pretend = 0, frame = 0
 447              		@ frame_needed = 0, uses_anonymous_args = 0
 448              		@ link register save eliminated.
 203:.\Generated_Source\PSoC5/USBUART_episr.c ****     #ifdef USBUART_EP_3_ISR_ENTRY_CALLBACK
 204:.\Generated_Source\PSoC5/USBUART_episr.c ****         USBUART_EP_3_ISR_EntryCallback();
 205:.\Generated_Source\PSoC5/USBUART_episr.c ****     #endif /* (USBUART_EP_3_ISR_ENTRY_CALLBACK) */
 206:.\Generated_Source\PSoC5/USBUART_episr.c **** 
 207:.\Generated_Source\PSoC5/USBUART_episr.c ****         /* `#START EP3_USER_CODE` Place your code here */
 208:.\Generated_Source\PSoC5/USBUART_episr.c **** 
 209:.\Generated_Source\PSoC5/USBUART_episr.c ****         /* `#END` */
 210:.\Generated_Source\PSoC5/USBUART_episr.c **** 
 211:.\Generated_Source\PSoC5/USBUART_episr.c ****     #if (CY_PSOC3 && defined(USBUART_ENABLE_MIDI_STREAMING) && \
 212:.\Generated_Source\PSoC5/USBUART_episr.c ****         !defined(USBUART_MAIN_SERVICE_MIDI_OUT) && USBUART_ISR_SERVICE_MIDI_OUT)
 213:.\Generated_Source\PSoC5/USBUART_episr.c ****         {
 214:.\Generated_Source\PSoC5/USBUART_episr.c ****             uint8 intEn = EA;
 215:.\Generated_Source\PSoC5/USBUART_episr.c ****             CyGlobalIntEnable;  /* Enable nested interrupts. */
 216:.\Generated_Source\PSoC5/USBUART_episr.c ****     #endif /* (CY_PSOC3 && USBUART_ISR_SERVICE_MIDI_OUT) */
 217:.\Generated_Source\PSoC5/USBUART_episr.c **** 
 218:.\Generated_Source\PSoC5/USBUART_episr.c ****         USBUART_ClearSieEpInterruptSource(USBUART_SIE_INT_EP3_INTR);    
 449              		.loc 1 218 0
 450 0000 0C49     		ldr	r1, .L21
 219:.\Generated_Source\PSoC5/USBUART_episr.c **** 
 220:.\Generated_Source\PSoC5/USBUART_episr.c ****         /* Notifies user that transfer IN or OUT transfer is completed.
 221:.\Generated_Source\PSoC5/USBUART_episr.c ****         * IN endpoint: endpoint buffer can be reloaded, Host is read data.
 222:.\Generated_Source\PSoC5/USBUART_episr.c ****         * OUT endpoint: data is ready to be read from endpoint buffer. 
 223:.\Generated_Source\PSoC5/USBUART_episr.c ****         */
 224:.\Generated_Source\PSoC5/USBUART_episr.c ****     #if (CY_PSOC4 && USBUART_EP_MANAGEMENT_DMA_AUTO)
 225:.\Generated_Source\PSoC5/USBUART_episr.c ****         if (0u != (USBUART_EP[USBUART_EP3].addr & USBUART_DIR_IN))
 226:.\Generated_Source\PSoC5/USBUART_episr.c ****     #endif /* (USBUART_EP_MANAGEMENT_DMA_AUTO) */
 227:.\Generated_Source\PSoC5/USBUART_episr.c ****         {            
 228:.\Generated_Source\PSoC5/USBUART_episr.c ****             /* Read CR0 register to clear SIE lock. */
 229:.\Generated_Source\PSoC5/USBUART_episr.c ****             (void) USBUART_SIE_EP_BASE.sieEp[USBUART_EP3].epCr0;
 451              		.loc 1 229 0
 452 0002 0D48     		ldr	r0, .L21+4
 218:.\Generated_Source\PSoC5/USBUART_episr.c **** 
 453              		.loc 1 218 0
 454 0004 0A78     		ldrb	r2, [r1]	@ zero_extendqisi2
 230:.\Generated_Source\PSoC5/USBUART_episr.c **** 
 231:.\Generated_Source\PSoC5/USBUART_episr.c ****             /* Toggle all endpoint types except ISOC. */
 232:.\Generated_Source\PSoC5/USBUART_episr.c ****             if (USBUART_GET_EP_TYPE(USBUART_EP3) != USBUART_EP_TYPE_ISOC)
 455              		.loc 1 232 0
 456 0006 0D4B     		ldr	r3, .L21+8
 218:.\Generated_Source\PSoC5/USBUART_episr.c **** 
 457              		.loc 1 218 0
 458 0008 02F0FB02 		and	r2, r2, #251
 459 000c 0A70     		strb	r2, [r1]
 229:.\Generated_Source\PSoC5/USBUART_episr.c **** 
 460              		.loc 1 229 0
 461 000e 90F83220 		ldrb	r2, [r0, #50]	@ zero_extendqisi2
 462              		.loc 1 232 0
 463 0012 93F82420 		ldrb	r2, [r3, #36]	@ zero_extendqisi2
 464 0016 02F00302 		and	r2, r2, #3
 465 001a 012A     		cmp	r2, #1
ARM GAS  C:\Users\Thomas\AppData\Local\Temp\ccCgAAYA.s 			page 32


 466 001c 05D0     		beq	.L17
 233:.\Generated_Source\PSoC5/USBUART_episr.c ****             {
 234:.\Generated_Source\PSoC5/USBUART_episr.c ****                 USBUART_EP[USBUART_EP3].epToggle ^= USBUART_EPX_CNT_DATA_TOGGLE;
 467              		.loc 1 234 0
 468 001e 93F82720 		ldrb	r2, [r3, #39]	@ zero_extendqisi2
 469 0022 82F08002 		eor	r2, r2, #128
 470 0026 83F82720 		strb	r2, [r3, #39]
 471              	.L17:
 235:.\Generated_Source\PSoC5/USBUART_episr.c ****             }
 236:.\Generated_Source\PSoC5/USBUART_episr.c **** 
 237:.\Generated_Source\PSoC5/USBUART_episr.c ****             /* EP_MANAGEMENT_DMA_AUTO (Ticket ID# 214187): For OUT endpoint this event is used to n
 238:.\Generated_Source\PSoC5/USBUART_episr.c ****             * user that DMA has completed copying data from OUT endpoint which is not completely tr
 239:.\Generated_Source\PSoC5/USBUART_episr.c ****             * Because last chunk of data is being copied.
 240:.\Generated_Source\PSoC5/USBUART_episr.c ****             * For CY_PSOC 3/5LP: it is acceptable as DMA is really fast.
 241:.\Generated_Source\PSoC5/USBUART_episr.c ****             * For CY_PSOC4: this event is set in Arbiter interrupt (source is DMA_TERMIN).
 242:.\Generated_Source\PSoC5/USBUART_episr.c ****             */
 243:.\Generated_Source\PSoC5/USBUART_episr.c ****             USBUART_EP[USBUART_EP3].apiEpState = USBUART_EVENT_PENDING;
 472              		.loc 1 243 0
 473 002a 0122     		movs	r2, #1
 474 002c 83F82520 		strb	r2, [r3, #37]
 475 0030 7047     		bx	lr
 476              	.L22:
 477 0032 00BF     		.align	2
 478              	.L21:
 479 0034 0B600040 		.word	1073766411
 480 0038 FC5F0040 		.word	1073766396
 481 003c 00000000 		.word	USBUART_EP
 482              		.cfi_endproc
 483              	.LFE2:
 484              		.size	USBUART_EP_3_ISR, .-USBUART_EP_3_ISR
 485              		.section	.text.USBUART_SOF_ISR,"ax",%progbits
 486              		.align	2
 487              		.global	USBUART_SOF_ISR
 488              		.thumb
 489              		.thumb_func
 490              		.type	USBUART_SOF_ISR, %function
 491              	USBUART_SOF_ISR:
 492              	.LFB3:
 244:.\Generated_Source\PSoC5/USBUART_episr.c ****         }
 245:.\Generated_Source\PSoC5/USBUART_episr.c **** 
 246:.\Generated_Source\PSoC5/USBUART_episr.c ****     #if (!(CY_PSOC4 && USBUART_EP_MANAGEMENT_DMA_AUTO))
 247:.\Generated_Source\PSoC5/USBUART_episr.c ****         #if (defined(USBUART_ENABLE_MIDI_STREAMING) && \
 248:.\Generated_Source\PSoC5/USBUART_episr.c ****             !defined(USBUART_MAIN_SERVICE_MIDI_OUT) && USBUART_ISR_SERVICE_MIDI_OUT)
 249:.\Generated_Source\PSoC5/USBUART_episr.c ****             if (USBUART_midi_out_ep == USBUART_EP3)
 250:.\Generated_Source\PSoC5/USBUART_episr.c ****             {
 251:.\Generated_Source\PSoC5/USBUART_episr.c ****                 USBUART_MIDI_OUT_Service();
 252:.\Generated_Source\PSoC5/USBUART_episr.c ****             }
 253:.\Generated_Source\PSoC5/USBUART_episr.c ****         #endif /* (USBUART_ISR_SERVICE_MIDI_OUT) */
 254:.\Generated_Source\PSoC5/USBUART_episr.c ****     #endif /* (!(CY_PSOC4 && USBUART_EP_MANAGEMENT_DMA_AUTO)) */        
 255:.\Generated_Source\PSoC5/USBUART_episr.c **** 
 256:.\Generated_Source\PSoC5/USBUART_episr.c ****         /* `#START EP3_END_USER_CODE` Place your code here */
 257:.\Generated_Source\PSoC5/USBUART_episr.c **** 
 258:.\Generated_Source\PSoC5/USBUART_episr.c ****         /* `#END` */
 259:.\Generated_Source\PSoC5/USBUART_episr.c **** 
 260:.\Generated_Source\PSoC5/USBUART_episr.c ****     #ifdef USBUART_EP_3_ISR_EXIT_CALLBACK
 261:.\Generated_Source\PSoC5/USBUART_episr.c ****         USBUART_EP_3_ISR_ExitCallback();
 262:.\Generated_Source\PSoC5/USBUART_episr.c ****     #endif /* (USBUART_EP_3_ISR_EXIT_CALLBACK) */
ARM GAS  C:\Users\Thomas\AppData\Local\Temp\ccCgAAYA.s 			page 33


 263:.\Generated_Source\PSoC5/USBUART_episr.c **** 
 264:.\Generated_Source\PSoC5/USBUART_episr.c ****     #if (CY_PSOC3 && defined(USBUART_ENABLE_MIDI_STREAMING) && \
 265:.\Generated_Source\PSoC5/USBUART_episr.c ****         !defined(USBUART_MAIN_SERVICE_MIDI_OUT) && USBUART_ISR_SERVICE_MIDI_OUT)
 266:.\Generated_Source\PSoC5/USBUART_episr.c ****         
 267:.\Generated_Source\PSoC5/USBUART_episr.c ****             EA = intEn; /* Restore nested interrupt configuration. */
 268:.\Generated_Source\PSoC5/USBUART_episr.c ****         }
 269:.\Generated_Source\PSoC5/USBUART_episr.c ****     #endif /* (CY_PSOC3 && USBUART_ISR_SERVICE_MIDI_OUT) */
 270:.\Generated_Source\PSoC5/USBUART_episr.c ****     }
 271:.\Generated_Source\PSoC5/USBUART_episr.c **** #endif /* (USBUART_EP3_ISR_ACTIVE) */
 272:.\Generated_Source\PSoC5/USBUART_episr.c **** 
 273:.\Generated_Source\PSoC5/USBUART_episr.c **** 
 274:.\Generated_Source\PSoC5/USBUART_episr.c **** #if (USBUART_EP4_ISR_ACTIVE)
 275:.\Generated_Source\PSoC5/USBUART_episr.c ****     /*******************************************************************************
 276:.\Generated_Source\PSoC5/USBUART_episr.c ****     * Function Name: USBUART_EP_4_ISR
 277:.\Generated_Source\PSoC5/USBUART_episr.c ****     ****************************************************************************//**
 278:.\Generated_Source\PSoC5/USBUART_episr.c ****     *
 279:.\Generated_Source\PSoC5/USBUART_episr.c ****     *  Endpoint 4 Interrupt Service Routine.
 280:.\Generated_Source\PSoC5/USBUART_episr.c ****     *
 281:.\Generated_Source\PSoC5/USBUART_episr.c ****     *******************************************************************************/
 282:.\Generated_Source\PSoC5/USBUART_episr.c ****     CY_ISR(USBUART_EP_4_ISR)
 283:.\Generated_Source\PSoC5/USBUART_episr.c ****     {
 284:.\Generated_Source\PSoC5/USBUART_episr.c ****     #ifdef USBUART_EP_4_ISR_ENTRY_CALLBACK
 285:.\Generated_Source\PSoC5/USBUART_episr.c ****         USBUART_EP_4_ISR_EntryCallback();
 286:.\Generated_Source\PSoC5/USBUART_episr.c ****     #endif /* (USBUART_EP_4_ISR_ENTRY_CALLBACK) */
 287:.\Generated_Source\PSoC5/USBUART_episr.c **** 
 288:.\Generated_Source\PSoC5/USBUART_episr.c ****         /* `#START EP4_USER_CODE` Place your code here */
 289:.\Generated_Source\PSoC5/USBUART_episr.c **** 
 290:.\Generated_Source\PSoC5/USBUART_episr.c ****         /* `#END` */
 291:.\Generated_Source\PSoC5/USBUART_episr.c **** 
 292:.\Generated_Source\PSoC5/USBUART_episr.c ****     #if (CY_PSOC3 && defined(USBUART_ENABLE_MIDI_STREAMING) && \
 293:.\Generated_Source\PSoC5/USBUART_episr.c ****         !defined(USBUART_MAIN_SERVICE_MIDI_OUT) && USBUART_ISR_SERVICE_MIDI_OUT)
 294:.\Generated_Source\PSoC5/USBUART_episr.c ****         {
 295:.\Generated_Source\PSoC5/USBUART_episr.c ****             uint8 intEn = EA;
 296:.\Generated_Source\PSoC5/USBUART_episr.c ****             CyGlobalIntEnable;  /* Enable nested interrupts. */
 297:.\Generated_Source\PSoC5/USBUART_episr.c ****     #endif /* (CY_PSOC3 && USBUART_ISR_SERVICE_MIDI_OUT) */
 298:.\Generated_Source\PSoC5/USBUART_episr.c **** 
 299:.\Generated_Source\PSoC5/USBUART_episr.c ****         USBUART_ClearSieEpInterruptSource(USBUART_SIE_INT_EP4_INTR);
 300:.\Generated_Source\PSoC5/USBUART_episr.c ****         
 301:.\Generated_Source\PSoC5/USBUART_episr.c ****         /* Notifies user that transfer IN or OUT transfer is completed.
 302:.\Generated_Source\PSoC5/USBUART_episr.c ****         * IN endpoint: endpoint buffer can be reloaded, Host is read data.
 303:.\Generated_Source\PSoC5/USBUART_episr.c ****         * OUT endpoint: data is ready to read from endpoint buffer. 
 304:.\Generated_Source\PSoC5/USBUART_episr.c ****         */
 305:.\Generated_Source\PSoC5/USBUART_episr.c ****     #if (CY_PSOC4 && USBUART_EP_MANAGEMENT_DMA_AUTO)
 306:.\Generated_Source\PSoC5/USBUART_episr.c ****         if (0u != (USBUART_EP[USBUART_EP4].addr & USBUART_DIR_IN))
 307:.\Generated_Source\PSoC5/USBUART_episr.c ****     #endif /* (USBUART_EP_MANAGEMENT_DMA_AUTO) */
 308:.\Generated_Source\PSoC5/USBUART_episr.c ****         {
 309:.\Generated_Source\PSoC5/USBUART_episr.c ****             /* Read CR0 register to clear SIE lock. */
 310:.\Generated_Source\PSoC5/USBUART_episr.c ****             (void) USBUART_SIE_EP_BASE.sieEp[USBUART_EP4].epCr0;
 311:.\Generated_Source\PSoC5/USBUART_episr.c **** 
 312:.\Generated_Source\PSoC5/USBUART_episr.c ****             /* Toggle all endpoint types except ISOC. */
 313:.\Generated_Source\PSoC5/USBUART_episr.c ****             if (USBUART_GET_EP_TYPE(USBUART_EP4) != USBUART_EP_TYPE_ISOC)
 314:.\Generated_Source\PSoC5/USBUART_episr.c ****             {
 315:.\Generated_Source\PSoC5/USBUART_episr.c ****                 USBUART_EP[USBUART_EP4].epToggle ^= USBUART_EPX_CNT_DATA_TOGGLE;
 316:.\Generated_Source\PSoC5/USBUART_episr.c ****             }
 317:.\Generated_Source\PSoC5/USBUART_episr.c **** 
 318:.\Generated_Source\PSoC5/USBUART_episr.c ****             /* EP_MANAGEMENT_DMA_AUTO (Ticket ID# 214187): For OUT endpoint this event is used to n
 319:.\Generated_Source\PSoC5/USBUART_episr.c ****             * user that DMA has completed copying data from OUT endpoint which is not completely tr
ARM GAS  C:\Users\Thomas\AppData\Local\Temp\ccCgAAYA.s 			page 34


 320:.\Generated_Source\PSoC5/USBUART_episr.c ****             * Because last chunk of data is being copied.
 321:.\Generated_Source\PSoC5/USBUART_episr.c ****             * For CY_PSOC 3/5LP: it is acceptable as DMA is really fast.
 322:.\Generated_Source\PSoC5/USBUART_episr.c ****             * For CY_PSOC4: this event is set in Arbiter interrupt (source is DMA_TERMIN).
 323:.\Generated_Source\PSoC5/USBUART_episr.c ****             */
 324:.\Generated_Source\PSoC5/USBUART_episr.c ****             USBUART_EP[USBUART_EP4].apiEpState = USBUART_EVENT_PENDING;
 325:.\Generated_Source\PSoC5/USBUART_episr.c ****         }
 326:.\Generated_Source\PSoC5/USBUART_episr.c **** 
 327:.\Generated_Source\PSoC5/USBUART_episr.c ****     #if (!(CY_PSOC4 && USBUART_EP_MANAGEMENT_DMA_AUTO))
 328:.\Generated_Source\PSoC5/USBUART_episr.c ****         #if (defined(USBUART_ENABLE_MIDI_STREAMING) && \
 329:.\Generated_Source\PSoC5/USBUART_episr.c ****             !defined(USBUART_MAIN_SERVICE_MIDI_OUT) && USBUART_ISR_SERVICE_MIDI_OUT)
 330:.\Generated_Source\PSoC5/USBUART_episr.c ****             if(USBUART_midi_out_ep == USBUART_EP4)
 331:.\Generated_Source\PSoC5/USBUART_episr.c ****             {
 332:.\Generated_Source\PSoC5/USBUART_episr.c ****                 USBUART_MIDI_OUT_Service();
 333:.\Generated_Source\PSoC5/USBUART_episr.c ****             }
 334:.\Generated_Source\PSoC5/USBUART_episr.c ****         #endif /* (USBUART_ISR_SERVICE_MIDI_OUT) */
 335:.\Generated_Source\PSoC5/USBUART_episr.c ****     #endif /* (!(CY_PSOC4 && USBUART_EP_MANAGEMENT_DMA_AUTO)) */        
 336:.\Generated_Source\PSoC5/USBUART_episr.c **** 
 337:.\Generated_Source\PSoC5/USBUART_episr.c ****         /* `#START EP4_END_USER_CODE` Place your code here */
 338:.\Generated_Source\PSoC5/USBUART_episr.c **** 
 339:.\Generated_Source\PSoC5/USBUART_episr.c ****         /* `#END` */
 340:.\Generated_Source\PSoC5/USBUART_episr.c **** 
 341:.\Generated_Source\PSoC5/USBUART_episr.c ****     #ifdef USBUART_EP_4_ISR_EXIT_CALLBACK
 342:.\Generated_Source\PSoC5/USBUART_episr.c ****         USBUART_EP_4_ISR_ExitCallback();
 343:.\Generated_Source\PSoC5/USBUART_episr.c ****     #endif /* (USBUART_EP_4_ISR_EXIT_CALLBACK) */
 344:.\Generated_Source\PSoC5/USBUART_episr.c **** 
 345:.\Generated_Source\PSoC5/USBUART_episr.c ****     #if (CY_PSOC3 && defined(USBUART_ENABLE_MIDI_STREAMING) && \
 346:.\Generated_Source\PSoC5/USBUART_episr.c ****         !defined(USBUART_MAIN_SERVICE_MIDI_OUT) && USBUART_ISR_SERVICE_MIDI_OUT)
 347:.\Generated_Source\PSoC5/USBUART_episr.c ****         
 348:.\Generated_Source\PSoC5/USBUART_episr.c ****             EA = intEn; /* Restore nested interrupt configuration. */
 349:.\Generated_Source\PSoC5/USBUART_episr.c ****         }
 350:.\Generated_Source\PSoC5/USBUART_episr.c ****     #endif /* (CY_PSOC3 && USBUART_ISR_SERVICE_MIDI_OUT) */
 351:.\Generated_Source\PSoC5/USBUART_episr.c ****     }
 352:.\Generated_Source\PSoC5/USBUART_episr.c **** #endif /* (USBUART_EP4_ISR_ACTIVE) */
 353:.\Generated_Source\PSoC5/USBUART_episr.c **** 
 354:.\Generated_Source\PSoC5/USBUART_episr.c **** 
 355:.\Generated_Source\PSoC5/USBUART_episr.c **** #if (USBUART_EP5_ISR_ACTIVE)
 356:.\Generated_Source\PSoC5/USBUART_episr.c ****     /*******************************************************************************
 357:.\Generated_Source\PSoC5/USBUART_episr.c ****     * Function Name: USBUART_EP_5_ISR
 358:.\Generated_Source\PSoC5/USBUART_episr.c ****     ****************************************************************************//**
 359:.\Generated_Source\PSoC5/USBUART_episr.c ****     *
 360:.\Generated_Source\PSoC5/USBUART_episr.c ****     *  Endpoint 5 Interrupt Service Routine
 361:.\Generated_Source\PSoC5/USBUART_episr.c ****     *
 362:.\Generated_Source\PSoC5/USBUART_episr.c ****     *
 363:.\Generated_Source\PSoC5/USBUART_episr.c ****     *******************************************************************************/
 364:.\Generated_Source\PSoC5/USBUART_episr.c ****     CY_ISR(USBUART_EP_5_ISR)
 365:.\Generated_Source\PSoC5/USBUART_episr.c ****     {
 366:.\Generated_Source\PSoC5/USBUART_episr.c ****     #ifdef USBUART_EP_5_ISR_ENTRY_CALLBACK
 367:.\Generated_Source\PSoC5/USBUART_episr.c ****         USBUART_EP_5_ISR_EntryCallback();
 368:.\Generated_Source\PSoC5/USBUART_episr.c ****     #endif /* (USBUART_EP_5_ISR_ENTRY_CALLBACK) */
 369:.\Generated_Source\PSoC5/USBUART_episr.c **** 
 370:.\Generated_Source\PSoC5/USBUART_episr.c ****         /* `#START EP5_USER_CODE` Place your code here */
 371:.\Generated_Source\PSoC5/USBUART_episr.c **** 
 372:.\Generated_Source\PSoC5/USBUART_episr.c ****         /* `#END` */
 373:.\Generated_Source\PSoC5/USBUART_episr.c **** 
 374:.\Generated_Source\PSoC5/USBUART_episr.c ****     #if (defined(USBUART_ENABLE_MIDI_STREAMING) && !defined(USBUART_MAIN_SERVICE_MIDI_OUT) && \
 375:.\Generated_Source\PSoC5/USBUART_episr.c ****                  USBUART_ISR_SERVICE_MIDI_OUT && CY_PSOC3)
 376:.\Generated_Source\PSoC5/USBUART_episr.c ****         {
ARM GAS  C:\Users\Thomas\AppData\Local\Temp\ccCgAAYA.s 			page 35


 377:.\Generated_Source\PSoC5/USBUART_episr.c ****             uint8 intEn = EA;
 378:.\Generated_Source\PSoC5/USBUART_episr.c ****             CyGlobalIntEnable;  /* Enable nested interrupts. */
 379:.\Generated_Source\PSoC5/USBUART_episr.c ****     #endif /* (CY_PSOC3 && USBUART_ISR_SERVICE_MIDI_OUT) */
 380:.\Generated_Source\PSoC5/USBUART_episr.c **** 
 381:.\Generated_Source\PSoC5/USBUART_episr.c ****         USBUART_ClearSieEpInterruptSource(USBUART_SIE_INT_EP5_INTR);
 382:.\Generated_Source\PSoC5/USBUART_episr.c ****     
 383:.\Generated_Source\PSoC5/USBUART_episr.c ****         /* Notifies user that transfer IN or OUT transfer is completed.
 384:.\Generated_Source\PSoC5/USBUART_episr.c ****         * IN endpoint: endpoint buffer can be reloaded, Host is read data.
 385:.\Generated_Source\PSoC5/USBUART_episr.c ****         * OUT endpoint: data is ready to read from endpoint buffer. 
 386:.\Generated_Source\PSoC5/USBUART_episr.c ****         */
 387:.\Generated_Source\PSoC5/USBUART_episr.c ****     #if (CY_PSOC4 && USBUART_EP_MANAGEMENT_DMA_AUTO)
 388:.\Generated_Source\PSoC5/USBUART_episr.c ****         if (0u != (USBUART_EP[USBUART_EP5].addr & USBUART_DIR_IN))
 389:.\Generated_Source\PSoC5/USBUART_episr.c ****     #endif /* (USBUART_EP_MANAGEMENT_DMA_AUTO) */
 390:.\Generated_Source\PSoC5/USBUART_episr.c ****         {            
 391:.\Generated_Source\PSoC5/USBUART_episr.c ****             /* Read CR0 register to clear SIE lock. */
 392:.\Generated_Source\PSoC5/USBUART_episr.c ****             (void) USBUART_SIE_EP_BASE.sieEp[USBUART_EP5].epCr0;
 393:.\Generated_Source\PSoC5/USBUART_episr.c **** 
 394:.\Generated_Source\PSoC5/USBUART_episr.c ****             /* Toggle all endpoint types except ISOC. */
 395:.\Generated_Source\PSoC5/USBUART_episr.c ****             if (USBUART_GET_EP_TYPE(USBUART_EP5) != USBUART_EP_TYPE_ISOC)
 396:.\Generated_Source\PSoC5/USBUART_episr.c ****             {
 397:.\Generated_Source\PSoC5/USBUART_episr.c ****                 USBUART_EP[USBUART_EP5].epToggle ^= USBUART_EPX_CNT_DATA_TOGGLE;
 398:.\Generated_Source\PSoC5/USBUART_episr.c ****             }
 399:.\Generated_Source\PSoC5/USBUART_episr.c **** 
 400:.\Generated_Source\PSoC5/USBUART_episr.c ****             /* EP_MANAGEMENT_DMA_AUTO (Ticket ID# 214187): For OUT endpoint this event is used to n
 401:.\Generated_Source\PSoC5/USBUART_episr.c ****             * user that DMA has completed copying data from OUT endpoint which is not completely tr
 402:.\Generated_Source\PSoC5/USBUART_episr.c ****             * Because last chunk of data is being copied.
 403:.\Generated_Source\PSoC5/USBUART_episr.c ****             * For CY_PSOC 3/5LP: it is acceptable as DMA is really fast.
 404:.\Generated_Source\PSoC5/USBUART_episr.c ****             * For CY_PSOC4: this event is set in Arbiter interrupt (source is DMA_TERMIN).
 405:.\Generated_Source\PSoC5/USBUART_episr.c ****             */
 406:.\Generated_Source\PSoC5/USBUART_episr.c ****             USBUART_EP[USBUART_EP5].apiEpState = USBUART_EVENT_PENDING;
 407:.\Generated_Source\PSoC5/USBUART_episr.c ****         }
 408:.\Generated_Source\PSoC5/USBUART_episr.c **** 
 409:.\Generated_Source\PSoC5/USBUART_episr.c ****     #if (!(CY_PSOC4 && USBUART_EP_MANAGEMENT_DMA_AUTO))        
 410:.\Generated_Source\PSoC5/USBUART_episr.c ****         #if (defined(USBUART_ENABLE_MIDI_STREAMING) && \
 411:.\Generated_Source\PSoC5/USBUART_episr.c ****             !defined(USBUART_MAIN_SERVICE_MIDI_OUT) && USBUART_ISR_SERVICE_MIDI_OUT)
 412:.\Generated_Source\PSoC5/USBUART_episr.c ****             if (USBUART_midi_out_ep == USBUART_EP5)
 413:.\Generated_Source\PSoC5/USBUART_episr.c ****             {
 414:.\Generated_Source\PSoC5/USBUART_episr.c ****                 USBUART_MIDI_OUT_Service();
 415:.\Generated_Source\PSoC5/USBUART_episr.c ****             }
 416:.\Generated_Source\PSoC5/USBUART_episr.c ****         #endif /* (USBUART_ISR_SERVICE_MIDI_OUT) */
 417:.\Generated_Source\PSoC5/USBUART_episr.c ****     #endif /* (!(CY_PSOC4 && USBUART_EP_MANAGEMENT_DMA_AUTO)) */
 418:.\Generated_Source\PSoC5/USBUART_episr.c **** 
 419:.\Generated_Source\PSoC5/USBUART_episr.c ****         /* `#START EP5_END_USER_CODE` Place your code here */
 420:.\Generated_Source\PSoC5/USBUART_episr.c **** 
 421:.\Generated_Source\PSoC5/USBUART_episr.c ****         /* `#END` */
 422:.\Generated_Source\PSoC5/USBUART_episr.c **** 
 423:.\Generated_Source\PSoC5/USBUART_episr.c ****     #ifdef USBUART_EP_5_ISR_EXIT_CALLBACK
 424:.\Generated_Source\PSoC5/USBUART_episr.c ****         USBUART_EP_5_ISR_ExitCallback();
 425:.\Generated_Source\PSoC5/USBUART_episr.c ****     #endif /* (USBUART_EP_5_ISR_EXIT_CALLBACK) */
 426:.\Generated_Source\PSoC5/USBUART_episr.c **** 
 427:.\Generated_Source\PSoC5/USBUART_episr.c ****     #if (CY_PSOC3 && defined(USBUART_ENABLE_MIDI_STREAMING) && \
 428:.\Generated_Source\PSoC5/USBUART_episr.c ****         !defined(USBUART_MAIN_SERVICE_MIDI_OUT) && USBUART_ISR_SERVICE_MIDI_OUT)
 429:.\Generated_Source\PSoC5/USBUART_episr.c ****         
 430:.\Generated_Source\PSoC5/USBUART_episr.c ****             EA = intEn; /* Restore nested interrupt configuration. */
 431:.\Generated_Source\PSoC5/USBUART_episr.c ****         }
 432:.\Generated_Source\PSoC5/USBUART_episr.c ****     #endif /* (CY_PSOC3 && USBUART_ISR_SERVICE_MIDI_OUT) */
 433:.\Generated_Source\PSoC5/USBUART_episr.c ****     }
ARM GAS  C:\Users\Thomas\AppData\Local\Temp\ccCgAAYA.s 			page 36


 434:.\Generated_Source\PSoC5/USBUART_episr.c **** #endif /* (USBUART_EP5_ISR_ACTIVE) */
 435:.\Generated_Source\PSoC5/USBUART_episr.c **** 
 436:.\Generated_Source\PSoC5/USBUART_episr.c **** 
 437:.\Generated_Source\PSoC5/USBUART_episr.c **** #if (USBUART_EP6_ISR_ACTIVE)
 438:.\Generated_Source\PSoC5/USBUART_episr.c ****     /*******************************************************************************
 439:.\Generated_Source\PSoC5/USBUART_episr.c ****     * Function Name: USBUART_EP_6_ISR
 440:.\Generated_Source\PSoC5/USBUART_episr.c ****     ****************************************************************************//**
 441:.\Generated_Source\PSoC5/USBUART_episr.c ****     *
 442:.\Generated_Source\PSoC5/USBUART_episr.c ****     *  Endpoint 6 Interrupt Service Routine.
 443:.\Generated_Source\PSoC5/USBUART_episr.c ****     *
 444:.\Generated_Source\PSoC5/USBUART_episr.c ****     *
 445:.\Generated_Source\PSoC5/USBUART_episr.c ****     *******************************************************************************/
 446:.\Generated_Source\PSoC5/USBUART_episr.c ****     CY_ISR(USBUART_EP_6_ISR)
 447:.\Generated_Source\PSoC5/USBUART_episr.c ****     {
 448:.\Generated_Source\PSoC5/USBUART_episr.c ****     #ifdef USBUART_EP_6_ISR_ENTRY_CALLBACK
 449:.\Generated_Source\PSoC5/USBUART_episr.c ****         USBUART_EP_6_ISR_EntryCallback();
 450:.\Generated_Source\PSoC5/USBUART_episr.c ****     #endif /* (USBUART_EP_6_ISR_ENTRY_CALLBACK) */
 451:.\Generated_Source\PSoC5/USBUART_episr.c **** 
 452:.\Generated_Source\PSoC5/USBUART_episr.c ****         /* `#START EP6_USER_CODE` Place your code here */
 453:.\Generated_Source\PSoC5/USBUART_episr.c **** 
 454:.\Generated_Source\PSoC5/USBUART_episr.c ****         /* `#END` */
 455:.\Generated_Source\PSoC5/USBUART_episr.c **** 
 456:.\Generated_Source\PSoC5/USBUART_episr.c ****     #if (CY_PSOC3 && defined(USBUART_ENABLE_MIDI_STREAMING) && \
 457:.\Generated_Source\PSoC5/USBUART_episr.c ****         !defined(USBUART_MAIN_SERVICE_MIDI_OUT) && USBUART_ISR_SERVICE_MIDI_OUT)
 458:.\Generated_Source\PSoC5/USBUART_episr.c ****         {
 459:.\Generated_Source\PSoC5/USBUART_episr.c ****             uint8 intEn = EA;
 460:.\Generated_Source\PSoC5/USBUART_episr.c ****             CyGlobalIntEnable;  /* Enable nested interrupts. */
 461:.\Generated_Source\PSoC5/USBUART_episr.c ****     #endif /* (CY_PSOC3 && USBUART_ISR_SERVICE_MIDI_OUT) */
 462:.\Generated_Source\PSoC5/USBUART_episr.c **** 
 463:.\Generated_Source\PSoC5/USBUART_episr.c ****         USBUART_ClearSieEpInterruptSource(USBUART_SIE_INT_EP6_INTR);
 464:.\Generated_Source\PSoC5/USBUART_episr.c ****         
 465:.\Generated_Source\PSoC5/USBUART_episr.c ****         /* Notifies user that transfer IN or OUT transfer is completed.
 466:.\Generated_Source\PSoC5/USBUART_episr.c ****         * IN endpoint: endpoint buffer can be reloaded, Host is read data.
 467:.\Generated_Source\PSoC5/USBUART_episr.c ****         * OUT endpoint: data is ready to read from endpoint buffer. 
 468:.\Generated_Source\PSoC5/USBUART_episr.c ****         */
 469:.\Generated_Source\PSoC5/USBUART_episr.c ****     #if (CY_PSOC4 && USBUART_EP_MANAGEMENT_DMA_AUTO)
 470:.\Generated_Source\PSoC5/USBUART_episr.c ****         if (0u != (USBUART_EP[USBUART_EP6].addr & USBUART_DIR_IN))
 471:.\Generated_Source\PSoC5/USBUART_episr.c ****     #endif /* (USBUART_EP_MANAGEMENT_DMA_AUTO) */
 472:.\Generated_Source\PSoC5/USBUART_episr.c ****         {
 473:.\Generated_Source\PSoC5/USBUART_episr.c ****             /* Read CR0 register to clear SIE lock. */
 474:.\Generated_Source\PSoC5/USBUART_episr.c ****             (void) USBUART_SIE_EP_BASE.sieEp[USBUART_EP6].epCr0;
 475:.\Generated_Source\PSoC5/USBUART_episr.c **** 
 476:.\Generated_Source\PSoC5/USBUART_episr.c ****             /* Toggle all endpoint types except ISOC. */
 477:.\Generated_Source\PSoC5/USBUART_episr.c ****             if (USBUART_GET_EP_TYPE(USBUART_EP6) != USBUART_EP_TYPE_ISOC)
 478:.\Generated_Source\PSoC5/USBUART_episr.c ****             {
 479:.\Generated_Source\PSoC5/USBUART_episr.c ****                 USBUART_EP[USBUART_EP6].epToggle ^= USBUART_EPX_CNT_DATA_TOGGLE;
 480:.\Generated_Source\PSoC5/USBUART_episr.c ****             }
 481:.\Generated_Source\PSoC5/USBUART_episr.c ****             
 482:.\Generated_Source\PSoC5/USBUART_episr.c ****             /* EP_MANAGEMENT_DMA_AUTO (Ticket ID# 214187): For OUT endpoint this event is used to n
 483:.\Generated_Source\PSoC5/USBUART_episr.c ****             * user that DMA has completed copying data from OUT endpoint which is not completely tr
 484:.\Generated_Source\PSoC5/USBUART_episr.c ****             * Because last chunk of data is being copied.
 485:.\Generated_Source\PSoC5/USBUART_episr.c ****             * For CY_PSOC 3/5LP: it is acceptable as DMA is really fast.
 486:.\Generated_Source\PSoC5/USBUART_episr.c ****             * For CY_PSOC4: this event is set in Arbiter interrupt (source is DMA_TERMIN).
 487:.\Generated_Source\PSoC5/USBUART_episr.c ****             */
 488:.\Generated_Source\PSoC5/USBUART_episr.c ****             USBUART_EP[USBUART_EP6].apiEpState = USBUART_EVENT_PENDING;
 489:.\Generated_Source\PSoC5/USBUART_episr.c ****         }
 490:.\Generated_Source\PSoC5/USBUART_episr.c **** 
ARM GAS  C:\Users\Thomas\AppData\Local\Temp\ccCgAAYA.s 			page 37


 491:.\Generated_Source\PSoC5/USBUART_episr.c ****     #if (!(CY_PSOC4 && USBUART_EP_MANAGEMENT_DMA_AUTO))
 492:.\Generated_Source\PSoC5/USBUART_episr.c ****         #if (defined(USBUART_ENABLE_MIDI_STREAMING) && \
 493:.\Generated_Source\PSoC5/USBUART_episr.c ****             !defined(USBUART_MAIN_SERVICE_MIDI_OUT) && USBUART_ISR_SERVICE_MIDI_OUT)
 494:.\Generated_Source\PSoC5/USBUART_episr.c ****             if (USBUART_midi_out_ep == USBUART_EP6)
 495:.\Generated_Source\PSoC5/USBUART_episr.c ****             {
 496:.\Generated_Source\PSoC5/USBUART_episr.c ****                 USBUART_MIDI_OUT_Service();
 497:.\Generated_Source\PSoC5/USBUART_episr.c ****             }
 498:.\Generated_Source\PSoC5/USBUART_episr.c ****         #endif /* (USBUART_ISR_SERVICE_MIDI_OUT) */
 499:.\Generated_Source\PSoC5/USBUART_episr.c ****     #endif /* (!(CY_PSOC4 && USBUART_EP_MANAGEMENT_DMA_AUTO)) */
 500:.\Generated_Source\PSoC5/USBUART_episr.c **** 
 501:.\Generated_Source\PSoC5/USBUART_episr.c ****         /* `#START EP6_END_USER_CODE` Place your code here */
 502:.\Generated_Source\PSoC5/USBUART_episr.c **** 
 503:.\Generated_Source\PSoC5/USBUART_episr.c ****         /* `#END` */
 504:.\Generated_Source\PSoC5/USBUART_episr.c **** 
 505:.\Generated_Source\PSoC5/USBUART_episr.c ****     #ifdef USBUART_EP_6_ISR_EXIT_CALLBACK
 506:.\Generated_Source\PSoC5/USBUART_episr.c ****         USBUART_EP_6_ISR_ExitCallback();
 507:.\Generated_Source\PSoC5/USBUART_episr.c ****     #endif /* (USBUART_EP_6_ISR_EXIT_CALLBACK) */
 508:.\Generated_Source\PSoC5/USBUART_episr.c **** 
 509:.\Generated_Source\PSoC5/USBUART_episr.c ****     #if (CY_PSOC3 && defined(USBUART_ENABLE_MIDI_STREAMING) && \
 510:.\Generated_Source\PSoC5/USBUART_episr.c ****         !defined(USBUART_MAIN_SERVICE_MIDI_OUT) && USBUART_ISR_SERVICE_MIDI_OUT)
 511:.\Generated_Source\PSoC5/USBUART_episr.c ****         
 512:.\Generated_Source\PSoC5/USBUART_episr.c ****             EA = intEn; /* Restore nested interrupt configuration. */
 513:.\Generated_Source\PSoC5/USBUART_episr.c ****         }
 514:.\Generated_Source\PSoC5/USBUART_episr.c ****     #endif /* (CY_PSOC3 && USBUART_ISR_SERVICE_MIDI_OUT) */
 515:.\Generated_Source\PSoC5/USBUART_episr.c ****     }
 516:.\Generated_Source\PSoC5/USBUART_episr.c **** #endif /* (USBUART_EP6_ISR_ACTIVE) */
 517:.\Generated_Source\PSoC5/USBUART_episr.c **** 
 518:.\Generated_Source\PSoC5/USBUART_episr.c **** 
 519:.\Generated_Source\PSoC5/USBUART_episr.c **** #if (USBUART_EP7_ISR_ACTIVE)
 520:.\Generated_Source\PSoC5/USBUART_episr.c ****     /*******************************************************************************
 521:.\Generated_Source\PSoC5/USBUART_episr.c ****     * Function Name: USBUART_EP_7_ISR
 522:.\Generated_Source\PSoC5/USBUART_episr.c ****     ****************************************************************************//**
 523:.\Generated_Source\PSoC5/USBUART_episr.c ****     *
 524:.\Generated_Source\PSoC5/USBUART_episr.c ****     *  Endpoint 7 Interrupt Service Routine.
 525:.\Generated_Source\PSoC5/USBUART_episr.c ****     *
 526:.\Generated_Source\PSoC5/USBUART_episr.c ****     *
 527:.\Generated_Source\PSoC5/USBUART_episr.c ****     *******************************************************************************/
 528:.\Generated_Source\PSoC5/USBUART_episr.c ****     CY_ISR(USBUART_EP_7_ISR)
 529:.\Generated_Source\PSoC5/USBUART_episr.c ****     {
 530:.\Generated_Source\PSoC5/USBUART_episr.c ****     #ifdef USBUART_EP_7_ISR_ENTRY_CALLBACK
 531:.\Generated_Source\PSoC5/USBUART_episr.c ****         USBUART_EP_7_ISR_EntryCallback();
 532:.\Generated_Source\PSoC5/USBUART_episr.c ****     #endif /* (USBUART_EP_7_ISR_ENTRY_CALLBACK) */
 533:.\Generated_Source\PSoC5/USBUART_episr.c **** 
 534:.\Generated_Source\PSoC5/USBUART_episr.c ****         /* `#START EP7_USER_CODE` Place your code here */
 535:.\Generated_Source\PSoC5/USBUART_episr.c **** 
 536:.\Generated_Source\PSoC5/USBUART_episr.c ****         /* `#END` */
 537:.\Generated_Source\PSoC5/USBUART_episr.c **** 
 538:.\Generated_Source\PSoC5/USBUART_episr.c ****     #if (CY_PSOC3 && defined(USBUART_ENABLE_MIDI_STREAMING) && \
 539:.\Generated_Source\PSoC5/USBUART_episr.c ****         !defined(USBUART_MAIN_SERVICE_MIDI_OUT) && USBUART_ISR_SERVICE_MIDI_OUT)
 540:.\Generated_Source\PSoC5/USBUART_episr.c ****         {
 541:.\Generated_Source\PSoC5/USBUART_episr.c ****             uint8 intEn = EA;
 542:.\Generated_Source\PSoC5/USBUART_episr.c ****             CyGlobalIntEnable;  /* Enable nested interrupts. */
 543:.\Generated_Source\PSoC5/USBUART_episr.c ****     #endif /* (CY_PSOC3 && USBUART_ISR_SERVICE_MIDI_OUT) */
 544:.\Generated_Source\PSoC5/USBUART_episr.c ****     
 545:.\Generated_Source\PSoC5/USBUART_episr.c ****         USBUART_ClearSieEpInterruptSource(USBUART_SIE_INT_EP7_INTR);
 546:.\Generated_Source\PSoC5/USBUART_episr.c ****         
 547:.\Generated_Source\PSoC5/USBUART_episr.c ****         /* Notifies user that transfer IN or OUT transfer is completed.
ARM GAS  C:\Users\Thomas\AppData\Local\Temp\ccCgAAYA.s 			page 38


 548:.\Generated_Source\PSoC5/USBUART_episr.c ****         * IN endpoint: endpoint buffer can be reloaded, Host is read data.
 549:.\Generated_Source\PSoC5/USBUART_episr.c ****         * OUT endpoint: data is ready to read from endpoint buffer. 
 550:.\Generated_Source\PSoC5/USBUART_episr.c ****         */
 551:.\Generated_Source\PSoC5/USBUART_episr.c ****     #if (CY_PSOC4 && USBUART_EP_MANAGEMENT_DMA_AUTO)
 552:.\Generated_Source\PSoC5/USBUART_episr.c ****         if (0u != (USBUART_EP[USBUART_EP7].addr & USBUART_DIR_IN))
 553:.\Generated_Source\PSoC5/USBUART_episr.c ****     #endif /* (USBUART_EP_MANAGEMENT_DMA_AUTO) */
 554:.\Generated_Source\PSoC5/USBUART_episr.c ****         {           
 555:.\Generated_Source\PSoC5/USBUART_episr.c ****             /* Read CR0 register to clear SIE lock. */
 556:.\Generated_Source\PSoC5/USBUART_episr.c ****             (void) USBUART_SIE_EP_BASE.sieEp[USBUART_EP7].epCr0;
 557:.\Generated_Source\PSoC5/USBUART_episr.c **** 
 558:.\Generated_Source\PSoC5/USBUART_episr.c ****             /* Toggle all endpoint types except ISOC. */
 559:.\Generated_Source\PSoC5/USBUART_episr.c ****             if (USBUART_GET_EP_TYPE(USBUART_EP7) != USBUART_EP_TYPE_ISOC)
 560:.\Generated_Source\PSoC5/USBUART_episr.c ****             {
 561:.\Generated_Source\PSoC5/USBUART_episr.c ****                 USBUART_EP[USBUART_EP7].epToggle ^= USBUART_EPX_CNT_DATA_TOGGLE;
 562:.\Generated_Source\PSoC5/USBUART_episr.c ****             }
 563:.\Generated_Source\PSoC5/USBUART_episr.c ****             
 564:.\Generated_Source\PSoC5/USBUART_episr.c ****             /* EP_MANAGEMENT_DMA_AUTO (Ticket ID# 214187): For OUT endpoint this event is used to n
 565:.\Generated_Source\PSoC5/USBUART_episr.c ****             * user that DMA has completed copying data from OUT endpoint which is not completely tr
 566:.\Generated_Source\PSoC5/USBUART_episr.c ****             * Because last chunk of data is being copied.
 567:.\Generated_Source\PSoC5/USBUART_episr.c ****             * For CY_PSOC 3/5LP: it is acceptable as DMA is really fast.
 568:.\Generated_Source\PSoC5/USBUART_episr.c ****             * For CY_PSOC4: this event is set in Arbiter interrupt (source is DMA_TERMIN).
 569:.\Generated_Source\PSoC5/USBUART_episr.c ****             */
 570:.\Generated_Source\PSoC5/USBUART_episr.c ****             USBUART_EP[USBUART_EP7].apiEpState = USBUART_EVENT_PENDING;
 571:.\Generated_Source\PSoC5/USBUART_episr.c ****         }
 572:.\Generated_Source\PSoC5/USBUART_episr.c **** 
 573:.\Generated_Source\PSoC5/USBUART_episr.c **** 
 574:.\Generated_Source\PSoC5/USBUART_episr.c ****     #if (!(CY_PSOC4 && USBUART_EP_MANAGEMENT_DMA_AUTO))
 575:.\Generated_Source\PSoC5/USBUART_episr.c ****         #if (defined(USBUART_ENABLE_MIDI_STREAMING) && \
 576:.\Generated_Source\PSoC5/USBUART_episr.c ****             !defined(USBUART_MAIN_SERVICE_MIDI_OUT) && USBUART_ISR_SERVICE_MIDI_OUT)
 577:.\Generated_Source\PSoC5/USBUART_episr.c ****             if(USBUART_midi_out_ep == USBUART_EP7)
 578:.\Generated_Source\PSoC5/USBUART_episr.c ****             {
 579:.\Generated_Source\PSoC5/USBUART_episr.c ****                 USBUART_MIDI_OUT_Service();
 580:.\Generated_Source\PSoC5/USBUART_episr.c ****             }
 581:.\Generated_Source\PSoC5/USBUART_episr.c ****         #endif /* (USBUART_ISR_SERVICE_MIDI_OUT) */
 582:.\Generated_Source\PSoC5/USBUART_episr.c ****     #endif /* (!(CY_PSOC4 && USBUART_EP_MANAGEMENT_DMA_AUTO)) */
 583:.\Generated_Source\PSoC5/USBUART_episr.c **** 
 584:.\Generated_Source\PSoC5/USBUART_episr.c ****         /* `#START EP7_END_USER_CODE` Place your code here */
 585:.\Generated_Source\PSoC5/USBUART_episr.c **** 
 586:.\Generated_Source\PSoC5/USBUART_episr.c ****         /* `#END` */
 587:.\Generated_Source\PSoC5/USBUART_episr.c **** 
 588:.\Generated_Source\PSoC5/USBUART_episr.c ****     #ifdef USBUART_EP_7_ISR_EXIT_CALLBACK
 589:.\Generated_Source\PSoC5/USBUART_episr.c ****         USBUART_EP_7_ISR_ExitCallback();
 590:.\Generated_Source\PSoC5/USBUART_episr.c ****     #endif /* (USBUART_EP_7_ISR_EXIT_CALLBACK) */
 591:.\Generated_Source\PSoC5/USBUART_episr.c **** 
 592:.\Generated_Source\PSoC5/USBUART_episr.c ****     #if (CY_PSOC3 && defined(USBUART_ENABLE_MIDI_STREAMING) && \
 593:.\Generated_Source\PSoC5/USBUART_episr.c ****         !defined(USBUART_MAIN_SERVICE_MIDI_OUT) && USBUART_ISR_SERVICE_MIDI_OUT)
 594:.\Generated_Source\PSoC5/USBUART_episr.c ****         
 595:.\Generated_Source\PSoC5/USBUART_episr.c ****             EA = intEn; /* Restore nested interrupt configuration. */
 596:.\Generated_Source\PSoC5/USBUART_episr.c ****         }
 597:.\Generated_Source\PSoC5/USBUART_episr.c ****     #endif /* (CY_PSOC3 && USBUART_ISR_SERVICE_MIDI_OUT) */
 598:.\Generated_Source\PSoC5/USBUART_episr.c ****     }
 599:.\Generated_Source\PSoC5/USBUART_episr.c **** #endif /* (USBUART_EP7_ISR_ACTIVE) */
 600:.\Generated_Source\PSoC5/USBUART_episr.c **** 
 601:.\Generated_Source\PSoC5/USBUART_episr.c **** 
 602:.\Generated_Source\PSoC5/USBUART_episr.c **** #if (USBUART_EP8_ISR_ACTIVE)
 603:.\Generated_Source\PSoC5/USBUART_episr.c ****     /*******************************************************************************
 604:.\Generated_Source\PSoC5/USBUART_episr.c ****     * Function Name: USBUART_EP_8_ISR
ARM GAS  C:\Users\Thomas\AppData\Local\Temp\ccCgAAYA.s 			page 39


 605:.\Generated_Source\PSoC5/USBUART_episr.c ****     ****************************************************************************//**
 606:.\Generated_Source\PSoC5/USBUART_episr.c ****     *
 607:.\Generated_Source\PSoC5/USBUART_episr.c ****     *  Endpoint 8 Interrupt Service Routine
 608:.\Generated_Source\PSoC5/USBUART_episr.c ****     *
 609:.\Generated_Source\PSoC5/USBUART_episr.c ****     *
 610:.\Generated_Source\PSoC5/USBUART_episr.c ****     *******************************************************************************/
 611:.\Generated_Source\PSoC5/USBUART_episr.c ****     CY_ISR(USBUART_EP_8_ISR)
 612:.\Generated_Source\PSoC5/USBUART_episr.c ****     {
 613:.\Generated_Source\PSoC5/USBUART_episr.c ****     #ifdef USBUART_EP_8_ISR_ENTRY_CALLBACK
 614:.\Generated_Source\PSoC5/USBUART_episr.c ****         USBUART_EP_8_ISR_EntryCallback();
 615:.\Generated_Source\PSoC5/USBUART_episr.c ****     #endif /* (USBUART_EP_8_ISR_ENTRY_CALLBACK) */
 616:.\Generated_Source\PSoC5/USBUART_episr.c **** 
 617:.\Generated_Source\PSoC5/USBUART_episr.c ****         /* `#START EP8_USER_CODE` Place your code here */
 618:.\Generated_Source\PSoC5/USBUART_episr.c **** 
 619:.\Generated_Source\PSoC5/USBUART_episr.c ****         /* `#END` */
 620:.\Generated_Source\PSoC5/USBUART_episr.c **** 
 621:.\Generated_Source\PSoC5/USBUART_episr.c ****     #if (CY_PSOC3 && defined(USBUART_ENABLE_MIDI_STREAMING) && \
 622:.\Generated_Source\PSoC5/USBUART_episr.c ****         !defined(USBUART_MAIN_SERVICE_MIDI_OUT) && USBUART_ISR_SERVICE_MIDI_OUT)
 623:.\Generated_Source\PSoC5/USBUART_episr.c ****         {
 624:.\Generated_Source\PSoC5/USBUART_episr.c ****             uint8 intEn = EA;
 625:.\Generated_Source\PSoC5/USBUART_episr.c ****             CyGlobalIntEnable;  /* Enable nested interrupts. */
 626:.\Generated_Source\PSoC5/USBUART_episr.c ****     #endif /* (CY_PSOC3 && USBUART_ISR_SERVICE_MIDI_OUT) */
 627:.\Generated_Source\PSoC5/USBUART_episr.c **** 
 628:.\Generated_Source\PSoC5/USBUART_episr.c ****         USBUART_ClearSieEpInterruptSource(USBUART_SIE_INT_EP8_INTR);
 629:.\Generated_Source\PSoC5/USBUART_episr.c ****         
 630:.\Generated_Source\PSoC5/USBUART_episr.c ****         /* Notifies user that transfer IN or OUT transfer is completed.
 631:.\Generated_Source\PSoC5/USBUART_episr.c ****         * IN endpoint: endpoint buffer can be reloaded, Host is read data.
 632:.\Generated_Source\PSoC5/USBUART_episr.c ****         * OUT endpoint: data is ready to read from endpoint buffer. 
 633:.\Generated_Source\PSoC5/USBUART_episr.c ****         */
 634:.\Generated_Source\PSoC5/USBUART_episr.c ****     #if (CY_PSOC4 && USBUART_EP_MANAGEMENT_DMA_AUTO)
 635:.\Generated_Source\PSoC5/USBUART_episr.c ****         if (0u != (USBUART_EP[USBUART_EP8].addr & USBUART_DIR_IN))
 636:.\Generated_Source\PSoC5/USBUART_episr.c ****     #endif /* (USBUART_EP_MANAGEMENT_DMA_AUTO) */
 637:.\Generated_Source\PSoC5/USBUART_episr.c ****         {
 638:.\Generated_Source\PSoC5/USBUART_episr.c ****             /* Read CR0 register to clear SIE lock. */
 639:.\Generated_Source\PSoC5/USBUART_episr.c ****             (void) USBUART_SIE_EP_BASE.sieEp[USBUART_EP8].epCr0;
 640:.\Generated_Source\PSoC5/USBUART_episr.c **** 
 641:.\Generated_Source\PSoC5/USBUART_episr.c ****             /* Toggle all endpoint types except ISOC. */
 642:.\Generated_Source\PSoC5/USBUART_episr.c ****             if (USBUART_GET_EP_TYPE(USBUART_EP8) != USBUART_EP_TYPE_ISOC)
 643:.\Generated_Source\PSoC5/USBUART_episr.c ****             {
 644:.\Generated_Source\PSoC5/USBUART_episr.c ****                 USBUART_EP[USBUART_EP8].epToggle ^= USBUART_EPX_CNT_DATA_TOGGLE;
 645:.\Generated_Source\PSoC5/USBUART_episr.c ****             }
 646:.\Generated_Source\PSoC5/USBUART_episr.c **** 
 647:.\Generated_Source\PSoC5/USBUART_episr.c ****             /* EP_MANAGEMENT_DMA_AUTO (Ticket ID# 214187): For OUT endpoint this event is used to n
 648:.\Generated_Source\PSoC5/USBUART_episr.c ****             * user that DMA has completed copying data from OUT endpoint which is not completely tr
 649:.\Generated_Source\PSoC5/USBUART_episr.c ****             * Because last chunk of data is being copied.
 650:.\Generated_Source\PSoC5/USBUART_episr.c ****             * For CY_PSOC 3/5LP: it is acceptable as DMA is really fast.
 651:.\Generated_Source\PSoC5/USBUART_episr.c ****             * For CY_PSOC4: this event is set in Arbiter interrupt (source is DMA_TERMIN).
 652:.\Generated_Source\PSoC5/USBUART_episr.c ****             */
 653:.\Generated_Source\PSoC5/USBUART_episr.c ****             USBUART_EP[USBUART_EP8].apiEpState = USBUART_EVENT_PENDING;
 654:.\Generated_Source\PSoC5/USBUART_episr.c ****         }
 655:.\Generated_Source\PSoC5/USBUART_episr.c **** 
 656:.\Generated_Source\PSoC5/USBUART_episr.c ****     #if (!(CY_PSOC4 && USBUART_EP_MANAGEMENT_DMA_AUTO))
 657:.\Generated_Source\PSoC5/USBUART_episr.c ****         #if (defined(USBUART_ENABLE_MIDI_STREAMING) && \
 658:.\Generated_Source\PSoC5/USBUART_episr.c ****             !defined(USBUART_MAIN_SERVICE_MIDI_OUT) && USBUART_ISR_SERVICE_MIDI_OUT)
 659:.\Generated_Source\PSoC5/USBUART_episr.c ****             if (USBUART_midi_out_ep == USBUART_EP8)
 660:.\Generated_Source\PSoC5/USBUART_episr.c ****             {
 661:.\Generated_Source\PSoC5/USBUART_episr.c ****                 USBUART_MIDI_OUT_Service();
ARM GAS  C:\Users\Thomas\AppData\Local\Temp\ccCgAAYA.s 			page 40


 662:.\Generated_Source\PSoC5/USBUART_episr.c ****             }
 663:.\Generated_Source\PSoC5/USBUART_episr.c ****         #endif /* (USBUART_ISR_SERVICE_MIDI_OUT) */
 664:.\Generated_Source\PSoC5/USBUART_episr.c ****     #endif /* (!(CY_PSOC4 && USBUART_EP_MANAGEMENT_DMA_AUTO)) */
 665:.\Generated_Source\PSoC5/USBUART_episr.c **** 
 666:.\Generated_Source\PSoC5/USBUART_episr.c ****         /* `#START EP8_END_USER_CODE` Place your code here */
 667:.\Generated_Source\PSoC5/USBUART_episr.c **** 
 668:.\Generated_Source\PSoC5/USBUART_episr.c ****         /* `#END` */
 669:.\Generated_Source\PSoC5/USBUART_episr.c **** 
 670:.\Generated_Source\PSoC5/USBUART_episr.c ****     #ifdef USBUART_EP_8_ISR_EXIT_CALLBACK
 671:.\Generated_Source\PSoC5/USBUART_episr.c ****         USBUART_EP_8_ISR_ExitCallback();
 672:.\Generated_Source\PSoC5/USBUART_episr.c ****     #endif /* (USBUART_EP_8_ISR_EXIT_CALLBACK) */
 673:.\Generated_Source\PSoC5/USBUART_episr.c **** 
 674:.\Generated_Source\PSoC5/USBUART_episr.c ****     #if (CY_PSOC3 && defined(USBUART_ENABLE_MIDI_STREAMING) && \
 675:.\Generated_Source\PSoC5/USBUART_episr.c ****         !defined(USBUART_MAIN_SERVICE_MIDI_OUT) && USBUART_ISR_SERVICE_MIDI_OUT)
 676:.\Generated_Source\PSoC5/USBUART_episr.c ****         
 677:.\Generated_Source\PSoC5/USBUART_episr.c ****             EA = intEn; /* Restore nested interrupt configuration. */
 678:.\Generated_Source\PSoC5/USBUART_episr.c ****         }
 679:.\Generated_Source\PSoC5/USBUART_episr.c ****     #endif /* (CY_PSOC3 && USBUART_ISR_SERVICE_MIDI_OUT) */
 680:.\Generated_Source\PSoC5/USBUART_episr.c ****     }
 681:.\Generated_Source\PSoC5/USBUART_episr.c **** #endif /* (USBUART_EP8_ISR_ACTIVE) */
 682:.\Generated_Source\PSoC5/USBUART_episr.c **** 
 683:.\Generated_Source\PSoC5/USBUART_episr.c **** 
 684:.\Generated_Source\PSoC5/USBUART_episr.c **** #if (USBUART_SOF_ISR_ACTIVE)
 685:.\Generated_Source\PSoC5/USBUART_episr.c ****     /*******************************************************************************
 686:.\Generated_Source\PSoC5/USBUART_episr.c ****     * Function Name: USBUART_SOF_ISR
 687:.\Generated_Source\PSoC5/USBUART_episr.c ****     ****************************************************************************//**
 688:.\Generated_Source\PSoC5/USBUART_episr.c ****     *
 689:.\Generated_Source\PSoC5/USBUART_episr.c ****     *  Start of Frame Interrupt Service Routine.
 690:.\Generated_Source\PSoC5/USBUART_episr.c ****     *
 691:.\Generated_Source\PSoC5/USBUART_episr.c ****     *
 692:.\Generated_Source\PSoC5/USBUART_episr.c ****     *******************************************************************************/
 693:.\Generated_Source\PSoC5/USBUART_episr.c ****     CY_ISR(USBUART_SOF_ISR)
 694:.\Generated_Source\PSoC5/USBUART_episr.c ****     {
 493              		.loc 1 694 0
 494              		.cfi_startproc
 495              		@ args = 0, pretend = 0, frame = 0
 496              		@ frame_needed = 0, uses_anonymous_args = 0
 497              		@ link register save eliminated.
 498 0000 7047     		bx	lr
 499              		.cfi_endproc
 500              	.LFE3:
 501              		.size	USBUART_SOF_ISR, .-USBUART_SOF_ISR
 502 0002 00BF     		.section	.text.USBUART_BUS_RESET_ISR,"ax",%progbits
 503              		.align	2
 504              		.global	USBUART_BUS_RESET_ISR
 505              		.thumb
 506              		.thumb_func
 507              		.type	USBUART_BUS_RESET_ISR, %function
 508              	USBUART_BUS_RESET_ISR:
 509              	.LFB4:
 695:.\Generated_Source\PSoC5/USBUART_episr.c ****     #ifdef USBUART_SOF_ISR_ENTRY_CALLBACK
 696:.\Generated_Source\PSoC5/USBUART_episr.c ****         USBUART_SOF_ISR_EntryCallback();
 697:.\Generated_Source\PSoC5/USBUART_episr.c ****     #endif /* (USBUART_SOF_ISR_ENTRY_CALLBACK) */
 698:.\Generated_Source\PSoC5/USBUART_episr.c **** 
 699:.\Generated_Source\PSoC5/USBUART_episr.c ****         /* `#START SOF_USER_CODE` Place your code here */
 700:.\Generated_Source\PSoC5/USBUART_episr.c **** 
 701:.\Generated_Source\PSoC5/USBUART_episr.c ****         /* `#END` */
ARM GAS  C:\Users\Thomas\AppData\Local\Temp\ccCgAAYA.s 			page 41


 702:.\Generated_Source\PSoC5/USBUART_episr.c **** 
 703:.\Generated_Source\PSoC5/USBUART_episr.c ****         USBUART_ClearSieInterruptSource(USBUART_INTR_SIE_SOF_INTR);
 704:.\Generated_Source\PSoC5/USBUART_episr.c **** 
 705:.\Generated_Source\PSoC5/USBUART_episr.c ****     #ifdef USBUART_SOF_ISR_EXIT_CALLBACK
 706:.\Generated_Source\PSoC5/USBUART_episr.c ****         USBUART_SOF_ISR_ExitCallback();
 707:.\Generated_Source\PSoC5/USBUART_episr.c ****     #endif /* (USBUART_SOF_ISR_EXIT_CALLBACK) */
 708:.\Generated_Source\PSoC5/USBUART_episr.c ****     }
 709:.\Generated_Source\PSoC5/USBUART_episr.c **** #endif /* (USBUART_SOF_ISR_ACTIVE) */
 710:.\Generated_Source\PSoC5/USBUART_episr.c **** 
 711:.\Generated_Source\PSoC5/USBUART_episr.c **** 
 712:.\Generated_Source\PSoC5/USBUART_episr.c **** #if (USBUART_BUS_RESET_ISR_ACTIVE)
 713:.\Generated_Source\PSoC5/USBUART_episr.c **** /*******************************************************************************
 714:.\Generated_Source\PSoC5/USBUART_episr.c **** * Function Name: USBUART_BUS_RESET_ISR
 715:.\Generated_Source\PSoC5/USBUART_episr.c **** ****************************************************************************//**
 716:.\Generated_Source\PSoC5/USBUART_episr.c **** *
 717:.\Generated_Source\PSoC5/USBUART_episr.c **** *  USB Bus Reset Interrupt Service Routine.  Calls _Start with the same
 718:.\Generated_Source\PSoC5/USBUART_episr.c **** *  parameters as the last USER call to _Start
 719:.\Generated_Source\PSoC5/USBUART_episr.c **** *
 720:.\Generated_Source\PSoC5/USBUART_episr.c **** *
 721:.\Generated_Source\PSoC5/USBUART_episr.c **** *******************************************************************************/
 722:.\Generated_Source\PSoC5/USBUART_episr.c **** CY_ISR(USBUART_BUS_RESET_ISR)
 723:.\Generated_Source\PSoC5/USBUART_episr.c **** {
 510              		.loc 1 723 0
 511              		.cfi_startproc
 512              		@ args = 0, pretend = 0, frame = 0
 513              		@ frame_needed = 0, uses_anonymous_args = 0
 514              		@ link register save eliminated.
 724:.\Generated_Source\PSoC5/USBUART_episr.c **** #ifdef USBUART_BUS_RESET_ISR_ENTRY_CALLBACK
 725:.\Generated_Source\PSoC5/USBUART_episr.c ****     USBUART_BUS_RESET_ISR_EntryCallback();
 726:.\Generated_Source\PSoC5/USBUART_episr.c **** #endif /* (USBUART_BUS_RESET_ISR_ENTRY_CALLBACK) */
 727:.\Generated_Source\PSoC5/USBUART_episr.c **** 
 728:.\Generated_Source\PSoC5/USBUART_episr.c ****     /* `#START BUS_RESET_USER_CODE` Place your code here */
 729:.\Generated_Source\PSoC5/USBUART_episr.c **** 
 730:.\Generated_Source\PSoC5/USBUART_episr.c ****     /* `#END` */
 731:.\Generated_Source\PSoC5/USBUART_episr.c **** 
 732:.\Generated_Source\PSoC5/USBUART_episr.c ****     USBUART_ClearSieInterruptSource(USBUART_INTR_SIE_BUS_RESET_INTR);
 733:.\Generated_Source\PSoC5/USBUART_episr.c **** 
 734:.\Generated_Source\PSoC5/USBUART_episr.c ****     USBUART_ReInitComponent();
 515              		.loc 1 734 0
 516 0000 FFF7FEBF 		b	USBUART_ReInitComponent
 517              	.LVL0:
 518              		.cfi_endproc
 519              	.LFE4:
 520              		.size	USBUART_BUS_RESET_ISR, .-USBUART_BUS_RESET_ISR
 521              		.text
 522              	.Letext0:
 523              		.file 2 ".\\Generated_Source\\PSoC5\\cytypes.h"
 524              		.file 3 ".\\Generated_Source\\PSoC5\\USBUART.h"
 525              		.file 4 ".\\Generated_Source\\PSoC5\\USBUART_pvt.h"