ARM GAS  C:\Users\Thomas\AppData\Local\Temp\ccGYEdKU.s 			page 1


   1              		.syntax unified
   2              		.cpu cortex-m3
   3              		.fpu softvfp
   4              		.eabi_attribute 20, 1
   5              		.eabi_attribute 21, 1
   6              		.eabi_attribute 23, 3
   7              		.eabi_attribute 24, 1
   8              		.eabi_attribute 25, 1
   9              		.eabi_attribute 26, 1
  10              		.eabi_attribute 30, 2
  11              		.eabi_attribute 34, 1
  12              		.eabi_attribute 18, 4
  13              		.thumb
  14              		.file	"USBUART_Dm.c"
  15              		.text
  16              	.Ltext0:
  17              		.section	.gnu.lto_.profile.c0d69dbc,"",%progbits
  18 0000 789C6366 		.ascii	"x\234cf```a\200\000F\0061!\000\000\262\0001"
  18      60606061 
  18      80004606 
  18      31210000 
  18      B20031
  19              		.text
  20              		.section	.gnu.lto_.jmpfuncs.c0d69dbc,"",%progbits
  21 0000 789C6366 		.ascii	"x\234cf\300\016\204\2404\013\003##c=#\210`b``\006\212"
  21      C00E84A0 
  21      340B0323 
  21      23633D23 
  21      88606260 
  22 0017 00000DC0 		.ascii	"\000\000\015\300\001$"
  22      0124
  23              		.text
  24              		.section	.gnu.lto_.inline.c0d69dbc,"",%progbits
  25 0000 789C6366 		.ascii	"x\234cf\300\016\022\2404\013\003\003\007;##\003#\003"
  25      C00E12A0 
  25      340B0303 
  25      073B2323 
  25      032303
  26 0013 0333C701 		.ascii	"\0033\307\001;\006\266\005\362L\014L\027\370Y@\222\214"
  26      3B06B605 
  26      F24C0C4C 
  26      17F85940 
  26      928C
  27 0025 78E49818 		.ascii	"x\344\230\030XY\030\031\230X\026\310C\304\201\200\031"
  27      58591819 
  27      985816C8 
  27      43C48180 
  27      19
  28 0036 53880100 		.ascii	"S\210\001\000\322\320\011("
  28      D2D00928 
  29              		.text
  30              		.section	.gnu.lto_.pureconst.c0d69dbc,"",%progbits
  31 0000 789C6366 		.ascii	"x\234cf``\340d\200\000\026\006)F)&)f)\000\002\305\000"
  31      6060E064 
  31      80001606 
  31      29462926 
  31      29662900 
ARM GAS  C:\Users\Thomas\AppData\Local\Temp\ccGYEdKU.s 			page 2


  32 0017 7F       		.ascii	"\177"
  33              		.text
  34              		.section	.gnu.lto_USBUART_Dm_Write.c0d69dbc,"",%progbits
  35 0000 789C6591 		.ascii	"x\234e\221OHTQ\024\306\317w\356{3S\206D\313\331\212"
  35      4F485451 
  35      14C6CF77 
  35      EE7B3353 
  35      8644CBD9 
  36 0015 8910B672 		.ascii	"\211\020\266r\321\316,h;4\272\033\220az\013\241\022"
  36      D1CE2C68 
  36      3B34BA1B 
  36      90617A0B 
  36      A112
  37 0027 C6D1EDDC 		.ascii	"\306\321\355\334W\303,\202@D0\010+\031\243?SjF\326\306"
  37      57C32C82 
  37      40443008 
  37      2B19A33F 
  37      536A46D6 
  38 003c 78CAECA2 		.ascii	"x\312\354\242\304\026\0062\232\302\024J\033\305h4i^"
  38      C4160632 
  38      9AC2144A 
  38      1BC56834 
  38      695E
  39 004e E7BEB749 		.ascii	"\347\276\267I\272p\337\275\367\360\375\316\371\316y"
  39      BA70DFBD 
  39      F7F0FDCE 
  39      F9CE79
  40 005d 8AFE5F71 		.ascii	"\212\376_q\331>\210.\310\011E\340\221ODn\214\001s!P"
  40      D93E882E 
  40      C80945E0 
  40      914F446E 
  40      8C017321 
  41 0072 9E91C70E 		.ascii	"\236\221\307\016\3571F\274\362\275\246\266\307Z\353"
  41      EF3146BC 
  41      F2BDA6B6 
  41      C75AEB
  42 0081 DDD16537 		.ascii	"\335\321e7\341\341\220\211\3669\314\203'h\023\315~Y"
  42      E1E19089 
  42      F639CC83 
  42      276813CD 
  42      7E59
  43 0093 8F29D50E 		.ascii	"\217)\325\016\222\373\354\312\307F\264\265\244\365-"
  43      92FBECCA 
  43      C746B4B5 
  43      A4F52D
  44 00a2 6F615A77 		.ascii	"oaZw\211\034x\012%\004\316\305\321\036'\011\020\236"
  44      891C780A 
  44      2504CEC5 
  44      D11E2709 
  44      109E
  45 00b4 A1D588E7 		.ascii	"\241\325\210\347\356V\346Y\235\017\300\311\017[\225"
  45      EE56E659 
  45      9D0FC0C9 
  45      0F5B95
  46 00c3 532D9302 		.ascii	"S-\223\002n\036\315\247<\367\221n\370~\200?\377\027"
  46      6E1ECDA7 
  46      3CF7916E 
ARM GAS  C:\Users\Thomas\AppData\Local\Temp\ccGYEdKU.s 			page 3


  46      F87E803F 
  46      FF17
  47 00d5 0F97E8F7 		.ascii	"\017\227\350\367\012\177\2764E\012b\3544\312h\011=\341"
  47      0A7FBE34 
  47      450A62EC 
  47      34CA6809 
  47      3DE1
  48 00e7 0522D217 		.ascii	"\005\"\322\027Ld\346\214\247}\377\365\302\342o\304X"
  48      4C64E68C 
  48      A77DFFF5 
  48      C2E26FC4 
  48      58
  49 00f8 CAB2342A 		.ascii	"\312\2624*a\013\246\272m\002\021\363!\252\3116}\177"
  49      610BA6BA 
  49      6D0211F3 
  49      21AAC936 
  49      7D7F
  50 010a 93879C6A 		.ascii	"\223\207\234j\015K\277\356l\214GM\262:\233!,\256\277"
  50      0D4BBFEE 
  50      6C8C474D 
  50      B23A9B21 
  50      2CAEBF
  51 011d 9B6ADEE6 		.ascii	"\233j\336\346CV\273%W[\246\374\327\332\362J,\010\005"
  51      4356BB25 
  51      575BA6FC 
  51      D7DAF24A 
  51      2C0805
  52 0130 6E1EBC7F 		.ascii	"n\036\274\177\363\271y\002\367\335\202X\266\360\022"
  52      F3B97902 
  52      F7DD8258 
  52      B6F012
  53 013f 714C43DC 		.ascii	"qLC\334b\006\023\2405\334>(V\021&Ta\316\207;\215m\313"
  53      620613A0 
  53      35DC3E28 
  53      56112654 
  53      61CE873B 
  54 0156 24409E30 		.ascii	"$@\2360+\332Up`_<\212\3100\325\342\367\267'B\310\256"
  54      2BDA5570 
  54      605F3C8A 
  54      C830D5E2 
  54      F7B72742 
  55 016c B32550BD 		.ascii	"\263%P\275\264\371\003\006\342(\341\225@\242\372Y\254"
  55      B4F90306 
  55      E228E195 
  55      40A2FA59 
  55      AC
  56 017d 72280A75 		.ascii	"r(\012u\006]\032\015\212\0353\346z\366qksbM \332\200"
  56      065D1A0D 
  56      8A1D33E6 
  56      7AF6716B 
  56      73624D20 
  57 0193 EB1DD946 		.ascii	"\353\035\331FoF[\223\377#S\220\231\234\355H]qn:\331"
  57      6F465B93 
  57      FF235390 
  57      999CED48 
  57      5D716E3A 
  58 01a8 74CEB9D6 		.ascii	"t\316\271\326\227\034\030\312f\234T\"9p\2513\325\233"
ARM GAS  C:\Users\Thomas\AppData\Local\Temp\ccGYEdKU.s 			page 4


  58      971C18CA 
  58      669C5422 
  58      3970A933 
  58      D59B
  59 01ba ECEEBD78 		.ascii	"\354\356\275x\265\247\357\362\215\216\014\331\303\351"
  59      B5A7EFF2 
  59      8D8E0CD9 
  59      C3E9
  60 01c8 EB43CEC9 		.ascii	"\353C\316\311\301\\:\327\237\351\356\317\015\376\005"
  60      C15C3AD7 
  60      9FE9EECF 
  60      0DFE05
  61 01d7 3740C3C1 		.ascii	"7@\303\301"
  62              		.text
  63              		.section	.gnu.lto_USBUART_Dm_SetDriveMode.c0d69dbc,"",%progbits
  64 0000 789C7D51 		.ascii	"x\234}Q;H\003A\020\235\267{IN\202\"V\222>\006\301Oe"
  64      3B480341 
  64      109DB77B 
  64      494E8222 
  64      56923E06 
  65 0017 EF0F6DC5 		.ascii	"\357\017m\305h\027\020\321+5 Z{\211\261\261R+!\004E"
  65      681710D1 
  65      2B35205A 
  65      7B89B1B1 
  65      522B2104 
  66 002c 1113E30F 		.ascii	"\021\023\343\017\024,=\304\316\037\332\210\001\265\211"
  66      142C3DC4 
  66      CE1FDA88 
  66      01B589
  67 003b 5F500C7E 		.ascii	"_P\014~\203J\234\275\244\010\010.\267\263\363\206\367"
  67      834A9CBD 
  67      A408082E 
  67      B7B3F386 
  67      F7
  68 004c DECDCE4A 		.ascii	"\336\315\316J\372\273<\274\037@T\313'$AL\036\021\205"
  68      FABB3CBC 
  68      1F4054CB 
  68      2724414C 
  68      1E1185
  69 005f 7401A884 		.ascii	"t\001\250\204@\243\002\243\270\027\031\201I+9\343\366"
  69      40A302A3 
  69      B8171981 
  69      492B39E3 
  69      F6
  70 0070 2D9AA6F9 		.ascii	"-\232\246\371<\277]9^\231\025D/\"o\203%\370\230r\233"
  70      3CBF5D39 
  70      5E991544 
  70      2F226F83 
  70      25F89872 
  71 0085 BD5F2A95 		.ascii	"\275_*\225\325 \316\177\246\316N\205w\3014\303\326\301"
  71      D520CE7F 
  71      A6CE4E85 
  71      77C134C3 
  71      D6C1
  72 0097 9AD9882C 		.ascii	"\232\331\210,{\306!Y\201\032\017\252=\304\005B\002^"
  72      7BC62159 
  72      811A0FAA 
ARM GAS  C:\Users\Thomas\AppData\Local\Temp\ccGYEdKU.s 			page 5


  72      3DC40542 
  72      025E
  73 00a9 45CE447E 		.ascii	"E\316D~\316\334\316\010{\227\347=\261\014'\267E\353"
  73      CEDCCE08 
  73      7B97E73D 
  73      B10C27B7 
  73      45EB
  74 00bb 159699CB 		.ascii	"\025\226\231\313\275\\L\305\353\341\026\254\021\222"
  74      BD5C4CC5 
  74      EBE116AC 
  74      1192
  75 00c9 83D45470 		.ascii	"\203\324Tp@\311\235*u\251\240\253P\2428Di\336\352\006"
  75      40C99D2A 
  75      75A9A0AB 
  75      50A23844 
  75      69DEEA06 
  76 00dd D70CF894 		.ascii	"\327\014\370\224)\354\276O\334D5\345\373!\324u\336f"
  76      29ECBE4F 
  76      DC4435E5 
  76      FB21D475 
  76      DE66
  77 00ef ADC3B23B 		.ascii	"\255\303\262;\221\025Zn.dj\252\213\253\364\361\211n"
  77      91155A6E 
  77      2E646AAA 
  77      8BABF4F1 
  77      896E
  78 0101 9748C19D 		.ascii	"\227H\301\235\357\304\226\036C4\024\341\346\035H\302"
  78      EFC4961E 
  78      433414E1 
  78      E61D48C2 
  79 0111 8315F0C0 		.ascii	"\203\025\360\300\260\212\030(\205\360\245+o'\331\221"
  79      B08A1828 
  79      85F0A52B 
  79      6F27D991 
  80 0121 F1D8A733 		.ascii	"\361\330\2473\2175.\261\376\374\351y\337\266\223\231"
  80      8F352EB1 
  80      FEFCE979 
  80      DFB69399 
  81 0131 5C61F12C 		.ascii	"\\a\361,\327\330\242H\313\237\243X\353\342\022kO6\037"
  81      D7D8A248 
  81      CB9FA358 
  81      EBE2126B 
  81      4F361F
  82 0144 F71CB6B6 		.ascii	"\367\034\266\266\214\260nK\306^\013\024\335\376\203"
  82      8CB06E4B 
  82      C65E0B14 
  82      DDFE83
  83 0153 ABD8A584 		.ascii	"\253\330\245\204\253\214w\247\241\360\177\275op\357"
  83      AB8C77A7 
  83      A1F07FBD 
  83      6F70EF
  84 0162 CCA74B84 		.ascii	"\314\247K\204\254\2576\305V\357\227\346\267\3401\361"
  84      ACAF36C5 
  84      56EF97E6 
  84      B7E031F1 
  85 0172 D0AAEA02 		.ascii	"\320\252\352\002\355\306\2401\324;l\364\367\370\203"
  85      EDC6A031 
ARM GAS  C:\Users\Thomas\AppData\Local\Temp\ccGYEdKU.s 			page 6


  85      D43B6CF4 
  85      F7F883
  86 0181 23437D46 		.ascii	"#C}F\240\303\037li\010t\373\233\273\233:\273zZ\007\352"
  86      A0C31F6C 
  86      690874FB 
  86      9BBB9B3A 
  86      BB7A5A07 
  87 0196 FA481B08 		.ascii	"\372H\033\010\366\033\277o\241\271\373"
  87      F61BBF6F 
  87      A1B9FB
  88              		.text
  89              		.section	.gnu.lto_USBUART_Dm_Read.c0d69dbc,"",%progbits
  90 0000 789C6366 		.ascii	"x\234cf\300\004R@\374\007\2105\200\230\221\231\201\221"
  90      C0045240 
  90      FC078835 
  90      80989199 
  90      8191
  91 0012 69C23906 		.ascii	"i\3029\006\206F\016&FF\020\203\201\221\241\236\211\261"
  91      86460E26 
  91      46461083 
  91      8191A19E 
  91      89B1
  92 0024 9EF125D3 		.ascii	"\236\361%\323G&\3063;\377]fT_\332\320\320\364a\322\336"
  92      4726C633 
  92      3BFF5D66 
  92      545FDAD0 
  92      D0F461D2 
  93 0039 3BDCAD12 		.ascii	";\334\255\022?\231\030\030>310\352H1j\202\314a\\\316"
  93      3F991818 
  93      3E333130 
  93      EA48316A 
  93      82CC615C 
  94 004e A8CE0054 		.ascii	"\250\316\000T\370\261\345\357un\266\226\206\206\006"
  94      F8B1E5EF 
  94      756EB696 
  94      868606
  95 005d 01903C50 		.ascii	"\001\220<Pb\005#\033#\220^/t\240\341\377\377\315_'v"
  95      6205231B 
  95      23905E2F 
  95      74A0E1FF 
  95      FFCD5F27 
  96 0072 5833B230 		.ascii	"X3\26201\374d\002\332\0102\204\341\011\220\000\331\367"
  96      31FC6402 
  96      DA083284 
  96      E1099000 
  96      D9F7
  97 0084 94890944 		.ascii	"\224\211\011D3\337b<\364\255\353\336<+\220\306\357L"
  97      33DF623C 
  97      F4ADEBDE 
  97      3C2B90C6 
  97      EF4C
  98 0096 20CB974D 		.ascii	" \313\227M^\273\210\353\005\323O gqc\003\013\310\232"
  98      5EBB88EB 
  98      05D34F20 
  98      67716303 
  98      0BC89A
  99 00a9 FB4FCE5F 		.ascii	"\373O\316_\344\000\0131\200\270O_v~f\234\3138\273\261"
ARM GAS  C:\Users\Thomas\AppData\Local\Temp\ccGYEdKU.s 			page 7


  99      E4000B31 
  99      80B84F5F 
  99      767E669C 
  99      CB38BBB1 
 100 00bd 85F12713 		.ascii	"\205\361'\0233\343JF)\306U\214@g1\256\006\2122\334b"
 100      33E34A46 
 100      29C6558C 
 100      406731AE 
 100      068A32DC 
 101 00d2 6CBED7A6 		.ascii	"l\276\327\246\0031\217\031b\344\367\305\017^3\202\364"
 101      03318F19 
 101      62E4F7C5 
 101      0F5E3382 
 101      F4
 102 00e3 B3B03330 		.ascii	"\263\26030\256\001*\275\307\310\010U\000v\022#\310)"
 102      AE012ABD 
 102      C7C80855 
 102      00761223 
 102      C829
 103 00f5 40B3D5F4 		.ascii	"@\263\325\364b\334S\363R\213\022KRS\342\203\363K\213"
 103      62DC53F3 
 103      528B124B 
 103      5253E283 
 103      F34B8B
 104 0108 92536302 		.ascii	"\222Sc\002\202\363\235McB\203\235B\035\203B\342]r\365"
 104      82F39D4D 
 104      6342839D 
 104      421D8342 
 104      E25D72F5 
 105 011c 921900B8 		.ascii	"\222\031\000\270\207gg"
 105      876767
 106              		.text
 107              		.section	.gnu.lto_USBUART_Dm_ReadDataReg.c0d69dbc,"",%progbits
 108 0000 789C6366 		.ascii	"x\234cf\300\004R@\374\007\2105\200\230\221\231\201\221"
 108      C0045240 
 108      FC078835 
 108      80989199 
 108      8191
 109 0012 69C23906 		.ascii	"i\3029\006\206F\016&FF\020\203\201\221\241\236\211\261"
 109      86460E26 
 109      46461083 
 109      8191A19E 
 109      89B1
 110 0024 9EF125D3 		.ascii	"\236\361%\323G&\3063;\377]fT_\332\320\320\364\341\322"
 110      4726C633 
 110      3BFF5D66 
 110      545FDAD0 
 110      D0F4E1D2 
 111 0038 E53BDCAD 		.ascii	"\345;\334\255\022?\231\030\030>310\352H1j\202\314a\\"
 111      123F9918 
 111      183E3331 
 111      30EA4831 
 111      6A82CC61 
 112 004d CEA8CE00 		.ascii	"\316\250\316\000T\370\261\345\357un\266\226\206\206"
 112      54F8B1E5 
 112      EF756EB6 
 112      968686
ARM GAS  C:\Users\Thomas\AppData\Local\Temp\ccGYEdKU.s 			page 8


 113 005c 0601903C 		.ascii	"\006\001\220<Pb\005#\033#\220^/t\240\341\377\377\315"
 113      50620523 
 113      1B23905E 
 113      2F74A0E1 
 113      FFFFCD
 114 006f E7277568 		.ascii	"\347'uh1\26101\374d\002\332\0102\204\341\011\220\000"
 114      31B13031 
 114      FC6402DA 
 114      083284E1 
 114      099000
 115 0082 D9F79489 		.ascii	"\331\367\224\211\011D3\337b<\364\255\353\337J+\220\306"
 115      094433DF 
 115      623CF4AD 
 115      EBDF4A2B 
 115      90C6
 116 0094 EF4C20CB 		.ascii	"\357L \313\017\336\335\261\204\357\005\323O&\246\017"
 116      0FDEDDB1 
 116      84EF05D3 
 116      4F26A60F 
 117 00a4 8B1B1B58 		.ascii	"\213\033\033X@\326\334\177r\376\"\007X\210\001\304\235"
 117      40D6DC7F 
 117      72FE2207 
 117      588801C4 
 117      9D
 118 00b5 B76FEB25 		.ascii	"\267o\353%\276\271\214\263\033[\030\177213\256d\224"
 118      BEB98CB3 
 118      1B5B187F 
 118      323133AE 
 118      6494
 119 00c7 625CC508 		.ascii	"b\\\305\010t\026\343j\306\271\214\014\267\030\233\357"
 119      7416E36A 
 119      C6B98C0C 
 119      B7189BEF 
 120 00d7 B5E940CC 		.ascii	"\265\351@\314c\206\030\371}\361\203\327\214 \375,\354"
 120      638618F9 
 120      7DF183D7 
 120      8C20FD2C 
 120      EC
 121 00e8 0C8C6B80 		.ascii	"\014\214k\200J\35712B\025\200\235\304\010r\012\320l"
 121      4AEF3132 
 121      4215809D 
 121      C408720A 
 121      D06C
 122 00fa 35BD18F7 		.ascii	"5\275\030\367\324\274\324\242\304\222\324\224\370\340"
 122      D4BCD4A2 
 122      C492D494 
 122      F8E0
 123 0108 FCD2A2E4 		.ascii	"\374\322\242\344\324\230\200\340|g\323\230\320`\247"
 123      D49880E0 
 123      7C67D398 
 123      D060A7
 124 0117 50C7A090 		.ascii	"P\307\240\220x\227\\\275d\006\000#\022g\316"
 124      78975CBD 
 124      64060023 
 124      1267CE
 125              		.text
 126              		.section	.gnu.lto_.symbol_nodes.c0d69dbc,"",%progbits
ARM GAS  C:\Users\Thomas\AppData\Local\Temp\ccGYEdKU.s 			page 9


 127 0000 789C6366 		.ascii	"x\234cf``pb\200\002&\206z\006\206\011\347\030\030\352"
 127      60607062 
 127      80022686 
 127      7A068609 
 127      E71818EA 
 128 0014 EB19E62D 		.ascii	"\353\031\346-\340``b\254gD\3413\3253\241\360\231\353"
 128      E0606062 
 128      AC6744E1 
 128      33D533A1 
 128      F099EB
 129 0027 9991F90C 		.ascii	"\231\221\371\014\0003\356\020\336"
 129      0033EE10 
 129      DE
 130              		.text
 131              		.section	.gnu.lto_.refs.c0d69dbc,"",%progbits
 132 0000 789C6366 		.ascii	"x\234cf```d\200\002\000\000=\000\005"
 132      60606064 
 132      80020000 
 132      3D0005
 133              		.text
 134              		.section	.gnu.lto_.decls.c0d69dbc,"",%progbits
 135 0000 789C8D52 		.ascii	"x\234\215R[H\024Q\030>\377\234\331U\247\365\362\264"
 135      5B481451 
 135      183EFF9C 
 135      D955A7F5 
 135      F2B4
 136 0012 CA12B410 		.ascii	"\312\022\264\020\010\201\370\022\201o]4\214\240\020"
 136      0881F812 
 136      816F5D34 
 136      8CA010
 137 0021 37E94141 		.ascii	"7\351AA\026\035L\"\225m\015|\352\344\005/\231-v\333"
 137      161D4C22 
 137      956D0D7C 
 137      EAE4052F 
 137      992D76DB 
 138 0035 244D58CD 		.ascii	"$MX\315\2624\363\266\356\256\227\335 \020\305\236LX"
 138      B234F3B6 
 138      EEAE97DD 
 138      2010C59E 
 138      4C58
 139 0047 1F42F3C5 		.ascii	"\037B\363\305\336V\2500\220\246\177\316\354\266\303"
 139      DE56A830 
 139      90A67FCE 
 139      ECB6C3
 140 0056 B6823FFC 		.ascii	"\266\202?\3743\363\317\371\277\3139\347\247\204\220"
 140      33F3CFF9 
 140      BFCB39E7 
 140      A78490
 141 0065 1C2044C1 		.ascii	"\034 D\301\270H\011\031\307\332\200YB\342!bNbNcz1}\344"
 141      B8480919 
 141      C7DA8059 
 141      42E22162 
 141      4E624E63 
 142 007d FF98D4E1 		.ascii	"\377\230\324\341\3060\315\230\213\230\363\321u\210\366"
 142      C630CD98 
 142      8B98F3D1 
 142      7588F6
ARM GAS  C:\Users\Thomas\AppData\Local\Temp\ccGYEdKU.s 			page 10


 143 008c 2486CA69 		.ascii	"$\206\312iL\300\005\223`\247\223`\275Q\315D\275\313"
 143      4CC00593 
 143      60A79360 
 143      BD51CD44 
 143      BDCB
 144 009e 3A9C3709 		.ascii	":\2347\011\316w\004\\\262=\356\011\340\033\377\261v"
 144      CE77045C 
 144      B23DEE09 
 144      E01BFFB1 
 144      76
 145 00af 6C57800C 		.ascii	"lW\200\014\311\252\226\376\336e\267\021K\223$\252\345"
 145      C9AA96FE 
 145      DE65B711 
 145      4B9324AA 
 145      E5
 146 00c0 C6527B7B 		.ascii	"\306R{{*\025@\375\366\270\267\327\245\274Q\306X\007"
 146      2A1540FD 
 146      F6B8B7D7 
 146      A5BC51C6 
 146      5807
 147 00d2 0B06214E 		.ascii	"\013\006!Nq\357U\240;\0051f\211\227=\253}!\312KE\305"
 147      71EF55A0 
 147      3B053166 
 147      89973DAB 
 147      7D21CA4B 
 148 00e8 09E1F0E3 		.ascii	"\011\341\360\343\337\024\244\334\016\306\232Y\244\227"
 148      DF14A4DC 
 148      0EC69A59 
 148      A497
 149 00f6 D11C0279 		.ascii	"\321\034\002y\0268e!0\016\271\330\006\243\220G\340-"
 149      16386521 
 149      300EB9D8 
 149      06A39047 
 149      E02D
 150 0108 58E01D58 		.ascii	"X\340\035X\310\020\012D^\256o\036gL\2041\220\340\015"
 150      C8100A44 
 150      5EAE6F1E 
 150      674C8431 
 150      90E00D
 151 011b 50DE81DB 		.ascii	"P\336\201\333P\025\242\242\256\266\220K\024\005\374"
 151      5015A2A2 
 151      AEB6904B 
 151      1405FC
 152 012a A9F69473 		.ascii	"\251\366\224s\267?\225\355a!\373\011\0220W\013\313\022"
 152      B73F95ED 
 152      6121FB09 
 152      1230570B 
 152      CB12
 153 013c A1C40C23 		.ascii	"\241\304\014#H\373\032i\011L@6>\337\203\250\021\314"
 153      48FB1A69 
 153      094C4036 
 153      3EDF83A8 
 153      11CC
 154 014e F67F0967 		.ascii	"\366\177\011g\322\323|k\376\236\225>\203u\200\015ND"
 154      D2D37C6B 
 154      FE9E953E 
 154      8375800D 
ARM GAS  C:\Users\Thomas\AppData\Local\Temp\ccGYEdKU.s 			page 11


 154      4E44
 155 0160 BA3D03F4 		.ascii	"\272=\003\3649\033lf\177\024\264\257\202\340\303?\003"
 155      391B6C66 
 155      7F14B4AF 
 155      82E0C33F 
 155      03
 156 0171 44FDD64E 		.ascii	"D\375\326Nt\022\254\010|\372qe\314@or\222O\312\322B"
 156      7412AC08 
 156      7CFA7165 
 156      CC406F72 
 156      924FCAD2 
 157 0186 3A2719F4 		.ascii	":'\031\364{\214\313,\250(g9~J\207\237\212\341\2479\276"
 157      7B8CCB2C 
 157      A8286739 
 157      7E4A879F 
 157      8AE1A739 
 158 019b B37582EA 		.ascii	"\263u\202\352\015\253{\211;\236\341\216\313\243\206"
 158      0DAB7B89 
 158      3B9EE18E 
 158      CBA386
 159 01aa 232F5617 		.ascii	"#/V\027\014\264\005\270\330A`\353+p\261\255\357;r\260"
 159      0CB405B8 
 159      D84160EB 
 159      2B70B1AD 
 159      EF3B72B0 
 160 01be 951D280A 		.ascii	"\225\035(\012\345\010\230\325\311\315\306\344\274\\"
 160      E50898D5 
 160      C9CDC6E4 
 160      BC5C
 161 01cc AEED4120 		.ascii	"\256\355A ,\322G\032\305\342\256\313#j~\373\207c~U\202"
 161      2CD2471A 
 161      C5E2AECB 
 161      236A7EFB 
 161      87637E55 
 162 01e1 391DC15C 		.ascii	"9\035\301\\\214\300\307\011\330\263\373C\251tT#\230"
 162      8CC0C709 
 162      D8B3FB43 
 162      A9745423 
 162      98
 163 01f2 F9D5E54B 		.ascii	"\371\325\345K\227\360Z[\216p\2558\010\353\237\2736\322"
 163      97F05A5B 
 163      8E70AD38 
 163      08EB9FBB 
 163      36D2
 164 0204 B4414844 		.ascii	"\264AHD,\034:\010\373;\227Z\3319\230\307\203\361\307"
 164      2C1C3A08 
 164      FB3B975A 
 164      D93998C7 
 164      83F1C7
 165 0217 072100F1 		.ascii	"\007!\000\361I\350\374\326\267f2u\251\323\205\207\230"
 165      49E8FCD6 
 165      B7663275 
 165      A9D38587 
 165      98
 166 0228 B69CC19B 		.ascii	"\266\234\301\233\343\247\270\010&\276\003|\357\0114"
 166      E3A7B808 
 166      26BE037C 
ARM GAS  C:\Users\Thomas\AppData\Local\Temp\ccGYEdKU.s 			page 12


 166      EF0934
 167 0237 3412DA94 		.ascii	"4\022\332\224\300\"Y\3348\306\373' \210L\035\352\005"
 167      C02259DC 
 167      38C6FB27 
 167      20884C1D 
 167      EA05
 168 0249 449A1975 		.ascii	"D\232\031ug\304\034\021\276@ \2044KH\243v\007w\025\345"
 168      67C41C11 
 168      BE402084 
 168      344B48A3 
 168      76077715 
 169 025e AEA2C5C3 		.ascii	"\256\242\305\303\024\336\300\037\206\306\332:g\201\261"
 169      14DEC01F 
 169      86C6DA3A 
 169      6781B1
 170 026d F86A99B5 		.ascii	"\370j\231\265\220\234\314\257(\226\353d\207\335)WW\332"
 170      909CCCAF 
 170      2896EB64 
 170      87DD2957 
 170      57DA
 171 027f EA1B1D55 		.ascii	"\352\033\035UrE\211\255\276\360LEU\223\263\251A\276"
 171      724589AD 
 171      BEF04C45 
 171      5593B3A9 
 171      41BE
 172 0291 9D7F8364 		.ascii	"\235\177\203d\225\331.\224\235/\275VYt\253\362\272\243"
 172      95D92E94 
 172      9D2FBD56 
 172      5974ABF2 
 172      BAA3
 173 02a3 D629E71E 		.ascii	"\326)\347\036\012\212w\346W\221l\035\316&;\213\034\265"
 173      0A8A77E6 
 173      57916C1D 
 173      CE263B8B 
 173      1CB5
 174 02b5 77E42BF5 		.ascii	"w\344+\365\325r\246\356\177\251l\2576'\324Ev\247\275"
 174      D572A6EE 
 174      7FA96CAF 
 174      3627D445 
 174      76A7BD
 175 02c8 54AE111D 		.ascii	"T\256\021\035rM\301_\315\242P\201"
 175      724DC15F 
 175      CDA25081 
 176              		.text
 177              		.section	.gnu.lto_.symtab.c0d69dbc,"",%progbits
 178 0000 55534255 		.ascii	"USBUART_Dm_Write\000\000\000\000\000\000\000\000\000"
 178      4152545F 
 178      446D5F57 
 178      72697465 
 178      00000000 
 179 0019 000000B2 		.ascii	"\000\000\000\262\000\000\000USBUART_Dm_SetDriveMode"
 179      00000055 
 179      53425541 
 179      52545F44 
 179      6D5F5365 
 180 0037 00000000 		.ascii	"\000\000\000\000\000\000\000\000\000\000\000\000\264"
 180      00000000 
ARM GAS  C:\Users\Thomas\AppData\Local\Temp\ccGYEdKU.s 			page 13


 180      00000000 
 180      B4
 181 0044 00000055 		.ascii	"\000\000\000USBUART_Dm_Read\000\000\000\000\000\000"
 181      53425541 
 181      52545F44 
 181      6D5F5265 
 181      61640000 
 182 005c 00000000 		.ascii	"\000\000\000\000\000\000\267\000\000\000USBUART_Dm_"
 182      0000B700 
 182      00005553 
 182      42554152 
 182      545F446D 
 183 0071 52656164 		.ascii	"ReadDataReg\000\000\000\000\000\000\000\000\000\000"
 183      44617461 
 183      52656700 
 183      00000000 
 183      00000000 
 184 0086 0000B900 		.ascii	"\000\000\271\000\000\000"
 184      0000
 185              		.text
 186              		.section	.gnu.lto_.opts,"",%progbits
 187 0000 272D666E 		.ascii	"'-fno-trapv' '-mcpu=cortex-m3' '-mthumb' '-g' '-O3'"
 187      6F2D7472 
 187      61707627 
 187      20272D6D 
 187      6370753D 
 188 0033 20272D66 		.ascii	" '-ffunction-sections' '-finline-functions' '-flto'"
 188      66756E63 
 188      74696F6E 
 188      2D736563 
 188      74696F6E 
 189 0066 20272D66 		.ascii	" '-ffat-lto-objects'\000"
 189      6661742D 
 189      6C746F2D 
 189      6F626A65 
 189      63747327 
 190              		.text
 191              		.cfi_sections	.debug_frame
 192              		.section	.text.USBUART_Dm_Write,"ax",%progbits
 193              		.align	2
 194              		.global	USBUART_Dm_Write
 195              		.thumb
 196              		.thumb_func
 197              		.type	USBUART_Dm_Write, %function
 198              	USBUART_Dm_Write:
 199              	.LFB0:
 200              		.file 1 ".\\Generated_Source\\PSoC5\\USBUART_Dm.c"
   1:.\Generated_Source\PSoC5/USBUART_Dm.c **** /*******************************************************************************
   2:.\Generated_Source\PSoC5/USBUART_Dm.c **** * File Name: USBUART_Dm.c  
   3:.\Generated_Source\PSoC5/USBUART_Dm.c **** * Version 2.20
   4:.\Generated_Source\PSoC5/USBUART_Dm.c **** *
   5:.\Generated_Source\PSoC5/USBUART_Dm.c **** * Description:
   6:.\Generated_Source\PSoC5/USBUART_Dm.c **** *  This file contains API to enable firmware control of a Pins component.
   7:.\Generated_Source\PSoC5/USBUART_Dm.c **** *
   8:.\Generated_Source\PSoC5/USBUART_Dm.c **** * Note:
   9:.\Generated_Source\PSoC5/USBUART_Dm.c **** *
  10:.\Generated_Source\PSoC5/USBUART_Dm.c **** ********************************************************************************
ARM GAS  C:\Users\Thomas\AppData\Local\Temp\ccGYEdKU.s 			page 14


  11:.\Generated_Source\PSoC5/USBUART_Dm.c **** * Copyright 2008-2015, Cypress Semiconductor Corporation.  All rights reserved.
  12:.\Generated_Source\PSoC5/USBUART_Dm.c **** * You may use this file only in accordance with the license, terms, conditions, 
  13:.\Generated_Source\PSoC5/USBUART_Dm.c **** * disclaimers, and limitations in the end user license agreement accompanying 
  14:.\Generated_Source\PSoC5/USBUART_Dm.c **** * the software package with which this file was provided.
  15:.\Generated_Source\PSoC5/USBUART_Dm.c **** *******************************************************************************/
  16:.\Generated_Source\PSoC5/USBUART_Dm.c **** 
  17:.\Generated_Source\PSoC5/USBUART_Dm.c **** #include "cytypes.h"
  18:.\Generated_Source\PSoC5/USBUART_Dm.c **** #include "USBUART_Dm.h"
  19:.\Generated_Source\PSoC5/USBUART_Dm.c **** 
  20:.\Generated_Source\PSoC5/USBUART_Dm.c **** /* APIs are not generated for P15[7:6] on PSoC 5 */
  21:.\Generated_Source\PSoC5/USBUART_Dm.c **** #if !(CY_PSOC5A &&\
  22:.\Generated_Source\PSoC5/USBUART_Dm.c **** 	 USBUART_Dm__PORT == 15 && ((USBUART_Dm__MASK & 0xC0) != 0))
  23:.\Generated_Source\PSoC5/USBUART_Dm.c **** 
  24:.\Generated_Source\PSoC5/USBUART_Dm.c **** 
  25:.\Generated_Source\PSoC5/USBUART_Dm.c **** /*******************************************************************************
  26:.\Generated_Source\PSoC5/USBUART_Dm.c **** * Function Name: USBUART_Dm_Write
  27:.\Generated_Source\PSoC5/USBUART_Dm.c **** ****************************************************************************//**
  28:.\Generated_Source\PSoC5/USBUART_Dm.c **** *
  29:.\Generated_Source\PSoC5/USBUART_Dm.c **** * \brief Writes the value to the physical port (data output register), masking
  30:.\Generated_Source\PSoC5/USBUART_Dm.c **** *  and shifting the bits appropriately. 
  31:.\Generated_Source\PSoC5/USBUART_Dm.c **** *
  32:.\Generated_Source\PSoC5/USBUART_Dm.c **** * The data output register controls the signal applied to the physical pin in 
  33:.\Generated_Source\PSoC5/USBUART_Dm.c **** * conjunction with the drive mode parameter. This function avoids changing 
  34:.\Generated_Source\PSoC5/USBUART_Dm.c **** * other bits in the port by using the appropriate method (read-modify-write or
  35:.\Generated_Source\PSoC5/USBUART_Dm.c **** * bit banding).
  36:.\Generated_Source\PSoC5/USBUART_Dm.c **** *
  37:.\Generated_Source\PSoC5/USBUART_Dm.c **** * <b>Note</b> This function should not be used on a hardware digital output pin 
  38:.\Generated_Source\PSoC5/USBUART_Dm.c **** * as it is driven by the hardware signal attached to it.
  39:.\Generated_Source\PSoC5/USBUART_Dm.c **** *
  40:.\Generated_Source\PSoC5/USBUART_Dm.c **** * \param value
  41:.\Generated_Source\PSoC5/USBUART_Dm.c **** *  Value to write to the component instance.
  42:.\Generated_Source\PSoC5/USBUART_Dm.c **** *
  43:.\Generated_Source\PSoC5/USBUART_Dm.c **** * \return 
  44:.\Generated_Source\PSoC5/USBUART_Dm.c **** *  None 
  45:.\Generated_Source\PSoC5/USBUART_Dm.c **** *
  46:.\Generated_Source\PSoC5/USBUART_Dm.c **** * \sideeffect
  47:.\Generated_Source\PSoC5/USBUART_Dm.c **** *  If you use read-modify-write operations that are not atomic; the Interrupt 
  48:.\Generated_Source\PSoC5/USBUART_Dm.c **** *  Service Routines (ISR) can cause corruption of this function. An ISR that 
  49:.\Generated_Source\PSoC5/USBUART_Dm.c **** *  interrupts this function and performs writes to the Pins component data 
  50:.\Generated_Source\PSoC5/USBUART_Dm.c **** *  register can cause corrupted port data. To avoid this issue, you should 
  51:.\Generated_Source\PSoC5/USBUART_Dm.c **** *  either use the Per-Pin APIs (primary method) or disable interrupts around 
  52:.\Generated_Source\PSoC5/USBUART_Dm.c **** *  this function.
  53:.\Generated_Source\PSoC5/USBUART_Dm.c **** *
  54:.\Generated_Source\PSoC5/USBUART_Dm.c **** * \funcusage
  55:.\Generated_Source\PSoC5/USBUART_Dm.c **** *  \snippet USBUART_Dm_SUT.c usage_USBUART_Dm_Write
  56:.\Generated_Source\PSoC5/USBUART_Dm.c **** *******************************************************************************/
  57:.\Generated_Source\PSoC5/USBUART_Dm.c **** void USBUART_Dm_Write(uint8 value)
  58:.\Generated_Source\PSoC5/USBUART_Dm.c **** {
 201              		.loc 1 58 0
 202              		.cfi_startproc
 203              		@ args = 0, pretend = 0, frame = 0
 204              		@ frame_needed = 0, uses_anonymous_args = 0
 205              		@ link register save eliminated.
 206              	.LVL0:
  59:.\Generated_Source\PSoC5/USBUART_Dm.c ****     uint8 staticBits = (USBUART_Dm_DR & (uint8)(~USBUART_Dm_MASK));
 207              		.loc 1 59 0
 208 0000 044A     		ldr	r2, .L2
ARM GAS  C:\Users\Thomas\AppData\Local\Temp\ccGYEdKU.s 			page 15


 209 0002 1378     		ldrb	r3, [r2]	@ zero_extendqisi2
 210              	.LVL1:
 211 0004 03F07F03 		and	r3, r3, #127
 212              	.LVL2:
  60:.\Generated_Source\PSoC5/USBUART_Dm.c ****     USBUART_Dm_DR = staticBits | ((uint8)(value << USBUART_Dm_SHIFT) & USBUART_Dm_MASK);
 213              		.loc 1 60 0
 214 0008 43EAC010 		orr	r0, r3, r0, lsl #7
 215              	.LVL3:
 216 000c C0B2     		uxtb	r0, r0
 217 000e 1070     		strb	r0, [r2]
 218 0010 7047     		bx	lr
 219              	.L3:
 220 0012 00BF     		.align	2
 221              	.L2:
 222 0014 F0510040 		.word	1073762800
 223              		.cfi_endproc
 224              	.LFE0:
 225              		.size	USBUART_Dm_Write, .-USBUART_Dm_Write
 226              		.section	.text.USBUART_Dm_SetDriveMode,"ax",%progbits
 227              		.align	2
 228              		.global	USBUART_Dm_SetDriveMode
 229              		.thumb
 230              		.thumb_func
 231              		.type	USBUART_Dm_SetDriveMode, %function
 232              	USBUART_Dm_SetDriveMode:
 233              	.LFB1:
  61:.\Generated_Source\PSoC5/USBUART_Dm.c **** }
  62:.\Generated_Source\PSoC5/USBUART_Dm.c **** 
  63:.\Generated_Source\PSoC5/USBUART_Dm.c **** 
  64:.\Generated_Source\PSoC5/USBUART_Dm.c **** /*******************************************************************************
  65:.\Generated_Source\PSoC5/USBUART_Dm.c **** * Function Name: USBUART_Dm_SetDriveMode
  66:.\Generated_Source\PSoC5/USBUART_Dm.c **** ****************************************************************************//**
  67:.\Generated_Source\PSoC5/USBUART_Dm.c **** *
  68:.\Generated_Source\PSoC5/USBUART_Dm.c **** * \brief Sets the drive mode for each of the Pins component's pins.
  69:.\Generated_Source\PSoC5/USBUART_Dm.c **** * 
  70:.\Generated_Source\PSoC5/USBUART_Dm.c **** * <b>Note</b> This affects all pins in the Pins component instance. Use the
  71:.\Generated_Source\PSoC5/USBUART_Dm.c **** * Per-Pin APIs if you wish to control individual pin's drive modes.
  72:.\Generated_Source\PSoC5/USBUART_Dm.c **** *
  73:.\Generated_Source\PSoC5/USBUART_Dm.c **** * \param mode
  74:.\Generated_Source\PSoC5/USBUART_Dm.c **** *  Mode for the selected signals. Valid options are documented in 
  75:.\Generated_Source\PSoC5/USBUART_Dm.c **** *  \ref driveMode.
  76:.\Generated_Source\PSoC5/USBUART_Dm.c **** *
  77:.\Generated_Source\PSoC5/USBUART_Dm.c **** * \return
  78:.\Generated_Source\PSoC5/USBUART_Dm.c **** *  None
  79:.\Generated_Source\PSoC5/USBUART_Dm.c **** *
  80:.\Generated_Source\PSoC5/USBUART_Dm.c **** * \sideeffect
  81:.\Generated_Source\PSoC5/USBUART_Dm.c **** *  If you use read-modify-write operations that are not atomic, the ISR can
  82:.\Generated_Source\PSoC5/USBUART_Dm.c **** *  cause corruption of this function. An ISR that interrupts this function 
  83:.\Generated_Source\PSoC5/USBUART_Dm.c **** *  and performs writes to the Pins component Drive Mode registers can cause 
  84:.\Generated_Source\PSoC5/USBUART_Dm.c **** *  corrupted port data. To avoid this issue, you should either use the Per-Pin
  85:.\Generated_Source\PSoC5/USBUART_Dm.c **** *  APIs (primary method) or disable interrupts around this function.
  86:.\Generated_Source\PSoC5/USBUART_Dm.c **** *
  87:.\Generated_Source\PSoC5/USBUART_Dm.c **** * \funcusage
  88:.\Generated_Source\PSoC5/USBUART_Dm.c **** *  \snippet USBUART_Dm_SUT.c usage_USBUART_Dm_SetDriveMode
  89:.\Generated_Source\PSoC5/USBUART_Dm.c **** *******************************************************************************/
  90:.\Generated_Source\PSoC5/USBUART_Dm.c **** void USBUART_Dm_SetDriveMode(uint8 mode)
  91:.\Generated_Source\PSoC5/USBUART_Dm.c **** {
ARM GAS  C:\Users\Thomas\AppData\Local\Temp\ccGYEdKU.s 			page 16


 234              		.loc 1 91 0
 235              		.cfi_startproc
 236              		@ args = 0, pretend = 0, frame = 0
 237              		@ frame_needed = 0, uses_anonymous_args = 0
 238              		@ link register save eliminated.
 239              	.LVL4:
  92:.\Generated_Source\PSoC5/USBUART_Dm.c **** 	CyPins_SetPinDriveMode(USBUART_Dm_0, mode);
 240              		.loc 1 92 0
 241 0000 044A     		ldr	r2, .L5
 242 0002 00F00E00 		and	r0, r0, #14
 243              	.LVL5:
 244 0006 1378     		ldrb	r3, [r2]	@ zero_extendqisi2
 245 0008 03F0F103 		and	r3, r3, #241
 246 000c 1843     		orrs	r0, r0, r3
 247 000e 1070     		strb	r0, [r2]
 248 0010 7047     		bx	lr
 249              	.L6:
 250 0012 00BF     		.align	2
 251              	.L5:
 252 0014 7F500040 		.word	1073762431
 253              		.cfi_endproc
 254              	.LFE1:
 255              		.size	USBUART_Dm_SetDriveMode, .-USBUART_Dm_SetDriveMode
 256              		.section	.text.USBUART_Dm_Read,"ax",%progbits
 257              		.align	2
 258              		.global	USBUART_Dm_Read
 259              		.thumb
 260              		.thumb_func
 261              		.type	USBUART_Dm_Read, %function
 262              	USBUART_Dm_Read:
 263              	.LFB2:
  93:.\Generated_Source\PSoC5/USBUART_Dm.c **** }
  94:.\Generated_Source\PSoC5/USBUART_Dm.c **** 
  95:.\Generated_Source\PSoC5/USBUART_Dm.c **** 
  96:.\Generated_Source\PSoC5/USBUART_Dm.c **** /*******************************************************************************
  97:.\Generated_Source\PSoC5/USBUART_Dm.c **** * Function Name: USBUART_Dm_Read
  98:.\Generated_Source\PSoC5/USBUART_Dm.c **** ****************************************************************************//**
  99:.\Generated_Source\PSoC5/USBUART_Dm.c **** *
 100:.\Generated_Source\PSoC5/USBUART_Dm.c **** * \brief Reads the associated physical port (pin status register) and masks 
 101:.\Generated_Source\PSoC5/USBUART_Dm.c **** *  the required bits according to the width and bit position of the component
 102:.\Generated_Source\PSoC5/USBUART_Dm.c **** *  instance. 
 103:.\Generated_Source\PSoC5/USBUART_Dm.c **** *
 104:.\Generated_Source\PSoC5/USBUART_Dm.c **** * The pin's status register returns the current logic level present on the 
 105:.\Generated_Source\PSoC5/USBUART_Dm.c **** * physical pin.
 106:.\Generated_Source\PSoC5/USBUART_Dm.c **** *
 107:.\Generated_Source\PSoC5/USBUART_Dm.c **** * \return 
 108:.\Generated_Source\PSoC5/USBUART_Dm.c **** *  The current value for the pins in the component as a right justified number.
 109:.\Generated_Source\PSoC5/USBUART_Dm.c **** *
 110:.\Generated_Source\PSoC5/USBUART_Dm.c **** * \funcusage
 111:.\Generated_Source\PSoC5/USBUART_Dm.c **** *  \snippet USBUART_Dm_SUT.c usage_USBUART_Dm_Read  
 112:.\Generated_Source\PSoC5/USBUART_Dm.c **** *******************************************************************************/
 113:.\Generated_Source\PSoC5/USBUART_Dm.c **** uint8 USBUART_Dm_Read(void)
 114:.\Generated_Source\PSoC5/USBUART_Dm.c **** {
 264              		.loc 1 114 0
 265              		.cfi_startproc
 266              		@ args = 0, pretend = 0, frame = 0
 267              		@ frame_needed = 0, uses_anonymous_args = 0
ARM GAS  C:\Users\Thomas\AppData\Local\Temp\ccGYEdKU.s 			page 17


 268              		@ link register save eliminated.
 115:.\Generated_Source\PSoC5/USBUART_Dm.c ****     return (USBUART_Dm_PS & USBUART_Dm_MASK) >> USBUART_Dm_SHIFT;
 269              		.loc 1 115 0
 270 0000 014B     		ldr	r3, .L8
 271 0002 1878     		ldrb	r0, [r3]	@ zero_extendqisi2
 116:.\Generated_Source\PSoC5/USBUART_Dm.c **** }
 272              		.loc 1 116 0
 273 0004 C009     		lsrs	r0, r0, #7
 274 0006 7047     		bx	lr
 275              	.L9:
 276              		.align	2
 277              	.L8:
 278 0008 F1510040 		.word	1073762801
 279              		.cfi_endproc
 280              	.LFE2:
 281              		.size	USBUART_Dm_Read, .-USBUART_Dm_Read
 282              		.section	.text.USBUART_Dm_ReadDataReg,"ax",%progbits
 283              		.align	2
 284              		.global	USBUART_Dm_ReadDataReg
 285              		.thumb
 286              		.thumb_func
 287              		.type	USBUART_Dm_ReadDataReg, %function
 288              	USBUART_Dm_ReadDataReg:
 289              	.LFB3:
 117:.\Generated_Source\PSoC5/USBUART_Dm.c **** 
 118:.\Generated_Source\PSoC5/USBUART_Dm.c **** 
 119:.\Generated_Source\PSoC5/USBUART_Dm.c **** /*******************************************************************************
 120:.\Generated_Source\PSoC5/USBUART_Dm.c **** * Function Name: USBUART_Dm_ReadDataReg
 121:.\Generated_Source\PSoC5/USBUART_Dm.c **** ****************************************************************************//**
 122:.\Generated_Source\PSoC5/USBUART_Dm.c **** *
 123:.\Generated_Source\PSoC5/USBUART_Dm.c **** * \brief Reads the associated physical port's data output register and masks 
 124:.\Generated_Source\PSoC5/USBUART_Dm.c **** *  the correct bits according to the width and bit position of the component 
 125:.\Generated_Source\PSoC5/USBUART_Dm.c **** *  instance. 
 126:.\Generated_Source\PSoC5/USBUART_Dm.c **** *
 127:.\Generated_Source\PSoC5/USBUART_Dm.c **** * The data output register controls the signal applied to the physical pin in 
 128:.\Generated_Source\PSoC5/USBUART_Dm.c **** * conjunction with the drive mode parameter. This is not the same as the 
 129:.\Generated_Source\PSoC5/USBUART_Dm.c **** * preferred USBUART_Dm_Read() API because the 
 130:.\Generated_Source\PSoC5/USBUART_Dm.c **** * USBUART_Dm_ReadDataReg() reads the data register instead of the status 
 131:.\Generated_Source\PSoC5/USBUART_Dm.c **** * register. For output pins this is a useful function to determine the value 
 132:.\Generated_Source\PSoC5/USBUART_Dm.c **** * just written to the pin.
 133:.\Generated_Source\PSoC5/USBUART_Dm.c **** *
 134:.\Generated_Source\PSoC5/USBUART_Dm.c **** * \return 
 135:.\Generated_Source\PSoC5/USBUART_Dm.c **** *  The current value of the data register masked and shifted into a right 
 136:.\Generated_Source\PSoC5/USBUART_Dm.c **** *  justified number for the component instance.
 137:.\Generated_Source\PSoC5/USBUART_Dm.c **** *
 138:.\Generated_Source\PSoC5/USBUART_Dm.c **** * \funcusage
 139:.\Generated_Source\PSoC5/USBUART_Dm.c **** *  \snippet USBUART_Dm_SUT.c usage_USBUART_Dm_ReadDataReg 
 140:.\Generated_Source\PSoC5/USBUART_Dm.c **** *******************************************************************************/
 141:.\Generated_Source\PSoC5/USBUART_Dm.c **** uint8 USBUART_Dm_ReadDataReg(void)
 142:.\Generated_Source\PSoC5/USBUART_Dm.c **** {
 290              		.loc 1 142 0
 291              		.cfi_startproc
 292              		@ args = 0, pretend = 0, frame = 0
 293              		@ frame_needed = 0, uses_anonymous_args = 0
 294              		@ link register save eliminated.
 143:.\Generated_Source\PSoC5/USBUART_Dm.c ****     return (USBUART_Dm_DR & USBUART_Dm_MASK) >> USBUART_Dm_SHIFT;
 295              		.loc 1 143 0
ARM GAS  C:\Users\Thomas\AppData\Local\Temp\ccGYEdKU.s 			page 18


 296 0000 014B     		ldr	r3, .L11
 297 0002 1878     		ldrb	r0, [r3]	@ zero_extendqisi2
 144:.\Generated_Source\PSoC5/USBUART_Dm.c **** }
 298              		.loc 1 144 0
 299 0004 C009     		lsrs	r0, r0, #7
 300 0006 7047     		bx	lr
 301              	.L12:
 302              		.align	2
 303              	.L11:
 304 0008 F0510040 		.word	1073762800
 305              		.cfi_endproc
 306              	.LFE3:
 307              		.size	USBUART_Dm_ReadDataReg, .-USBUART_Dm_ReadDataReg
 308              		.text
 309              	.Letext0:
 310              		.file 2 ".\\Generated_Source\\PSoC5\\cytypes.h"