ARM GAS  C:\Users\Thomas\AppData\Local\Temp\cc804ySL.s 			page 1


   1              		.syntax unified
   2              		.cpu cortex-m3
   3              		.fpu softvfp
   4              		.eabi_attribute 20, 1
   5              		.eabi_attribute 21, 1
   6              		.eabi_attribute 23, 3
   7              		.eabi_attribute 24, 1
   8              		.eabi_attribute 25, 1
   9              		.eabi_attribute 26, 1
  10              		.eabi_attribute 30, 2
  11              		.eabi_attribute 34, 1
  12              		.eabi_attribute 18, 4
  13              		.thumb
  14              		.file	"USBUART_msc.c"
  15              		.text
  16              	.Ltext0:
  17              		.section	.gnu.lto_.profile.c0d6935a,"",%progbits
  18 0000 789C6366 		.ascii	"x\234cf```a\200\000F\006O-\000\0010\000|"
  18      60606061 
  18      80004606 
  18      4F2D0001 
  18      30007C
  19              		.text
  20              		.section	.gnu.lto_.jmpfuncs.c0d6935a,"",%progbits
  21 0000 789C6366 		.ascii	"x\234cf\300\016\204\2414\013\210`\006\263\030\031\031"
  21      C00E84A1 
  21      340B8860 
  21      06B31819 
  21      19
  22 0011 EB59810C 		.ascii	"\353Y\201\014\000\006\013\000\251"
  22      00060B00 
  22      A9
  23              		.text
  24              		.section	.gnu.lto_.inline.c0d6935a,"",%progbits
  25 0000 789C6366 		.ascii	"x\234cf\300\016\322\2414\013\003\003;?#\003\023\313"
  25      C00ED2A1 
  25      340B0303 
  25      3B3F2303 
  25      13CB
  26 0012 027906B6 		.ascii	"\002y\006\266\005\362L 1&n \301\314\240(\004\0247y\364"
  26      05F24C20 
  26      31266E20 
  26      C1CCA028 
  26      04143779 
  27 0027 8E115502 		.ascii	"\216\021U\002L\2600\260\2620220\002\3251]\340\207(\000"
  27      4CB030B0 
  27      B2303232 
  27      3002D531 
  27      5DE08728 
  28 003c 325840AA 		.ascii	"2X@\252XAr\250&2\000\000\005'\011y"
  28      584172A8 
  28      26320000 
  28      05270979 
  29              		.text
  30              		.section	.gnu.lto_.pureconst.c0d6935a,"",%progbits
  31 0000 789C6366 		.ascii	"x\234cf``\340d\200\000\026\006)f)\026\011V\026\000\002"
  31      6060E064 
ARM GAS  C:\Users\Thomas\AppData\Local\Temp\cc804ySL.s 			page 2


  31      80001606 
  31      29662916 
  31      09561600 
  32 0015 C1006D   		.ascii	"\301\000m"
  33              		.text
  34              		.section	.gnu.lto_USBUART_DispatchMSCClassRqst.part.0.c0d6935a,"",%progbits
  35 0000 789C7D52 		.ascii	"x\234}R]H\224A\024\235sgu7\225\222\036\245\267\015\244"
  35      5D489441 
  35      149D7367 
  35      75379592 
  35      1EA5B70D 
  36 0015 50DF7AE8 		.ascii	"P\337z\350\251\277\207~\037$\223\036Z\260\305\375\250"
  36      A9BF877E 
  36      1F24931E 
  36      5AB0C5FD 
  36      A8
  37 0026 0753D2B5 		.ascii	"\007S\322\2657q>\335\260\247(\011\014\323\260H\263,"
  37      37713EDD 
  37      B0A72809 
  37      0CD3B048 
  37      B32C
  38 0038 352DD37E 		.ascii	"5-\323~\340#\"\251$\021I\243\262B\326\376(Z\335P\267"
  38      E02322A9 
  38      241149A3 
  38      B242D6FE 
  38      285ADD50 
  39 004d 58B73BB3 		.ascii	"X\267;\263\005f\330\300|w\356\3149\347\236\231\373I"
  39      0566D8C0 
  39      7C77EECC 
  39      39E79E99 
  39      FB49
  40 005f F1EFC8E1 		.ascii	"\361\357\310\341\271F\012\261\223#R\004\\\247\236\361"
  40      B9460AB1 
  40      93235204 
  40      5CA79EF1 
  41 006f C2053291 		.ascii	"\302\0052\221 u\264=\022\320\013\001Q\355\"\211j|\242"
  41      2075B43D 
  41      12D00B01 
  41      51ED2289 
  41      6A7CA2
  42 0082 69C2D0C0 		.ascii	"i\302\320\300\302(\262[\225\252\211\\\374:\221\357 "
  42      C228B25B 
  42      95AA895C 
  42      FC3A91EF 
  42      20
  43 0093 46424449 		.ascii	"FBDI '\013\353\2624\3742\262\005\003_\364\277\252\317"
  43      20270BEB 
  43      B234FC32 
  43      B205035F 
  43      F4BFAACF 
  44 00a7 90EBA1D7 		.ascii	"\220\353\241\327c\017\007\024y/0\351\335\227>\237c\267"
  44      630F0714 
  44      792F30E9 
  44      DD973E9F 
  44      63B7
  45 00b9 A8854442 		.ascii	"\250\205DB3\321\016\271\230\254\007\343\243\035\352"
  45      33D10EB9 
ARM GAS  C:\Users\Thomas\AppData\Local\Temp\cc804ySL.s 			page 3


  45      98AC07E3 
  45      A31DEA
  46 00c8 8C941B0D 		.ascii	"\214\224\033\015\367\351\344|4\343#\305\010\231:m\034"
  46      F7E9E47C 
  46      34E323C5 
  46      08993A6D 
  46      1C
  47 00d9 9FFA2E75 		.ascii	"\237\372.uJ\244\323\307M3\273\223\302\337\372\017:5"
  47      4AA4D3C7 
  47      4D33BB93 
  47      C2DFFA0F 
  47      3A35
  48 00eb 7F8425AE 		.ascii	"\177\204%\256&\205;\220\205kX$\335\020y\376\004r\223"
  48      26853B90 
  48      856B5824 
  48      DD1079FE 
  48      047293
  49 00fe 91AE6F9D 		.ascii	"\221\256o\235\251s\033v\313|\267\332\274\210\335\271"
  49      A9731B76 
  49      CB7CB7DA 
  49      BC88DDB9 
  50 010e 0C7B3A14 		.ascii	"\014{:\024\037OO\015)\2452q\005^\\\347\331\005\257~"
  50      1F4F4F0D 
  50      29A53271 
  50      055E5CE7 
  50      D905AF7E 
  51 0122 00BE7937 		.ascii	"\000\276y7R!\204\324;\346\204\021]\253\225J$>\014y\335"
  51      522184D4 
  51      3BE68411 
  51      5DAB954A 
  51      243E0C79 
  52 0137 103A27F3 		.ascii	"\020:'\363\025\"\314\004\375\272ar\351(\247\370::\276"
  52      1522CC04 
  52      FDBA6172 
  52      E928A7F8 
  52      3A3ABE
  53 014a C483D9BA 		.ascii	"\304\203\331\272\331\263=\320b\\\360\374\350\311N\252"
  53      D9B33DD0 
  53      625CF0FC 
  53      E8C94EAA 
  54 015a FAA94E28 		.ascii	"\372\251N(O\214\\qJ\332x\033\036\036\361\350Gp\231t"
  54      4F8C5C71 
  54      4ADA781B 
  54      1E1EF1E8 
  54      47709974 
  55 016e 52B5C5DC 		.ascii	"R\265\305\334\3158g+\233Q)\270\201*\364h\333|\026?\376"
  55      CD38672B 
  55      9B5129B8 
  55      812AF468 
  55      DB7C163F 
  56 0183 B9352DB7 		.ascii	"\2715-\267C\205lgW\214R\321\213f\314h\031\201\233\310"
  56      43856C67 
  56      578C52D1 
  56      8B66CC68 
  56      19819BC8 
  57 0197 5D5AC11D 		.ascii	"]Z\301\035'\374]\301m\322v;\324\004SA\243\004nq\205"
  57      27FC5DC1 
ARM GAS  C:\Users\Thomas\AppData\Local\Temp\cc804ySL.s 			page 4


  57      6DD2763B 
  57      D4045341 
  57      A3046E71 
  58 01ac BEDF1526 		.ascii	"\276\337\025&\302?\366\033\276s\200\341\270\3158\026"
  58      C23FF61B 
  58      BE7380E1 
  58      B8CD3816 
  59 01bc EF4795E0 		.ascii	"\357G\225\340\313D\"\203\247\323\377{\227\245\346\007"
  59      CB442283 
  59      A7D3FF7B 
  59      97A5E607 
  60 01cc 9635EFC1 		.ascii	"\2265\357\301\035c\036\332\374]c~\244\261\255v\225\266"
  60      1D631EDA 
  60      FC5D637E 
  60      A4B1AD76 
  60      95B6
  61 01de E9E1E7BD 		.ascii	"\351\341\347\275\307\254\327\250uz\037\255\325\025\347"
  61      C7ACD7A8 
  61      757A1FAD 
  61      D515E7
  62 01ed B85D4B8A 		.ascii	"\270]K\212\256\210j2\356\263\267\030\245\2111\376\331"
  62      AE886A32 
  62      EEB3B718 
  62      A58931FE 
  62      D9
  63 01fe 75CFB823 		.ascii	"u\317\270#sFu\212\244\351\302\030j2Er\233\304\033\330"
  63      7346758A 
  63      A4E9C218 
  63      6A324572 
  63      9BC41BD8 
  64 0212 4EC32025 		.ascii	"N\303 %%\331\364{\020\243\251\251\367\022q\373\240\011"
  64      25D9F47B 
  64      10A3A9A9 
  64      F71271FB 
  64      A009
  65 0224 BC9B9DE7 		.ascii	"\274\233\235\347\333n\225Z\345\376\240\025(*(\253,/"
  65      DB6E955A 
  65      E5FEA015 
  65      282A28AB 
  65      2C2F
  66 0236 B67CF905 		.ascii	"\266|\371\005e\3336\370\012\013\266\026n\331\273\257"
  66      65DB36F8 
  66      0A0BB616 
  66      6ED9BBAF 
  67 0246 E8484571 		.ascii	"\350HEq^\261XYn\035\255\264*\202;\374\245\201\022+\220"
  67      5EB15859 
  67      6E1DADB4 
  67      2A823BFC 
  67      A581122B 
  68 025b 72CC5F52 		.ascii	"r\314_Ri\245\005\374A\377\036\253\364P\360\360/M\356"
  68      69A505FC 
  68      41FF1EAB 
  68      F450F0F0 
  68      2F4DEE
  69 026e 3710     		.ascii	"7\020"
  70              		.text
  71              		.section	.gnu.lto_USBUART_DispatchMSCClassRqst.c0d6935a,"",%progbits
ARM GAS  C:\Users\Thomas\AppData\Local\Temp\cc804ySL.s 			page 5


  72 0000 789C9595 		.ascii	"x\234\225\225[L\\U\024\206\367\332\347:g\206a !A\022"
  72      5B4C5C55 
  72      1486F7DA 
  72      E73A6786 
  72      61202141 
  73 0015 FB82096A 		.ascii	"\373\202\011j\004|\361\201'o\017^\037\032\261\211\017"
  73      047CF181 
  73      276F0F5E 
  73      1F1AB189 
  73      0F
  74 0026 241561A2 		.ascii	"$\025a\242\017-\215\024|#=\003\324jD\254\004\301\364"
  74      0F2D8D14 
  74      7C233D03 
  74      D46A44AC 
  74      04C1F4
  75 0039 16D08245 		.ascii	"\026\320\202EZ\240W.\245\355\320\326\"\027{\221k\013"
  75      5AA0572E 
  75      A5EDD0D6 
  75      22177B91 
  75      6B0B
  76 004b C58680A1 		.ascii	"\305\206\200\241\012)0M\012i\006\\k\237\303\361\024"
  76      0A29304D 
  76      0A69065C 
  76      6B9FC3F1 
  76      14
  77 005c E3C34C32 		.ascii	"\343\303L2\373\234\177\357\265\326\376\326\177n\022"
  77      FB9C7FEF 
  77      B5D6FED6 
  77      7F6E12
  78 006b FBEFAF16 		.ascii	"\373\357\257\026\3779:co\341\021|\014\370\376\353\214"
  78      FF393A63 
  78      6FE1117C 
  78      0CF8FEEB 
  78      8C
  79 007c 8574CEA5 		.ascii	"\205t\316\245\212$f\032Zy\0263}\022\227\257=\215\312"
  79      8A24661A 
  79      5A791633 
  79      7D1297AF 
  79      3D8DCA
  80 008f DBFF222A 		.ascii	"\333\377\"*\231+\303\231\244\272\267\240R\270:a\220"
  80      992BC399 
  80      A4BAB7A0 
  80      52B83A61 
  80      90
  81 00a0 3A7B85A1 		.ascii	":{\205\241T\301K\025@\343\272+E\347\036W\212\207\033"
  81      54C14B15 
  81      40E3BA2B 
  81      45E71E57 
  81      8A871B
  82 00b3 5D5B488D 		.ascii	"][H\215\342\234\317\2602B\272\027\200N\030\260=\\\222"
  82      E29CCFB0 
  82      3242BA17 
  82      804E18B0 
  82      3D5C92
  83 00c6 1555D33D 		.ascii	"\025U\323=\206\027\366\300}\276\304a\260sm\010\322\032"
  83      8617F6C0 
  83      7DBEC461 
ARM GAS  C:\Users\Thomas\AppData\Local\Temp\cc804ySL.s 			page 6


  83      B0736D08 
  83      D21A
  84 00d8 4CB374F1 		.ascii	"L\263t\361\207\205\273[\303\260\312\031\213p\006/\244"
  84      8785BB5B 
  84      C3B0CA19 
  84      8B70062F 
  84      A4
  85 00e9 C0732994 		.ascii	"\300s)\224\365\023\2441\014\034\357\230\250\362I\317"
  85      F513A431 
  85      0C1CEF98 
  85      A8F249CF 
  86 00f9 039D8F5E 		.ascii	"\003\235\217^\3554yj=&\335\233?\227\023\016\325\231"
  86      ED34796A 
  86      3D26DD9B 
  86      3F97130E 
  86      D599
  87 010b 6BEBEB94 		.ascii	"k\353\353\224\011\307@r'\323\017\343#\315f\265$e\211"
  87      09C74072 
  87      27D30FE3 
  87      23CD66B5 
  87      246589
  88 011e DC81E995 		.ascii	"\334\201\351\225\210o\216\257r\010\220<06\373P\"\311"
  88      886F8EAF 
  88      7208903C 
  88      3036FB50 
  88      22C9
  89 0130 39C9BE43 		.ascii	"9\311\276C\313\357X\205\037t|\030.\335(,\301\317V\341"
  89      CBEF5885 
  89      1F747C18 
  89      2EDD282C 
  89      C1CF56E1 
  90 0144 664881E3 		.ascii	"fH\201\343\340*]\2738\322\017\322\313\242tU\303\362"
  90      E02A5DBB 
  90      38D20FD2 
  90      CBA27455 
  90      C3F2
  91 0156 3E4D64D7 		.ascii	">Md\327\255\264\231\257\270\262[\376'{\251<:\346U\313"
  91      ADB499AF 
  91      B8B25BFE 
  91      277BA93C 
  91      3AE655CB 
  92 016a 4DD30C40 		.ascii	"M\323\014@\023\244\302\011\374\267B*\031\200\235\267"
  92      13A4C209 
  92      FCB7422A 
  92      19809DB7 
  93 017a 810A8C49 		.ascii	"\201\012\214I\356\225\326\304\260\271\276\0369\333\363"
  93      EE95D6C4 
  93      B0B9BE1E 
  93      39DBF3
  94 0189 BDF61430 		.ascii	"\275\366\0240Z\341b\224\331*\227\025\034\024\225\006"
  94      5AE16294 
  94      D92A9715 
  94      1C149506 
  95 0199 8DA44E67 		.ascii	"\215\244Ng\036F\251\006i/i\037\015q$\375t\026\317\250"
  95      1E46A906 
  95      692F691F 
  95      0D7124FD 
ARM GAS  C:\Users\Thomas\AppData\Local\Temp\cc804ySL.s 			page 7


  95      7416CFA8 
  96 01ad 6A807402 		.ascii	"j\200t\002\016j\"\235%\321\220,\35226\203(t\371f\321"
  96      0E6A229D 
  96      25D1902C 
  96      EA323683 
  96      2874F966 
  97 01c2 203C4AA3 		.ascii	" <J\243P\032\276\275S\260\341:\366\360\307\314\215["
  97      501ABEBD 
  97      53B0E13A 
  97      F6F0C7CC 
  97      8D5B
  98 01d4 3A3948C8 		.ascii	":9H\310'\261\273;p\271k\251=\235B\036q\031#\272\216"
  98      27B1BB3B 
  98      70B96BA9 
  98      3D9D421E 
  98      711923BA 
  99 01e9 4DDC8FA7 		.ascii	"M\334\217\247\010\315\014\207L\231\271\2234\341\303"
  99      08CD0C87 
  99      4C99B993 
  99      34E1C3
 100 01f8 C2DDAFA2 		.ascii	"\302\335\257\242p\030\016\206\312\321.\035N\241O\247"
 100      70180E86 
 100      CAD12E1D 
 100      4EA14FA7 
 101 0208 C9275C7A 		.ascii	"\311'\\z<\035:\342Mo6i\305\003g0j\231\333\356U\266\034"
 101      3C1D3AE2 
 101      4D6F3669 
 101      C5036730 
 101      6A99DBEE 
 102 021f 8D88BA86 		.ascii	"\215\210\272\206D\362\346\227\325e\276\314\023\"\322"
 102      44F2E697 
 102      D565BECC 
 102      1322D2
 103 022e 0B67211D 		.ascii	"\013g!\035\316Y^C;d\"U\351\224f1)\210\205\272lR\265"
 103      CE595E43 
 103      3B642255 
 103      E9946631 
 103      298885BA 
 104 0245 344D61FE 		.ascii	"4Ma\376\321\357j\216+TN\321\031t\330\215\200\025\242"
 104      D1EF6A8E 
 104      2B544ED1 
 104      1974D88D 
 104      8015A2
 105 0258 C502D9E9 		.ascii	"\305\002\331\351\206tn0C\334`\207\"Cg\342\035\310.\204"
 105      86746E30 
 105      43DC6087 
 105      224367E2 
 105      1DC82E84 
 106 026c 3C6F4376 		.ascii	"<oCv\333\220\373f\354=u\334\2260\037\332\230\036A\252"
 106      DB90FB66 
 106      EC3D75DC 
 106      96301FDA 
 106      981E41AA 
 107 0280 B351E0C2 		.ascii	"\263Q\340\302~\274\2568)(OvgY1F,\234\027\334\234\217"
 107      7EBCAE38 
 107      29284F76 
 107      67593146 
ARM GAS  C:\Users\Thomas\AppData\Local\Temp\cc804ySL.s 			page 8


 107      2C9C17DC 
 108 0296 7EBCF737 		.ascii	"~\274\3677\010N\215d\343\334\305\3568\207\363\"r^\262"
 108      084E8D64 
 108      E3DCC5EE 
 108      3887F322 
 108      725EB2
 109 02a9 39C34F9A 		.ascii	"9\303O\232\351\305M\335f\372pj\263{q\261P\365\270\251"
 109      E9C54DDD 
 109      66FA706A 
 109      B37B71B1 
 109      50F5B8A9 
 110 02bd AAF67674 		.ascii	"\252\366vt\370\005\225J\262.\\\023\345\016\325e\244"
 110      F805954A 
 110      B22E5C13 
 110      E50ED565 
 110      A4
 111 02ce BA62535D 		.ascii	"\272bS]\335\354\236\037\267u\273\027/\320\374\216{\255"
 111      DDEC9E1F 
 111      B775BB17 
 111      2FD0FC8E 
 111      7BAD
 112 02e0 E45EBC75 		.ascii	"\344^\274u\263^x\326\212\011\304\302\371\213\2333\324"
 112      B35E78D6 
 112      8A09C4C2 
 112      F98B9B33 
 112      D4
 113 02f1 78BE4213 		.ascii	"x\276B\023\234B\256L\265f8\230\327\020\263\327\306\374"
 113      9C42AE4C 
 113      B5663898 
 113      D710B3D7 
 113      C6FC
 114 0303 75336602 		.ascii	"u3f\002\356\312F\240|\260\354#{\302\375t\250\230\322"
 114      EECA46A0 
 114      7CB0EC23 
 114      7BC2FD74 
 114      A898D2
 115 0316 67BF3066 		.ascii	"g\2770f\271\304*\222$\001|\351\003+81\026\340~7p\357"
 115      B9C42A92 
 115      24017CE9 
 115      032B3831 
 115      16E07E37 
 116 032c E1B953B2 		.ascii	"\341\271S\262\000\026\257\256\371o\0166k\016\361\000"
 116      0016AFAE 
 116      F96F0E36 
 116      6B0EF100 
 117 033c 120FDAC4 		.ascii	"\022\017\332\304\277!1\362\215\227\025\376\273\345\\"
 117      BF2131F2 
 117      8D9715FE 
 117      BBE55C
 118 034b 537D8D41 		.ascii	"S}\215A\311\362\032\276\204\256;\2002\213j\222\010n"
 118      C9F21ABE 
 118      84AE3B80 
 118      328B6A92 
 118      086E
 119 035d AEB02DF5 		.ascii	"\256\260-\365\270\315Q\260\336\015'Za\017d+zY\262\257"
 119      B8CD51B0 
 119      DE0D275A 
ARM GAS  C:\Users\Thomas\AppData\Local\Temp\cc804ySL.s 			page 9


 119      610F642B 
 119      7A59B2AF 
 120 0371 911B4CC1 		.ascii	"\221\033L\301\3227\235`\225\2150i\022\312\002V$}:\216"
 120      D2379D60 
 120      958D3069 
 120      12CA0256 
 120      247D3A8E 
 121 0385 0C55B6F0 		.ascii	"\014U\266\360\222\307\346\027\246\276\312}\021\216\357"
 121      92C7E617 
 121      A6BECA7D 
 121      118EEF
 122 0394 4AB80525 		.ascii	"J\270\005%\370\362\212\023)\032+\317\262\354\032\256"
 122      F8F28A13 
 122      291A2BCF 
 122      B2EC1AAE 
 123 03a4 F7586949 		.ascii	"\367XiI\261\370\365\273\333\257'\015\032r\0314\274\311"
 123      B1F8F5BB 
 123      DBAF270D 
 123      1A721934 
 123      BCC9
 124 03b6 20DAA372 		.ascii	" \332\243r\340@\217x\350\345u\354b\304\351Bg}IV\313"
 124      E0408F78 
 124      E8E575EC 
 124      62C4E942 
 124      677D4956 
 125 03cb A7BFDE30 		.ascii	"\247\277\3360\310\345\210\207U\307Y\313]\033\216\270"
 125      C8E58887 
 125      55C759CB 
 125      5D1B8EB8 
 126 03db 560DB65F 		.ascii	"V\015\266_\241~\026\333&\277\365\322\362f\017\374Qn"
 126      A17E16DB 
 126      26BFF5D2 
 126      F2660FFC 
 126      516E
 127 03ed C13AF78F 		.ascii	"\301:\367\217_\310i\263qU\243\216\315\020F\305\303("
 127      5FC869B3 
 127      7155A38E 
 127      CD1046C5 
 127      C328
 128 03ff 94C098DD 		.ascii	"\224\300\230\335rt\357_\015\006\265\034\012\277\275"
 128      7274EF5F 
 128      0D06B51C 
 128      0ABFBD
 129 040e CA03302E 		.ascii	"\312\0030.\232\006j\3546\244\273k\005p\352\016f\341"
 129      9A066AEC 
 129      36A4BB6B 
 129      0570EA0E 
 129      66E1
 130 0420 4508473F 		.ascii	"E\010G?\177\306\342K\336\314\220\020\301\357\004\203"
 130      7FC6E24B 
 130      DECC9010 
 130      C1EF0483 
 131 0430 09711D12 		.ascii	"\011q\035\022\235\247\255\211\236\266d\321\206w\343"
 131      9DA7AD89 
 131      9EB664D1 
 131      8677E3
 132 043f 331260D6 		.ascii	"3\022`\3264\260)\010\205k{\271U\022\367\376\023\200"
ARM GAS  C:\Users\Thomas\AppData\Local\Temp\cc804ySL.s 			page 10


 132      34B02908 
 132      856B7BB9 
 132      5512F7FE 
 132      1380
 133 0451 BE24F2E0 		.ascii	"\276$\362\340\202JGM|Wt1z\030\3261\346\333\3538)\011"
 133      824A474D 
 133      7C577431 
 133      7A18D631 
 133      E6DBEB38 
 134 0467 23F06650 		.ascii	"#\360fPE\270B\037+\240\352H\220\226\221\363F\260 X\230"
 134      45B8421F 
 134      2BA0EA48 
 134      909691F3 
 134      46B02058 
 135 047c 5B14CCDF 		.ascii	"[\024\314\337\236\275\253\2700/\230\2635{\327\353/\345"
 135      9EBDABB8 
 135      302F98B3 
 135      357BD7EB 
 135      2FE5
 136 048e 6CCB7E6D 		.ascii	"l\313~m\333\253\357\275\277}\347\356\274\214<\346/\014"
 136      DBABEFBD 
 136      BF7DE7EE 
 136      BC8C3CE6 
 136      2F0C
 137 04a0 7E5A1CDC 		.ascii	"~Z\034\334]\364fnA\376\216`\276\362Y\356\216\342\240"
 137      5DF4666E 
 137      41FE8E60 
 137      BEF259EE 
 137      8EE2A0
 138 04b3 919F5B94 		.ascii	"\221\237[\224\373n\260\340\343\242O\376\001\031V\360"
 138      FB6EB0E0 
 138      E3A24FFE 
 138      011956F0 
 139 04c3 5C       		.ascii	"\\"
 140              		.text
 141              		.section	.gnu.lto_USBUART_MSC_SetLunCount.c0d6935a,"",%progbits
 142 0000 789C6550 		.ascii	"x\234eP\275KBQ\024?\277\373\310\036\270D\223\274]\244"
 142      BD4B4251 
 142      143FBFFB 
 142      C81EB844 
 142      93BC5DA4 
 143 0014 0887C035 		.ascii	"\010\207\3005*\007\327\310\334\036H\330\333J\301t\024"
 143      2A07D7C8 
 143      DC1E48D8 
 143      DB4AC174 
 143      14
 144 0025 EF3393A6 		.ascii	"\3573\223\2460'\301>\206\210,\323\350\037(\241\245!"
 144      3027C13E 
 144      86882CD3 
 144      E81F28A1 
 144      A521
 145 0037 8A0A0A1C 		.ascii	"\212\012\012\034jQ\260-q\020)\261ss\354\302\341|\334"
 145      6A51B02D 
 145      711029B1 
 145      7373ECC2 
 145      E17CDC
 146 004a DFC7B957 		.ascii	"\337\307\271W\243\377\307\340\360\201h\22634\202\310"
ARM GAS  C:\Users\Thomas\AppData\Local\Temp\cc804ySL.s 			page 11


 146      A3FFC7E0 
 146      F0816896 
 146      333482C8 
 147 005a 3F10D9BA 		.ascii	"?\020\331\272\000TA\240\264@\032\237\242#\220\257W\212"
 147      005441A0 
 147      B4401A9F 
 147      A22390AF 
 147      578A
 148 006c 4ECF8994 		.ascii	"N\317\211\224\362+s\343\332v\365\005QW\214dp\012\017"
 148      F22B73E3 
 148      DA76F505 
 148      51578C64 
 148      700A0F
 149 007f 439EAF6E 		.ascii	"C\236\257n[\2726\015\342\372\256]\3159\334\307Rf\352"
 149      5BBA360D 
 149      E2FAAE5D 
 149      CD39DCC7 
 149      5266EA
 150 0092 F735398F 		.ascii	"\36759\217>k\226\2411\0033\006\246\014\342\001\341\014"
 150      3E6B96A1 
 150      31033306 
 150      A60CE201 
 150      E10C
 151 00a4 6E05EE64 		.ascii	"n\005\356d\007oNG\226\265'F\2328\207\203\327\242\313"
 151      076F4E47 
 151      96B52746 
 151      9A388783 
 151      D7A2CB
 152 00b7 C9BA1C0E 		.ascii	"\311\272\034\016\273?{\3559\214\001\012/\230\311\220"
 152      BB3F7BED 
 152      398C010A 
 152      2F98C990 
 153 00c7 2687DAB1 		.ascii	"&\207\332\261\305\015g\255\201\255B\356\365\310T\314"
 153      C50D67AD 
 153      81AD42EE 
 153      F5C854CC 
 154 00d7 9E103D16 		.ascii	"\236\020=\026\025(\226\372\327\343m\301VC6\253\300\240"
 154      152896FA 
 154      D7E36DC1 
 154      564336AB 
 154      C0A0
 155 00e9 06320528 		.ascii	"\0062\005(\014\337\036\276\354\326D\352[\356H\275/\264"
 155      0CDF1EBE 
 155      ECD644EA 
 155      5BEE48BD 
 155      2FB4
 156 00fb 81F2E5E9 		.ascii	"\201\362\345\351G\363\361IW\034\355\257-\333\331}\034"
 156      47F3F149 
 156      571CEDAF 
 156      2DDBD97D 
 156      1C
 157 010c A0644B85 		.ascii	"\240dK\205\002.\220B\225\205\0105\036\263\023\275\303"
 157      022E9042 
 157      95850835 
 157      1EB313BD 
 157      C3
 158 011d AEF7024A 		.ascii	"\256\367\002JS}E\223\237\305\373\260\230\307k\006\254"
ARM GAS  C:\Users\Thomas\AppData\Local\Temp\cc804ySL.s 			page 12


 158      537D4593 
 158      9FC5FBB0 
 158      98C76B06 
 158      AC
 159 012e A8155F4D 		.ascii	"\250\025_MXk\341`,\031\217X\346R0\346\367\231\241\340"
 159      586BE160 
 159      2C198F58 
 159      E65230E6 
 159      F799A1E0 
 160 0142 62686179 		.ascii	"bhay%\274\261\031\361FH_OF\375\261d4\361\013cl|t"
 160      25BCB119 
 160      F146485F 
 160      4F46FDB1 
 160      6434F10B 
 161              		.text
 162              		.section	.gnu.lto_USBUART_MSC_GetLunCount.c0d6935a,"",%progbits
 163 0000 789C6366 		.ascii	"x\234cf\300\004R@\374\017\2105\201\230\221\231\201\221"
 163      C0045240 
 163      FC0F8835 
 163      81989199 
 163      8191
 164 0012 69C23906 		.ascii	"i\3029\006\206F\016&FF\020\203\201\221\241\236\211\261"
 164      86460E26 
 164      46461083 
 164      8191A19E 
 164      89B1
 165 0024 9EF125D3 		.ascii	"\236\361%\323G&\3063;\377]fT_\332\320\320\364\341\321"
 165      4726C633 
 165      3BFF5D66 
 165      545FDAD0 
 165      D0F4E1D1 
 166 0038 E53BDCAD 		.ascii	"\345;\334\255\022?\231\030\030>310\352H1j\202\314a\\"
 166      123F9918 
 166      183E3331 
 166      30EA4831 
 166      6A82CC61 
 167 004d CEA8CE00 		.ascii	"\316\250\316\000T\370\261\345\357un\266\226\206\206"
 167      54F8B1E5 
 167      EF756EB6 
 167      968686
 168 005c 0601903C 		.ascii	"\006\001\220<Pb\005#\033#\220^/t\240\341\377\377\317"
 168      50620523 
 168      1B23905E 
 168      2F74A0E1 
 168      FFFFCF
 169 006f E727ADD0 		.ascii	"\347'\255\320bbab\370\311\004\264\021d\010\303\023 "
 169      62626162 
 169      F8C904B4 
 169      116408C3 
 169      1320
 170 0081 01B2EF29 		.ascii	"\001\262\357)\023\023\210f\276\305\3304i\343\225 \220"
 170      13138866 
 170      BEC5D834 
 170      69E39520 
 170      90
 171 0092 BEEF4C20 		.ascii	"\276\357L \273\347]\356[\307T\373\273\241\243\201\343"
 171      BBE75DEE 
ARM GAS  C:\Users\Thomas\AppData\Local\Temp\cc804ySL.s 			page 13


 171      5BC754FB 
 171      BBA1A381 
 171      E3
 172 00a3 2713D35F 		.ascii	"'\023\323_\220\036\240\350\375'\347/r\274`\002\212\200"
 172      901EA0E8 
 172      FD27E72F 
 172      72BC6002 
 172      8A80
 173 00b5 B92B1A5B 		.ascii	"\271+\032[\3460\316e\234\335\330\000R\305\300\270\222"
 173      E630CE65 
 173      9CDDD800 
 173      52C5C0B8 
 173      92
 174 00c6 B1967115 		.ascii	"\261\226q\025#\320e\214\253\201\302\014\267\030\233"
 174      23D0658C 
 174      AB81C20C 
 174      B7189B
 175 00d5 27B1418C 		.ascii	"'\261A\214d\206\230zq\326\262f~\220~\240?\031\327\000"
 175      6486987A 
 175      71D6B266 
 175      7E907EA0 
 175      3F19D700 
 176 00e9 55DE6364 		.ascii	"U\336cd\204*\000;\212\021\344\030\240\331\352z1\356"
 176      842A003B 
 176      8A11E418 
 176      A0D9EA7A 
 176      31EE
 177 00fb A979A945 		.ascii	"\251y\251E\211%\251)\361\301\371\245E\311\2511\001\301"
 177      8925A929 
 177      F1C1F9A5 
 177      45C9A931 
 177      01C1
 178 010d F9CEA631 		.ascii	"\371\316\2461\241\301N\241\216A!\361\271\305\311z\311"
 178      A1C14EA1 
 178      8E4121F1 
 178      B9C5C97A 
 178      C9
 179 011e 0C0021D6 		.ascii	"\014\000!\326f?"
 179      663F
 180              		.text
 181              		.section	.gnu.lto_.symbol_nodes.c0d6935a,"",%progbits
 182 0000 789C55C9 		.ascii	"x\234U\3111\016\202P\024\005\321y\357\362\201\302\302"
 182      310E8250 
 182      1405D179 
 182      EFF281C2 
 182      C2
 183 0011 1D5F0A3B 		.ascii	"\035_\012;\0336\240!\204\245X\353\026\014a\035\004\023"
 183      1B36A021 
 183      84A558EB 
 183      160C611D 
 183      0413
 184 0023 2960BA93 		.ascii	")`\272\223\021pc/\033C\377\006;\036cK\251\270\232B\014"
 184      1170632F 
 184      1B43FF06 
 184      3B1E634B 
 184      A9B89A42 
 185 0038 696538F6 		.ascii	"ie8\366\311sh\311t\236,\353\350(\256\376\246\353~\254"
ARM GAS  C:\Users\Thomas\AppData\Local\Temp\cc804ySL.s 			page 14


 185      C97368C9 
 185      749E2CEB 
 185      E828AEFE 
 185      A6EB7EAC 
 186 004c 5D0E1435 		.ascii	"]\016\0245\313w\015\011\346\373Ej\230>\257`\003-v Y"
 186      CB770D09 
 186      E6FB456A 
 186      983EAF60 
 186      032D7620 
 187              		.text
 188              		.section	.gnu.lto_.refs.c0d6935a,"",%progbits
 189 0000 789C6366 		.ascii	"x\234cf``\220f\200\000f\006FFF&&\020\301\310\314\310"
 189      60609066 
 189      80006606 
 189      46464626 
 189      2610C1C8 
 190 0016 28C3C802 		.ascii	"(\303\310\002\342\2612012\000\000\007\300\000c"
 190      E2B13230 
 190      31320000 
 190      07C00063 
 191              		.text
 192              		.section	.gnu.lto_.decls.c0d6935a,"",%progbits
 193 0000 789C8D56 		.ascii	"x\234\215V}LSW\024\177\247\267\224R+8I\324\260%\353"
 193      7D4C5357 
 193      147FA7B7 
 193      94522B38 
 193      49D4B025 
 194 0015 30616E31 		.ascii	"0an1\204e\331\262\177\2269qs\313\276\214`\262E\023\326"
 194      8465D9B2 
 194      7F963971 
 194      73CBBE8C 
 194      60B24513 
 195 002a D44ECD58 		.ascii	"\324N\315Xa\355c\311\376\332EdV\247\263sc\242a\256~"
 195      61ED63C9 
 195      FEDA4564 
 195      56A7B373 
 195      63A261AE 
 196 003f 30FC0454 		.ascii	"0\374\004T\020\371P\313\374BE6\0078@\324\202C\2530\255"
 196      10F950CB 
 196      FC424536 
 196      073840D4 
 196      8243AB30 
 197 0054 8A13BFE8 		.ascii	"\212\023\277\350\316\275\357>\372\272\024\335KNy\367"
 197      CEBDEF3E 
 197      FABA14DD 
 197      4B4E79F7 
 198 0064 BD737EBF 		.ascii	"\275s~\277\337=\367\234\363 \222$\025\203$\205\360z"
 198      DF3DF79C 
 198      F3209224 
 198      15832485 
 198      F07A
 199 0076 758C245D 		.ascii	"u\214$]\305\373\030|6K\012_\006\264]hUh\373\320\352"
 199      C5FB187C 
 199      364B0A5F 
 199      06B45D68 
 199      5568FBD0 
 200 008b D01AD00E 		.ascii	"\320\032\320\016\240\351\320z\321\372\244\310\213\371"
ARM GAS  C:\Users\Thomas\AppData\Local\Temp\cc804ySL.s 			page 15


 200      A0E9D07A 
 200      D1FAA4C8 
 200      8BF9
 201 0099 239CB41D 		.ascii	"#\234\264\035-\036\315\214v\014\355\022\232\037\355"
 201      2D1ECD8C 
 201      760CED12 
 201      9A1FED
 202 00a8 325A00ED 		.ascii	"2Z\000\355\012\332U\264\335\002\353,Z\227\270\337%x"
 202      0ADA55B4 
 202      DD02EB2C 
 202      5A97B8DF 
 202      2578
 203 00ba 46E3607A 		.ascii	"F\343`z\022\243pL@\263\240\015\240\335C\273\213v\037"
 203      12A3704C 
 203      40B3A00D 
 203      A0DD43BB 
 203      8B761F
 204 00cd ED2DB4E3 		.ascii	"\355-\264\343h\017\320*4Z\376\253\341\226\320@\004\307"
 204      680FD02A 
 204      345AFEAB 
 204      E196D040 
 204      04C7
 205 00df 2EB15710 		.ascii	".\261W\020:\264\027\313\207^\344k\273\340\016\210w "
 205      3AB417CB 
 205      875EE46B 
 205      BBE00E88 
 205      7720
 206 00f1 DE4314ED 		.ascii	"\336C\024\355u\002?ZL\335(17tp\346\340\322\245F\242"
 206      75023F5A 
 206      4CDD2831 
 206      377470E6 
 206      E0D2A546 
 207 0106 0376BFA9 		.ascii	"\003v\277\251\270\247\3154u\033\245\324M}>\010;\345"
 207      B8A7CD34 
 207      751BA5D4 
 207      4D7D3E08 
 207      3BE5
 208 0118 FF52BF22 		.ascii	"\377R\277\"6\240\203\011&\276\374\366\344\272F\302\227"
 208      36A08309 
 208      26BEFCF6 
 208      E4BA46C2 
 208      97
 209 0129 2116A7EB 		.ascii	"!\026\247\353\354\374\341.\001S\212\233\322\3054\270"
 209      ECFCE12E 
 209      01538A9B 
 209      D2C534B8 
 210 0139 9A924912 		.ascii	"\232\222I\022LM\202\347\222$\330\001)\350\006[`\252"
 210      4C4D82E7 
 210      9224D801 
 210      29E8065B 
 210      60AA
 211 014b 045B2109 		.ascii	"\004[!\011\266A\222\264\031\011\202?\267u=E\251\036"
 211      B64192B4 
 211      1909823F 
 211      B7753D45 
 211      A91E
 212 015d B68309CA 		.ascii	"\266\203\011\312\200p\017\024\311\030\004im\371\340"
ARM GAS  C:\Users\Thomas\AppData\Local\Temp\cc804ySL.s 			page 16


 212      80700F14 
 212      C9180469 
 212      6DF9E0
 213 016c A931C812 		.ascii	"\2511\310\022o\262\260e\335\352\246b\003.\315&=[.[R"
 213      6FB2B065 
 213      DDEAA662 
 213      032ECD26 
 213      3D5B2E5B 
 214 0181 49261621 		.ascii	"I&\026!\022\365\024\320q\012\316N$(G\002\011*`\"\376"
 214      12F514D0 
 214      710ACE4E 
 214      24284702 
 214      092A6022 
 215 0196 CED52B48 		.ascii	"\316\325+H%\255{\003F\362\"\337\343\001_y\216e=\365"
 215      25AD7B03 
 215      46F222DF 
 215      E3015F79 
 215      8E653DF5 
 216 01aa 55062B0E 		.ascii	"U\006+\016u\221\265\036\357b:\034\012\001\325\261\030"
 216      7591B51E 
 216      EF623A1C 
 216      0A01D5B1 
 216      18
 217 01bb A81C5122 		.ascii	"\250\034Q\"\261{%\201\273\300\362X\302\335\021\204'"
 217      B17B2581 
 217      BBC0F258 
 217      C2DD1184 
 217      27
 218 01cc 7A971601 		.ascii	"z\227\026\001\371\212\023\356\351\273F\343\220\321["
 218      F98A13EE 
 218      E9BB46E3 
 218      90D15B
 219 01db 49D752AF 		.ascii	"I\327R\257\216b[ \031\372\303\036\015\331\036\225\254"
 219      8E625B20 
 219      19FAC31E 
 219      0DD91E95 
 219      AC
 220 01ec 8A93790A 		.ascii	"\212\223y\012\033=z=\226\016\247\231\313w|;\324S\252"
 220      1B3D7A3D 
 220      960EA799 
 220      CB777C3B 
 220      D453AA
 221 01ff D32A9835 		.ascii	"\323*\2305A#`/\027P\015B\301u\367\005+)\001\256\240"
 221      4123602F 
 221      17500D42 
 221      C175F705 
 221      2B2901AE 
 222 0214 7AF78A36 		.ascii	"z\367\2126\340\012\374C\207\354\276%\364A(Dx\004\324"
 222      E00AFC43 
 222      87ECBE25 
 222      F4412844 
 222      7804D4
 223 0227 6824D4A8 		.ascii	"h$\324\250\022\366q\011\227\273\312k\023H\225\002\341"
 223      12F67109 
 223      97BBCA6B 
 223      13489502 
 223      E1
ARM GAS  C:\Users\Thomas\AppData\Local\Temp\cc804ySL.s 			page 17


 224 0238 2ED8D73D 		.ascii	".\330\327=F\201X\337' \012(\005\276q\250\325\240\324"
 224      468158DF 
 224      27200A28 
 224      05BE71A8 
 224      D5A0D4
 225 024b AA28751C 		.ascii	"\252(u\034\345D{\331j#iVP.\270\277\011$ \212\237V6\227"
 225      E5447BD9 
 225      6A236956 
 225      502EB8BF 
 225      0924208A 
 226 0263 ED85B574 		.ascii	"\355\205\265t\203\222|\005\245^\203R\257\2424p\224}"
 226      83927C05 
 226      A55E8352 
 226      AFA23470 
 226      947D
 227 0275 03FDDFC5 		.ascii	"\003\375\337\305\222\025J\225\236\016^\2540r\024o\177"
 227      92154A95 
 227      9E0E5EAC 
 227      3072146F 
 227      7F
 228 0286 E9D79626 		.ascii	"\351\327\226&\352\013\205^\343\010\3735\010\373U\204"
 228      EA0B855E 
 228      E308FB35 
 228      08FB5584 
 229 0296 031CA1F2 		.ascii	"\003\034\241\362\340\366eq\274\230>f\030w\012\203\313"
 229      E0F66571 
 229      BC983E66 
 229      18770A83 
 229      CB
 230 02a7 4CBC98CC 		.ascii	"L\274\230\314ly\262w\350\226\231\277\035\307\226\353"
 230      6C79B277 
 230      E89699BF 
 230      1DC796EB 
 231 02b7 FEEC1B24 		.ascii	"\376\354\033$\374\255\216-\177\272y\255!\216\224+\354"
 231      FCAD8E2D 
 231      7FBA79AD 
 231      218E942B 
 231      EC
 232 02c8 6A2B5894 		.ascii	"j+X\224VX\323?Te\344K\226S\354\205\373\027\313\313\014"
 232      5658D33F 
 232      5465E44B 
 232      9653EC85 
 232      FB17CBCB 
 233 02dd 9062528A 		.ascii	"\220bR\212\374\214R\344\307\360\020\017\205\213\334"
 233      FC8C52E4 
 233      C7F0100F 
 233      858BDC
 234 02ec 228A9CF7 		.ascii	"\"\212\234\367\013-\2401[\342%h\304\243\374\025\217"
 234      0B2DA031 
 234      5BE22568 
 234      C4A3FC15 
 234      8F
 235 02fd 128E62CB 		.ascii	"\022\216b\313XD\313\034\306\207G\360!\253\377\362\325"
 235      5844CB1C 
 235      C68747F0 
 235      21ABFFF2 
 235      D5
ARM GAS  C:\Users\Thomas\AppData\Local\Temp\cc804ySL.s 			page 18


 236 030e E56348B5 		.ascii	"\345cH\265\242\242\372\237\345\265cMn\026\374\370~C"
 236      A2A2FA9F 
 236      E5B5634D 
 236      6E16FCF8 
 236      7E43
 237 0320 FFCEC181 		.ascii	"\377\316\301\201\022\263y9\343\303\332\211k\212\207"
 237      12B37939 
 237      E3C3DA89 
 237      6B8A87
 238 032f E311E57B 		.ascii	"\343\021\345{\002\314\242\353\226_?Z\224@\352\305@\250"
 238      02CCA2EB 
 238      965F3F5A 
 238      9440EAC5 
 238      40A8
 239 0341 F7158C25 		.ascii	"\367\025\214%\215\312\302SX\0350\220s\312b\377\222\323"
 239      8DCAC253 
 239      581D3090 
 239      73CA62FF 
 239      92D3
 240 0353 9709F98B 		.ascii	"\227\011\371\213/\364\355\205\003\015c!919\305\213\014"
 240      2FF4ED85 
 240      030D6321 
 240      393139C5 
 240      8B0C
 241 0365 C1B3FD7B 		.ascii	"\301\263\375{\254\371\005\364\207I|\337-\270\357\337"
 241      ACF905F4 
 241      87497CDF 
 241      2DB8EFDF 
 242 0375 2131BCBF 		.ascii	"!1\274\277)\214\260\221\321J\337\361b\366\322iNI#\206"
 242      298CB091 
 242      D14ADFF1 
 242      62F6D269 
 242      4E492386 
 243 0389 79E306E0 		.ascii	"y\343\006\340\017\334\313iH\206\337 \231\247\213\201"
 243      0FDCCB69 
 243      4886DF20 
 243      99A78B81 
 244 0399 7B5BFA62 		.ascii	"{[\372b\212\323xW\234\022\300b\347\034\366y\206\312"
 244      8AD37857 
 244      9C12C062 
 244      E71CF679 
 244      86CA
 245 03ab 52EF6F2E 		.ascii	"R\357o.5P`\357%\265$\324\301\242k\252s\357\210\205\304"
 245      355060EF 
 245      25B524D4 
 245      C1A26BAA 
 245      73EF8885 
 246 03c0 9468ECD0 		.ascii	"\224h\354\320\206\244\243\011\340\300\035v#\264\242"
 246      86A4A309 
 246      E0C01D76 
 246      23B4A2
 247 03cf 4373F83C 		.ascii	"Cs\370<\031\213:\265<G~nN\210\3104s\016o\256}$\323;"
 247      198B3AB5 
 247      3C477E6E 
 247      4E88C834 
 247      730E6FAE 
 248 03e7 CF155D8B 		.ascii	"\317\025]\213'\253\010\317\347\346\242\037w\304\360"
ARM GAS  C:\Users\Thomas\AppData\Local\Temp\cc804ySL.s 			page 19


 248      27AB08CF 
 248      E7E6A21F 
 248      77C4F0
 249 03f6 9233E232 		.ascii	"\2223\3422\306\277\252\273\320\010\211\311\311\311B"
 249      C6BFAABB 
 249      D00889C9 
 249      C9C942
 250 0405 25A5D364 		.ascii	"%\245\323d\011\016\"\214\217\303t\010\211\335(\261\013"
 250      090E228C 
 250      8FC37408 
 250      89DD28B1 
 250      0B
 251 0416 259E45EB 		.ascii	"%\236E\353\324\344\311\177\376\310\037f\332\224\306"
 251      D4E4C97F 
 251      FEC81F66 
 251      DA94C6
 252 0425 F8E00C4A 		.ascii	"\370\340\014J\355\320\250\200?a$Y\334\271\273t\251\231"
 252      EDD0A880 
 252      3F612459 
 252      DCB9BB74 
 252      A999
 253 0437 6E49E3E7 		.ascii	"nI\343\347\325$\234#\317+\354{\256\364$\007\306\222"
 253      D5249C23 
 253      CF2BEC7B 
 253      AEF42407 
 253      C692
 254 0449 8193FF05 		.ascii	"\201\223\377\005\346\276;a\344\024\272\370)tD9\005\030"
 254      E6BE3B61 
 254      E414BAF8 
 254      29744439 
 254      0518
 255 045b EE68D862 		.ascii	"\356h\330b$%|\373\272\266\232\037\313\342 %\221\007"
 255      24257CFB 
 255      BAB69A1F 
 255      CBE22025 
 255      9107
 256 046d 5DC00C5F 		.ascii	"]\300\014_@\324s\341\014w\250\031\216\226\0158\217I"
 256      40D473E1 
 256      0C77A819 
 256      8E960D38 
 256      8F49
 257 047f 78544290 		.ascii	"xTB\220m\353\361\262\236\370D\214\316\177T\264\024-"
 257      6DEBF1B2 
 257      9EF8448C 
 257      CE7F54B4 
 257      142D
 258 0491 B4B77DE8 		.ascii	"\264\267}\350T\002\331\252\234\323\327\017k\226\031"
 258      5402D9AA 
 258      9CD3D70F 
 258      6B9619
 259 04a0 276FA09B 		.ascii	"'o\240\233\363\203\315\307\206s\277\247\236\315^\032"
 259      F383CDC7 
 259      8673BFA7 
 259      9ECD5E1A 
 260 04b0 0CBDF634 		.ascii	"\014\275\3664\370\021\242GQ\2549\247\036e\014A/L\306"
 260      F811A247 
 260      51AC39A7 
ARM GAS  C:\Users\Thomas\AppData\Local\Temp\cc804ySL.s 			page 20


 260      1E650C41 
 260      2F4CC6
 261 04c3 E890B7EA 		.ascii	"\350\220\267\352\216\221\324+P\303g+k\330\007\015k\231"
 261      8E91D42B 
 261      50C3672B 
 261      6BD8070D 
 261      6B99
 262 04d5 F3AC1B5E 		.ascii	"\363\254\033^\322mBh\337F\3744\255JX\203\003\216R6\332"
 262      D26D4268 
 262      DF46FC34 
 262      AD4A5883 
 262      038E5236 
 263 04ea 78B55F14 		.ascii	"x\265_\024\320J\265Kl\215\277\177\261\015\364q\354\233"
 263      D04AB54B 
 263      6C8DBF7F 
 263      B10DF471 
 263      EC9B
 264 04fc FB7FBB62 		.ascii	"\373\177\273b\212(<\177D\341]R\012\217\375E\357\342"
 264      8A283C7F 
 264      44E15D52 
 264      0A8FFD45 
 264      EFE2
 265 050e 9EE1EF09 		.ascii	"\236\341\357\011\363.x\344@\200\313\334{\315\372\340"
 265      F32E78E4 
 265      4080CBDC 
 265      7BCDFAE0 
 266 051e FDB808EC 		.ascii	"\375\270\010\354\310\257_@x\007\270w\320\275\262_\257"
 266      C8AF5F40 
 266      7807B877 
 266      D0BDB25F 
 266      AF
 267 052f 0CA7FF35 		.ascii	"\014\247\3775\334\340\012\2300lhC\317\245\310\316a3"
 267      DCE00A98 
 267      306C6843 
 267      CFA5C8CE 
 267      6133
 268 0541 3D4C7255 		.ascii	"=LrU\220\\e$\244\261\254\261\313\004I\246\244b\374g"
 268      905C6524 
 268      A4B1ACB1 
 268      CB0449A6 
 268      A462FC67 
 269 0555 65E86918 		.ascii	"e\350i\030\300,\272Yq\004\027SR\034/\215$\212\275\220"
 269      C02CBA59 
 269      71041753 
 269      521C2F8D 
 269      248ABD90 
 270 0569 E06F84E9 		.ascii	"\340o\204\351G\030\346\355\013\204B_\205\224kU,w`?("
 270      4718E6ED 
 270      0B84425F 
 270      85946B55 
 270      2C77603F 
 271 057e 61F7A6D2 		.ascii	"a\367\246\322\275\312Wb\032\377Jl\362\367\003o\312X"
 271      BDCA5762 
 271      1AFF4A6C 
 271      F2F7036F 
 271      CA58
 272 0590 B6F40F7B 		.ascii	"\266\364\017{h\202\311->\300L\240Y\233\204 '\232\222"
ARM GAS  C:\Users\Thomas\AppData\Local\Temp\cc804ySL.s 			page 21


 272      6882C92D 
 272      3EC04CA0 
 272      599B8420 
 272      279A92
 273 05a3 04D79599 		.ascii	"\004\327\225\231\373;m\251\320\215\367\210!cQ\216\361"
 273      FB3B6DA9 
 273      D08DF788 
 273      2163518E 
 273      F1
 274 05b4 1ABA2BDD 		.ascii	"\032\272+\335w\003\306\253A\234\253\265\365\004\220"
 274      7703C6AB 
 274      419CABB5 
 274      F50490
 275 05c3 665E1AA4 		.ascii	"f^\032\244\277\344|_,\016T6O)\316\323\213\037a\345\256"
 275      BFE47C5F 
 275      2C0E5436 
 275      4F29CED3 
 275      8B1F61E5 
 276 05d8 98C462E0 		.ascii	"\230\304b\340&\026\302 \236\254\212\244\351\317\221"
 276      2616C220 
 276      9EAC8AA4 
 276      E9CF91
 277 05e7 81F6B9A4 		.ascii	"\201\366\271\244!\032\024\235q\033S\177K;\311V\226\261"
 277      211A149D 
 277      711B537F 
 277      4B3BC956 
 277      96B1
 278 05f9 E61C8CD6 		.ascii	"\346\034\214\326\234%]-\335z\322\2524\347\335\316\366"
 278      9C255D2D 
 278      DD7AD2AA 
 278      34E7DDCE 
 278      F6
 279 060a 8D11F352 		.ascii	"\215\021\363R\003\017C\210:*C\361\002#\334\301\227\377"
 279      030F4388 
 279      3A2A43F1 
 279      0223DCC1 
 279      97FF
 280 061c 843B7950 		.ascii	"\204;yP3+\017?<\357\213\025M9:\2544\202\211!\015-\203"
 280      332B0F3F 
 280      3CEF8B15 
 280      4D393AAC 
 280      34828921 
 281 0633 7F434491 		.ascii	"\177CD\221\334\215\250\362{\242H\356\361J\314oh\332"
 281      DC8DA8F2 
 281      7BA248EE 
 281      F14ACC6F 
 281      68DA
 282 0645 00DA2338 		.ascii	"\000\332#8>\352\021\300}\030\037\265\010+\"\212\360"
 282      3EEA11C0 
 282      7D181FB5 
 282      082B228A 
 282      F0
 283 0656 81C0677F 		.ascii	"\201\300g\177c\362\0269\344W\0143\337\237cI\227&\247"
 283      63F21639 
 283      E4570C33 
 283      DF9F6349 
 283      9726A7
ARM GAS  C:\Users\Thomas\AppData\Local\Temp\cc804ySL.s 			page 22


 284 0669 CE9B6977 		.ascii	"\316\233iw\330\235V\331>?+#'\317i\263\317\233\225\221"
 284      D89D56D9 
 284      3E3F2B23 
 284      27CF69B3 
 284      CF9B9591 
 285 067d 93FED23C 		.ascii	"\223\376\322<\333\227\362\227\271vW\352Bi\362\234\214"
 285      DB97F297 
 285      B97657EA 
 285      4269F29C 
 285      8C
 286 068e E9735E9F 		.ascii	"\351s^\237\235\2315c\221+\327*\333\026\276\227\221\236"
 286      9D993563 
 286      912BD72A 
 286      DB16BE97 
 286      919E
 287 06a0 9E6D75B9 		.ascii	"\236mu\271f\177\356\222Ss\255N95\355\331Qq\324\340\317"
 287      667FEE92 
 287      5373AD4E 
 287      3935EDD9 
 287      5171D4E0 
 288 06b5 5CB6549B 		.ascii	"\\\266T\233\364\324\243\260&\252/\361aV\206]~7\317\221"
 288      F4D4A3B0 
 288      26AA2FF1 
 288      6156865D 
 288      7E37CF91 
 289 06c9 9E93E788 		.ascii	"\236\223\347\210|>3\312\363\267\035\213\344\364\034"
 289      7C3E33CA 
 289      F3B71D8B 
 289      E4F41C
 290 06d8 87ECCCC9 		.ascii	"\207\354\314\311\236m\267\316\177\274\230\334/d\334"
 290      9E6DB7CE 
 290      7FBC98DC 
 290      2F64DC
 291 06e7 D833DAF8 		.ascii	"\3303\332\370\367sfXe\253@\311tZ\035\256O\354N\003\313"
 291      F7736658 
 291      65AB40C9 
 291      745A1DAE 
 291      4FEC4E03 
 292 06fc D50B2FC7 		.ascii	"\325\013/\307\330\030]L.\363x23K\015\373\360\3157fg"
 292      D8185D4C 
 292      2EF37832 
 292      334B0DFB 
 292      F0CD3766 
 293 0711 6564BE9E 		.ascii	"ed\276\2369'#k\372\273\037\244\277cp\311V9\317e\310"
 293      3927236B 
 293      FABB1FA4 
 293      BF6370C9 
 293      5639CF65 
 294 0726 B63B16C8 		.ascii	"\266;\026\310\013G\317\255\000@\011\346\334\014\036"
 294      0B47CFAD 
 294      004009E6 
 294      DC0C1E
 295 0735 323D3BC7 		.ascii	"2=;\307\366\2519\014\2359\343\011\365\326\226\347t\332"
 295      F6A9390C 
 295      9D39E309 
 295      F5D696E7 
 295      74DA
ARM GAS  C:\Users\Thomas\AppData\Local\Temp\cc804ySL.s 			page 23


 296 0747 1D72E68C 		.ascii	"\035r\346\214q\352\223l\261\177\203\235+\032I\203=7"
 296      71EA936C 
 296      B17F839D 
 296      2B1A4983 
 296      3D37
 297 0759 2D6B3E3E 		.ascii	"-k>>\310r\311\316<\233\374/\031\3258\366"
 297      C872C9CE 
 297      3C9BFC2F 
 297      19D538F6 
 298              		.text
 299              		.section	.gnu.lto_.symtab.c0d6935a,"",%progbits
 300 0000 55534255 		.ascii	"USBUART_DispatchMSCClassRqst\000\000\000\000\000\000"
 300      4152545F 
 300      44697370 
 300      61746368 
 300      4D534343 
 301 0022 00000000 		.ascii	"\000\000\000\000\000\000\264\000\000\000USBUART_MSC"
 301      0000B400 
 301      00005553 
 301      42554152 
 301      545F4D53 
 302 0037 5F536574 		.ascii	"_SetLunCount\000\000\000\000\000\000\000\000\000\000"
 302      4C756E43 
 302      6F756E74 
 302      00000000 
 302      00000000 
 303 004d 0000B800 		.ascii	"\000\000\270\000\000\000USBUART_MSC_GetLunCount\000"
 303      00005553 
 303      42554152 
 303      545F4D53 
 303      435F4765 
 304 006b 00000000 		.ascii	"\000\000\000\000\000\000\000\000\000\000\000\272\000"
 304      00000000 
 304      000000BA 
 304      00
 305 0078 00005553 		.ascii	"\000\000USBUART_currentTD\000\000\002\000\000\000\000"
 305      42554152 
 305      545F6375 
 305      7272656E 
 305      74544400 
 306 0092 00000000 		.ascii	"\000\000\000\000\000\342\000\000\000USBUART_InitCon"
 306      00E20000 
 306      00555342 
 306      55415254 
 306      5F496E69 
 307 00aa 74726F6C 		.ascii	"trolRead\000\000\002\000\000\000\000\000\000\000\000"
 307      52656164 
 307      00000200 
 307      00000000 
 307      000000
 308 00bd 00BC0000 		.ascii	"\000\274\000\000\000USBUART_InitNoDataControlTransf"
 308      00555342 
 308      55415254 
 308      5F496E69 
 308      744E6F44 
 309 00e1 65720000 		.ascii	"er\000\000\002\000\000\000\000\000\000\000\000\000\276"
 309      02000000 
ARM GAS  C:\Users\Thomas\AppData\Local\Temp\cc804ySL.s 			page 24


 309      00000000 
 309      0000BE
 310 00f0 000000   		.ascii	"\000\000\000"
 311              		.text
 312              		.section	.gnu.lto_.opts,"",%progbits
 313 0000 272D666E 		.ascii	"'-fno-trapv' '-mcpu=cortex-m3' '-mthumb' '-g' '-O3'"
 313      6F2D7472 
 313      61707627 
 313      20272D6D 
 313      6370753D 
 314 0033 20272D66 		.ascii	" '-ffunction-sections' '-finline-functions' '-flto'"
 314      66756E63 
 314      74696F6E 
 314      2D736563 
 314      74696F6E 
 315 0066 20272D66 		.ascii	" '-ffat-lto-objects'\000"
 315      6661742D 
 315      6C746F2D 
 315      6F626A65 
 315      63747327 
 316              		.text
 317              		.cfi_sections	.debug_frame
 318              		.section	.text.USBUART_DispatchMSCClassRqst,"ax",%progbits
 319              		.align	2
 320              		.global	USBUART_DispatchMSCClassRqst
 321              		.thumb
 322              		.thumb_func
 323              		.type	USBUART_DispatchMSCClassRqst, %function
 324              	USBUART_DispatchMSCClassRqst:
 325              	.LFB0:
 326              		.file 1 ".\\Generated_Source\\PSoC5\\USBUART_msc.c"
   1:.\Generated_Source\PSoC5/USBUART_msc.c **** /***************************************************************************//**
   2:.\Generated_Source\PSoC5/USBUART_msc.c **** * \file USBUART_cdc.c
   3:.\Generated_Source\PSoC5/USBUART_msc.c **** * \version 3.0
   4:.\Generated_Source\PSoC5/USBUART_msc.c **** *
   5:.\Generated_Source\PSoC5/USBUART_msc.c **** * \brief
   6:.\Generated_Source\PSoC5/USBUART_msc.c **** *  This file contains the USB MSC Class request handler and global API for MSC 
   7:.\Generated_Source\PSoC5/USBUART_msc.c **** *  class.
   8:.\Generated_Source\PSoC5/USBUART_msc.c **** *
   9:.\Generated_Source\PSoC5/USBUART_msc.c **** * Related Document:
  10:.\Generated_Source\PSoC5/USBUART_msc.c **** *  Universal Serial Bus Class Definitions for Communication Devices Version 1.1
  11:.\Generated_Source\PSoC5/USBUART_msc.c **** *
  12:.\Generated_Source\PSoC5/USBUART_msc.c **** ********************************************************************************
  13:.\Generated_Source\PSoC5/USBUART_msc.c **** * \copyright
  14:.\Generated_Source\PSoC5/USBUART_msc.c **** * Copyright 2012-2015, Cypress Semiconductor Corporation.  All rights reserved.
  15:.\Generated_Source\PSoC5/USBUART_msc.c **** * You may use this file only in accordance with the license, terms, conditions,
  16:.\Generated_Source\PSoC5/USBUART_msc.c **** * disclaimers, and limitations in the end user license agreement accompanying
  17:.\Generated_Source\PSoC5/USBUART_msc.c **** * the software package with which this file was provided.
  18:.\Generated_Source\PSoC5/USBUART_msc.c **** *******************************************************************************/
  19:.\Generated_Source\PSoC5/USBUART_msc.c **** 
  20:.\Generated_Source\PSoC5/USBUART_msc.c **** #include "USBUART_msc.h"
  21:.\Generated_Source\PSoC5/USBUART_msc.c **** #include "USBUART_pvt.h"
  22:.\Generated_Source\PSoC5/USBUART_msc.c **** #include "cyapicallbacks.h"
  23:.\Generated_Source\PSoC5/USBUART_msc.c **** 
  24:.\Generated_Source\PSoC5/USBUART_msc.c **** #if (USBUART_HANDLE_MSC_REQUESTS)
  25:.\Generated_Source\PSoC5/USBUART_msc.c **** 
  26:.\Generated_Source\PSoC5/USBUART_msc.c **** /***************************************
ARM GAS  C:\Users\Thomas\AppData\Local\Temp\cc804ySL.s 			page 25


  27:.\Generated_Source\PSoC5/USBUART_msc.c **** *          Internal variables
  28:.\Generated_Source\PSoC5/USBUART_msc.c **** ***************************************/
  29:.\Generated_Source\PSoC5/USBUART_msc.c **** 
  30:.\Generated_Source\PSoC5/USBUART_msc.c **** static uint8 USBUART_lunCount = USBUART_MSC_LUN_NUMBER;
  31:.\Generated_Source\PSoC5/USBUART_msc.c **** 
  32:.\Generated_Source\PSoC5/USBUART_msc.c **** 
  33:.\Generated_Source\PSoC5/USBUART_msc.c **** /*******************************************************************************
  34:.\Generated_Source\PSoC5/USBUART_msc.c **** * Function Name: USBUART_DispatchMSCClassRqst
  35:.\Generated_Source\PSoC5/USBUART_msc.c **** ****************************************************************************//**
  36:.\Generated_Source\PSoC5/USBUART_msc.c **** *   
  37:.\Generated_Source\PSoC5/USBUART_msc.c **** *  \internal 
  38:.\Generated_Source\PSoC5/USBUART_msc.c **** *  This routine dispatches MSC class requests.
  39:.\Generated_Source\PSoC5/USBUART_msc.c **** *
  40:.\Generated_Source\PSoC5/USBUART_msc.c **** * \return
  41:.\Generated_Source\PSoC5/USBUART_msc.c **** *  Status of request processing: handled or not handled.
  42:.\Generated_Source\PSoC5/USBUART_msc.c **** *
  43:.\Generated_Source\PSoC5/USBUART_msc.c **** * \globalvars
  44:.\Generated_Source\PSoC5/USBUART_msc.c **** *  USBUART_lunCount - stores number of LUN (logical units).
  45:.\Generated_Source\PSoC5/USBUART_msc.c **** *
  46:.\Generated_Source\PSoC5/USBUART_msc.c **** * \reentrant
  47:.\Generated_Source\PSoC5/USBUART_msc.c **** *  No.
  48:.\Generated_Source\PSoC5/USBUART_msc.c **** *
  49:.\Generated_Source\PSoC5/USBUART_msc.c **** *******************************************************************************/
  50:.\Generated_Source\PSoC5/USBUART_msc.c **** uint8 USBUART_DispatchMSCClassRqst(void) 
  51:.\Generated_Source\PSoC5/USBUART_msc.c **** {
 327              		.loc 1 51 0
 328              		.cfi_startproc
 329              		@ args = 0, pretend = 0, frame = 0
 330              		@ frame_needed = 0, uses_anonymous_args = 0
 331              		@ link register save eliminated.
 332              	.LVL0:
 333 0000 30B4     		push	{r4, r5}
 334              		.cfi_def_cfa_offset 8
 335              		.cfi_offset 4, -8
 336              		.cfi_offset 5, -4
  52:.\Generated_Source\PSoC5/USBUART_msc.c ****     uint8 requestHandled = USBUART_FALSE;
  53:.\Generated_Source\PSoC5/USBUART_msc.c ****     
  54:.\Generated_Source\PSoC5/USBUART_msc.c ****     /* Get request data. */
  55:.\Generated_Source\PSoC5/USBUART_msc.c ****     uint16 value  = USBUART_GET_UINT16(USBUART_wValueHiReg,  USBUART_wValueLoReg);
 337              		.loc 1 55 0
 338 0002 144B     		ldr	r3, .L14
 339 0004 DD78     		ldrb	r5, [r3, #3]	@ zero_extendqisi2
 340 0006 9A78     		ldrb	r2, [r3, #2]	@ zero_extendqisi2
  56:.\Generated_Source\PSoC5/USBUART_msc.c ****     uint16 dataLength = USBUART_GET_UINT16(USBUART_wLengthHiReg, USBUART_wLengthLoReg);
 341              		.loc 1 56 0
 342 0008 DC79     		ldrb	r4, [r3, #7]	@ zero_extendqisi2
 343 000a 9979     		ldrb	r1, [r3, #6]	@ zero_extendqisi2
  57:.\Generated_Source\PSoC5/USBUART_msc.c ****        
  58:.\Generated_Source\PSoC5/USBUART_msc.c ****     /* Check request direction: D2H or H2D. */
  59:.\Generated_Source\PSoC5/USBUART_msc.c ****     if (0u != (USBUART_bmRequestTypeReg & USBUART_RQST_DIR_D2H))
 344              		.loc 1 59 0
 345 000c 1878     		ldrb	r0, [r3]	@ zero_extendqisi2
  55:.\Generated_Source\PSoC5/USBUART_msc.c ****     uint16 dataLength = USBUART_GET_UINT16(USBUART_wLengthHiReg, USBUART_wLengthLoReg);
 346              		.loc 1 55 0
 347 000e 42EA0522 		orr	r2, r2, r5, lsl #8
 348              	.LVL1:
 349              		.loc 1 59 0
ARM GAS  C:\Users\Thomas\AppData\Local\Temp\cc804ySL.s 			page 26


 350 0012 0006     		lsls	r0, r0, #24
  56:.\Generated_Source\PSoC5/USBUART_msc.c ****     uint16 dataLength = USBUART_GET_UINT16(USBUART_wLengthHiReg, USBUART_wLengthLoReg);
 351              		.loc 1 56 0
 352 0014 41EA0421 		orr	r1, r1, r4, lsl #8
 353              	.LVL2:
  60:.\Generated_Source\PSoC5/USBUART_msc.c ****     {
  61:.\Generated_Source\PSoC5/USBUART_msc.c ****         /* Handle direction from device to host. */
  62:.\Generated_Source\PSoC5/USBUART_msc.c ****         
  63:.\Generated_Source\PSoC5/USBUART_msc.c ****         if (USBUART_MSC_GET_MAX_LUN == USBUART_bRequestReg)
 354              		.loc 1 63 0
 355 0018 5B78     		ldrb	r3, [r3, #1]	@ zero_extendqisi2
  59:.\Generated_Source\PSoC5/USBUART_msc.c ****     {
 356              		.loc 1 59 0
 357 001a 0DD4     		bmi	.L12
  64:.\Generated_Source\PSoC5/USBUART_msc.c ****         {
  65:.\Generated_Source\PSoC5/USBUART_msc.c ****             /* Check request fields. */
  66:.\Generated_Source\PSoC5/USBUART_msc.c ****             if ((value  == USBUART_MSC_GET_MAX_LUN_WVALUE) &&
  67:.\Generated_Source\PSoC5/USBUART_msc.c ****                 (dataLength == USBUART_MSC_GET_MAX_LUN_WLENGTH))
  68:.\Generated_Source\PSoC5/USBUART_msc.c ****             {
  69:.\Generated_Source\PSoC5/USBUART_msc.c ****                 /* Reply to Get Max LUN request: setup control read. */
  70:.\Generated_Source\PSoC5/USBUART_msc.c ****                 USBUART_currentTD.pData = &USBUART_lunCount;
  71:.\Generated_Source\PSoC5/USBUART_msc.c ****                 USBUART_currentTD.count =  USBUART_MSC_GET_MAX_LUN_WLENGTH;
  72:.\Generated_Source\PSoC5/USBUART_msc.c ****                 
  73:.\Generated_Source\PSoC5/USBUART_msc.c ****                 requestHandled  = USBUART_InitControlRead();
  74:.\Generated_Source\PSoC5/USBUART_msc.c ****             }
  75:.\Generated_Source\PSoC5/USBUART_msc.c ****         }
  76:.\Generated_Source\PSoC5/USBUART_msc.c ****     }
  77:.\Generated_Source\PSoC5/USBUART_msc.c ****     else
  78:.\Generated_Source\PSoC5/USBUART_msc.c ****     {
  79:.\Generated_Source\PSoC5/USBUART_msc.c ****         /* Handle direction from host to device. */
  80:.\Generated_Source\PSoC5/USBUART_msc.c ****         
  81:.\Generated_Source\PSoC5/USBUART_msc.c ****         if (USBUART_MSC_RESET == USBUART_bRequestReg)
 358              		.loc 1 81 0
 359 001c FF2B     		cmp	r3, #255
 360 001e 02D0     		beq	.L13
 361              	.L3:
 362              	.LVL3:
  82:.\Generated_Source\PSoC5/USBUART_msc.c ****         {
  83:.\Generated_Source\PSoC5/USBUART_msc.c ****             /* Check request fields. */
  84:.\Generated_Source\PSoC5/USBUART_msc.c ****             if ((value  == USBUART_MSC_RESET_WVALUE) &&
  85:.\Generated_Source\PSoC5/USBUART_msc.c ****                 (dataLength == USBUART_MSC_RESET_WLENGTH))
  86:.\Generated_Source\PSoC5/USBUART_msc.c ****             {
  87:.\Generated_Source\PSoC5/USBUART_msc.c ****                 /* Handle to Bulk-Only Reset request: no data control transfer. */
  88:.\Generated_Source\PSoC5/USBUART_msc.c ****                 USBUART_currentTD.count = USBUART_MSC_RESET_WLENGTH;
  89:.\Generated_Source\PSoC5/USBUART_msc.c ****                 
  90:.\Generated_Source\PSoC5/USBUART_msc.c ****             #ifdef USBUART_DISPATCH_MSC_CLASS_MSC_RESET_RQST_CALLBACK
  91:.\Generated_Source\PSoC5/USBUART_msc.c ****                 USBUART_DispatchMSCClass_MSC_RESET_RQST_Callback();
  92:.\Generated_Source\PSoC5/USBUART_msc.c ****             #endif /* (USBUART_DISPATCH_MSC_CLASS_MSC_RESET_RQST_CALLBACK) */
  93:.\Generated_Source\PSoC5/USBUART_msc.c ****                 
  94:.\Generated_Source\PSoC5/USBUART_msc.c ****                 requestHandled = USBUART_InitNoDataControlTransfer();
  95:.\Generated_Source\PSoC5/USBUART_msc.c ****             }
  96:.\Generated_Source\PSoC5/USBUART_msc.c ****         }
  97:.\Generated_Source\PSoC5/USBUART_msc.c ****     }
  98:.\Generated_Source\PSoC5/USBUART_msc.c ****     
  99:.\Generated_Source\PSoC5/USBUART_msc.c ****     return (requestHandled);
 100:.\Generated_Source\PSoC5/USBUART_msc.c **** }
 363              		.loc 1 100 0
ARM GAS  C:\Users\Thomas\AppData\Local\Temp\cc804ySL.s 			page 27


 364 0020 30BC     		pop	{r4, r5}
 365              		.cfi_remember_state
 366              		.cfi_restore 5
 367              		.cfi_restore 4
 368              		.cfi_def_cfa_offset 0
 369 0022 0020     		movs	r0, #0
 370 0024 7047     		bx	lr
 371              	.LVL4:
 372              	.L13:
 373              		.cfi_restore_state
  84:.\Generated_Source\PSoC5/USBUART_msc.c ****                 (dataLength == USBUART_MSC_RESET_WLENGTH))
 374              		.loc 1 84 0
 375 0026 002A     		cmp	r2, #0
 376 0028 FAD1     		bne	.L3
  84:.\Generated_Source\PSoC5/USBUART_msc.c ****                 (dataLength == USBUART_MSC_RESET_WLENGTH))
 377              		.loc 1 84 0 is_stmt 0 discriminator 1
 378 002a 0029     		cmp	r1, #0
 379 002c F8D1     		bne	.L3
 380              		.loc 1 100 0 is_stmt 1
 381 002e 30BC     		pop	{r4, r5}
 382              		.cfi_remember_state
 383              		.cfi_restore 5
 384              		.cfi_restore 4
 385              		.cfi_def_cfa_offset 0
  88:.\Generated_Source\PSoC5/USBUART_msc.c ****                 
 386              		.loc 1 88 0
 387 0030 094B     		ldr	r3, .L14+4
 388 0032 1980     		strh	r1, [r3]	@ movhi
  94:.\Generated_Source\PSoC5/USBUART_msc.c ****             }
 389              		.loc 1 94 0
 390 0034 FFF7FEBF 		b	USBUART_InitNoDataControlTransfer
 391              	.LVL5:
 392              	.L12:
 393              		.cfi_restore_state
  63:.\Generated_Source\PSoC5/USBUART_msc.c ****         {
 394              		.loc 1 63 0
 395 0038 FE2B     		cmp	r3, #254
 396 003a F1D1     		bne	.L3
  66:.\Generated_Source\PSoC5/USBUART_msc.c ****                 (dataLength == USBUART_MSC_GET_MAX_LUN_WLENGTH))
 397              		.loc 1 66 0
 398 003c 002A     		cmp	r2, #0
 399 003e EFD1     		bne	.L3
  66:.\Generated_Source\PSoC5/USBUART_msc.c ****                 (dataLength == USBUART_MSC_GET_MAX_LUN_WLENGTH))
 400              		.loc 1 66 0 is_stmt 0 discriminator 1
 401 0040 0129     		cmp	r1, #1
 402 0042 EDD1     		bne	.L3
 403              		.loc 1 100 0 is_stmt 1
 404 0044 30BC     		pop	{r4, r5}
 405              		.cfi_restore 5
 406              		.cfi_restore 4
 407              		.cfi_def_cfa_offset 0
 408              	.LBB4:
 409              	.LBB5:
  70:.\Generated_Source\PSoC5/USBUART_msc.c ****                 USBUART_currentTD.count =  USBUART_MSC_GET_MAX_LUN_WLENGTH;
 410              		.loc 1 70 0
 411 0046 044B     		ldr	r3, .L14+4
 412 0048 044A     		ldr	r2, .L14+8
ARM GAS  C:\Users\Thomas\AppData\Local\Temp\cc804ySL.s 			page 28


 413              	.LVL6:
 414 004a 5A60     		str	r2, [r3, #4]
  71:.\Generated_Source\PSoC5/USBUART_msc.c ****                 
 415              		.loc 1 71 0
 416 004c 1980     		strh	r1, [r3]	@ movhi
  73:.\Generated_Source\PSoC5/USBUART_msc.c ****             }
 417              		.loc 1 73 0
 418 004e FFF7FEBF 		b	USBUART_InitControlRead
 419              	.LVL7:
 420              	.L15:
 421 0052 00BF     		.align	2
 422              	.L14:
 423 0054 00600040 		.word	1073766400
 424 0058 00000000 		.word	USBUART_currentTD
 425 005c 00000000 		.word	.LANCHOR0
 426              	.LBE5:
 427              	.LBE4:
 428              		.cfi_endproc
 429              	.LFE0:
 430              		.size	USBUART_DispatchMSCClassRqst, .-USBUART_DispatchMSCClassRqst
 431              		.section	.text.USBUART_MSC_SetLunCount,"ax",%progbits
 432              		.align	2
 433              		.global	USBUART_MSC_SetLunCount
 434              		.thumb
 435              		.thumb_func
 436              		.type	USBUART_MSC_SetLunCount, %function
 437              	USBUART_MSC_SetLunCount:
 438              	.LFB1:
 101:.\Generated_Source\PSoC5/USBUART_msc.c **** 
 102:.\Generated_Source\PSoC5/USBUART_msc.c **** 
 103:.\Generated_Source\PSoC5/USBUART_msc.c **** /*******************************************************************************
 104:.\Generated_Source\PSoC5/USBUART_msc.c **** * Function Name: USBUART_MSC_SetLunCount
 105:.\Generated_Source\PSoC5/USBUART_msc.c **** ****************************************************************************//**
 106:.\Generated_Source\PSoC5/USBUART_msc.c **** *
 107:.\Generated_Source\PSoC5/USBUART_msc.c **** *  This function sets the number of logical units supported in the application. 
 108:.\Generated_Source\PSoC5/USBUART_msc.c **** *  The default number of logical units is set in the component customizer.
 109:.\Generated_Source\PSoC5/USBUART_msc.c **** *
 110:.\Generated_Source\PSoC5/USBUART_msc.c **** *  \param lunCount: Count of the logical units. Valid range is between 1 and 16.
 111:.\Generated_Source\PSoC5/USBUART_msc.c **** *
 112:.\Generated_Source\PSoC5/USBUART_msc.c **** *
 113:.\Generated_Source\PSoC5/USBUART_msc.c **** * \globalvars
 114:.\Generated_Source\PSoC5/USBUART_msc.c **** *  USBUART_lunCount - stores number of LUN (logical units).
 115:.\Generated_Source\PSoC5/USBUART_msc.c **** *
 116:.\Generated_Source\PSoC5/USBUART_msc.c **** * \reentrant
 117:.\Generated_Source\PSoC5/USBUART_msc.c **** *  No.
 118:.\Generated_Source\PSoC5/USBUART_msc.c **** *
 119:.\Generated_Source\PSoC5/USBUART_msc.c **** *******************************************************************************/
 120:.\Generated_Source\PSoC5/USBUART_msc.c **** void USBUART_MSC_SetLunCount(uint8 lunCount) 
 121:.\Generated_Source\PSoC5/USBUART_msc.c **** {
 439              		.loc 1 121 0
 440              		.cfi_startproc
 441              		@ args = 0, pretend = 0, frame = 0
 442              		@ frame_needed = 0, uses_anonymous_args = 0
 443              		@ link register save eliminated.
 444              	.LVL8:
 122:.\Generated_Source\PSoC5/USBUART_msc.c ****     USBUART_lunCount = (lunCount - 1u);
 445              		.loc 1 122 0
ARM GAS  C:\Users\Thomas\AppData\Local\Temp\cc804ySL.s 			page 29


 446 0000 014B     		ldr	r3, .L17
 447 0002 0138     		subs	r0, r0, #1
 448              	.LVL9:
 449 0004 1870     		strb	r0, [r3]
 450 0006 7047     		bx	lr
 451              	.L18:
 452              		.align	2
 453              	.L17:
 454 0008 00000000 		.word	.LANCHOR0
 455              		.cfi_endproc
 456              	.LFE1:
 457              		.size	USBUART_MSC_SetLunCount, .-USBUART_MSC_SetLunCount
 458              		.section	.text.USBUART_MSC_GetLunCount,"ax",%progbits
 459              		.align	2
 460              		.global	USBUART_MSC_GetLunCount
 461              		.thumb
 462              		.thumb_func
 463              		.type	USBUART_MSC_GetLunCount, %function
 464              	USBUART_MSC_GetLunCount:
 465              	.LFB2:
 123:.\Generated_Source\PSoC5/USBUART_msc.c **** }
 124:.\Generated_Source\PSoC5/USBUART_msc.c **** 
 125:.\Generated_Source\PSoC5/USBUART_msc.c **** 
 126:.\Generated_Source\PSoC5/USBUART_msc.c **** /*******************************************************************************
 127:.\Generated_Source\PSoC5/USBUART_msc.c **** * Function Name: USBUART_MSC_GetLunCount
 128:.\Generated_Source\PSoC5/USBUART_msc.c **** ****************************************************************************//**
 129:.\Generated_Source\PSoC5/USBUART_msc.c **** *
 130:.\Generated_Source\PSoC5/USBUART_msc.c **** *  This function returns the number of logical units.
 131:.\Generated_Source\PSoC5/USBUART_msc.c **** *
 132:.\Generated_Source\PSoC5/USBUART_msc.c **** * \return
 133:.\Generated_Source\PSoC5/USBUART_msc.c **** *   Number of the logical units.
 134:.\Generated_Source\PSoC5/USBUART_msc.c **** *
 135:.\Generated_Source\PSoC5/USBUART_msc.c **** * \globalvars
 136:.\Generated_Source\PSoC5/USBUART_msc.c **** *  USBUART_lunCount - stores number of LUN (logical units).
 137:.\Generated_Source\PSoC5/USBUART_msc.c **** *
 138:.\Generated_Source\PSoC5/USBUART_msc.c **** * \reentrant
 139:.\Generated_Source\PSoC5/USBUART_msc.c **** *  No.
 140:.\Generated_Source\PSoC5/USBUART_msc.c **** *
 141:.\Generated_Source\PSoC5/USBUART_msc.c **** *******************************************************************************/
 142:.\Generated_Source\PSoC5/USBUART_msc.c **** uint8 USBUART_MSC_GetLunCount(void) 
 143:.\Generated_Source\PSoC5/USBUART_msc.c **** {
 466              		.loc 1 143 0
 467              		.cfi_startproc
 468              		@ args = 0, pretend = 0, frame = 0
 469              		@ frame_needed = 0, uses_anonymous_args = 0
 470              		@ link register save eliminated.
 144:.\Generated_Source\PSoC5/USBUART_msc.c ****     return (USBUART_lunCount + 1u);
 471              		.loc 1 144 0
 472 0000 024B     		ldr	r3, .L20
 473 0002 1878     		ldrb	r0, [r3]	@ zero_extendqisi2
 474 0004 0130     		adds	r0, r0, #1
 145:.\Generated_Source\PSoC5/USBUART_msc.c **** }   
 475              		.loc 1 145 0
 476 0006 C0B2     		uxtb	r0, r0
 477 0008 7047     		bx	lr
 478              	.L21:
 479 000a 00BF     		.align	2
ARM GAS  C:\Users\Thomas\AppData\Local\Temp\cc804ySL.s 			page 30


 480              	.L20:
 481 000c 00000000 		.word	.LANCHOR0
 482              		.cfi_endproc
 483              	.LFE2:
 484              		.size	USBUART_MSC_GetLunCount, .-USBUART_MSC_GetLunCount
 485              		.bss
 486              		.set	.LANCHOR0,. + 0
 487              		.type	USBUART_lunCount, %object
 488              		.size	USBUART_lunCount, 1
 489              	USBUART_lunCount:
 490 0000 00       		.space	1
 491              		.text
 492              	.Letext0:
 493              		.file 2 ".\\Generated_Source\\PSoC5\\cytypes.h"
 494              		.file 3 ".\\Generated_Source\\PSoC5\\USBUART.h"
 495              		.file 4 ".\\Generated_Source\\PSoC5\\USBUART_pvt.h"