ARM GAS  C:\Users\Thomas\AppData\Local\Temp\cc5uZfby.s 			page 1


   1              		.syntax unified
   2              		.cpu cortex-m3
   3              		.fpu softvfp
   4              		.eabi_attribute 20, 1
   5              		.eabi_attribute 21, 1
   6              		.eabi_attribute 23, 3
   7              		.eabi_attribute 24, 1
   8              		.eabi_attribute 25, 1
   9              		.eabi_attribute 26, 1
  10              		.eabi_attribute 30, 2
  11              		.eabi_attribute 34, 1
  12              		.eabi_attribute 18, 4
  13              		.thumb
  14              		.file	"USBUART_Dp.c"
  15              		.text
  16              	.Ltext0:
  17              		.section	.gnu.lto_.profile.be9c75b6,"",%progbits
  18 0000 789C6366 		.ascii	"x\234cf```a\200\000F\006\0259\000\000\332\000K"
  18      60606061 
  18      80004606 
  18      15390000 
  18      DA004B
  19              		.text
  20              		.section	.gnu.lto_.jmpfuncs.be9c75b6,"",%progbits
  21 0000 789C6366 		.ascii	"x\234cf\300\016d\2404\033\003##c=#\210`b``f``abdd\256"
  21      C00E64A0 
  21      341B0323 
  21      23633D23 
  21      88606260 
  22 001d AF6705CA 		.ascii	"\257g\005\312\001\000 \267\002>"
  22      010020B7 
  22      023E
  23              		.text
  24              		.section	.gnu.lto_.inline.be9c75b6,"",%progbits
  25 0000 789C6366 		.ascii	"x\234cf\300\016&Ci6\006\006N\016FF\006F\006\006f\216"
  25      C00E2643 
  25      69360606 
  25      4E0E4646 
  25      06460606 
  26 0016 03760C6C 		.ascii	"\003v\014l\013\344\231\030X\026\310\263\200$\031\031"
  26      0BE49918 
  26      5816C8B3 
  26      80241919 
  27 0026 38D8D1E5 		.ascii	"8\330\321\345\230.\360\203\345\230\030\330X\031\031"
  27      982EF083 
  27      E59818D8 
  27      581919
  28 0035 98D83EE8 		.ascii	"\230\330>\350A\304\201\200\031S\210\205\201\235\215"
  28      41C48180 
  28      19538885 
  28      819D8D
  29 0044 91096402 		.ascii	"\221\011d\002#\310\024\246#\234\020)\240\032\260)\254"
  29      23C814A6 
  29      239C1029 
  29      A01AB029 
  29      AC
  30 0055 985A1800 		.ascii	"\230Z\030\000_\036\016\335"
ARM GAS  C:\Users\Thomas\AppData\Local\Temp\cc5uZfby.s 			page 2


  30      5F1E0EDD 
  31              		.text
  32              		.section	.gnu.lto_.pureconst.be9c75b6,"",%progbits
  33 0000 789C6366 		.ascii	"x\234cf``\340e\200\0006\006)F)&)f)\026)V)\000\005\261"
  33      6060E065 
  33      80003606 
  33      29462926 
  33      29662916 
  34 001a 00C2     		.ascii	"\000\302"
  35              		.text
  36              		.section	.gnu.lto_USBUART_Dp_Write.be9c75b6,"",%progbits
  37 0000 789C6591 		.ascii	"x\234e\221MHTQ\024\307\317\377\336\367f4E\244\345l\305"
  37      4D485451 
  37      14C7CFFF 
  37      DEF76634 
  37      45A4E56C 
  38 0015 4C085DB9 		.ascii	"L\010]\271hg\026\264\025Gw\0032Lo!\204\206\216n\275"
  38      686716B4 
  38      15477703 
  38      324C6F21 
  38      84868E6E 
  39 002a AF46C120 		.ascii	"\257F\301 \220!(\010\277P\261\232RS\262\331XOq\027)"
  39      90212808 
  39      BF50B19A 
  39      5253B2D9 
  39      584F7117 
  40 003f BA5014B3 		.ascii	"\272P\024\263\202)r\247(\371E\216\347\336\273I\272p"
  40      822972A7 
  40      28F9458E 
  40      E7DEBB49 
  40      BA70
  41 0051 BF0EBFFF 		.ascii	"\277\016\277\377\271\377s\256\244\377G\204\347uAt\223"
  41      B9FF73AE 
  41      A4FF4784 
  41      E7754174 
  41      93
  42 0062 774882E8 		.ascii	"wH\202\350_&\362\013\004\240\017\004\352\026\350\306"
  42      5F26F20B 
  42      04A00F04 
  42      EA16E8C6 
  43 0072 AED817E8 		.ascii	"\256\330\027\350\0172\317\213*\306\225R{\351\025\277"
  43      0F32CF8B 
  43      2AC69552 
  43      7BE915BF 
  44 0082 3EC009EB 		.ascii	">\300\011\353\016\204\315\203\011T0s\220QO\245\254\004"
  44      0E84CD83 
  44      09543073 
  44      90514FA5 
  44      AC04
  45 0094 F1797AF5 		.ascii	"\361yz\365\313y\270|T\251\207\301\374\244\252e\034x"
  45      CB79B87C 
  45      54A987C1 
  45      FCA4AA65 
  45      1C78
  46 00a6 09C90ADC 		.ascii	"\011\311\012\334\210\2402B\034 \274B\271\206g\236,\315"
  46      88A03242 
  46      1C20BC42 
ARM GAS  C:\Users\Thomas\AppData\Local\Temp\cc5uZfby.s 			page 3


  46      B986679E 
  46      2CCD
  47 00b8 09596D84 		.ascii	"\011Ym\204#\237\177,\025\227\215\260\360\373\331\\,"
  47      239F7F2C 
  47      15978DB0 
  47      F0FBD95C 
  47      2C
  48 00c9 F087D579 		.ascii	"\360\207\325y>o\344\257\377\225\333\301\374~\352\357"
  48      3E6FE4AF 
  48      FF95DBC1 
  48      FC7EEAEF 
  49 00d9 465128C5 		.ascii	"FQ(\305\306J\221A\231\365\2047\010\2017\035\231\272"
  49      C64A9141 
  49      99F58437 
  49      0881371D 
  49      99BA
  50 00eb 1AA87C7E 		.ascii	"\032\250|~v~\341\024\205\202\237\025\\(\207\035\350"
  50      767EE114 
  50      85829F15 
  50      5C28871D 
  50      E8
  51 00fc D75D1D08 		.ascii	"\327]\035\010\351%\254\027\242\034O]\374O\276\360.\267"
  51      E925AC17 
  51      A21C4F5D 
  51      FC4FBEF0 
  51      2EB7
  52 010e B0F8E7F1 		.ascii	"\260\370\347\361\316\263\260\316x$t'\026\276f\307J~"
  52      CEB3B0CE 
  52      78247427 
  52      16BE66C7 
  52      4A7E
  53 0120 8B1321F7 		.ascii	"\213\023!\367F}\345h\017\337r+\253\005&d,\015~|\277"
  53      467DE568 
  53      0FDF722B 
  53      AB052664 
  53      2C0D7E7C 
  54 0135 56328017 		.ascii	"V2\200\027~\212};x\213\010&\301\2261\205\001\320\026"
  54      7E8A7D3B 
  54      788B0826 
  54      C1963185 
  54      01D016
  55 0148 1E1DF76E 		.ascii	"\036\035\367n\303&\2246\347\356\332\341\246\311\211"
  55      C3269436 
  55      E7EEDAE1 
  55      A6C989
  56 0157 4FDC9569 		.ascii	"O\334\225i\206\327!L\021\354\224)-\332\356\375\365\241"
  56      86D7214C 
  56      11EC9429 
  56      2DDAEEFD 
  56      F5A1
  57 0169 D0AADC23 		.ascii	"\320\252\334#\341\260*\335\223\315\032\025W\200w,\262"
  57      E1B02ADD 
  57      93CD1A15 
  57      5780772C 
  57      B2
  58 017a A9858534 		.ascii	"\251\205\2054\307\320\320F\337\251\201\234Z\302\214"
  58      C7D0D046 
ARM GAS  C:\Users\Thomas\AppData\Local\Temp\cc5uZfby.s 			page 4


  58      DFA9819C 
  58      5AC28C
  59 0189 850E4316 		.ascii	"\205\016C\026\011\033Jg_L\033C\227\314\373\201{\331"
  59      091B4A67 
  59      5F4C1B43 
  59      97CCFB81 
  59      7BD9
  60 019b FE2CDB67 		.ascii	"\376,\333g\021\355\300\017\316\\\315\353?\310\361Gr"
  60      11EDC00F 
  60      CE5CCDEB 
  60      3FC8F147 
  60      72
  61 01ac A7B86FD7 		.ascii	"\247\270o\327\252bw\275V\257=\236\364\3565G\333:\333"
  61      AA6277BD 
  61      56AF3D9E 
  61      F4EE3547 
  61      DB3ADB
  62 01bf 135EAC3E 		.ascii	"\023^\254>\332v\273&\326\024\255k\272\325\320\330|\347"
  62      DA76BB26 
  62      D614AD6B 
  62      BAD5D0D8 
  62      7CE7
  63 01d1 415582DC 		.ascii	"AU\202\334\256\370\375N\357JG2\236lI\324\265$;.\000"
  63      AEF8FD4E 
  63      EF4A4732 
  63      9E6C49D4 
  63      B5243B2E 
  64 01e6 9C9ECF89 		.ascii	"\234\236\317\211"
  65              		.text
  66              		.section	.gnu.lto_USBUART_Dp_SetDriveMode.be9c75b6,"",%progbits
  67 0000 789C7D51 		.ascii	"x\234}Q=,CQ\024>\337\275\257?\322\370\211I:Yh$\324d"
  67      3D2C4351 
  67      143EDFBD 
  67      AF3FD2F8 
  67      89493A59 
  68 0018 F7175651 		.ascii	"\367\027VQ\266&\"\355\033\2514\314}\245\026\213\237"
  68      B62622ED 
  68      1BA934CC 
  68      7DA5168B 
  68      9F
  69 0029 49D23411 		.ascii	"I\3224\021\"J\265$\006k#6Bj\021\022\014Ju \032\202F"
  69      224AB524 
  69      066B2336 
  69      426A1112 
  69      0C4A7520 
  70 0040 A8735F0D 		.ascii	"\250s_\015M$n\336=\367|'\337\367\275s\317\225\364w9"
  70      4D246EDE 
  70      3DF77C27 
  70      DFF7BD73 
  70      CF95F477 
  71 0055 79E741D4 		.ascii	"y\347A\324\306'$A,\234\020\205\355\002P\011\201B\002"
  71      C6272441 
  71      2C9C1085 
  71      ED025009 
  71      814202
  72 0068 21E44541 		.ascii	"!\344EA`!\235Xv\270\326\015\303x^\335o\230m(\012\242"
  72      60219D58 
ARM GAS  C:\Users\Thomas\AppData\Local\Temp\cc5uZfby.s 			page 5


  72      76B8D60D 
  72      C3785EDD 
  72      6F986D28 
  73 007e 1751B6C1 		.ascii	"\027Q\266\301\006\\L\311\025\363\033\325\262\005\304"
  73      065C4CC9 
  73      15F31BD5 
  73      B205C4
  74 008d F9D7E2F9 		.ascii	"\371\327\342\371\231hZ3\214\351\364q\312\350D\221=\343"
  74      99685A33 
  74      8CE9F471 
  74      CAE84491 
  74      3DE3
  75 009f 90AC40AB 		.ascii	"\220\254@\253\023-N\342\002a\023M\212\\\210|\235;\254"
  75      132D4EE2 
  75      0261134D 
  75      8A5C887C 
  75      9D3BAC
  76 00b2 11F6AE2B 		.ascii	"\021\366\256+{b\013Vn\213v\352\323F\251\364r\265\030"
  76      7B620B56 
  76      6E8B76EA 
  76      D346A9F4 
  76      72B518
  77 00c5 6F8743B0 		.ascii	"o\207C\260FH\016RS\301\002%\267\252\324\246\202]\205"
  77      46480E52 
  77      53C10225 
  77      B7AAD4A6 
  77      825D85
  78 00d8 2AC521CA 		.ascii	"*\305!\312\362V7\270c\300\247\274\304\301\333\334}T"
  78      F25637B8 
  78      63C0A7BC 
  78      C4C1DBDC 
  78      7D54
  79 00ea 53BEEF42 		.ascii	"S\276\357B]'7;\337\370 \212B\373^\011\033\232j\342&"
  79      5D27373B 
  79      DFF8208A 
  79      42FB5E09 
  79      1B9A6AE2 
  80 00ff 7B9AB19B 		.ascii	"{\232\261\233%R\360\3656\226\254\215!\032\216p\357\026"
  80      2552F0F5 
  80      3696AC8D 
  80      211A8E70 
  80      EF16
  81 0111 24E0C436 		.ascii	"$\340\3046x^H\"\006\272\304\364\265\255\354&\331\220"
  81      785E4822 
  81      06BAC4F4 
  81      B5ADEC26 
  81      D990
  82 0123 F1CC87B5 		.ascii	"\361\314\207\265\2145.\261\376\342\351\371\310\264\223"
  82      8C352EB1 
  82      FEE2E9F9 
  82      C8B493
  83 0132 85D2EFE2 		.ascii	"\205\322\357\342Q\246\330\242B\313\237\245Rk\343\022"
  83      51A6D8A2 
  83      42CB9FA5 
  83      526BE312 
  84 0142 6B337B8F 		.ascii	"k3{\217\207\026S[C\3301%3\257\277\024\273\371\007[\245"
  84      8716535B 
ARM GAS  C:\Users\Thomas\AppData\Local\Temp\cc5uZfby.s 			page 6


  84      43D83125 
  84      33AFBF14 
  84      BBF9075B 
  85 0157 4B155719 		.ascii	"K\025W\031\037,A\341\377z\337\345\336\231O\327\010\247"
  85      1F2C41E1 
  85      FF7ADFE5 
  85      DE994FD7 
  85      08A7
  86 0169 3FFB145B 		.ascii	"?\373\024[=_\226\237\202\247\3043kv{\373\365q=8:\251"
  86      3D5F969F 
  86      82A7C433 
  86      6B767BFB 
  86      F5713D38 
  87 017f FB473C81 		.ascii	"\373G<\201\251\240O\367\016x\002=\035\336aO\367p\327"
  87      A9A04FF7 
  87      0E78023D 
  87      1DDE614F 
  87      F770D7
  88 0192 E0D048EF 		.ascii	"\340\320H\357\204\333G\332X\300\257\377\000\341%\271"
  88      84DB47DA 
  88      58C0AFFF 
  88      00E125B9 
  89 01a2 08       		.ascii	"\010"
  90              		.text
  91              		.section	.gnu.lto_USBUART_Dp_Read.be9c75b6,"",%progbits
  92 0000 789C654F 		.ascii	"x\234eOMK\002Q\024\275\347\315\214ZBD\253\360\007d\201"
  92      4D4B0251 
  92      14BDE7CD 
  92      8C5A4244 
  92      ABF00764 
  93 0015 B86B539B 		.ascii	"\270kS\233\276\240mh\356\004\011\233m\206\324\332\321"
  93      BEA06D68 
  93      EE04099B 
  93      6D86D4DA 
  93      D1
  94 0026 D43E5665 		.ascii	"\324>Ve\313\250Eb\337\022\024\204-\202h\035E\264(D\246"
  94      CBA84562 
  94      DF121484 
  94      2D82681D 
  94      45B42844 
  95 003b 8D42EE12 		.ascii	"\215B\356\022\373\232E\331}M\273\036\274s\337\275\367"
  95      FB9A45D9 
  95      7D4DBB1E 
  95      BC73DFBD 
  95      F7
  96 004c DC73DE55 		.ascii	"\334s\336U\350\377\361\360\015\200\250\227#\024\202"
  96      E8FFF1F0 
  96      0D80A897 
  96      231482
  97 005b 58BD214A 		.ascii	"X\275!J\272\004 \037\004J\010$P\027\015\201\353\363"
  97      BA04201F 
  97      044A0824 
  97      50170D81 
  97      EBF3
  98 006d EF7B780B 		.ascii	"\357{x\013\206\221z\311]T\334\231nK\0205\005\301\347"
  98      86917AC9 
  98      5D54DC99 
ARM GAS  C:\Users\Thomas\AppData\Local\Temp\cc5uZfby.s 			page 7


  98      6E4B1035 
  98      05C1E7
  99 0080 419FD4C1 		.ascii	"A\237\324\301.\274\304\304F\372\353\301\355H\033\206"
  99      2EBCC4C4 
  99      46FAEBC1 
  99      ED481B86 
 100 0090 D129FBDC 		.ascii	"\321)\373\334\330\203\203=\350\270\353\322h\265N\337"
 100      D883833D 
 100      E8B8EBD2 
 100      68B54EDF 
 101 00a0 D69606E1 		.ascii	"\326\226\006\341\004Y\202\035\031T\006\241Ip\220\324"
 101      0459821D 
 101      195406A1 
 101      497090D4 
 102 00b0 A42A83B4 		.ascii	"\244*\203\264\257\011!\243R\306\325\373\212\2715 u>"
 102      AF0921A3 
 102      52C6D5FB 
 102      8AB93520 
 102      753E
 103 00c2 84C2163B 		.ascii	"\204\302\026;\353\305\355\366gaq\222O\032\252t}\252"
 103      EBC5EDF6 
 103      67617192 
 103      4F1AAA74 
 103      7DAA
 104 00d4 DEDEB97E 		.ascii	"\336\336\271~K$\323Z}\271\211Ml$\323\260\204\212}xp"
 104      4B24D35A 
 104      7DB9894D 
 104      6C24D3B0 
 104      848A7D78 
 105 00e9 00FE250E 		.ascii	"\000\376%\016\271Je,|f+\212-\010[\363$_8k\223\002\030"
 105      B94A652C 
 105      7C662B8A 
 105      2D085BF3 
 105      245F386B 
 106 0100 221C31B7 		.ascii	"\"\0341\267\214\224\351\264)*\263\344\220\231}\325\354"
 106      8C94E9B4 
 106      292AB3E4 
 106      90997DD5 
 106      EC
 107 0111 8AC6451E 		.ascii	"\212\306E\036\312eJ\245\0169\2449\010E{\350q\321gs$"
 107      CA654AA5 
 107      0E39A439 
 107      08457BE8 
 107      71D16773 
 108 0126 8D4CE02F 		.ascii	"\215L\340/\373\335\014r#\336\257\307\037\036\327g\364"
 108      FBDD0C72 
 108      23DEAFC7 
 108      1F1ED767 
 108      F4
 109 0137 F8D49C3E 		.ascii	"\370\324\234>\035\011\306\346\343Q=<\021\214\215\366"
 109      1D09C6E6 
 109      E3513D3C 
 109      118C8DF6 
 110 0147 8743C191 		.ascii	"\207C\301\221\320p`226\353\217\322\017\013\253\201J"
 110      D0706032 
 110      3236EB8F 
 110      D20F0BAB 
ARM GAS  C:\Users\Thomas\AppData\Local\Temp\cc5uZfby.s 			page 8


 110      814A
 111              		.text
 112              		.section	.gnu.lto_USBUART_Dp_ReadDataReg.be9c75b6,"",%progbits
 113 0000 789C654F 		.ascii	"x\234eO\277KBQ\024>\337y\317\247!H4\205\177@V\210[K"
 113      BF4B4251 
 113      143EDF79 
 113      CFA72148 
 113      34857F40 
 114 0018 53BFA035 		.ascii	"S\277\240547A\302\336\232!5\3734\265h\012\327\250\305"
 114      343741C2 
 114      DE9A2135 
 114      FB34B568 
 114      0AD7A8C5 
 115 002c A4EC0741 		.ascii	"\244\354\007AQ\330\022\325\034I:\024b\266\030\324\246"
 115      51D812D5 
 115      1C493A14 
 115      62B618D4 
 115      A6
 116 003d 14D51BD2 		.ascii	"\024\325\033\322\356\365\265u\341~\347\336s\276\363"
 116      EEF5B575 
 116      E17EE7DE 
 116      73BEF3
 117 004c 7DE728F4 		.ascii	"}\347(\364\377\270\305\365\203hPD(\004\336\270#J8\030"
 117      FFB8C5F5 
 117      83685044 
 117      2804DEB8 
 117      234A3818 
 118 0060 900F02C5 		.ascii	"\220\017\002\305\031q\274q\213q{\321\256\300\2237\214"
 118      1971BC71 
 118      8B717BD1 
 118      AEC09337 
 118      8C
 119 0071 64B35CA9 		.ascii	"d\263\\\2519\323\375&\023\2753\301\353\306\220\324\301"
 119      39D3FD26 
 119      13BD33C1 
 119      EBC690D4 
 119      C1
 120 0082 2E3C2488 		.ascii	".<$\210\255\324\317\203SK\031\206\321+\353\242\260\007"
 120      ADD4CF83 
 120      534B1986 
 120      D12BEBA2 
 120      B007
 121 0094 4D78D071 		.ascii	"Mx\320q\337\225\321\351\234\226\262k\303l\007\231,\034"
 121      DF95D1E9 
 121      9C96B26B 
 121      C36C0799 
 121      2C1C
 122 00a6 05A802D8 		.ascii	"\005\250\002\330&A#\251I\015\001\322\376\205YF\245\212"
 122      264123A9 
 122      490D01D2 
 122      FE855946 
 122      A58A
 123 00b8 9BCFF576 		.ascii	"\233\317\365vaT\352|\261\",\256\237\212;\256W6Yi\346"
 123      6154EA7C 
 123      B1222CAE 
 123      9F8A3BAE 
 123      57365969 
ARM GAS  C:\Users\Thomas\AppData\Local\Temp\cc5uZfby.s 			page 9


 124 00cd 12862A5D 		.ascii	"\022\206*]\237\033\245{G7E\362\273}yVvma3\221\202\311"
 124      9F1BA57B 
 124      473745F2 
 124      BB7D7956 
 124      766D6133 
 125 00e4 2A0A7063 		.ascii	"*\012pc\037bJ\034`\013T\305\312w\246\246X\202\2604O"
 125      1F624A1C 
 125      600B54C5 
 125      CA77A6A6 
 125      5882B034 
 126 00f9 72F9F31E 		.ascii	"r\371\363\036)\2001\302\241\340V\221\254\333-\212*X"
 126      298031C2 
 126      A1E05691 
 126      ACDB2D8A 
 126      2A58
 127 010b B2A99EF9 		.ascii	"\262\251\236\371\260Y\031\233H\212\246l\272X\354\016"
 127      B059199B 
 127      488AA66C 
 127      BA58EC0E 
 128 011b 62D30847 		.ascii	"b\323\010GV\323\343\252\327\342H\032\325\201\277_w3"
 128      56D3E3AA 
 128      D7E2481A 
 128      D581BF5F 
 128      7733
 129 012d C88DC47E 		.ascii	"\310\215\304~\003\276\320\264\276\240\307\346\226\364"
 129      03BED0B4 
 129      BEA0C7E6 
 129      96F4
 130 013b F97020BA 		.ascii	"\371p \272\034\213\350\241\231@tr$\024\014L\004\307"
 130      1C8BE8A1 
 130      99407472 
 130      24140C4C 
 130      04C7
 131 014d FDB3E1A9 		.ascii	"\375\263\341\251E_\204~\001\224\247\201\261"
 131      455F847E 
 131      0194A781 
 131      B1
 132              		.text
 133              		.section	.gnu.lto_USBUART_Dp_SetInterruptMode.be9c75b6,"",%progbits
 134 0000 789C6D50 		.ascii	"x\234mPMH\224Q\024\275\347\275\367\215S3\211\270h\341"
 134      4D489451 
 134      14BDE7BD 
 134      F78D5333 
 134      89B868E1 
 135 0014 A22098A4 		.ascii	"\242 \230\244\215BQk+\241\2554\271\033\260\320\017r"
 135      8D42516B 
 135      2BA1AD34 
 135      B91BB0D0 
 135      0F72
 136 0026 919FF8B3 		.ascii	"\221\237\370\263r\341\373t(j5\210\013QT$Bk\252\231t"
 136      72E1FB74 
 136      286A3588 
 136      0B515424 
 136      426BAA99 
 137 003b D342E223 		.ascii	"\323B\342#\332EEaLJ)\350\014\346&\022\023\235\240\261"
 137      DA454561 
 137      4C4A29E8 
ARM GAS  C:\Users\Thomas\AppData\Local\Temp\cc5uZfby.s 			page 10


 137      0CE62612 
 137      139DA0B1 
 138 004f 7B670C82 		.ascii	"{g\014\202z\274\307\273\367p\316\271?\232\376=\347\370"
 138      7ABCC7BB 
 138      F770CEB9 
 138      3F9AFE3D 
 138      E7F8
 139 0061 6D80E802 		.ascii	"m\200\350\002\377p\010*\365\226\310\017+\245\227\032"
 139      FF70082A 
 139      F596C80F 
 139      2BA5971A 
 140 0071 C91E358B 		.ascii	"\311\0365\213'\310F5L\0056\200\004\004\032T\332`\020"
 140      27C84635 
 140      4C053680 
 140      04041A54 
 140      DA6010
 141 0084 5B6A5B21 		.ascii	"[j[!\025\244\307\"\365\017\254\265\337\347\327n\332"
 141      15A4C722 
 141      F50FACB5 
 141      DFE7D76E 
 141      DA
 142 0095 D1EB4545 		.ascii	"\321\353EE\264\243*\0050\213z\346\024\236\317\014\350"
 142      B4A32A05 
 142      308B7AE6 
 142      149ECF0C 
 142      E8
 143 00a6 33200E5F 		.ascii	"3 \016_\257\357\357D\277\252\242B\215\244\343\271\302"
 143      AFEFEF44 
 143      BFAAA242 
 143      8DA4E3B9 
 143      C2
 144 00b7 0F2DA952 		.ascii	"\017-\251R\222\246_\215f\253b\367\255\035\012\276dm"
 144      92A65F8D 
 144      66AB62F7 
 144      AD1D0ABE 
 144      646D
 145 00c9 13E31A73 		.ascii	"\023\343\032s\320l\207\207\250\303#\324\021C\2044b\314"
 145      D06C8787 
 145      A8C323D4 
 145      11438434 
 145      62CC
 146 00db DE2C6ECD 		.ascii	"\336,n\315\036\323g\313\276\353\376\364n\244\242,\375"
 146      1ED367CB 
 146      BEEBFEF4 
 146      6EA4A22C 
 146      FD
 147 00ec 513EFE8F 		.ascii	"Q>\376\217\362\011bB\337N\376\312EBI\356\272\246\322"
 147      F2096242 
 147      DF4EFECA 
 147      454249EE 
 147      BAA6D2
 148 00ff 2C9E22C4 		.ascii	",\236\"\304\233\240Lm`\017\016\026J\037\346N\351\260"
 148      9BA04C6D 
 148      600F0E16 
 148      4A1FE64E 
 148      E9B0
 149 0111 825432A2 		.ascii	"\202T2\242t \322\020\207\206(\317\012YE\201\273\346"
ARM GAS  C:\Users\Thomas\AppData\Local\Temp\cc5uZfby.s 			page 11


 149      7420D210 
 149      878628CF 
 149      0A594581 
 149      BBE6
 150 0123 5FAF6078 		.ascii	"_\257`x\377\366\267\3148\304eO\231=%\233\231\316\335"
 150      FFF6B7CC 
 150      38C4654F 
 150      993D259B 
 150      99CEDD
 151 0136 FD592DB3 		.ascii	"\375Y-\263\351&B\206\033\370\210\344\362\360\361C\016"
 151      E9264286 
 151      1BF888E4 
 151      F2F0F143 
 151      0E
 152 0147 13D6F2EF 		.ascii	"\023\326\362\357\336\207\313\004\256\237e\202\234\002"
 152      DE87CB04 
 152      AE9F6582 
 152      9C02
 153 0155 674B8D6C 		.ascii	"gK\215l9\364\351N)\223:\264\344\353\320\012^\216\314"
 153      39F4E94E 
 153      29933AB4 
 153      E4EBD00A 
 153      5E8ECC
 154 0168 9C1480C5 		.ascii	"\234\024\200\305\023S\237\323GD\354\224\356\371\326"
 154      13539FD3 
 154      4744EC94 
 154      EEF9D6
 155 0177 D0DF7E0E 		.ascii	"\320\337~\016I\272\270\374\346Et\022\023~\322\017\234"
 155      49BAB8FC 
 155      E6457412 
 155      137ED20F 
 155      9C
 156 0188 A20AE119 		.ascii	"\242\012\341\031/b^\312`\001\223`\323r9S\036a\025~0"
 156      2F625ECA 
 156      60019360 
 156      D3723953 
 156      1E61157E 
 157 019d 522DDED2 		.ascii	"R-\336\322D^AP\036\363tC\342\212\333\345\366\334\350"
 157      445E4150 
 157      1EF37443 
 157      E28ADBE5 
 157      F6DCE8
 158 01b0 733BDAE2 		.ascii	"s;\332\342^\177O\273\233h\211{\227\317'Z\343\227Z/^"
 158      5E7F4FBB 
 158      9B68897B 
 158      97CF275A 
 158      E3975A2F 
 159 01c5 BDD6D6DC 		.ascii	"\275\326\326\334\335\320N\341n\257\267\263\257\323\353"
 159      DDD04EE1 
 159      6EAFB7B3 
 159      AFD3EB
 160 01d4 32B7BC0E 		.ascii	"2\267\274\016\3677h\303\300\264"
 160      F73768C3 
 160      C0B4
 161              		.text
 162              		.section	.gnu.lto_USBUART_Dp_ClearInterrupt.be9c75b6,"",%progbits
 163 0000 789C654F 		.ascii	"x\234eOMKBQ\020\235s\337\207F\020\321\322\037\220\005"
ARM GAS  C:\Users\Thomas\AppData\Local\Temp\cc5uZfby.s 			page 12


 163      4D4B4251 
 163      109D73DF 
 163      874610D1 
 163      D21F9005 
 164 0014 E1AE7D5F 		.ascii	"\341\256}_\32064w\202\205\275]dH\255}\317\314 \027E"
 164      D0363477 
 164      8285BD5D 
 164      6448AD7D 
 164      CFCC2017 
 165 0029 0405E122 		.ascii	"\004\005\341\"B\372\260\010Z\204\321&j+E\010\025\022"
 165      42FAB008 
 165      5A84D126 
 165      6A2B4508 
 165      1512
 166 003b 466060BB 		.ascii	"F``\273D\310\036\2246\327G\253.\3343wf\316\234sG\241"
 166      44C81E94 
 166      36D747AB 
 166      2EDC3377 
 166      66CE9C73 
 167 0051 FFC7C337 		.ascii	"\377\307\3037\000\242>\216P\010b\375\226\310r\013@>"
 167      00A23E8E 
 167      500862FD 
 167      96C8720B 
 167      403E
 168 0063 08141788 		.ascii	"\010\024\027\210\343]\324\004\012\027\315\"\274Y\323"
 168      E35DD404 
 168      0A17CD22 
 168      BC59D3
 169 0072 4C7C241A 		.ascii	"L|$\032\263[\233S\266 \252\013\302\200\007\375R\007"
 169      B35B9B53 
 169      B620AA0B 
 169      C28007FD 
 169      5207
 170 0084 FBF01213 		.ascii	"\373\360\022\023k\311\237\307N=i\232f\267\354s\343\000"
 170      6BC99FC7 
 170      4E3D699A 
 170      66B7EC73 
 170      E300
 171 0096 3A7BD069 		.ascii	":{\320i\317\225\331j\325\237\213U\237\342\002\331\202"
 171      CF95D96A 
 171      D59F8B55 
 171      9FE202D9 
 171      82
 172 00a7 1D195406 		.ascii	"\035\031T\006\241I\320IjR\205A\332\277\011!\243R\302"
 172      A149D049 
 172      6A528541 
 172      DABF0921 
 172      A352C2
 173 00ba F5E7EAC3 		.ascii	"\365\347\352\303\245_\3524\204\302\026i+\267\255U\205"
 173      A55FEA34 
 173      84C21669 
 173      2BB7AD55 
 173      85
 174 00cb 2D94B5B4 		.ascii	"-\224\265\264e\252\322\365\245rw\357n\227H\246\315\327"
 174      65AAD2F5 
 174      A57277EF 
 174      6E9748A6 
ARM GAS  C:\Users\Thomas\AppData\Local\Temp\cc5uZfby.s 			page 13


 174      CDD7
 175 00dd DD1B2D83 		.ascii	"\335\033-\203\035+\011[\2508\204\007G\340_\"\207\014"
 175      1D2B095B 
 175      A8388407 
 175      47E05F22 
 175      870C
 176 00ef A884A5AF 		.ascii	"\250\204\245\257TEu\004\341h\236\355e\317;\244\000\206"
 176      54457504 
 176      E1689EED 
 176      65CF3BA4 
 176      0086
 177 0101 08C7CC2D 		.ascii	"\010\307\314-!Qv9\024\225Yr\250\234\372\326\235\212"
 177      21517639 
 177      14955972 
 177      A89CFAD6 
 177      9D8A
 178 0113 C6451EDA 		.ascii	"\306E\036\332X\316\347\273\344\220\246\023N\234\241"
 178      58CEE7BB 
 178      E490A613 
 178      4E9CA1
 179 0122 A795021C 		.ascii	"\247\225\002\034\222\344Q\031\177Y{5\310\225x\301^_"
 179      92E45119 
 179      7F597B35 
 179      C89578C1 
 179      5E5F
 180 0134 68DC9833 		.ascii	"h\334\2303b\323\013\306L8\020]\214E\214\320D ::\030"
 180      62D30BC6 
 180      4C38105D 
 180      8C458CD0 
 180      44203A3A 
 181 0149 0A064682 		.ascii	"\012\006F\202\303\376\311\360\330\274/B\277\363\272"
 181      C3FEC9F0 
 181      D8BC2F42 
 181      BFF3BA
 182 0158 82CB     		.ascii	"\202\313"
 183              		.text
 184              		.section	.gnu.lto_.symbol_nodes.be9c75b6,"",%progbits
 185 0000 789C55C7 		.ascii	"x\234U\307;\015\000 \020D\301w\037\022tbd-\240\200\240"
 185      3B0D0020 
 185      1044C177 
 185      1F127462 
 185      642DA080 
 186 0015 084D3414 		.ascii	"\010M4\024\334t\023\300\340q\004\363\200\304\332\035"
 186      DC7413C0 
 186      E07104F3 
 186      80C4DA1D 
 187 0025 3759B9CB 		.ascii	"7Y\271\313\313CQ\236\312\362\246\366\237\013\351b\031"
 187      CB43519E 
 187      CAF2A6F6 
 187      9F0BE962 
 187      19
 188 0036 56       		.ascii	"V"
 189              		.text
 190              		.section	.gnu.lto_.refs.be9c75b6,"",%progbits
 191 0000 789C6366 		.ascii	"x\234cf```d\200\002\000\000=\000\005"
 191      60606064 
 191      80020000 
ARM GAS  C:\Users\Thomas\AppData\Local\Temp\cc5uZfby.s 			page 14


 191      3D0005
 192              		.text
 193              		.section	.gnu.lto_.decls.be9c75b6,"",%progbits
 194 0000 789C8D54 		.ascii	"x\234\215ToLSW\024\277\347\335G\201G\255|\202\255[b"
 194      6F4C5357 
 194      14BFE7DD 
 194      478147AD 
 194      7C82AD5B 
 195 0015 9325244B 		.ascii	"\223%$K\010\21113~\333\037H\374\223la0\262\017\222\220"
 195      08893133 
 195      7EDB1F48 
 195      FC936C61 
 195      30B20F92 
 196 002a 065E94B8 		.ascii	"\006^\224\270\000\351\312\022?\355\216bD4\033\342\234"
 196      00E9CA12 
 196      3FED8E62 
 196      44341BE2 
 196      9C
 197 003b 48A69250 		.ascii	"H\246\222P\006\253\023P\253P\312\260\235\002U\376,["
 197      06AB1350 
 197      AB50CAB0 
 197      9D0255FE 
 197      2C5B
 198 004d 480D7E60 		.ascii	"H\015~`J\263\35141\260\341R#\361y\356}\357\3217V2or"
 198      4AB3E934 
 198      31B0E152 
 198      23F179EE 
 198      7DEFD137 
 199 0065 5EDFB9F7 		.ascii	"^\337\271\367\374~\347\334\3379\257\224\020\342\007"
 199      FC7EE7DC 
 199      DF39AF94 
 199      10E207
 200 0074 42345C37 		.ascii	"B4\\7eB\036\241\237\211VJR\313\206v\011-\2106\204\026"
 200      65421EA1 
 200      9F89564A 
 200      52CB8676 
 200      092D8836 
 201 008a 421B479B 		.ascii	"B\033G\233$\377]<.\303\300_@\313C\233F\273e\234\203"
 201      24FF5D3C 
 201      2EC3C05F 
 201      40CB439B 
 201      46BB659C 
 202 009f 11B37E05 		.ascii	"\021\263~\005\215<V\334l\032l0\015v\310\300\232\270"
 202      8D3C56DC 
 202      6C1A6C30 
 202      0D76C8C0 
 202      9AB8
 203 00b1 5D16DC1E 		.ascii	"]\026\334\036\013v(\0156\364\222\330P\032,\327\300\324"
 203      0B76280D 
 203      36F492D8 
 203      501A2CD7 
 203      C0D4
 204 00c3 CA816647 		.ascii	"\312\201fG\213lp\347\3614\370\311\227\314\235N\347e"
 204      8B6C70E7 
 204      F134F8C9 
 204      97CC9D4E 
 204      E765
ARM GAS  C:\Users\Thomas\AppData\Local\Temp\cc5uZfby.s 			page 15


 205 00d5 0942FD2B 		.ascii	"\011B\375+39\017$p(.\356\216\264\307:l\350\332\025\231"
 205      33390F24 
 205      70282EEE 
 205      8EB4C73A 
 205      6CE8DA15 
 206 00ea BBF16B87 		.ascii	"\273\361k\207\017gQ\011\370{w\307\2759\2450\300\030"
 206      0F675109 
 206      F87B77C7 
 206      BD39A530 
 206      C018
 207 00fc 6B619108 		.ascii	"ka\221\010\244(\276\370.|,\0231y\212p\277\234\352\214"
 207      A428BEF8 
 207      2E7C2C13 
 207      31798A70 
 207      BF9CEA8C 
 208 0110 52E16A1C 		.ascii	"R\341j\034'\315\317\177\375\224\202R\320\302X\023[j"
 208      27CDCF7F 
 208      FD948252 
 208      D0C25813 
 208      5B6A
 209 0122 67F41502 		.ascii	"g\364\025\002\205Nx\323I\240\037\0120\014\002PH\340"
 209      854E78D3 
 209      49A01F0A 
 209      300C0250 
 209      48E0
 210 0134 3C38E107 		.ascii	"<8\341\007p\022?&X:7w\347u\306d\270\000\012|\017TD\340"
 210      70123F26 
 210      583A3777 
 210      E775C664 
 210      B8000A7C 
 211 014c 35780623 		.ascii	"5x\006#i\333\241h\233,K\270\311c\366\212j\237h\367z"
 211      69DBA168 
 211      9B2C4BB8 
 211      C963F68A 
 211      6A9F68F7 
 212 0161 A4FC9348 		.ascii	"\244\374\223H\300\332|,W\206\322<\350E\332>\244%0\010"
 212      C0DA7C2C 
 212      5786D23C 
 212      E845DA3E 
 212      A4253008 
 213 0175 F9F81C00 		.ascii	"\371\370\034\000Y'X\010\007\216g\323m\342j\207\236\217"
 213      59275808 
 213      078E67D3 
 213      6DE26A87 
 213      9E8F
 214 0187 2536B9CE 		.ascii	"%6\271\316\262\256\301\245c\335g\351i\326\325\304\236"
 214      B2AEC1A5 
 214      63DD67E9 
 214      69D6D5C4 
 214      9E
 215 0198 6B583E07 		.ascii	"kX>\007\301\305\265\002\010\177\327\025\275\004.\004"
 215      C1C5B502 
 215      087FD715 
 215      BD042E04 
 216 01a8 26BBE617 		.ascii	"&\273\346\027(= H~\011\014\264\313\202\244k\244\333"
 216      283D2048 
 216      7E090CB4 
ARM GAS  C:\Users\Thomas\AppData\Local\Temp\cc5uZfby.s 			page 16


 216      CB82A46B 
 216      A4DB
 217 01ba 1663114D 		.ascii	"\026c\021M{[\340/[\360\227M|P\340\2174\017Rk\301\374"
 217      7B5BE02F 
 217      5BF0974D 
 217      7C50E08F 
 217      340F526B 
 218 01d0 2EA98AAF 		.ascii	".\251\212\257\210\212\367\032\005\237\234\376\243\237"
 218      888AF71A 
 218      059F9CFE 
 218      A39F
 219 01de 521F8864 		.ascii	"R\037\210d\337\254\256\366d\210dw\377L\250\221f\266"
 219      DFACAEF6 
 219      64886477 
 219      FF4CA891 
 219      66B6
 220 01f0 AA695420 		.ascii	"\252iT \340\252%\335U3\335\220H\327\332<\365\253DO\350"
 220      E0AA25DD 
 220      5533DD90 
 220      48D7DA3C 
 220      F5AB444F 
 221 0205 14A79F9C 		.ascii	"\024\247\237\234\177\252\350\365\236\3511\353\345\004"
 221      7FAAE8F5 
 221      9EE931EB 
 221      E504
 222 0213 C3168261 		.ascii	"\303\026\202a\223 $\010\246\026\223\177\333\305\264"
 222      93202408 
 222      A616937F 
 222      DBC5B4
 223 0222 E4728ACE 		.ascii	"\344r\212\316\333\277\257P1-\022w\317\374\365x4\233"
 223      DBBFAF50 
 223      312D1277 
 223      CFFCF578 
 223      349B
 224 0234 06747A73 		.ascii	"\006tzs*\\\372T\234z\224\014f\011\227\027\212c\361,"
 224      2A5CFA54 
 224      9C7A940C 
 224      66099717 
 224      8A63F12C 
 225 0248 D1DF6B83 		.ascii	"\321\337k\203\002E\357w\\\357w\004\357?\232\352\267"
 225      0245EF77 
 225      5CEF7704 
 225      EF3F9AEA 
 225      B7
 226 0259 CBE8B718 		.ascii	"\313\350\267\030\035\346c\031}\016\002#\250O\030\365"
 226      1DE66319 
 226      7D0E0223 
 226      A84F18F5 
 227 0269 816B383D 		.ascii	"\201k8=.cz~\304\3151\334\304L\243\376\207\217s\304d"
 227      2E637A7E 
 227      C4CD31DC 
 227      C44CA3FE 
 227      878F73C4 
 228 027e 44D626C3 		.ascii	"D\326&\303\267\020^\310Z\333\213\202\330\234^i\277-"
 228      B7105EC8 
 228      5ADB8B82 
 228      D89C5E69 
ARM GAS  C:\Users\Thomas\AppData\Local\Temp\cc5uZfby.s 			page 17


 228      BF2D
 229 0290 6F382ED7 		.ascii	"o8.\327\205\370?\231\3432\020\\<\252\320\213\372\335"
 229      85F83F99 
 229      E332105C 
 229      3CAAD08B 
 229      FADD
 230 02a2 FA9E2DFF 		.ascii	"\372\236-\377\226c\314Kb\354\303\343>\346gw5m\213@\301"
 230      9663CC4B 
 230      62ECC3E3 
 230      3EE66777 
 230      356D8B40 
 231 02b7 0D8B7E37 		.ascii	"\015\213~7L\375\306\205~\017\373ba\2403:K\374\\\374"
 231      4CFDC685 
 231      7E0FFB62 
 231      61A0333A 
 231      4BFC5CFC 
 232 02cb 5BBBDEC3 		.ascii	"[\273\336\303\341\373\023v\246\267@o\342\204\205c\302"
 232      E1FB1376 
 232      A6B7406F 
 232      E2848563 
 232      C2
 233 02dc E498141C 		.ascii	"\344\230\024\034\354\324Q\177\026\275\257s\\\371\247"
 233      ECD4517F 
 233      16BDAF73 
 233      5CF9A7
 234 02eb 35B44969 		.ascii	"5\264Ii\341\342\374\377\247\205\252\317\315\266\306"
 234      E1E2FCFF 
 234      A785AACF 
 234      CDB6C6
 235 02fa B3F58F71 		.ascii	"\263\365\217q=bj\303\2171\231\330\325\314\336\201[("
 235      3D626AC3 
 235      8F3199D8 
 235      D5CCDE81 
 235      5B28
 236 030c 5D2CD59C 		.ascii	"],\325\234\233\220\372\032\217,v\316\330\355\255\274"
 236      9B90FA1A 
 236      8F2C76CE 
 236      D8EDADBC 
 237 031c 4D286576 		.ascii	"M(ev\314!\202SbN\203]\334\000\177\227%\032\355\215\336"
 237      CC218253 
 237      624E835D 
 237      DC007F97 
 237      251AED8D 
 238 0331 51C0A938 		.ascii	"Q\300\2518;\360\257$\271\005f\221\251\205\267a\251\211"
 238      3BF0AF24 
 238      B9056691 
 238      A985B761 
 238      A989
 239 0343 D10E8759 		.ascii	"\321\016\207Y\021\021\007\004~F\232\031\244\341\321"
 239      11110704 
 239      7E469A19 
 239      A4E1D1
 240 0352 91079AF6 		.ascii	"\221\007\232\366\271\246\257\2572E\200xd4\326\326yw"
 240      B9A6AFAF 
 240      32458078 
 240      6434D6D6 
 240      7977
ARM GAS  C:\Users\Thomas\AppData\Local\Temp\cc5uZfby.s 			page 18


 241 0364 D8767E50 		.ascii	"\330v~P\341*&o\024U\356T\353T\217\333\253\326T\225\327"
 241      E12A266F 
 241      1455EE54 
 241      EB548FDB 
 241      ABD65495 
 242 0379 377AAAD5 		.ascii	"7z\252\325\312\322\362\372\342\267*\253\017z\0176\250"
 242      CAD2F2FA 
 242      E2B72AAB 
 242      0F7A0F36 
 242      A8
 243 038a 9F16ED27 		.ascii	"\237\026\355'\271\025\345\357U\274[\366QUIC\325\307"
 243      B915E5EF 
 243      55BC5BF6 
 243      51554943 
 243      D5C7
 244 039c 9E5AAF5A 		.ascii	"\236Z\257Z\260!(\025YTM\362-\270r\325[\342\251\375L"
 244      B0212815 
 244      59544DF2 
 244      2DB872D5 
 244      5BE2A9FD 
 245 03b1 7DBFBE46 		.ascii	"}\277\276F\335l\331/S\3355y\353\374\022\267\327]\246"
 245      DD6CD92F 
 245      53DD3579 
 245      EBFC12B7 
 245      D75DA6
 246 03c4 EEB3F13A 		.ascii	"\356\263\361:\267n\177\355\337,\273\353\274\252\307"
 246      B76E7FED 
 246      DF2CBBEB 
 246      BCAAC7
 247 03d3 D3D8E0E5 		.ascii	"\323\330\340\345L\257Z\316\212?Q\335\236\265S\331\243"
 247      4CAF5ACE 
 247      8A3F51DD 
 247      9EB553D9 
 247      A3
 248 03e4 EEDBF102 		.ascii	"\356\333\361\002\346\325\356\321"
 248      E6D5EED1 
 249              		.text
 250              		.section	.gnu.lto_.symtab.be9c75b6,"",%progbits
 251 0000 55534255 		.ascii	"USBUART_Dp_Write\000\000\000\000\000\000\000\000\000"
 251      4152545F 
 251      44705F57 
 251      72697465 
 251      00000000 
 252 0019 000000B2 		.ascii	"\000\000\000\262\000\000\000USBUART_Dp_SetDriveMode"
 252      00000055 
 252      53425541 
 252      52545F44 
 252      705F5365 
 253 0037 00000000 		.ascii	"\000\000\000\000\000\000\000\000\000\000\000\000\264"
 253      00000000 
 253      00000000 
 253      B4
 254 0044 00000055 		.ascii	"\000\000\000USBUART_Dp_Read\000\000\000\000\000\000"
 254      53425541 
 254      52545F44 
 254      705F5265 
 254      61640000 
ARM GAS  C:\Users\Thomas\AppData\Local\Temp\cc5uZfby.s 			page 19


 255 005c 00000000 		.ascii	"\000\000\000\000\000\000\267\000\000\000USBUART_Dp_"
 255      0000B700 
 255      00005553 
 255      42554152 
 255      545F4470 
 256 0071 52656164 		.ascii	"ReadDataReg\000\000\000\000\000\000\000\000\000\000"
 256      44617461 
 256      52656700 
 256      00000000 
 256      00000000 
 257 0086 0000B900 		.ascii	"\000\000\271\000\000\000USBUART_Dp_SetInterruptMode"
 257      00005553 
 257      42554152 
 257      545F4470 
 257      5F536574 
 258 00a7 00000000 		.ascii	"\000\000\000\000\000\000\000\000\000\000\000\000\305"
 258      00000000 
 258      00000000 
 258      C5
 259 00b4 00000055 		.ascii	"\000\000\000USBUART_Dp_ClearInterrupt\000\000\000\000"
 259      53425541 
 259      52545F44 
 259      705F436C 
 259      65617249 
 260 00d4 00000000 		.ascii	"\000\000\000\000\000\000\000\000\307\000\000\000"
 260      00000000 
 260      C7000000 
 261              		.text
 262              		.section	.gnu.lto_.opts,"",%progbits
 263 0000 272D666E 		.ascii	"'-fno-trapv' '-mcpu=cortex-m3' '-mthumb' '-g' '-O3'"
 263      6F2D7472 
 263      61707627 
 263      20272D6D 
 263      6370753D 
 264 0033 20272D66 		.ascii	" '-ffunction-sections' '-finline-functions' '-flto'"
 264      66756E63 
 264      74696F6E 
 264      2D736563 
 264      74696F6E 
 265 0066 20272D66 		.ascii	" '-ffat-lto-objects'\000"
 265      6661742D 
 265      6C746F2D 
 265      6F626A65 
 265      63747327 
 266              		.text
 267              		.cfi_sections	.debug_frame
 268              		.section	.text.USBUART_Dp_Write,"ax",%progbits
 269              		.align	2
 270              		.global	USBUART_Dp_Write
 271              		.thumb
 272              		.thumb_func
 273              		.type	USBUART_Dp_Write, %function
 274              	USBUART_Dp_Write:
 275              	.LFB0:
 276              		.file 1 ".\\Generated_Source\\PSoC5\\USBUART_Dp.c"
   1:.\Generated_Source\PSoC5/USBUART_Dp.c **** /*******************************************************************************
   2:.\Generated_Source\PSoC5/USBUART_Dp.c **** * File Name: USBUART_Dp.c  
ARM GAS  C:\Users\Thomas\AppData\Local\Temp\cc5uZfby.s 			page 20


   3:.\Generated_Source\PSoC5/USBUART_Dp.c **** * Version 2.20
   4:.\Generated_Source\PSoC5/USBUART_Dp.c **** *
   5:.\Generated_Source\PSoC5/USBUART_Dp.c **** * Description:
   6:.\Generated_Source\PSoC5/USBUART_Dp.c **** *  This file contains API to enable firmware control of a Pins component.
   7:.\Generated_Source\PSoC5/USBUART_Dp.c **** *
   8:.\Generated_Source\PSoC5/USBUART_Dp.c **** * Note:
   9:.\Generated_Source\PSoC5/USBUART_Dp.c **** *
  10:.\Generated_Source\PSoC5/USBUART_Dp.c **** ********************************************************************************
  11:.\Generated_Source\PSoC5/USBUART_Dp.c **** * Copyright 2008-2015, Cypress Semiconductor Corporation.  All rights reserved.
  12:.\Generated_Source\PSoC5/USBUART_Dp.c **** * You may use this file only in accordance with the license, terms, conditions, 
  13:.\Generated_Source\PSoC5/USBUART_Dp.c **** * disclaimers, and limitations in the end user license agreement accompanying 
  14:.\Generated_Source\PSoC5/USBUART_Dp.c **** * the software package with which this file was provided.
  15:.\Generated_Source\PSoC5/USBUART_Dp.c **** *******************************************************************************/
  16:.\Generated_Source\PSoC5/USBUART_Dp.c **** 
  17:.\Generated_Source\PSoC5/USBUART_Dp.c **** #include "cytypes.h"
  18:.\Generated_Source\PSoC5/USBUART_Dp.c **** #include "USBUART_Dp.h"
  19:.\Generated_Source\PSoC5/USBUART_Dp.c **** 
  20:.\Generated_Source\PSoC5/USBUART_Dp.c **** /* APIs are not generated for P15[7:6] on PSoC 5 */
  21:.\Generated_Source\PSoC5/USBUART_Dp.c **** #if !(CY_PSOC5A &&\
  22:.\Generated_Source\PSoC5/USBUART_Dp.c **** 	 USBUART_Dp__PORT == 15 && ((USBUART_Dp__MASK & 0xC0) != 0))
  23:.\Generated_Source\PSoC5/USBUART_Dp.c **** 
  24:.\Generated_Source\PSoC5/USBUART_Dp.c **** 
  25:.\Generated_Source\PSoC5/USBUART_Dp.c **** /*******************************************************************************
  26:.\Generated_Source\PSoC5/USBUART_Dp.c **** * Function Name: USBUART_Dp_Write
  27:.\Generated_Source\PSoC5/USBUART_Dp.c **** ****************************************************************************//**
  28:.\Generated_Source\PSoC5/USBUART_Dp.c **** *
  29:.\Generated_Source\PSoC5/USBUART_Dp.c **** * \brief Writes the value to the physical port (data output register), masking
  30:.\Generated_Source\PSoC5/USBUART_Dp.c **** *  and shifting the bits appropriately. 
  31:.\Generated_Source\PSoC5/USBUART_Dp.c **** *
  32:.\Generated_Source\PSoC5/USBUART_Dp.c **** * The data output register controls the signal applied to the physical pin in 
  33:.\Generated_Source\PSoC5/USBUART_Dp.c **** * conjunction with the drive mode parameter. This function avoids changing 
  34:.\Generated_Source\PSoC5/USBUART_Dp.c **** * other bits in the port by using the appropriate method (read-modify-write or
  35:.\Generated_Source\PSoC5/USBUART_Dp.c **** * bit banding).
  36:.\Generated_Source\PSoC5/USBUART_Dp.c **** *
  37:.\Generated_Source\PSoC5/USBUART_Dp.c **** * <b>Note</b> This function should not be used on a hardware digital output pin 
  38:.\Generated_Source\PSoC5/USBUART_Dp.c **** * as it is driven by the hardware signal attached to it.
  39:.\Generated_Source\PSoC5/USBUART_Dp.c **** *
  40:.\Generated_Source\PSoC5/USBUART_Dp.c **** * \param value
  41:.\Generated_Source\PSoC5/USBUART_Dp.c **** *  Value to write to the component instance.
  42:.\Generated_Source\PSoC5/USBUART_Dp.c **** *
  43:.\Generated_Source\PSoC5/USBUART_Dp.c **** * \return 
  44:.\Generated_Source\PSoC5/USBUART_Dp.c **** *  None 
  45:.\Generated_Source\PSoC5/USBUART_Dp.c **** *
  46:.\Generated_Source\PSoC5/USBUART_Dp.c **** * \sideeffect
  47:.\Generated_Source\PSoC5/USBUART_Dp.c **** *  If you use read-modify-write operations that are not atomic; the Interrupt 
  48:.\Generated_Source\PSoC5/USBUART_Dp.c **** *  Service Routines (ISR) can cause corruption of this function. An ISR that 
  49:.\Generated_Source\PSoC5/USBUART_Dp.c **** *  interrupts this function and performs writes to the Pins component data 
  50:.\Generated_Source\PSoC5/USBUART_Dp.c **** *  register can cause corrupted port data. To avoid this issue, you should 
  51:.\Generated_Source\PSoC5/USBUART_Dp.c **** *  either use the Per-Pin APIs (primary method) or disable interrupts around 
  52:.\Generated_Source\PSoC5/USBUART_Dp.c **** *  this function.
  53:.\Generated_Source\PSoC5/USBUART_Dp.c **** *
  54:.\Generated_Source\PSoC5/USBUART_Dp.c **** * \funcusage
  55:.\Generated_Source\PSoC5/USBUART_Dp.c **** *  \snippet USBUART_Dp_SUT.c usage_USBUART_Dp_Write
  56:.\Generated_Source\PSoC5/USBUART_Dp.c **** *******************************************************************************/
  57:.\Generated_Source\PSoC5/USBUART_Dp.c **** void USBUART_Dp_Write(uint8 value)
  58:.\Generated_Source\PSoC5/USBUART_Dp.c **** {
 277              		.loc 1 58 0
ARM GAS  C:\Users\Thomas\AppData\Local\Temp\cc5uZfby.s 			page 21


 278              		.cfi_startproc
 279              		@ args = 0, pretend = 0, frame = 0
 280              		@ frame_needed = 0, uses_anonymous_args = 0
 281              		@ link register save eliminated.
 282              	.LVL0:
  59:.\Generated_Source\PSoC5/USBUART_Dp.c ****     uint8 staticBits = (USBUART_Dp_DR & (uint8)(~USBUART_Dp_MASK));
 283              		.loc 1 59 0
 284 0000 044A     		ldr	r2, .L2
  60:.\Generated_Source\PSoC5/USBUART_Dp.c ****     USBUART_Dp_DR = staticBits | ((uint8)(value << USBUART_Dp_SHIFT) & USBUART_Dp_MASK);
 285              		.loc 1 60 0
 286 0002 8001     		lsls	r0, r0, #6
 287              	.LVL1:
  59:.\Generated_Source\PSoC5/USBUART_Dp.c ****     uint8 staticBits = (USBUART_Dp_DR & (uint8)(~USBUART_Dp_MASK));
 288              		.loc 1 59 0
 289 0004 1378     		ldrb	r3, [r2]	@ zero_extendqisi2
 290              	.LVL2:
 291              		.loc 1 60 0
 292 0006 00F04000 		and	r0, r0, #64
  59:.\Generated_Source\PSoC5/USBUART_Dp.c ****     uint8 staticBits = (USBUART_Dp_DR & (uint8)(~USBUART_Dp_MASK));
 293              		.loc 1 59 0
 294 000a 03F0BF03 		and	r3, r3, #191
 295              	.LVL3:
 296              		.loc 1 60 0
 297 000e 1843     		orrs	r0, r0, r3
 298 0010 1070     		strb	r0, [r2]
 299 0012 7047     		bx	lr
 300              	.L3:
 301              		.align	2
 302              	.L2:
 303 0014 F0510040 		.word	1073762800
 304              		.cfi_endproc
 305              	.LFE0:
 306              		.size	USBUART_Dp_Write, .-USBUART_Dp_Write
 307              		.section	.text.USBUART_Dp_SetDriveMode,"ax",%progbits
 308              		.align	2
 309              		.global	USBUART_Dp_SetDriveMode
 310              		.thumb
 311              		.thumb_func
 312              		.type	USBUART_Dp_SetDriveMode, %function
 313              	USBUART_Dp_SetDriveMode:
 314              	.LFB1:
  61:.\Generated_Source\PSoC5/USBUART_Dp.c **** }
  62:.\Generated_Source\PSoC5/USBUART_Dp.c **** 
  63:.\Generated_Source\PSoC5/USBUART_Dp.c **** 
  64:.\Generated_Source\PSoC5/USBUART_Dp.c **** /*******************************************************************************
  65:.\Generated_Source\PSoC5/USBUART_Dp.c **** * Function Name: USBUART_Dp_SetDriveMode
  66:.\Generated_Source\PSoC5/USBUART_Dp.c **** ****************************************************************************//**
  67:.\Generated_Source\PSoC5/USBUART_Dp.c **** *
  68:.\Generated_Source\PSoC5/USBUART_Dp.c **** * \brief Sets the drive mode for each of the Pins component's pins.
  69:.\Generated_Source\PSoC5/USBUART_Dp.c **** * 
  70:.\Generated_Source\PSoC5/USBUART_Dp.c **** * <b>Note</b> This affects all pins in the Pins component instance. Use the
  71:.\Generated_Source\PSoC5/USBUART_Dp.c **** * Per-Pin APIs if you wish to control individual pin's drive modes.
  72:.\Generated_Source\PSoC5/USBUART_Dp.c **** *
  73:.\Generated_Source\PSoC5/USBUART_Dp.c **** * \param mode
  74:.\Generated_Source\PSoC5/USBUART_Dp.c **** *  Mode for the selected signals. Valid options are documented in 
  75:.\Generated_Source\PSoC5/USBUART_Dp.c **** *  \ref driveMode.
  76:.\Generated_Source\PSoC5/USBUART_Dp.c **** *
ARM GAS  C:\Users\Thomas\AppData\Local\Temp\cc5uZfby.s 			page 22


  77:.\Generated_Source\PSoC5/USBUART_Dp.c **** * \return
  78:.\Generated_Source\PSoC5/USBUART_Dp.c **** *  None
  79:.\Generated_Source\PSoC5/USBUART_Dp.c **** *
  80:.\Generated_Source\PSoC5/USBUART_Dp.c **** * \sideeffect
  81:.\Generated_Source\PSoC5/USBUART_Dp.c **** *  If you use read-modify-write operations that are not atomic, the ISR can
  82:.\Generated_Source\PSoC5/USBUART_Dp.c **** *  cause corruption of this function. An ISR that interrupts this function 
  83:.\Generated_Source\PSoC5/USBUART_Dp.c **** *  and performs writes to the Pins component Drive Mode registers can cause 
  84:.\Generated_Source\PSoC5/USBUART_Dp.c **** *  corrupted port data. To avoid this issue, you should either use the Per-Pin
  85:.\Generated_Source\PSoC5/USBUART_Dp.c **** *  APIs (primary method) or disable interrupts around this function.
  86:.\Generated_Source\PSoC5/USBUART_Dp.c **** *
  87:.\Generated_Source\PSoC5/USBUART_Dp.c **** * \funcusage
  88:.\Generated_Source\PSoC5/USBUART_Dp.c **** *  \snippet USBUART_Dp_SUT.c usage_USBUART_Dp_SetDriveMode
  89:.\Generated_Source\PSoC5/USBUART_Dp.c **** *******************************************************************************/
  90:.\Generated_Source\PSoC5/USBUART_Dp.c **** void USBUART_Dp_SetDriveMode(uint8 mode)
  91:.\Generated_Source\PSoC5/USBUART_Dp.c **** {
 315              		.loc 1 91 0
 316              		.cfi_startproc
 317              		@ args = 0, pretend = 0, frame = 0
 318              		@ frame_needed = 0, uses_anonymous_args = 0
 319              		@ link register save eliminated.
 320              	.LVL4:
  92:.\Generated_Source\PSoC5/USBUART_Dp.c **** 	CyPins_SetPinDriveMode(USBUART_Dp_0, mode);
 321              		.loc 1 92 0
 322 0000 044A     		ldr	r2, .L5
 323 0002 00F00E00 		and	r0, r0, #14
 324              	.LVL5:
 325 0006 1378     		ldrb	r3, [r2]	@ zero_extendqisi2
 326 0008 03F0F103 		and	r3, r3, #241
 327 000c 1843     		orrs	r0, r0, r3
 328 000e 1070     		strb	r0, [r2]
 329 0010 7047     		bx	lr
 330              	.L6:
 331 0012 00BF     		.align	2
 332              	.L5:
 333 0014 7E500040 		.word	1073762430
 334              		.cfi_endproc
 335              	.LFE1:
 336              		.size	USBUART_Dp_SetDriveMode, .-USBUART_Dp_SetDriveMode
 337              		.section	.text.USBUART_Dp_Read,"ax",%progbits
 338              		.align	2
 339              		.global	USBUART_Dp_Read
 340              		.thumb
 341              		.thumb_func
 342              		.type	USBUART_Dp_Read, %function
 343              	USBUART_Dp_Read:
 344              	.LFB2:
  93:.\Generated_Source\PSoC5/USBUART_Dp.c **** }
  94:.\Generated_Source\PSoC5/USBUART_Dp.c **** 
  95:.\Generated_Source\PSoC5/USBUART_Dp.c **** 
  96:.\Generated_Source\PSoC5/USBUART_Dp.c **** /*******************************************************************************
  97:.\Generated_Source\PSoC5/USBUART_Dp.c **** * Function Name: USBUART_Dp_Read
  98:.\Generated_Source\PSoC5/USBUART_Dp.c **** ****************************************************************************//**
  99:.\Generated_Source\PSoC5/USBUART_Dp.c **** *
 100:.\Generated_Source\PSoC5/USBUART_Dp.c **** * \brief Reads the associated physical port (pin status register) and masks 
 101:.\Generated_Source\PSoC5/USBUART_Dp.c **** *  the required bits according to the width and bit position of the component
 102:.\Generated_Source\PSoC5/USBUART_Dp.c **** *  instance. 
 103:.\Generated_Source\PSoC5/USBUART_Dp.c **** *
ARM GAS  C:\Users\Thomas\AppData\Local\Temp\cc5uZfby.s 			page 23


 104:.\Generated_Source\PSoC5/USBUART_Dp.c **** * The pin's status register returns the current logic level present on the 
 105:.\Generated_Source\PSoC5/USBUART_Dp.c **** * physical pin.
 106:.\Generated_Source\PSoC5/USBUART_Dp.c **** *
 107:.\Generated_Source\PSoC5/USBUART_Dp.c **** * \return 
 108:.\Generated_Source\PSoC5/USBUART_Dp.c **** *  The current value for the pins in the component as a right justified number.
 109:.\Generated_Source\PSoC5/USBUART_Dp.c **** *
 110:.\Generated_Source\PSoC5/USBUART_Dp.c **** * \funcusage
 111:.\Generated_Source\PSoC5/USBUART_Dp.c **** *  \snippet USBUART_Dp_SUT.c usage_USBUART_Dp_Read  
 112:.\Generated_Source\PSoC5/USBUART_Dp.c **** *******************************************************************************/
 113:.\Generated_Source\PSoC5/USBUART_Dp.c **** uint8 USBUART_Dp_Read(void)
 114:.\Generated_Source\PSoC5/USBUART_Dp.c **** {
 345              		.loc 1 114 0
 346              		.cfi_startproc
 347              		@ args = 0, pretend = 0, frame = 0
 348              		@ frame_needed = 0, uses_anonymous_args = 0
 349              		@ link register save eliminated.
 115:.\Generated_Source\PSoC5/USBUART_Dp.c ****     return (USBUART_Dp_PS & USBUART_Dp_MASK) >> USBUART_Dp_SHIFT;
 350              		.loc 1 115 0
 351 0000 024B     		ldr	r3, .L8
 352 0002 1878     		ldrb	r0, [r3]	@ zero_extendqisi2
 116:.\Generated_Source\PSoC5/USBUART_Dp.c **** }
 353              		.loc 1 116 0
 354 0004 C0F38010 		ubfx	r0, r0, #6, #1
 355 0008 7047     		bx	lr
 356              	.L9:
 357 000a 00BF     		.align	2
 358              	.L8:
 359 000c F1510040 		.word	1073762801
 360              		.cfi_endproc
 361              	.LFE2:
 362              		.size	USBUART_Dp_Read, .-USBUART_Dp_Read
 363              		.section	.text.USBUART_Dp_ReadDataReg,"ax",%progbits
 364              		.align	2
 365              		.global	USBUART_Dp_ReadDataReg
 366              		.thumb
 367              		.thumb_func
 368              		.type	USBUART_Dp_ReadDataReg, %function
 369              	USBUART_Dp_ReadDataReg:
 370              	.LFB3:
 117:.\Generated_Source\PSoC5/USBUART_Dp.c **** 
 118:.\Generated_Source\PSoC5/USBUART_Dp.c **** 
 119:.\Generated_Source\PSoC5/USBUART_Dp.c **** /*******************************************************************************
 120:.\Generated_Source\PSoC5/USBUART_Dp.c **** * Function Name: USBUART_Dp_ReadDataReg
 121:.\Generated_Source\PSoC5/USBUART_Dp.c **** ****************************************************************************//**
 122:.\Generated_Source\PSoC5/USBUART_Dp.c **** *
 123:.\Generated_Source\PSoC5/USBUART_Dp.c **** * \brief Reads the associated physical port's data output register and masks 
 124:.\Generated_Source\PSoC5/USBUART_Dp.c **** *  the correct bits according to the width and bit position of the component 
 125:.\Generated_Source\PSoC5/USBUART_Dp.c **** *  instance. 
 126:.\Generated_Source\PSoC5/USBUART_Dp.c **** *
 127:.\Generated_Source\PSoC5/USBUART_Dp.c **** * The data output register controls the signal applied to the physical pin in 
 128:.\Generated_Source\PSoC5/USBUART_Dp.c **** * conjunction with the drive mode parameter. This is not the same as the 
 129:.\Generated_Source\PSoC5/USBUART_Dp.c **** * preferred USBUART_Dp_Read() API because the 
 130:.\Generated_Source\PSoC5/USBUART_Dp.c **** * USBUART_Dp_ReadDataReg() reads the data register instead of the status 
 131:.\Generated_Source\PSoC5/USBUART_Dp.c **** * register. For output pins this is a useful function to determine the value 
 132:.\Generated_Source\PSoC5/USBUART_Dp.c **** * just written to the pin.
 133:.\Generated_Source\PSoC5/USBUART_Dp.c **** *
 134:.\Generated_Source\PSoC5/USBUART_Dp.c **** * \return 
ARM GAS  C:\Users\Thomas\AppData\Local\Temp\cc5uZfby.s 			page 24


 135:.\Generated_Source\PSoC5/USBUART_Dp.c **** *  The current value of the data register masked and shifted into a right 
 136:.\Generated_Source\PSoC5/USBUART_Dp.c **** *  justified number for the component instance.
 137:.\Generated_Source\PSoC5/USBUART_Dp.c **** *
 138:.\Generated_Source\PSoC5/USBUART_Dp.c **** * \funcusage
 139:.\Generated_Source\PSoC5/USBUART_Dp.c **** *  \snippet USBUART_Dp_SUT.c usage_USBUART_Dp_ReadDataReg 
 140:.\Generated_Source\PSoC5/USBUART_Dp.c **** *******************************************************************************/
 141:.\Generated_Source\PSoC5/USBUART_Dp.c **** uint8 USBUART_Dp_ReadDataReg(void)
 142:.\Generated_Source\PSoC5/USBUART_Dp.c **** {
 371              		.loc 1 142 0
 372              		.cfi_startproc
 373              		@ args = 0, pretend = 0, frame = 0
 374              		@ frame_needed = 0, uses_anonymous_args = 0
 375              		@ link register save eliminated.
 143:.\Generated_Source\PSoC5/USBUART_Dp.c ****     return (USBUART_Dp_DR & USBUART_Dp_MASK) >> USBUART_Dp_SHIFT;
 376              		.loc 1 143 0
 377 0000 024B     		ldr	r3, .L11
 378 0002 1878     		ldrb	r0, [r3]	@ zero_extendqisi2
 144:.\Generated_Source\PSoC5/USBUART_Dp.c **** }
 379              		.loc 1 144 0
 380 0004 C0F38010 		ubfx	r0, r0, #6, #1
 381 0008 7047     		bx	lr
 382              	.L12:
 383 000a 00BF     		.align	2
 384              	.L11:
 385 000c F0510040 		.word	1073762800
 386              		.cfi_endproc
 387              	.LFE3:
 388              		.size	USBUART_Dp_ReadDataReg, .-USBUART_Dp_ReadDataReg
 389              		.section	.text.USBUART_Dp_SetInterruptMode,"ax",%progbits
 390              		.align	2
 391              		.global	USBUART_Dp_SetInterruptMode
 392              		.thumb
 393              		.thumb_func
 394              		.type	USBUART_Dp_SetInterruptMode, %function
 395              	USBUART_Dp_SetInterruptMode:
 396              	.LFB4:
 145:.\Generated_Source\PSoC5/USBUART_Dp.c **** 
 146:.\Generated_Source\PSoC5/USBUART_Dp.c **** 
 147:.\Generated_Source\PSoC5/USBUART_Dp.c **** /* If interrupt is connected for this Pins component */ 
 148:.\Generated_Source\PSoC5/USBUART_Dp.c **** #if defined(USBUART_Dp_INTSTAT) 
 149:.\Generated_Source\PSoC5/USBUART_Dp.c **** 
 150:.\Generated_Source\PSoC5/USBUART_Dp.c ****     /*******************************************************************************
 151:.\Generated_Source\PSoC5/USBUART_Dp.c ****     * Function Name: USBUART_Dp_SetInterruptMode
 152:.\Generated_Source\PSoC5/USBUART_Dp.c ****     ****************************************************************************//**
 153:.\Generated_Source\PSoC5/USBUART_Dp.c ****     *
 154:.\Generated_Source\PSoC5/USBUART_Dp.c ****     * \brief Configures the interrupt mode for each of the Pins component's
 155:.\Generated_Source\PSoC5/USBUART_Dp.c ****     *  pins. Alternatively you may set the interrupt mode for all the pins
 156:.\Generated_Source\PSoC5/USBUART_Dp.c ****     *  specified in the Pins component.
 157:.\Generated_Source\PSoC5/USBUART_Dp.c ****     *
 158:.\Generated_Source\PSoC5/USBUART_Dp.c ****     *  <b>Note</b> The interrupt is port-wide and therefore any enabled pin
 159:.\Generated_Source\PSoC5/USBUART_Dp.c ****     *  interrupt may trigger it.
 160:.\Generated_Source\PSoC5/USBUART_Dp.c ****     *
 161:.\Generated_Source\PSoC5/USBUART_Dp.c ****     * \param position
 162:.\Generated_Source\PSoC5/USBUART_Dp.c ****     *  The pin position as listed in the Pins component. You may OR these to be 
 163:.\Generated_Source\PSoC5/USBUART_Dp.c ****     *  able to configure the interrupt mode of multiple pins within a Pins 
 164:.\Generated_Source\PSoC5/USBUART_Dp.c ****     *  component. Or you may use USBUART_Dp_INTR_ALL to configure the
 165:.\Generated_Source\PSoC5/USBUART_Dp.c ****     *  interrupt mode of all the pins in the Pins component.       
ARM GAS  C:\Users\Thomas\AppData\Local\Temp\cc5uZfby.s 			page 25


 166:.\Generated_Source\PSoC5/USBUART_Dp.c ****     *  - USBUART_Dp_0_INTR       (First pin in the list)
 167:.\Generated_Source\PSoC5/USBUART_Dp.c ****     *  - USBUART_Dp_1_INTR       (Second pin in the list)
 168:.\Generated_Source\PSoC5/USBUART_Dp.c ****     *  - ...
 169:.\Generated_Source\PSoC5/USBUART_Dp.c ****     *  - USBUART_Dp_INTR_ALL     (All pins in Pins component)
 170:.\Generated_Source\PSoC5/USBUART_Dp.c ****     *
 171:.\Generated_Source\PSoC5/USBUART_Dp.c ****     * \param mode
 172:.\Generated_Source\PSoC5/USBUART_Dp.c ****     *  Interrupt mode for the selected pins. Valid options are documented in
 173:.\Generated_Source\PSoC5/USBUART_Dp.c ****     *  \ref intrMode.
 174:.\Generated_Source\PSoC5/USBUART_Dp.c ****     *
 175:.\Generated_Source\PSoC5/USBUART_Dp.c ****     * \return 
 176:.\Generated_Source\PSoC5/USBUART_Dp.c ****     *  None
 177:.\Generated_Source\PSoC5/USBUART_Dp.c ****     *  
 178:.\Generated_Source\PSoC5/USBUART_Dp.c ****     * \sideeffect
 179:.\Generated_Source\PSoC5/USBUART_Dp.c ****     *  It is recommended that the interrupt be disabled before calling this 
 180:.\Generated_Source\PSoC5/USBUART_Dp.c ****     *  function to avoid unintended interrupt requests. Note that the interrupt
 181:.\Generated_Source\PSoC5/USBUART_Dp.c ****     *  type is port wide, and therefore will trigger for any enabled pin on the 
 182:.\Generated_Source\PSoC5/USBUART_Dp.c ****     *  port.
 183:.\Generated_Source\PSoC5/USBUART_Dp.c ****     *
 184:.\Generated_Source\PSoC5/USBUART_Dp.c ****     * \funcusage
 185:.\Generated_Source\PSoC5/USBUART_Dp.c ****     *  \snippet USBUART_Dp_SUT.c usage_USBUART_Dp_SetInterruptMode
 186:.\Generated_Source\PSoC5/USBUART_Dp.c ****     *******************************************************************************/
 187:.\Generated_Source\PSoC5/USBUART_Dp.c ****     void USBUART_Dp_SetInterruptMode(uint16 position, uint16 mode)
 188:.\Generated_Source\PSoC5/USBUART_Dp.c ****     {
 397              		.loc 1 188 0
 398              		.cfi_startproc
 399              		@ args = 0, pretend = 0, frame = 0
 400              		@ frame_needed = 0, uses_anonymous_args = 0
 401              		@ link register save eliminated.
 402              	.LVL6:
 189:.\Generated_Source\PSoC5/USBUART_Dp.c **** 		if((position & USBUART_Dp_0_INTR) != 0u) 
 403              		.loc 1 189 0
 404 0000 4306     		lsls	r3, r0, #25
 405 0002 02D5     		bpl	.L13
 190:.\Generated_Source\PSoC5/USBUART_Dp.c **** 		{ 
 191:.\Generated_Source\PSoC5/USBUART_Dp.c **** 			 USBUART_Dp_0_INTTYPE_REG = (uint8)mode; 
 406              		.loc 1 191 0
 407 0004 014B     		ldr	r3, .L19
 408 0006 C9B2     		uxtb	r1, r1
 409              	.LVL7:
 410 0008 1970     		strb	r1, [r3]
 411              	.L13:
 412 000a 7047     		bx	lr
 413              	.L20:
 414              		.align	2
 415              	.L19:
 416 000c 7E450040 		.word	1073759614
 417              		.cfi_endproc
 418              	.LFE4:
 419              		.size	USBUART_Dp_SetInterruptMode, .-USBUART_Dp_SetInterruptMode
 420              		.section	.text.USBUART_Dp_ClearInterrupt,"ax",%progbits
 421              		.align	2
 422              		.global	USBUART_Dp_ClearInterrupt
 423              		.thumb
 424              		.thumb_func
 425              		.type	USBUART_Dp_ClearInterrupt, %function
 426              	USBUART_Dp_ClearInterrupt:
 427              	.LFB5:
ARM GAS  C:\Users\Thomas\AppData\Local\Temp\cc5uZfby.s 			page 26


 192:.\Generated_Source\PSoC5/USBUART_Dp.c **** 		}
 193:.\Generated_Source\PSoC5/USBUART_Dp.c ****     }
 194:.\Generated_Source\PSoC5/USBUART_Dp.c ****     
 195:.\Generated_Source\PSoC5/USBUART_Dp.c ****     
 196:.\Generated_Source\PSoC5/USBUART_Dp.c ****     /*******************************************************************************
 197:.\Generated_Source\PSoC5/USBUART_Dp.c ****     * Function Name: USBUART_Dp_ClearInterrupt
 198:.\Generated_Source\PSoC5/USBUART_Dp.c ****     ****************************************************************************//**
 199:.\Generated_Source\PSoC5/USBUART_Dp.c ****     *
 200:.\Generated_Source\PSoC5/USBUART_Dp.c ****     * \brief Clears any active interrupts attached with the component and returns 
 201:.\Generated_Source\PSoC5/USBUART_Dp.c ****     *  the value of the interrupt status register allowing determination of which
 202:.\Generated_Source\PSoC5/USBUART_Dp.c ****     *  pins generated an interrupt event.
 203:.\Generated_Source\PSoC5/USBUART_Dp.c ****     *
 204:.\Generated_Source\PSoC5/USBUART_Dp.c ****     * \return 
 205:.\Generated_Source\PSoC5/USBUART_Dp.c ****     *  The right-shifted current value of the interrupt status register. Each pin 
 206:.\Generated_Source\PSoC5/USBUART_Dp.c ****     *  has one bit set if it generated an interrupt event. For example, bit 0 is 
 207:.\Generated_Source\PSoC5/USBUART_Dp.c ****     *  for pin 0 and bit 1 is for pin 1 of the Pins component.
 208:.\Generated_Source\PSoC5/USBUART_Dp.c ****     *  
 209:.\Generated_Source\PSoC5/USBUART_Dp.c ****     * \sideeffect
 210:.\Generated_Source\PSoC5/USBUART_Dp.c ****     *  Clears all bits of the physical port's interrupt status register, not just
 211:.\Generated_Source\PSoC5/USBUART_Dp.c ****     *  those associated with the Pins component.
 212:.\Generated_Source\PSoC5/USBUART_Dp.c ****     *
 213:.\Generated_Source\PSoC5/USBUART_Dp.c ****     * \funcusage
 214:.\Generated_Source\PSoC5/USBUART_Dp.c ****     *  \snippet USBUART_Dp_SUT.c usage_USBUART_Dp_ClearInterrupt
 215:.\Generated_Source\PSoC5/USBUART_Dp.c ****     *******************************************************************************/
 216:.\Generated_Source\PSoC5/USBUART_Dp.c ****     uint8 USBUART_Dp_ClearInterrupt(void)
 217:.\Generated_Source\PSoC5/USBUART_Dp.c ****     {
 428              		.loc 1 217 0
 429              		.cfi_startproc
 430              		@ args = 0, pretend = 0, frame = 0
 431              		@ frame_needed = 0, uses_anonymous_args = 0
 432              		@ link register save eliminated.
 218:.\Generated_Source\PSoC5/USBUART_Dp.c ****         return (USBUART_Dp_INTSTAT & USBUART_Dp_MASK) >> USBUART_Dp_SHIFT;
 433              		.loc 1 218 0
 434 0000 024B     		ldr	r3, .L22
 435 0002 1878     		ldrb	r0, [r3]	@ zero_extendqisi2
 219:.\Generated_Source\PSoC5/USBUART_Dp.c ****     }
 436              		.loc 1 219 0
 437 0004 C0F38010 		ubfx	r0, r0, #6, #1
 438 0008 7047     		bx	lr
 439              	.L23:
 440 000a 00BF     		.align	2
 441              	.L22:
 442 000c 8F450040 		.word	1073759631
 443              		.cfi_endproc
 444              	.LFE5:
 445              		.size	USBUART_Dp_ClearInterrupt, .-USBUART_Dp_ClearInterrupt
 446              		.text
 447              	.Letext0:
 448              		.file 2 ".\\Generated_Source\\PSoC5\\cytypes.h"