ARM GAS  C:\Users\Thomas\AppData\Local\Temp\cclK6V0u.s 			page 1


   1              		.syntax unified
   2              		.cpu cortex-m3
   3              		.fpu softvfp
   4              		.eabi_attribute 20, 1
   5              		.eabi_attribute 21, 1
   6              		.eabi_attribute 23, 3
   7              		.eabi_attribute 24, 1
   8              		.eabi_attribute 25, 1
   9              		.eabi_attribute 26, 1
  10              		.eabi_attribute 30, 2
  11              		.eabi_attribute 34, 1
  12              		.eabi_attribute 18, 4
  13              		.thumb
  14              		.file	"WinTimer_PM.c"
  15              		.text
  16              	.Ltext0:
  17              		.section	.gnu.lto_.profile.bdba2063,"",%progbits
  18 0000 789C6366 		.ascii	"x\234cf```a\200\000F\206\034\005\000\001l\000\225"
  18      60606061 
  18      80004686 
  18      1C050001 
  18      6C0095
  19              		.text
  20              		.section	.gnu.lto_.jmpfuncs.bdba2063,"",%progbits
  21 0000 789C6366 		.ascii	"x\234cf\300\016\244\2404\013\230db``\004#f\204\030\000"
  21      C00EA4A0 
  21      340B9864 
  21      62606004 
  21      23668418 
  22 0015 0544002D 		.ascii	"\005D\000-"
  23              		.text
  24              		.section	.gnu.lto_.inline.bdba2063,"",%progbits
  25 0000 789C6366 		.ascii	"x\234cf\300\016\252\2404\013\003\003\267\014#\003\023"
  25      C00EAAA0 
  25      340B0303 
  25      B70C2303 
  25      13
  26 0011 C7013B06 		.ascii	"\307\001;\006\266\005\362L 1&n8\201]\222q\202\037\224"
  26      B605F24C 
  26      2031266E 
  26      38815D92 
  26      71821F94 
  27 0025 6266E092 		.ascii	"bf\340\222\002*\340\332\207P\300\310\005#X\0308\004"
  27      022AE0DA 
  27      8750C0C8 
  27      05235818 
  27      3804
  28 0037 81926C1F 		.ascii	"\201\222l\037\364\260H2\000\000\321n\012\222"
  28      F4B04832 
  28      0000D16E 
  28      0A92
  29              		.text
  30              		.section	.gnu.lto_.pureconst.bdba2063,"",%progbits
  31 0000 789C6366 		.ascii	"x\234cf``\340d\200\000\026\006)&)f)\026\011\000\002"
  31      6060E064 
  31      80001606 
  31      29262966 
ARM GAS  C:\Users\Thomas\AppData\Local\Temp\cclK6V0u.s 			page 2


  31      29160900 
  32 0015 CF0080   		.ascii	"\317\000\200"
  33              		.text
  34              		.section	.gnu.lto_WinTimer_SaveConfig.bdba2063,"",%progbits
  35 0000 789C9592 		.ascii	"x\234\225\222;H\003A\020\206\367\337\363\342j,\3042"
  35      3B480341 
  35      1086F7DF 
  35      F3E26A2C 
  35      C432
  36 0012 BD040BD3 		.ascii	"\275\004\013\323\011\026v\026VB@\301& \242WX\250\020"
  36      09167616 
  36      564240C1 
  36      2620A257 
  36      58A810
  37 0025 B40CDE69 		.ascii	"\264\014\336i\004QP\321F\360\001)\304G4\232\370\252"
  37      045150D1 
  37      46F00129 
  37      C447349A 
  37      F8AA
  38 0037 84D336A0 		.ascii	"\204\3236\240\250\205\240\242M\024\305\306\030P\202"
  38      A885A0A2 
  38      4D14C5C6 
  38      185082
  39 0046 F898B9AB 		.ascii	"\370\230\271\253\214\017\360`oow\377\231\377\233\331"
  39      8C0FF060 
  39      6F6F77FF 
  39      99FF9BD9 
  40 0056 D3C4F7C7 		.ascii	"\323\304\367\307G\303\220BT\321\014M@N\034\012a)\011"
  40      47C39042 
  40      54D10C4D 
  40      404E1C0A 
  40      612909
  41 0069 F08780E8 		.ascii	"\360\207\200\350\227\350\307\275\314JL\330\361i\257"
  41      97E8C7BD 
  41      CC4A4CD8 
  41      F169AF
  42 0078 7FC134CD 		.ascii	"\177\3014\315\307T\332\012\332\310S\\N\272y\260\010"
  42      C754DA0A 
  42      DAC8535C 
  42      4EBA79B0 
  42      08
  43 0089 BF205136 		.ascii	"\277 Q6\372v\346\365DIT\356\236a\011\036\320\274^a\233"
  43      FA76E6F5 
  43      444954EE 
  43      9E61091E 
  43      D0BC5E61 
  44 009e 1F1F9B89 		.ascii	"\037\037\233\211\375G\224j\"/\241\323K*~\011\221\241"
  44      FD47946A 
  44      222FA1D3 
  44      4B2A7E09 
  44      91A1
  45 00b0 C17E37B4 		.ascii	"\301~7\264\240Y\273\304\240\275\227\224\034\373\"5J"
  45      A059BBC4 
  45      A0BD9794 
  45      1CFB2235 
  45      4A
  46 00c1 3B7F3A96 		.ascii	";\177:\226\220\221Ws\330Ty\251\345$e\3042\"\024]$\316"
ARM GAS  C:\Users\Thomas\AppData\Local\Temp\cclK6V0u.s 			page 3


  46      90915773 
  46      D85479A9 
  46      E52465C4 
  46      3222145D 
  47 00d7 313019AB 		.ascii	"10\031\253dm\241P\177c\002\332\275\316\034\035\253;"
  47      646DA150 
  47      7F6302DA 
  47      BDCE1C1D 
  47      AB3B
  48 00e9 493BCE72 		.ascii	"I;\316r\311\212\316b\0163\226\311*\017V\020A\034>\347"
  48      C98ACE62 
  48      0E3396C9 
  48      2A0F5610 
  48      411C3EE7 
  49 00fd EC7D753C 		.ascii	"\354}u<\345\251\216S\001vm^\026c\225\204ON\221XC5\321"
  49      E5A98E53 
  49      01766D5E 
  49      16639584 
  49      4F4E9158 
  50 0114 90DFC1F3 		.ascii	"\220\337\301\363\310\373\215\327\245\323)&7\224\276"
  50      C8FB8DD7 
  50      A5D32926 
  50      3794BE
  51 0123 D538BD1A 		.ascii	"\3258\275\032M[f\321\027G\345d\235z\210\235(v\214R\327"
  51      4D5B66D1 
  51      1747E564 
  51      9D7A889D 
  51      28768C52 
  52 0138 4A90800F 		.ascii	"J\220\200\017\353l\210\015J\357V\020\370\263\202B\344"
  52      EB6C880D 
  52      4AEF5610 
  52      F8B38242 
  52      E4
  53 0149 E4AFC8A5 		.ascii	"\344\257\310\245H9\310\334tl2\262.\270\237\027I\315"
  53      4839C8DC 
  53      746C32B2 
  53      2EB89F17 
  53      49CD
  54 015b 25568526 		.ascii	"%V\205&\336\034\337\001\266\234~\226\27145\377\242\331"
  54      DE1CDF01 
  54      B69C7E96 
  54      B93435FF 
  54      A2D9
  55 016d FE99A68E 		.ascii	"\376\231\246\216iv\034\032\347W\330e\032%\256`\331Y"
  55      69761C1A 
  55      E757D865 
  55      1A25AE60 
  55      D959
  56 017f 9D0DB8AD 		.ascii	"\235\015\270\255\031\"\245;'\201?\020j0\272\215p[\257"
  56      1922A53B 
  56      27813F10 
  56      6A30BA8D 
  56      705BAF
  57 0192 D1D1DAD4 		.ascii	"\321\321\332\324\323\027n7B\301\246\236\372\232PKgw"
  57      D3176E37 
  57      42C1A69E 
  57      FA9A504B 
ARM GAS  C:\Users\Thomas\AppData\Local\Temp\cclK6V0u.s 			page 4


  57      6777
  58 01a4 73679711 		.ascii	"sg\227\021n\0156\006\332\305'\013\350\347\267"
  58      6E0D3606 
  58      DAC5270B 
  58      E8E7B7
  59              		.text
  60              		.section	.gnu.lto_WinTimer_RestoreConfig.bdba2063,"",%progbits
  61 0000 789C8D91 		.ascii	"x\234\215\221\277K\034Q\020\307\347;\273nV\317B\254"
  61      BF4B1C51 
  61      10C7E73B 
  61      BB6E56CF 
  61      42AC
  62 0012 F49A9487 		.ascii	"\364\232\224\207\210\327\371\027\004\264\022\004Cl\016"
  62      88D7F917 
  62      04B41204 
  62      436C0E
  63 0021 24982D2C 		.ascii	"$\230-,T8by\270+'\004\004\243\246\0214\001\013\321\344"
  63      54386279 
  63      B82B2704 
  63      04A3A611 
  63      34010BD1 
  64 0036 2E1A3D7F 		.ascii	".\032=\177\264\207\255\240h\024A\304\020P1\330x\271"
  64      B487ADA0 
  64      681441C4 
  64      105031D8 
  64      78B9
  65 0048 42165133 		.ascii	"B\026Q3\363\316&\376\302\205\367f\337{\3377\337\317"
  65      F3CE26FE 
  65      C285F766 
  65      DF7BDF37 
  65      DFCF
  66 005a 9BB1E8FE 		.ascii	"\233\261\350\376\027\225\361\206\211\352$\302\"\360"
  66      1795F186 
  66      89EA24C2 
  66      22F0
  67 0068 C80651E0 		.ascii	"\310\006Q\3402\240?\004\352g\364\343\017\027\030#\371"
  67      32A03F04 
  67      EA67F4E3 
  67      0F171823 
  67      F9
  68 0079 CC782436 		.ascii	"\314x$6\355\373\376\371v\256f\260&\224kE.\245\301\014"
  68      EDFBFEF9 
  68      76AE66B0 
  68      26946B45 
  68      2EA5C10C 
  69 008d 62249A42 		.ascii	"b$\232B\372j/\342\244ESU:\303,\034H\234\257\316\373"
  69      FA6A2FE2 
  69      A4455355 
  69      3AC32C1C 
  69      489CAFCE 
  70 00a2 3737B9CD 		.ascii	"77\271\315\321\3238\\\246\220a\313\304\216NDG2\324\357"
  70      D1D3385C 
  70      A69061CB 
  70      C48E4E44 
  70      4732D4EF 
  71 00b6 581612AD 		.ascii	"X\026\022\255}\014\254\024vF-\275}\301j\376\345\347"
  71      7D0CAC14 
ARM GAS  C:\Users\Thomas\AppData\Local\Temp\cclK6V0u.s 			page 5


  71      76462DBD 
  71      7DC16AFE 
  71      E5E7
  72 00c8 F01CA72E 		.ascii	"\360\034\247.\375\017\276\033\262u\245\251e\367\327"
  72      FD0FBE1B 
  72      B275A5A9 
  72      65F7D7
  73 00d7 D1E6967B 		.ascii	"\321\346\226{\312\262c\226\263Az\022\2371\021\370\252"
  73      CAB26396 
  73      B3417A12 
  73      9F3111F8 
  73      AA
  74 00e8 B2F11529 		.ascii	"\262\361\025)|C\324\234]g?.:\015\365!\227!#\232\277"
  74      7C43D49C 
  74      5D673F2E 
  74      3A0DF521 
  74      9721239A 
  75 00fd 061C5934 		.ascii	"\006\034Y4\320\001l\365\241\273.N\221\205\034\337\221"
  75      D0016CF5 
  75      A1BB2E4E 
  75      91851CDF 
  75      91
  76 010e 226108F9 		.ascii	"\"a\010\371\005)\326\302\356\357H\011\313~\024\353."
  76      0529D6C2 
  76      EEEF4809 
  76      CB7E14EB 
  76      2E
  77 011f C7DC431C 		.ascii	"\307\334C\034.\346\015\207V\007?\204c\037kcS/5\267\310"
  77      2EE60D87 
  77      56073F84 
  77      631F6B63 
  77      532F35B7 
  78 0134 8A83EB27 		.ascii	"\212\203\353'\226\276\254|h=\360\355\377\036[n\022}"
  78      96BEAC7C 
  78      683DF0ED 
  78      FF1E5B6E 
  78      127D
  79 0146 3A9BDA76 		.ascii	":\233\332v\325$\035\344kC\256\300\002\242XT\027\344"
  79      D5241DE4 
  79      6B43AEC0 
  79      02A25854 
  79      17E4
  80 0158 24B1F095 		.ascii	"$\261\360\225x\017\266n\313\350<\233w\351a\336e\303"
  80      780FB66E 
  80      CBE83C9B 
  80      77E961DE 
  80      65C3
  81 016a 6BBABAF2 		.ascii	"k\272\272\362D\335\"E\325`\325\324\315\011\271\222\016"
  81      44DD2245 
  81      D560D5D4 
  81      CD09B992 
  81      0E
  82 017b 11E42F9A 		.ascii	"\021\344/\232\214\230\264\331\320&\213&\026O4{=^\362"
  82      8C98B4D9 
  82      D0268B26 
  82      164F347B 
  82      3D5EF2
ARM GAS  C:\Users\Thomas\AppData\Local\Temp\cclK6V0u.s 			page 6


  83 018e ED7BEF5D 		.ascii	"\355{\357]G[o_\262\323K\264\266\365\276jL\264w\365\274"
  83      475B6F5F 
  83      B2D34BB4 
  83      B6F5BE6A 
  83      4CB477F5 
  84 01a3 EEEAF692 		.ascii	"\356\352\366\222\035\255-\361N\372\007\341S\335\027"
  84      1DAD2DF1 
  84      4EFA07E1 
  84      53DD17
  85              		.text
  86              		.section	.gnu.lto_WinTimer_Sleep.bdba2063,"",%progbits
  87 0000 789C8592 		.ascii	"x\234\205\222OH\024Q\034\307\177\337\337\233\231\035"
  87      4F481451 
  87      1CC77FDF 
  87      DF9B991D 
  88 0010 DDB0E824 		.ascii	"\335\260\350$\036\273,\035\364\326\255\360\320!\010"
  88      1EBB2C1D 
  88      F4D6ADF0 
  88      D02108
  89 001f 02C1A0CB 		.ascii	"\002\301\240\313\202\204\315\301Ck,u\\|\263;Q\004\345"
  89      8284CDC1 
  89      436B2C75 
  89      5C7CB33B 
  89      5104E5
  90 0032 4697C5D2 		.ascii	"F\227\305\322KT[kj\366\357$\014]\202\220B\"\002++\320"
  90      4B545B6B 
  90      6AF6EF24 
  90      0C5D8290 
  90      4222022B 
  91 0048 A8DBDA46 		.ascii	"\250\333\332F:\210n\2777\273\232\030\325\300\233\367"
  91      3A886EBF 
  91      37BB9A18 
  91      D5C09BF7 
  92 0058 DEEF7DDE 		.ascii	"\336\357}\336\367\373\235\367F\321\237\317!ig\230h\277"
  92      F7FB9DF7 
  92      46D19FCF 
  92      21696798 
  92      68BF
  93 006a F470085C 		.ascii	"\364p\010\\|I\344\273\314j\265\215t\253U\352&\275K\301"
  93      7C49E4BB 
  93      CC6AB58D 
  93      74AB55EA 
  93      26BD4BC1 
  94 007e 6E94ADCD 		.ascii	"n\224\255\315\201\015\230\001\201\206XY6\206\360\215"
  94      810D9801 
  94      81865859 
  94      3686F08D 
  95 008e 9719C5B0 		.ascii	"\227\031\305\260RJ\246ni\255\253\371\231\366\363\355"
  95      524AA66E 
  95      69ADABF9 
  95      99F6F3ED 
  96 009e 9128D7B8 		.ascii	"\221(\327\270\341\204;H\2210\313\301\372\333\244\023"
  96      E1843B48 
  96      9130CBC1 
  96      FADBA413 
  97 00ae 08B3A7B1 		.ascii	"\010\263\247\261\2062\034H?\2717\324\365z\355\307\325"
  97      86321C48 
ARM GAS  C:\Users\Thomas\AppData\Local\Temp\cclK6V0u.s 			page 7


  97      3FB937D4 
  97      F57AEDC7 
  97      D5
  98 00bf F23E6E51 		.ascii	"\362>nQ\0241,y\011\261(\315\270-\311Dz5\217g?/}\031"
  98      14312C79 
  98      09B128CD 
  98      B82DC944 
  98      7A358F67 
  99 00d7 1B81D9B9 		.ascii	"\033\201\331\271\302JD/\337\254\317\250\257\034\261"
  99      C24A442F 
  99      DFACCFA8 
  99      AF1CB1
 100 00e6 5A7BE16B 		.ascii	"Z{\341k\313\370|\\|5\347\306%2\323O\345w\037\334Q\\"
 100      CBF87C5C 
 100      7C35E7C6 
 100      2532D34F 
 100      E5771FDC 
 101 00fc F703446C 		.ascii	"\367\003Dl\341.:p\017\035\342^\301(h\036\371\205\013"
 101      E12E3A70 
 101      0F1DE25E 
 101      C128681E 
 101      F9850B
 102 010f B35643D0 		.ascii	"\263VC\320\022Mz\203`\266\220i\026\266\313I\030\214"
 102      124D7A83 
 102      60B69069 
 102      16B6CB49 
 102      188C
 103 0121 9B9D6412 		.ascii	"\233\235d\022)Zm\223@\371ju\345s\322\320\202\216\275"
 103      295A6D93 
 103      40F96A75 
 103      E573D2D0 
 103      828EBD
 104 0134 BE32C1B9 		.ascii	"\2762\301\2715}Q\273\021\333\353\346\033\267\013\330"
 104      357D51BB 
 104      11DBEBE6 
 104      1BB70BD8 
 105 0144 F1B4EC07 		.ascii	"\361\264\354\0077`\362hC9\270\217\034&\214\254\254m"
 105      3760F268 
 105      4339B88F 
 105      1C268CAC 
 105      AC6D
 106 0156 8C0F4F3B 		.ascii	"\214\017O;\235\0259\242\360`\304\011L\012\370=>FL\241"
 106      9D1539A2 
 106      F060C409 
 106      4C0AF83D 
 106      3E464CA1 
 107 016a 5380B991 		.ascii	"S\200\271\221\333\205\335F+\001\302\2038\314\022[T\352"
 107      DB85DD46 
 107      2B01C283 
 107      38CC125B 
 107      54EA
 108 017c 8EA34C6D 		.ascii	"\216\243Lm\374'\312N\357\351\177x?\374\355\375(\366"
 108      FC27CA4E 
 108      EFE97F78 
 108      3FFCEDFD 
 108      28F6
 109 018e DEFA8E84 		.ascii	"\336\372\216\204\224\0367\275\355\370b\336\243\020\326"
ARM GAS  C:\Users\Thomas\AppData\Local\Temp\cclK6V0u.s 			page 8


 109      941E37BD 
 109      EDF862DE 
 109      A310D6
 110 019d 9FB3F1A6 		.ascii	"\237\263\361\246\235\346n\215\345\222\361\0049\271\324"
 110      9DE66E8D 
 110      E592F104 
 110      39B9D4
 111 01ac 163268B1 		.ascii	"\0262h\261\365o\2449\343\247Mr\001~x\355hL\222\371\027"
 111      F56FA439 
 111      E3A74D72 
 111      017E78ED 
 111      684C92F9 
 112 01c1 60AC0448 		.ascii	"`\254\004Hu\245\217x\031/{\362\254w\252\257w\360\\\266"
 112      75A58F78 
 112      192F7BF2 
 112      AC77AAAF 
 112      77F05CB6 
 113 01d5 DF4BF7F4 		.ascii	"\337K\367\364\016\036>\220>1\2209>p\332\313\366\365"
 113      0E1E3E90 
 113      3E319039 
 113      3E70DACB 
 113      F6F5
 114 01e7 1CEBEAA7 		.ascii	"\034\353\352\247_\363\273\361{"
 114      5FF3BBF1 
 114      7B
 115              		.text
 116              		.section	.gnu.lto_WinTimer_Wakeup.bdba2063,"",%progbits
 117 0000 789C7550 		.ascii	"x\234uPM+DQ\030~\237\367\236\271&\024\311b\362\007&"
 117      4D2B4451 
 117      187E9FF7 
 117      9EB92614 
 117      C962F207 
 118 0015 6958C8D6 		.ascii	"iX\310\326\306B)5E\331LM\342.fa\246&\354&\347r\225\025"
 118      C6422935 
 118      45D94C4D 
 118      E22E6661 
 118      A626EC26 
 119 002d B2523E76 		.ascii	"\262R>v\3621\203\314\302zV\324,H\232H>J\243\306\316"
 119      F23183CC 
 119      C27A56D4 
 119      2C489A48 
 119      3E4AA3C6 
 120 0042 98856E62 		.ascii	"\230\205nb\234sG)r\352\364\236\363\234\347\243\347\030"
 120      9C734729 
 120      72EAF49E 
 120      F39CE7A3 
 120      E718
 121 0054 F47775AB 		.ascii	"\364wu\253=\015\242v5\341#\360\362\031\221\355g6N\232"
 121      3D0DA276 
 121      35E123F0 
 121      F21991ED 
 121      67364E9A 
 122 0068 48D68B7C 		.ascii	"H\326\213|/\311F\003\242\006\013@\037\0104\303\206\300"
 122      2FC94603 
 122      A2060B40 
 122      1F0834C3 
 122      86C0
ARM GAS  C:\Users\Thomas\AppData\Local\Temp\cclK6V0u.s 			page 9


 123 007a 0C9EB9CC 		.ascii	"\014\236\271\314X\316\245W\033\202[R\312\227\307B`>"
 123      58CEA557 
 123      1B825B52 
 123      CA97C742 
 123      603E
 124 008c E0325185 		.ascii	"\3402Q\205k\376\330F\220\024\247\354|\\5\230\216\342"
 124      6BFED846 
 124      9014A7EC 
 124      7C5C3598 
 124      8EE2
 125 009e 34D7DEB0 		.ascii	"4\327\336\260\003S\345\322aKNV\253\225\253\225R\027"
 125      0353E5D2 
 125      614B4E56 
 125      AB95AB95 
 125      5217
 126 00b0 9B825C56 		.ascii	"\233\202\\V`Q\021t\316\023\263\236\306-\346r\345<k\211"
 126      60511174 
 126      CE13B39E 
 126      C62DE672 
 126      E53C6B89 
 127 00c4 F6DABC5C 		.ascii	"\366\332\274\\<\340\324\273\\\220~\227\271\242\025\330"
 127      3CE0D4BB 
 127      5C907E97 
 127      B9A215D8 
 128 00d4 454A690D 		.ascii	"EJi\015\272\301\354\361\321]\266Ns\337X\374f\213\017"
 128      BAC1ECF1 
 128      D15DB64E 
 128      73DF58FC 
 128      668B0F
 129 00e7 9DADD087 		.ascii	"\235\255\320\207\342\371\205\277\304\012\361\256;\266"
 129      E2F985BF 
 129      C40AF1AE 
 129      3BB6
 130 00f5 B38E0DAC 		.ascii	"\263\216\015\254\331R\263|\330C\012i\264yo\237\231\245"
 130      D952B37C 
 130      D8430A69 
 130      B4796F9F 
 130      99A5
 131 0107 AC19EA70 		.ascii	"\254\031\352p\331DFq^\275f\330G\210\012p\256\347\342"
 131      D9444671 
 131      5EBD66D8 
 131      47880A70 
 131      AEE7E2
 132 011a 3F51A71B 		.ascii	"?Q\247\033\245\254\320\246\000\341@\313I\2270\350\244"
 132      A5ACD0A6 
 132      00E140CB 
 132      499730E8 
 132      A4
 133 012b C9EBE0E6 		.ascii	"\311\353\340\346[\377\353\240Lq\370\335Ak\204W\374\036"
 133      5BFFEBA0 
 133      4C71F8DD 
 133      416B8457 
 133      FC1E
 134 013d 76AE3AE0 		.ascii	"v\256:\340iH\177\0134\252\250\301\316H\277\025\267\222"
 134      69487F0B 
 134      34AAA8C1 
 134      CE48BF15 
ARM GAS  C:\Users\Thomas\AppData\Local\Temp\cclK6V0u.s 			page 10


 134      B792
 135 014f A393D678 		.ascii	"\243\223\326xt(1\225\034\263\"\341\241D_Od$\026\037"
 135      74283195 
 135      1CB322E1 
 135      A1445F4F 
 135      6424161F 
 136 0163 8E4D58C9 		.ascii	"\216MX\311hx\260s\214\276\000\0050\225\017"
 136      6878B073 
 136      8CBE0005 
 136      30950F
 137              		.text
 138              		.section	.gnu.lto_.symbol_nodes.bdba2063,"",%progbits
 139 0000 789C55CF 		.ascii	"x\234U\317\273\015\302@\020\004\320\271\331\373\272"
 139      BB0DC240 
 139      1004D0B9 
 139      D9FBBA
 140 000f 067A1D07 		.ascii	"\006z\035\007\024@\005\310Bn\303\231c\327\000\024\202"
 140      144005C8 
 140      426EC399 
 140      63D70014 
 140      82
 141 0020 B8130E96 		.ascii	"\270\023\016\226MFo6\3315\000o\234\303 \340v\000\022"
 141      4D466F36 
 141      D935006F 
 141      9CC320E0 
 141      760012
 142 0033 EE4B4502 		.ascii	"\356KE\002\026\312H\005_\323\304?G\231w\310\212?c\236"
 142      16CA4805 
 142      5FD3C43F 
 142      479977C8 
 142      8A3F639E 
 143 0047 3B939267 		.ascii	";\223\222gU\366,*\236M\325sRs4d\254\317O\260~\332\372"
 143      55F62C2A 
 143      9E4DD573 
 143      52733464 
 143      ACCF4FB0 
 144 005e EAC98A7D 		.ascii	"\352\311\212}\230\005\373\260\2653\373W##\361\030\373"
 144      9805FBB0 
 144      B533FB57 
 144      2323F118 
 144      FB
 145 006f 38E1BA5D 		.ascii	"8\341\272]\360\005F\023;H"
 145      F0054613 
 145      3B48
 146              		.text
 147              		.section	.gnu.lto_.refs.bdba2063,"",%progbits
 148 0000 789C25C8 		.ascii	"x\234%\310\301\021\000 \014\204@\310E+\261\377\032\315"
 148      C1110020 
 148      0C8440C8 
 148      452BB1FF 
 148      1ACD
 149 0012 282F6603 		.ascii	"(/f\003\034~AK[wj\036GV\345\321\262\261\270\013\204"
 149      1C7E414B 
 149      5B776A1E 
 149      4756E5D1 
 149      B2B1B80B 
 150 0027 0068     		.ascii	"\000h"
ARM GAS  C:\Users\Thomas\AppData\Local\Temp\cclK6V0u.s 			page 11


 151              		.text
 152              		.section	.gnu.lto_.decls.bdba2063,"",%progbits
 153 0000 789C8556 		.ascii	"x\234\205VmLSW\030\276\247\247\226R\333b\206\303\205"
 153      6D4C5357 
 153      18BEA7A7 
 153      9652DB62 
 153      86C385
 154 0013 6CB1C185 		.ascii	"l\261\301\205\271\305\030\367c\213\377fB\214[\026\027"
 154      B9C518F7 
 154      638BFF66 
 154      428C5B16 
 154      17
 155 0024 2273261B 		.ascii	"\"s&\033\211\251x\247\004\006\244\264K\314~\354\012"
 155      89A978A7 
 155      0406A4B4 
 155      4BCC7EEC 
 155      0A
 156 0035 22587456 		.ascii	"\"XtV\346f\305\350j\212\"\010\005\361\203o\241(\037"
 156      E666C5E8 
 156      6A8A2208 
 156      05F1836F 
 156      A1281F
 157 0048 82809B88 		.ascii	"\202\200\233\210\202\"\005\024\020\220U\206\212J\322"
 157      82220514 
 157      10905586 
 157      8A4AD2
 158 0057 BDE7DC7B 		.ascii	"\275\347\334{\333{\011\2157y\313=\367\274\317\363>\357"
 158      DB7B098D 
 158      3779CB3D 
 158      F7BCCFF3 
 158      3EEF
 159 0069 73CEB917 		.ascii	"s\316\271\027\3140\314\003\3040>\270\276\017e\0307\334"
 159      CC30CC03 
 159      C4303EB8 
 159      BE0F6518 
 159      37DC
 160 007b 2F8167B1 		.ascii	"/\201g\261L\340\322@\224@\270 \312!* j \256C\264A\334"
 160      4CE0D240 
 160      9440B820 
 160      CA212A20 
 160      6A20AE43 
 161 0092 84E882B8 		.ascii	"\204\350\202\270\005\001pf\230\221_\004\253\0238\015"
 161      05017066 
 161      98915F04 
 161      AB13380D 
 162 00a2 10111023 		.ascii	"\020\021\020#\020M\020\217 <\020n\210'\020c\020W & "
 162      104D108F 
 162      203C106E 
 162      88271063 
 162      10572026 
 163 00b7 AA203044 		.ascii	"\252 0D?\321\010\321'\214K\204\3325A\352\271\026\251"
 163      3FD108D1 
 163      278C4B84 
 163      DA3541EA 
 163      B916A9
 164 00ca 27AD3309 		.ascii	"'\2553\011\321.\324\021kNA\264\004\251\347\022zl\013"
 164      D12ED411 
ARM GAS  C:\Users\Thomas\AppData\Local\Temp\cclK6V0u.s 			page 12


 164      6B4E41B4 
 164      04A9E712 
 164      7A6C0B
 165 00dd 52AF5CF0 		.ascii	"R\257\\\360(V\2505-\341\025\353\222Z^\210\"\201c@\340"
 165      2856A835 
 165      2DE115EB 
 165      925A5E88 
 165      22816340 
 166 00f2 2E17BC2B 		.ascii	".\027\274+\011\302M\274\016\221p\213\034R^)_\205\240"
 166      09C24DBC 
 166      0E91708B 
 166      1C525E29 
 166      5F85A0
 167 0105 37D85A3C 		.ascii	"7\330Z<S\240j\327l\347\322q\005\322k\014dX\223\327f"
 167      53A06AD7 
 167      6CE7D271 
 167      05D26B0C 
 167      645893D7 
 168 011a 57C150AB 		.ascii	"W\301P\253Q\222a\355\233\341\036\345\212?8\270l\231"
 168      519261ED 
 168      9BE11EE5 
 168      8A3F38B8 
 168      6C99
 169 012c DC32258A 		.ascii	"\3342%\212\215@\205(\022\235C\221\300X\204V\300\357"
 169      8D408528 
 169      129D4391 
 169      C0588456 
 169      C0EF
 170 013e 0F4A9EC9 		.ascii	"\017J\236\311Z2=\250\305\012D\356\235\366\241\036\315"
 170      5A323DA8 
 170      C50A44EE 
 170      9DF6A11E 
 170      CD
 171 014f 9A6280E5 		.ascii	"\232b\200\345p\215^E\240\\\351\353l/2\234\342<\345\336"
 171      708D5E45 
 171      A05CE9EB 
 171      6C2F329C 
 171      E23CE5DE 
 172 0163 FA2B7D5A 		.ascii	"\372+}Z\256\215k\364\371\276\240T\250\030at\036\255"
 172      AE8D6BF4 
 172      F9BEA054 
 172      A8186174 
 172      1EAD
 173 0175 2199E49E 		.ascii	"!\231\344\236BP\0112\000l\246\310v_\2177R\356\366\252"
 173      42500932 
 173      006CA6C8 
 173      765F8F37 
 173      52EEF6AA 
 174 0189 DFF39594 		.ascii	"\337\363\225\224\302q\322\251\342\011(\276T\202/\025"
 174      C271D2A9 
 174      E20928BE 
 174      54822F15 
 175 0199 F12E8ACF 		.ascii	"\361.\212\317{\323W\027\202\343)~\2667\343\226\002\360"
 175      7BD35717 
 175      82E3297E 
 175      B637E396 
 175      02F0
ARM GAS  C:\Users\Thomas\AppData\Local\Temp\cclK6V0u.s 			page 13


 176 01ab 8E72C7B8 		.ascii	"\216r\307\270\014_&\301\227\211\370r\212\037/\237oT"
 176      0C5F26C1 
 176      9789F872 
 176      8A1F2F9F 
 176      6F54
 177 01bd E2248AEF 		.ascii	"\342$\212\357(\271>\205x\274\353\214\024\177A\202\277"
 177      28B93E85 
 177      78BCEB8C 
 177      147F4182 
 177      BF
 178 01ce 20E22B28 		.ascii	" \342+(\276\267!;[\215\177\241\370\275gk\017\206\200"
 178      BEB7213B 
 178      5B8D7FA1 
 178      F8BD676B 
 178      0F8680
 179 01e1 C5111AEA 		.ascii	"\305\021\032\352\310o\035\371nL\207>2\255\350\353;\372"
 179      C86F1DF9 
 179      6E4C873E 
 179      32ADE8EB 
 179      3BFA
 180 01f3 0A234D74 		.ascii	"\012#Mt\016\307ep\336<\016\277\307\2405\221\350\343"
 180      0EC76570 
 180      DE3C0EBF 
 180      C7A03591 
 180      E8E3
 181 0205 480655A2 		.ascii	"H\006U\242hH\2435\320%X\205\313\260\012\005\340\261"
 181      6848A335 
 181      D0255885 
 181      CBB00A05 
 181      E0B1
 182 0217 F74073F1 		.ascii	"\367@s\361\327\231\334\006t\005i\320E\277\012ZA\360"
 182      D799DC06 
 182      740569D0 
 182      45BF0A5A 
 182      41F0
 183 0229 FDC0BE72 		.ascii	"\375\300\276r,]G\222\031X\310*\331B\216v\236?\251\304"
 183      2C5D4792 
 183      1958C82A 
 183      D9428E76 
 183      9E3FA9C4 
 184 023d 6710555B 		.ascii	"g\020U[a\263\327\021\267<\234\327:6\263\373H\246\255"
 184      61B3D711 
 184      B73C9CD7 
 184      3A36B3FB 
 184      48A6AD
 185 0250 80F3F87C 		.ascii	"\200\363\370|+)\010UKZ\256\026[\256\241-w\014\317\375"
 185      2B290855 
 185      4B5AAE16 
 185      5BAEA12D 
 185      770CCFFD 
 186 0264 A7A51B6B 		.ascii	"\247\245\033k\031\341\311\277\373x\026\323\215\245 "
 186      19E1C9BF 
 186      FB7816D3 
 186      8DA520
 187 0273 C39333D3 		.ascii	"\303\2233\323u\241x\014\311\0341\360\216\034\233\234"
 187      75A1780C 
 187      C91C31F0 
ARM GAS  C:\Users\Thomas\AppData\Local\Temp\cclK6V0u.s 			page 14


 187      8E1C9B9C 
 188 0283 BBA4A643 		.ascii	"\273\244\246C\237\017\023K\336\214\270\012U(Z\303\367"
 188      9F0F134B 
 188      DE8CB80A 
 188      55285AC3 
 188      F7
 189 0294 FA98EFD5 		.ascii	"\372\230\357\325\015\035\324\007z5\010\275R\333\270"
 189      0D1DD407 
 189      7A3508BD 
 189      52DBB8
 190 02a3 4C6EC939 		.ascii	"Ln\3119=\203j\241\303:\350\0205\202s\006\301\271\253"
 190      3D836AA1 
 190      C33AE810 
 190      35827306 
 190      C1B9AB
 191 02b6 F0B0011E 		.ascii	"\360\260\001\036B\245WY\235\2032[\3342[\232d\266\334"
 191      42A55759 
 191      9D83325B 
 191      DC325B9A 
 191      64B6DC
 192 02c9 D8EFCCD5 		.ascii	"\330\357\314\325\342i^r\331\313\236|\235`K\341\213/"
 192      E2695E72 
 192      D9CB9E7C 
 192      9D604BE1 
 192      8B2F
 193 02db 25B60008 		.ascii	"%\266\000\010]\223\330rM\264\345:\265\305\226\345\266"
 193      5D93D872 
 193      4DB4E53A 
 193      B5C596E5 
 193      B6
 194 02ec 29957022 		.ascii	")\225p\"\350\022\374@O\331s\337\320\031E\320S\326BU"
 194      E812FC40 
 194      4FD973DF 
 194      D01945D0 
 194      53D64255 
 195 0300 342341C6 		.ascii	"4#A\306\301\241\376\303\2418\223?g]\335\256\031=\225"
 195      C1A1FEC3 
 195      A138933F 
 195      675DDDAE 
 195      193D95
 196 0313 E1B9E96C 		.ascii	"\341\271\351l\325:\304\343\004\030\324*\021\321*\212"
 196      D53AC4E3 
 196      0418D42A 
 196      11D12A8A 
 197 0323 68A322EA 		.ascii	"h\243\"\352\012&\246\227R\021n\277\210\301\313/*5AE"
 197      0A26A697 
 197      52116EBF 
 197      88C1CB2F 
 197      2A354145 
 198 0337 B4531137 		.ascii	"\264S\0217D\021O\271\333\003j|\232\027Q\371\352y\246"
 198      44114FB9 
 198      DB036A7C 
 198      9A1751F9 
 198      EA79A6
 199 034a 9217D1EF 		.ascii	"\222\027\321\357l\011\210\000\014\352\220\210\350\020"
 199      6C098800 
 199      0CEA9088 
ARM GAS  C:\Users\Thomas\AppData\Local\Temp\cclK6V0u.s 			page 15


 199      E810
 200 0358 45DCA422 		.ascii	"E\334\244\"\262O4\304\340J\236\242\311\223[\255\245"
 200      B24F34C4 
 200      E04A9EA2 
 200      C9935BAD 
 200      A5
 201 0369 148E5AE7 		.ascii	"\024\216Z\347~\203\344PuJ\010:E\202.J\320\335\227\325"
 201      7E83E450 
 201      754A083A 
 201      45822E4A 
 201      D0DD97D5 
 202 037d A0C3CD3C 		.ascii	"\240\303\315<C\331\241\214\013j^\304\211f\266i\0377"
 202      43D9A18C 
 202      0B6A5EC4 
 202      8966B669 
 202      1F37
 203 038f 4F360FA5 		.ascii	"O6\017\245\350\226Pt\213\024\267(\305\340\313\301\246"
 203      E8965074 
 203      8B14B728 
 203      C5E0CBC1 
 203      A6
 204 03a0 10BA49D7 		.ascii	"\020\272I\327\021\222\274\254\252*=\335\244*z4\357\035"
 204      1192BCAC 
 204      AA2A3DDD 
 204      A42A7A34 
 204      EF1D
 205 03b2 B569F11D 		.ascii	"\265i\361\035\276\300\263\372CN\015\236\344\007\307"
 205      BEC0B3FA 
 205      434E0D9E 
 205      E407C7
 206 03c1 5AAFBDC6 		.ascii	"Z\257\275\306x\236\037\354\253?k\013\301Y\230\016FO"
 206      789E1FEC 
 206      AB3F6B0B 
 206      C159980E 
 206      464F
 207 03d3 1DEF0DC3 		.ascii	"\035\357\015\303v~pn\270+OG\351W\303P\225{$\357\201"
 207      767E706E 
 207      B82B4F47 
 207      E957C350 
 207      957B24EF 
 208 03e8 0E454585 		.ascii	"\016EE\205GEE;`\237z\376\032i_\312\331\327\321\255p"
 208      4745453B 
 208      609F7AFE 
 208      1A695FCA 
 208      D9D7D1AD 
 209 03fd 1754DE47 		.ascii	"\027T\336G\341\342Y_M\\\277G\274gh\252=\323\252\345"
 209      E1E2595F 
 209      4D5CBF47 
 209      BC6768AA 
 209      3DD3AAE5 
 210 0411 CEADA30B 		.ascii	"\316\255\243\013vGH\365oo\232\\K\223\217\320\005\344"
 210      764748F5 
 210      6F6F9A5C 
 210      4B938FD0 
 210      05E4
 211 0423 B80D2606 		.ascii	"\270\015&\006\375\015\363\377\320\345#\331`\001z\010"
 211      FD0DF3FF 
ARM GAS  C:\Users\Thomas\AppData\Local\Temp\cclK6V0u.s 			page 16


 211      D0E523D9 
 211      60017A08 
 212 0433 E7600045 		.ascii	"\347`\000E\241~\210\007\020}(\212\332AK\034\037i\365"
 212      A17E8807 
 212      107D288A 
 212      DA414B1C 
 212      1F69F5
 213 0446 ABE95D44 		.ascii	"\253\351]DMa@\315\241\221\026\177j\317\"\251\237\220"
 213      4D6140CD 
 213      A191167F 
 213      6ACF22A9 
 213      9F90
 214 0458 4C725C3D 		.ascii	"Lr\\=\271N\025\207\310<#\256\201\370NR\374Y\332t\017"
 214      B94E1587 
 214      C83C23AE 
 214      81F84E52 
 214      FC59DA74 
 215 046d A3E8709A 		.ascii	"\243\350p\232w>F\215<\300r;p\244\011\210^\213\365\204"
 215      773E468D 
 215      3CC0723B 
 215      70A40988 
 215      5E8BF584 
 216 0481 06A195B7 		.ascii	"\006\241\225\267\265\005K\340\031\264f\351q)\277\036"
 216      B5054BE0 
 216      19B466E9 
 216      7129BF1E 
 217 0491 B3F3FB2F 		.ascii	"\263\363\373/*V\235\3468\207\267\276\177\016\355\345"
 217      2A569DE6 
 217      3887B7BE 
 217      7F0EEDE5 
 218 04a1 1CF0AE20 		.ascii	"\034\360\256 ;\215\226\036\342KKl\033\342w\013\032F"
 218      3B8D961E 
 218      E24B4B6C 
 218      1BE2770B 
 218      1A46
 219 04b3 ABC8A61F 		.ascii	"\253\310\246\037.\266\251\264V\362\202\201\023\022\332"
 219      2EB6A9B4 
 219      56F28281 
 219      1312DA
 220 04c2 A6A7673D 		.ascii	"\246\247g=pFF\220\226f\303_\362\376\233\250\031\322"
 220      70464690 
 220      9666C35F 
 220      F2FE9BA8 
 220      19D2
 221 04d4 C9B2498D 		.ascii	"\311\262I\215@\366#!\373\021\315\346\216\345\026\250"
 221      40F62321 
 221      FB11CDE6 
 221      8EE516A8 
 222 04e4 713D2FF3 		.ascii	"q=/\363\362\013k\265N\223C^co\377\000\200\221=]\326"
 222      F20B6BB5 
 222      4E93435E 
 222      636FFF00 
 222      80913D5D 
 223 04f9 DE50FE93 		.ascii	"\336P\376\223\261\0201\036\364\223\221\325\240\275\301"
 223      B110311E 
 223      F49391D5 
 223      A0BDC1
ARM GAS  C:\Users\Thomas\AppData\Local\Temp\cclK6V0u.s 			page 17


 224 0508 716A3406 		.ascii	"qj4\006K\3708`\372(\222|4\206\363;\265\262\026\306d"
 224      4BF83860 
 224      FA28927C 
 224      3486F33B 
 224      B5B216C6 
 225 051d EFC72742 		.ascii	"\357\307'B\013Oh\013s\247\207F\303d\331U2{&\204\354"
 225      0B4F680B 
 225      73A78746 
 225      C364D955 
 225      327B2684 
 226 0532 099ADD5F 		.ascii	"\011\232\335_\343\036\220\333\323.\313\236\024\262'"
 226      E31E90DB 
 226      D32ECB9E 
 226      14B227
 227 0541 69B62DEF 		.ascii	"i\266-\357\304\325PYv\213,{J\310\236\"\331\330]\350"
 227      C4D55059 
 227      768B2C7B 
 227      4AC89E22 
 227      D9D85DE8 
 228 0555 EED7A048 		.ascii	"\356\327\240HM\244\035\376\375\230[\211\246\241\247"
 228      4DA41DFE 
 228      FD985B89 
 228      A6A1A7
 229 0564 1CB287BC 		.ascii	"\034\262\207\274\031\034\266\353Es\030:\301\240\177"
 229      191CB6EB 
 229      4573183A 
 229      C1A07F
 230 0573 81E629D0 		.ascii	"\201\346)\320\220\354\306q\237\357W\037\177\035\016"
 230      90ECC671 
 230      9FEF571F 
 230      7F1D0E
 231 0582 A109E407 		.ascii	"\241\011\344\007$<\2647Z\2252\011E2\011^\244\025=\204"
 231      243CB437 
 231      5A953209 
 231      4532095E 
 231      A4153D84 
 232 0596 5B267C5B 		.ascii	"[&|[b\312\267\211?\261\246\355q\306\237\331\230\324"
 232      62CAB789 
 232      3FB1A6ED 
 232      71C69FD9 
 232      98D4
 233 05a8 941F1377 		.ascii	"\224\037\023w\2516}\263\325\020\303|\2646~\023\233\302"
 233      A9367DB3 
 233      D510C37C 
 233      B4367E13 
 233      9BC2
 234 05ba 9A8C6676 		.ascii	"\232\214fv\347\366\270T\213)\201\215\217\215K\215\371"
 234      E7F6B854 
 234      8B29818D 
 234      8F8D4B8D 
 234      F9
 235 05cb 2CDE8F89 		.ascii	",\336\217\211\335\2746\201\211\360\017\267\260\351\346"
 235      DDBC3681 
 235      89F00FB7 
 235      B0E9E6
 236 05da 5493C0A2 		.ascii	"T\223\300\242\0170'\263lZ\230\177\270\315\230\304Z\322"
 236      0F3027B3 
ARM GAS  C:\Users\Thomas\AppData\Local\Temp\cclK6V0u.s 			page 18


 236      6C5A987F 
 236      B8CD98C4 
 236      5AD2
 237 05ec 96581253 		.ascii	"\226X\022S\314\353W\005\255\221\260\307\274'\215M_\273"
 237      CCEB5705 
 237      AD91B0C7 
 237      BC278D4D 
 237      5FBB
 238 05fe 9B795FC2 		.ascii	"\233y_\302o\334\011\344fSj\362\026vWb\272\2315}\370"
 238      6FDC09E4 
 238      66536AF2 
 238      16765762 
 238      BA99357D 
 239 0613 5691C0A0 		.ascii	"V\221\300\240\"\265>\375|\371\002\"K\012\020|\020\320"
 239      22B53EFD 
 239      7CF90222 
 239      4B0A107C 
 239      10D0
 240 0625 654A34B3 		.ascii	"eJ4\263\013\350\337]8K1\272@k\346TIg\033S\214;\222\331"
 240      0BE8DF5D 
 240      384B31BA 
 240      406BE654 
 240      49671B53 
 241 063d 00668731 		.ascii	"\000f\2071!\311\222\026g6Y\022\314\313\350#>#\316\014"
 241      21C99216 
 241      67365912 
 241      CCCBE823 
 241      3E23CE0C 
 242 0651 72D5F4C1 		.ascii	"r\325\364\301\326\235;\336\371\212p\232,i\346\315\306"
 242      D69D3BDE 
 242      F98A709A 
 242      2C69E6CD 
 242      C6
 243 0662 F4A4EF8C 		.ascii	"\364\244\357\214\311\026v9\235[\240%l\001\257\322\304"
 243      C9167639 
 243      9D5BA025 
 243      6C01AFD2 
 243      C4
 244 0673 EE5AFF3F 		.ascii	"\356Z\377?jW\277\331"
 244      6A57BFD9 
 245              		.text
 246              		.section	.gnu.lto_.symtab.bdba2063,"",%progbits
 247 0000 57696E54 		.ascii	"WinTimer_SaveConfig\000\000\000\000\000\000\000\000"
 247      696D6572 
 247      5F536176 
 247      65436F6E 
 247      66696700 
 248 001b 00000000 		.ascii	"\000\000\000\000\254\000\000\000WinTimer_RestoreCon"
 248      AC000000 
 248      57696E54 
 248      696D6572 
 248      5F526573 
 249 0036 66696700 		.ascii	"fig\000\000\000\000\000\000\000\000\000\000\000\000"
 249      00000000 
 249      00000000 
 249      000000
 250 0045 AE000000 		.ascii	"\256\000\000\000WinTimer_Sleep\000\000\000\000\000\000"
ARM GAS  C:\Users\Thomas\AppData\Local\Temp\cclK6V0u.s 			page 19


 250      57696E54 
 250      696D6572 
 250      5F536C65 
 250      65700000 
 251 005d 00000000 		.ascii	"\000\000\000\000\000\000\260\000\000\000WinTimer_Wa"
 251      0000B000 
 251      00005769 
 251      6E54696D 
 251      65725F57 
 252 0072 6B657570 		.ascii	"keup\000\000\000\000\000\000\000\000\000\000\000\000"
 252      00000000 
 252      00000000 
 252      00000000 
 253 0082 B2000000 		.ascii	"\262\000\000\000WinTimer_ReadControlRegister\000\000"
 253      57696E54 
 253      696D6572 
 253      5F526561 
 253      64436F6E 
 254 00a4 02000000 		.ascii	"\002\000\000\000\000\000\000\000\000\000\272\000\000"
 254      00000000 
 254      0000BA00 
 254      00
 255 00b1 0057696E 		.ascii	"\000WinTimer_ReadCounter\000\000\002\000\000\000\000"
 255      54696D65 
 255      725F5265 
 255      6164436F 
 255      756E7465 
 256 00cd 00000000 		.ascii	"\000\000\000\000\000\304\000\000\000WinTimer_WriteC"
 256      00C40000 
 256      0057696E 
 256      54696D65 
 256      725F5772 
 257 00e5 6F6E7472 		.ascii	"ontrolRegister\000\000\002\000\000\000\000\000\000\000"
 257      6F6C5265 
 257      67697374 
 257      65720000 
 257      02000000 
 258 00fd 0000C800 		.ascii	"\000\000\310\000\000\000WinTimer_WriteCounter\000\000"
 258      00005769 
 258      6E54696D 
 258      65725F57 
 258      72697465 
 259 011a 02000000 		.ascii	"\002\000\000\000\000\000\000\000\000\000\314\000\000"
 259      00000000 
 259      0000CC00 
 259      00
 260 0127 0057696E 		.ascii	"\000WinTimer_Stop\000\000\002\000\000\000\000\000\000"
 260      54696D65 
 260      725F5374 
 260      6F700000 
 260      02000000 
 261 013e 000000CE 		.ascii	"\000\000\000\316\000\000\000WinTimer_Enable\000\000"
 261      00000057 
 261      696E5469 
 261      6D65725F 
 261      456E6162 
 262 0156 02000000 		.ascii	"\002\000\000\000\000\000\000\000\000\000\320\000\000"
ARM GAS  C:\Users\Thomas\AppData\Local\Temp\cclK6V0u.s 			page 20


 262      00000000 
 262      0000D000 
 262      00
 263 0163 00       		.ascii	"\000"
 264              		.text
 265              		.section	.gnu.lto_.opts,"",%progbits
 266 0000 272D666E 		.ascii	"'-fno-trapv' '-mcpu=cortex-m3' '-mthumb' '-g' '-O3'"
 266      6F2D7472 
 266      61707627 
 266      20272D6D 
 266      6370753D 
 267 0033 20272D66 		.ascii	" '-ffunction-sections' '-finline-functions' '-flto'"
 267      66756E63 
 267      74696F6E 
 267      2D736563 
 267      74696F6E 
 268 0066 20272D66 		.ascii	" '-ffat-lto-objects'\000"
 268      6661742D 
 268      6C746F2D 
 268      6F626A65 
 268      63747327 
 269              		.text
 270              		.cfi_sections	.debug_frame
 271              		.section	.text.WinTimer_SaveConfig,"ax",%progbits
 272              		.align	2
 273              		.global	WinTimer_SaveConfig
 274              		.thumb
 275              		.thumb_func
 276              		.type	WinTimer_SaveConfig, %function
 277              	WinTimer_SaveConfig:
 278              	.LFB0:
 279              		.file 1 ".\\Generated_Source\\PSoC5\\WinTimer_PM.c"
   1:.\Generated_Source\PSoC5/WinTimer_PM.c **** /*******************************************************************************
   2:.\Generated_Source\PSoC5/WinTimer_PM.c **** * File Name: WinTimer_PM.c
   3:.\Generated_Source\PSoC5/WinTimer_PM.c **** * Version 2.70
   4:.\Generated_Source\PSoC5/WinTimer_PM.c **** *
   5:.\Generated_Source\PSoC5/WinTimer_PM.c **** *  Description:
   6:.\Generated_Source\PSoC5/WinTimer_PM.c **** *     This file provides the power management source code to API for the
   7:.\Generated_Source\PSoC5/WinTimer_PM.c **** *     Timer.
   8:.\Generated_Source\PSoC5/WinTimer_PM.c **** *
   9:.\Generated_Source\PSoC5/WinTimer_PM.c **** *   Note:
  10:.\Generated_Source\PSoC5/WinTimer_PM.c **** *     None
  11:.\Generated_Source\PSoC5/WinTimer_PM.c **** *
  12:.\Generated_Source\PSoC5/WinTimer_PM.c **** *******************************************************************************
  13:.\Generated_Source\PSoC5/WinTimer_PM.c **** * Copyright 2008-2014, Cypress Semiconductor Corporation.  All rights reserved.
  14:.\Generated_Source\PSoC5/WinTimer_PM.c **** * You may use this file only in accordance with the license, terms, conditions,
  15:.\Generated_Source\PSoC5/WinTimer_PM.c **** * disclaimers, and limitations in the end user license agreement accompanying
  16:.\Generated_Source\PSoC5/WinTimer_PM.c **** * the software package with which this file was provided.
  17:.\Generated_Source\PSoC5/WinTimer_PM.c **** ********************************************************************************/
  18:.\Generated_Source\PSoC5/WinTimer_PM.c **** 
  19:.\Generated_Source\PSoC5/WinTimer_PM.c **** #include "WinTimer.h"
  20:.\Generated_Source\PSoC5/WinTimer_PM.c **** 
  21:.\Generated_Source\PSoC5/WinTimer_PM.c **** static WinTimer_backupStruct WinTimer_backup;
  22:.\Generated_Source\PSoC5/WinTimer_PM.c **** 
  23:.\Generated_Source\PSoC5/WinTimer_PM.c **** 
  24:.\Generated_Source\PSoC5/WinTimer_PM.c **** /*******************************************************************************
  25:.\Generated_Source\PSoC5/WinTimer_PM.c **** * Function Name: WinTimer_SaveConfig
ARM GAS  C:\Users\Thomas\AppData\Local\Temp\cclK6V0u.s 			page 21


  26:.\Generated_Source\PSoC5/WinTimer_PM.c **** ********************************************************************************
  27:.\Generated_Source\PSoC5/WinTimer_PM.c **** *
  28:.\Generated_Source\PSoC5/WinTimer_PM.c **** * Summary:
  29:.\Generated_Source\PSoC5/WinTimer_PM.c **** *     Save the current user configuration
  30:.\Generated_Source\PSoC5/WinTimer_PM.c **** *
  31:.\Generated_Source\PSoC5/WinTimer_PM.c **** * Parameters:
  32:.\Generated_Source\PSoC5/WinTimer_PM.c **** *  void
  33:.\Generated_Source\PSoC5/WinTimer_PM.c **** *
  34:.\Generated_Source\PSoC5/WinTimer_PM.c **** * Return:
  35:.\Generated_Source\PSoC5/WinTimer_PM.c **** *  void
  36:.\Generated_Source\PSoC5/WinTimer_PM.c **** *
  37:.\Generated_Source\PSoC5/WinTimer_PM.c **** * Global variables:
  38:.\Generated_Source\PSoC5/WinTimer_PM.c **** *  WinTimer_backup:  Variables of this global structure are modified to
  39:.\Generated_Source\PSoC5/WinTimer_PM.c **** *  store the values of non retention configuration registers when Sleep() API is
  40:.\Generated_Source\PSoC5/WinTimer_PM.c **** *  called.
  41:.\Generated_Source\PSoC5/WinTimer_PM.c **** *
  42:.\Generated_Source\PSoC5/WinTimer_PM.c **** *******************************************************************************/
  43:.\Generated_Source\PSoC5/WinTimer_PM.c **** void WinTimer_SaveConfig(void) 
  44:.\Generated_Source\PSoC5/WinTimer_PM.c **** {
 280              		.loc 1 44 0
 281              		.cfi_startproc
 282              		@ args = 0, pretend = 0, frame = 0
 283              		@ frame_needed = 0, uses_anonymous_args = 0
 284 0000 10B5     		push	{r4, lr}
 285              		.cfi_def_cfa_offset 8
 286              		.cfi_offset 4, -8
 287              		.cfi_offset 14, -4
  45:.\Generated_Source\PSoC5/WinTimer_PM.c ****     #if (!WinTimer_UsingFixedFunction)
  46:.\Generated_Source\PSoC5/WinTimer_PM.c ****         WinTimer_backup.TimerUdb = WinTimer_ReadCounter();
 288              		.loc 1 46 0
 289 0002 FFF7FEFF 		bl	WinTimer_ReadCounter
 290              	.LVL0:
  47:.\Generated_Source\PSoC5/WinTimer_PM.c ****         WinTimer_backup.InterruptMaskValue = WinTimer_STATUS_MASK;
 291              		.loc 1 47 0
 292 0006 044B     		ldr	r3, .L3
  46:.\Generated_Source\PSoC5/WinTimer_PM.c ****         WinTimer_backup.InterruptMaskValue = WinTimer_STATUS_MASK;
 293              		.loc 1 46 0
 294 0008 044C     		ldr	r4, .L3+4
 295              		.loc 1 47 0
 296 000a 1B78     		ldrb	r3, [r3]	@ zero_extendqisi2
  46:.\Generated_Source\PSoC5/WinTimer_PM.c ****         WinTimer_backup.InterruptMaskValue = WinTimer_STATUS_MASK;
 297              		.loc 1 46 0
 298 000c 6080     		strh	r0, [r4, #2]	@ movhi
 299              		.loc 1 47 0
 300 000e 2371     		strb	r3, [r4, #4]
  48:.\Generated_Source\PSoC5/WinTimer_PM.c ****         #if (WinTimer_UsingHWCaptureCounter)
  49:.\Generated_Source\PSoC5/WinTimer_PM.c ****             WinTimer_backup.TimerCaptureCounter = WinTimer_ReadCaptureCount();
  50:.\Generated_Source\PSoC5/WinTimer_PM.c ****         #endif /* Back Up capture counter register  */
  51:.\Generated_Source\PSoC5/WinTimer_PM.c **** 
  52:.\Generated_Source\PSoC5/WinTimer_PM.c ****         #if(!WinTimer_UDB_CONTROL_REG_REMOVED)
  53:.\Generated_Source\PSoC5/WinTimer_PM.c ****             WinTimer_backup.TimerControlRegister = WinTimer_ReadControlRegister();
 301              		.loc 1 53 0
 302 0010 FFF7FEFF 		bl	WinTimer_ReadControlRegister
 303              	.LVL1:
 304 0014 6071     		strb	r0, [r4, #5]
 305 0016 10BD     		pop	{r4, pc}
 306              	.L4:
ARM GAS  C:\Users\Thomas\AppData\Local\Temp\cclK6V0u.s 			page 22


 307              		.align	2
 308              	.L3:
 309 0018 8B650040 		.word	1073767819
 310 001c 00000000 		.word	.LANCHOR0
 311              		.cfi_endproc
 312              	.LFE0:
 313              		.size	WinTimer_SaveConfig, .-WinTimer_SaveConfig
 314              		.section	.text.WinTimer_RestoreConfig,"ax",%progbits
 315              		.align	2
 316              		.global	WinTimer_RestoreConfig
 317              		.thumb
 318              		.thumb_func
 319              		.type	WinTimer_RestoreConfig, %function
 320              	WinTimer_RestoreConfig:
 321              	.LFB1:
  54:.\Generated_Source\PSoC5/WinTimer_PM.c ****         #endif /* Backup the enable state of the Timer component */
  55:.\Generated_Source\PSoC5/WinTimer_PM.c ****     #endif /* Backup non retention registers in UDB implementation. All fixed function registers ar
  56:.\Generated_Source\PSoC5/WinTimer_PM.c **** }
  57:.\Generated_Source\PSoC5/WinTimer_PM.c **** 
  58:.\Generated_Source\PSoC5/WinTimer_PM.c **** 
  59:.\Generated_Source\PSoC5/WinTimer_PM.c **** /*******************************************************************************
  60:.\Generated_Source\PSoC5/WinTimer_PM.c **** * Function Name: WinTimer_RestoreConfig
  61:.\Generated_Source\PSoC5/WinTimer_PM.c **** ********************************************************************************
  62:.\Generated_Source\PSoC5/WinTimer_PM.c **** *
  63:.\Generated_Source\PSoC5/WinTimer_PM.c **** * Summary:
  64:.\Generated_Source\PSoC5/WinTimer_PM.c **** *  Restores the current user configuration.
  65:.\Generated_Source\PSoC5/WinTimer_PM.c **** *
  66:.\Generated_Source\PSoC5/WinTimer_PM.c **** * Parameters:
  67:.\Generated_Source\PSoC5/WinTimer_PM.c **** *  void
  68:.\Generated_Source\PSoC5/WinTimer_PM.c **** *
  69:.\Generated_Source\PSoC5/WinTimer_PM.c **** * Return:
  70:.\Generated_Source\PSoC5/WinTimer_PM.c **** *  void
  71:.\Generated_Source\PSoC5/WinTimer_PM.c **** *
  72:.\Generated_Source\PSoC5/WinTimer_PM.c **** * Global variables:
  73:.\Generated_Source\PSoC5/WinTimer_PM.c **** *  WinTimer_backup:  Variables of this global structure are used to
  74:.\Generated_Source\PSoC5/WinTimer_PM.c **** *  restore the values of non retention registers on wakeup from sleep mode.
  75:.\Generated_Source\PSoC5/WinTimer_PM.c **** *
  76:.\Generated_Source\PSoC5/WinTimer_PM.c **** *******************************************************************************/
  77:.\Generated_Source\PSoC5/WinTimer_PM.c **** void WinTimer_RestoreConfig(void) 
  78:.\Generated_Source\PSoC5/WinTimer_PM.c **** {   
 322              		.loc 1 78 0
 323              		.cfi_startproc
 324              		@ args = 0, pretend = 0, frame = 0
 325              		@ frame_needed = 0, uses_anonymous_args = 0
 326 0000 10B5     		push	{r4, lr}
 327              		.cfi_def_cfa_offset 8
 328              		.cfi_offset 4, -8
 329              		.cfi_offset 14, -4
  79:.\Generated_Source\PSoC5/WinTimer_PM.c ****     #if (!WinTimer_UsingFixedFunction)
  80:.\Generated_Source\PSoC5/WinTimer_PM.c **** 
  81:.\Generated_Source\PSoC5/WinTimer_PM.c ****         WinTimer_WriteCounter(WinTimer_backup.TimerUdb);
 330              		.loc 1 81 0
 331 0002 064C     		ldr	r4, .L7
 332 0004 6088     		ldrh	r0, [r4, #2]
 333 0006 FFF7FEFF 		bl	WinTimer_WriteCounter
 334              	.LVL2:
  82:.\Generated_Source\PSoC5/WinTimer_PM.c ****         WinTimer_STATUS_MASK =WinTimer_backup.InterruptMaskValue;
ARM GAS  C:\Users\Thomas\AppData\Local\Temp\cclK6V0u.s 			page 23


 335              		.loc 1 82 0
 336 000a 2279     		ldrb	r2, [r4, #4]	@ zero_extendqisi2
 337 000c 044B     		ldr	r3, .L7+4
  83:.\Generated_Source\PSoC5/WinTimer_PM.c ****         #if (WinTimer_UsingHWCaptureCounter)
  84:.\Generated_Source\PSoC5/WinTimer_PM.c ****             WinTimer_SetCaptureCount(WinTimer_backup.TimerCaptureCounter);
  85:.\Generated_Source\PSoC5/WinTimer_PM.c ****         #endif /* Restore Capture counter register*/
  86:.\Generated_Source\PSoC5/WinTimer_PM.c **** 
  87:.\Generated_Source\PSoC5/WinTimer_PM.c ****         #if(!WinTimer_UDB_CONTROL_REG_REMOVED)
  88:.\Generated_Source\PSoC5/WinTimer_PM.c ****             WinTimer_WriteControlRegister(WinTimer_backup.TimerControlRegister);
 338              		.loc 1 88 0
 339 000e 6079     		ldrb	r0, [r4, #5]	@ zero_extendqisi2
  82:.\Generated_Source\PSoC5/WinTimer_PM.c ****         WinTimer_STATUS_MASK =WinTimer_backup.InterruptMaskValue;
 340              		.loc 1 82 0
 341 0010 1A70     		strb	r2, [r3]
  89:.\Generated_Source\PSoC5/WinTimer_PM.c ****         #endif /* Restore the enable state of the Timer component */
  90:.\Generated_Source\PSoC5/WinTimer_PM.c ****     #endif /* Restore non retention registers in the UDB implementation only */
  91:.\Generated_Source\PSoC5/WinTimer_PM.c **** }
 342              		.loc 1 91 0
 343 0012 BDE81040 		pop	{r4, lr}
 344              		.cfi_restore 14
 345              		.cfi_restore 4
 346              		.cfi_def_cfa_offset 0
  88:.\Generated_Source\PSoC5/WinTimer_PM.c ****         #endif /* Restore the enable state of the Timer component */
 347              		.loc 1 88 0
 348 0016 FFF7FEBF 		b	WinTimer_WriteControlRegister
 349              	.LVL3:
 350              	.L8:
 351 001a 00BF     		.align	2
 352              	.L7:
 353 001c 00000000 		.word	.LANCHOR0
 354 0020 8B650040 		.word	1073767819
 355              		.cfi_endproc
 356              	.LFE1:
 357              		.size	WinTimer_RestoreConfig, .-WinTimer_RestoreConfig
 358              		.section	.text.WinTimer_Sleep,"ax",%progbits
 359              		.align	2
 360              		.global	WinTimer_Sleep
 361              		.thumb
 362              		.thumb_func
 363              		.type	WinTimer_Sleep, %function
 364              	WinTimer_Sleep:
 365              	.LFB2:
  92:.\Generated_Source\PSoC5/WinTimer_PM.c **** 
  93:.\Generated_Source\PSoC5/WinTimer_PM.c **** 
  94:.\Generated_Source\PSoC5/WinTimer_PM.c **** /*******************************************************************************
  95:.\Generated_Source\PSoC5/WinTimer_PM.c **** * Function Name: WinTimer_Sleep
  96:.\Generated_Source\PSoC5/WinTimer_PM.c **** ********************************************************************************
  97:.\Generated_Source\PSoC5/WinTimer_PM.c **** *
  98:.\Generated_Source\PSoC5/WinTimer_PM.c **** * Summary:
  99:.\Generated_Source\PSoC5/WinTimer_PM.c **** *     Stop and Save the user configuration
 100:.\Generated_Source\PSoC5/WinTimer_PM.c **** *
 101:.\Generated_Source\PSoC5/WinTimer_PM.c **** * Parameters:
 102:.\Generated_Source\PSoC5/WinTimer_PM.c **** *  void
 103:.\Generated_Source\PSoC5/WinTimer_PM.c **** *
 104:.\Generated_Source\PSoC5/WinTimer_PM.c **** * Return:
 105:.\Generated_Source\PSoC5/WinTimer_PM.c **** *  void
 106:.\Generated_Source\PSoC5/WinTimer_PM.c **** *
ARM GAS  C:\Users\Thomas\AppData\Local\Temp\cclK6V0u.s 			page 24


 107:.\Generated_Source\PSoC5/WinTimer_PM.c **** * Global variables:
 108:.\Generated_Source\PSoC5/WinTimer_PM.c **** *  WinTimer_backup.TimerEnableState:  Is modified depending on the
 109:.\Generated_Source\PSoC5/WinTimer_PM.c **** *  enable state of the block before entering sleep mode.
 110:.\Generated_Source\PSoC5/WinTimer_PM.c **** *
 111:.\Generated_Source\PSoC5/WinTimer_PM.c **** *******************************************************************************/
 112:.\Generated_Source\PSoC5/WinTimer_PM.c **** void WinTimer_Sleep(void) 
 113:.\Generated_Source\PSoC5/WinTimer_PM.c **** {
 366              		.loc 1 113 0
 367              		.cfi_startproc
 368              		@ args = 0, pretend = 0, frame = 0
 369              		@ frame_needed = 0, uses_anonymous_args = 0
 370 0000 10B5     		push	{r4, lr}
 371              		.cfi_def_cfa_offset 8
 372              		.cfi_offset 4, -8
 373              		.cfi_offset 14, -4
 114:.\Generated_Source\PSoC5/WinTimer_PM.c ****     #if(!WinTimer_UDB_CONTROL_REG_REMOVED)
 115:.\Generated_Source\PSoC5/WinTimer_PM.c ****         /* Save Counter's enable state */
 116:.\Generated_Source\PSoC5/WinTimer_PM.c ****         if(WinTimer_CTRL_ENABLE == (WinTimer_CONTROL & WinTimer_CTRL_ENABLE))
 374              		.loc 1 116 0
 375 0002 084B     		ldr	r3, .L11
 376 0004 084C     		ldr	r4, .L11+4
 377 0006 1B78     		ldrb	r3, [r3]	@ zero_extendqisi2
 378 0008 DB09     		lsrs	r3, r3, #7
 379 000a 2370     		strb	r3, [r4]
 117:.\Generated_Source\PSoC5/WinTimer_PM.c ****         {
 118:.\Generated_Source\PSoC5/WinTimer_PM.c ****             /* Timer is enabled */
 119:.\Generated_Source\PSoC5/WinTimer_PM.c ****             WinTimer_backup.TimerEnableState = 1u;
 120:.\Generated_Source\PSoC5/WinTimer_PM.c ****         }
 121:.\Generated_Source\PSoC5/WinTimer_PM.c ****         else
 122:.\Generated_Source\PSoC5/WinTimer_PM.c ****         {
 123:.\Generated_Source\PSoC5/WinTimer_PM.c ****             /* Timer is disabled */
 124:.\Generated_Source\PSoC5/WinTimer_PM.c ****             WinTimer_backup.TimerEnableState = 0u;
 125:.\Generated_Source\PSoC5/WinTimer_PM.c ****         }
 126:.\Generated_Source\PSoC5/WinTimer_PM.c ****     #endif /* Back up enable state from the Timer control register */
 127:.\Generated_Source\PSoC5/WinTimer_PM.c ****     WinTimer_Stop();
 380              		.loc 1 127 0
 381 000c FFF7FEFF 		bl	WinTimer_Stop
 382              	.LVL4:
 383              	.LBB4:
 384              	.LBB5:
  46:.\Generated_Source\PSoC5/WinTimer_PM.c ****         WinTimer_backup.InterruptMaskValue = WinTimer_STATUS_MASK;
 385              		.loc 1 46 0
 386 0010 FFF7FEFF 		bl	WinTimer_ReadCounter
 387              	.LVL5:
  47:.\Generated_Source\PSoC5/WinTimer_PM.c ****         #if (WinTimer_UsingHWCaptureCounter)
 388              		.loc 1 47 0
 389 0014 054B     		ldr	r3, .L11+8
  46:.\Generated_Source\PSoC5/WinTimer_PM.c ****         WinTimer_backup.InterruptMaskValue = WinTimer_STATUS_MASK;
 390              		.loc 1 46 0
 391 0016 6080     		strh	r0, [r4, #2]	@ movhi
  47:.\Generated_Source\PSoC5/WinTimer_PM.c ****         #if (WinTimer_UsingHWCaptureCounter)
 392              		.loc 1 47 0
 393 0018 1B78     		ldrb	r3, [r3]	@ zero_extendqisi2
 394 001a 2371     		strb	r3, [r4, #4]
  53:.\Generated_Source\PSoC5/WinTimer_PM.c ****         #endif /* Backup the enable state of the Timer component */
 395              		.loc 1 53 0
 396 001c FFF7FEFF 		bl	WinTimer_ReadControlRegister
ARM GAS  C:\Users\Thomas\AppData\Local\Temp\cclK6V0u.s 			page 25


 397              	.LVL6:
 398 0020 6071     		strb	r0, [r4, #5]
 399 0022 10BD     		pop	{r4, pc}
 400              	.L12:
 401              		.align	2
 402              	.L11:
 403 0024 7B650040 		.word	1073767803
 404 0028 00000000 		.word	.LANCHOR0
 405 002c 8B650040 		.word	1073767819
 406              	.LBE5:
 407              	.LBE4:
 408              		.cfi_endproc
 409              	.LFE2:
 410              		.size	WinTimer_Sleep, .-WinTimer_Sleep
 411              		.section	.text.WinTimer_Wakeup,"ax",%progbits
 412              		.align	2
 413              		.global	WinTimer_Wakeup
 414              		.thumb
 415              		.thumb_func
 416              		.type	WinTimer_Wakeup, %function
 417              	WinTimer_Wakeup:
 418              	.LFB3:
 128:.\Generated_Source\PSoC5/WinTimer_PM.c ****     WinTimer_SaveConfig();
 129:.\Generated_Source\PSoC5/WinTimer_PM.c **** }
 130:.\Generated_Source\PSoC5/WinTimer_PM.c **** 
 131:.\Generated_Source\PSoC5/WinTimer_PM.c **** 
 132:.\Generated_Source\PSoC5/WinTimer_PM.c **** /*******************************************************************************
 133:.\Generated_Source\PSoC5/WinTimer_PM.c **** * Function Name: WinTimer_Wakeup
 134:.\Generated_Source\PSoC5/WinTimer_PM.c **** ********************************************************************************
 135:.\Generated_Source\PSoC5/WinTimer_PM.c **** *
 136:.\Generated_Source\PSoC5/WinTimer_PM.c **** * Summary:
 137:.\Generated_Source\PSoC5/WinTimer_PM.c **** *  Restores and enables the user configuration
 138:.\Generated_Source\PSoC5/WinTimer_PM.c **** *
 139:.\Generated_Source\PSoC5/WinTimer_PM.c **** * Parameters:
 140:.\Generated_Source\PSoC5/WinTimer_PM.c **** *  void
 141:.\Generated_Source\PSoC5/WinTimer_PM.c **** *
 142:.\Generated_Source\PSoC5/WinTimer_PM.c **** * Return:
 143:.\Generated_Source\PSoC5/WinTimer_PM.c **** *  void
 144:.\Generated_Source\PSoC5/WinTimer_PM.c **** *
 145:.\Generated_Source\PSoC5/WinTimer_PM.c **** * Global variables:
 146:.\Generated_Source\PSoC5/WinTimer_PM.c **** *  WinTimer_backup.enableState:  Is used to restore the enable state of
 147:.\Generated_Source\PSoC5/WinTimer_PM.c **** *  block on wakeup from sleep mode.
 148:.\Generated_Source\PSoC5/WinTimer_PM.c **** *
 149:.\Generated_Source\PSoC5/WinTimer_PM.c **** *******************************************************************************/
 150:.\Generated_Source\PSoC5/WinTimer_PM.c **** void WinTimer_Wakeup(void) 
 151:.\Generated_Source\PSoC5/WinTimer_PM.c **** {
 419              		.loc 1 151 0
 420              		.cfi_startproc
 421              		@ args = 0, pretend = 0, frame = 0
 422              		@ frame_needed = 0, uses_anonymous_args = 0
 423 0000 10B5     		push	{r4, lr}
 424              		.cfi_def_cfa_offset 8
 425              		.cfi_offset 4, -8
 426              		.cfi_offset 14, -4
 427              	.LBB8:
 428              	.LBB9:
  81:.\Generated_Source\PSoC5/WinTimer_PM.c ****         WinTimer_STATUS_MASK =WinTimer_backup.InterruptMaskValue;
ARM GAS  C:\Users\Thomas\AppData\Local\Temp\cclK6V0u.s 			page 26


 429              		.loc 1 81 0
 430 0002 094C     		ldr	r4, .L18
 431 0004 6088     		ldrh	r0, [r4, #2]
 432 0006 FFF7FEFF 		bl	WinTimer_WriteCounter
 433              	.LVL7:
  82:.\Generated_Source\PSoC5/WinTimer_PM.c ****         #if (WinTimer_UsingHWCaptureCounter)
 434              		.loc 1 82 0
 435 000a 084B     		ldr	r3, .L18+4
 436 000c 2279     		ldrb	r2, [r4, #4]	@ zero_extendqisi2
  88:.\Generated_Source\PSoC5/WinTimer_PM.c ****         #endif /* Restore the enable state of the Timer component */
 437              		.loc 1 88 0
 438 000e 6079     		ldrb	r0, [r4, #5]	@ zero_extendqisi2
  82:.\Generated_Source\PSoC5/WinTimer_PM.c ****         #if (WinTimer_UsingHWCaptureCounter)
 439              		.loc 1 82 0
 440 0010 1A70     		strb	r2, [r3]
  88:.\Generated_Source\PSoC5/WinTimer_PM.c ****         #endif /* Restore the enable state of the Timer component */
 441              		.loc 1 88 0
 442 0012 FFF7FEFF 		bl	WinTimer_WriteControlRegister
 443              	.LVL8:
 444              	.LBE9:
 445              	.LBE8:
 152:.\Generated_Source\PSoC5/WinTimer_PM.c ****     WinTimer_RestoreConfig();
 153:.\Generated_Source\PSoC5/WinTimer_PM.c ****     #if(!WinTimer_UDB_CONTROL_REG_REMOVED)
 154:.\Generated_Source\PSoC5/WinTimer_PM.c ****         if(WinTimer_backup.TimerEnableState == 1u)
 446              		.loc 1 154 0
 447 0016 2378     		ldrb	r3, [r4]	@ zero_extendqisi2
 448 0018 012B     		cmp	r3, #1
 449 001a 00D0     		beq	.L17
 450 001c 10BD     		pop	{r4, pc}
 451              	.L17:
 155:.\Generated_Source\PSoC5/WinTimer_PM.c ****         {     /* Enable Timer's operation */
 156:.\Generated_Source\PSoC5/WinTimer_PM.c ****                 WinTimer_Enable();
 157:.\Generated_Source\PSoC5/WinTimer_PM.c ****         } /* Do nothing if Timer was disabled before */
 158:.\Generated_Source\PSoC5/WinTimer_PM.c ****     #endif /* Remove this code section if Control register is removed */
 159:.\Generated_Source\PSoC5/WinTimer_PM.c **** }
 452              		.loc 1 159 0
 453 001e BDE81040 		pop	{r4, lr}
 454              		.cfi_restore 14
 455              		.cfi_restore 4
 456              		.cfi_def_cfa_offset 0
 156:.\Generated_Source\PSoC5/WinTimer_PM.c ****         } /* Do nothing if Timer was disabled before */
 457              		.loc 1 156 0
 458 0022 FFF7FEBF 		b	WinTimer_Enable
 459              	.LVL9:
 460              	.L19:
 461 0026 00BF     		.align	2
 462              	.L18:
 463 0028 00000000 		.word	.LANCHOR0
 464 002c 8B650040 		.word	1073767819
 465              		.cfi_endproc
 466              	.LFE3:
 467              		.size	WinTimer_Wakeup, .-WinTimer_Wakeup
 468              		.bss
 469              		.align	2
 470              		.set	.LANCHOR0,. + 0
 471              		.type	WinTimer_backup, %object
 472              		.size	WinTimer_backup, 6
ARM GAS  C:\Users\Thomas\AppData\Local\Temp\cclK6V0u.s 			page 27


 473              	WinTimer_backup:
 474 0000 00000000 		.space	6
 474      0000
 475 0006 0000     		.text
 476              	.Letext0:
 477              		.file 2 ".\\Generated_Source\\PSoC5\\cytypes.h"
 478              		.file 3 ".\\Generated_Source\\PSoC5\\WinTimer.h"