ARM GAS  C:\Users\Thomas\AppData\Local\Temp\cc05Q7k2.s 			page 1


   1              		.syntax unified
   2              		.cpu cortex-m3
   3              		.fpu softvfp
   4              		.eabi_attribute 20, 1
   5              		.eabi_attribute 21, 1
   6              		.eabi_attribute 23, 3
   7              		.eabi_attribute 24, 1
   8              		.eabi_attribute 25, 1
   9              		.eabi_attribute 26, 1
  10              		.eabi_attribute 30, 1
  11              		.eabi_attribute 34, 1
  12              		.eabi_attribute 18, 4
  13              		.thumb
  14              		.file	"main.c"
  15              		.text
  16              	.Ltext0:
  17              		.cfi_sections	.debug_frame
  18              		.section	.text.main,"ax",%progbits
  19              		.align	2
  20              		.global	main
  21              		.thumb
  22              		.thumb_func
  23              		.type	main, %function
  24              	main:
  25              	.LFB63:
  26              		.file 1 ".\\main.c"
   1:.\main.c      **** /* ========================================
   2:.\main.c      ****  * TAS NES/NES Replay Device for CY8CKIT-059
   3:.\main.c      ****  * ========================================
   4:.\main.c      ****  */
   5:.\main.c      **** 
   6:.\main.c      **** #include <main.h>
   7:.\main.c      **** #define USBUART_BUFFER_SIZE (64u)
   8:.\main.c      **** 
   9:.\main.c      **** volatile int sent = 0;
  10:.\main.c      **** volatile int playing = 0;
  11:.\main.c      **** volatile uint16 data[6] = {0, 0, 0, 0, 0, 0};
  12:.\main.c      **** volatile uint16 input[6][INPUT_BUF_SIZE];
  13:.\main.c      **** volatile int input_ptr[2];
  14:.\main.c      **** volatile int buf_ptr[2] = {0, 0};
  15:.\main.c      **** volatile int count = 0;
  16:.\main.c      **** volatile int ready = 0;
  17:.\main.c      **** volatile int timer_ready[2] = {0, 0};
  18:.\main.c      **** volatile int use_timer[2] = {0, 0};
  19:.\main.c      **** volatile int ports = 0;
  20:.\main.c      **** volatile int lines = 0;
  21:.\main.c      **** volatile int databits = 0;
  22:.\main.c      **** volatile int request[2] = {0, 0};
  23:.\main.c      **** volatile int disable_timer[2] = {0, 0};
  24:.\main.c      **** volatile int bytes = 0;
  25:.\main.c      **** volatile int window_off[2] = {-1, -1};
  26:.\main.c      **** volatile int latches[2] = {0, 0};
  27:.\main.c      **** 
  28:.\main.c      **** int main()
  29:.\main.c      **** {
  27              		.loc 1 29 0
  28              		.cfi_startproc
ARM GAS  C:\Users\Thomas\AppData\Local\Temp\cc05Q7k2.s 			page 2


  29              		@ args = 0, pretend = 0, frame = 64
  30              		@ frame_needed = 0, uses_anonymous_args = 0
  31 0000 F0B5     		push	{r4, r5, r6, r7, lr}
  32              		.cfi_def_cfa_offset 20
  33              		.cfi_offset 4, -20
  34              		.cfi_offset 5, -16
  35              		.cfi_offset 6, -12
  36              		.cfi_offset 7, -8
  37              		.cfi_offset 14, -4
  38 0002 91B0     		sub	sp, sp, #68
  39              		.cfi_def_cfa_offset 88
  40              	.LVL0:
  30:.\main.c      ****     uint8 buffer[USBUART_BUFFER_SIZE];
  31:.\main.c      ****     uint8 cmd;
  32:.\main.c      ****     uint16 tmp = 0;
  33:.\main.c      ****     int i = 0, j = 0, k = 0, p = 0, d = 0;
  34:.\main.c      ****     
  35:.\main.c      ****     CyGlobalIntEnable; /* Enable global interrupts. */
  41              		.loc 1 35 0
  42              	@ 35 ".\main.c" 1
  43 0004 62B6     		CPSIE   i
  44              	@ 0 "" 2
  36:.\main.c      **** 
  37:.\main.c      ****     /* Place your initialization/startup code here (e.g. MyInst_Start()) */
  38:.\main.c      ****     USBUART_Start(0, USBUART_5V_OPERATION);
  45              		.loc 1 38 0
  46              		.thumb
  47 0006 0020     		movs	r0, #0
  48 0008 0121     		movs	r1, #1
  49 000a FFF7FEFF 		bl	USBUART_Start
  50              	.LVL1:
  39:.\main.c      ****     
  40:.\main.c      **** 
  41:.\main.c      ****     /* Start registers and timers */
  42:.\main.c      ****     P1_RegD0_Start();
  51              		.loc 1 42 0
  52 000e FFF7FEFF 		bl	P1_RegD0_Start
  53              	.LVL2:
  43:.\main.c      ****     P1_RegD0_WriteRegValue(1);
  54              		.loc 1 43 0
  55 0012 0120     		movs	r0, #1
  56 0014 FFF7FEFF 		bl	P1_RegD0_WriteRegValue
  57              	.LVL3:
  44:.\main.c      ****     P1_RegD1_Start();
  58              		.loc 1 44 0
  59 0018 FFF7FEFF 		bl	P1_RegD1_Start
  60              	.LVL4:
  45:.\main.c      ****     P1_RegD1_WriteRegValue(1);
  61              		.loc 1 45 0
  62 001c 0120     		movs	r0, #1
  63 001e FFF7FEFF 		bl	P1_RegD1_WriteRegValue
  64              	.LVL5:
  46:.\main.c      ****     P1_RegD2_Start();
  65              		.loc 1 46 0
  66 0022 FFF7FEFF 		bl	P1_RegD2_Start
  67              	.LVL6:
  47:.\main.c      ****     P1_RegD2_WriteRegValue(1);
ARM GAS  C:\Users\Thomas\AppData\Local\Temp\cc05Q7k2.s 			page 3


  68              		.loc 1 47 0
  69 0026 0120     		movs	r0, #1
  70 0028 FFF7FEFF 		bl	P1_RegD2_WriteRegValue
  71              	.LVL7:
  48:.\main.c      ****     
  49:.\main.c      ****     P1_WinTimer_Start();
  72              		.loc 1 49 0
  73 002c FFF7FEFF 		bl	P1_WinTimer_Start
  74              	.LVL8:
  50:.\main.c      ****     P1_TimerIRQ_Start();
  75              		.loc 1 50 0
  76 0030 FFF7FEFF 		bl	P1_TimerIRQ_Start
  77              	.LVL9:
  51:.\main.c      **** 
  52:.\main.c      ****     P2_RegD0_Start();
  78              		.loc 1 52 0
  79 0034 FFF7FEFF 		bl	P2_RegD0_Start
  80              	.LVL10:
  53:.\main.c      ****     P2_RegD0_WriteRegValue(1);
  81              		.loc 1 53 0
  82 0038 0120     		movs	r0, #1
  83 003a FFF7FEFF 		bl	P2_RegD0_WriteRegValue
  84              	.LVL11:
  54:.\main.c      ****     P2_RegD1_Start();
  85              		.loc 1 54 0
  86 003e FFF7FEFF 		bl	P2_RegD1_Start
  87              	.LVL12:
  55:.\main.c      ****     P2_RegD1_WriteRegValue(1);
  88              		.loc 1 55 0
  89 0042 0120     		movs	r0, #1
  90 0044 FFF7FEFF 		bl	P2_RegD1_WriteRegValue
  91              	.LVL13:
  56:.\main.c      ****     P2_RegD2_Start();
  92              		.loc 1 56 0
  93 0048 FFF7FEFF 		bl	P2_RegD2_Start
  94              	.LVL14:
  57:.\main.c      ****     P2_RegD2_WriteRegValue(1);
  95              		.loc 1 57 0
  96 004c 0120     		movs	r0, #1
  97 004e FFF7FEFF 		bl	P2_RegD2_WriteRegValue
  98              	.LVL15:
  58:.\main.c      ****     
  59:.\main.c      ****     P2_WinTimer_Start();
  99              		.loc 1 59 0
 100 0052 FFF7FEFF 		bl	P2_WinTimer_Start
 101              	.LVL16:
  60:.\main.c      ****     P2_TimerIRQ_Start();
 102              		.loc 1 60 0
 103 0056 FFF7FEFF 		bl	P2_TimerIRQ_Start
 104              	.LVL17:
 105              	.L9:
  61:.\main.c      **** 
  62:.\main.c      ****     for(;;)
  63:.\main.c      ****     {           
  64:.\main.c      ****         if(playing && request[0] == 0)
 106              		.loc 1 64 0
 107 005a A34B     		ldr	r3, .L59
ARM GAS  C:\Users\Thomas\AppData\Local\Temp\cc05Q7k2.s 			page 4


 108 005c 1B68     		ldr	r3, [r3]
 109 005e EBB1     		cbz	r3, .L4
 110              		.loc 1 64 0 is_stmt 0 discriminator 1
 111 0060 A14B     		ldr	r3, .L59
 112 0062 5B68     		ldr	r3, [r3, #4]
 113 0064 D3B9     		cbnz	r3, .L4
  65:.\main.c      **** 		{
  66:.\main.c      ****         	i = (INPUT_BUF_SIZE - 1) - ((buf_ptr[0] - input_ptr[0])&(INPUT_BUF_SIZE - 1));
 114              		.loc 1 66 0 is_stmt 1
 115 0066 A04B     		ldr	r3, .L59
 116 0068 DB68     		ldr	r3, [r3, #12]
 117 006a A04A     		ldr	r2, .L59+4
 118 006c 1268     		ldr	r2, [r2]
 119 006e 9B1A     		subs	r3, r3, r2
 120 0070 DB43     		mvns	r3, r3
 121 0072 C3F30A03 		ubfx	r3, r3, #0, #11
 122              	.LVL18:
  67:.\main.c      **** 			if(i != (INPUT_BUF_SIZE - 1) && i > 65)
 123              		.loc 1 67 0
 124 0076 40F2FF72 		movw	r2, #2047
 125 007a 9342     		cmp	r3, r2
 126 007c 0ED0     		beq	.L4
 127              		.loc 1 67 0 is_stmt 0 discriminator 1
 128 007e 412B     		cmp	r3, #65
 129 0080 0CDD     		ble	.L4
  68:.\main.c      **** 			{
  69:.\main.c      ****                 if (0u != USBUART_GetConfiguration())
 130              		.loc 1 69 0 is_stmt 1
 131 0082 FFF7FEFF 		bl	USBUART_GetConfiguration
 132              	.LVL19:
 133 0086 48B1     		cbz	r0, .L4
 134              	.L5:
  70:.\main.c      ****                 {
  71:.\main.c      ****                     while (0u == USBUART_CDCIsReady()) { }
 135              		.loc 1 71 0 discriminator 1
 136 0088 FFF7FEFF 		bl	USBUART_CDCIsReady
 137              	.LVL20:
 138 008c 0028     		cmp	r0, #0
 139 008e FBD0     		beq	.L5
  72:.\main.c      ****                     USBUART_PutChar(0xF0);
 140              		.loc 1 72 0
 141 0090 F020     		movs	r0, #240
 142 0092 FFF7FEFF 		bl	USBUART_PutChar
 143              	.LVL21:
  73:.\main.c      ****                     request[0] = 1;
 144              		.loc 1 73 0
 145 0096 0122     		movs	r2, #1
 146 0098 934B     		ldr	r3, .L59
 147 009a 5A60     		str	r2, [r3, #4]
 148              	.L4:
  74:.\main.c      ****                 }
  75:.\main.c      ****             }
  76:.\main.c      ****         }
  77:.\main.c      ****         
  78:.\main.c      ****         if(playing && request[1] == 0)
 149              		.loc 1 78 0
 150 009c 924B     		ldr	r3, .L59
ARM GAS  C:\Users\Thomas\AppData\Local\Temp\cc05Q7k2.s 			page 5


 151 009e 1B68     		ldr	r3, [r3]
 152 00a0 EBB1     		cbz	r3, .L6
 153              		.loc 1 78 0 is_stmt 0 discriminator 1
 154 00a2 914B     		ldr	r3, .L59
 155 00a4 9B68     		ldr	r3, [r3, #8]
 156 00a6 D3B9     		cbnz	r3, .L6
  79:.\main.c      ****         {
  80:.\main.c      ****             i = (INPUT_BUF_SIZE - 1) - ((buf_ptr[1] - input_ptr[1])&(INPUT_BUF_SIZE - 1));
 157              		.loc 1 80 0 is_stmt 1
 158 00a8 8F4B     		ldr	r3, .L59
 159 00aa 1B69     		ldr	r3, [r3, #16]
 160 00ac 8F4A     		ldr	r2, .L59+4
 161 00ae 5268     		ldr	r2, [r2, #4]
 162 00b0 9B1A     		subs	r3, r3, r2
 163 00b2 DB43     		mvns	r3, r3
 164 00b4 C3F30A03 		ubfx	r3, r3, #0, #11
 165              	.LVL22:
  81:.\main.c      **** 			if(i != (INPUT_BUF_SIZE - 1) && i > 65)
 166              		.loc 1 81 0
 167 00b8 40F2FF72 		movw	r2, #2047
 168 00bc 9342     		cmp	r3, r2
 169 00be 0ED0     		beq	.L6
 170              		.loc 1 81 0 is_stmt 0 discriminator 1
 171 00c0 412B     		cmp	r3, #65
 172 00c2 0CDD     		ble	.L6
  82:.\main.c      **** 			{
  83:.\main.c      ****                 if (0u != USBUART_GetConfiguration())
 173              		.loc 1 83 0 is_stmt 1
 174 00c4 FFF7FEFF 		bl	USBUART_GetConfiguration
 175              	.LVL23:
 176 00c8 48B1     		cbz	r0, .L6
 177              	.L7:
  84:.\main.c      ****                 {
  85:.\main.c      ****                     while (0u == USBUART_CDCIsReady()) { }
 178              		.loc 1 85 0 discriminator 1
 179 00ca FFF7FEFF 		bl	USBUART_CDCIsReady
 180              	.LVL24:
 181 00ce 0028     		cmp	r0, #0
 182 00d0 FBD0     		beq	.L7
  86:.\main.c      ****                     USBUART_PutChar(0xF1);
 183              		.loc 1 86 0
 184 00d2 F120     		movs	r0, #241
 185 00d4 FFF7FEFF 		bl	USBUART_PutChar
 186              	.LVL25:
  87:.\main.c      ****                     request[1] = 1;
 187              		.loc 1 87 0
 188 00d8 0122     		movs	r2, #1
 189 00da 834B     		ldr	r3, .L59
 190 00dc 9A60     		str	r2, [r3, #8]
 191              	.L6:
  88:.\main.c      ****                 }
  89:.\main.c      ****             }
  90:.\main.c      ****         }
  91:.\main.c      ****         
  92:.\main.c      ****         if (0u != USBUART_IsConfigurationChanged())
 192              		.loc 1 92 0
 193 00de FFF7FEFF 		bl	USBUART_IsConfigurationChanged
ARM GAS  C:\Users\Thomas\AppData\Local\Temp\cc05Q7k2.s 			page 6


 194              	.LVL26:
 195 00e2 20B1     		cbz	r0, .L8
  93:.\main.c      ****         {
  94:.\main.c      ****             if (0u != USBUART_GetConfiguration())
 196              		.loc 1 94 0
 197 00e4 FFF7FEFF 		bl	USBUART_GetConfiguration
 198              	.LVL27:
 199 00e8 08B1     		cbz	r0, .L8
  95:.\main.c      ****             {
  96:.\main.c      ****                 USBUART_CDC_Init();
 200              		.loc 1 96 0
 201 00ea FFF7FEFF 		bl	USBUART_CDC_Init
 202              	.LVL28:
 203              	.L8:
  97:.\main.c      ****             }
  98:.\main.c      ****         }        
  99:.\main.c      ****         
 100:.\main.c      ****         if (0u != USBUART_GetConfiguration())
 204              		.loc 1 100 0
 205 00ee FFF7FEFF 		bl	USBUART_GetConfiguration
 206              	.LVL29:
 207 00f2 0028     		cmp	r0, #0
 208 00f4 B1D0     		beq	.L9
 101:.\main.c      ****         {
 102:.\main.c      ****             if (0u != USBUART_DataIsReady())
 209              		.loc 1 102 0
 210 00f6 FFF7FEFF 		bl	USBUART_DataIsReady
 211              	.LVL30:
 212 00fa 0028     		cmp	r0, #0
 213 00fc ADD0     		beq	.L9
 103:.\main.c      ****             {
 104:.\main.c      ****                 /* Read received data and re-enable OUT endpoint. */
 105:.\main.c      ****                 bytes = USBUART_GetAll(buffer);
 214              		.loc 1 105 0
 215 00fe 6846     		mov	r0, sp
 216 0100 FFF7FEFF 		bl	USBUART_GetAll
 217              	.LVL31:
 218 0104 784B     		ldr	r3, .L59
 219 0106 5861     		str	r0, [r3, #20]
 106:.\main.c      ****                 cmd = buffer[0];
 220              		.loc 1 106 0
 221 0108 9DF80030 		ldrb	r3, [sp]	@ zero_extendqisi2
 222              	.LVL32:
 107:.\main.c      ****                 
 108:.\main.c      ****                 switch(cmd)
 223              		.loc 1 108 0
 224 010c B02B     		cmp	r3, #176
 225 010e 00F09C81 		beq	.L11
 226 0112 10D8     		bhi	.L12
 227 0114 A02B     		cmp	r3, #160
 228 0116 00F07A81 		beq	.L13
 229 011a 03D8     		bhi	.L14
 230 011c 0BB3     		cbz	r3, .L15
 231 011e 012B     		cmp	r3, #1
 232 0120 3FD0     		beq	.L16
 233 0122 9AE7     		b	.L9
 234              	.L14:
ARM GAS  C:\Users\Thomas\AppData\Local\Temp\cc05Q7k2.s 			page 7


 235 0124 A22B     		cmp	r3, #162
 236 0126 00F08581 		beq	.L17
 237 012a C0F07A81 		bcc	.L18
 238 012e A32B     		cmp	r3, #163
 239 0130 00F08481 		beq	.L19
 240 0134 91E7     		b	.L9
 241              	.L12:
 242 0136 F02B     		cmp	r3, #240
 243 0138 00F0C080 		beq	.L47
 244 013c 08D8     		bhi	.L21
 245 013e B22B     		cmp	r3, #178
 246 0140 00F09681 		beq	.L22
 247 0144 C0F08B81 		bcc	.L23
 248 0148 B32B     		cmp	r3, #179
 249 014a 00F09581 		beq	.L24
 250 014e 84E7     		b	.L9
 251              	.L21:
 252 0150 F22B     		cmp	r3, #242
 253 0152 00F05581 		beq	.L49
 254 0156 C0F0F880 		bcc	.L48
 255 015a FF2B     		cmp	r3, #255
 256 015c 00F09381 		beq	.L27
 257 0160 7BE7     		b	.L9
 258              	.L15:
 109:.\main.c      ****                 {
 110:.\main.c      ****                     case 0:
 111:.\main.c      ****                     {
 112:.\main.c      ****                         input_ptr[0] = 0;
 259              		.loc 1 112 0
 260 0162 624B     		ldr	r3, .L59+4
 261              	.LVL33:
 262 0164 0024     		movs	r4, #0
 263 0166 1C60     		str	r4, [r3]
 113:.\main.c      ****                         input_ptr[1] = 0;
 264              		.loc 1 113 0
 265 0168 5C60     		str	r4, [r3, #4]
 114:.\main.c      ****                         buf_ptr[0] = 0;
 266              		.loc 1 114 0
 267 016a 5F4B     		ldr	r3, .L59
 268 016c DC60     		str	r4, [r3, #12]
 115:.\main.c      ****                         buf_ptr[1] = 0;
 269              		.loc 1 115 0
 270 016e 1C61     		str	r4, [r3, #16]
 116:.\main.c      ****                         playing = 0;
 271              		.loc 1 116 0
 272 0170 1C60     		str	r4, [r3]
 117:.\main.c      ****                         count = 0;
 273              		.loc 1 117 0
 274 0172 9C61     		str	r4, [r3, #24]
 118:.\main.c      ****                         latches[0] = 0;
 275              		.loc 1 118 0
 276 0174 DC61     		str	r4, [r3, #28]
 119:.\main.c      ****                         latches[1] = 0;
 277              		.loc 1 119 0
 278 0176 1C62     		str	r4, [r3, #32]
 120:.\main.c      ****                         P1_IRQ_Stop();
 279              		.loc 1 120 0
ARM GAS  C:\Users\Thomas\AppData\Local\Temp\cc05Q7k2.s 			page 8


 280 0178 FFF7FEFF 		bl	P1_IRQ_Stop
 281              	.LVL34:
 121:.\main.c      ****                         P2_IRQ_Stop();
 282              		.loc 1 121 0
 283 017c FFF7FEFF 		bl	P2_IRQ_Stop
 284              	.LVL35:
 122:.\main.c      ****                         
 123:.\main.c      ****                         for(i = 0; i < INPUT_BUF_SIZE; i++)
 285              		.loc 1 123 0
 286 0180 0BE0     		b	.L28
 287              	.LVL36:
 288              	.L29:
 124:.\main.c      ****                         {
 125:.\main.c      ****                             for(j = 0; j < 6; j++)
 126:.\main.c      ****                             {
 127:.\main.c      ****                                 input[j][i] = 0;
 289              		.loc 1 127 0 discriminator 3
 290 0182 04EBC321 		add	r1, r4, r3, lsl #11
 291 0186 0020     		movs	r0, #0
 292 0188 594A     		ldr	r2, .L59+8
 293 018a 22F81100 		strh	r0, [r2, r1, lsl #1]	@ movhi
 125:.\main.c      ****                             {
 294              		.loc 1 125 0 discriminator 3
 295 018e 0133     		adds	r3, r3, #1
 296              	.LVL37:
 297 0190 00E0     		b	.L30
 298              	.LVL38:
 299              	.L50:
 300 0192 0023     		movs	r3, #0
 301              	.L30:
 302              	.LVL39:
 125:.\main.c      ****                             {
 303              		.loc 1 125 0 is_stmt 0 discriminator 1
 304 0194 052B     		cmp	r3, #5
 305 0196 F4DD     		ble	.L29
 123:.\main.c      ****                         {
 306              		.loc 1 123 0 is_stmt 1 discriminator 2
 307 0198 0134     		adds	r4, r4, #1
 308              	.LVL40:
 309              	.L28:
 123:.\main.c      ****                         {
 310              		.loc 1 123 0 is_stmt 0 discriminator 1
 311 019a B4F5006F 		cmp	r4, #2048
 312 019e F8DB     		blt	.L50
 313 01a0 5BE7     		b	.L9
 314              	.LVL41:
 315              	.L16:
 128:.\main.c      ****                             }
 129:.\main.c      ****                         }
 130:.\main.c      ****                         break;
 131:.\main.c      ****                     }
 132:.\main.c      ****                     case 1:
 133:.\main.c      ****                     {
 134:.\main.c      ****                         databits = buffer[1];
 316              		.loc 1 134 0 is_stmt 1
 317 01a2 9DF80120 		ldrb	r2, [sp, #1]	@ zero_extendqisi2
 318 01a6 504B     		ldr	r3, .L59
ARM GAS  C:\Users\Thomas\AppData\Local\Temp\cc05Q7k2.s 			page 9


 319              	.LVL42:
 320 01a8 5A62     		str	r2, [r3, #36]
 135:.\main.c      ****                         ports = buffer[2];
 321              		.loc 1 135 0
 322 01aa 9DF80220 		ldrb	r2, [sp, #2]	@ zero_extendqisi2
 323 01ae 9A62     		str	r2, [r3, #40]
 136:.\main.c      ****                         lines = buffer[3];
 324              		.loc 1 136 0
 325 01b0 9DF80320 		ldrb	r2, [sp, #3]	@ zero_extendqisi2
 326 01b4 DA62     		str	r2, [r3, #44]
 137:.\main.c      ****                         use_timer[0] = buffer[4];
 327              		.loc 1 137 0
 328 01b6 9DF80420 		ldrb	r2, [sp, #4]	@ zero_extendqisi2
 329 01ba 1A63     		str	r2, [r3, #48]
 138:.\main.c      ****                         use_timer[1] = buffer[4];
 330              		.loc 1 138 0
 331 01bc 5A63     		str	r2, [r3, #52]
 139:.\main.c      ****                         
 140:.\main.c      ****                         buf_ptr[0] = 0;
 332              		.loc 1 140 0
 333 01be 0022     		movs	r2, #0
 334 01c0 DA60     		str	r2, [r3, #12]
 141:.\main.c      ****                         buf_ptr[1] = 0;
 335              		.loc 1 141 0
 336 01c2 1A61     		str	r2, [r3, #16]
 142:.\main.c      ****                         playing = 0;
 337              		.loc 1 142 0
 338 01c4 1A60     		str	r2, [r3]
 143:.\main.c      ****                         sent = 0;
 339              		.loc 1 143 0
 340 01c6 9A63     		str	r2, [r3, #56]
 144:.\main.c      ****                         count = 0;
 341              		.loc 1 144 0
 342 01c8 9A61     		str	r2, [r3, #24]
 145:.\main.c      ****                         latches[0] = 0;
 343              		.loc 1 145 0
 344 01ca DA61     		str	r2, [r3, #28]
 146:.\main.c      ****                         latches[1] = 0;
 345              		.loc 1 146 0
 346 01cc 1A62     		str	r2, [r3, #32]
 147:.\main.c      ****                         
 148:.\main.c      ****                         /*
 149:.\main.c      ****                         for(p = 0; p < ports; p++)
 150:.\main.c      ****                         {
 151:.\main.c      ****                             for(k = 0; k < 4; k++)
 152:.\main.c      ****                             {
 153:.\main.c      ****                                 while (0u == USBUART_CDCIsReady()) { }
 154:.\main.c      ****                                 USBUART_PutChar(0xF0 + p);
 155:.\main.c      ****                                 
 156:.\main.c      ****                                 while(USBUART_DataIsReady() == 0) { }
 157:.\main.c      ****                                 bytes = USBUART_GetAll(buffer);
 158:.\main.c      ****                                 
 159:.\main.c      ****                                 for(j = 1; j < 61; j+= databits * lines)
 160:.\main.c      ****                                 {
 161:.\main.c      ****                                     for(d = 0; d < lines; d++)
 162:.\main.c      ****                                     {
 163:.\main.c      ****                                         tmp = 0;
ARM GAS  C:\Users\Thomas\AppData\Local\Temp\cc05Q7k2.s 			page 10


 164:.\main.c      ****                                         for(i = 0; i < databits; i++)
 165:.\main.c      ****                                         {
 166:.\main.c      ****                                             tmp = (tmp<<8) + buffer[j+(d*databits)+i];
 167:.\main.c      ****                                         }
 168:.\main.c      ****                                         input[(p*3) + d][buf_ptr[p]] = tmp;
 169:.\main.c      ****                                     }
 170:.\main.c      ****                 					buf_ptr[p] = (buf_ptr[p]+1)%INPUT_BUF_SIZE;
 171:.\main.c      ****                                 }
 172:.\main.c      ****                             }
 173:.\main.c      ****                         }
 174:.\main.c      ****                         */
 175:.\main.c      ****                         buf_ptr[0] = 1;
 347              		.loc 1 175 0
 348 01ce 0121     		movs	r1, #1
 349 01d0 D960     		str	r1, [r3, #12]
 176:.\main.c      ****                         buf_ptr[1] = 1;
 350              		.loc 1 176 0
 351 01d2 1961     		str	r1, [r3, #16]
 177:.\main.c      ****                         input_ptr[0] = 0;
 352              		.loc 1 177 0
 353 01d4 454B     		ldr	r3, .L59+4
 354 01d6 1A60     		str	r2, [r3]
 178:.\main.c      ****                         input_ptr[1] = 0;
 355              		.loc 1 178 0
 356 01d8 5A60     		str	r2, [r3, #4]
 357              	.LVL43:
 358              	.L32:
 179:.\main.c      ****                         
 180:.\main.c      ****                         while (0u == USBUART_CDCIsReady()) { }
 359              		.loc 1 180 0 discriminator 1
 360 01da FFF7FEFF 		bl	USBUART_CDCIsReady
 361              	.LVL44:
 362 01de 0028     		cmp	r0, #0
 363 01e0 FBD0     		beq	.L32
 181:.\main.c      ****                         USBUART_PutChar(0xB);                        
 364              		.loc 1 181 0
 365 01e2 0B20     		movs	r0, #11
 366 01e4 FFF7FEFF 		bl	USBUART_PutChar
 367              	.LVL45:
 182:.\main.c      ****                         data[0] = input[0][0];
 368              		.loc 1 182 0
 369 01e8 414B     		ldr	r3, .L59+8
 370 01ea 1A88     		ldrh	r2, [r3]
 371 01ec 92B2     		uxth	r2, r2
 372 01ee 3E4C     		ldr	r4, .L59
 373 01f0 A287     		strh	r2, [r4, #60]	@ movhi
 183:.\main.c      ****                         data[1] = input[1][0];
 374              		.loc 1 183 0
 375 01f2 03F58052 		add	r2, r3, #4096
 376 01f6 1288     		ldrh	r2, [r2]
 377 01f8 92B2     		uxth	r2, r2
 378 01fa E287     		strh	r2, [r4, #62]	@ movhi
 184:.\main.c      ****                         data[2] = input[2][0];
 379              		.loc 1 184 0
 380 01fc 03F50052 		add	r2, r3, #8192
 381 0200 1288     		ldrh	r2, [r2]
 382 0202 92B2     		uxth	r2, r2
ARM GAS  C:\Users\Thomas\AppData\Local\Temp\cc05Q7k2.s 			page 11


 383 0204 A4F84020 		strh	r2, [r4, #64]	@ movhi
 185:.\main.c      ****                         data[3] = input[3][0];
 384              		.loc 1 185 0
 385 0208 03F54052 		add	r2, r3, #12288
 386 020c 1288     		ldrh	r2, [r2]
 387 020e 92B2     		uxth	r2, r2
 388 0210 A4F84220 		strh	r2, [r4, #66]	@ movhi
 186:.\main.c      ****                         data[4] = input[4][0];
 389              		.loc 1 186 0
 390 0214 03F58042 		add	r2, r3, #16384
 391 0218 1288     		ldrh	r2, [r2]
 392 021a 92B2     		uxth	r2, r2
 393 021c A4F84420 		strh	r2, [r4, #68]	@ movhi
 187:.\main.c      ****                         data[5] = input[5][0];
 394              		.loc 1 187 0
 395 0220 03F5A043 		add	r3, r3, #20480
 396 0224 1B88     		ldrh	r3, [r3]
 397 0226 9BB2     		uxth	r3, r3
 398 0228 A4F84630 		strh	r3, [r4, #70]	@ movhi
 188:.\main.c      ****                         timer_ready[0] = 1;
 399              		.loc 1 188 0
 400 022c 0123     		movs	r3, #1
 401 022e A364     		str	r3, [r4, #72]
 189:.\main.c      ****                         timer_ready[1] = 1;
 402              		.loc 1 189 0
 403 0230 E364     		str	r3, [r4, #76]
 190:.\main.c      ****                         ready = 1;
 404              		.loc 1 190 0
 405 0232 2365     		str	r3, [r4, #80]
 191:.\main.c      ****                         playing = 1;
 406              		.loc 1 191 0
 407 0234 2360     		str	r3, [r4]
 192:.\main.c      ****                         request[0] = 0;
 408              		.loc 1 192 0
 409 0236 0023     		movs	r3, #0
 410 0238 6360     		str	r3, [r4, #4]
 193:.\main.c      ****                         P1_IRQ_Start();
 411              		.loc 1 193 0
 412 023a FFF7FEFF 		bl	P1_IRQ_Start
 413              	.LVL46:
 194:.\main.c      ****                         if(ports > 1)
 414              		.loc 1 194 0
 415 023e A36A     		ldr	r3, [r4, #40]
 416 0240 012B     		cmp	r3, #1
 417 0242 7FF70AAF 		ble	.L9
 195:.\main.c      ****                         {
 196:.\main.c      ****                             P2_IRQ_Start();
 418              		.loc 1 196 0
 419 0246 FFF7FEFF 		bl	P2_IRQ_Start
 420              	.LVL47:
 197:.\main.c      ****                             request[1] = 0;
 421              		.loc 1 197 0
 422 024a 0022     		movs	r2, #0
 423 024c A260     		str	r2, [r4, #8]
 424 024e 04E7     		b	.L9
 425              	.LVL48:
 426              	.L33:
ARM GAS  C:\Users\Thomas\AppData\Local\Temp\cc05Q7k2.s 			page 12


 198:.\main.c      ****                         }
 199:.\main.c      ****                         break;
 200:.\main.c      ****                     }
 201:.\main.c      ****                     case 0xF0:
 202:.\main.c      ****                     {
 203:.\main.c      ****                         tmp = 0;
 204:.\main.c      ****                         for(j = 1; j < 61; j+= databits * lines)
 205:.\main.c      ****                         {
 206:.\main.c      ****                             for(d = 0; d < lines; d++)
 207:.\main.c      ****                             {
 208:.\main.c      ****                                 tmp = 0;
 209:.\main.c      ****                                 for(i = 0; i < databits; i++)
 210:.\main.c      ****                                 {
 211:.\main.c      ****                                     tmp = (tmp<<8) + buffer[j+(d*databits)+i];
 427              		.loc 1 211 0 discriminator 3
 428 0250 254B     		ldr	r3, .L59
 429 0252 5B6A     		ldr	r3, [r3, #36]
 430 0254 03FB0453 		mla	r3, r3, r4, r5
 431 0258 1344     		add	r3, r3, r2
 432 025a 10A9     		add	r1, sp, #64
 433 025c 0B44     		add	r3, r3, r1
 434 025e 13F8401C 		ldrb	r1, [r3, #-64]	@ zero_extendqisi2
 435 0262 01EB0023 		add	r3, r1, r0, lsl #8
 436 0266 98B2     		uxth	r0, r3
 437              	.LVL49:
 209:.\main.c      ****                                 {
 438              		.loc 1 209 0 discriminator 3
 439 0268 0132     		adds	r2, r2, #1
 440              	.LVL50:
 441 026a 01E0     		b	.L34
 442              	.LVL51:
 443              	.L51:
 444 026c 0022     		movs	r2, #0
 445 026e 1046     		mov	r0, r2
 446              	.L34:
 447              	.LVL52:
 209:.\main.c      ****                                 {
 448              		.loc 1 209 0 is_stmt 0 discriminator 1
 449 0270 1D49     		ldr	r1, .L59
 450 0272 496A     		ldr	r1, [r1, #36]
 451 0274 8A42     		cmp	r2, r1
 452 0276 EBDB     		blt	.L33
 212:.\main.c      ****                                 }
 213:.\main.c      ****                                 input[d][buf_ptr[0]] = tmp;
 453              		.loc 1 213 0 is_stmt 1 discriminator 2
 454 0278 1B4B     		ldr	r3, .L59
 455 027a DB68     		ldr	r3, [r3, #12]
 456 027c 03EBC423 		add	r3, r3, r4, lsl #11
 457 0280 1B4A     		ldr	r2, .L59+8
 458              	.LVL53:
 459 0282 22F81300 		strh	r0, [r2, r3, lsl #1]	@ movhi
 206:.\main.c      ****                             {
 460              		.loc 1 206 0 discriminator 2
 461 0286 0134     		adds	r4, r4, #1
 462              	.LVL54:
 463 0288 00E0     		b	.L36
 464              	.LVL55:
ARM GAS  C:\Users\Thomas\AppData\Local\Temp\cc05Q7k2.s 			page 13


 465              	.L52:
 466 028a 0024     		movs	r4, #0
 467              	.L36:
 468              	.LVL56:
 206:.\main.c      ****                             {
 469              		.loc 1 206 0 is_stmt 0 discriminator 1
 470 028c 164B     		ldr	r3, .L59
 471 028e DB6A     		ldr	r3, [r3, #44]
 472 0290 9C42     		cmp	r4, r3
 473 0292 EBDB     		blt	.L51
 214:.\main.c      ****                             }
 215:.\main.c      ****         					buf_ptr[0] = (buf_ptr[0]+1)%INPUT_BUF_SIZE;
 474              		.loc 1 215 0 is_stmt 1 discriminator 2
 475 0294 144B     		ldr	r3, .L59
 476 0296 DA68     		ldr	r2, [r3, #12]
 477 0298 0132     		adds	r2, r2, #1
 478 029a 164B     		ldr	r3, .L59+12
 479 029c 1340     		ands	r3, r3, r2
 480 029e 002B     		cmp	r3, #0
 481 02a0 05DA     		bge	.L35
 482 02a2 013B     		subs	r3, r3, #1
 483 02a4 6FEA4353 		mvn	r3, r3, lsl #21
 484 02a8 6FEA5353 		mvn	r3, r3, lsr #21
 485 02ac 0133     		adds	r3, r3, #1
 486              	.L35:
 487 02ae 0E4A     		ldr	r2, .L59
 488 02b0 D360     		str	r3, [r2, #12]
 204:.\main.c      ****                         {
 489              		.loc 1 204 0 discriminator 2
 490 02b2 536A     		ldr	r3, [r2, #36]
 491 02b4 D26A     		ldr	r2, [r2, #44]
 492 02b6 02FB0355 		mla	r5, r2, r3, r5
 493              	.LVL57:
 494 02ba 00E0     		b	.L20
 495              	.LVL58:
 496              	.L47:
 108:.\main.c      ****                 {
 497              		.loc 1 108 0
 498 02bc 0125     		movs	r5, #1
 499              	.LVL59:
 500              	.L20:
 204:.\main.c      ****                         {
 501              		.loc 1 204 0 discriminator 1
 502 02be 3C2D     		cmp	r5, #60
 503 02c0 E3DD     		ble	.L52
 216:.\main.c      ****                         }
 217:.\main.c      ****                         request[0] = 0;
 504              		.loc 1 217 0
 505 02c2 0022     		movs	r2, #0
 506 02c4 084B     		ldr	r3, .L59
 507 02c6 5A60     		str	r2, [r3, #4]
 218:.\main.c      ****                         break;
 508              		.loc 1 218 0
 509 02c8 C7E6     		b	.L9
 510              	.LVL60:
 511              	.L37:
 219:.\main.c      ****                     }
ARM GAS  C:\Users\Thomas\AppData\Local\Temp\cc05Q7k2.s 			page 14


 220:.\main.c      ****                     case 0xF1:
 221:.\main.c      ****                     {
 222:.\main.c      ****                         tmp = 0;
 223:.\main.c      ****                         for(j = 1; j < 61; j+= databits * lines)
 224:.\main.c      ****                         {
 225:.\main.c      ****                             for(d = 0; d < lines; d++)
 226:.\main.c      ****                             {
 227:.\main.c      ****                                 tmp = 0;
 228:.\main.c      ****                                 for(i = 0; i < databits; i++)
 229:.\main.c      ****                                 {
 230:.\main.c      ****                                     tmp = (tmp<<8) + buffer[j+(d*databits)+i];
 512              		.loc 1 230 0 discriminator 3
 513 02ca 074B     		ldr	r3, .L59
 514 02cc 5B6A     		ldr	r3, [r3, #36]
 515 02ce 03FB0453 		mla	r3, r3, r4, r5
 516 02d2 1344     		add	r3, r3, r2
 517 02d4 10A9     		add	r1, sp, #64
 518 02d6 0B44     		add	r3, r3, r1
 519 02d8 13F8401C 		ldrb	r1, [r3, #-64]	@ zero_extendqisi2
 520 02dc 01EB0023 		add	r3, r1, r0, lsl #8
 521 02e0 98B2     		uxth	r0, r3
 522              	.LVL61:
 228:.\main.c      ****                                 {
 523              		.loc 1 228 0 discriminator 3
 524 02e2 0132     		adds	r2, r2, #1
 525              	.LVL62:
 526 02e4 0AE0     		b	.L38
 527              	.L60:
 528 02e6 00BF     		.align	2
 529              	.L59:
 530 02e8 00000000 		.word	.LANCHOR0
 531 02ec 00000000 		.word	input_ptr
 532 02f0 00000000 		.word	input
 533 02f4 FF070080 		.word	-2147481601
 534              	.LVL63:
 535              	.L53:
 536 02f8 0022     		movs	r2, #0
 537 02fa 1046     		mov	r0, r2
 538              	.L38:
 539              	.LVL64:
 228:.\main.c      ****                                 {
 540              		.loc 1 228 0 is_stmt 0 discriminator 1
 541 02fc 664B     		ldr	r3, .L61
 542 02fe 5B6A     		ldr	r3, [r3, #36]
 543 0300 9A42     		cmp	r2, r3
 544 0302 E2DB     		blt	.L37
 231:.\main.c      ****                                 }
 232:.\main.c      ****                                 input[3 + d][buf_ptr[1]] = tmp;
 545              		.loc 1 232 0 is_stmt 1 discriminator 2
 546 0304 E21C     		adds	r2, r4, #3
 547              	.LVL65:
 548 0306 644B     		ldr	r3, .L61
 549 0308 1B69     		ldr	r3, [r3, #16]
 550 030a 03EBC223 		add	r3, r3, r2, lsl #11
 551 030e 634A     		ldr	r2, .L61+4
 552 0310 22F81300 		strh	r0, [r2, r3, lsl #1]	@ movhi
 225:.\main.c      ****                             {
ARM GAS  C:\Users\Thomas\AppData\Local\Temp\cc05Q7k2.s 			page 15


 553              		.loc 1 225 0 discriminator 2
 554 0314 0134     		adds	r4, r4, #1
 555              	.LVL66:
 556 0316 00E0     		b	.L40
 557              	.LVL67:
 558              	.L54:
 559 0318 0024     		movs	r4, #0
 560              	.L40:
 561              	.LVL68:
 225:.\main.c      ****                             {
 562              		.loc 1 225 0 is_stmt 0 discriminator 1
 563 031a 5F4B     		ldr	r3, .L61
 564 031c DB6A     		ldr	r3, [r3, #44]
 565 031e 9C42     		cmp	r4, r3
 566 0320 EADB     		blt	.L53
 233:.\main.c      ****                             }
 234:.\main.c      ****         					buf_ptr[1] = (buf_ptr[1]+1)%INPUT_BUF_SIZE;
 567              		.loc 1 234 0 is_stmt 1 discriminator 2
 568 0322 5D4B     		ldr	r3, .L61
 569 0324 1A69     		ldr	r2, [r3, #16]
 570 0326 0132     		adds	r2, r2, #1
 571 0328 5D4B     		ldr	r3, .L61+8
 572 032a 1340     		ands	r3, r3, r2
 573 032c 002B     		cmp	r3, #0
 574 032e 05DA     		bge	.L39
 575 0330 013B     		subs	r3, r3, #1
 576 0332 6FEA4353 		mvn	r3, r3, lsl #21
 577 0336 6FEA5353 		mvn	r3, r3, lsr #21
 578 033a 0133     		adds	r3, r3, #1
 579              	.L39:
 580 033c 564A     		ldr	r2, .L61
 581 033e 1361     		str	r3, [r2, #16]
 223:.\main.c      ****                         {
 582              		.loc 1 223 0 discriminator 2
 583 0340 536A     		ldr	r3, [r2, #36]
 584 0342 D26A     		ldr	r2, [r2, #44]
 585 0344 02FB0355 		mla	r5, r2, r3, r5
 586              	.LVL69:
 587 0348 00E0     		b	.L26
 588              	.LVL70:
 589              	.L48:
 108:.\main.c      ****                 {
 590              		.loc 1 108 0
 591 034a 0125     		movs	r5, #1
 592              	.LVL71:
 593              	.L26:
 223:.\main.c      ****                         {
 594              		.loc 1 223 0 discriminator 1
 595 034c 3C2D     		cmp	r5, #60
 596 034e E3DD     		ble	.L54
 235:.\main.c      ****                         }
 236:.\main.c      ****                         request[1] = 0;
 597              		.loc 1 236 0
 598 0350 0022     		movs	r2, #0
 599 0352 514B     		ldr	r3, .L61
 600 0354 9A60     		str	r2, [r3, #8]
 237:.\main.c      ****                         break;
ARM GAS  C:\Users\Thomas\AppData\Local\Temp\cc05Q7k2.s 			page 16


 601              		.loc 1 237 0
 602 0356 80E6     		b	.L9
 603              	.LVL72:
 604              	.L41:
 238:.\main.c      ****                     }
 239:.\main.c      ****                     case 0xF2:
 240:.\main.c      ****                     {
 241:.\main.c      ****                         /* synchronous send to both ports with interleaved data */
 242:.\main.c      ****                         for(j = 1; j < 61; j+= (databits * lines) * 2)
 243:.\main.c      ****                         {
 244:.\main.c      ****                             for(p = 0; p < 2; p++)
 245:.\main.c      ****                             {
 246:.\main.c      ****                                 for(d = 0; d < lines; d++)
 247:.\main.c      ****                                 {
 248:.\main.c      ****                                     tmp = 0;
 249:.\main.c      ****                                     for(i = 0; i < databits; i++)
 250:.\main.c      ****                                     {
 251:.\main.c      ****                                         tmp = (tmp<<8) + buffer[j+(p*(databits*lines))+(d*databits)
 605              		.loc 1 251 0 discriminator 3
 606 0358 4F48     		ldr	r0, .L61
 607 035a 426A     		ldr	r2, [r0, #36]
 608 035c C36A     		ldr	r3, [r0, #44]
 609 035e 03FB02F3 		mul	r3, r3, r2
 610 0362 05FB0362 		mla	r2, r5, r3, r6
 611 0366 436A     		ldr	r3, [r0, #36]
 612 0368 03FB0423 		mla	r3, r3, r4, r2
 613 036c 0B44     		add	r3, r3, r1
 614 036e 10AA     		add	r2, sp, #64
 615 0370 1344     		add	r3, r3, r2
 616 0372 13F8402C 		ldrb	r2, [r3, #-64]	@ zero_extendqisi2
 617 0376 02EB0723 		add	r3, r2, r7, lsl #8
 618 037a 9FB2     		uxth	r7, r3
 619              	.LVL73:
 249:.\main.c      ****                                     {
 620              		.loc 1 249 0 discriminator 3
 621 037c 0131     		adds	r1, r1, #1
 622              	.LVL74:
 623 037e 01E0     		b	.L42
 624              	.LVL75:
 625              	.L55:
 626 0380 0021     		movs	r1, #0
 627 0382 0F46     		mov	r7, r1
 628              	.L42:
 629              	.LVL76:
 249:.\main.c      ****                                     {
 630              		.loc 1 249 0 is_stmt 0 discriminator 1
 631 0384 444B     		ldr	r3, .L61
 632 0386 5B6A     		ldr	r3, [r3, #36]
 633 0388 9942     		cmp	r1, r3
 634 038a E5DB     		blt	.L41
 252:.\main.c      ****                                     }
 253:.\main.c      ****                                     input[(p*3) + d][buf_ptr[0]] = tmp;
 635              		.loc 1 253 0 is_stmt 1 discriminator 2
 636 038c 05EB4503 		add	r3, r5, r5, lsl #1
 637 0390 1A19     		adds	r2, r3, r4
 638 0392 414B     		ldr	r3, .L61
 639 0394 DB68     		ldr	r3, [r3, #12]
ARM GAS  C:\Users\Thomas\AppData\Local\Temp\cc05Q7k2.s 			page 17


 640 0396 03EBC223 		add	r3, r3, r2, lsl #11
 641 039a 404A     		ldr	r2, .L61+4
 642 039c 22F81370 		strh	r7, [r2, r3, lsl #1]	@ movhi
 246:.\main.c      ****                                 {
 643              		.loc 1 246 0 discriminator 2
 644 03a0 0134     		adds	r4, r4, #1
 645              	.LVL77:
 646 03a2 00E0     		b	.L43
 647              	.LVL78:
 648              	.L56:
 649 03a4 0024     		movs	r4, #0
 650              	.L43:
 651              	.LVL79:
 246:.\main.c      ****                                 {
 652              		.loc 1 246 0 is_stmt 0 discriminator 1
 653 03a6 3C4B     		ldr	r3, .L61
 654 03a8 DB6A     		ldr	r3, [r3, #44]
 655 03aa 9C42     		cmp	r4, r3
 656 03ac E8DB     		blt	.L55
 244:.\main.c      ****                             {
 657              		.loc 1 244 0 is_stmt 1 discriminator 2
 658 03ae 0135     		adds	r5, r5, #1
 659              	.LVL80:
 660 03b0 00E0     		b	.L46
 661              	.LVL81:
 662              	.L57:
 663 03b2 0025     		movs	r5, #0
 664              	.L46:
 665              	.LVL82:
 244:.\main.c      ****                             {
 666              		.loc 1 244 0 is_stmt 0 discriminator 1
 667 03b4 012D     		cmp	r5, #1
 668 03b6 F5DD     		ble	.L56
 254:.\main.c      ****                                 }
 255:.\main.c      ****                             }
 256:.\main.c      ****         					buf_ptr[0] = (buf_ptr[0]+1)%INPUT_BUF_SIZE;
 669              		.loc 1 256 0 is_stmt 1 discriminator 2
 670 03b8 374B     		ldr	r3, .L61
 671 03ba DA68     		ldr	r2, [r3, #12]
 672 03bc 0132     		adds	r2, r2, #1
 673 03be 384B     		ldr	r3, .L61+8
 674 03c0 1340     		ands	r3, r3, r2
 675 03c2 002B     		cmp	r3, #0
 676 03c4 05DA     		bge	.L44
 677 03c6 013B     		subs	r3, r3, #1
 678 03c8 6FEA4353 		mvn	r3, r3, lsl #21
 679 03cc 6FEA5353 		mvn	r3, r3, lsr #21
 680 03d0 0133     		adds	r3, r3, #1
 681              	.L44:
 682 03d2 314A     		ldr	r2, .L61
 683 03d4 D360     		str	r3, [r2, #12]
 257:.\main.c      ****                             buf_ptr[1] = (buf_ptr[1]+1)%INPUT_BUF_SIZE;
 684              		.loc 1 257 0 discriminator 2
 685 03d6 1269     		ldr	r2, [r2, #16]
 686 03d8 0132     		adds	r2, r2, #1
 687 03da 314B     		ldr	r3, .L61+8
 688 03dc 1340     		ands	r3, r3, r2
ARM GAS  C:\Users\Thomas\AppData\Local\Temp\cc05Q7k2.s 			page 18


 689 03de 002B     		cmp	r3, #0
 690 03e0 05DA     		bge	.L45
 691 03e2 013B     		subs	r3, r3, #1
 692 03e4 6FEA4353 		mvn	r3, r3, lsl #21
 693 03e8 6FEA5353 		mvn	r3, r3, lsr #21
 694 03ec 0133     		adds	r3, r3, #1
 695              	.L45:
 696 03ee 2A4A     		ldr	r2, .L61
 697 03f0 1361     		str	r3, [r2, #16]
 242:.\main.c      ****                         {
 698              		.loc 1 242 0 discriminator 2
 699 03f2 516A     		ldr	r1, [r2, #36]
 700 03f4 D36A     		ldr	r3, [r2, #44]
 701 03f6 03FB01F3 		mul	r3, r3, r1
 702 03fa 06EB4306 		add	r6, r6, r3, lsl #1
 703              	.LVL83:
 704 03fe 00E0     		b	.L25
 705              	.LVL84:
 706              	.L49:
 108:.\main.c      ****                 {
 707              		.loc 1 108 0
 708 0400 0126     		movs	r6, #1
 709              	.LVL85:
 710              	.L25:
 242:.\main.c      ****                         {
 711              		.loc 1 242 0 discriminator 1
 712 0402 3C2E     		cmp	r6, #60
 713 0404 D5DD     		ble	.L57
 258:.\main.c      ****                         }
 259:.\main.c      ****                         request[0] = 0;
 714              		.loc 1 259 0
 715 0406 0022     		movs	r2, #0
 716 0408 234B     		ldr	r3, .L61
 717 040a 5A60     		str	r2, [r3, #4]
 260:.\main.c      ****                         break;
 718              		.loc 1 260 0
 719 040c 25E6     		b	.L9
 720              	.LVL86:
 721              	.L13:
 261:.\main.c      ****                     }
 262:.\main.c      ****                     case 0xA0:
 263:.\main.c      ****                     {                        
 264:.\main.c      ****                         P1_WinTimer_WritePeriod((buffer[1]<<8) + (buffer[2]&0xFF));
 722              		.loc 1 264 0
 723 040e 9DF80100 		ldrb	r0, [sp, #1]	@ zero_extendqisi2
 724 0412 9DF80230 		ldrb	r3, [sp, #2]	@ zero_extendqisi2
 725              	.LVL87:
 726 0416 03EB0020 		add	r0, r3, r0, lsl #8
 727 041a 80B2     		uxth	r0, r0
 728 041c FFF7FEFF 		bl	P1_WinTimer_WritePeriod
 729              	.LVL88:
 265:.\main.c      ****                         break;
 730              		.loc 1 265 0
 731 0420 1BE6     		b	.L9
 732              	.LVL89:
 733              	.L18:
 266:.\main.c      ****                     }
ARM GAS  C:\Users\Thomas\AppData\Local\Temp\cc05Q7k2.s 			page 19


 267:.\main.c      ****                     case 0xA1:
 268:.\main.c      ****                     {
 269:.\main.c      ****                         window_off[0] = (buffer[1]<<8) + (buffer[2]&0xFF);
 734              		.loc 1 269 0
 735 0422 9DF80120 		ldrb	r2, [sp, #1]	@ zero_extendqisi2
 736 0426 9DF80230 		ldrb	r3, [sp, #2]	@ zero_extendqisi2
 737              	.LVL90:
 738 042a 03EB0223 		add	r3, r3, r2, lsl #8
 739 042e 1D4A     		ldr	r2, .L61+12
 740 0430 1360     		str	r3, [r2]
 270:.\main.c      ****                         break;
 741              		.loc 1 270 0
 742 0432 12E6     		b	.L9
 743              	.LVL91:
 744              	.L17:
 271:.\main.c      ****                     }
 272:.\main.c      ****                     case 0xA2:
 273:.\main.c      ****                     {
 274:.\main.c      ****                         disable_timer[0] = 1;
 745              		.loc 1 274 0
 746 0434 0122     		movs	r2, #1
 747 0436 184B     		ldr	r3, .L61
 748              	.LVL92:
 749 0438 5A65     		str	r2, [r3, #84]
 275:.\main.c      ****                         break;
 750              		.loc 1 275 0
 751 043a 0EE6     		b	.L9
 752              	.LVL93:
 753              	.L19:
 276:.\main.c      ****                     }
 277:.\main.c      ****                     case 0xA3:
 278:.\main.c      ****                     {
 279:.\main.c      ****                         disable_timer[0] = 0;
 754              		.loc 1 279 0
 755 043c 164B     		ldr	r3, .L61
 756              	.LVL94:
 757 043e 0022     		movs	r2, #0
 758 0440 5A65     		str	r2, [r3, #84]
 280:.\main.c      ****                         use_timer[0] = 1;
 759              		.loc 1 280 0
 760 0442 0122     		movs	r2, #1
 761 0444 1A63     		str	r2, [r3, #48]
 281:.\main.c      ****                         timer_ready[0] = 1;
 762              		.loc 1 281 0
 763 0446 9A64     		str	r2, [r3, #72]
 282:.\main.c      ****                         break;
 764              		.loc 1 282 0
 765 0448 07E6     		b	.L9
 766              	.LVL95:
 767              	.L11:
 283:.\main.c      ****                     }
 284:.\main.c      ****                     case 0xB0:
 285:.\main.c      ****                     {                        
 286:.\main.c      ****                         P2_WinTimer_WritePeriod((buffer[1]<<8) + (buffer[2]&0xFF));
 768              		.loc 1 286 0
 769 044a 9DF80100 		ldrb	r0, [sp, #1]	@ zero_extendqisi2
 770 044e 9DF80230 		ldrb	r3, [sp, #2]	@ zero_extendqisi2
ARM GAS  C:\Users\Thomas\AppData\Local\Temp\cc05Q7k2.s 			page 20


 771              	.LVL96:
 772 0452 03EB0020 		add	r0, r3, r0, lsl #8
 773 0456 80B2     		uxth	r0, r0
 774 0458 FFF7FEFF 		bl	P2_WinTimer_WritePeriod
 775              	.LVL97:
 287:.\main.c      ****                         break;
 776              		.loc 1 287 0
 777 045c FDE5     		b	.L9
 778              	.LVL98:
 779              	.L23:
 288:.\main.c      ****                     }
 289:.\main.c      ****                     case 0xB1:
 290:.\main.c      ****                     {
 291:.\main.c      ****                         window_off[1] = (buffer[1]<<8) + (buffer[2]&0xFF);
 780              		.loc 1 291 0
 781 045e 9DF80120 		ldrb	r2, [sp, #1]	@ zero_extendqisi2
 782 0462 9DF80230 		ldrb	r3, [sp, #2]	@ zero_extendqisi2
 783              	.LVL99:
 784 0466 03EB0223 		add	r3, r3, r2, lsl #8
 785 046a 0E4A     		ldr	r2, .L61+12
 786 046c 5360     		str	r3, [r2, #4]
 292:.\main.c      ****                         break;
 787              		.loc 1 292 0
 788 046e F4E5     		b	.L9
 789              	.LVL100:
 790              	.L22:
 293:.\main.c      ****                     }
 294:.\main.c      ****                     case 0xB2:
 295:.\main.c      ****                     {
 296:.\main.c      ****                         disable_timer[1] = 1;
 791              		.loc 1 296 0
 792 0470 0122     		movs	r2, #1
 793 0472 094B     		ldr	r3, .L61
 794              	.LVL101:
 795 0474 9A65     		str	r2, [r3, #88]
 297:.\main.c      ****                         break;
 796              		.loc 1 297 0
 797 0476 F0E5     		b	.L9
 798              	.LVL102:
 799              	.L24:
 298:.\main.c      ****                     }
 299:.\main.c      ****                     case 0xB3:
 300:.\main.c      ****                     {
 301:.\main.c      ****                         disable_timer[1] = 0;
 800              		.loc 1 301 0
 801 0478 074B     		ldr	r3, .L61
 802              	.LVL103:
 803 047a 0022     		movs	r2, #0
 804 047c 9A65     		str	r2, [r3, #88]
 302:.\main.c      ****                         use_timer[1] = 1;
 805              		.loc 1 302 0
 806 047e 0122     		movs	r2, #1
 807 0480 5A63     		str	r2, [r3, #52]
 303:.\main.c      ****                         timer_ready[1] = 1;
 808              		.loc 1 303 0
 809 0482 DA64     		str	r2, [r3, #76]
 304:.\main.c      ****                         break;
ARM GAS  C:\Users\Thomas\AppData\Local\Temp\cc05Q7k2.s 			page 21


 810              		.loc 1 304 0
 811 0484 E9E5     		b	.L9
 812              	.LVL104:
 813              	.L27:
 305:.\main.c      ****                     }
 306:.\main.c      ****                     case 0xFF:
 307:.\main.c      ****                     {
 308:.\main.c      ****                         while (0u == USBUART_CDCIsReady()) { }
 814              		.loc 1 308 0 discriminator 1
 815 0486 FFF7FEFF 		bl	USBUART_CDCIsReady
 816              	.LVL105:
 817 048a 0028     		cmp	r0, #0
 818 048c FBD0     		beq	.L27
 309:.\main.c      ****                         USBUART_PutChar(0xFF);
 819              		.loc 1 309 0
 820 048e FF20     		movs	r0, #255
 821 0490 FFF7FEFF 		bl	USBUART_PutChar
 822              	.LVL106:
 310:.\main.c      ****                         break;
 823              		.loc 1 310 0
 824 0494 E1E5     		b	.L9
 825              	.L62:
 826 0496 00BF     		.align	2
 827              	.L61:
 828 0498 00000000 		.word	.LANCHOR0
 829 049c 00000000 		.word	input
 830 04a0 FF070080 		.word	-2147481601
 831 04a4 00000000 		.word	.LANCHOR1
 832              		.cfi_endproc
 833              	.LFE63:
 834              		.size	main, .-main
 835              		.global	databits
 836              		.global	count
 837              		.global	request
 838              		.global	lines
 839              		.global	ports
 840              		.global	latches
 841              		.global	window_off
 842              		.global	bytes
 843              		.global	disable_timer
 844              		.global	use_timer
 845              		.global	timer_ready
 846              		.global	ready
 847              		.comm	input,24576,4
 848              		.global	data
 849              		.global	buf_ptr
 850              		.comm	input_ptr,8,4
 851              		.global	playing
 852              		.global	sent
 853              		.data
 854              		.align	2
 855              		.set	.LANCHOR1,. + 0
 856              		.type	window_off, %object
 857              		.size	window_off, 8
 858              	window_off:
 859 0000 FFFFFFFF 		.word	-1
 860 0004 FFFFFFFF 		.word	-1
ARM GAS  C:\Users\Thomas\AppData\Local\Temp\cc05Q7k2.s 			page 22


 861              		.bss
 862              		.align	2
 863              		.set	.LANCHOR0,. + 0
 864              		.type	playing, %object
 865              		.size	playing, 4
 866              	playing:
 867 0000 00000000 		.space	4
 868              		.type	request, %object
 869              		.size	request, 8
 870              	request:
 871 0004 00000000 		.space	8
 871      00000000 
 872              		.type	buf_ptr, %object
 873              		.size	buf_ptr, 8
 874              	buf_ptr:
 875 000c 00000000 		.space	8
 875      00000000 
 876              		.type	bytes, %object
 877              		.size	bytes, 4
 878              	bytes:
 879 0014 00000000 		.space	4
 880              		.type	count, %object
 881              		.size	count, 4
 882              	count:
 883 0018 00000000 		.space	4
 884              		.type	latches, %object
 885              		.size	latches, 8
 886              	latches:
 887 001c 00000000 		.space	8
 887      00000000 
 888              		.type	databits, %object
 889              		.size	databits, 4
 890              	databits:
 891 0024 00000000 		.space	4
 892              		.type	ports, %object
 893              		.size	ports, 4
 894              	ports:
 895 0028 00000000 		.space	4
 896              		.type	lines, %object
 897              		.size	lines, 4
 898              	lines:
 899 002c 00000000 		.space	4
 900              		.type	use_timer, %object
 901              		.size	use_timer, 8
 902              	use_timer:
 903 0030 00000000 		.space	8
 903      00000000 
 904              		.type	sent, %object
 905              		.size	sent, 4
 906              	sent:
 907 0038 00000000 		.space	4
 908              		.type	data, %object
 909              		.size	data, 12
 910              	data:
 911 003c 00000000 		.space	12
 911      00000000 
 911      00000000 
ARM GAS  C:\Users\Thomas\AppData\Local\Temp\cc05Q7k2.s 			page 23


 912              		.type	timer_ready, %object
 913              		.size	timer_ready, 8
 914              	timer_ready:
 915 0048 00000000 		.space	8
 915      00000000 
 916              		.type	ready, %object
 917              		.size	ready, 4
 918              	ready:
 919 0050 00000000 		.space	4
 920              		.type	disable_timer, %object
 921              		.size	disable_timer, 8
 922              	disable_timer:
 923 0054 00000000 		.space	8
 923      00000000 
 924              		.text
 925              	.Letext0:
 926              		.file 2 "c:\\program files (x86)\\cypress\\psoc creator\\3.3\\psoc creator\\import\\gnu\\arm\\4.9.
 927              		.file 3 "c:\\program files (x86)\\cypress\\psoc creator\\3.3\\psoc creator\\import\\gnu\\arm\\4.9.
 928              		.file 4 "Generated_Source\\PSoC5/cytypes.h"
 929              		.file 5 "Generated_Source\\PSoC5/core_cm3.h"
 930              		.file 6 "Generated_Source\\PSoC5/USBUART.h"
 931              		.file 7 "Generated_Source\\PSoC5/P1_RegD0.h"
 932              		.file 8 "Generated_Source\\PSoC5/P1_RegD1.h"
 933              		.file 9 "Generated_Source\\PSoC5/P1_RegD2.h"
 934              		.file 10 "Generated_Source\\PSoC5/P1_WinTimer.h"
 935              		.file 11 "Generated_Source\\PSoC5/P1_TimerIRQ.h"
 936              		.file 12 "Generated_Source\\PSoC5/P2_RegD0.h"
 937              		.file 13 "Generated_Source\\PSoC5/P2_RegD1.h"
 938              		.file 14 "Generated_Source\\PSoC5/P2_RegD2.h"
 939              		.file 15 "Generated_Source\\PSoC5/P2_WinTimer.h"
 940              		.file 16 "Generated_Source\\PSoC5/P2_TimerIRQ.h"
 941              		.file 17 "Generated_Source\\PSoC5/USBUART_cdc.h"
 942              		.file 18 "Generated_Source\\PSoC5/P1_IRQ.h"
 943              		.file 19 "Generated_Source\\PSoC5/P2_IRQ.h"