ARM GAS  C:\Users\Thomas\AppData\Local\Temp\ccMJFnoC.s 			page 1


   1              		.syntax unified
   2              		.cpu cortex-m3
   3              		.fpu softvfp
   4              		.eabi_attribute 20, 1
   5              		.eabi_attribute 21, 1
   6              		.eabi_attribute 23, 3
   7              		.eabi_attribute 24, 1
   8              		.eabi_attribute 25, 1
   9              		.eabi_attribute 26, 1
  10              		.eabi_attribute 30, 1
  11              		.eabi_attribute 34, 1
  12              		.eabi_attribute 18, 4
  13              		.thumb
  14              		.file	"P1_IRQ.c"
  15              		.text
  16              	.Ltext0:
  17              		.cfi_sections	.debug_frame
  18              		.section	.text.P1_IRQ_Interrupt,"ax",%progbits
  19              		.align	2
  20              		.global	P1_IRQ_Interrupt
  21              		.thumb
  22              		.thumb_func
  23              		.type	P1_IRQ_Interrupt, %function
  24              	P1_IRQ_Interrupt:
  25              	.LFB66:
  26              		.file 1 ".\\Generated_Source\\PSoC5\\P1_IRQ.c"
   1:.\Generated_Source\PSoC5/P1_IRQ.c **** /*******************************************************************************
   2:.\Generated_Source\PSoC5/P1_IRQ.c **** * File Name: P1_IRQ.c  
   3:.\Generated_Source\PSoC5/P1_IRQ.c **** * Version 1.70
   4:.\Generated_Source\PSoC5/P1_IRQ.c **** *
   5:.\Generated_Source\PSoC5/P1_IRQ.c **** *  Description:
   6:.\Generated_Source\PSoC5/P1_IRQ.c **** *   API for controlling the state of an interrupt.
   7:.\Generated_Source\PSoC5/P1_IRQ.c **** *
   8:.\Generated_Source\PSoC5/P1_IRQ.c **** *
   9:.\Generated_Source\PSoC5/P1_IRQ.c **** *  Note:
  10:.\Generated_Source\PSoC5/P1_IRQ.c **** *
  11:.\Generated_Source\PSoC5/P1_IRQ.c **** ********************************************************************************
  12:.\Generated_Source\PSoC5/P1_IRQ.c **** * Copyright 2008-2015, Cypress Semiconductor Corporation.  All rights reserved.
  13:.\Generated_Source\PSoC5/P1_IRQ.c **** * You may use this file only in accordance with the license, terms, conditions, 
  14:.\Generated_Source\PSoC5/P1_IRQ.c **** * disclaimers, and limitations in the end user license agreement accompanying 
  15:.\Generated_Source\PSoC5/P1_IRQ.c **** * the software package with which this file was provided.
  16:.\Generated_Source\PSoC5/P1_IRQ.c **** *******************************************************************************/
  17:.\Generated_Source\PSoC5/P1_IRQ.c **** 
  18:.\Generated_Source\PSoC5/P1_IRQ.c **** 
  19:.\Generated_Source\PSoC5/P1_IRQ.c **** #include <cydevice_trm.h>
  20:.\Generated_Source\PSoC5/P1_IRQ.c **** #include <CyLib.h>
  21:.\Generated_Source\PSoC5/P1_IRQ.c **** #include <P1_IRQ.h>
  22:.\Generated_Source\PSoC5/P1_IRQ.c **** #include "cyapicallbacks.h"
  23:.\Generated_Source\PSoC5/P1_IRQ.c **** 
  24:.\Generated_Source\PSoC5/P1_IRQ.c **** #if !defined(P1_IRQ__REMOVED) /* Check for removal by optimization */
  25:.\Generated_Source\PSoC5/P1_IRQ.c **** 
  26:.\Generated_Source\PSoC5/P1_IRQ.c **** /*******************************************************************************
  27:.\Generated_Source\PSoC5/P1_IRQ.c **** *  Place your includes, defines and code here 
  28:.\Generated_Source\PSoC5/P1_IRQ.c **** ********************************************************************************/
  29:.\Generated_Source\PSoC5/P1_IRQ.c **** /* `#START P1_IRQ_intc` */
  30:.\Generated_Source\PSoC5/P1_IRQ.c **** #include <P1.h>
  31:.\Generated_Source\PSoC5/P1_IRQ.c **** #include <main.h>
ARM GAS  C:\Users\Thomas\AppData\Local\Temp\ccMJFnoC.s 			page 2


  32:.\Generated_Source\PSoC5/P1_IRQ.c **** /* `#END` */
  33:.\Generated_Source\PSoC5/P1_IRQ.c **** 
  34:.\Generated_Source\PSoC5/P1_IRQ.c **** #ifndef CYINT_IRQ_BASE
  35:.\Generated_Source\PSoC5/P1_IRQ.c **** #define CYINT_IRQ_BASE      16
  36:.\Generated_Source\PSoC5/P1_IRQ.c **** #endif /* CYINT_IRQ_BASE */
  37:.\Generated_Source\PSoC5/P1_IRQ.c **** #ifndef CYINT_VECT_TABLE
  38:.\Generated_Source\PSoC5/P1_IRQ.c **** #define CYINT_VECT_TABLE    ((cyisraddress **) CYREG_NVIC_VECT_OFFSET)
  39:.\Generated_Source\PSoC5/P1_IRQ.c **** #endif /* CYINT_VECT_TABLE */
  40:.\Generated_Source\PSoC5/P1_IRQ.c **** 
  41:.\Generated_Source\PSoC5/P1_IRQ.c **** /* Declared in startup, used to set unused interrupts to. */
  42:.\Generated_Source\PSoC5/P1_IRQ.c **** CY_ISR_PROTO(IntDefaultHandler);
  43:.\Generated_Source\PSoC5/P1_IRQ.c **** 
  44:.\Generated_Source\PSoC5/P1_IRQ.c **** 
  45:.\Generated_Source\PSoC5/P1_IRQ.c **** /*******************************************************************************
  46:.\Generated_Source\PSoC5/P1_IRQ.c **** * Function Name: P1_IRQ_Start
  47:.\Generated_Source\PSoC5/P1_IRQ.c **** ********************************************************************************
  48:.\Generated_Source\PSoC5/P1_IRQ.c **** *
  49:.\Generated_Source\PSoC5/P1_IRQ.c **** * Summary:
  50:.\Generated_Source\PSoC5/P1_IRQ.c **** *  Set up the interrupt and enable it. This function disables the interrupt, 
  51:.\Generated_Source\PSoC5/P1_IRQ.c **** *  sets the default interrupt vector, sets the priority from the value in the
  52:.\Generated_Source\PSoC5/P1_IRQ.c **** *  Design Wide Resources Interrupt Editor, then enables the interrupt to the 
  53:.\Generated_Source\PSoC5/P1_IRQ.c **** *  interrupt controller.
  54:.\Generated_Source\PSoC5/P1_IRQ.c **** *
  55:.\Generated_Source\PSoC5/P1_IRQ.c **** * Parameters:  
  56:.\Generated_Source\PSoC5/P1_IRQ.c **** *   None
  57:.\Generated_Source\PSoC5/P1_IRQ.c **** *
  58:.\Generated_Source\PSoC5/P1_IRQ.c **** * Return:
  59:.\Generated_Source\PSoC5/P1_IRQ.c **** *   None
  60:.\Generated_Source\PSoC5/P1_IRQ.c **** *
  61:.\Generated_Source\PSoC5/P1_IRQ.c **** *******************************************************************************/
  62:.\Generated_Source\PSoC5/P1_IRQ.c **** void P1_IRQ_Start(void)
  63:.\Generated_Source\PSoC5/P1_IRQ.c **** {
  64:.\Generated_Source\PSoC5/P1_IRQ.c ****     /* For all we know the interrupt is active. */
  65:.\Generated_Source\PSoC5/P1_IRQ.c ****     P1_IRQ_Disable();
  66:.\Generated_Source\PSoC5/P1_IRQ.c **** 
  67:.\Generated_Source\PSoC5/P1_IRQ.c ****     /* Set the ISR to point to the P1_IRQ Interrupt. */
  68:.\Generated_Source\PSoC5/P1_IRQ.c ****     P1_IRQ_SetVector(&P1_IRQ_Interrupt);
  69:.\Generated_Source\PSoC5/P1_IRQ.c **** 
  70:.\Generated_Source\PSoC5/P1_IRQ.c ****     /* Set the priority. */
  71:.\Generated_Source\PSoC5/P1_IRQ.c ****     P1_IRQ_SetPriority((uint8)P1_IRQ_INTC_PRIOR_NUMBER);
  72:.\Generated_Source\PSoC5/P1_IRQ.c **** 
  73:.\Generated_Source\PSoC5/P1_IRQ.c ****     /* Enable it. */
  74:.\Generated_Source\PSoC5/P1_IRQ.c ****     P1_IRQ_Enable();
  75:.\Generated_Source\PSoC5/P1_IRQ.c **** }
  76:.\Generated_Source\PSoC5/P1_IRQ.c **** 
  77:.\Generated_Source\PSoC5/P1_IRQ.c **** 
  78:.\Generated_Source\PSoC5/P1_IRQ.c **** /*******************************************************************************
  79:.\Generated_Source\PSoC5/P1_IRQ.c **** * Function Name: P1_IRQ_StartEx
  80:.\Generated_Source\PSoC5/P1_IRQ.c **** ********************************************************************************
  81:.\Generated_Source\PSoC5/P1_IRQ.c **** *
  82:.\Generated_Source\PSoC5/P1_IRQ.c **** * Summary:
  83:.\Generated_Source\PSoC5/P1_IRQ.c **** *  Sets up the interrupt and enables it. This function disables the interrupt,
  84:.\Generated_Source\PSoC5/P1_IRQ.c **** *  sets the interrupt vector based on the address passed in, sets the priority 
  85:.\Generated_Source\PSoC5/P1_IRQ.c **** *  from the value in the Design Wide Resources Interrupt Editor, then enables 
  86:.\Generated_Source\PSoC5/P1_IRQ.c **** *  the interrupt to the interrupt controller.
  87:.\Generated_Source\PSoC5/P1_IRQ.c **** *  
  88:.\Generated_Source\PSoC5/P1_IRQ.c **** *  When defining ISR functions, the CY_ISR and CY_ISR_PROTO macros should be 
ARM GAS  C:\Users\Thomas\AppData\Local\Temp\ccMJFnoC.s 			page 3


  89:.\Generated_Source\PSoC5/P1_IRQ.c **** *  used to provide consistent definition across compilers:
  90:.\Generated_Source\PSoC5/P1_IRQ.c **** *  
  91:.\Generated_Source\PSoC5/P1_IRQ.c **** *  Function definition example:
  92:.\Generated_Source\PSoC5/P1_IRQ.c **** *   CY_ISR(MyISR)
  93:.\Generated_Source\PSoC5/P1_IRQ.c **** *   {
  94:.\Generated_Source\PSoC5/P1_IRQ.c **** *   }
  95:.\Generated_Source\PSoC5/P1_IRQ.c **** *   Function prototype example:
  96:.\Generated_Source\PSoC5/P1_IRQ.c **** *   CY_ISR_PROTO(MyISR);
  97:.\Generated_Source\PSoC5/P1_IRQ.c **** *
  98:.\Generated_Source\PSoC5/P1_IRQ.c **** * Parameters:  
  99:.\Generated_Source\PSoC5/P1_IRQ.c **** *   address: Address of the ISR to set in the interrupt vector table.
 100:.\Generated_Source\PSoC5/P1_IRQ.c **** *
 101:.\Generated_Source\PSoC5/P1_IRQ.c **** * Return:
 102:.\Generated_Source\PSoC5/P1_IRQ.c **** *   None
 103:.\Generated_Source\PSoC5/P1_IRQ.c **** *
 104:.\Generated_Source\PSoC5/P1_IRQ.c **** *******************************************************************************/
 105:.\Generated_Source\PSoC5/P1_IRQ.c **** void P1_IRQ_StartEx(cyisraddress address)
 106:.\Generated_Source\PSoC5/P1_IRQ.c **** {
 107:.\Generated_Source\PSoC5/P1_IRQ.c ****     /* For all we know the interrupt is active. */
 108:.\Generated_Source\PSoC5/P1_IRQ.c ****     P1_IRQ_Disable();
 109:.\Generated_Source\PSoC5/P1_IRQ.c **** 
 110:.\Generated_Source\PSoC5/P1_IRQ.c ****     /* Set the ISR to point to the P1_IRQ Interrupt. */
 111:.\Generated_Source\PSoC5/P1_IRQ.c ****     P1_IRQ_SetVector(address);
 112:.\Generated_Source\PSoC5/P1_IRQ.c **** 
 113:.\Generated_Source\PSoC5/P1_IRQ.c ****     /* Set the priority. */
 114:.\Generated_Source\PSoC5/P1_IRQ.c ****     P1_IRQ_SetPriority((uint8)P1_IRQ_INTC_PRIOR_NUMBER);
 115:.\Generated_Source\PSoC5/P1_IRQ.c **** 
 116:.\Generated_Source\PSoC5/P1_IRQ.c ****     /* Enable it. */
 117:.\Generated_Source\PSoC5/P1_IRQ.c ****     P1_IRQ_Enable();
 118:.\Generated_Source\PSoC5/P1_IRQ.c **** }
 119:.\Generated_Source\PSoC5/P1_IRQ.c **** 
 120:.\Generated_Source\PSoC5/P1_IRQ.c **** 
 121:.\Generated_Source\PSoC5/P1_IRQ.c **** /*******************************************************************************
 122:.\Generated_Source\PSoC5/P1_IRQ.c **** * Function Name: P1_IRQ_Stop
 123:.\Generated_Source\PSoC5/P1_IRQ.c **** ********************************************************************************
 124:.\Generated_Source\PSoC5/P1_IRQ.c **** *
 125:.\Generated_Source\PSoC5/P1_IRQ.c **** * Summary:
 126:.\Generated_Source\PSoC5/P1_IRQ.c **** *   Disables and removes the interrupt.
 127:.\Generated_Source\PSoC5/P1_IRQ.c **** *
 128:.\Generated_Source\PSoC5/P1_IRQ.c **** * Parameters:  
 129:.\Generated_Source\PSoC5/P1_IRQ.c **** *   None
 130:.\Generated_Source\PSoC5/P1_IRQ.c **** *
 131:.\Generated_Source\PSoC5/P1_IRQ.c **** * Return:
 132:.\Generated_Source\PSoC5/P1_IRQ.c **** *   None
 133:.\Generated_Source\PSoC5/P1_IRQ.c **** *
 134:.\Generated_Source\PSoC5/P1_IRQ.c **** *******************************************************************************/
 135:.\Generated_Source\PSoC5/P1_IRQ.c **** void P1_IRQ_Stop(void)
 136:.\Generated_Source\PSoC5/P1_IRQ.c **** {
 137:.\Generated_Source\PSoC5/P1_IRQ.c ****     /* Disable this interrupt. */
 138:.\Generated_Source\PSoC5/P1_IRQ.c ****     P1_IRQ_Disable();
 139:.\Generated_Source\PSoC5/P1_IRQ.c **** 
 140:.\Generated_Source\PSoC5/P1_IRQ.c ****     /* Set the ISR to point to the passive one. */
 141:.\Generated_Source\PSoC5/P1_IRQ.c ****     P1_IRQ_SetVector(&IntDefaultHandler);
 142:.\Generated_Source\PSoC5/P1_IRQ.c **** }
 143:.\Generated_Source\PSoC5/P1_IRQ.c **** 
 144:.\Generated_Source\PSoC5/P1_IRQ.c **** 
 145:.\Generated_Source\PSoC5/P1_IRQ.c **** /*******************************************************************************
ARM GAS  C:\Users\Thomas\AppData\Local\Temp\ccMJFnoC.s 			page 4


 146:.\Generated_Source\PSoC5/P1_IRQ.c **** * Function Name: P1_IRQ_Interrupt
 147:.\Generated_Source\PSoC5/P1_IRQ.c **** ********************************************************************************
 148:.\Generated_Source\PSoC5/P1_IRQ.c **** *
 149:.\Generated_Source\PSoC5/P1_IRQ.c **** * Summary:
 150:.\Generated_Source\PSoC5/P1_IRQ.c **** *   The default Interrupt Service Routine for P1_IRQ.
 151:.\Generated_Source\PSoC5/P1_IRQ.c **** *
 152:.\Generated_Source\PSoC5/P1_IRQ.c **** *   Add custom code between the coments to keep the next version of this file
 153:.\Generated_Source\PSoC5/P1_IRQ.c **** *   from over writting your code.
 154:.\Generated_Source\PSoC5/P1_IRQ.c **** *
 155:.\Generated_Source\PSoC5/P1_IRQ.c **** * Parameters:  
 156:.\Generated_Source\PSoC5/P1_IRQ.c **** *
 157:.\Generated_Source\PSoC5/P1_IRQ.c **** * Return:
 158:.\Generated_Source\PSoC5/P1_IRQ.c **** *   None
 159:.\Generated_Source\PSoC5/P1_IRQ.c **** *
 160:.\Generated_Source\PSoC5/P1_IRQ.c **** *******************************************************************************/
 161:.\Generated_Source\PSoC5/P1_IRQ.c **** CY_ISR(P1_IRQ_Interrupt)
 162:.\Generated_Source\PSoC5/P1_IRQ.c **** {
  27              		.loc 1 162 0
  28              		.cfi_startproc
  29              		@ args = 0, pretend = 0, frame = 0
  30              		@ frame_needed = 0, uses_anonymous_args = 0
  31 0000 10B5     		push	{r4, lr}
  32              		.cfi_def_cfa_offset 8
  33              		.cfi_offset 4, -8
  34              		.cfi_offset 14, -4
 163:.\Generated_Source\PSoC5/P1_IRQ.c ****     #ifdef P1_IRQ_INTERRUPT_INTERRUPT_CALLBACK
 164:.\Generated_Source\PSoC5/P1_IRQ.c ****         P1_IRQ_Interrupt_InterruptCallback();
 165:.\Generated_Source\PSoC5/P1_IRQ.c ****     #endif /* P1_IRQ_INTERRUPT_INTERRUPT_CALLBACK */ 
 166:.\Generated_Source\PSoC5/P1_IRQ.c **** 
 167:.\Generated_Source\PSoC5/P1_IRQ.c ****     /*  Place your Interrupt code here. */
 168:.\Generated_Source\PSoC5/P1_IRQ.c ****     /* `#START P1_IRQ_Interrupt` */
 169:.\Generated_Source\PSoC5/P1_IRQ.c **** 
 170:.\Generated_Source\PSoC5/P1_IRQ.c ****     P1_RegD0_WriteRegValue(data[0]);
  35              		.loc 1 170 0
  36 0002 204C     		ldr	r4, .L6
  37 0004 2088     		ldrh	r0, [r4]
  38 0006 80B2     		uxth	r0, r0
  39 0008 FFF7FEFF 		bl	P1_RegD0_WriteRegValue
  40              	.LVL0:
 171:.\Generated_Source\PSoC5/P1_IRQ.c ****     P1_RegD1_WriteRegValue(data[1]);
  41              		.loc 1 171 0
  42 000c 6088     		ldrh	r0, [r4, #2]
  43 000e 80B2     		uxth	r0, r0
  44 0010 FFF7FEFF 		bl	P1_RegD1_WriteRegValue
  45              	.LVL1:
 172:.\Generated_Source\PSoC5/P1_IRQ.c ****     P1_RegD2_WriteRegValue(data[2]);
  46              		.loc 1 172 0
  47 0014 A088     		ldrh	r0, [r4, #4]
  48 0016 80B2     		uxth	r0, r0
  49 0018 FFF7FEFF 		bl	P1_RegD2_WriteRegValue
  50              	.LVL2:
 173:.\Generated_Source\PSoC5/P1_IRQ.c **** 
 174:.\Generated_Source\PSoC5/P1_IRQ.c ****     if(playing)
  51              		.loc 1 174 0
  52 001c 1A4B     		ldr	r3, .L6+4
  53 001e 1B68     		ldr	r3, [r3]
  54 0020 002B     		cmp	r3, #0
ARM GAS  C:\Users\Thomas\AppData\Local\Temp\ccMJFnoC.s 			page 5


  55 0022 2DD0     		beq	.L1
 175:.\Generated_Source\PSoC5/P1_IRQ.c ****     {
 176:.\Generated_Source\PSoC5/P1_IRQ.c ****         if(!use_timer[0])
  56              		.loc 1 176 0
  57 0024 194B     		ldr	r3, .L6+8
  58 0026 1B68     		ldr	r3, [r3]
  59 0028 3BBB     		cbnz	r3, .L3
 177:.\Generated_Source\PSoC5/P1_IRQ.c ****         {
 178:.\Generated_Source\PSoC5/P1_IRQ.c ****             input_ptr[0] = (input_ptr[0]+1)%INPUT_BUF_SIZE;
  60              		.loc 1 178 0
  61 002a 194B     		ldr	r3, .L6+12
  62 002c 1A68     		ldr	r2, [r3]
  63 002e 0132     		adds	r2, r2, #1
  64 0030 184B     		ldr	r3, .L6+16
  65 0032 1340     		ands	r3, r3, r2
  66 0034 002B     		cmp	r3, #0
  67 0036 05DA     		bge	.L4
  68 0038 013B     		subs	r3, r3, #1
  69 003a 6FEA4353 		mvn	r3, r3, lsl #21
  70 003e 6FEA5353 		mvn	r3, r3, lsr #21
  71 0042 0133     		adds	r3, r3, #1
  72              	.L4:
  73 0044 124A     		ldr	r2, .L6+12
  74 0046 1360     		str	r3, [r2]
 179:.\Generated_Source\PSoC5/P1_IRQ.c ****             data[0] = input[0][input_ptr[0]]; 
  75              		.loc 1 179 0
  76 0048 1368     		ldr	r3, [r2]
  77 004a 1349     		ldr	r1, .L6+20
  78 004c 31F81300 		ldrh	r0, [r1, r3, lsl #1]
  79 0050 80B2     		uxth	r0, r0
  80 0052 0C4B     		ldr	r3, .L6
  81 0054 1880     		strh	r0, [r3]	@ movhi
 180:.\Generated_Source\PSoC5/P1_IRQ.c ****             data[1] = input[1][input_ptr[0]]; 
  82              		.loc 1 180 0
  83 0056 1068     		ldr	r0, [r2]
  84 0058 00F50060 		add	r0, r0, #2048
  85 005c 31F81000 		ldrh	r0, [r1, r0, lsl #1]
  86 0060 80B2     		uxth	r0, r0
  87 0062 5880     		strh	r0, [r3, #2]	@ movhi
 181:.\Generated_Source\PSoC5/P1_IRQ.c ****             data[2] = input[2][input_ptr[0]]; 
  88              		.loc 1 181 0
  89 0064 1268     		ldr	r2, [r2]
  90 0066 02F58052 		add	r2, r2, #4096
  91 006a 31F81220 		ldrh	r2, [r1, r2, lsl #1]
  92 006e 92B2     		uxth	r2, r2
  93 0070 9A80     		strh	r2, [r3, #4]	@ movhi
 182:.\Generated_Source\PSoC5/P1_IRQ.c ****             latches[0]++;
  94              		.loc 1 182 0
  95 0072 0A4A     		ldr	r2, .L6+24
  96 0074 1368     		ldr	r3, [r2]
  97 0076 0133     		adds	r3, r3, #1
  98 0078 1360     		str	r3, [r2]
  99              	.L3:
 183:.\Generated_Source\PSoC5/P1_IRQ.c ****         }
 184:.\Generated_Source\PSoC5/P1_IRQ.c ****         sent = 1;
 100              		.loc 1 184 0
 101 007a 0122     		movs	r2, #1
ARM GAS  C:\Users\Thomas\AppData\Local\Temp\ccMJFnoC.s 			page 6


 102 007c 084B     		ldr	r3, .L6+28
 103 007e 1A60     		str	r2, [r3]
 104              	.L1:
 105 0080 10BD     		pop	{r4, pc}
 106              	.L7:
 107 0082 00BF     		.align	2
 108              	.L6:
 109 0084 00000000 		.word	data
 110 0088 00000000 		.word	playing
 111 008c 00000000 		.word	use_timer
 112 0090 00000000 		.word	input_ptr
 113 0094 FF070080 		.word	-2147481601
 114 0098 00000000 		.word	input
 115 009c 00000000 		.word	latches
 116 00a0 00000000 		.word	sent
 117              		.cfi_endproc
 118              	.LFE66:
 119              		.size	P1_IRQ_Interrupt, .-P1_IRQ_Interrupt
 120              		.section	.text.P1_IRQ_SetVector,"ax",%progbits
 121              		.align	2
 122              		.global	P1_IRQ_SetVector
 123              		.thumb
 124              		.thumb_func
 125              		.type	P1_IRQ_SetVector, %function
 126              	P1_IRQ_SetVector:
 127              	.LFB67:
 185:.\Generated_Source\PSoC5/P1_IRQ.c ****     }
 186:.\Generated_Source\PSoC5/P1_IRQ.c ****     /* `#END` */
 187:.\Generated_Source\PSoC5/P1_IRQ.c **** }
 188:.\Generated_Source\PSoC5/P1_IRQ.c **** 
 189:.\Generated_Source\PSoC5/P1_IRQ.c **** 
 190:.\Generated_Source\PSoC5/P1_IRQ.c **** /*******************************************************************************
 191:.\Generated_Source\PSoC5/P1_IRQ.c **** * Function Name: P1_IRQ_SetVector
 192:.\Generated_Source\PSoC5/P1_IRQ.c **** ********************************************************************************
 193:.\Generated_Source\PSoC5/P1_IRQ.c **** *
 194:.\Generated_Source\PSoC5/P1_IRQ.c **** * Summary:
 195:.\Generated_Source\PSoC5/P1_IRQ.c **** *   Change the ISR vector for the Interrupt. Note calling P1_IRQ_Start
 196:.\Generated_Source\PSoC5/P1_IRQ.c **** *   will override any effect this method would have had. To set the vector 
 197:.\Generated_Source\PSoC5/P1_IRQ.c **** *   before the component has been started use P1_IRQ_StartEx instead.
 198:.\Generated_Source\PSoC5/P1_IRQ.c **** * 
 199:.\Generated_Source\PSoC5/P1_IRQ.c **** *   When defining ISR functions, the CY_ISR and CY_ISR_PROTO macros should be 
 200:.\Generated_Source\PSoC5/P1_IRQ.c **** *   used to provide consistent definition across compilers:
 201:.\Generated_Source\PSoC5/P1_IRQ.c **** *
 202:.\Generated_Source\PSoC5/P1_IRQ.c **** *   Function definition example:
 203:.\Generated_Source\PSoC5/P1_IRQ.c **** *   CY_ISR(MyISR)
 204:.\Generated_Source\PSoC5/P1_IRQ.c **** *   {
 205:.\Generated_Source\PSoC5/P1_IRQ.c **** *   }
 206:.\Generated_Source\PSoC5/P1_IRQ.c **** *
 207:.\Generated_Source\PSoC5/P1_IRQ.c **** *   Function prototype example:
 208:.\Generated_Source\PSoC5/P1_IRQ.c **** *     CY_ISR_PROTO(MyISR);
 209:.\Generated_Source\PSoC5/P1_IRQ.c **** *
 210:.\Generated_Source\PSoC5/P1_IRQ.c **** * Parameters:
 211:.\Generated_Source\PSoC5/P1_IRQ.c **** *   address: Address of the ISR to set in the interrupt vector table.
 212:.\Generated_Source\PSoC5/P1_IRQ.c **** *
 213:.\Generated_Source\PSoC5/P1_IRQ.c **** * Return:
 214:.\Generated_Source\PSoC5/P1_IRQ.c **** *   None
 215:.\Generated_Source\PSoC5/P1_IRQ.c **** *
ARM GAS  C:\Users\Thomas\AppData\Local\Temp\ccMJFnoC.s 			page 7


 216:.\Generated_Source\PSoC5/P1_IRQ.c **** *******************************************************************************/
 217:.\Generated_Source\PSoC5/P1_IRQ.c **** void P1_IRQ_SetVector(cyisraddress address)
 218:.\Generated_Source\PSoC5/P1_IRQ.c **** {
 128              		.loc 1 218 0
 129              		.cfi_startproc
 130              		@ args = 0, pretend = 0, frame = 0
 131              		@ frame_needed = 0, uses_anonymous_args = 0
 132              		@ link register save eliminated.
 133              	.LVL3:
 219:.\Generated_Source\PSoC5/P1_IRQ.c ****     cyisraddress * ramVectorTable;
 220:.\Generated_Source\PSoC5/P1_IRQ.c **** 
 221:.\Generated_Source\PSoC5/P1_IRQ.c ****     ramVectorTable = (cyisraddress *) *CYINT_VECT_TABLE;
 134              		.loc 1 221 0
 135 0000 014B     		ldr	r3, .L9
 136 0002 1B68     		ldr	r3, [r3]
 137              	.LVL4:
 222:.\Generated_Source\PSoC5/P1_IRQ.c **** 
 223:.\Generated_Source\PSoC5/P1_IRQ.c ****     ramVectorTable[CYINT_IRQ_BASE + (uint32)P1_IRQ__INTC_NUMBER] = address;
 138              		.loc 1 223 0
 139 0004 1864     		str	r0, [r3, #64]
 140 0006 7047     		bx	lr
 141              	.L10:
 142              		.align	2
 143              	.L9:
 144 0008 08ED00E0 		.word	-536810232
 145              		.cfi_endproc
 146              	.LFE67:
 147              		.size	P1_IRQ_SetVector, .-P1_IRQ_SetVector
 148              		.section	.text.P1_IRQ_GetVector,"ax",%progbits
 149              		.align	2
 150              		.global	P1_IRQ_GetVector
 151              		.thumb
 152              		.thumb_func
 153              		.type	P1_IRQ_GetVector, %function
 154              	P1_IRQ_GetVector:
 155              	.LFB68:
 224:.\Generated_Source\PSoC5/P1_IRQ.c **** }
 225:.\Generated_Source\PSoC5/P1_IRQ.c **** 
 226:.\Generated_Source\PSoC5/P1_IRQ.c **** 
 227:.\Generated_Source\PSoC5/P1_IRQ.c **** /*******************************************************************************
 228:.\Generated_Source\PSoC5/P1_IRQ.c **** * Function Name: P1_IRQ_GetVector
 229:.\Generated_Source\PSoC5/P1_IRQ.c **** ********************************************************************************
 230:.\Generated_Source\PSoC5/P1_IRQ.c **** *
 231:.\Generated_Source\PSoC5/P1_IRQ.c **** * Summary:
 232:.\Generated_Source\PSoC5/P1_IRQ.c **** *   Gets the "address" of the current ISR vector for the Interrupt.
 233:.\Generated_Source\PSoC5/P1_IRQ.c **** *
 234:.\Generated_Source\PSoC5/P1_IRQ.c **** * Parameters:
 235:.\Generated_Source\PSoC5/P1_IRQ.c **** *   None
 236:.\Generated_Source\PSoC5/P1_IRQ.c **** *
 237:.\Generated_Source\PSoC5/P1_IRQ.c **** * Return:
 238:.\Generated_Source\PSoC5/P1_IRQ.c **** *   Address of the ISR in the interrupt vector table.
 239:.\Generated_Source\PSoC5/P1_IRQ.c **** *
 240:.\Generated_Source\PSoC5/P1_IRQ.c **** *******************************************************************************/
 241:.\Generated_Source\PSoC5/P1_IRQ.c **** cyisraddress P1_IRQ_GetVector(void)
 242:.\Generated_Source\PSoC5/P1_IRQ.c **** {
 156              		.loc 1 242 0
 157              		.cfi_startproc
ARM GAS  C:\Users\Thomas\AppData\Local\Temp\ccMJFnoC.s 			page 8


 158              		@ args = 0, pretend = 0, frame = 0
 159              		@ frame_needed = 0, uses_anonymous_args = 0
 160              		@ link register save eliminated.
 243:.\Generated_Source\PSoC5/P1_IRQ.c ****     cyisraddress * ramVectorTable;
 244:.\Generated_Source\PSoC5/P1_IRQ.c **** 
 245:.\Generated_Source\PSoC5/P1_IRQ.c ****     ramVectorTable = (cyisraddress *) *CYINT_VECT_TABLE;
 161              		.loc 1 245 0
 162 0000 014B     		ldr	r3, .L12
 163 0002 1B68     		ldr	r3, [r3]
 164              	.LVL5:
 246:.\Generated_Source\PSoC5/P1_IRQ.c **** 
 247:.\Generated_Source\PSoC5/P1_IRQ.c ****     return ramVectorTable[CYINT_IRQ_BASE + (uint32)P1_IRQ__INTC_NUMBER];
 248:.\Generated_Source\PSoC5/P1_IRQ.c **** }
 165              		.loc 1 248 0
 166 0004 186C     		ldr	r0, [r3, #64]
 167 0006 7047     		bx	lr
 168              	.L13:
 169              		.align	2
 170              	.L12:
 171 0008 08ED00E0 		.word	-536810232
 172              		.cfi_endproc
 173              	.LFE68:
 174              		.size	P1_IRQ_GetVector, .-P1_IRQ_GetVector
 175              		.section	.text.P1_IRQ_SetPriority,"ax",%progbits
 176              		.align	2
 177              		.global	P1_IRQ_SetPriority
 178              		.thumb
 179              		.thumb_func
 180              		.type	P1_IRQ_SetPriority, %function
 181              	P1_IRQ_SetPriority:
 182              	.LFB69:
 249:.\Generated_Source\PSoC5/P1_IRQ.c **** 
 250:.\Generated_Source\PSoC5/P1_IRQ.c **** 
 251:.\Generated_Source\PSoC5/P1_IRQ.c **** /*******************************************************************************
 252:.\Generated_Source\PSoC5/P1_IRQ.c **** * Function Name: P1_IRQ_SetPriority
 253:.\Generated_Source\PSoC5/P1_IRQ.c **** ********************************************************************************
 254:.\Generated_Source\PSoC5/P1_IRQ.c **** *
 255:.\Generated_Source\PSoC5/P1_IRQ.c **** * Summary:
 256:.\Generated_Source\PSoC5/P1_IRQ.c **** *   Sets the Priority of the Interrupt. 
 257:.\Generated_Source\PSoC5/P1_IRQ.c **** *
 258:.\Generated_Source\PSoC5/P1_IRQ.c **** *   Note calling P1_IRQ_Start or P1_IRQ_StartEx will 
 259:.\Generated_Source\PSoC5/P1_IRQ.c **** *   override any effect this API would have had. This API should only be called
 260:.\Generated_Source\PSoC5/P1_IRQ.c **** *   after P1_IRQ_Start or P1_IRQ_StartEx has been called. 
 261:.\Generated_Source\PSoC5/P1_IRQ.c **** *   To set the initial priority for the component, use the Design-Wide Resources
 262:.\Generated_Source\PSoC5/P1_IRQ.c **** *   Interrupt Editor.
 263:.\Generated_Source\PSoC5/P1_IRQ.c **** *
 264:.\Generated_Source\PSoC5/P1_IRQ.c **** *   Note This API has no effect on Non-maskable interrupt NMI).
 265:.\Generated_Source\PSoC5/P1_IRQ.c **** *
 266:.\Generated_Source\PSoC5/P1_IRQ.c **** * Parameters:
 267:.\Generated_Source\PSoC5/P1_IRQ.c **** *   priority: Priority of the interrupt, 0 being the highest priority
 268:.\Generated_Source\PSoC5/P1_IRQ.c **** *             PSoC 3 and PSoC 5LP: Priority is from 0 to 7.
 269:.\Generated_Source\PSoC5/P1_IRQ.c **** *             PSoC 4: Priority is from 0 to 3.
 270:.\Generated_Source\PSoC5/P1_IRQ.c **** *
 271:.\Generated_Source\PSoC5/P1_IRQ.c **** * Return:
 272:.\Generated_Source\PSoC5/P1_IRQ.c **** *   None
 273:.\Generated_Source\PSoC5/P1_IRQ.c **** *
 274:.\Generated_Source\PSoC5/P1_IRQ.c **** *******************************************************************************/
ARM GAS  C:\Users\Thomas\AppData\Local\Temp\ccMJFnoC.s 			page 9


 275:.\Generated_Source\PSoC5/P1_IRQ.c **** void P1_IRQ_SetPriority(uint8 priority)
 276:.\Generated_Source\PSoC5/P1_IRQ.c **** {
 183              		.loc 1 276 0
 184              		.cfi_startproc
 185              		@ args = 0, pretend = 0, frame = 0
 186              		@ frame_needed = 0, uses_anonymous_args = 0
 187              		@ link register save eliminated.
 188              	.LVL6:
 277:.\Generated_Source\PSoC5/P1_IRQ.c ****     *P1_IRQ_INTC_PRIOR = priority << 5;
 189              		.loc 1 277 0
 190 0000 4001     		lsls	r0, r0, #5
 191              	.LVL7:
 192 0002 C0B2     		uxtb	r0, r0
 193 0004 014B     		ldr	r3, .L15
 194 0006 1870     		strb	r0, [r3]
 195 0008 7047     		bx	lr
 196              	.L16:
 197 000a 00BF     		.align	2
 198              	.L15:
 199 000c 00E400E0 		.word	-536812544
 200              		.cfi_endproc
 201              	.LFE69:
 202              		.size	P1_IRQ_SetPriority, .-P1_IRQ_SetPriority
 203              		.section	.text.P1_IRQ_GetPriority,"ax",%progbits
 204              		.align	2
 205              		.global	P1_IRQ_GetPriority
 206              		.thumb
 207              		.thumb_func
 208              		.type	P1_IRQ_GetPriority, %function
 209              	P1_IRQ_GetPriority:
 210              	.LFB70:
 278:.\Generated_Source\PSoC5/P1_IRQ.c **** }
 279:.\Generated_Source\PSoC5/P1_IRQ.c **** 
 280:.\Generated_Source\PSoC5/P1_IRQ.c **** 
 281:.\Generated_Source\PSoC5/P1_IRQ.c **** /*******************************************************************************
 282:.\Generated_Source\PSoC5/P1_IRQ.c **** * Function Name: P1_IRQ_GetPriority
 283:.\Generated_Source\PSoC5/P1_IRQ.c **** ********************************************************************************
 284:.\Generated_Source\PSoC5/P1_IRQ.c **** *
 285:.\Generated_Source\PSoC5/P1_IRQ.c **** * Summary:
 286:.\Generated_Source\PSoC5/P1_IRQ.c **** *   Gets the Priority of the Interrupt.
 287:.\Generated_Source\PSoC5/P1_IRQ.c **** *
 288:.\Generated_Source\PSoC5/P1_IRQ.c **** * Parameters:
 289:.\Generated_Source\PSoC5/P1_IRQ.c **** *   None
 290:.\Generated_Source\PSoC5/P1_IRQ.c **** *
 291:.\Generated_Source\PSoC5/P1_IRQ.c **** * Return:
 292:.\Generated_Source\PSoC5/P1_IRQ.c **** *   Priority of the interrupt, 0 being the highest priority
 293:.\Generated_Source\PSoC5/P1_IRQ.c **** *    PSoC 3 and PSoC 5LP: Priority is from 0 to 7.
 294:.\Generated_Source\PSoC5/P1_IRQ.c **** *    PSoC 4: Priority is from 0 to 3.
 295:.\Generated_Source\PSoC5/P1_IRQ.c **** *
 296:.\Generated_Source\PSoC5/P1_IRQ.c **** *******************************************************************************/
 297:.\Generated_Source\PSoC5/P1_IRQ.c **** uint8 P1_IRQ_GetPriority(void)
 298:.\Generated_Source\PSoC5/P1_IRQ.c **** {
 211              		.loc 1 298 0
 212              		.cfi_startproc
 213              		@ args = 0, pretend = 0, frame = 0
 214              		@ frame_needed = 0, uses_anonymous_args = 0
 215              		@ link register save eliminated.
ARM GAS  C:\Users\Thomas\AppData\Local\Temp\ccMJFnoC.s 			page 10


 299:.\Generated_Source\PSoC5/P1_IRQ.c ****     uint8 priority;
 300:.\Generated_Source\PSoC5/P1_IRQ.c **** 
 301:.\Generated_Source\PSoC5/P1_IRQ.c **** 
 302:.\Generated_Source\PSoC5/P1_IRQ.c ****     priority = *P1_IRQ_INTC_PRIOR >> 5;
 216              		.loc 1 302 0
 217 0000 014B     		ldr	r3, .L18
 218 0002 1878     		ldrb	r0, [r3]	@ zero_extendqisi2
 219              	.LVL8:
 303:.\Generated_Source\PSoC5/P1_IRQ.c **** 
 304:.\Generated_Source\PSoC5/P1_IRQ.c ****     return priority;
 305:.\Generated_Source\PSoC5/P1_IRQ.c **** }
 220              		.loc 1 305 0
 221 0004 4009     		lsrs	r0, r0, #5
 222              	.LVL9:
 223 0006 7047     		bx	lr
 224              	.L19:
 225              		.align	2
 226              	.L18:
 227 0008 00E400E0 		.word	-536812544
 228              		.cfi_endproc
 229              	.LFE70:
 230              		.size	P1_IRQ_GetPriority, .-P1_IRQ_GetPriority
 231              		.section	.text.P1_IRQ_Enable,"ax",%progbits
 232              		.align	2
 233              		.global	P1_IRQ_Enable
 234              		.thumb
 235              		.thumb_func
 236              		.type	P1_IRQ_Enable, %function
 237              	P1_IRQ_Enable:
 238              	.LFB71:
 306:.\Generated_Source\PSoC5/P1_IRQ.c **** 
 307:.\Generated_Source\PSoC5/P1_IRQ.c **** 
 308:.\Generated_Source\PSoC5/P1_IRQ.c **** /*******************************************************************************
 309:.\Generated_Source\PSoC5/P1_IRQ.c **** * Function Name: P1_IRQ_Enable
 310:.\Generated_Source\PSoC5/P1_IRQ.c **** ********************************************************************************
 311:.\Generated_Source\PSoC5/P1_IRQ.c **** *
 312:.\Generated_Source\PSoC5/P1_IRQ.c **** * Summary:
 313:.\Generated_Source\PSoC5/P1_IRQ.c **** *   Enables the interrupt to the interrupt controller. Do not call this function
 314:.\Generated_Source\PSoC5/P1_IRQ.c **** *   unless ISR_Start() has been called or the functionality of the ISR_Start() 
 315:.\Generated_Source\PSoC5/P1_IRQ.c **** *   function, which sets the vector and the priority, has been called.
 316:.\Generated_Source\PSoC5/P1_IRQ.c **** *
 317:.\Generated_Source\PSoC5/P1_IRQ.c **** * Parameters:
 318:.\Generated_Source\PSoC5/P1_IRQ.c **** *   None
 319:.\Generated_Source\PSoC5/P1_IRQ.c **** *
 320:.\Generated_Source\PSoC5/P1_IRQ.c **** * Return:
 321:.\Generated_Source\PSoC5/P1_IRQ.c **** *   None
 322:.\Generated_Source\PSoC5/P1_IRQ.c **** *
 323:.\Generated_Source\PSoC5/P1_IRQ.c **** *******************************************************************************/
 324:.\Generated_Source\PSoC5/P1_IRQ.c **** void P1_IRQ_Enable(void)
 325:.\Generated_Source\PSoC5/P1_IRQ.c **** {
 239              		.loc 1 325 0
 240              		.cfi_startproc
 241              		@ args = 0, pretend = 0, frame = 0
 242              		@ frame_needed = 0, uses_anonymous_args = 0
 243              		@ link register save eliminated.
 326:.\Generated_Source\PSoC5/P1_IRQ.c ****     /* Enable the general interrupt. */
 327:.\Generated_Source\PSoC5/P1_IRQ.c ****     *P1_IRQ_INTC_SET_EN = P1_IRQ__INTC_MASK;
ARM GAS  C:\Users\Thomas\AppData\Local\Temp\ccMJFnoC.s 			page 11


 244              		.loc 1 327 0
 245 0000 0122     		movs	r2, #1
 246 0002 014B     		ldr	r3, .L21
 247 0004 1A60     		str	r2, [r3]
 248 0006 7047     		bx	lr
 249              	.L22:
 250              		.align	2
 251              	.L21:
 252 0008 00E100E0 		.word	-536813312
 253              		.cfi_endproc
 254              	.LFE71:
 255              		.size	P1_IRQ_Enable, .-P1_IRQ_Enable
 256              		.section	.text.P1_IRQ_GetState,"ax",%progbits
 257              		.align	2
 258              		.global	P1_IRQ_GetState
 259              		.thumb
 260              		.thumb_func
 261              		.type	P1_IRQ_GetState, %function
 262              	P1_IRQ_GetState:
 263              	.LFB72:
 328:.\Generated_Source\PSoC5/P1_IRQ.c **** }
 329:.\Generated_Source\PSoC5/P1_IRQ.c **** 
 330:.\Generated_Source\PSoC5/P1_IRQ.c **** 
 331:.\Generated_Source\PSoC5/P1_IRQ.c **** /*******************************************************************************
 332:.\Generated_Source\PSoC5/P1_IRQ.c **** * Function Name: P1_IRQ_GetState
 333:.\Generated_Source\PSoC5/P1_IRQ.c **** ********************************************************************************
 334:.\Generated_Source\PSoC5/P1_IRQ.c **** *
 335:.\Generated_Source\PSoC5/P1_IRQ.c **** * Summary:
 336:.\Generated_Source\PSoC5/P1_IRQ.c **** *   Gets the state (enabled, disabled) of the Interrupt.
 337:.\Generated_Source\PSoC5/P1_IRQ.c **** *
 338:.\Generated_Source\PSoC5/P1_IRQ.c **** * Parameters:
 339:.\Generated_Source\PSoC5/P1_IRQ.c **** *   None
 340:.\Generated_Source\PSoC5/P1_IRQ.c **** *
 341:.\Generated_Source\PSoC5/P1_IRQ.c **** * Return:
 342:.\Generated_Source\PSoC5/P1_IRQ.c **** *   1 if enabled, 0 if disabled.
 343:.\Generated_Source\PSoC5/P1_IRQ.c **** *
 344:.\Generated_Source\PSoC5/P1_IRQ.c **** *******************************************************************************/
 345:.\Generated_Source\PSoC5/P1_IRQ.c **** uint8 P1_IRQ_GetState(void)
 346:.\Generated_Source\PSoC5/P1_IRQ.c **** {
 264              		.loc 1 346 0
 265              		.cfi_startproc
 266              		@ args = 0, pretend = 0, frame = 0
 267              		@ frame_needed = 0, uses_anonymous_args = 0
 268              		@ link register save eliminated.
 347:.\Generated_Source\PSoC5/P1_IRQ.c ****     /* Get the state of the general interrupt. */
 348:.\Generated_Source\PSoC5/P1_IRQ.c ****     return ((*P1_IRQ_INTC_SET_EN & (uint32)P1_IRQ__INTC_MASK) != 0u) ? 1u:0u;
 269              		.loc 1 348 0
 270 0000 024B     		ldr	r3, .L24
 271 0002 1868     		ldr	r0, [r3]
 349:.\Generated_Source\PSoC5/P1_IRQ.c **** }
 272              		.loc 1 349 0
 273 0004 00F00100 		and	r0, r0, #1
 274 0008 7047     		bx	lr
 275              	.L25:
 276 000a 00BF     		.align	2
 277              	.L24:
 278 000c 00E100E0 		.word	-536813312
ARM GAS  C:\Users\Thomas\AppData\Local\Temp\ccMJFnoC.s 			page 12


 279              		.cfi_endproc
 280              	.LFE72:
 281              		.size	P1_IRQ_GetState, .-P1_IRQ_GetState
 282              		.section	.text.P1_IRQ_Disable,"ax",%progbits
 283              		.align	2
 284              		.global	P1_IRQ_Disable
 285              		.thumb
 286              		.thumb_func
 287              		.type	P1_IRQ_Disable, %function
 288              	P1_IRQ_Disable:
 289              	.LFB73:
 350:.\Generated_Source\PSoC5/P1_IRQ.c **** 
 351:.\Generated_Source\PSoC5/P1_IRQ.c **** 
 352:.\Generated_Source\PSoC5/P1_IRQ.c **** /*******************************************************************************
 353:.\Generated_Source\PSoC5/P1_IRQ.c **** * Function Name: P1_IRQ_Disable
 354:.\Generated_Source\PSoC5/P1_IRQ.c **** ********************************************************************************
 355:.\Generated_Source\PSoC5/P1_IRQ.c **** *
 356:.\Generated_Source\PSoC5/P1_IRQ.c **** * Summary:
 357:.\Generated_Source\PSoC5/P1_IRQ.c **** *   Disables the Interrupt in the interrupt controller.
 358:.\Generated_Source\PSoC5/P1_IRQ.c **** *
 359:.\Generated_Source\PSoC5/P1_IRQ.c **** * Parameters:
 360:.\Generated_Source\PSoC5/P1_IRQ.c **** *   None
 361:.\Generated_Source\PSoC5/P1_IRQ.c **** *
 362:.\Generated_Source\PSoC5/P1_IRQ.c **** * Return:
 363:.\Generated_Source\PSoC5/P1_IRQ.c **** *   None
 364:.\Generated_Source\PSoC5/P1_IRQ.c **** *
 365:.\Generated_Source\PSoC5/P1_IRQ.c **** *******************************************************************************/
 366:.\Generated_Source\PSoC5/P1_IRQ.c **** void P1_IRQ_Disable(void)
 367:.\Generated_Source\PSoC5/P1_IRQ.c **** {
 290              		.loc 1 367 0
 291              		.cfi_startproc
 292              		@ args = 0, pretend = 0, frame = 0
 293              		@ frame_needed = 0, uses_anonymous_args = 0
 294              		@ link register save eliminated.
 368:.\Generated_Source\PSoC5/P1_IRQ.c ****     /* Disable the general interrupt. */
 369:.\Generated_Source\PSoC5/P1_IRQ.c ****     *P1_IRQ_INTC_CLR_EN = P1_IRQ__INTC_MASK;
 295              		.loc 1 369 0
 296 0000 0122     		movs	r2, #1
 297 0002 014B     		ldr	r3, .L27
 298 0004 1A60     		str	r2, [r3]
 299 0006 7047     		bx	lr
 300              	.L28:
 301              		.align	2
 302              	.L27:
 303 0008 80E100E0 		.word	-536813184
 304              		.cfi_endproc
 305              	.LFE73:
 306              		.size	P1_IRQ_Disable, .-P1_IRQ_Disable
 307              		.section	.text.P1_IRQ_Start,"ax",%progbits
 308              		.align	2
 309              		.global	P1_IRQ_Start
 310              		.thumb
 311              		.thumb_func
 312              		.type	P1_IRQ_Start, %function
 313              	P1_IRQ_Start:
 314              	.LFB63:
  63:.\Generated_Source\PSoC5/P1_IRQ.c ****     /* For all we know the interrupt is active. */
ARM GAS  C:\Users\Thomas\AppData\Local\Temp\ccMJFnoC.s 			page 13


 315              		.loc 1 63 0
 316              		.cfi_startproc
 317              		@ args = 0, pretend = 0, frame = 0
 318              		@ frame_needed = 0, uses_anonymous_args = 0
 319 0000 08B5     		push	{r3, lr}
 320              		.cfi_def_cfa_offset 8
 321              		.cfi_offset 3, -8
 322              		.cfi_offset 14, -4
  65:.\Generated_Source\PSoC5/P1_IRQ.c **** 
 323              		.loc 1 65 0
 324 0002 FFF7FEFF 		bl	P1_IRQ_Disable
 325              	.LVL10:
  68:.\Generated_Source\PSoC5/P1_IRQ.c **** 
 326              		.loc 1 68 0
 327 0006 0448     		ldr	r0, .L31
 328 0008 FFF7FEFF 		bl	P1_IRQ_SetVector
 329              	.LVL11:
  71:.\Generated_Source\PSoC5/P1_IRQ.c **** 
 330              		.loc 1 71 0
 331 000c 0020     		movs	r0, #0
 332 000e FFF7FEFF 		bl	P1_IRQ_SetPriority
 333              	.LVL12:
  74:.\Generated_Source\PSoC5/P1_IRQ.c **** }
 334              		.loc 1 74 0
 335 0012 FFF7FEFF 		bl	P1_IRQ_Enable
 336              	.LVL13:
 337 0016 08BD     		pop	{r3, pc}
 338              	.L32:
 339              		.align	2
 340              	.L31:
 341 0018 00000000 		.word	P1_IRQ_Interrupt
 342              		.cfi_endproc
 343              	.LFE63:
 344              		.size	P1_IRQ_Start, .-P1_IRQ_Start
 345              		.section	.text.P1_IRQ_StartEx,"ax",%progbits
 346              		.align	2
 347              		.global	P1_IRQ_StartEx
 348              		.thumb
 349              		.thumb_func
 350              		.type	P1_IRQ_StartEx, %function
 351              	P1_IRQ_StartEx:
 352              	.LFB64:
 106:.\Generated_Source\PSoC5/P1_IRQ.c ****     /* For all we know the interrupt is active. */
 353              		.loc 1 106 0
 354              		.cfi_startproc
 355              		@ args = 0, pretend = 0, frame = 0
 356              		@ frame_needed = 0, uses_anonymous_args = 0
 357              	.LVL14:
 358 0000 10B5     		push	{r4, lr}
 359              		.cfi_def_cfa_offset 8
 360              		.cfi_offset 4, -8
 361              		.cfi_offset 14, -4
 362 0002 0446     		mov	r4, r0
 108:.\Generated_Source\PSoC5/P1_IRQ.c **** 
 363              		.loc 1 108 0
 364 0004 FFF7FEFF 		bl	P1_IRQ_Disable
 365              	.LVL15:
ARM GAS  C:\Users\Thomas\AppData\Local\Temp\ccMJFnoC.s 			page 14


 111:.\Generated_Source\PSoC5/P1_IRQ.c **** 
 366              		.loc 1 111 0
 367 0008 2046     		mov	r0, r4
 368 000a FFF7FEFF 		bl	P1_IRQ_SetVector
 369              	.LVL16:
 114:.\Generated_Source\PSoC5/P1_IRQ.c **** 
 370              		.loc 1 114 0
 371 000e 0020     		movs	r0, #0
 372 0010 FFF7FEFF 		bl	P1_IRQ_SetPriority
 373              	.LVL17:
 117:.\Generated_Source\PSoC5/P1_IRQ.c **** }
 374              		.loc 1 117 0
 375 0014 FFF7FEFF 		bl	P1_IRQ_Enable
 376              	.LVL18:
 377 0018 10BD     		pop	{r4, pc}
 378              		.cfi_endproc
 379              	.LFE64:
 380              		.size	P1_IRQ_StartEx, .-P1_IRQ_StartEx
 381 001a 00BF     		.section	.text.P1_IRQ_Stop,"ax",%progbits
 382              		.align	2
 383              		.global	P1_IRQ_Stop
 384              		.thumb
 385              		.thumb_func
 386              		.type	P1_IRQ_Stop, %function
 387              	P1_IRQ_Stop:
 388              	.LFB65:
 136:.\Generated_Source\PSoC5/P1_IRQ.c ****     /* Disable this interrupt. */
 389              		.loc 1 136 0
 390              		.cfi_startproc
 391              		@ args = 0, pretend = 0, frame = 0
 392              		@ frame_needed = 0, uses_anonymous_args = 0
 393 0000 08B5     		push	{r3, lr}
 394              		.cfi_def_cfa_offset 8
 395              		.cfi_offset 3, -8
 396              		.cfi_offset 14, -4
 138:.\Generated_Source\PSoC5/P1_IRQ.c **** 
 397              		.loc 1 138 0
 398 0002 FFF7FEFF 		bl	P1_IRQ_Disable
 399              	.LVL19:
 141:.\Generated_Source\PSoC5/P1_IRQ.c **** }
 400              		.loc 1 141 0
 401 0006 0248     		ldr	r0, .L37
 402 0008 FFF7FEFF 		bl	P1_IRQ_SetVector
 403              	.LVL20:
 404 000c 08BD     		pop	{r3, pc}
 405              	.L38:
 406 000e 00BF     		.align	2
 407              	.L37:
 408 0010 00000000 		.word	IntDefaultHandler
 409              		.cfi_endproc
 410              	.LFE65:
 411              		.size	P1_IRQ_Stop, .-P1_IRQ_Stop
 412              		.section	.text.P1_IRQ_SetPending,"ax",%progbits
 413              		.align	2
 414              		.global	P1_IRQ_SetPending
 415              		.thumb
 416              		.thumb_func
ARM GAS  C:\Users\Thomas\AppData\Local\Temp\ccMJFnoC.s 			page 15


 417              		.type	P1_IRQ_SetPending, %function
 418              	P1_IRQ_SetPending:
 419              	.LFB74:
 370:.\Generated_Source\PSoC5/P1_IRQ.c **** }
 371:.\Generated_Source\PSoC5/P1_IRQ.c **** 
 372:.\Generated_Source\PSoC5/P1_IRQ.c **** 
 373:.\Generated_Source\PSoC5/P1_IRQ.c **** /*******************************************************************************
 374:.\Generated_Source\PSoC5/P1_IRQ.c **** * Function Name: P1_IRQ_SetPending
 375:.\Generated_Source\PSoC5/P1_IRQ.c **** ********************************************************************************
 376:.\Generated_Source\PSoC5/P1_IRQ.c **** *
 377:.\Generated_Source\PSoC5/P1_IRQ.c **** * Summary:
 378:.\Generated_Source\PSoC5/P1_IRQ.c **** *   Causes the Interrupt to enter the pending state, a software method of
 379:.\Generated_Source\PSoC5/P1_IRQ.c **** *   generating the interrupt.
 380:.\Generated_Source\PSoC5/P1_IRQ.c **** *
 381:.\Generated_Source\PSoC5/P1_IRQ.c **** * Parameters:
 382:.\Generated_Source\PSoC5/P1_IRQ.c **** *   None
 383:.\Generated_Source\PSoC5/P1_IRQ.c **** *
 384:.\Generated_Source\PSoC5/P1_IRQ.c **** * Return:
 385:.\Generated_Source\PSoC5/P1_IRQ.c **** *   None
 386:.\Generated_Source\PSoC5/P1_IRQ.c **** *
 387:.\Generated_Source\PSoC5/P1_IRQ.c **** * Side Effects:
 388:.\Generated_Source\PSoC5/P1_IRQ.c **** *   If interrupts are enabled and the interrupt is set up properly, the ISR is
 389:.\Generated_Source\PSoC5/P1_IRQ.c **** *   entered (depending on the priority of this interrupt and other pending 
 390:.\Generated_Source\PSoC5/P1_IRQ.c **** *   interrupts).
 391:.\Generated_Source\PSoC5/P1_IRQ.c **** *
 392:.\Generated_Source\PSoC5/P1_IRQ.c **** *******************************************************************************/
 393:.\Generated_Source\PSoC5/P1_IRQ.c **** void P1_IRQ_SetPending(void)
 394:.\Generated_Source\PSoC5/P1_IRQ.c **** {
 420              		.loc 1 394 0
 421              		.cfi_startproc
 422              		@ args = 0, pretend = 0, frame = 0
 423              		@ frame_needed = 0, uses_anonymous_args = 0
 424              		@ link register save eliminated.
 395:.\Generated_Source\PSoC5/P1_IRQ.c ****     *P1_IRQ_INTC_SET_PD = P1_IRQ__INTC_MASK;
 425              		.loc 1 395 0
 426 0000 0122     		movs	r2, #1
 427 0002 014B     		ldr	r3, .L40
 428 0004 1A60     		str	r2, [r3]
 429 0006 7047     		bx	lr
 430              	.L41:
 431              		.align	2
 432              	.L40:
 433 0008 00E200E0 		.word	-536813056
 434              		.cfi_endproc
 435              	.LFE74:
 436              		.size	P1_IRQ_SetPending, .-P1_IRQ_SetPending
 437              		.section	.text.P1_IRQ_ClearPending,"ax",%progbits
 438              		.align	2
 439              		.global	P1_IRQ_ClearPending
 440              		.thumb
 441              		.thumb_func
 442              		.type	P1_IRQ_ClearPending, %function
 443              	P1_IRQ_ClearPending:
 444              	.LFB75:
 396:.\Generated_Source\PSoC5/P1_IRQ.c **** }
 397:.\Generated_Source\PSoC5/P1_IRQ.c **** 
 398:.\Generated_Source\PSoC5/P1_IRQ.c **** 
ARM GAS  C:\Users\Thomas\AppData\Local\Temp\ccMJFnoC.s 			page 16


 399:.\Generated_Source\PSoC5/P1_IRQ.c **** /*******************************************************************************
 400:.\Generated_Source\PSoC5/P1_IRQ.c **** * Function Name: P1_IRQ_ClearPending
 401:.\Generated_Source\PSoC5/P1_IRQ.c **** ********************************************************************************
 402:.\Generated_Source\PSoC5/P1_IRQ.c **** *
 403:.\Generated_Source\PSoC5/P1_IRQ.c **** * Summary:
 404:.\Generated_Source\PSoC5/P1_IRQ.c **** *   Clears a pending interrupt in the interrupt controller.
 405:.\Generated_Source\PSoC5/P1_IRQ.c **** *
 406:.\Generated_Source\PSoC5/P1_IRQ.c **** *   Note Some interrupt sources are clear-on-read and require the block 
 407:.\Generated_Source\PSoC5/P1_IRQ.c **** *   interrupt/status register to be read/cleared with the appropriate block API 
 408:.\Generated_Source\PSoC5/P1_IRQ.c **** *   (GPIO, UART, and so on). Otherwise the ISR will continue to remain in 
 409:.\Generated_Source\PSoC5/P1_IRQ.c **** *   pending state even though the interrupt itself is cleared using this API.
 410:.\Generated_Source\PSoC5/P1_IRQ.c **** *
 411:.\Generated_Source\PSoC5/P1_IRQ.c **** * Parameters:
 412:.\Generated_Source\PSoC5/P1_IRQ.c **** *   None
 413:.\Generated_Source\PSoC5/P1_IRQ.c **** *
 414:.\Generated_Source\PSoC5/P1_IRQ.c **** * Return:
 415:.\Generated_Source\PSoC5/P1_IRQ.c **** *   None
 416:.\Generated_Source\PSoC5/P1_IRQ.c **** *
 417:.\Generated_Source\PSoC5/P1_IRQ.c **** *******************************************************************************/
 418:.\Generated_Source\PSoC5/P1_IRQ.c **** void P1_IRQ_ClearPending(void)
 419:.\Generated_Source\PSoC5/P1_IRQ.c **** {
 445              		.loc 1 419 0
 446              		.cfi_startproc
 447              		@ args = 0, pretend = 0, frame = 0
 448              		@ frame_needed = 0, uses_anonymous_args = 0
 449              		@ link register save eliminated.
 420:.\Generated_Source\PSoC5/P1_IRQ.c ****     *P1_IRQ_INTC_CLR_PD = P1_IRQ__INTC_MASK;
 450              		.loc 1 420 0
 451 0000 0122     		movs	r2, #1
 452 0002 014B     		ldr	r3, .L43
 453 0004 1A60     		str	r2, [r3]
 454 0006 7047     		bx	lr
 455              	.L44:
 456              		.align	2
 457              	.L43:
 458 0008 80E200E0 		.word	-536812928
 459              		.cfi_endproc
 460              	.LFE75:
 461              		.size	P1_IRQ_ClearPending, .-P1_IRQ_ClearPending
 462              		.comm	request,8,4
 463              		.comm	lines,4,4
 464              		.comm	ports,4,4
 465              		.comm	latches,8,4
 466              		.comm	window_off,8,4
 467              		.comm	bytes,4,4
 468              		.comm	disable_timer,8,4
 469              		.comm	use_timer,8,4
 470              		.comm	timer_ready,8,4
 471              		.comm	ready,4,4
 472              		.comm	input,24576,4
 473              		.comm	data,12,4
 474              		.comm	buf_ptr,8,4
 475              		.comm	input_ptr,8,4
 476              		.comm	playing,4,4
 477              		.comm	sent,4,4
 478              		.text
 479              	.Letext0:
ARM GAS  C:\Users\Thomas\AppData\Local\Temp\ccMJFnoC.s 			page 17


 480              		.file 2 "c:\\program files (x86)\\cypress\\psoc creator\\3.3\\psoc creator\\import\\gnu\\arm\\4.9.
 481              		.file 3 "c:\\program files (x86)\\cypress\\psoc creator\\3.3\\psoc creator\\import\\gnu\\arm\\4.9.
 482              		.file 4 "Generated_Source\\PSoC5/cytypes.h"
 483              		.file 5 "Generated_Source\\PSoC5/core_cm3.h"
 484              		.file 6 "./main.h"
 485              		.file 7 "Generated_Source\\PSoC5/P1_RegD0.h"
 486              		.file 8 "Generated_Source\\PSoC5/P1_RegD1.h"
 487              		.file 9 "Generated_Source\\PSoC5/P1_RegD2.h"