ARM GAS  C:\Users\Thomas\AppData\Local\Temp\ccxEt5je.s 			page 1


   1              		.syntax unified
   2              		.cpu cortex-m3
   3              		.fpu softvfp
   4              		.eabi_attribute 20, 1
   5              		.eabi_attribute 21, 1
   6              		.eabi_attribute 23, 3
   7              		.eabi_attribute 24, 1
   8              		.eabi_attribute 25, 1
   9              		.eabi_attribute 26, 1
  10              		.eabi_attribute 30, 1
  11              		.eabi_attribute 34, 1
  12              		.eabi_attribute 18, 4
  13              		.thumb
  14              		.file	"P1_RegD0_PM.c"
  15              		.text
  16              	.Ltext0:
  17              		.cfi_sections	.debug_frame
  18              		.section	.text.P1_RegD0_SaveConfig,"ax",%progbits
  19              		.align	2
  20              		.global	P1_RegD0_SaveConfig
  21              		.thumb
  22              		.thumb_func
  23              		.type	P1_RegD0_SaveConfig, %function
  24              	P1_RegD0_SaveConfig:
  25              	.LFB0:
  26              		.file 1 ".\\Generated_Source\\PSoC5\\P1_RegD0_PM.c"
   1:.\Generated_Source\PSoC5/P1_RegD0_PM.c **** /*******************************************************************************
   2:.\Generated_Source\PSoC5/P1_RegD0_PM.c **** * File Name: P1_RegD0_PM.c
   3:.\Generated_Source\PSoC5/P1_RegD0_PM.c **** * Version 2.30
   4:.\Generated_Source\PSoC5/P1_RegD0_PM.c **** *
   5:.\Generated_Source\PSoC5/P1_RegD0_PM.c **** * Description:
   6:.\Generated_Source\PSoC5/P1_RegD0_PM.c **** *  This file provides the API source code for sleep mode support for Shift
   7:.\Generated_Source\PSoC5/P1_RegD0_PM.c **** *  Register component.
   8:.\Generated_Source\PSoC5/P1_RegD0_PM.c **** *
   9:.\Generated_Source\PSoC5/P1_RegD0_PM.c **** * Note:
  10:.\Generated_Source\PSoC5/P1_RegD0_PM.c **** *
  11:.\Generated_Source\PSoC5/P1_RegD0_PM.c **** ********************************************************************************
  12:.\Generated_Source\PSoC5/P1_RegD0_PM.c **** * Copyright 2008-2013, Cypress Semiconductor Corporation.  All rights reserved.
  13:.\Generated_Source\PSoC5/P1_RegD0_PM.c **** * You may use this file only in accordance with the license, terms, conditions,
  14:.\Generated_Source\PSoC5/P1_RegD0_PM.c **** * disclaimers, and limitations in the end user license agreement accompanying
  15:.\Generated_Source\PSoC5/P1_RegD0_PM.c **** * the software package with which this file was provided.
  16:.\Generated_Source\PSoC5/P1_RegD0_PM.c **** *******************************************************************************/
  17:.\Generated_Source\PSoC5/P1_RegD0_PM.c **** 
  18:.\Generated_Source\PSoC5/P1_RegD0_PM.c **** #include "P1_RegD0.h"
  19:.\Generated_Source\PSoC5/P1_RegD0_PM.c **** 
  20:.\Generated_Source\PSoC5/P1_RegD0_PM.c **** static P1_RegD0_BACKUP_STRUCT P1_RegD0_backup =
  21:.\Generated_Source\PSoC5/P1_RegD0_PM.c **** {
  22:.\Generated_Source\PSoC5/P1_RegD0_PM.c ****     P1_RegD0_DISABLED,
  23:.\Generated_Source\PSoC5/P1_RegD0_PM.c **** 
  24:.\Generated_Source\PSoC5/P1_RegD0_PM.c ****     ((uint16) P1_RegD0_DEFAULT_A0),
  25:.\Generated_Source\PSoC5/P1_RegD0_PM.c ****     ((uint16) P1_RegD0_DEFAULT_A1),
  26:.\Generated_Source\PSoC5/P1_RegD0_PM.c **** 
  27:.\Generated_Source\PSoC5/P1_RegD0_PM.c ****     #if(CY_UDB_V0)
  28:.\Generated_Source\PSoC5/P1_RegD0_PM.c ****         ((uint16) P1_RegD0_INT_SRC),
  29:.\Generated_Source\PSoC5/P1_RegD0_PM.c ****     #endif /* (CY_UDB_V0) */
  30:.\Generated_Source\PSoC5/P1_RegD0_PM.c **** };
  31:.\Generated_Source\PSoC5/P1_RegD0_PM.c **** 
ARM GAS  C:\Users\Thomas\AppData\Local\Temp\ccxEt5je.s 			page 2


  32:.\Generated_Source\PSoC5/P1_RegD0_PM.c **** 
  33:.\Generated_Source\PSoC5/P1_RegD0_PM.c **** /*******************************************************************************
  34:.\Generated_Source\PSoC5/P1_RegD0_PM.c **** * Function Name: P1_RegD0_SaveConfig
  35:.\Generated_Source\PSoC5/P1_RegD0_PM.c **** ********************************************************************************
  36:.\Generated_Source\PSoC5/P1_RegD0_PM.c **** *
  37:.\Generated_Source\PSoC5/P1_RegD0_PM.c **** * Summary:
  38:.\Generated_Source\PSoC5/P1_RegD0_PM.c **** *  Saves Shift Register configuration.
  39:.\Generated_Source\PSoC5/P1_RegD0_PM.c **** *
  40:.\Generated_Source\PSoC5/P1_RegD0_PM.c **** * Parameters:
  41:.\Generated_Source\PSoC5/P1_RegD0_PM.c **** *  None.
  42:.\Generated_Source\PSoC5/P1_RegD0_PM.c **** *
  43:.\Generated_Source\PSoC5/P1_RegD0_PM.c **** * Return:
  44:.\Generated_Source\PSoC5/P1_RegD0_PM.c **** *  None.
  45:.\Generated_Source\PSoC5/P1_RegD0_PM.c **** *
  46:.\Generated_Source\PSoC5/P1_RegD0_PM.c **** * Reentrant:
  47:.\Generated_Source\PSoC5/P1_RegD0_PM.c **** *  No.
  48:.\Generated_Source\PSoC5/P1_RegD0_PM.c **** *
  49:.\Generated_Source\PSoC5/P1_RegD0_PM.c **** *******************************************************************************/
  50:.\Generated_Source\PSoC5/P1_RegD0_PM.c **** void P1_RegD0_SaveConfig(void) 
  51:.\Generated_Source\PSoC5/P1_RegD0_PM.c **** {
  27              		.loc 1 51 0
  28              		.cfi_startproc
  29              		@ args = 0, pretend = 0, frame = 0
  30              		@ frame_needed = 0, uses_anonymous_args = 0
  31              		@ link register save eliminated.
  52:.\Generated_Source\PSoC5/P1_RegD0_PM.c ****     /* Store working registers A0 and A1 */
  53:.\Generated_Source\PSoC5/P1_RegD0_PM.c ****     P1_RegD0_backup.saveSrA0Reg   = CY_GET_REG16(P1_RegD0_SHIFT_REG_LSB_PTR);
  32              		.loc 1 53 0
  33 0000 034B     		ldr	r3, .L2
  34 0002 1A88     		ldrh	r2, [r3]
  35 0004 034B     		ldr	r3, .L2+4
  36 0006 5A80     		strh	r2, [r3, #2]	@ movhi
  54:.\Generated_Source\PSoC5/P1_RegD0_PM.c ****     P1_RegD0_backup.saveSrA1Reg   = CY_GET_REG16(P1_RegD0_SHIFT_REG_VALUE_LSB_PTR);
  37              		.loc 1 54 0
  38 0008 034A     		ldr	r2, .L2+8
  39 000a 1288     		ldrh	r2, [r2]
  40 000c 9A80     		strh	r2, [r3, #4]	@ movhi
  41 000e 7047     		bx	lr
  42              	.L3:
  43              		.align	2
  44              	.L2:
  45 0010 06650040 		.word	1073767686
  46 0014 00000000 		.word	.LANCHOR0
  47 0018 16650040 		.word	1073767702
  48              		.cfi_endproc
  49              	.LFE0:
  50              		.size	P1_RegD0_SaveConfig, .-P1_RegD0_SaveConfig
  51              		.section	.text.P1_RegD0_RestoreConfig,"ax",%progbits
  52              		.align	2
  53              		.global	P1_RegD0_RestoreConfig
  54              		.thumb
  55              		.thumb_func
  56              		.type	P1_RegD0_RestoreConfig, %function
  57              	P1_RegD0_RestoreConfig:
  58              	.LFB1:
  55:.\Generated_Source\PSoC5/P1_RegD0_PM.c **** 
  56:.\Generated_Source\PSoC5/P1_RegD0_PM.c ****     #if(CY_UDB_V0)
ARM GAS  C:\Users\Thomas\AppData\Local\Temp\ccxEt5je.s 			page 3


  57:.\Generated_Source\PSoC5/P1_RegD0_PM.c ****         P1_RegD0_backup.saveSrIntMask = P1_RegD0_SR_STATUS_MASK;
  58:.\Generated_Source\PSoC5/P1_RegD0_PM.c ****     #endif /* (CY_UDB_V0) */
  59:.\Generated_Source\PSoC5/P1_RegD0_PM.c **** }
  60:.\Generated_Source\PSoC5/P1_RegD0_PM.c **** 
  61:.\Generated_Source\PSoC5/P1_RegD0_PM.c **** 
  62:.\Generated_Source\PSoC5/P1_RegD0_PM.c **** /*******************************************************************************
  63:.\Generated_Source\PSoC5/P1_RegD0_PM.c **** * Function Name: P1_RegD0_RestoreConfig
  64:.\Generated_Source\PSoC5/P1_RegD0_PM.c **** ********************************************************************************
  65:.\Generated_Source\PSoC5/P1_RegD0_PM.c **** *
  66:.\Generated_Source\PSoC5/P1_RegD0_PM.c **** * Summary:
  67:.\Generated_Source\PSoC5/P1_RegD0_PM.c **** *  Restores Shift Register configuration.
  68:.\Generated_Source\PSoC5/P1_RegD0_PM.c **** *
  69:.\Generated_Source\PSoC5/P1_RegD0_PM.c **** * Parameters:
  70:.\Generated_Source\PSoC5/P1_RegD0_PM.c **** *  None.
  71:.\Generated_Source\PSoC5/P1_RegD0_PM.c **** *
  72:.\Generated_Source\PSoC5/P1_RegD0_PM.c **** * Return:
  73:.\Generated_Source\PSoC5/P1_RegD0_PM.c **** *  None.
  74:.\Generated_Source\PSoC5/P1_RegD0_PM.c **** *
  75:.\Generated_Source\PSoC5/P1_RegD0_PM.c **** *******************************************************************************/
  76:.\Generated_Source\PSoC5/P1_RegD0_PM.c **** void P1_RegD0_RestoreConfig(void) 
  77:.\Generated_Source\PSoC5/P1_RegD0_PM.c **** {
  59              		.loc 1 77 0
  60              		.cfi_startproc
  61              		@ args = 0, pretend = 0, frame = 0
  62              		@ frame_needed = 0, uses_anonymous_args = 0
  63              		@ link register save eliminated.
  78:.\Generated_Source\PSoC5/P1_RegD0_PM.c ****     /* Restore working registers A0 and A1 */
  79:.\Generated_Source\PSoC5/P1_RegD0_PM.c ****     CY_SET_REG16(P1_RegD0_SHIFT_REG_LSB_PTR, P1_RegD0_backup.saveSrA0Reg);
  64              		.loc 1 79 0
  65 0000 034B     		ldr	r3, .L5
  66 0002 5988     		ldrh	r1, [r3, #2]
  67 0004 034A     		ldr	r2, .L5+4
  68 0006 1180     		strh	r1, [r2]	@ movhi
  80:.\Generated_Source\PSoC5/P1_RegD0_PM.c ****     CY_SET_REG16(P1_RegD0_SHIFT_REG_VALUE_LSB_PTR, P1_RegD0_backup.saveSrA1Reg);
  69              		.loc 1 80 0
  70 0008 9A88     		ldrh	r2, [r3, #4]
  71 000a 034B     		ldr	r3, .L5+8
  72 000c 1A80     		strh	r2, [r3]	@ movhi
  73 000e 7047     		bx	lr
  74              	.L6:
  75              		.align	2
  76              	.L5:
  77 0010 00000000 		.word	.LANCHOR0
  78 0014 06650040 		.word	1073767686
  79 0018 16650040 		.word	1073767702
  80              		.cfi_endproc
  81              	.LFE1:
  82              		.size	P1_RegD0_RestoreConfig, .-P1_RegD0_RestoreConfig
  83              		.section	.text.P1_RegD0_Sleep,"ax",%progbits
  84              		.align	2
  85              		.global	P1_RegD0_Sleep
  86              		.thumb
  87              		.thumb_func
  88              		.type	P1_RegD0_Sleep, %function
  89              	P1_RegD0_Sleep:
  90              	.LFB2:
  81:.\Generated_Source\PSoC5/P1_RegD0_PM.c **** 
ARM GAS  C:\Users\Thomas\AppData\Local\Temp\ccxEt5je.s 			page 4


  82:.\Generated_Source\PSoC5/P1_RegD0_PM.c ****     #if(CY_UDB_V0)
  83:.\Generated_Source\PSoC5/P1_RegD0_PM.c ****         P1_RegD0_SR_STATUS_MASK = ((uint8) P1_RegD0_backup.saveSrIntMask);
  84:.\Generated_Source\PSoC5/P1_RegD0_PM.c ****     #endif /* (CY_UDB_V0) */
  85:.\Generated_Source\PSoC5/P1_RegD0_PM.c **** }
  86:.\Generated_Source\PSoC5/P1_RegD0_PM.c **** 
  87:.\Generated_Source\PSoC5/P1_RegD0_PM.c **** 
  88:.\Generated_Source\PSoC5/P1_RegD0_PM.c **** /*******************************************************************************
  89:.\Generated_Source\PSoC5/P1_RegD0_PM.c **** * Function Name: P1_RegD0_Sleep
  90:.\Generated_Source\PSoC5/P1_RegD0_PM.c **** ********************************************************************************
  91:.\Generated_Source\PSoC5/P1_RegD0_PM.c **** *
  92:.\Generated_Source\PSoC5/P1_RegD0_PM.c **** * Summary:
  93:.\Generated_Source\PSoC5/P1_RegD0_PM.c **** *  Prepare the component to enter a Sleep mode.
  94:.\Generated_Source\PSoC5/P1_RegD0_PM.c **** *
  95:.\Generated_Source\PSoC5/P1_RegD0_PM.c **** * Parameters:
  96:.\Generated_Source\PSoC5/P1_RegD0_PM.c **** *  None.
  97:.\Generated_Source\PSoC5/P1_RegD0_PM.c **** *
  98:.\Generated_Source\PSoC5/P1_RegD0_PM.c **** * Return:
  99:.\Generated_Source\PSoC5/P1_RegD0_PM.c **** *  None.
 100:.\Generated_Source\PSoC5/P1_RegD0_PM.c **** *
 101:.\Generated_Source\PSoC5/P1_RegD0_PM.c **** * Reentrant:
 102:.\Generated_Source\PSoC5/P1_RegD0_PM.c **** *  No.
 103:.\Generated_Source\PSoC5/P1_RegD0_PM.c **** *
 104:.\Generated_Source\PSoC5/P1_RegD0_PM.c **** *******************************************************************************/
 105:.\Generated_Source\PSoC5/P1_RegD0_PM.c **** void P1_RegD0_Sleep(void) 
 106:.\Generated_Source\PSoC5/P1_RegD0_PM.c **** {
  91              		.loc 1 106 0
  92              		.cfi_startproc
  93              		@ args = 0, pretend = 0, frame = 0
  94              		@ frame_needed = 0, uses_anonymous_args = 0
  95 0000 08B5     		push	{r3, lr}
  96              		.cfi_def_cfa_offset 8
  97              		.cfi_offset 3, -8
  98              		.cfi_offset 14, -4
 107:.\Generated_Source\PSoC5/P1_RegD0_PM.c ****     P1_RegD0_backup.enableState = ((uint8) P1_RegD0_IS_ENABLED);
  99              		.loc 1 107 0
 100 0002 054B     		ldr	r3, .L9
 101 0004 1B78     		ldrb	r3, [r3]	@ zero_extendqisi2
 102 0006 03F00103 		and	r3, r3, #1
 103 000a 044A     		ldr	r2, .L9+4
 104 000c 1370     		strb	r3, [r2]
 108:.\Generated_Source\PSoC5/P1_RegD0_PM.c **** 
 109:.\Generated_Source\PSoC5/P1_RegD0_PM.c ****     P1_RegD0_Stop();
 105              		.loc 1 109 0
 106 000e FFF7FEFF 		bl	P1_RegD0_Stop
 107              	.LVL0:
 110:.\Generated_Source\PSoC5/P1_RegD0_PM.c ****     P1_RegD0_SaveConfig();
 108              		.loc 1 110 0
 109 0012 FFF7FEFF 		bl	P1_RegD0_SaveConfig
 110              	.LVL1:
 111 0016 08BD     		pop	{r3, pc}
 112              	.L10:
 113              		.align	2
 114              	.L9:
 115 0018 77650040 		.word	1073767799
 116 001c 00000000 		.word	.LANCHOR0
 117              		.cfi_endproc
 118              	.LFE2:
ARM GAS  C:\Users\Thomas\AppData\Local\Temp\ccxEt5je.s 			page 5


 119              		.size	P1_RegD0_Sleep, .-P1_RegD0_Sleep
 120              		.section	.text.P1_RegD0_Wakeup,"ax",%progbits
 121              		.align	2
 122              		.global	P1_RegD0_Wakeup
 123              		.thumb
 124              		.thumb_func
 125              		.type	P1_RegD0_Wakeup, %function
 126              	P1_RegD0_Wakeup:
 127              	.LFB3:
 111:.\Generated_Source\PSoC5/P1_RegD0_PM.c **** }
 112:.\Generated_Source\PSoC5/P1_RegD0_PM.c **** 
 113:.\Generated_Source\PSoC5/P1_RegD0_PM.c **** 
 114:.\Generated_Source\PSoC5/P1_RegD0_PM.c **** /*******************************************************************************
 115:.\Generated_Source\PSoC5/P1_RegD0_PM.c **** * Function Name: P1_RegD0_Wakeup
 116:.\Generated_Source\PSoC5/P1_RegD0_PM.c **** ********************************************************************************
 117:.\Generated_Source\PSoC5/P1_RegD0_PM.c **** *
 118:.\Generated_Source\PSoC5/P1_RegD0_PM.c **** * Summary:
 119:.\Generated_Source\PSoC5/P1_RegD0_PM.c **** *  Restores and enables the user configuration.
 120:.\Generated_Source\PSoC5/P1_RegD0_PM.c **** *
 121:.\Generated_Source\PSoC5/P1_RegD0_PM.c **** * Parameters:
 122:.\Generated_Source\PSoC5/P1_RegD0_PM.c **** *  None.
 123:.\Generated_Source\PSoC5/P1_RegD0_PM.c **** *
 124:.\Generated_Source\PSoC5/P1_RegD0_PM.c **** * Return:
 125:.\Generated_Source\PSoC5/P1_RegD0_PM.c **** *  None.
 126:.\Generated_Source\PSoC5/P1_RegD0_PM.c **** *
 127:.\Generated_Source\PSoC5/P1_RegD0_PM.c **** *******************************************************************************/
 128:.\Generated_Source\PSoC5/P1_RegD0_PM.c **** void P1_RegD0_Wakeup(void) 
 129:.\Generated_Source\PSoC5/P1_RegD0_PM.c **** {
 128              		.loc 1 129 0
 129              		.cfi_startproc
 130              		@ args = 0, pretend = 0, frame = 0
 131              		@ frame_needed = 0, uses_anonymous_args = 0
 132 0000 08B5     		push	{r3, lr}
 133              		.cfi_def_cfa_offset 8
 134              		.cfi_offset 3, -8
 135              		.cfi_offset 14, -4
 130:.\Generated_Source\PSoC5/P1_RegD0_PM.c ****     P1_RegD0_RestoreConfig();
 136              		.loc 1 130 0
 137 0002 FFF7FEFF 		bl	P1_RegD0_RestoreConfig
 138              	.LVL2:
 131:.\Generated_Source\PSoC5/P1_RegD0_PM.c **** 
 132:.\Generated_Source\PSoC5/P1_RegD0_PM.c ****     if(0u != P1_RegD0_backup.enableState)
 139              		.loc 1 132 0
 140 0006 034B     		ldr	r3, .L14
 141 0008 1B78     		ldrb	r3, [r3]	@ zero_extendqisi2
 142 000a 0BB1     		cbz	r3, .L11
 133:.\Generated_Source\PSoC5/P1_RegD0_PM.c ****     {
 134:.\Generated_Source\PSoC5/P1_RegD0_PM.c ****         P1_RegD0_Enable();
 143              		.loc 1 134 0
 144 000c FFF7FEFF 		bl	P1_RegD0_Enable
 145              	.LVL3:
 146              	.L11:
 147 0010 08BD     		pop	{r3, pc}
 148              	.L15:
 149 0012 00BF     		.align	2
 150              	.L14:
 151 0014 00000000 		.word	.LANCHOR0
ARM GAS  C:\Users\Thomas\AppData\Local\Temp\ccxEt5je.s 			page 6


 152              		.cfi_endproc
 153              	.LFE3:
 154              		.size	P1_RegD0_Wakeup, .-P1_RegD0_Wakeup
 155              		.bss
 156              		.align	2
 157              		.set	.LANCHOR0,. + 0
 158              		.type	P1_RegD0_backup, %object
 159              		.size	P1_RegD0_backup, 6
 160              	P1_RegD0_backup:
 161 0000 00000000 		.space	6
 161      0000
 162 0006 0000     		.text
 163              	.Letext0:
 164              		.file 2 ".\\Generated_Source\\PSoC5\\cytypes.h"
 165              		.file 3 ".\\Generated_Source\\PSoC5\\P1_RegD0.h"