ARM GAS  C:\Users\Thomas\AppData\Local\Temp\ccs3od7S.s 			page 1


   1              		.syntax unified
   2              		.cpu cortex-m3
   3              		.fpu softvfp
   4              		.eabi_attribute 20, 1
   5              		.eabi_attribute 21, 1
   6              		.eabi_attribute 23, 3
   7              		.eabi_attribute 24, 1
   8              		.eabi_attribute 25, 1
   9              		.eabi_attribute 26, 1
  10              		.eabi_attribute 30, 1
  11              		.eabi_attribute 34, 1
  12              		.eabi_attribute 18, 4
  13              		.thumb
  14              		.file	"P1_TIMER.c"
  15              		.text
  16              	.Ltext0:
  17              		.cfi_sections	.debug_frame
  18              		.section	.text.P1_TIMER_Interrupt,"ax",%progbits
  19              		.align	2
  20              		.global	P1_TIMER_Interrupt
  21              		.thumb
  22              		.thumb_func
  23              		.type	P1_TIMER_Interrupt, %function
  24              	P1_TIMER_Interrupt:
  25              	.LFB66:
  26              		.file 1 ".\\Generated_Source\\PSoC5\\P1_TIMER.c"
   1:.\Generated_Source\PSoC5/P1_TIMER.c **** /*******************************************************************************
   2:.\Generated_Source\PSoC5/P1_TIMER.c **** * File Name: P1_TIMER.c  
   3:.\Generated_Source\PSoC5/P1_TIMER.c **** * Version 1.70
   4:.\Generated_Source\PSoC5/P1_TIMER.c **** *
   5:.\Generated_Source\PSoC5/P1_TIMER.c **** *  Description:
   6:.\Generated_Source\PSoC5/P1_TIMER.c **** *   API for controlling the state of an interrupt.
   7:.\Generated_Source\PSoC5/P1_TIMER.c **** *
   8:.\Generated_Source\PSoC5/P1_TIMER.c **** *
   9:.\Generated_Source\PSoC5/P1_TIMER.c **** *  Note:
  10:.\Generated_Source\PSoC5/P1_TIMER.c **** *
  11:.\Generated_Source\PSoC5/P1_TIMER.c **** ********************************************************************************
  12:.\Generated_Source\PSoC5/P1_TIMER.c **** * Copyright 2008-2015, Cypress Semiconductor Corporation.  All rights reserved.
  13:.\Generated_Source\PSoC5/P1_TIMER.c **** * You may use this file only in accordance with the license, terms, conditions, 
  14:.\Generated_Source\PSoC5/P1_TIMER.c **** * disclaimers, and limitations in the end user license agreement accompanying 
  15:.\Generated_Source\PSoC5/P1_TIMER.c **** * the software package with which this file was provided.
  16:.\Generated_Source\PSoC5/P1_TIMER.c **** *******************************************************************************/
  17:.\Generated_Source\PSoC5/P1_TIMER.c **** 
  18:.\Generated_Source\PSoC5/P1_TIMER.c **** 
  19:.\Generated_Source\PSoC5/P1_TIMER.c **** #include <cydevice_trm.h>
  20:.\Generated_Source\PSoC5/P1_TIMER.c **** #include <CyLib.h>
  21:.\Generated_Source\PSoC5/P1_TIMER.c **** #include <P1_TIMER.h>
  22:.\Generated_Source\PSoC5/P1_TIMER.c **** #include "cyapicallbacks.h"
  23:.\Generated_Source\PSoC5/P1_TIMER.c **** 
  24:.\Generated_Source\PSoC5/P1_TIMER.c **** #if !defined(P1_TIMER__REMOVED) /* Check for removal by optimization */
  25:.\Generated_Source\PSoC5/P1_TIMER.c **** 
  26:.\Generated_Source\PSoC5/P1_TIMER.c **** /*******************************************************************************
  27:.\Generated_Source\PSoC5/P1_TIMER.c **** *  Place your includes, defines and code here 
  28:.\Generated_Source\PSoC5/P1_TIMER.c **** ********************************************************************************/
  29:.\Generated_Source\PSoC5/P1_TIMER.c **** /* `#START P1_TIMER_intc` */
  30:.\Generated_Source\PSoC5/P1_TIMER.c **** #include <main.h>
  31:.\Generated_Source\PSoC5/P1_TIMER.c **** /* `#END` */
ARM GAS  C:\Users\Thomas\AppData\Local\Temp\ccs3od7S.s 			page 2


  32:.\Generated_Source\PSoC5/P1_TIMER.c **** 
  33:.\Generated_Source\PSoC5/P1_TIMER.c **** #ifndef CYINT_IRQ_BASE
  34:.\Generated_Source\PSoC5/P1_TIMER.c **** #define CYINT_IRQ_BASE      16
  35:.\Generated_Source\PSoC5/P1_TIMER.c **** #endif /* CYINT_IRQ_BASE */
  36:.\Generated_Source\PSoC5/P1_TIMER.c **** #ifndef CYINT_VECT_TABLE
  37:.\Generated_Source\PSoC5/P1_TIMER.c **** #define CYINT_VECT_TABLE    ((cyisraddress **) CYREG_NVIC_VECT_OFFSET)
  38:.\Generated_Source\PSoC5/P1_TIMER.c **** #endif /* CYINT_VECT_TABLE */
  39:.\Generated_Source\PSoC5/P1_TIMER.c **** 
  40:.\Generated_Source\PSoC5/P1_TIMER.c **** /* Declared in startup, used to set unused interrupts to. */
  41:.\Generated_Source\PSoC5/P1_TIMER.c **** CY_ISR_PROTO(IntDefaultHandler);
  42:.\Generated_Source\PSoC5/P1_TIMER.c **** 
  43:.\Generated_Source\PSoC5/P1_TIMER.c **** 
  44:.\Generated_Source\PSoC5/P1_TIMER.c **** /*******************************************************************************
  45:.\Generated_Source\PSoC5/P1_TIMER.c **** * Function Name: P1_TIMER_Start
  46:.\Generated_Source\PSoC5/P1_TIMER.c **** ********************************************************************************
  47:.\Generated_Source\PSoC5/P1_TIMER.c **** *
  48:.\Generated_Source\PSoC5/P1_TIMER.c **** * Summary:
  49:.\Generated_Source\PSoC5/P1_TIMER.c **** *  Set up the interrupt and enable it. This function disables the interrupt, 
  50:.\Generated_Source\PSoC5/P1_TIMER.c **** *  sets the default interrupt vector, sets the priority from the value in the
  51:.\Generated_Source\PSoC5/P1_TIMER.c **** *  Design Wide Resources Interrupt Editor, then enables the interrupt to the 
  52:.\Generated_Source\PSoC5/P1_TIMER.c **** *  interrupt controller.
  53:.\Generated_Source\PSoC5/P1_TIMER.c **** *
  54:.\Generated_Source\PSoC5/P1_TIMER.c **** * Parameters:  
  55:.\Generated_Source\PSoC5/P1_TIMER.c **** *   None
  56:.\Generated_Source\PSoC5/P1_TIMER.c **** *
  57:.\Generated_Source\PSoC5/P1_TIMER.c **** * Return:
  58:.\Generated_Source\PSoC5/P1_TIMER.c **** *   None
  59:.\Generated_Source\PSoC5/P1_TIMER.c **** *
  60:.\Generated_Source\PSoC5/P1_TIMER.c **** *******************************************************************************/
  61:.\Generated_Source\PSoC5/P1_TIMER.c **** void P1_TIMER_Start(void)
  62:.\Generated_Source\PSoC5/P1_TIMER.c **** {
  63:.\Generated_Source\PSoC5/P1_TIMER.c ****     /* For all we know the interrupt is active. */
  64:.\Generated_Source\PSoC5/P1_TIMER.c ****     P1_TIMER_Disable();
  65:.\Generated_Source\PSoC5/P1_TIMER.c **** 
  66:.\Generated_Source\PSoC5/P1_TIMER.c ****     /* Set the ISR to point to the P1_TIMER Interrupt. */
  67:.\Generated_Source\PSoC5/P1_TIMER.c ****     P1_TIMER_SetVector(&P1_TIMER_Interrupt);
  68:.\Generated_Source\PSoC5/P1_TIMER.c **** 
  69:.\Generated_Source\PSoC5/P1_TIMER.c ****     /* Set the priority. */
  70:.\Generated_Source\PSoC5/P1_TIMER.c ****     P1_TIMER_SetPriority((uint8)P1_TIMER_INTC_PRIOR_NUMBER);
  71:.\Generated_Source\PSoC5/P1_TIMER.c **** 
  72:.\Generated_Source\PSoC5/P1_TIMER.c ****     /* Enable it. */
  73:.\Generated_Source\PSoC5/P1_TIMER.c ****     P1_TIMER_Enable();
  74:.\Generated_Source\PSoC5/P1_TIMER.c **** }
  75:.\Generated_Source\PSoC5/P1_TIMER.c **** 
  76:.\Generated_Source\PSoC5/P1_TIMER.c **** 
  77:.\Generated_Source\PSoC5/P1_TIMER.c **** /*******************************************************************************
  78:.\Generated_Source\PSoC5/P1_TIMER.c **** * Function Name: P1_TIMER_StartEx
  79:.\Generated_Source\PSoC5/P1_TIMER.c **** ********************************************************************************
  80:.\Generated_Source\PSoC5/P1_TIMER.c **** *
  81:.\Generated_Source\PSoC5/P1_TIMER.c **** * Summary:
  82:.\Generated_Source\PSoC5/P1_TIMER.c **** *  Sets up the interrupt and enables it. This function disables the interrupt,
  83:.\Generated_Source\PSoC5/P1_TIMER.c **** *  sets the interrupt vector based on the address passed in, sets the priority 
  84:.\Generated_Source\PSoC5/P1_TIMER.c **** *  from the value in the Design Wide Resources Interrupt Editor, then enables 
  85:.\Generated_Source\PSoC5/P1_TIMER.c **** *  the interrupt to the interrupt controller.
  86:.\Generated_Source\PSoC5/P1_TIMER.c **** *  
  87:.\Generated_Source\PSoC5/P1_TIMER.c **** *  When defining ISR functions, the CY_ISR and CY_ISR_PROTO macros should be 
  88:.\Generated_Source\PSoC5/P1_TIMER.c **** *  used to provide consistent definition across compilers:
ARM GAS  C:\Users\Thomas\AppData\Local\Temp\ccs3od7S.s 			page 3


  89:.\Generated_Source\PSoC5/P1_TIMER.c **** *  
  90:.\Generated_Source\PSoC5/P1_TIMER.c **** *  Function definition example:
  91:.\Generated_Source\PSoC5/P1_TIMER.c **** *   CY_ISR(MyISR)
  92:.\Generated_Source\PSoC5/P1_TIMER.c **** *   {
  93:.\Generated_Source\PSoC5/P1_TIMER.c **** *   }
  94:.\Generated_Source\PSoC5/P1_TIMER.c **** *   Function prototype example:
  95:.\Generated_Source\PSoC5/P1_TIMER.c **** *   CY_ISR_PROTO(MyISR);
  96:.\Generated_Source\PSoC5/P1_TIMER.c **** *
  97:.\Generated_Source\PSoC5/P1_TIMER.c **** * Parameters:  
  98:.\Generated_Source\PSoC5/P1_TIMER.c **** *   address: Address of the ISR to set in the interrupt vector table.
  99:.\Generated_Source\PSoC5/P1_TIMER.c **** *
 100:.\Generated_Source\PSoC5/P1_TIMER.c **** * Return:
 101:.\Generated_Source\PSoC5/P1_TIMER.c **** *   None
 102:.\Generated_Source\PSoC5/P1_TIMER.c **** *
 103:.\Generated_Source\PSoC5/P1_TIMER.c **** *******************************************************************************/
 104:.\Generated_Source\PSoC5/P1_TIMER.c **** void P1_TIMER_StartEx(cyisraddress address)
 105:.\Generated_Source\PSoC5/P1_TIMER.c **** {
 106:.\Generated_Source\PSoC5/P1_TIMER.c ****     /* For all we know the interrupt is active. */
 107:.\Generated_Source\PSoC5/P1_TIMER.c ****     P1_TIMER_Disable();
 108:.\Generated_Source\PSoC5/P1_TIMER.c **** 
 109:.\Generated_Source\PSoC5/P1_TIMER.c ****     /* Set the ISR to point to the P1_TIMER Interrupt. */
 110:.\Generated_Source\PSoC5/P1_TIMER.c ****     P1_TIMER_SetVector(address);
 111:.\Generated_Source\PSoC5/P1_TIMER.c **** 
 112:.\Generated_Source\PSoC5/P1_TIMER.c ****     /* Set the priority. */
 113:.\Generated_Source\PSoC5/P1_TIMER.c ****     P1_TIMER_SetPriority((uint8)P1_TIMER_INTC_PRIOR_NUMBER);
 114:.\Generated_Source\PSoC5/P1_TIMER.c **** 
 115:.\Generated_Source\PSoC5/P1_TIMER.c ****     /* Enable it. */
 116:.\Generated_Source\PSoC5/P1_TIMER.c ****     P1_TIMER_Enable();
 117:.\Generated_Source\PSoC5/P1_TIMER.c **** }
 118:.\Generated_Source\PSoC5/P1_TIMER.c **** 
 119:.\Generated_Source\PSoC5/P1_TIMER.c **** 
 120:.\Generated_Source\PSoC5/P1_TIMER.c **** /*******************************************************************************
 121:.\Generated_Source\PSoC5/P1_TIMER.c **** * Function Name: P1_TIMER_Stop
 122:.\Generated_Source\PSoC5/P1_TIMER.c **** ********************************************************************************
 123:.\Generated_Source\PSoC5/P1_TIMER.c **** *
 124:.\Generated_Source\PSoC5/P1_TIMER.c **** * Summary:
 125:.\Generated_Source\PSoC5/P1_TIMER.c **** *   Disables and removes the interrupt.
 126:.\Generated_Source\PSoC5/P1_TIMER.c **** *
 127:.\Generated_Source\PSoC5/P1_TIMER.c **** * Parameters:  
 128:.\Generated_Source\PSoC5/P1_TIMER.c **** *   None
 129:.\Generated_Source\PSoC5/P1_TIMER.c **** *
 130:.\Generated_Source\PSoC5/P1_TIMER.c **** * Return:
 131:.\Generated_Source\PSoC5/P1_TIMER.c **** *   None
 132:.\Generated_Source\PSoC5/P1_TIMER.c **** *
 133:.\Generated_Source\PSoC5/P1_TIMER.c **** *******************************************************************************/
 134:.\Generated_Source\PSoC5/P1_TIMER.c **** void P1_TIMER_Stop(void)
 135:.\Generated_Source\PSoC5/P1_TIMER.c **** {
 136:.\Generated_Source\PSoC5/P1_TIMER.c ****     /* Disable this interrupt. */
 137:.\Generated_Source\PSoC5/P1_TIMER.c ****     P1_TIMER_Disable();
 138:.\Generated_Source\PSoC5/P1_TIMER.c **** 
 139:.\Generated_Source\PSoC5/P1_TIMER.c ****     /* Set the ISR to point to the passive one. */
 140:.\Generated_Source\PSoC5/P1_TIMER.c ****     P1_TIMER_SetVector(&IntDefaultHandler);
 141:.\Generated_Source\PSoC5/P1_TIMER.c **** }
 142:.\Generated_Source\PSoC5/P1_TIMER.c **** 
 143:.\Generated_Source\PSoC5/P1_TIMER.c **** 
 144:.\Generated_Source\PSoC5/P1_TIMER.c **** /*******************************************************************************
 145:.\Generated_Source\PSoC5/P1_TIMER.c **** * Function Name: P1_TIMER_Interrupt
ARM GAS  C:\Users\Thomas\AppData\Local\Temp\ccs3od7S.s 			page 4


 146:.\Generated_Source\PSoC5/P1_TIMER.c **** ********************************************************************************
 147:.\Generated_Source\PSoC5/P1_TIMER.c **** *
 148:.\Generated_Source\PSoC5/P1_TIMER.c **** * Summary:
 149:.\Generated_Source\PSoC5/P1_TIMER.c **** *   The default Interrupt Service Routine for P1_TIMER.
 150:.\Generated_Source\PSoC5/P1_TIMER.c **** *
 151:.\Generated_Source\PSoC5/P1_TIMER.c **** *   Add custom code between the coments to keep the next version of this file
 152:.\Generated_Source\PSoC5/P1_TIMER.c **** *   from over writting your code.
 153:.\Generated_Source\PSoC5/P1_TIMER.c **** *
 154:.\Generated_Source\PSoC5/P1_TIMER.c **** * Parameters:  
 155:.\Generated_Source\PSoC5/P1_TIMER.c **** *
 156:.\Generated_Source\PSoC5/P1_TIMER.c **** * Return:
 157:.\Generated_Source\PSoC5/P1_TIMER.c **** *   None
 158:.\Generated_Source\PSoC5/P1_TIMER.c **** *
 159:.\Generated_Source\PSoC5/P1_TIMER.c **** *******************************************************************************/
 160:.\Generated_Source\PSoC5/P1_TIMER.c **** CY_ISR(P1_TIMER_Interrupt)
 161:.\Generated_Source\PSoC5/P1_TIMER.c **** {
  27              		.loc 1 161 0
  28              		.cfi_startproc
  29              		@ args = 0, pretend = 0, frame = 0
  30              		@ frame_needed = 0, uses_anonymous_args = 0
  31 0000 08B5     		push	{r3, lr}
  32              		.cfi_def_cfa_offset 8
  33              		.cfi_offset 3, -8
  34              		.cfi_offset 14, -4
 162:.\Generated_Source\PSoC5/P1_TIMER.c ****     #ifdef P1_TIMER_INTERRUPT_INTERRUPT_CALLBACK
 163:.\Generated_Source\PSoC5/P1_TIMER.c ****         P1_TIMER_Interrupt_InterruptCallback();
 164:.\Generated_Source\PSoC5/P1_TIMER.c ****     #endif /* P1_TIMER_INTERRUPT_INTERRUPT_CALLBACK */ 
 165:.\Generated_Source\PSoC5/P1_TIMER.c **** 
 166:.\Generated_Source\PSoC5/P1_TIMER.c ****     /*  Place your Interrupt code here. */
 167:.\Generated_Source\PSoC5/P1_TIMER.c ****     /* `#START P1_TIMER_Interrupt` */
 168:.\Generated_Source\PSoC5/P1_TIMER.c ****     ready = 1;
  35              		.loc 1 168 0
  36 0002 0122     		movs	r2, #1
  37 0004 024B     		ldr	r3, .L3
  38 0006 1A60     		str	r2, [r3]
 169:.\Generated_Source\PSoC5/P1_TIMER.c ****     Timer_1_Stop();
  39              		.loc 1 169 0
  40 0008 FFF7FEFF 		bl	Timer_1_Stop
  41              	.LVL0:
  42 000c 08BD     		pop	{r3, pc}
  43              	.L4:
  44 000e 00BF     		.align	2
  45              	.L3:
  46 0010 00000000 		.word	ready
  47              		.cfi_endproc
  48              	.LFE66:
  49              		.size	P1_TIMER_Interrupt, .-P1_TIMER_Interrupt
  50              		.section	.text.P1_TIMER_SetVector,"ax",%progbits
  51              		.align	2
  52              		.global	P1_TIMER_SetVector
  53              		.thumb
  54              		.thumb_func
  55              		.type	P1_TIMER_SetVector, %function
  56              	P1_TIMER_SetVector:
  57              	.LFB67:
 170:.\Generated_Source\PSoC5/P1_TIMER.c ****     /* `#END` */
 171:.\Generated_Source\PSoC5/P1_TIMER.c **** }
ARM GAS  C:\Users\Thomas\AppData\Local\Temp\ccs3od7S.s 			page 5


 172:.\Generated_Source\PSoC5/P1_TIMER.c **** 
 173:.\Generated_Source\PSoC5/P1_TIMER.c **** 
 174:.\Generated_Source\PSoC5/P1_TIMER.c **** /*******************************************************************************
 175:.\Generated_Source\PSoC5/P1_TIMER.c **** * Function Name: P1_TIMER_SetVector
 176:.\Generated_Source\PSoC5/P1_TIMER.c **** ********************************************************************************
 177:.\Generated_Source\PSoC5/P1_TIMER.c **** *
 178:.\Generated_Source\PSoC5/P1_TIMER.c **** * Summary:
 179:.\Generated_Source\PSoC5/P1_TIMER.c **** *   Change the ISR vector for the Interrupt. Note calling P1_TIMER_Start
 180:.\Generated_Source\PSoC5/P1_TIMER.c **** *   will override any effect this method would have had. To set the vector 
 181:.\Generated_Source\PSoC5/P1_TIMER.c **** *   before the component has been started use P1_TIMER_StartEx instead.
 182:.\Generated_Source\PSoC5/P1_TIMER.c **** * 
 183:.\Generated_Source\PSoC5/P1_TIMER.c **** *   When defining ISR functions, the CY_ISR and CY_ISR_PROTO macros should be 
 184:.\Generated_Source\PSoC5/P1_TIMER.c **** *   used to provide consistent definition across compilers:
 185:.\Generated_Source\PSoC5/P1_TIMER.c **** *
 186:.\Generated_Source\PSoC5/P1_TIMER.c **** *   Function definition example:
 187:.\Generated_Source\PSoC5/P1_TIMER.c **** *   CY_ISR(MyISR)
 188:.\Generated_Source\PSoC5/P1_TIMER.c **** *   {
 189:.\Generated_Source\PSoC5/P1_TIMER.c **** *   }
 190:.\Generated_Source\PSoC5/P1_TIMER.c **** *
 191:.\Generated_Source\PSoC5/P1_TIMER.c **** *   Function prototype example:
 192:.\Generated_Source\PSoC5/P1_TIMER.c **** *     CY_ISR_PROTO(MyISR);
 193:.\Generated_Source\PSoC5/P1_TIMER.c **** *
 194:.\Generated_Source\PSoC5/P1_TIMER.c **** * Parameters:
 195:.\Generated_Source\PSoC5/P1_TIMER.c **** *   address: Address of the ISR to set in the interrupt vector table.
 196:.\Generated_Source\PSoC5/P1_TIMER.c **** *
 197:.\Generated_Source\PSoC5/P1_TIMER.c **** * Return:
 198:.\Generated_Source\PSoC5/P1_TIMER.c **** *   None
 199:.\Generated_Source\PSoC5/P1_TIMER.c **** *
 200:.\Generated_Source\PSoC5/P1_TIMER.c **** *******************************************************************************/
 201:.\Generated_Source\PSoC5/P1_TIMER.c **** void P1_TIMER_SetVector(cyisraddress address)
 202:.\Generated_Source\PSoC5/P1_TIMER.c **** {
  58              		.loc 1 202 0
  59              		.cfi_startproc
  60              		@ args = 0, pretend = 0, frame = 0
  61              		@ frame_needed = 0, uses_anonymous_args = 0
  62              		@ link register save eliminated.
  63              	.LVL1:
 203:.\Generated_Source\PSoC5/P1_TIMER.c ****     cyisraddress * ramVectorTable;
 204:.\Generated_Source\PSoC5/P1_TIMER.c **** 
 205:.\Generated_Source\PSoC5/P1_TIMER.c ****     ramVectorTable = (cyisraddress *) *CYINT_VECT_TABLE;
  64              		.loc 1 205 0
  65 0000 014B     		ldr	r3, .L6
  66 0002 1B68     		ldr	r3, [r3]
  67              	.LVL2:
 206:.\Generated_Source\PSoC5/P1_TIMER.c **** 
 207:.\Generated_Source\PSoC5/P1_TIMER.c ****     ramVectorTable[CYINT_IRQ_BASE + (uint32)P1_TIMER__INTC_NUMBER] = address;
  68              		.loc 1 207 0
  69 0004 5864     		str	r0, [r3, #68]
  70 0006 7047     		bx	lr
  71              	.L7:
  72              		.align	2
  73              	.L6:
  74 0008 08ED00E0 		.word	-536810232
  75              		.cfi_endproc
  76              	.LFE67:
  77              		.size	P1_TIMER_SetVector, .-P1_TIMER_SetVector
  78              		.section	.text.P1_TIMER_GetVector,"ax",%progbits
ARM GAS  C:\Users\Thomas\AppData\Local\Temp\ccs3od7S.s 			page 6


  79              		.align	2
  80              		.global	P1_TIMER_GetVector
  81              		.thumb
  82              		.thumb_func
  83              		.type	P1_TIMER_GetVector, %function
  84              	P1_TIMER_GetVector:
  85              	.LFB68:
 208:.\Generated_Source\PSoC5/P1_TIMER.c **** }
 209:.\Generated_Source\PSoC5/P1_TIMER.c **** 
 210:.\Generated_Source\PSoC5/P1_TIMER.c **** 
 211:.\Generated_Source\PSoC5/P1_TIMER.c **** /*******************************************************************************
 212:.\Generated_Source\PSoC5/P1_TIMER.c **** * Function Name: P1_TIMER_GetVector
 213:.\Generated_Source\PSoC5/P1_TIMER.c **** ********************************************************************************
 214:.\Generated_Source\PSoC5/P1_TIMER.c **** *
 215:.\Generated_Source\PSoC5/P1_TIMER.c **** * Summary:
 216:.\Generated_Source\PSoC5/P1_TIMER.c **** *   Gets the "address" of the current ISR vector for the Interrupt.
 217:.\Generated_Source\PSoC5/P1_TIMER.c **** *
 218:.\Generated_Source\PSoC5/P1_TIMER.c **** * Parameters:
 219:.\Generated_Source\PSoC5/P1_TIMER.c **** *   None
 220:.\Generated_Source\PSoC5/P1_TIMER.c **** *
 221:.\Generated_Source\PSoC5/P1_TIMER.c **** * Return:
 222:.\Generated_Source\PSoC5/P1_TIMER.c **** *   Address of the ISR in the interrupt vector table.
 223:.\Generated_Source\PSoC5/P1_TIMER.c **** *
 224:.\Generated_Source\PSoC5/P1_TIMER.c **** *******************************************************************************/
 225:.\Generated_Source\PSoC5/P1_TIMER.c **** cyisraddress P1_TIMER_GetVector(void)
 226:.\Generated_Source\PSoC5/P1_TIMER.c **** {
  86              		.loc 1 226 0
  87              		.cfi_startproc
  88              		@ args = 0, pretend = 0, frame = 0
  89              		@ frame_needed = 0, uses_anonymous_args = 0
  90              		@ link register save eliminated.
 227:.\Generated_Source\PSoC5/P1_TIMER.c ****     cyisraddress * ramVectorTable;
 228:.\Generated_Source\PSoC5/P1_TIMER.c **** 
 229:.\Generated_Source\PSoC5/P1_TIMER.c ****     ramVectorTable = (cyisraddress *) *CYINT_VECT_TABLE;
  91              		.loc 1 229 0
  92 0000 014B     		ldr	r3, .L9
  93 0002 1B68     		ldr	r3, [r3]
  94              	.LVL3:
 230:.\Generated_Source\PSoC5/P1_TIMER.c **** 
 231:.\Generated_Source\PSoC5/P1_TIMER.c ****     return ramVectorTable[CYINT_IRQ_BASE + (uint32)P1_TIMER__INTC_NUMBER];
 232:.\Generated_Source\PSoC5/P1_TIMER.c **** }
  95              		.loc 1 232 0
  96 0004 586C     		ldr	r0, [r3, #68]
  97 0006 7047     		bx	lr
  98              	.L10:
  99              		.align	2
 100              	.L9:
 101 0008 08ED00E0 		.word	-536810232
 102              		.cfi_endproc
 103              	.LFE68:
 104              		.size	P1_TIMER_GetVector, .-P1_TIMER_GetVector
 105              		.section	.text.P1_TIMER_SetPriority,"ax",%progbits
 106              		.align	2
 107              		.global	P1_TIMER_SetPriority
 108              		.thumb
 109              		.thumb_func
 110              		.type	P1_TIMER_SetPriority, %function
ARM GAS  C:\Users\Thomas\AppData\Local\Temp\ccs3od7S.s 			page 7


 111              	P1_TIMER_SetPriority:
 112              	.LFB69:
 233:.\Generated_Source\PSoC5/P1_TIMER.c **** 
 234:.\Generated_Source\PSoC5/P1_TIMER.c **** 
 235:.\Generated_Source\PSoC5/P1_TIMER.c **** /*******************************************************************************
 236:.\Generated_Source\PSoC5/P1_TIMER.c **** * Function Name: P1_TIMER_SetPriority
 237:.\Generated_Source\PSoC5/P1_TIMER.c **** ********************************************************************************
 238:.\Generated_Source\PSoC5/P1_TIMER.c **** *
 239:.\Generated_Source\PSoC5/P1_TIMER.c **** * Summary:
 240:.\Generated_Source\PSoC5/P1_TIMER.c **** *   Sets the Priority of the Interrupt. 
 241:.\Generated_Source\PSoC5/P1_TIMER.c **** *
 242:.\Generated_Source\PSoC5/P1_TIMER.c **** *   Note calling P1_TIMER_Start or P1_TIMER_StartEx will 
 243:.\Generated_Source\PSoC5/P1_TIMER.c **** *   override any effect this API would have had. This API should only be called
 244:.\Generated_Source\PSoC5/P1_TIMER.c **** *   after P1_TIMER_Start or P1_TIMER_StartEx has been called. 
 245:.\Generated_Source\PSoC5/P1_TIMER.c **** *   To set the initial priority for the component, use the Design-Wide Resources
 246:.\Generated_Source\PSoC5/P1_TIMER.c **** *   Interrupt Editor.
 247:.\Generated_Source\PSoC5/P1_TIMER.c **** *
 248:.\Generated_Source\PSoC5/P1_TIMER.c **** *   Note This API has no effect on Non-maskable interrupt NMI).
 249:.\Generated_Source\PSoC5/P1_TIMER.c **** *
 250:.\Generated_Source\PSoC5/P1_TIMER.c **** * Parameters:
 251:.\Generated_Source\PSoC5/P1_TIMER.c **** *   priority: Priority of the interrupt, 0 being the highest priority
 252:.\Generated_Source\PSoC5/P1_TIMER.c **** *             PSoC 3 and PSoC 5LP: Priority is from 0 to 7.
 253:.\Generated_Source\PSoC5/P1_TIMER.c **** *             PSoC 4: Priority is from 0 to 3.
 254:.\Generated_Source\PSoC5/P1_TIMER.c **** *
 255:.\Generated_Source\PSoC5/P1_TIMER.c **** * Return:
 256:.\Generated_Source\PSoC5/P1_TIMER.c **** *   None
 257:.\Generated_Source\PSoC5/P1_TIMER.c **** *
 258:.\Generated_Source\PSoC5/P1_TIMER.c **** *******************************************************************************/
 259:.\Generated_Source\PSoC5/P1_TIMER.c **** void P1_TIMER_SetPriority(uint8 priority)
 260:.\Generated_Source\PSoC5/P1_TIMER.c **** {
 113              		.loc 1 260 0
 114              		.cfi_startproc
 115              		@ args = 0, pretend = 0, frame = 0
 116              		@ frame_needed = 0, uses_anonymous_args = 0
 117              		@ link register save eliminated.
 118              	.LVL4:
 261:.\Generated_Source\PSoC5/P1_TIMER.c ****     *P1_TIMER_INTC_PRIOR = priority << 5;
 119              		.loc 1 261 0
 120 0000 4001     		lsls	r0, r0, #5
 121              	.LVL5:
 122 0002 C0B2     		uxtb	r0, r0
 123 0004 014B     		ldr	r3, .L12
 124 0006 1870     		strb	r0, [r3]
 125 0008 7047     		bx	lr
 126              	.L13:
 127 000a 00BF     		.align	2
 128              	.L12:
 129 000c 01E400E0 		.word	-536812543
 130              		.cfi_endproc
 131              	.LFE69:
 132              		.size	P1_TIMER_SetPriority, .-P1_TIMER_SetPriority
 133              		.section	.text.P1_TIMER_GetPriority,"ax",%progbits
 134              		.align	2
 135              		.global	P1_TIMER_GetPriority
 136              		.thumb
 137              		.thumb_func
 138              		.type	P1_TIMER_GetPriority, %function
ARM GAS  C:\Users\Thomas\AppData\Local\Temp\ccs3od7S.s 			page 8


 139              	P1_TIMER_GetPriority:
 140              	.LFB70:
 262:.\Generated_Source\PSoC5/P1_TIMER.c **** }
 263:.\Generated_Source\PSoC5/P1_TIMER.c **** 
 264:.\Generated_Source\PSoC5/P1_TIMER.c **** 
 265:.\Generated_Source\PSoC5/P1_TIMER.c **** /*******************************************************************************
 266:.\Generated_Source\PSoC5/P1_TIMER.c **** * Function Name: P1_TIMER_GetPriority
 267:.\Generated_Source\PSoC5/P1_TIMER.c **** ********************************************************************************
 268:.\Generated_Source\PSoC5/P1_TIMER.c **** *
 269:.\Generated_Source\PSoC5/P1_TIMER.c **** * Summary:
 270:.\Generated_Source\PSoC5/P1_TIMER.c **** *   Gets the Priority of the Interrupt.
 271:.\Generated_Source\PSoC5/P1_TIMER.c **** *
 272:.\Generated_Source\PSoC5/P1_TIMER.c **** * Parameters:
 273:.\Generated_Source\PSoC5/P1_TIMER.c **** *   None
 274:.\Generated_Source\PSoC5/P1_TIMER.c **** *
 275:.\Generated_Source\PSoC5/P1_TIMER.c **** * Return:
 276:.\Generated_Source\PSoC5/P1_TIMER.c **** *   Priority of the interrupt, 0 being the highest priority
 277:.\Generated_Source\PSoC5/P1_TIMER.c **** *    PSoC 3 and PSoC 5LP: Priority is from 0 to 7.
 278:.\Generated_Source\PSoC5/P1_TIMER.c **** *    PSoC 4: Priority is from 0 to 3.
 279:.\Generated_Source\PSoC5/P1_TIMER.c **** *
 280:.\Generated_Source\PSoC5/P1_TIMER.c **** *******************************************************************************/
 281:.\Generated_Source\PSoC5/P1_TIMER.c **** uint8 P1_TIMER_GetPriority(void)
 282:.\Generated_Source\PSoC5/P1_TIMER.c **** {
 141              		.loc 1 282 0
 142              		.cfi_startproc
 143              		@ args = 0, pretend = 0, frame = 0
 144              		@ frame_needed = 0, uses_anonymous_args = 0
 145              		@ link register save eliminated.
 283:.\Generated_Source\PSoC5/P1_TIMER.c ****     uint8 priority;
 284:.\Generated_Source\PSoC5/P1_TIMER.c **** 
 285:.\Generated_Source\PSoC5/P1_TIMER.c **** 
 286:.\Generated_Source\PSoC5/P1_TIMER.c ****     priority = *P1_TIMER_INTC_PRIOR >> 5;
 146              		.loc 1 286 0
 147 0000 014B     		ldr	r3, .L15
 148 0002 1878     		ldrb	r0, [r3]	@ zero_extendqisi2
 149              	.LVL6:
 287:.\Generated_Source\PSoC5/P1_TIMER.c **** 
 288:.\Generated_Source\PSoC5/P1_TIMER.c ****     return priority;
 289:.\Generated_Source\PSoC5/P1_TIMER.c **** }
 150              		.loc 1 289 0
 151 0004 4009     		lsrs	r0, r0, #5
 152              	.LVL7:
 153 0006 7047     		bx	lr
 154              	.L16:
 155              		.align	2
 156              	.L15:
 157 0008 01E400E0 		.word	-536812543
 158              		.cfi_endproc
 159              	.LFE70:
 160              		.size	P1_TIMER_GetPriority, .-P1_TIMER_GetPriority
 161              		.section	.text.P1_TIMER_Enable,"ax",%progbits
 162              		.align	2
 163              		.global	P1_TIMER_Enable
 164              		.thumb
 165              		.thumb_func
 166              		.type	P1_TIMER_Enable, %function
 167              	P1_TIMER_Enable:
ARM GAS  C:\Users\Thomas\AppData\Local\Temp\ccs3od7S.s 			page 9


 168              	.LFB71:
 290:.\Generated_Source\PSoC5/P1_TIMER.c **** 
 291:.\Generated_Source\PSoC5/P1_TIMER.c **** 
 292:.\Generated_Source\PSoC5/P1_TIMER.c **** /*******************************************************************************
 293:.\Generated_Source\PSoC5/P1_TIMER.c **** * Function Name: P1_TIMER_Enable
 294:.\Generated_Source\PSoC5/P1_TIMER.c **** ********************************************************************************
 295:.\Generated_Source\PSoC5/P1_TIMER.c **** *
 296:.\Generated_Source\PSoC5/P1_TIMER.c **** * Summary:
 297:.\Generated_Source\PSoC5/P1_TIMER.c **** *   Enables the interrupt to the interrupt controller. Do not call this function
 298:.\Generated_Source\PSoC5/P1_TIMER.c **** *   unless ISR_Start() has been called or the functionality of the ISR_Start() 
 299:.\Generated_Source\PSoC5/P1_TIMER.c **** *   function, which sets the vector and the priority, has been called.
 300:.\Generated_Source\PSoC5/P1_TIMER.c **** *
 301:.\Generated_Source\PSoC5/P1_TIMER.c **** * Parameters:
 302:.\Generated_Source\PSoC5/P1_TIMER.c **** *   None
 303:.\Generated_Source\PSoC5/P1_TIMER.c **** *
 304:.\Generated_Source\PSoC5/P1_TIMER.c **** * Return:
 305:.\Generated_Source\PSoC5/P1_TIMER.c **** *   None
 306:.\Generated_Source\PSoC5/P1_TIMER.c **** *
 307:.\Generated_Source\PSoC5/P1_TIMER.c **** *******************************************************************************/
 308:.\Generated_Source\PSoC5/P1_TIMER.c **** void P1_TIMER_Enable(void)
 309:.\Generated_Source\PSoC5/P1_TIMER.c **** {
 169              		.loc 1 309 0
 170              		.cfi_startproc
 171              		@ args = 0, pretend = 0, frame = 0
 172              		@ frame_needed = 0, uses_anonymous_args = 0
 173              		@ link register save eliminated.
 310:.\Generated_Source\PSoC5/P1_TIMER.c ****     /* Enable the general interrupt. */
 311:.\Generated_Source\PSoC5/P1_TIMER.c ****     *P1_TIMER_INTC_SET_EN = P1_TIMER__INTC_MASK;
 174              		.loc 1 311 0
 175 0000 0222     		movs	r2, #2
 176 0002 014B     		ldr	r3, .L18
 177 0004 1A60     		str	r2, [r3]
 178 0006 7047     		bx	lr
 179              	.L19:
 180              		.align	2
 181              	.L18:
 182 0008 00E100E0 		.word	-536813312
 183              		.cfi_endproc
 184              	.LFE71:
 185              		.size	P1_TIMER_Enable, .-P1_TIMER_Enable
 186              		.section	.text.P1_TIMER_GetState,"ax",%progbits
 187              		.align	2
 188              		.global	P1_TIMER_GetState
 189              		.thumb
 190              		.thumb_func
 191              		.type	P1_TIMER_GetState, %function
 192              	P1_TIMER_GetState:
 193              	.LFB72:
 312:.\Generated_Source\PSoC5/P1_TIMER.c **** }
 313:.\Generated_Source\PSoC5/P1_TIMER.c **** 
 314:.\Generated_Source\PSoC5/P1_TIMER.c **** 
 315:.\Generated_Source\PSoC5/P1_TIMER.c **** /*******************************************************************************
 316:.\Generated_Source\PSoC5/P1_TIMER.c **** * Function Name: P1_TIMER_GetState
 317:.\Generated_Source\PSoC5/P1_TIMER.c **** ********************************************************************************
 318:.\Generated_Source\PSoC5/P1_TIMER.c **** *
 319:.\Generated_Source\PSoC5/P1_TIMER.c **** * Summary:
 320:.\Generated_Source\PSoC5/P1_TIMER.c **** *   Gets the state (enabled, disabled) of the Interrupt.
ARM GAS  C:\Users\Thomas\AppData\Local\Temp\ccs3od7S.s 			page 10


 321:.\Generated_Source\PSoC5/P1_TIMER.c **** *
 322:.\Generated_Source\PSoC5/P1_TIMER.c **** * Parameters:
 323:.\Generated_Source\PSoC5/P1_TIMER.c **** *   None
 324:.\Generated_Source\PSoC5/P1_TIMER.c **** *
 325:.\Generated_Source\PSoC5/P1_TIMER.c **** * Return:
 326:.\Generated_Source\PSoC5/P1_TIMER.c **** *   1 if enabled, 0 if disabled.
 327:.\Generated_Source\PSoC5/P1_TIMER.c **** *
 328:.\Generated_Source\PSoC5/P1_TIMER.c **** *******************************************************************************/
 329:.\Generated_Source\PSoC5/P1_TIMER.c **** uint8 P1_TIMER_GetState(void)
 330:.\Generated_Source\PSoC5/P1_TIMER.c **** {
 194              		.loc 1 330 0
 195              		.cfi_startproc
 196              		@ args = 0, pretend = 0, frame = 0
 197              		@ frame_needed = 0, uses_anonymous_args = 0
 198              		@ link register save eliminated.
 331:.\Generated_Source\PSoC5/P1_TIMER.c ****     /* Get the state of the general interrupt. */
 332:.\Generated_Source\PSoC5/P1_TIMER.c ****     return ((*P1_TIMER_INTC_SET_EN & (uint32)P1_TIMER__INTC_MASK) != 0u) ? 1u:0u;
 199              		.loc 1 332 0
 200 0000 044B     		ldr	r3, .L23
 201 0002 1B68     		ldr	r3, [r3]
 202 0004 13F0020F 		tst	r3, #2
 203 0008 01D0     		beq	.L22
 204 000a 0120     		movs	r0, #1
 205 000c 7047     		bx	lr
 206              	.L22:
 207 000e 0020     		movs	r0, #0
 333:.\Generated_Source\PSoC5/P1_TIMER.c **** }
 208              		.loc 1 333 0
 209 0010 7047     		bx	lr
 210              	.L24:
 211 0012 00BF     		.align	2
 212              	.L23:
 213 0014 00E100E0 		.word	-536813312
 214              		.cfi_endproc
 215              	.LFE72:
 216              		.size	P1_TIMER_GetState, .-P1_TIMER_GetState
 217              		.section	.text.P1_TIMER_Disable,"ax",%progbits
 218              		.align	2
 219              		.global	P1_TIMER_Disable
 220              		.thumb
 221              		.thumb_func
 222              		.type	P1_TIMER_Disable, %function
 223              	P1_TIMER_Disable:
 224              	.LFB73:
 334:.\Generated_Source\PSoC5/P1_TIMER.c **** 
 335:.\Generated_Source\PSoC5/P1_TIMER.c **** 
 336:.\Generated_Source\PSoC5/P1_TIMER.c **** /*******************************************************************************
 337:.\Generated_Source\PSoC5/P1_TIMER.c **** * Function Name: P1_TIMER_Disable
 338:.\Generated_Source\PSoC5/P1_TIMER.c **** ********************************************************************************
 339:.\Generated_Source\PSoC5/P1_TIMER.c **** *
 340:.\Generated_Source\PSoC5/P1_TIMER.c **** * Summary:
 341:.\Generated_Source\PSoC5/P1_TIMER.c **** *   Disables the Interrupt in the interrupt controller.
 342:.\Generated_Source\PSoC5/P1_TIMER.c **** *
 343:.\Generated_Source\PSoC5/P1_TIMER.c **** * Parameters:
 344:.\Generated_Source\PSoC5/P1_TIMER.c **** *   None
 345:.\Generated_Source\PSoC5/P1_TIMER.c **** *
 346:.\Generated_Source\PSoC5/P1_TIMER.c **** * Return:
ARM GAS  C:\Users\Thomas\AppData\Local\Temp\ccs3od7S.s 			page 11


 347:.\Generated_Source\PSoC5/P1_TIMER.c **** *   None
 348:.\Generated_Source\PSoC5/P1_TIMER.c **** *
 349:.\Generated_Source\PSoC5/P1_TIMER.c **** *******************************************************************************/
 350:.\Generated_Source\PSoC5/P1_TIMER.c **** void P1_TIMER_Disable(void)
 351:.\Generated_Source\PSoC5/P1_TIMER.c **** {
 225              		.loc 1 351 0
 226              		.cfi_startproc
 227              		@ args = 0, pretend = 0, frame = 0
 228              		@ frame_needed = 0, uses_anonymous_args = 0
 229              		@ link register save eliminated.
 352:.\Generated_Source\PSoC5/P1_TIMER.c ****     /* Disable the general interrupt. */
 353:.\Generated_Source\PSoC5/P1_TIMER.c ****     *P1_TIMER_INTC_CLR_EN = P1_TIMER__INTC_MASK;
 230              		.loc 1 353 0
 231 0000 0222     		movs	r2, #2
 232 0002 014B     		ldr	r3, .L26
 233 0004 1A60     		str	r2, [r3]
 234 0006 7047     		bx	lr
 235              	.L27:
 236              		.align	2
 237              	.L26:
 238 0008 80E100E0 		.word	-536813184
 239              		.cfi_endproc
 240              	.LFE73:
 241              		.size	P1_TIMER_Disable, .-P1_TIMER_Disable
 242              		.section	.text.P1_TIMER_Start,"ax",%progbits
 243              		.align	2
 244              		.global	P1_TIMER_Start
 245              		.thumb
 246              		.thumb_func
 247              		.type	P1_TIMER_Start, %function
 248              	P1_TIMER_Start:
 249              	.LFB63:
  62:.\Generated_Source\PSoC5/P1_TIMER.c ****     /* For all we know the interrupt is active. */
 250              		.loc 1 62 0
 251              		.cfi_startproc
 252              		@ args = 0, pretend = 0, frame = 0
 253              		@ frame_needed = 0, uses_anonymous_args = 0
 254 0000 08B5     		push	{r3, lr}
 255              		.cfi_def_cfa_offset 8
 256              		.cfi_offset 3, -8
 257              		.cfi_offset 14, -4
  64:.\Generated_Source\PSoC5/P1_TIMER.c **** 
 258              		.loc 1 64 0
 259 0002 FFF7FEFF 		bl	P1_TIMER_Disable
 260              	.LVL8:
  67:.\Generated_Source\PSoC5/P1_TIMER.c **** 
 261              		.loc 1 67 0
 262 0006 0448     		ldr	r0, .L30
 263 0008 FFF7FEFF 		bl	P1_TIMER_SetVector
 264              	.LVL9:
  70:.\Generated_Source\PSoC5/P1_TIMER.c **** 
 265              		.loc 1 70 0
 266 000c 0720     		movs	r0, #7
 267 000e FFF7FEFF 		bl	P1_TIMER_SetPriority
 268              	.LVL10:
  73:.\Generated_Source\PSoC5/P1_TIMER.c **** }
 269              		.loc 1 73 0
ARM GAS  C:\Users\Thomas\AppData\Local\Temp\ccs3od7S.s 			page 12


 270 0012 FFF7FEFF 		bl	P1_TIMER_Enable
 271              	.LVL11:
 272 0016 08BD     		pop	{r3, pc}
 273              	.L31:
 274              		.align	2
 275              	.L30:
 276 0018 00000000 		.word	P1_TIMER_Interrupt
 277              		.cfi_endproc
 278              	.LFE63:
 279              		.size	P1_TIMER_Start, .-P1_TIMER_Start
 280              		.section	.text.P1_TIMER_StartEx,"ax",%progbits
 281              		.align	2
 282              		.global	P1_TIMER_StartEx
 283              		.thumb
 284              		.thumb_func
 285              		.type	P1_TIMER_StartEx, %function
 286              	P1_TIMER_StartEx:
 287              	.LFB64:
 105:.\Generated_Source\PSoC5/P1_TIMER.c ****     /* For all we know the interrupt is active. */
 288              		.loc 1 105 0
 289              		.cfi_startproc
 290              		@ args = 0, pretend = 0, frame = 0
 291              		@ frame_needed = 0, uses_anonymous_args = 0
 292              	.LVL12:
 293 0000 10B5     		push	{r4, lr}
 294              		.cfi_def_cfa_offset 8
 295              		.cfi_offset 4, -8
 296              		.cfi_offset 14, -4
 297 0002 0446     		mov	r4, r0
 107:.\Generated_Source\PSoC5/P1_TIMER.c **** 
 298              		.loc 1 107 0
 299 0004 FFF7FEFF 		bl	P1_TIMER_Disable
 300              	.LVL13:
 110:.\Generated_Source\PSoC5/P1_TIMER.c **** 
 301              		.loc 1 110 0
 302 0008 2046     		mov	r0, r4
 303 000a FFF7FEFF 		bl	P1_TIMER_SetVector
 304              	.LVL14:
 113:.\Generated_Source\PSoC5/P1_TIMER.c **** 
 305              		.loc 1 113 0
 306 000e 0720     		movs	r0, #7
 307 0010 FFF7FEFF 		bl	P1_TIMER_SetPriority
 308              	.LVL15:
 116:.\Generated_Source\PSoC5/P1_TIMER.c **** }
 309              		.loc 1 116 0
 310 0014 FFF7FEFF 		bl	P1_TIMER_Enable
 311              	.LVL16:
 312 0018 10BD     		pop	{r4, pc}
 313              		.cfi_endproc
 314              	.LFE64:
 315              		.size	P1_TIMER_StartEx, .-P1_TIMER_StartEx
 316 001a 00BF     		.section	.text.P1_TIMER_Stop,"ax",%progbits
 317              		.align	2
 318              		.global	P1_TIMER_Stop
 319              		.thumb
 320              		.thumb_func
 321              		.type	P1_TIMER_Stop, %function
ARM GAS  C:\Users\Thomas\AppData\Local\Temp\ccs3od7S.s 			page 13


 322              	P1_TIMER_Stop:
 323              	.LFB65:
 135:.\Generated_Source\PSoC5/P1_TIMER.c ****     /* Disable this interrupt. */
 324              		.loc 1 135 0
 325              		.cfi_startproc
 326              		@ args = 0, pretend = 0, frame = 0
 327              		@ frame_needed = 0, uses_anonymous_args = 0
 328 0000 08B5     		push	{r3, lr}
 329              		.cfi_def_cfa_offset 8
 330              		.cfi_offset 3, -8
 331              		.cfi_offset 14, -4
 137:.\Generated_Source\PSoC5/P1_TIMER.c **** 
 332              		.loc 1 137 0
 333 0002 FFF7FEFF 		bl	P1_TIMER_Disable
 334              	.LVL17:
 140:.\Generated_Source\PSoC5/P1_TIMER.c **** }
 335              		.loc 1 140 0
 336 0006 0248     		ldr	r0, .L36
 337 0008 FFF7FEFF 		bl	P1_TIMER_SetVector
 338              	.LVL18:
 339 000c 08BD     		pop	{r3, pc}
 340              	.L37:
 341 000e 00BF     		.align	2
 342              	.L36:
 343 0010 00000000 		.word	IntDefaultHandler
 344              		.cfi_endproc
 345              	.LFE65:
 346              		.size	P1_TIMER_Stop, .-P1_TIMER_Stop
 347              		.section	.text.P1_TIMER_SetPending,"ax",%progbits
 348              		.align	2
 349              		.global	P1_TIMER_SetPending
 350              		.thumb
 351              		.thumb_func
 352              		.type	P1_TIMER_SetPending, %function
 353              	P1_TIMER_SetPending:
 354              	.LFB74:
 354:.\Generated_Source\PSoC5/P1_TIMER.c **** }
 355:.\Generated_Source\PSoC5/P1_TIMER.c **** 
 356:.\Generated_Source\PSoC5/P1_TIMER.c **** 
 357:.\Generated_Source\PSoC5/P1_TIMER.c **** /*******************************************************************************
 358:.\Generated_Source\PSoC5/P1_TIMER.c **** * Function Name: P1_TIMER_SetPending
 359:.\Generated_Source\PSoC5/P1_TIMER.c **** ********************************************************************************
 360:.\Generated_Source\PSoC5/P1_TIMER.c **** *
 361:.\Generated_Source\PSoC5/P1_TIMER.c **** * Summary:
 362:.\Generated_Source\PSoC5/P1_TIMER.c **** *   Causes the Interrupt to enter the pending state, a software method of
 363:.\Generated_Source\PSoC5/P1_TIMER.c **** *   generating the interrupt.
 364:.\Generated_Source\PSoC5/P1_TIMER.c **** *
 365:.\Generated_Source\PSoC5/P1_TIMER.c **** * Parameters:
 366:.\Generated_Source\PSoC5/P1_TIMER.c **** *   None
 367:.\Generated_Source\PSoC5/P1_TIMER.c **** *
 368:.\Generated_Source\PSoC5/P1_TIMER.c **** * Return:
 369:.\Generated_Source\PSoC5/P1_TIMER.c **** *   None
 370:.\Generated_Source\PSoC5/P1_TIMER.c **** *
 371:.\Generated_Source\PSoC5/P1_TIMER.c **** * Side Effects:
 372:.\Generated_Source\PSoC5/P1_TIMER.c **** *   If interrupts are enabled and the interrupt is set up properly, the ISR is
 373:.\Generated_Source\PSoC5/P1_TIMER.c **** *   entered (depending on the priority of this interrupt and other pending 
 374:.\Generated_Source\PSoC5/P1_TIMER.c **** *   interrupts).
ARM GAS  C:\Users\Thomas\AppData\Local\Temp\ccs3od7S.s 			page 14


 375:.\Generated_Source\PSoC5/P1_TIMER.c **** *
 376:.\Generated_Source\PSoC5/P1_TIMER.c **** *******************************************************************************/
 377:.\Generated_Source\PSoC5/P1_TIMER.c **** void P1_TIMER_SetPending(void)
 378:.\Generated_Source\PSoC5/P1_TIMER.c **** {
 355              		.loc 1 378 0
 356              		.cfi_startproc
 357              		@ args = 0, pretend = 0, frame = 0
 358              		@ frame_needed = 0, uses_anonymous_args = 0
 359              		@ link register save eliminated.
 379:.\Generated_Source\PSoC5/P1_TIMER.c ****     *P1_TIMER_INTC_SET_PD = P1_TIMER__INTC_MASK;
 360              		.loc 1 379 0
 361 0000 0222     		movs	r2, #2
 362 0002 014B     		ldr	r3, .L39
 363 0004 1A60     		str	r2, [r3]
 364 0006 7047     		bx	lr
 365              	.L40:
 366              		.align	2
 367              	.L39:
 368 0008 00E200E0 		.word	-536813056
 369              		.cfi_endproc
 370              	.LFE74:
 371              		.size	P1_TIMER_SetPending, .-P1_TIMER_SetPending
 372              		.section	.text.P1_TIMER_ClearPending,"ax",%progbits
 373              		.align	2
 374              		.global	P1_TIMER_ClearPending
 375              		.thumb
 376              		.thumb_func
 377              		.type	P1_TIMER_ClearPending, %function
 378              	P1_TIMER_ClearPending:
 379              	.LFB75:
 380:.\Generated_Source\PSoC5/P1_TIMER.c **** }
 381:.\Generated_Source\PSoC5/P1_TIMER.c **** 
 382:.\Generated_Source\PSoC5/P1_TIMER.c **** 
 383:.\Generated_Source\PSoC5/P1_TIMER.c **** /*******************************************************************************
 384:.\Generated_Source\PSoC5/P1_TIMER.c **** * Function Name: P1_TIMER_ClearPending
 385:.\Generated_Source\PSoC5/P1_TIMER.c **** ********************************************************************************
 386:.\Generated_Source\PSoC5/P1_TIMER.c **** *
 387:.\Generated_Source\PSoC5/P1_TIMER.c **** * Summary:
 388:.\Generated_Source\PSoC5/P1_TIMER.c **** *   Clears a pending interrupt in the interrupt controller.
 389:.\Generated_Source\PSoC5/P1_TIMER.c **** *
 390:.\Generated_Source\PSoC5/P1_TIMER.c **** *   Note Some interrupt sources are clear-on-read and require the block 
 391:.\Generated_Source\PSoC5/P1_TIMER.c **** *   interrupt/status register to be read/cleared with the appropriate block API 
 392:.\Generated_Source\PSoC5/P1_TIMER.c **** *   (GPIO, UART, and so on). Otherwise the ISR will continue to remain in 
 393:.\Generated_Source\PSoC5/P1_TIMER.c **** *   pending state even though the interrupt itself is cleared using this API.
 394:.\Generated_Source\PSoC5/P1_TIMER.c **** *
 395:.\Generated_Source\PSoC5/P1_TIMER.c **** * Parameters:
 396:.\Generated_Source\PSoC5/P1_TIMER.c **** *   None
 397:.\Generated_Source\PSoC5/P1_TIMER.c **** *
 398:.\Generated_Source\PSoC5/P1_TIMER.c **** * Return:
 399:.\Generated_Source\PSoC5/P1_TIMER.c **** *   None
 400:.\Generated_Source\PSoC5/P1_TIMER.c **** *
 401:.\Generated_Source\PSoC5/P1_TIMER.c **** *******************************************************************************/
 402:.\Generated_Source\PSoC5/P1_TIMER.c **** void P1_TIMER_ClearPending(void)
 403:.\Generated_Source\PSoC5/P1_TIMER.c **** {
 380              		.loc 1 403 0
 381              		.cfi_startproc
 382              		@ args = 0, pretend = 0, frame = 0
ARM GAS  C:\Users\Thomas\AppData\Local\Temp\ccs3od7S.s 			page 15


 383              		@ frame_needed = 0, uses_anonymous_args = 0
 384              		@ link register save eliminated.
 404:.\Generated_Source\PSoC5/P1_TIMER.c ****     *P1_TIMER_INTC_CLR_PD = P1_TIMER__INTC_MASK;
 385              		.loc 1 404 0
 386 0000 0222     		movs	r2, #2
 387 0002 014B     		ldr	r3, .L42
 388 0004 1A60     		str	r2, [r3]
 389 0006 7047     		bx	lr
 390              	.L43:
 391              		.align	2
 392              	.L42:
 393 0008 80E200E0 		.word	-536812928
 394              		.cfi_endproc
 395              	.LFE75:
 396              		.size	P1_TIMER_ClearPending, .-P1_TIMER_ClearPending
 397              		.comm	ready,4,4
 398              		.comm	input,4096,4
 399              		.comm	data,2,2
 400              		.comm	buf_ptr,1,1
 401              		.comm	input_ptr,1,1
 402              		.comm	playing,4,4
 403              		.comm	sent,4,4
 404              		.text
 405              	.Letext0:
 406              		.file 2 "c:\\program files (x86)\\cypress\\psoc creator\\3.3\\psoc creator\\import\\gnu\\arm\\4.9.
 407              		.file 3 "c:\\program files (x86)\\cypress\\psoc creator\\3.3\\psoc creator\\import\\gnu\\arm\\4.9.
 408              		.file 4 "Generated_Source\\PSoC5/cytypes.h"
 409              		.file 5 "Generated_Source\\PSoC5/core_cm3.h"
 410              		.file 6 "./main.h"
 411              		.file 7 "Generated_Source\\PSoC5/Timer_1.h"