ARM GAS  C:\Users\Thomas\AppData\Local\Temp\ccFeFMwh.s 			page 1


   1              		.syntax unified
   2              		.cpu cortex-m3
   3              		.fpu softvfp
   4              		.eabi_attribute 20, 1
   5              		.eabi_attribute 21, 1
   6              		.eabi_attribute 23, 3
   7              		.eabi_attribute 24, 1
   8              		.eabi_attribute 25, 1
   9              		.eabi_attribute 26, 1
  10              		.eabi_attribute 30, 1
  11              		.eabi_attribute 34, 1
  12              		.eabi_attribute 18, 4
  13              		.thumb
  14              		.file	"P1_WinTimer.c"
  15              		.text
  16              	.Ltext0:
  17              		.cfi_sections	.debug_frame
  18              		.section	.text.P1_WinTimer_Enable,"ax",%progbits
  19              		.align	2
  20              		.global	P1_WinTimer_Enable
  21              		.thumb
  22              		.thumb_func
  23              		.type	P1_WinTimer_Enable, %function
  24              	P1_WinTimer_Enable:
  25              	.LFB1:
  26              		.file 1 ".\\Generated_Source\\PSoC5\\P1_WinTimer.c"
   1:.\Generated_Source\PSoC5/P1_WinTimer.c **** /*******************************************************************************
   2:.\Generated_Source\PSoC5/P1_WinTimer.c **** * File Name: P1_WinTimer.c
   3:.\Generated_Source\PSoC5/P1_WinTimer.c **** * Version 2.70
   4:.\Generated_Source\PSoC5/P1_WinTimer.c **** *
   5:.\Generated_Source\PSoC5/P1_WinTimer.c **** * Description:
   6:.\Generated_Source\PSoC5/P1_WinTimer.c **** *  The Timer component consists of a 8, 16, 24 or 32-bit timer with
   7:.\Generated_Source\PSoC5/P1_WinTimer.c **** *  a selectable period between 2 and 2^Width - 1.  The timer may free run
   8:.\Generated_Source\PSoC5/P1_WinTimer.c **** *  or be used as a capture timer as well.  The capture can be initiated
   9:.\Generated_Source\PSoC5/P1_WinTimer.c **** *  by a positive or negative edge signal as well as via software.
  10:.\Generated_Source\PSoC5/P1_WinTimer.c **** *  A trigger input can be programmed to enable the timer on rising edge
  11:.\Generated_Source\PSoC5/P1_WinTimer.c **** *  falling edge, either edge or continous run.
  12:.\Generated_Source\PSoC5/P1_WinTimer.c **** *  Interrupts may be generated due to a terminal count condition
  13:.\Generated_Source\PSoC5/P1_WinTimer.c **** *  or a capture event.
  14:.\Generated_Source\PSoC5/P1_WinTimer.c **** *
  15:.\Generated_Source\PSoC5/P1_WinTimer.c **** * Note:
  16:.\Generated_Source\PSoC5/P1_WinTimer.c **** *
  17:.\Generated_Source\PSoC5/P1_WinTimer.c **** ********************************************************************************
  18:.\Generated_Source\PSoC5/P1_WinTimer.c **** * Copyright 2008-2014, Cypress Semiconductor Corporation.  All rights reserved.
  19:.\Generated_Source\PSoC5/P1_WinTimer.c **** * You may use this file only in accordance with the license, terms, conditions,
  20:.\Generated_Source\PSoC5/P1_WinTimer.c **** * disclaimers, and limitations in the end user license agreement accompanying
  21:.\Generated_Source\PSoC5/P1_WinTimer.c **** * the software package with which this file was provided.
  22:.\Generated_Source\PSoC5/P1_WinTimer.c **** ********************************************************************************/
  23:.\Generated_Source\PSoC5/P1_WinTimer.c **** 
  24:.\Generated_Source\PSoC5/P1_WinTimer.c **** #include "P1_WinTimer.h"
  25:.\Generated_Source\PSoC5/P1_WinTimer.c **** 
  26:.\Generated_Source\PSoC5/P1_WinTimer.c **** uint8 P1_WinTimer_initVar = 0u;
  27:.\Generated_Source\PSoC5/P1_WinTimer.c **** 
  28:.\Generated_Source\PSoC5/P1_WinTimer.c **** 
  29:.\Generated_Source\PSoC5/P1_WinTimer.c **** /*******************************************************************************
  30:.\Generated_Source\PSoC5/P1_WinTimer.c **** * Function Name: P1_WinTimer_Init
  31:.\Generated_Source\PSoC5/P1_WinTimer.c **** ********************************************************************************
ARM GAS  C:\Users\Thomas\AppData\Local\Temp\ccFeFMwh.s 			page 2


  32:.\Generated_Source\PSoC5/P1_WinTimer.c **** *
  33:.\Generated_Source\PSoC5/P1_WinTimer.c **** * Summary:
  34:.\Generated_Source\PSoC5/P1_WinTimer.c **** *  Initialize to the schematic state
  35:.\Generated_Source\PSoC5/P1_WinTimer.c **** *
  36:.\Generated_Source\PSoC5/P1_WinTimer.c **** * Parameters:
  37:.\Generated_Source\PSoC5/P1_WinTimer.c **** *  void
  38:.\Generated_Source\PSoC5/P1_WinTimer.c **** *
  39:.\Generated_Source\PSoC5/P1_WinTimer.c **** * Return:
  40:.\Generated_Source\PSoC5/P1_WinTimer.c **** *  void
  41:.\Generated_Source\PSoC5/P1_WinTimer.c **** *
  42:.\Generated_Source\PSoC5/P1_WinTimer.c **** *******************************************************************************/
  43:.\Generated_Source\PSoC5/P1_WinTimer.c **** void P1_WinTimer_Init(void) 
  44:.\Generated_Source\PSoC5/P1_WinTimer.c **** {
  45:.\Generated_Source\PSoC5/P1_WinTimer.c ****     #if(!P1_WinTimer_UsingFixedFunction)
  46:.\Generated_Source\PSoC5/P1_WinTimer.c ****             /* Interrupt State Backup for Critical Region*/
  47:.\Generated_Source\PSoC5/P1_WinTimer.c ****             uint8 P1_WinTimer_interruptState;
  48:.\Generated_Source\PSoC5/P1_WinTimer.c ****     #endif /* Interrupt state back up for Fixed Function only */
  49:.\Generated_Source\PSoC5/P1_WinTimer.c **** 
  50:.\Generated_Source\PSoC5/P1_WinTimer.c ****     #if (P1_WinTimer_UsingFixedFunction)
  51:.\Generated_Source\PSoC5/P1_WinTimer.c ****         /* Clear all bits but the enable bit (if it's already set) for Timer operation */
  52:.\Generated_Source\PSoC5/P1_WinTimer.c ****         P1_WinTimer_CONTROL &= P1_WinTimer_CTRL_ENABLE;
  53:.\Generated_Source\PSoC5/P1_WinTimer.c **** 
  54:.\Generated_Source\PSoC5/P1_WinTimer.c ****         /* Clear the mode bits for continuous run mode */
  55:.\Generated_Source\PSoC5/P1_WinTimer.c ****         #if (CY_PSOC5A)
  56:.\Generated_Source\PSoC5/P1_WinTimer.c ****             P1_WinTimer_CONTROL2 &= ((uint8)(~P1_WinTimer_CTRL_MODE_MASK));
  57:.\Generated_Source\PSoC5/P1_WinTimer.c ****         #endif /* Clear bits in CONTROL2 only in PSOC5A */
  58:.\Generated_Source\PSoC5/P1_WinTimer.c **** 
  59:.\Generated_Source\PSoC5/P1_WinTimer.c ****         #if (CY_PSOC3 || CY_PSOC5LP)
  60:.\Generated_Source\PSoC5/P1_WinTimer.c ****             P1_WinTimer_CONTROL3 &= ((uint8)(~P1_WinTimer_CTRL_MODE_MASK));
  61:.\Generated_Source\PSoC5/P1_WinTimer.c ****         #endif /* CONTROL3 register exists only in PSoC3 OR PSoC5LP */
  62:.\Generated_Source\PSoC5/P1_WinTimer.c **** 
  63:.\Generated_Source\PSoC5/P1_WinTimer.c ****         /* Check if One Shot mode is enabled i.e. RunMode !=0*/
  64:.\Generated_Source\PSoC5/P1_WinTimer.c ****         #if (P1_WinTimer_RunModeUsed != 0x0u)
  65:.\Generated_Source\PSoC5/P1_WinTimer.c ****             /* Set 3rd bit of Control register to enable one shot mode */
  66:.\Generated_Source\PSoC5/P1_WinTimer.c ****             P1_WinTimer_CONTROL |= 0x04u;
  67:.\Generated_Source\PSoC5/P1_WinTimer.c ****         #endif /* One Shot enabled only when RunModeUsed is not Continuous*/
  68:.\Generated_Source\PSoC5/P1_WinTimer.c **** 
  69:.\Generated_Source\PSoC5/P1_WinTimer.c ****         #if (P1_WinTimer_RunModeUsed == 2)
  70:.\Generated_Source\PSoC5/P1_WinTimer.c ****             #if (CY_PSOC5A)
  71:.\Generated_Source\PSoC5/P1_WinTimer.c ****                 /* Set last 2 bits of control2 register if one shot(halt on
  72:.\Generated_Source\PSoC5/P1_WinTimer.c ****                 interrupt) is enabled*/
  73:.\Generated_Source\PSoC5/P1_WinTimer.c ****                 P1_WinTimer_CONTROL2 |= 0x03u;
  74:.\Generated_Source\PSoC5/P1_WinTimer.c ****             #endif /* Set One-Shot Halt on Interrupt bit in CONTROL2 for PSoC5A */
  75:.\Generated_Source\PSoC5/P1_WinTimer.c **** 
  76:.\Generated_Source\PSoC5/P1_WinTimer.c ****             #if (CY_PSOC3 || CY_PSOC5LP)
  77:.\Generated_Source\PSoC5/P1_WinTimer.c ****                 /* Set last 2 bits of control3 register if one shot(halt on
  78:.\Generated_Source\PSoC5/P1_WinTimer.c ****                 interrupt) is enabled*/
  79:.\Generated_Source\PSoC5/P1_WinTimer.c ****                 P1_WinTimer_CONTROL3 |= 0x03u;
  80:.\Generated_Source\PSoC5/P1_WinTimer.c ****             #endif /* Set One-Shot Halt on Interrupt bit in CONTROL3 for PSoC3 or PSoC5LP */
  81:.\Generated_Source\PSoC5/P1_WinTimer.c **** 
  82:.\Generated_Source\PSoC5/P1_WinTimer.c ****         #endif /* Remove section if One Shot Halt on Interrupt is not enabled */
  83:.\Generated_Source\PSoC5/P1_WinTimer.c **** 
  84:.\Generated_Source\PSoC5/P1_WinTimer.c ****         #if (P1_WinTimer_UsingHWEnable != 0)
  85:.\Generated_Source\PSoC5/P1_WinTimer.c ****             #if (CY_PSOC5A)
  86:.\Generated_Source\PSoC5/P1_WinTimer.c ****                 /* Set the default Run Mode of the Timer to Continuous */
  87:.\Generated_Source\PSoC5/P1_WinTimer.c ****                 P1_WinTimer_CONTROL2 |= P1_WinTimer_CTRL_MODE_PULSEWIDTH;
  88:.\Generated_Source\PSoC5/P1_WinTimer.c ****             #endif /* Set Continuous Run Mode in CONTROL2 for PSoC5A */
ARM GAS  C:\Users\Thomas\AppData\Local\Temp\ccFeFMwh.s 			page 3


  89:.\Generated_Source\PSoC5/P1_WinTimer.c **** 
  90:.\Generated_Source\PSoC5/P1_WinTimer.c ****             #if (CY_PSOC3 || CY_PSOC5LP)
  91:.\Generated_Source\PSoC5/P1_WinTimer.c ****                 /* Clear and Set ROD and COD bits of CFG2 register */
  92:.\Generated_Source\PSoC5/P1_WinTimer.c ****                 P1_WinTimer_CONTROL3 &= ((uint8)(~P1_WinTimer_CTRL_RCOD_MASK));
  93:.\Generated_Source\PSoC5/P1_WinTimer.c ****                 P1_WinTimer_CONTROL3 |= P1_WinTimer_CTRL_RCOD;
  94:.\Generated_Source\PSoC5/P1_WinTimer.c **** 
  95:.\Generated_Source\PSoC5/P1_WinTimer.c ****                 /* Clear and Enable the HW enable bit in CFG2 register */
  96:.\Generated_Source\PSoC5/P1_WinTimer.c ****                 P1_WinTimer_CONTROL3 &= ((uint8)(~P1_WinTimer_CTRL_ENBL_MASK));
  97:.\Generated_Source\PSoC5/P1_WinTimer.c ****                 P1_WinTimer_CONTROL3 |= P1_WinTimer_CTRL_ENBL;
  98:.\Generated_Source\PSoC5/P1_WinTimer.c **** 
  99:.\Generated_Source\PSoC5/P1_WinTimer.c ****                 /* Set the default Run Mode of the Timer to Continuous */
 100:.\Generated_Source\PSoC5/P1_WinTimer.c ****                 P1_WinTimer_CONTROL3 |= P1_WinTimer_CTRL_MODE_CONTINUOUS;
 101:.\Generated_Source\PSoC5/P1_WinTimer.c ****             #endif /* Set Continuous Run Mode in CONTROL3 for PSoC3ES3 or PSoC5A */
 102:.\Generated_Source\PSoC5/P1_WinTimer.c **** 
 103:.\Generated_Source\PSoC5/P1_WinTimer.c ****         #endif /* Configure Run Mode with hardware enable */
 104:.\Generated_Source\PSoC5/P1_WinTimer.c **** 
 105:.\Generated_Source\PSoC5/P1_WinTimer.c ****         /* Clear and Set SYNCTC and SYNCCMP bits of RT1 register */
 106:.\Generated_Source\PSoC5/P1_WinTimer.c ****         P1_WinTimer_RT1 &= ((uint8)(~P1_WinTimer_RT1_MASK));
 107:.\Generated_Source\PSoC5/P1_WinTimer.c ****         P1_WinTimer_RT1 |= P1_WinTimer_SYNC;
 108:.\Generated_Source\PSoC5/P1_WinTimer.c **** 
 109:.\Generated_Source\PSoC5/P1_WinTimer.c ****         /*Enable DSI Sync all all inputs of the Timer*/
 110:.\Generated_Source\PSoC5/P1_WinTimer.c ****         P1_WinTimer_RT1 &= ((uint8)(~P1_WinTimer_SYNCDSI_MASK));
 111:.\Generated_Source\PSoC5/P1_WinTimer.c ****         P1_WinTimer_RT1 |= P1_WinTimer_SYNCDSI_EN;
 112:.\Generated_Source\PSoC5/P1_WinTimer.c **** 
 113:.\Generated_Source\PSoC5/P1_WinTimer.c ****         /* Set the IRQ to use the status register interrupts */
 114:.\Generated_Source\PSoC5/P1_WinTimer.c ****         P1_WinTimer_CONTROL2 |= P1_WinTimer_CTRL2_IRQ_SEL;
 115:.\Generated_Source\PSoC5/P1_WinTimer.c ****     #endif /* Configuring registers of fixed function implementation */
 116:.\Generated_Source\PSoC5/P1_WinTimer.c **** 
 117:.\Generated_Source\PSoC5/P1_WinTimer.c ****     /* Set Initial values from Configuration */
 118:.\Generated_Source\PSoC5/P1_WinTimer.c ****     P1_WinTimer_WritePeriod(P1_WinTimer_INIT_PERIOD);
 119:.\Generated_Source\PSoC5/P1_WinTimer.c ****     P1_WinTimer_WriteCounter(P1_WinTimer_INIT_PERIOD);
 120:.\Generated_Source\PSoC5/P1_WinTimer.c **** 
 121:.\Generated_Source\PSoC5/P1_WinTimer.c ****     #if (P1_WinTimer_UsingHWCaptureCounter)/* Capture counter is enabled */
 122:.\Generated_Source\PSoC5/P1_WinTimer.c ****         P1_WinTimer_CAPTURE_COUNT_CTRL |= P1_WinTimer_CNTR_ENABLE;
 123:.\Generated_Source\PSoC5/P1_WinTimer.c ****         P1_WinTimer_SetCaptureCount(P1_WinTimer_INIT_CAPTURE_COUNT);
 124:.\Generated_Source\PSoC5/P1_WinTimer.c ****     #endif /* Configure capture counter value */
 125:.\Generated_Source\PSoC5/P1_WinTimer.c **** 
 126:.\Generated_Source\PSoC5/P1_WinTimer.c ****     #if (!P1_WinTimer_UsingFixedFunction)
 127:.\Generated_Source\PSoC5/P1_WinTimer.c ****         #if (P1_WinTimer_SoftwareCaptureMode)
 128:.\Generated_Source\PSoC5/P1_WinTimer.c ****             P1_WinTimer_SetCaptureMode(P1_WinTimer_INIT_CAPTURE_MODE);
 129:.\Generated_Source\PSoC5/P1_WinTimer.c ****         #endif /* Set Capture Mode for UDB implementation if capture mode is software controlled */
 130:.\Generated_Source\PSoC5/P1_WinTimer.c **** 
 131:.\Generated_Source\PSoC5/P1_WinTimer.c ****         #if (P1_WinTimer_SoftwareTriggerMode)
 132:.\Generated_Source\PSoC5/P1_WinTimer.c ****             #if (!P1_WinTimer_UDB_CONTROL_REG_REMOVED)
 133:.\Generated_Source\PSoC5/P1_WinTimer.c ****                 if (0u == (P1_WinTimer_CONTROL & P1_WinTimer__B_TIMER__TM_SOFTWARE))
 134:.\Generated_Source\PSoC5/P1_WinTimer.c ****                 {
 135:.\Generated_Source\PSoC5/P1_WinTimer.c ****                     P1_WinTimer_SetTriggerMode(P1_WinTimer_INIT_TRIGGER_MODE);
 136:.\Generated_Source\PSoC5/P1_WinTimer.c ****                 }
 137:.\Generated_Source\PSoC5/P1_WinTimer.c ****             #endif /* (!P1_WinTimer_UDB_CONTROL_REG_REMOVED) */
 138:.\Generated_Source\PSoC5/P1_WinTimer.c ****         #endif /* Set trigger mode for UDB Implementation if trigger mode is software controlled */
 139:.\Generated_Source\PSoC5/P1_WinTimer.c **** 
 140:.\Generated_Source\PSoC5/P1_WinTimer.c ****         /* CyEnterCriticalRegion and CyExitCriticalRegion are used to mark following region critica
 141:.\Generated_Source\PSoC5/P1_WinTimer.c ****         /* Enter Critical Region*/
 142:.\Generated_Source\PSoC5/P1_WinTimer.c ****         P1_WinTimer_interruptState = CyEnterCriticalSection();
 143:.\Generated_Source\PSoC5/P1_WinTimer.c **** 
 144:.\Generated_Source\PSoC5/P1_WinTimer.c ****         /* Use the interrupt output of the status register for IRQ output */
 145:.\Generated_Source\PSoC5/P1_WinTimer.c ****         P1_WinTimer_STATUS_AUX_CTRL |= P1_WinTimer_STATUS_ACTL_INT_EN_MASK;
ARM GAS  C:\Users\Thomas\AppData\Local\Temp\ccFeFMwh.s 			page 4


 146:.\Generated_Source\PSoC5/P1_WinTimer.c **** 
 147:.\Generated_Source\PSoC5/P1_WinTimer.c ****         /* Exit Critical Region*/
 148:.\Generated_Source\PSoC5/P1_WinTimer.c ****         CyExitCriticalSection(P1_WinTimer_interruptState);
 149:.\Generated_Source\PSoC5/P1_WinTimer.c **** 
 150:.\Generated_Source\PSoC5/P1_WinTimer.c ****         #if (P1_WinTimer_EnableTriggerMode)
 151:.\Generated_Source\PSoC5/P1_WinTimer.c ****             P1_WinTimer_EnableTrigger();
 152:.\Generated_Source\PSoC5/P1_WinTimer.c ****         #endif /* Set Trigger enable bit for UDB implementation in the control register*/
 153:.\Generated_Source\PSoC5/P1_WinTimer.c **** 		
 154:.\Generated_Source\PSoC5/P1_WinTimer.c **** 		
 155:.\Generated_Source\PSoC5/P1_WinTimer.c ****         #if (P1_WinTimer_InterruptOnCaptureCount && !P1_WinTimer_UDB_CONTROL_REG_REMOVED)
 156:.\Generated_Source\PSoC5/P1_WinTimer.c ****             P1_WinTimer_SetInterruptCount(P1_WinTimer_INIT_INT_CAPTURE_COUNT);
 157:.\Generated_Source\PSoC5/P1_WinTimer.c ****         #endif /* Set interrupt count in UDB implementation if interrupt count feature is checked.*
 158:.\Generated_Source\PSoC5/P1_WinTimer.c **** 
 159:.\Generated_Source\PSoC5/P1_WinTimer.c ****         P1_WinTimer_ClearFIFO();
 160:.\Generated_Source\PSoC5/P1_WinTimer.c ****     #endif /* Configure additional features of UDB implementation */
 161:.\Generated_Source\PSoC5/P1_WinTimer.c **** 
 162:.\Generated_Source\PSoC5/P1_WinTimer.c ****     P1_WinTimer_SetInterruptMode(P1_WinTimer_INIT_INTERRUPT_MODE);
 163:.\Generated_Source\PSoC5/P1_WinTimer.c **** }
 164:.\Generated_Source\PSoC5/P1_WinTimer.c **** 
 165:.\Generated_Source\PSoC5/P1_WinTimer.c **** 
 166:.\Generated_Source\PSoC5/P1_WinTimer.c **** /*******************************************************************************
 167:.\Generated_Source\PSoC5/P1_WinTimer.c **** * Function Name: P1_WinTimer_Enable
 168:.\Generated_Source\PSoC5/P1_WinTimer.c **** ********************************************************************************
 169:.\Generated_Source\PSoC5/P1_WinTimer.c **** *
 170:.\Generated_Source\PSoC5/P1_WinTimer.c **** * Summary:
 171:.\Generated_Source\PSoC5/P1_WinTimer.c **** *  Enable the Timer
 172:.\Generated_Source\PSoC5/P1_WinTimer.c **** *
 173:.\Generated_Source\PSoC5/P1_WinTimer.c **** * Parameters:
 174:.\Generated_Source\PSoC5/P1_WinTimer.c **** *  void
 175:.\Generated_Source\PSoC5/P1_WinTimer.c **** *
 176:.\Generated_Source\PSoC5/P1_WinTimer.c **** * Return:
 177:.\Generated_Source\PSoC5/P1_WinTimer.c **** *  void
 178:.\Generated_Source\PSoC5/P1_WinTimer.c **** *
 179:.\Generated_Source\PSoC5/P1_WinTimer.c **** *******************************************************************************/
 180:.\Generated_Source\PSoC5/P1_WinTimer.c **** void P1_WinTimer_Enable(void) 
 181:.\Generated_Source\PSoC5/P1_WinTimer.c **** {
  27              		.loc 1 181 0
  28              		.cfi_startproc
  29              		@ args = 0, pretend = 0, frame = 0
  30              		@ frame_needed = 0, uses_anonymous_args = 0
  31              		@ link register save eliminated.
 182:.\Generated_Source\PSoC5/P1_WinTimer.c ****     /* Globally Enable the Fixed Function Block chosen */
 183:.\Generated_Source\PSoC5/P1_WinTimer.c ****     #if (P1_WinTimer_UsingFixedFunction)
 184:.\Generated_Source\PSoC5/P1_WinTimer.c ****         P1_WinTimer_GLOBAL_ENABLE |= P1_WinTimer_BLOCK_EN_MASK;
 185:.\Generated_Source\PSoC5/P1_WinTimer.c ****         P1_WinTimer_GLOBAL_STBY_ENABLE |= P1_WinTimer_BLOCK_STBY_EN_MASK;
 186:.\Generated_Source\PSoC5/P1_WinTimer.c ****     #endif /* Set Enable bit for enabling Fixed function timer*/
 187:.\Generated_Source\PSoC5/P1_WinTimer.c **** 
 188:.\Generated_Source\PSoC5/P1_WinTimer.c ****     /* Remove assignment if control register is removed */
 189:.\Generated_Source\PSoC5/P1_WinTimer.c ****     #if (!P1_WinTimer_UDB_CONTROL_REG_REMOVED || P1_WinTimer_UsingFixedFunction)
 190:.\Generated_Source\PSoC5/P1_WinTimer.c ****         P1_WinTimer_CONTROL |= P1_WinTimer_CTRL_ENABLE;
  32              		.loc 1 190 0
  33 0000 024A     		ldr	r2, .L2
  34 0002 1378     		ldrb	r3, [r2]	@ zero_extendqisi2
  35 0004 43F08003 		orr	r3, r3, #128
  36 0008 1370     		strb	r3, [r2]
  37 000a 7047     		bx	lr
  38              	.L3:
ARM GAS  C:\Users\Thomas\AppData\Local\Temp\ccFeFMwh.s 			page 5


  39              		.align	2
  40              	.L2:
  41 000c 79640040 		.word	1073767545
  42              		.cfi_endproc
  43              	.LFE1:
  44              		.size	P1_WinTimer_Enable, .-P1_WinTimer_Enable
  45              		.section	.text.P1_WinTimer_Stop,"ax",%progbits
  46              		.align	2
  47              		.global	P1_WinTimer_Stop
  48              		.thumb
  49              		.thumb_func
  50              		.type	P1_WinTimer_Stop, %function
  51              	P1_WinTimer_Stop:
  52              	.LFB3:
 191:.\Generated_Source\PSoC5/P1_WinTimer.c ****     #endif /* Remove assignment if control register is removed */
 192:.\Generated_Source\PSoC5/P1_WinTimer.c **** }
 193:.\Generated_Source\PSoC5/P1_WinTimer.c **** 
 194:.\Generated_Source\PSoC5/P1_WinTimer.c **** 
 195:.\Generated_Source\PSoC5/P1_WinTimer.c **** /*******************************************************************************
 196:.\Generated_Source\PSoC5/P1_WinTimer.c **** * Function Name: P1_WinTimer_Start
 197:.\Generated_Source\PSoC5/P1_WinTimer.c **** ********************************************************************************
 198:.\Generated_Source\PSoC5/P1_WinTimer.c **** *
 199:.\Generated_Source\PSoC5/P1_WinTimer.c **** * Summary:
 200:.\Generated_Source\PSoC5/P1_WinTimer.c **** *  The start function initializes the timer with the default values, the
 201:.\Generated_Source\PSoC5/P1_WinTimer.c **** *  enables the timerto begin counting.  It does not enable interrupts,
 202:.\Generated_Source\PSoC5/P1_WinTimer.c **** *  the EnableInt command should be called if interrupt generation is required.
 203:.\Generated_Source\PSoC5/P1_WinTimer.c **** *
 204:.\Generated_Source\PSoC5/P1_WinTimer.c **** * Parameters:
 205:.\Generated_Source\PSoC5/P1_WinTimer.c **** *  void
 206:.\Generated_Source\PSoC5/P1_WinTimer.c **** *
 207:.\Generated_Source\PSoC5/P1_WinTimer.c **** * Return:
 208:.\Generated_Source\PSoC5/P1_WinTimer.c **** *  void
 209:.\Generated_Source\PSoC5/P1_WinTimer.c **** *
 210:.\Generated_Source\PSoC5/P1_WinTimer.c **** * Global variables:
 211:.\Generated_Source\PSoC5/P1_WinTimer.c **** *  P1_WinTimer_initVar: Is modified when this function is called for the
 212:.\Generated_Source\PSoC5/P1_WinTimer.c **** *   first time. Is used to ensure that initialization happens only once.
 213:.\Generated_Source\PSoC5/P1_WinTimer.c **** *
 214:.\Generated_Source\PSoC5/P1_WinTimer.c **** *******************************************************************************/
 215:.\Generated_Source\PSoC5/P1_WinTimer.c **** void P1_WinTimer_Start(void) 
 216:.\Generated_Source\PSoC5/P1_WinTimer.c **** {
 217:.\Generated_Source\PSoC5/P1_WinTimer.c ****     if(P1_WinTimer_initVar == 0u)
 218:.\Generated_Source\PSoC5/P1_WinTimer.c ****     {
 219:.\Generated_Source\PSoC5/P1_WinTimer.c ****         P1_WinTimer_Init();
 220:.\Generated_Source\PSoC5/P1_WinTimer.c **** 
 221:.\Generated_Source\PSoC5/P1_WinTimer.c ****         P1_WinTimer_initVar = 1u;   /* Clear this bit for Initialization */
 222:.\Generated_Source\PSoC5/P1_WinTimer.c ****     }
 223:.\Generated_Source\PSoC5/P1_WinTimer.c **** 
 224:.\Generated_Source\PSoC5/P1_WinTimer.c ****     /* Enable the Timer */
 225:.\Generated_Source\PSoC5/P1_WinTimer.c ****     P1_WinTimer_Enable();
 226:.\Generated_Source\PSoC5/P1_WinTimer.c **** }
 227:.\Generated_Source\PSoC5/P1_WinTimer.c **** 
 228:.\Generated_Source\PSoC5/P1_WinTimer.c **** 
 229:.\Generated_Source\PSoC5/P1_WinTimer.c **** /*******************************************************************************
 230:.\Generated_Source\PSoC5/P1_WinTimer.c **** * Function Name: P1_WinTimer_Stop
 231:.\Generated_Source\PSoC5/P1_WinTimer.c **** ********************************************************************************
 232:.\Generated_Source\PSoC5/P1_WinTimer.c **** *
 233:.\Generated_Source\PSoC5/P1_WinTimer.c **** * Summary:
ARM GAS  C:\Users\Thomas\AppData\Local\Temp\ccFeFMwh.s 			page 6


 234:.\Generated_Source\PSoC5/P1_WinTimer.c **** *  The stop function halts the timer, but does not change any modes or disable
 235:.\Generated_Source\PSoC5/P1_WinTimer.c **** *  interrupts.
 236:.\Generated_Source\PSoC5/P1_WinTimer.c **** *
 237:.\Generated_Source\PSoC5/P1_WinTimer.c **** * Parameters:
 238:.\Generated_Source\PSoC5/P1_WinTimer.c **** *  void
 239:.\Generated_Source\PSoC5/P1_WinTimer.c **** *
 240:.\Generated_Source\PSoC5/P1_WinTimer.c **** * Return:
 241:.\Generated_Source\PSoC5/P1_WinTimer.c **** *  void
 242:.\Generated_Source\PSoC5/P1_WinTimer.c **** *
 243:.\Generated_Source\PSoC5/P1_WinTimer.c **** * Side Effects: If the Enable mode is set to Hardware only then this function
 244:.\Generated_Source\PSoC5/P1_WinTimer.c **** *               has no effect on the operation of the timer.
 245:.\Generated_Source\PSoC5/P1_WinTimer.c **** *
 246:.\Generated_Source\PSoC5/P1_WinTimer.c **** *******************************************************************************/
 247:.\Generated_Source\PSoC5/P1_WinTimer.c **** void P1_WinTimer_Stop(void) 
 248:.\Generated_Source\PSoC5/P1_WinTimer.c **** {
  53              		.loc 1 248 0
  54              		.cfi_startproc
  55              		@ args = 0, pretend = 0, frame = 0
  56              		@ frame_needed = 0, uses_anonymous_args = 0
  57              		@ link register save eliminated.
 249:.\Generated_Source\PSoC5/P1_WinTimer.c ****     /* Disable Timer */
 250:.\Generated_Source\PSoC5/P1_WinTimer.c ****     #if(!P1_WinTimer_UDB_CONTROL_REG_REMOVED || P1_WinTimer_UsingFixedFunction)
 251:.\Generated_Source\PSoC5/P1_WinTimer.c ****         P1_WinTimer_CONTROL &= ((uint8)(~P1_WinTimer_CTRL_ENABLE));
  58              		.loc 1 251 0
  59 0000 024A     		ldr	r2, .L5
  60 0002 1378     		ldrb	r3, [r2]	@ zero_extendqisi2
  61 0004 03F07F03 		and	r3, r3, #127
  62 0008 1370     		strb	r3, [r2]
  63 000a 7047     		bx	lr
  64              	.L6:
  65              		.align	2
  66              	.L5:
  67 000c 79640040 		.word	1073767545
  68              		.cfi_endproc
  69              	.LFE3:
  70              		.size	P1_WinTimer_Stop, .-P1_WinTimer_Stop
  71              		.section	.text.P1_WinTimer_SetInterruptMode,"ax",%progbits
  72              		.align	2
  73              		.global	P1_WinTimer_SetInterruptMode
  74              		.thumb
  75              		.thumb_func
  76              		.type	P1_WinTimer_SetInterruptMode, %function
  77              	P1_WinTimer_SetInterruptMode:
  78              	.LFB4:
 252:.\Generated_Source\PSoC5/P1_WinTimer.c ****     #endif /* Remove assignment if control register is removed */
 253:.\Generated_Source\PSoC5/P1_WinTimer.c **** 
 254:.\Generated_Source\PSoC5/P1_WinTimer.c ****     /* Globally disable the Fixed Function Block chosen */
 255:.\Generated_Source\PSoC5/P1_WinTimer.c ****     #if (P1_WinTimer_UsingFixedFunction)
 256:.\Generated_Source\PSoC5/P1_WinTimer.c ****         P1_WinTimer_GLOBAL_ENABLE &= ((uint8)(~P1_WinTimer_BLOCK_EN_MASK));
 257:.\Generated_Source\PSoC5/P1_WinTimer.c ****         P1_WinTimer_GLOBAL_STBY_ENABLE &= ((uint8)(~P1_WinTimer_BLOCK_STBY_EN_MASK));
 258:.\Generated_Source\PSoC5/P1_WinTimer.c ****     #endif /* Disable global enable for the Timer Fixed function block to stop the Timer*/
 259:.\Generated_Source\PSoC5/P1_WinTimer.c **** }
 260:.\Generated_Source\PSoC5/P1_WinTimer.c **** 
 261:.\Generated_Source\PSoC5/P1_WinTimer.c **** 
 262:.\Generated_Source\PSoC5/P1_WinTimer.c **** /*******************************************************************************
 263:.\Generated_Source\PSoC5/P1_WinTimer.c **** * Function Name: P1_WinTimer_SetInterruptMode
 264:.\Generated_Source\PSoC5/P1_WinTimer.c **** ********************************************************************************
ARM GAS  C:\Users\Thomas\AppData\Local\Temp\ccFeFMwh.s 			page 7


 265:.\Generated_Source\PSoC5/P1_WinTimer.c **** *
 266:.\Generated_Source\PSoC5/P1_WinTimer.c **** * Summary:
 267:.\Generated_Source\PSoC5/P1_WinTimer.c **** *  This function selects which of the interrupt inputs may cause an interrupt.
 268:.\Generated_Source\PSoC5/P1_WinTimer.c **** *  The twosources are caputure and terminal.  One, both or neither may
 269:.\Generated_Source\PSoC5/P1_WinTimer.c **** *  be selected.
 270:.\Generated_Source\PSoC5/P1_WinTimer.c **** *
 271:.\Generated_Source\PSoC5/P1_WinTimer.c **** * Parameters:
 272:.\Generated_Source\PSoC5/P1_WinTimer.c **** *  interruptMode:   This parameter is used to enable interrups on either/or
 273:.\Generated_Source\PSoC5/P1_WinTimer.c **** *                   terminal count or capture.
 274:.\Generated_Source\PSoC5/P1_WinTimer.c **** *
 275:.\Generated_Source\PSoC5/P1_WinTimer.c **** * Return:
 276:.\Generated_Source\PSoC5/P1_WinTimer.c **** *  void
 277:.\Generated_Source\PSoC5/P1_WinTimer.c **** *
 278:.\Generated_Source\PSoC5/P1_WinTimer.c **** *******************************************************************************/
 279:.\Generated_Source\PSoC5/P1_WinTimer.c **** void P1_WinTimer_SetInterruptMode(uint8 interruptMode) 
 280:.\Generated_Source\PSoC5/P1_WinTimer.c **** {
  79              		.loc 1 280 0
  80              		.cfi_startproc
  81              		@ args = 0, pretend = 0, frame = 0
  82              		@ frame_needed = 0, uses_anonymous_args = 0
  83              		@ link register save eliminated.
  84              	.LVL0:
 281:.\Generated_Source\PSoC5/P1_WinTimer.c ****     P1_WinTimer_STATUS_MASK = interruptMode;
  85              		.loc 1 281 0
  86 0000 014B     		ldr	r3, .L8
  87 0002 1870     		strb	r0, [r3]
  88 0004 7047     		bx	lr
  89              	.L9:
  90 0006 00BF     		.align	2
  91              	.L8:
  92 0008 8A640040 		.word	1073767562
  93              		.cfi_endproc
  94              	.LFE4:
  95              		.size	P1_WinTimer_SetInterruptMode, .-P1_WinTimer_SetInterruptMode
  96              		.section	.text.P1_WinTimer_SoftwareCapture,"ax",%progbits
  97              		.align	2
  98              		.global	P1_WinTimer_SoftwareCapture
  99              		.thumb
 100              		.thumb_func
 101              		.type	P1_WinTimer_SoftwareCapture, %function
 102              	P1_WinTimer_SoftwareCapture:
 103              	.LFB5:
 282:.\Generated_Source\PSoC5/P1_WinTimer.c **** }
 283:.\Generated_Source\PSoC5/P1_WinTimer.c **** 
 284:.\Generated_Source\PSoC5/P1_WinTimer.c **** 
 285:.\Generated_Source\PSoC5/P1_WinTimer.c **** /*******************************************************************************
 286:.\Generated_Source\PSoC5/P1_WinTimer.c **** * Function Name: P1_WinTimer_SoftwareCapture
 287:.\Generated_Source\PSoC5/P1_WinTimer.c **** ********************************************************************************
 288:.\Generated_Source\PSoC5/P1_WinTimer.c **** *
 289:.\Generated_Source\PSoC5/P1_WinTimer.c **** * Summary:
 290:.\Generated_Source\PSoC5/P1_WinTimer.c **** *  This function forces a capture independent of the capture signal.
 291:.\Generated_Source\PSoC5/P1_WinTimer.c **** *
 292:.\Generated_Source\PSoC5/P1_WinTimer.c **** * Parameters:
 293:.\Generated_Source\PSoC5/P1_WinTimer.c **** *  void
 294:.\Generated_Source\PSoC5/P1_WinTimer.c **** *
 295:.\Generated_Source\PSoC5/P1_WinTimer.c **** * Return:
 296:.\Generated_Source\PSoC5/P1_WinTimer.c **** *  void
ARM GAS  C:\Users\Thomas\AppData\Local\Temp\ccFeFMwh.s 			page 8


 297:.\Generated_Source\PSoC5/P1_WinTimer.c **** *
 298:.\Generated_Source\PSoC5/P1_WinTimer.c **** * Side Effects:
 299:.\Generated_Source\PSoC5/P1_WinTimer.c **** *  An existing hardware capture could be overwritten.
 300:.\Generated_Source\PSoC5/P1_WinTimer.c **** *
 301:.\Generated_Source\PSoC5/P1_WinTimer.c **** *******************************************************************************/
 302:.\Generated_Source\PSoC5/P1_WinTimer.c **** void P1_WinTimer_SoftwareCapture(void) 
 303:.\Generated_Source\PSoC5/P1_WinTimer.c **** {
 104              		.loc 1 303 0
 105              		.cfi_startproc
 106              		@ args = 0, pretend = 0, frame = 0
 107              		@ frame_needed = 0, uses_anonymous_args = 0
 108              		@ link register save eliminated.
 304:.\Generated_Source\PSoC5/P1_WinTimer.c ****     /* Generate a software capture by reading the counter register */
 305:.\Generated_Source\PSoC5/P1_WinTimer.c ****     #if(P1_WinTimer_UsingFixedFunction)
 306:.\Generated_Source\PSoC5/P1_WinTimer.c ****         (void)CY_GET_REG16(P1_WinTimer_COUNTER_LSB_PTR);
 307:.\Generated_Source\PSoC5/P1_WinTimer.c ****     #else
 308:.\Generated_Source\PSoC5/P1_WinTimer.c ****         (void)CY_GET_REG8(P1_WinTimer_COUNTER_LSB_PTR_8BIT);
 109              		.loc 1 308 0
 110 0000 014B     		ldr	r3, .L11
 111 0002 1B78     		ldrb	r3, [r3]	@ zero_extendqisi2
 112 0004 7047     		bx	lr
 113              	.L12:
 114 0006 00BF     		.align	2
 115              	.L11:
 116 0008 08640040 		.word	1073767432
 117              		.cfi_endproc
 118              	.LFE5:
 119              		.size	P1_WinTimer_SoftwareCapture, .-P1_WinTimer_SoftwareCapture
 120              		.section	.text.P1_WinTimer_ReadStatusRegister,"ax",%progbits
 121              		.align	2
 122              		.global	P1_WinTimer_ReadStatusRegister
 123              		.thumb
 124              		.thumb_func
 125              		.type	P1_WinTimer_ReadStatusRegister, %function
 126              	P1_WinTimer_ReadStatusRegister:
 127              	.LFB6:
 309:.\Generated_Source\PSoC5/P1_WinTimer.c ****     #endif/* (P1_WinTimer_UsingFixedFunction) */
 310:.\Generated_Source\PSoC5/P1_WinTimer.c ****     /* Capture Data is now in the FIFO */
 311:.\Generated_Source\PSoC5/P1_WinTimer.c **** }
 312:.\Generated_Source\PSoC5/P1_WinTimer.c **** 
 313:.\Generated_Source\PSoC5/P1_WinTimer.c **** 
 314:.\Generated_Source\PSoC5/P1_WinTimer.c **** /*******************************************************************************
 315:.\Generated_Source\PSoC5/P1_WinTimer.c **** * Function Name: P1_WinTimer_ReadStatusRegister
 316:.\Generated_Source\PSoC5/P1_WinTimer.c **** ********************************************************************************
 317:.\Generated_Source\PSoC5/P1_WinTimer.c **** *
 318:.\Generated_Source\PSoC5/P1_WinTimer.c **** * Summary:
 319:.\Generated_Source\PSoC5/P1_WinTimer.c **** *  Reads the status register and returns it's state. This function should use
 320:.\Generated_Source\PSoC5/P1_WinTimer.c **** *  defined types for the bit-field information as the bits in this register may
 321:.\Generated_Source\PSoC5/P1_WinTimer.c **** *  be permuteable.
 322:.\Generated_Source\PSoC5/P1_WinTimer.c **** *
 323:.\Generated_Source\PSoC5/P1_WinTimer.c **** * Parameters:
 324:.\Generated_Source\PSoC5/P1_WinTimer.c **** *  void
 325:.\Generated_Source\PSoC5/P1_WinTimer.c **** *
 326:.\Generated_Source\PSoC5/P1_WinTimer.c **** * Return:
 327:.\Generated_Source\PSoC5/P1_WinTimer.c **** *  The contents of the status register
 328:.\Generated_Source\PSoC5/P1_WinTimer.c **** *
 329:.\Generated_Source\PSoC5/P1_WinTimer.c **** * Side Effects:
ARM GAS  C:\Users\Thomas\AppData\Local\Temp\ccFeFMwh.s 			page 9


 330:.\Generated_Source\PSoC5/P1_WinTimer.c **** *  Status register bits may be clear on read.
 331:.\Generated_Source\PSoC5/P1_WinTimer.c **** *
 332:.\Generated_Source\PSoC5/P1_WinTimer.c **** *******************************************************************************/
 333:.\Generated_Source\PSoC5/P1_WinTimer.c **** uint8   P1_WinTimer_ReadStatusRegister(void) 
 334:.\Generated_Source\PSoC5/P1_WinTimer.c **** {
 128              		.loc 1 334 0
 129              		.cfi_startproc
 130              		@ args = 0, pretend = 0, frame = 0
 131              		@ frame_needed = 0, uses_anonymous_args = 0
 132              		@ link register save eliminated.
 335:.\Generated_Source\PSoC5/P1_WinTimer.c ****     return (P1_WinTimer_STATUS);
 133              		.loc 1 335 0
 134 0000 014B     		ldr	r3, .L14
 135 0002 1878     		ldrb	r0, [r3]	@ zero_extendqisi2
 336:.\Generated_Source\PSoC5/P1_WinTimer.c **** }
 136              		.loc 1 336 0
 137 0004 7047     		bx	lr
 138              	.L15:
 139 0006 00BF     		.align	2
 140              	.L14:
 141 0008 6A640040 		.word	1073767530
 142              		.cfi_endproc
 143              	.LFE6:
 144              		.size	P1_WinTimer_ReadStatusRegister, .-P1_WinTimer_ReadStatusRegister
 145              		.section	.text.P1_WinTimer_ReadControlRegister,"ax",%progbits
 146              		.align	2
 147              		.global	P1_WinTimer_ReadControlRegister
 148              		.thumb
 149              		.thumb_func
 150              		.type	P1_WinTimer_ReadControlRegister, %function
 151              	P1_WinTimer_ReadControlRegister:
 152              	.LFB7:
 337:.\Generated_Source\PSoC5/P1_WinTimer.c **** 
 338:.\Generated_Source\PSoC5/P1_WinTimer.c **** 
 339:.\Generated_Source\PSoC5/P1_WinTimer.c **** #if (!P1_WinTimer_UDB_CONTROL_REG_REMOVED) /* Remove API if control register is unused */
 340:.\Generated_Source\PSoC5/P1_WinTimer.c **** 
 341:.\Generated_Source\PSoC5/P1_WinTimer.c **** 
 342:.\Generated_Source\PSoC5/P1_WinTimer.c **** /*******************************************************************************
 343:.\Generated_Source\PSoC5/P1_WinTimer.c **** * Function Name: P1_WinTimer_ReadControlRegister
 344:.\Generated_Source\PSoC5/P1_WinTimer.c **** ********************************************************************************
 345:.\Generated_Source\PSoC5/P1_WinTimer.c **** *
 346:.\Generated_Source\PSoC5/P1_WinTimer.c **** * Summary:
 347:.\Generated_Source\PSoC5/P1_WinTimer.c **** *  Reads the control register and returns it's value.
 348:.\Generated_Source\PSoC5/P1_WinTimer.c **** *
 349:.\Generated_Source\PSoC5/P1_WinTimer.c **** * Parameters:
 350:.\Generated_Source\PSoC5/P1_WinTimer.c **** *  void
 351:.\Generated_Source\PSoC5/P1_WinTimer.c **** *
 352:.\Generated_Source\PSoC5/P1_WinTimer.c **** * Return:
 353:.\Generated_Source\PSoC5/P1_WinTimer.c **** *  The contents of the control register
 354:.\Generated_Source\PSoC5/P1_WinTimer.c **** *
 355:.\Generated_Source\PSoC5/P1_WinTimer.c **** *******************************************************************************/
 356:.\Generated_Source\PSoC5/P1_WinTimer.c **** uint8 P1_WinTimer_ReadControlRegister(void) 
 357:.\Generated_Source\PSoC5/P1_WinTimer.c **** {
 153              		.loc 1 357 0
 154              		.cfi_startproc
 155              		@ args = 0, pretend = 0, frame = 0
 156              		@ frame_needed = 0, uses_anonymous_args = 0
ARM GAS  C:\Users\Thomas\AppData\Local\Temp\ccFeFMwh.s 			page 10


 157              		@ link register save eliminated.
 358:.\Generated_Source\PSoC5/P1_WinTimer.c ****     #if (!P1_WinTimer_UDB_CONTROL_REG_REMOVED) 
 359:.\Generated_Source\PSoC5/P1_WinTimer.c ****         return ((uint8)P1_WinTimer_CONTROL);
 158              		.loc 1 359 0
 159 0000 014B     		ldr	r3, .L17
 160 0002 1878     		ldrb	r0, [r3]	@ zero_extendqisi2
 360:.\Generated_Source\PSoC5/P1_WinTimer.c ****     #else
 361:.\Generated_Source\PSoC5/P1_WinTimer.c ****         return (0);
 362:.\Generated_Source\PSoC5/P1_WinTimer.c ****     #endif /* (!P1_WinTimer_UDB_CONTROL_REG_REMOVED) */
 363:.\Generated_Source\PSoC5/P1_WinTimer.c **** }
 161              		.loc 1 363 0
 162 0004 7047     		bx	lr
 163              	.L18:
 164 0006 00BF     		.align	2
 165              	.L17:
 166 0008 79640040 		.word	1073767545
 167              		.cfi_endproc
 168              	.LFE7:
 169              		.size	P1_WinTimer_ReadControlRegister, .-P1_WinTimer_ReadControlRegister
 170              		.section	.text.P1_WinTimer_WriteControlRegister,"ax",%progbits
 171              		.align	2
 172              		.global	P1_WinTimer_WriteControlRegister
 173              		.thumb
 174              		.thumb_func
 175              		.type	P1_WinTimer_WriteControlRegister, %function
 176              	P1_WinTimer_WriteControlRegister:
 177              	.LFB8:
 364:.\Generated_Source\PSoC5/P1_WinTimer.c **** 
 365:.\Generated_Source\PSoC5/P1_WinTimer.c **** 
 366:.\Generated_Source\PSoC5/P1_WinTimer.c **** /*******************************************************************************
 367:.\Generated_Source\PSoC5/P1_WinTimer.c **** * Function Name: P1_WinTimer_WriteControlRegister
 368:.\Generated_Source\PSoC5/P1_WinTimer.c **** ********************************************************************************
 369:.\Generated_Source\PSoC5/P1_WinTimer.c **** *
 370:.\Generated_Source\PSoC5/P1_WinTimer.c **** * Summary:
 371:.\Generated_Source\PSoC5/P1_WinTimer.c **** *  Sets the bit-field of the control register.
 372:.\Generated_Source\PSoC5/P1_WinTimer.c **** *
 373:.\Generated_Source\PSoC5/P1_WinTimer.c **** * Parameters:
 374:.\Generated_Source\PSoC5/P1_WinTimer.c **** *  control: The contents of the control register
 375:.\Generated_Source\PSoC5/P1_WinTimer.c **** *
 376:.\Generated_Source\PSoC5/P1_WinTimer.c **** * Return:
 377:.\Generated_Source\PSoC5/P1_WinTimer.c **** *
 378:.\Generated_Source\PSoC5/P1_WinTimer.c **** *******************************************************************************/
 379:.\Generated_Source\PSoC5/P1_WinTimer.c **** void P1_WinTimer_WriteControlRegister(uint8 control) 
 380:.\Generated_Source\PSoC5/P1_WinTimer.c **** {
 178              		.loc 1 380 0
 179              		.cfi_startproc
 180              		@ args = 0, pretend = 0, frame = 0
 181              		@ frame_needed = 0, uses_anonymous_args = 0
 182              		@ link register save eliminated.
 183              	.LVL1:
 381:.\Generated_Source\PSoC5/P1_WinTimer.c ****     #if (!P1_WinTimer_UDB_CONTROL_REG_REMOVED) 
 382:.\Generated_Source\PSoC5/P1_WinTimer.c ****         P1_WinTimer_CONTROL = control;
 184              		.loc 1 382 0
 185 0000 014B     		ldr	r3, .L20
 186 0002 1870     		strb	r0, [r3]
 187 0004 7047     		bx	lr
 188              	.L21:
ARM GAS  C:\Users\Thomas\AppData\Local\Temp\ccFeFMwh.s 			page 11


 189 0006 00BF     		.align	2
 190              	.L20:
 191 0008 79640040 		.word	1073767545
 192              		.cfi_endproc
 193              	.LFE8:
 194              		.size	P1_WinTimer_WriteControlRegister, .-P1_WinTimer_WriteControlRegister
 195              		.section	.text.P1_WinTimer_ReadPeriod,"ax",%progbits
 196              		.align	2
 197              		.global	P1_WinTimer_ReadPeriod
 198              		.thumb
 199              		.thumb_func
 200              		.type	P1_WinTimer_ReadPeriod, %function
 201              	P1_WinTimer_ReadPeriod:
 202              	.LFB9:
 383:.\Generated_Source\PSoC5/P1_WinTimer.c ****     #else
 384:.\Generated_Source\PSoC5/P1_WinTimer.c ****         control = 0u;
 385:.\Generated_Source\PSoC5/P1_WinTimer.c ****     #endif /* (!P1_WinTimer_UDB_CONTROL_REG_REMOVED) */
 386:.\Generated_Source\PSoC5/P1_WinTimer.c **** }
 387:.\Generated_Source\PSoC5/P1_WinTimer.c **** 
 388:.\Generated_Source\PSoC5/P1_WinTimer.c **** #endif /* Remove API if control register is unused */
 389:.\Generated_Source\PSoC5/P1_WinTimer.c **** 
 390:.\Generated_Source\PSoC5/P1_WinTimer.c **** 
 391:.\Generated_Source\PSoC5/P1_WinTimer.c **** /*******************************************************************************
 392:.\Generated_Source\PSoC5/P1_WinTimer.c **** * Function Name: P1_WinTimer_ReadPeriod
 393:.\Generated_Source\PSoC5/P1_WinTimer.c **** ********************************************************************************
 394:.\Generated_Source\PSoC5/P1_WinTimer.c **** *
 395:.\Generated_Source\PSoC5/P1_WinTimer.c **** * Summary:
 396:.\Generated_Source\PSoC5/P1_WinTimer.c **** *  This function returns the current value of the Period.
 397:.\Generated_Source\PSoC5/P1_WinTimer.c **** *
 398:.\Generated_Source\PSoC5/P1_WinTimer.c **** * Parameters:
 399:.\Generated_Source\PSoC5/P1_WinTimer.c **** *  void
 400:.\Generated_Source\PSoC5/P1_WinTimer.c **** *
 401:.\Generated_Source\PSoC5/P1_WinTimer.c **** * Return:
 402:.\Generated_Source\PSoC5/P1_WinTimer.c **** *  The present value of the counter.
 403:.\Generated_Source\PSoC5/P1_WinTimer.c **** *
 404:.\Generated_Source\PSoC5/P1_WinTimer.c **** *******************************************************************************/
 405:.\Generated_Source\PSoC5/P1_WinTimer.c **** uint16 P1_WinTimer_ReadPeriod(void) 
 406:.\Generated_Source\PSoC5/P1_WinTimer.c **** {
 203              		.loc 1 406 0
 204              		.cfi_startproc
 205              		@ args = 0, pretend = 0, frame = 0
 206              		@ frame_needed = 0, uses_anonymous_args = 0
 207              		@ link register save eliminated.
 407:.\Generated_Source\PSoC5/P1_WinTimer.c ****    #if(P1_WinTimer_UsingFixedFunction)
 408:.\Generated_Source\PSoC5/P1_WinTimer.c ****        return ((uint16)CY_GET_REG16(P1_WinTimer_PERIOD_LSB_PTR));
 409:.\Generated_Source\PSoC5/P1_WinTimer.c ****    #else
 410:.\Generated_Source\PSoC5/P1_WinTimer.c ****        return (CY_GET_REG16(P1_WinTimer_PERIOD_LSB_PTR));
 208              		.loc 1 410 0
 209 0000 014B     		ldr	r3, .L23
 210 0002 1888     		ldrh	r0, [r3]
 411:.\Generated_Source\PSoC5/P1_WinTimer.c ****    #endif /* (P1_WinTimer_UsingFixedFunction) */
 412:.\Generated_Source\PSoC5/P1_WinTimer.c **** }
 211              		.loc 1 412 0
 212 0004 80B2     		uxth	r0, r0
 213 0006 7047     		bx	lr
 214              	.L24:
 215              		.align	2
ARM GAS  C:\Users\Thomas\AppData\Local\Temp\ccFeFMwh.s 			page 12


 216              	.L23:
 217 0008 50680040 		.word	1073768528
 218              		.cfi_endproc
 219              	.LFE9:
 220              		.size	P1_WinTimer_ReadPeriod, .-P1_WinTimer_ReadPeriod
 221              		.section	.text.P1_WinTimer_WritePeriod,"ax",%progbits
 222              		.align	2
 223              		.global	P1_WinTimer_WritePeriod
 224              		.thumb
 225              		.thumb_func
 226              		.type	P1_WinTimer_WritePeriod, %function
 227              	P1_WinTimer_WritePeriod:
 228              	.LFB10:
 413:.\Generated_Source\PSoC5/P1_WinTimer.c **** 
 414:.\Generated_Source\PSoC5/P1_WinTimer.c **** 
 415:.\Generated_Source\PSoC5/P1_WinTimer.c **** /*******************************************************************************
 416:.\Generated_Source\PSoC5/P1_WinTimer.c **** * Function Name: P1_WinTimer_WritePeriod
 417:.\Generated_Source\PSoC5/P1_WinTimer.c **** ********************************************************************************
 418:.\Generated_Source\PSoC5/P1_WinTimer.c **** *
 419:.\Generated_Source\PSoC5/P1_WinTimer.c **** * Summary:
 420:.\Generated_Source\PSoC5/P1_WinTimer.c **** *  This function is used to change the period of the counter.  The new period
 421:.\Generated_Source\PSoC5/P1_WinTimer.c **** *  will be loaded the next time terminal count is detected.
 422:.\Generated_Source\PSoC5/P1_WinTimer.c **** *
 423:.\Generated_Source\PSoC5/P1_WinTimer.c **** * Parameters:
 424:.\Generated_Source\PSoC5/P1_WinTimer.c **** *  period: This value may be between 1 and (2^Resolution)-1.  A value of 0 will
 425:.\Generated_Source\PSoC5/P1_WinTimer.c **** *          result in the counter remaining at zero.
 426:.\Generated_Source\PSoC5/P1_WinTimer.c **** *
 427:.\Generated_Source\PSoC5/P1_WinTimer.c **** * Return:
 428:.\Generated_Source\PSoC5/P1_WinTimer.c **** *  void
 429:.\Generated_Source\PSoC5/P1_WinTimer.c **** *
 430:.\Generated_Source\PSoC5/P1_WinTimer.c **** *******************************************************************************/
 431:.\Generated_Source\PSoC5/P1_WinTimer.c **** void P1_WinTimer_WritePeriod(uint16 period) 
 432:.\Generated_Source\PSoC5/P1_WinTimer.c **** {
 229              		.loc 1 432 0
 230              		.cfi_startproc
 231              		@ args = 0, pretend = 0, frame = 0
 232              		@ frame_needed = 0, uses_anonymous_args = 0
 233              		@ link register save eliminated.
 234              	.LVL2:
 433:.\Generated_Source\PSoC5/P1_WinTimer.c ****     #if(P1_WinTimer_UsingFixedFunction)
 434:.\Generated_Source\PSoC5/P1_WinTimer.c ****         uint16 period_temp = (uint16)period;
 435:.\Generated_Source\PSoC5/P1_WinTimer.c ****         CY_SET_REG16(P1_WinTimer_PERIOD_LSB_PTR, period_temp);
 436:.\Generated_Source\PSoC5/P1_WinTimer.c ****     #else
 437:.\Generated_Source\PSoC5/P1_WinTimer.c ****         CY_SET_REG16(P1_WinTimer_PERIOD_LSB_PTR, period);
 235              		.loc 1 437 0
 236 0000 014B     		ldr	r3, .L26
 237 0002 1880     		strh	r0, [r3]	@ movhi
 238 0004 7047     		bx	lr
 239              	.L27:
 240 0006 00BF     		.align	2
 241              	.L26:
 242 0008 50680040 		.word	1073768528
 243              		.cfi_endproc
 244              	.LFE10:
 245              		.size	P1_WinTimer_WritePeriod, .-P1_WinTimer_WritePeriod
 246              		.section	.text.P1_WinTimer_ReadCapture,"ax",%progbits
 247              		.align	2
ARM GAS  C:\Users\Thomas\AppData\Local\Temp\ccFeFMwh.s 			page 13


 248              		.global	P1_WinTimer_ReadCapture
 249              		.thumb
 250              		.thumb_func
 251              		.type	P1_WinTimer_ReadCapture, %function
 252              	P1_WinTimer_ReadCapture:
 253              	.LFB11:
 438:.\Generated_Source\PSoC5/P1_WinTimer.c ****     #endif /*Write Period value with appropriate resolution suffix depending on UDB or fixed functi
 439:.\Generated_Source\PSoC5/P1_WinTimer.c **** }
 440:.\Generated_Source\PSoC5/P1_WinTimer.c **** 
 441:.\Generated_Source\PSoC5/P1_WinTimer.c **** 
 442:.\Generated_Source\PSoC5/P1_WinTimer.c **** /*******************************************************************************
 443:.\Generated_Source\PSoC5/P1_WinTimer.c **** * Function Name: P1_WinTimer_ReadCapture
 444:.\Generated_Source\PSoC5/P1_WinTimer.c **** ********************************************************************************
 445:.\Generated_Source\PSoC5/P1_WinTimer.c **** *
 446:.\Generated_Source\PSoC5/P1_WinTimer.c **** * Summary:
 447:.\Generated_Source\PSoC5/P1_WinTimer.c **** *  This function returns the last value captured.
 448:.\Generated_Source\PSoC5/P1_WinTimer.c **** *
 449:.\Generated_Source\PSoC5/P1_WinTimer.c **** * Parameters:
 450:.\Generated_Source\PSoC5/P1_WinTimer.c **** *  void
 451:.\Generated_Source\PSoC5/P1_WinTimer.c **** *
 452:.\Generated_Source\PSoC5/P1_WinTimer.c **** * Return:
 453:.\Generated_Source\PSoC5/P1_WinTimer.c **** *  Present Capture value.
 454:.\Generated_Source\PSoC5/P1_WinTimer.c **** *
 455:.\Generated_Source\PSoC5/P1_WinTimer.c **** *******************************************************************************/
 456:.\Generated_Source\PSoC5/P1_WinTimer.c **** uint16 P1_WinTimer_ReadCapture(void) 
 457:.\Generated_Source\PSoC5/P1_WinTimer.c **** {
 254              		.loc 1 457 0
 255              		.cfi_startproc
 256              		@ args = 0, pretend = 0, frame = 0
 257              		@ frame_needed = 0, uses_anonymous_args = 0
 258              		@ link register save eliminated.
 458:.\Generated_Source\PSoC5/P1_WinTimer.c ****    #if(P1_WinTimer_UsingFixedFunction)
 459:.\Generated_Source\PSoC5/P1_WinTimer.c ****        return ((uint16)CY_GET_REG16(P1_WinTimer_CAPTURE_LSB_PTR));
 460:.\Generated_Source\PSoC5/P1_WinTimer.c ****    #else
 461:.\Generated_Source\PSoC5/P1_WinTimer.c ****        return (CY_GET_REG16(P1_WinTimer_CAPTURE_LSB_PTR));
 259              		.loc 1 461 0
 260 0000 014B     		ldr	r3, .L29
 261 0002 1888     		ldrh	r0, [r3]
 462:.\Generated_Source\PSoC5/P1_WinTimer.c ****    #endif /* (P1_WinTimer_UsingFixedFunction) */
 463:.\Generated_Source\PSoC5/P1_WinTimer.c **** }
 262              		.loc 1 463 0
 263 0004 80B2     		uxth	r0, r0
 264 0006 7047     		bx	lr
 265              	.L30:
 266              		.align	2
 267              	.L29:
 268 0008 90680040 		.word	1073768592
 269              		.cfi_endproc
 270              	.LFE11:
 271              		.size	P1_WinTimer_ReadCapture, .-P1_WinTimer_ReadCapture
 272              		.section	.text.P1_WinTimer_WriteCounter,"ax",%progbits
 273              		.align	2
 274              		.global	P1_WinTimer_WriteCounter
 275              		.thumb
 276              		.thumb_func
 277              		.type	P1_WinTimer_WriteCounter, %function
 278              	P1_WinTimer_WriteCounter:
ARM GAS  C:\Users\Thomas\AppData\Local\Temp\ccFeFMwh.s 			page 14


 279              	.LFB12:
 464:.\Generated_Source\PSoC5/P1_WinTimer.c **** 
 465:.\Generated_Source\PSoC5/P1_WinTimer.c **** 
 466:.\Generated_Source\PSoC5/P1_WinTimer.c **** /*******************************************************************************
 467:.\Generated_Source\PSoC5/P1_WinTimer.c **** * Function Name: P1_WinTimer_WriteCounter
 468:.\Generated_Source\PSoC5/P1_WinTimer.c **** ********************************************************************************
 469:.\Generated_Source\PSoC5/P1_WinTimer.c **** *
 470:.\Generated_Source\PSoC5/P1_WinTimer.c **** * Summary:
 471:.\Generated_Source\PSoC5/P1_WinTimer.c **** *  This funtion is used to set the counter to a specific value
 472:.\Generated_Source\PSoC5/P1_WinTimer.c **** *
 473:.\Generated_Source\PSoC5/P1_WinTimer.c **** * Parameters:
 474:.\Generated_Source\PSoC5/P1_WinTimer.c **** *  counter:  New counter value.
 475:.\Generated_Source\PSoC5/P1_WinTimer.c **** *
 476:.\Generated_Source\PSoC5/P1_WinTimer.c **** * Return:
 477:.\Generated_Source\PSoC5/P1_WinTimer.c **** *  void
 478:.\Generated_Source\PSoC5/P1_WinTimer.c **** *
 479:.\Generated_Source\PSoC5/P1_WinTimer.c **** *******************************************************************************/
 480:.\Generated_Source\PSoC5/P1_WinTimer.c **** void P1_WinTimer_WriteCounter(uint16 counter) 
 481:.\Generated_Source\PSoC5/P1_WinTimer.c **** {
 280              		.loc 1 481 0
 281              		.cfi_startproc
 282              		@ args = 0, pretend = 0, frame = 0
 283              		@ frame_needed = 0, uses_anonymous_args = 0
 284              		@ link register save eliminated.
 285              	.LVL3:
 482:.\Generated_Source\PSoC5/P1_WinTimer.c ****    #if(P1_WinTimer_UsingFixedFunction)
 483:.\Generated_Source\PSoC5/P1_WinTimer.c ****         /* This functionality is removed until a FixedFunction HW update to
 484:.\Generated_Source\PSoC5/P1_WinTimer.c ****          * allow this register to be written
 485:.\Generated_Source\PSoC5/P1_WinTimer.c ****          */
 486:.\Generated_Source\PSoC5/P1_WinTimer.c ****         CY_SET_REG16(P1_WinTimer_COUNTER_LSB_PTR, (uint16)counter);
 487:.\Generated_Source\PSoC5/P1_WinTimer.c ****         
 488:.\Generated_Source\PSoC5/P1_WinTimer.c ****     #else
 489:.\Generated_Source\PSoC5/P1_WinTimer.c ****         CY_SET_REG16(P1_WinTimer_COUNTER_LSB_PTR, counter);
 286              		.loc 1 489 0
 287 0000 014B     		ldr	r3, .L32
 288 0002 1880     		strh	r0, [r3]	@ movhi
 289 0004 7047     		bx	lr
 290              	.L33:
 291 0006 00BF     		.align	2
 292              	.L32:
 293 0008 10680040 		.word	1073768464
 294              		.cfi_endproc
 295              	.LFE12:
 296              		.size	P1_WinTimer_WriteCounter, .-P1_WinTimer_WriteCounter
 297              		.section	.text.P1_WinTimer_ReadCounter,"ax",%progbits
 298              		.align	2
 299              		.global	P1_WinTimer_ReadCounter
 300              		.thumb
 301              		.thumb_func
 302              		.type	P1_WinTimer_ReadCounter, %function
 303              	P1_WinTimer_ReadCounter:
 304              	.LFB13:
 490:.\Generated_Source\PSoC5/P1_WinTimer.c ****     #endif /* Set Write Counter only for the UDB implementation (Write Counter not available in fix
 491:.\Generated_Source\PSoC5/P1_WinTimer.c **** }
 492:.\Generated_Source\PSoC5/P1_WinTimer.c **** 
 493:.\Generated_Source\PSoC5/P1_WinTimer.c **** 
 494:.\Generated_Source\PSoC5/P1_WinTimer.c **** /*******************************************************************************
ARM GAS  C:\Users\Thomas\AppData\Local\Temp\ccFeFMwh.s 			page 15


 495:.\Generated_Source\PSoC5/P1_WinTimer.c **** * Function Name: P1_WinTimer_ReadCounter
 496:.\Generated_Source\PSoC5/P1_WinTimer.c **** ********************************************************************************
 497:.\Generated_Source\PSoC5/P1_WinTimer.c **** *
 498:.\Generated_Source\PSoC5/P1_WinTimer.c **** * Summary:
 499:.\Generated_Source\PSoC5/P1_WinTimer.c **** *  This function returns the current counter value.
 500:.\Generated_Source\PSoC5/P1_WinTimer.c **** *
 501:.\Generated_Source\PSoC5/P1_WinTimer.c **** * Parameters:
 502:.\Generated_Source\PSoC5/P1_WinTimer.c **** *  void
 503:.\Generated_Source\PSoC5/P1_WinTimer.c **** *
 504:.\Generated_Source\PSoC5/P1_WinTimer.c **** * Return:
 505:.\Generated_Source\PSoC5/P1_WinTimer.c **** *  Present compare value.
 506:.\Generated_Source\PSoC5/P1_WinTimer.c **** *
 507:.\Generated_Source\PSoC5/P1_WinTimer.c **** *******************************************************************************/
 508:.\Generated_Source\PSoC5/P1_WinTimer.c **** uint16 P1_WinTimer_ReadCounter(void) 
 509:.\Generated_Source\PSoC5/P1_WinTimer.c **** {
 305              		.loc 1 509 0
 306              		.cfi_startproc
 307              		@ args = 0, pretend = 0, frame = 0
 308              		@ frame_needed = 0, uses_anonymous_args = 0
 309              		@ link register save eliminated.
 510:.\Generated_Source\PSoC5/P1_WinTimer.c ****     /* Force capture by reading Accumulator */
 511:.\Generated_Source\PSoC5/P1_WinTimer.c ****     /* Must first do a software capture to be able to read the counter */
 512:.\Generated_Source\PSoC5/P1_WinTimer.c ****     /* It is up to the user code to make sure there isn't already captured data in the FIFO */
 513:.\Generated_Source\PSoC5/P1_WinTimer.c ****     #if(P1_WinTimer_UsingFixedFunction)
 514:.\Generated_Source\PSoC5/P1_WinTimer.c ****         (void)CY_GET_REG16(P1_WinTimer_COUNTER_LSB_PTR);
 515:.\Generated_Source\PSoC5/P1_WinTimer.c ****     #else
 516:.\Generated_Source\PSoC5/P1_WinTimer.c ****         (void)CY_GET_REG8(P1_WinTimer_COUNTER_LSB_PTR_8BIT);
 310              		.loc 1 516 0
 311 0000 024B     		ldr	r3, .L35
 312 0002 1B78     		ldrb	r3, [r3]	@ zero_extendqisi2
 517:.\Generated_Source\PSoC5/P1_WinTimer.c ****     #endif/* (P1_WinTimer_UsingFixedFunction) */
 518:.\Generated_Source\PSoC5/P1_WinTimer.c **** 
 519:.\Generated_Source\PSoC5/P1_WinTimer.c ****     /* Read the data from the FIFO (or capture register for Fixed Function)*/
 520:.\Generated_Source\PSoC5/P1_WinTimer.c ****     #if(P1_WinTimer_UsingFixedFunction)
 521:.\Generated_Source\PSoC5/P1_WinTimer.c ****         return ((uint16)CY_GET_REG16(P1_WinTimer_CAPTURE_LSB_PTR));
 522:.\Generated_Source\PSoC5/P1_WinTimer.c ****     #else
 523:.\Generated_Source\PSoC5/P1_WinTimer.c ****         return (CY_GET_REG16(P1_WinTimer_CAPTURE_LSB_PTR));
 313              		.loc 1 523 0
 314 0004 024B     		ldr	r3, .L35+4
 315 0006 1888     		ldrh	r0, [r3]
 524:.\Generated_Source\PSoC5/P1_WinTimer.c ****     #endif /* (P1_WinTimer_UsingFixedFunction) */
 525:.\Generated_Source\PSoC5/P1_WinTimer.c **** }
 316              		.loc 1 525 0
 317 0008 80B2     		uxth	r0, r0
 318 000a 7047     		bx	lr
 319              	.L36:
 320              		.align	2
 321              	.L35:
 322 000c 08640040 		.word	1073767432
 323 0010 90680040 		.word	1073768592
 324              		.cfi_endproc
 325              	.LFE13:
 326              		.size	P1_WinTimer_ReadCounter, .-P1_WinTimer_ReadCounter
 327              		.section	.text.P1_WinTimer_ClearFIFO,"ax",%progbits
 328              		.align	2
 329              		.global	P1_WinTimer_ClearFIFO
 330              		.thumb
ARM GAS  C:\Users\Thomas\AppData\Local\Temp\ccFeFMwh.s 			page 16


 331              		.thumb_func
 332              		.type	P1_WinTimer_ClearFIFO, %function
 333              	P1_WinTimer_ClearFIFO:
 334              	.LFB14:
 526:.\Generated_Source\PSoC5/P1_WinTimer.c **** 
 527:.\Generated_Source\PSoC5/P1_WinTimer.c **** 
 528:.\Generated_Source\PSoC5/P1_WinTimer.c **** #if(!P1_WinTimer_UsingFixedFunction) /* UDB Specific Functions */
 529:.\Generated_Source\PSoC5/P1_WinTimer.c **** 
 530:.\Generated_Source\PSoC5/P1_WinTimer.c ****     
 531:.\Generated_Source\PSoC5/P1_WinTimer.c **** /*******************************************************************************
 532:.\Generated_Source\PSoC5/P1_WinTimer.c ****  * The functions below this point are only available using the UDB
 533:.\Generated_Source\PSoC5/P1_WinTimer.c ****  * implementation.  If a feature is selected, then the API is enabled.
 534:.\Generated_Source\PSoC5/P1_WinTimer.c ****  ******************************************************************************/
 535:.\Generated_Source\PSoC5/P1_WinTimer.c **** 
 536:.\Generated_Source\PSoC5/P1_WinTimer.c **** 
 537:.\Generated_Source\PSoC5/P1_WinTimer.c **** #if (P1_WinTimer_SoftwareCaptureMode)
 538:.\Generated_Source\PSoC5/P1_WinTimer.c **** 
 539:.\Generated_Source\PSoC5/P1_WinTimer.c **** 
 540:.\Generated_Source\PSoC5/P1_WinTimer.c **** /*******************************************************************************
 541:.\Generated_Source\PSoC5/P1_WinTimer.c **** * Function Name: P1_WinTimer_SetCaptureMode
 542:.\Generated_Source\PSoC5/P1_WinTimer.c **** ********************************************************************************
 543:.\Generated_Source\PSoC5/P1_WinTimer.c **** *
 544:.\Generated_Source\PSoC5/P1_WinTimer.c **** * Summary:
 545:.\Generated_Source\PSoC5/P1_WinTimer.c **** *  This function sets the capture mode to either rising or falling edge.
 546:.\Generated_Source\PSoC5/P1_WinTimer.c **** *
 547:.\Generated_Source\PSoC5/P1_WinTimer.c **** * Parameters:
 548:.\Generated_Source\PSoC5/P1_WinTimer.c **** *  captureMode: This parameter sets the capture mode of the UDB capture feature
 549:.\Generated_Source\PSoC5/P1_WinTimer.c **** *  The parameter values are defined using the
 550:.\Generated_Source\PSoC5/P1_WinTimer.c **** *  #define P1_WinTimer__B_TIMER__CM_NONE 0
 551:.\Generated_Source\PSoC5/P1_WinTimer.c **** #define P1_WinTimer__B_TIMER__CM_RISINGEDGE 1
 552:.\Generated_Source\PSoC5/P1_WinTimer.c **** #define P1_WinTimer__B_TIMER__CM_FALLINGEDGE 2
 553:.\Generated_Source\PSoC5/P1_WinTimer.c **** #define P1_WinTimer__B_TIMER__CM_EITHEREDGE 3
 554:.\Generated_Source\PSoC5/P1_WinTimer.c **** #define P1_WinTimer__B_TIMER__CM_SOFTWARE 4
 555:.\Generated_Source\PSoC5/P1_WinTimer.c ****  identifiers
 556:.\Generated_Source\PSoC5/P1_WinTimer.c **** *  The following are the possible values of the parameter
 557:.\Generated_Source\PSoC5/P1_WinTimer.c **** *  P1_WinTimer__B_TIMER__CM_NONE        - Set Capture mode to None
 558:.\Generated_Source\PSoC5/P1_WinTimer.c **** *  P1_WinTimer__B_TIMER__CM_RISINGEDGE  - Rising edge of Capture input
 559:.\Generated_Source\PSoC5/P1_WinTimer.c **** *  P1_WinTimer__B_TIMER__CM_FALLINGEDGE - Falling edge of Capture input
 560:.\Generated_Source\PSoC5/P1_WinTimer.c **** *  P1_WinTimer__B_TIMER__CM_EITHEREDGE  - Either edge of Capture input
 561:.\Generated_Source\PSoC5/P1_WinTimer.c **** *
 562:.\Generated_Source\PSoC5/P1_WinTimer.c **** * Return:
 563:.\Generated_Source\PSoC5/P1_WinTimer.c **** *  void
 564:.\Generated_Source\PSoC5/P1_WinTimer.c **** *
 565:.\Generated_Source\PSoC5/P1_WinTimer.c **** *******************************************************************************/
 566:.\Generated_Source\PSoC5/P1_WinTimer.c **** void P1_WinTimer_SetCaptureMode(uint8 captureMode) 
 567:.\Generated_Source\PSoC5/P1_WinTimer.c **** {
 568:.\Generated_Source\PSoC5/P1_WinTimer.c ****     /* This must only set to two bits of the control register associated */
 569:.\Generated_Source\PSoC5/P1_WinTimer.c ****     captureMode = ((uint8)((uint8)captureMode << P1_WinTimer_CTRL_CAP_MODE_SHIFT));
 570:.\Generated_Source\PSoC5/P1_WinTimer.c ****     captureMode &= (P1_WinTimer_CTRL_CAP_MODE_MASK);
 571:.\Generated_Source\PSoC5/P1_WinTimer.c **** 
 572:.\Generated_Source\PSoC5/P1_WinTimer.c ****     #if (!P1_WinTimer_UDB_CONTROL_REG_REMOVED)
 573:.\Generated_Source\PSoC5/P1_WinTimer.c ****         /* Clear the Current Setting */
 574:.\Generated_Source\PSoC5/P1_WinTimer.c ****         P1_WinTimer_CONTROL &= ((uint8)(~P1_WinTimer_CTRL_CAP_MODE_MASK));
 575:.\Generated_Source\PSoC5/P1_WinTimer.c **** 
 576:.\Generated_Source\PSoC5/P1_WinTimer.c ****         /* Write The New Setting */
 577:.\Generated_Source\PSoC5/P1_WinTimer.c ****         P1_WinTimer_CONTROL |= captureMode;
 578:.\Generated_Source\PSoC5/P1_WinTimer.c ****     #endif /* (!P1_WinTimer_UDB_CONTROL_REG_REMOVED) */
ARM GAS  C:\Users\Thomas\AppData\Local\Temp\ccFeFMwh.s 			page 17


 579:.\Generated_Source\PSoC5/P1_WinTimer.c **** }
 580:.\Generated_Source\PSoC5/P1_WinTimer.c **** #endif /* Remove API if Capture Mode is not Software Controlled */
 581:.\Generated_Source\PSoC5/P1_WinTimer.c **** 
 582:.\Generated_Source\PSoC5/P1_WinTimer.c **** 
 583:.\Generated_Source\PSoC5/P1_WinTimer.c **** #if (P1_WinTimer_SoftwareTriggerMode)
 584:.\Generated_Source\PSoC5/P1_WinTimer.c **** 
 585:.\Generated_Source\PSoC5/P1_WinTimer.c **** 
 586:.\Generated_Source\PSoC5/P1_WinTimer.c **** /*******************************************************************************
 587:.\Generated_Source\PSoC5/P1_WinTimer.c **** * Function Name: P1_WinTimer_SetTriggerMode
 588:.\Generated_Source\PSoC5/P1_WinTimer.c **** ********************************************************************************
 589:.\Generated_Source\PSoC5/P1_WinTimer.c **** *
 590:.\Generated_Source\PSoC5/P1_WinTimer.c **** * Summary:
 591:.\Generated_Source\PSoC5/P1_WinTimer.c **** *  This function sets the trigger input mode
 592:.\Generated_Source\PSoC5/P1_WinTimer.c **** *
 593:.\Generated_Source\PSoC5/P1_WinTimer.c **** * Parameters:
 594:.\Generated_Source\PSoC5/P1_WinTimer.c **** *  triggerMode: Pass one of the pre-defined Trigger Modes (except Software)
 595:.\Generated_Source\PSoC5/P1_WinTimer.c ****     #define P1_WinTimer__B_TIMER__TM_NONE 0x00u
 596:.\Generated_Source\PSoC5/P1_WinTimer.c ****     #define P1_WinTimer__B_TIMER__TM_RISINGEDGE 0x04u
 597:.\Generated_Source\PSoC5/P1_WinTimer.c ****     #define P1_WinTimer__B_TIMER__TM_FALLINGEDGE 0x08u
 598:.\Generated_Source\PSoC5/P1_WinTimer.c ****     #define P1_WinTimer__B_TIMER__TM_EITHEREDGE 0x0Cu
 599:.\Generated_Source\PSoC5/P1_WinTimer.c ****     #define P1_WinTimer__B_TIMER__TM_SOFTWARE 0x10u
 600:.\Generated_Source\PSoC5/P1_WinTimer.c **** *
 601:.\Generated_Source\PSoC5/P1_WinTimer.c **** * Return:
 602:.\Generated_Source\PSoC5/P1_WinTimer.c **** *  void
 603:.\Generated_Source\PSoC5/P1_WinTimer.c **** *
 604:.\Generated_Source\PSoC5/P1_WinTimer.c **** *******************************************************************************/
 605:.\Generated_Source\PSoC5/P1_WinTimer.c **** void P1_WinTimer_SetTriggerMode(uint8 triggerMode) 
 606:.\Generated_Source\PSoC5/P1_WinTimer.c **** {
 607:.\Generated_Source\PSoC5/P1_WinTimer.c ****     /* This must only set to two bits of the control register associated */
 608:.\Generated_Source\PSoC5/P1_WinTimer.c ****     triggerMode &= P1_WinTimer_CTRL_TRIG_MODE_MASK;
 609:.\Generated_Source\PSoC5/P1_WinTimer.c **** 
 610:.\Generated_Source\PSoC5/P1_WinTimer.c ****     #if (!P1_WinTimer_UDB_CONTROL_REG_REMOVED)   /* Remove assignment if control register is remove
 611:.\Generated_Source\PSoC5/P1_WinTimer.c ****     
 612:.\Generated_Source\PSoC5/P1_WinTimer.c ****         /* Clear the Current Setting */
 613:.\Generated_Source\PSoC5/P1_WinTimer.c ****         P1_WinTimer_CONTROL &= ((uint8)(~P1_WinTimer_CTRL_TRIG_MODE_MASK));
 614:.\Generated_Source\PSoC5/P1_WinTimer.c **** 
 615:.\Generated_Source\PSoC5/P1_WinTimer.c ****         /* Write The New Setting */
 616:.\Generated_Source\PSoC5/P1_WinTimer.c ****         P1_WinTimer_CONTROL |= (triggerMode | P1_WinTimer__B_TIMER__TM_SOFTWARE);
 617:.\Generated_Source\PSoC5/P1_WinTimer.c ****     #endif /* Remove code section if control register is not used */
 618:.\Generated_Source\PSoC5/P1_WinTimer.c **** }
 619:.\Generated_Source\PSoC5/P1_WinTimer.c **** #endif /* Remove API if Trigger Mode is not Software Controlled */
 620:.\Generated_Source\PSoC5/P1_WinTimer.c **** 
 621:.\Generated_Source\PSoC5/P1_WinTimer.c **** #if (P1_WinTimer_EnableTriggerMode)
 622:.\Generated_Source\PSoC5/P1_WinTimer.c **** 
 623:.\Generated_Source\PSoC5/P1_WinTimer.c **** 
 624:.\Generated_Source\PSoC5/P1_WinTimer.c **** /*******************************************************************************
 625:.\Generated_Source\PSoC5/P1_WinTimer.c **** * Function Name: P1_WinTimer_EnableTrigger
 626:.\Generated_Source\PSoC5/P1_WinTimer.c **** ********************************************************************************
 627:.\Generated_Source\PSoC5/P1_WinTimer.c **** *
 628:.\Generated_Source\PSoC5/P1_WinTimer.c **** * Summary:
 629:.\Generated_Source\PSoC5/P1_WinTimer.c **** *  Sets the control bit enabling Hardware Trigger mode
 630:.\Generated_Source\PSoC5/P1_WinTimer.c **** *
 631:.\Generated_Source\PSoC5/P1_WinTimer.c **** * Parameters:
 632:.\Generated_Source\PSoC5/P1_WinTimer.c **** *  void
 633:.\Generated_Source\PSoC5/P1_WinTimer.c **** *
 634:.\Generated_Source\PSoC5/P1_WinTimer.c **** * Return:
 635:.\Generated_Source\PSoC5/P1_WinTimer.c **** *  void
ARM GAS  C:\Users\Thomas\AppData\Local\Temp\ccFeFMwh.s 			page 18


 636:.\Generated_Source\PSoC5/P1_WinTimer.c **** *
 637:.\Generated_Source\PSoC5/P1_WinTimer.c **** *******************************************************************************/
 638:.\Generated_Source\PSoC5/P1_WinTimer.c **** void P1_WinTimer_EnableTrigger(void) 
 639:.\Generated_Source\PSoC5/P1_WinTimer.c **** {
 640:.\Generated_Source\PSoC5/P1_WinTimer.c ****     #if (!P1_WinTimer_UDB_CONTROL_REG_REMOVED)   /* Remove assignment if control register is remove
 641:.\Generated_Source\PSoC5/P1_WinTimer.c ****         P1_WinTimer_CONTROL |= P1_WinTimer_CTRL_TRIG_EN;
 642:.\Generated_Source\PSoC5/P1_WinTimer.c ****     #endif /* Remove code section if control register is not used */
 643:.\Generated_Source\PSoC5/P1_WinTimer.c **** }
 644:.\Generated_Source\PSoC5/P1_WinTimer.c **** 
 645:.\Generated_Source\PSoC5/P1_WinTimer.c **** 
 646:.\Generated_Source\PSoC5/P1_WinTimer.c **** /*******************************************************************************
 647:.\Generated_Source\PSoC5/P1_WinTimer.c **** * Function Name: P1_WinTimer_DisableTrigger
 648:.\Generated_Source\PSoC5/P1_WinTimer.c **** ********************************************************************************
 649:.\Generated_Source\PSoC5/P1_WinTimer.c **** *
 650:.\Generated_Source\PSoC5/P1_WinTimer.c **** * Summary:
 651:.\Generated_Source\PSoC5/P1_WinTimer.c **** *  Clears the control bit enabling Hardware Trigger mode
 652:.\Generated_Source\PSoC5/P1_WinTimer.c **** *
 653:.\Generated_Source\PSoC5/P1_WinTimer.c **** * Parameters:
 654:.\Generated_Source\PSoC5/P1_WinTimer.c **** *  void
 655:.\Generated_Source\PSoC5/P1_WinTimer.c **** *
 656:.\Generated_Source\PSoC5/P1_WinTimer.c **** * Return:
 657:.\Generated_Source\PSoC5/P1_WinTimer.c **** *  void
 658:.\Generated_Source\PSoC5/P1_WinTimer.c **** *
 659:.\Generated_Source\PSoC5/P1_WinTimer.c **** *******************************************************************************/
 660:.\Generated_Source\PSoC5/P1_WinTimer.c **** void P1_WinTimer_DisableTrigger(void) 
 661:.\Generated_Source\PSoC5/P1_WinTimer.c **** {
 662:.\Generated_Source\PSoC5/P1_WinTimer.c ****     #if (!P1_WinTimer_UDB_CONTROL_REG_REMOVED )   /* Remove assignment if control register is remov
 663:.\Generated_Source\PSoC5/P1_WinTimer.c ****         P1_WinTimer_CONTROL &= ((uint8)(~P1_WinTimer_CTRL_TRIG_EN));
 664:.\Generated_Source\PSoC5/P1_WinTimer.c ****     #endif /* Remove code section if control register is not used */
 665:.\Generated_Source\PSoC5/P1_WinTimer.c **** }
 666:.\Generated_Source\PSoC5/P1_WinTimer.c **** #endif /* Remove API is Trigger Mode is set to None */
 667:.\Generated_Source\PSoC5/P1_WinTimer.c **** 
 668:.\Generated_Source\PSoC5/P1_WinTimer.c **** #if(P1_WinTimer_InterruptOnCaptureCount)
 669:.\Generated_Source\PSoC5/P1_WinTimer.c **** 
 670:.\Generated_Source\PSoC5/P1_WinTimer.c **** 
 671:.\Generated_Source\PSoC5/P1_WinTimer.c **** /*******************************************************************************
 672:.\Generated_Source\PSoC5/P1_WinTimer.c **** * Function Name: P1_WinTimer_SetInterruptCount
 673:.\Generated_Source\PSoC5/P1_WinTimer.c **** ********************************************************************************
 674:.\Generated_Source\PSoC5/P1_WinTimer.c **** *
 675:.\Generated_Source\PSoC5/P1_WinTimer.c **** * Summary:
 676:.\Generated_Source\PSoC5/P1_WinTimer.c **** *  This function sets the capture count before an interrupt is triggered.
 677:.\Generated_Source\PSoC5/P1_WinTimer.c **** *
 678:.\Generated_Source\PSoC5/P1_WinTimer.c **** * Parameters:
 679:.\Generated_Source\PSoC5/P1_WinTimer.c **** *  interruptCount:  A value between 0 and 3 is valid.  If the value is 0, then
 680:.\Generated_Source\PSoC5/P1_WinTimer.c **** *                   an interrupt will occur each time a capture occurs.
 681:.\Generated_Source\PSoC5/P1_WinTimer.c **** *                   A value of 1 to 3 will cause the interrupt
 682:.\Generated_Source\PSoC5/P1_WinTimer.c **** *                   to delay by the same number of captures.
 683:.\Generated_Source\PSoC5/P1_WinTimer.c **** *
 684:.\Generated_Source\PSoC5/P1_WinTimer.c **** * Return:
 685:.\Generated_Source\PSoC5/P1_WinTimer.c **** *  void
 686:.\Generated_Source\PSoC5/P1_WinTimer.c **** *
 687:.\Generated_Source\PSoC5/P1_WinTimer.c **** *******************************************************************************/
 688:.\Generated_Source\PSoC5/P1_WinTimer.c **** void P1_WinTimer_SetInterruptCount(uint8 interruptCount) 
 689:.\Generated_Source\PSoC5/P1_WinTimer.c **** {
 690:.\Generated_Source\PSoC5/P1_WinTimer.c ****     /* This must only set to two bits of the control register associated */
 691:.\Generated_Source\PSoC5/P1_WinTimer.c ****     interruptCount &= P1_WinTimer_CTRL_INTCNT_MASK;
 692:.\Generated_Source\PSoC5/P1_WinTimer.c **** 
ARM GAS  C:\Users\Thomas\AppData\Local\Temp\ccFeFMwh.s 			page 19


 693:.\Generated_Source\PSoC5/P1_WinTimer.c ****     #if (!P1_WinTimer_UDB_CONTROL_REG_REMOVED)
 694:.\Generated_Source\PSoC5/P1_WinTimer.c ****         /* Clear the Current Setting */
 695:.\Generated_Source\PSoC5/P1_WinTimer.c ****         P1_WinTimer_CONTROL &= ((uint8)(~P1_WinTimer_CTRL_INTCNT_MASK));
 696:.\Generated_Source\PSoC5/P1_WinTimer.c ****         /* Write The New Setting */
 697:.\Generated_Source\PSoC5/P1_WinTimer.c ****         P1_WinTimer_CONTROL |= interruptCount;
 698:.\Generated_Source\PSoC5/P1_WinTimer.c ****     #endif /* (!P1_WinTimer_UDB_CONTROL_REG_REMOVED) */
 699:.\Generated_Source\PSoC5/P1_WinTimer.c **** }
 700:.\Generated_Source\PSoC5/P1_WinTimer.c **** #endif /* P1_WinTimer_InterruptOnCaptureCount */
 701:.\Generated_Source\PSoC5/P1_WinTimer.c **** 
 702:.\Generated_Source\PSoC5/P1_WinTimer.c **** 
 703:.\Generated_Source\PSoC5/P1_WinTimer.c **** #if (P1_WinTimer_UsingHWCaptureCounter)
 704:.\Generated_Source\PSoC5/P1_WinTimer.c **** 
 705:.\Generated_Source\PSoC5/P1_WinTimer.c **** 
 706:.\Generated_Source\PSoC5/P1_WinTimer.c **** /*******************************************************************************
 707:.\Generated_Source\PSoC5/P1_WinTimer.c **** * Function Name: P1_WinTimer_SetCaptureCount
 708:.\Generated_Source\PSoC5/P1_WinTimer.c **** ********************************************************************************
 709:.\Generated_Source\PSoC5/P1_WinTimer.c **** *
 710:.\Generated_Source\PSoC5/P1_WinTimer.c **** * Summary:
 711:.\Generated_Source\PSoC5/P1_WinTimer.c **** *  This function sets the capture count
 712:.\Generated_Source\PSoC5/P1_WinTimer.c **** *
 713:.\Generated_Source\PSoC5/P1_WinTimer.c **** * Parameters:
 714:.\Generated_Source\PSoC5/P1_WinTimer.c **** *  captureCount: A value between 2 and 127 inclusive is valid.  A value of 1
 715:.\Generated_Source\PSoC5/P1_WinTimer.c **** *                to 127 will cause the interrupt to delay by the same number of
 716:.\Generated_Source\PSoC5/P1_WinTimer.c **** *                captures.
 717:.\Generated_Source\PSoC5/P1_WinTimer.c **** *
 718:.\Generated_Source\PSoC5/P1_WinTimer.c **** * Return:
 719:.\Generated_Source\PSoC5/P1_WinTimer.c **** *  void
 720:.\Generated_Source\PSoC5/P1_WinTimer.c **** *
 721:.\Generated_Source\PSoC5/P1_WinTimer.c **** *******************************************************************************/
 722:.\Generated_Source\PSoC5/P1_WinTimer.c **** void P1_WinTimer_SetCaptureCount(uint8 captureCount) 
 723:.\Generated_Source\PSoC5/P1_WinTimer.c **** {
 724:.\Generated_Source\PSoC5/P1_WinTimer.c ****     P1_WinTimer_CAP_COUNT = captureCount;
 725:.\Generated_Source\PSoC5/P1_WinTimer.c **** }
 726:.\Generated_Source\PSoC5/P1_WinTimer.c **** 
 727:.\Generated_Source\PSoC5/P1_WinTimer.c **** 
 728:.\Generated_Source\PSoC5/P1_WinTimer.c **** /*******************************************************************************
 729:.\Generated_Source\PSoC5/P1_WinTimer.c **** * Function Name: P1_WinTimer_ReadCaptureCount
 730:.\Generated_Source\PSoC5/P1_WinTimer.c **** ********************************************************************************
 731:.\Generated_Source\PSoC5/P1_WinTimer.c **** *
 732:.\Generated_Source\PSoC5/P1_WinTimer.c **** * Summary:
 733:.\Generated_Source\PSoC5/P1_WinTimer.c **** *  This function reads the capture count setting
 734:.\Generated_Source\PSoC5/P1_WinTimer.c **** *
 735:.\Generated_Source\PSoC5/P1_WinTimer.c **** * Parameters:
 736:.\Generated_Source\PSoC5/P1_WinTimer.c **** *  void
 737:.\Generated_Source\PSoC5/P1_WinTimer.c **** *
 738:.\Generated_Source\PSoC5/P1_WinTimer.c **** * Return:
 739:.\Generated_Source\PSoC5/P1_WinTimer.c **** *  Returns the Capture Count Setting
 740:.\Generated_Source\PSoC5/P1_WinTimer.c **** *
 741:.\Generated_Source\PSoC5/P1_WinTimer.c **** *******************************************************************************/
 742:.\Generated_Source\PSoC5/P1_WinTimer.c **** uint8 P1_WinTimer_ReadCaptureCount(void) 
 743:.\Generated_Source\PSoC5/P1_WinTimer.c **** {
 744:.\Generated_Source\PSoC5/P1_WinTimer.c ****     return ((uint8)P1_WinTimer_CAP_COUNT);
 745:.\Generated_Source\PSoC5/P1_WinTimer.c **** }
 746:.\Generated_Source\PSoC5/P1_WinTimer.c **** #endif /* P1_WinTimer_UsingHWCaptureCounter */
 747:.\Generated_Source\PSoC5/P1_WinTimer.c **** 
 748:.\Generated_Source\PSoC5/P1_WinTimer.c **** 
 749:.\Generated_Source\PSoC5/P1_WinTimer.c **** /*******************************************************************************
ARM GAS  C:\Users\Thomas\AppData\Local\Temp\ccFeFMwh.s 			page 20


 750:.\Generated_Source\PSoC5/P1_WinTimer.c **** * Function Name: P1_WinTimer_ClearFIFO
 751:.\Generated_Source\PSoC5/P1_WinTimer.c **** ********************************************************************************
 752:.\Generated_Source\PSoC5/P1_WinTimer.c **** *
 753:.\Generated_Source\PSoC5/P1_WinTimer.c **** * Summary:
 754:.\Generated_Source\PSoC5/P1_WinTimer.c **** *  This function clears all capture data from the capture FIFO
 755:.\Generated_Source\PSoC5/P1_WinTimer.c **** *
 756:.\Generated_Source\PSoC5/P1_WinTimer.c **** * Parameters:
 757:.\Generated_Source\PSoC5/P1_WinTimer.c **** *  void
 758:.\Generated_Source\PSoC5/P1_WinTimer.c **** *
 759:.\Generated_Source\PSoC5/P1_WinTimer.c **** * Return:
 760:.\Generated_Source\PSoC5/P1_WinTimer.c **** *  void
 761:.\Generated_Source\PSoC5/P1_WinTimer.c **** *
 762:.\Generated_Source\PSoC5/P1_WinTimer.c **** *******************************************************************************/
 763:.\Generated_Source\PSoC5/P1_WinTimer.c **** void P1_WinTimer_ClearFIFO(void) 
 764:.\Generated_Source\PSoC5/P1_WinTimer.c **** {
 335              		.loc 1 764 0
 336              		.cfi_startproc
 337              		@ args = 0, pretend = 0, frame = 0
 338              		@ frame_needed = 0, uses_anonymous_args = 0
 339 0000 08B5     		push	{r3, lr}
 340              		.cfi_def_cfa_offset 8
 341              		.cfi_offset 3, -8
 342              		.cfi_offset 14, -4
 765:.\Generated_Source\PSoC5/P1_WinTimer.c ****     while(0u != (P1_WinTimer_ReadStatusRegister() & P1_WinTimer_STATUS_FIFONEMP))
 343              		.loc 1 765 0
 344 0002 01E0     		b	.L38
 345              	.L39:
 766:.\Generated_Source\PSoC5/P1_WinTimer.c ****     {
 767:.\Generated_Source\PSoC5/P1_WinTimer.c ****         (void)P1_WinTimer_ReadCapture();
 346              		.loc 1 767 0
 347 0004 FFF7FEFF 		bl	P1_WinTimer_ReadCapture
 348              	.LVL4:
 349              	.L38:
 765:.\Generated_Source\PSoC5/P1_WinTimer.c ****     while(0u != (P1_WinTimer_ReadStatusRegister() & P1_WinTimer_STATUS_FIFONEMP))
 350              		.loc 1 765 0
 351 0008 FFF7FEFF 		bl	P1_WinTimer_ReadStatusRegister
 352              	.LVL5:
 353 000c 10F0080F 		tst	r0, #8
 354 0010 F8D1     		bne	.L39
 768:.\Generated_Source\PSoC5/P1_WinTimer.c ****     }
 769:.\Generated_Source\PSoC5/P1_WinTimer.c **** }
 355              		.loc 1 769 0
 356 0012 08BD     		pop	{r3, pc}
 357              		.cfi_endproc
 358              	.LFE14:
 359              		.size	P1_WinTimer_ClearFIFO, .-P1_WinTimer_ClearFIFO
 360              		.section	.text.P1_WinTimer_Init,"ax",%progbits
 361              		.align	2
 362              		.global	P1_WinTimer_Init
 363              		.thumb
 364              		.thumb_func
 365              		.type	P1_WinTimer_Init, %function
 366              	P1_WinTimer_Init:
 367              	.LFB0:
  44:.\Generated_Source\PSoC5/P1_WinTimer.c ****     #if(!P1_WinTimer_UsingFixedFunction)
 368              		.loc 1 44 0
 369              		.cfi_startproc
ARM GAS  C:\Users\Thomas\AppData\Local\Temp\ccFeFMwh.s 			page 21


 370              		@ args = 0, pretend = 0, frame = 0
 371              		@ frame_needed = 0, uses_anonymous_args = 0
 372 0000 08B5     		push	{r3, lr}
 373              		.cfi_def_cfa_offset 8
 374              		.cfi_offset 3, -8
 375              		.cfi_offset 14, -4
 118:.\Generated_Source\PSoC5/P1_WinTimer.c ****     P1_WinTimer_WriteCounter(P1_WinTimer_INIT_PERIOD);
 376              		.loc 1 118 0
 377 0002 40F6C310 		movw	r0, #2499
 378 0006 FFF7FEFF 		bl	P1_WinTimer_WritePeriod
 379              	.LVL6:
 119:.\Generated_Source\PSoC5/P1_WinTimer.c **** 
 380              		.loc 1 119 0
 381 000a 40F6C310 		movw	r0, #2499
 382 000e FFF7FEFF 		bl	P1_WinTimer_WriteCounter
 383              	.LVL7:
 142:.\Generated_Source\PSoC5/P1_WinTimer.c **** 
 384              		.loc 1 142 0
 385 0012 FFF7FEFF 		bl	CyEnterCriticalSection
 386              	.LVL8:
 145:.\Generated_Source\PSoC5/P1_WinTimer.c **** 
 387              		.loc 1 145 0
 388 0016 064A     		ldr	r2, .L43
 389 0018 1378     		ldrb	r3, [r2]	@ zero_extendqisi2
 390 001a 43F01003 		orr	r3, r3, #16
 391 001e 1370     		strb	r3, [r2]
 148:.\Generated_Source\PSoC5/P1_WinTimer.c **** 
 392              		.loc 1 148 0
 393 0020 FFF7FEFF 		bl	CyExitCriticalSection
 394              	.LVL9:
 159:.\Generated_Source\PSoC5/P1_WinTimer.c ****     #endif /* Configure additional features of UDB implementation */
 395              		.loc 1 159 0
 396 0024 FFF7FEFF 		bl	P1_WinTimer_ClearFIFO
 397              	.LVL10:
 162:.\Generated_Source\PSoC5/P1_WinTimer.c **** }
 398              		.loc 1 162 0
 399 0028 0120     		movs	r0, #1
 400 002a FFF7FEFF 		bl	P1_WinTimer_SetInterruptMode
 401              	.LVL11:
 402 002e 08BD     		pop	{r3, pc}
 403              	.L44:
 404              		.align	2
 405              	.L43:
 406 0030 9A640040 		.word	1073767578
 407              		.cfi_endproc
 408              	.LFE0:
 409              		.size	P1_WinTimer_Init, .-P1_WinTimer_Init
 410              		.section	.text.P1_WinTimer_Start,"ax",%progbits
 411              		.align	2
 412              		.global	P1_WinTimer_Start
 413              		.thumb
 414              		.thumb_func
 415              		.type	P1_WinTimer_Start, %function
 416              	P1_WinTimer_Start:
 417              	.LFB2:
 216:.\Generated_Source\PSoC5/P1_WinTimer.c ****     if(P1_WinTimer_initVar == 0u)
 418              		.loc 1 216 0
ARM GAS  C:\Users\Thomas\AppData\Local\Temp\ccFeFMwh.s 			page 22


 419              		.cfi_startproc
 420              		@ args = 0, pretend = 0, frame = 0
 421              		@ frame_needed = 0, uses_anonymous_args = 0
 422 0000 08B5     		push	{r3, lr}
 423              		.cfi_def_cfa_offset 8
 424              		.cfi_offset 3, -8
 425              		.cfi_offset 14, -4
 217:.\Generated_Source\PSoC5/P1_WinTimer.c ****     {
 426              		.loc 1 217 0
 427 0002 054B     		ldr	r3, .L48
 428 0004 1B78     		ldrb	r3, [r3]	@ zero_extendqisi2
 429 0006 23B9     		cbnz	r3, .L46
 219:.\Generated_Source\PSoC5/P1_WinTimer.c **** 
 430              		.loc 1 219 0
 431 0008 FFF7FEFF 		bl	P1_WinTimer_Init
 432              	.LVL12:
 221:.\Generated_Source\PSoC5/P1_WinTimer.c ****     }
 433              		.loc 1 221 0
 434 000c 0122     		movs	r2, #1
 435 000e 024B     		ldr	r3, .L48
 436 0010 1A70     		strb	r2, [r3]
 437              	.L46:
 225:.\Generated_Source\PSoC5/P1_WinTimer.c **** }
 438              		.loc 1 225 0
 439 0012 FFF7FEFF 		bl	P1_WinTimer_Enable
 440              	.LVL13:
 441 0016 08BD     		pop	{r3, pc}
 442              	.L49:
 443              		.align	2
 444              	.L48:
 445 0018 00000000 		.word	.LANCHOR0
 446              		.cfi_endproc
 447              	.LFE2:
 448              		.size	P1_WinTimer_Start, .-P1_WinTimer_Start
 449              		.global	P1_WinTimer_initVar
 450              		.bss
 451              		.set	.LANCHOR0,. + 0
 452              		.type	P1_WinTimer_initVar, %object
 453              		.size	P1_WinTimer_initVar, 1
 454              	P1_WinTimer_initVar:
 455 0000 00       		.space	1
 456              		.text
 457              	.Letext0:
 458              		.file 2 ".\\Generated_Source\\PSoC5\\cytypes.h"
 459              		.file 3 ".\\Generated_Source\\PSoC5\\CyLib.h"