ARM GAS  C:\Users\Thomas\AppData\Local\Temp\cc0ZInsp.s 			page 1


   1              		.syntax unified
   2              		.cpu cortex-m3
   3              		.fpu softvfp
   4              		.eabi_attribute 20, 1
   5              		.eabi_attribute 21, 1
   6              		.eabi_attribute 23, 3
   7              		.eabi_attribute 24, 1
   8              		.eabi_attribute 25, 1
   9              		.eabi_attribute 26, 1
  10              		.eabi_attribute 30, 1
  11              		.eabi_attribute 34, 1
  12              		.eabi_attribute 18, 4
  13              		.thumb
  14              		.file	"P2_IRQ.c"
  15              		.text
  16              	.Ltext0:
  17              		.cfi_sections	.debug_frame
  18              		.section	.text.P2_IRQ_Interrupt,"ax",%progbits
  19              		.align	2
  20              		.global	P2_IRQ_Interrupt
  21              		.thumb
  22              		.thumb_func
  23              		.type	P2_IRQ_Interrupt, %function
  24              	P2_IRQ_Interrupt:
  25              	.LFB66:
  26              		.file 1 ".\\Generated_Source\\PSoC5\\P2_IRQ.c"
   1:.\Generated_Source\PSoC5/P2_IRQ.c **** /*******************************************************************************
   2:.\Generated_Source\PSoC5/P2_IRQ.c **** * File Name: P2_IRQ.c  
   3:.\Generated_Source\PSoC5/P2_IRQ.c **** * Version 1.70
   4:.\Generated_Source\PSoC5/P2_IRQ.c **** *
   5:.\Generated_Source\PSoC5/P2_IRQ.c **** *  Description:
   6:.\Generated_Source\PSoC5/P2_IRQ.c **** *   API for controlling the state of an interrupt.
   7:.\Generated_Source\PSoC5/P2_IRQ.c **** *
   8:.\Generated_Source\PSoC5/P2_IRQ.c **** *
   9:.\Generated_Source\PSoC5/P2_IRQ.c **** *  Note:
  10:.\Generated_Source\PSoC5/P2_IRQ.c **** *
  11:.\Generated_Source\PSoC5/P2_IRQ.c **** ********************************************************************************
  12:.\Generated_Source\PSoC5/P2_IRQ.c **** * Copyright 2008-2015, Cypress Semiconductor Corporation.  All rights reserved.
  13:.\Generated_Source\PSoC5/P2_IRQ.c **** * You may use this file only in accordance with the license, terms, conditions, 
  14:.\Generated_Source\PSoC5/P2_IRQ.c **** * disclaimers, and limitations in the end user license agreement accompanying 
  15:.\Generated_Source\PSoC5/P2_IRQ.c **** * the software package with which this file was provided.
  16:.\Generated_Source\PSoC5/P2_IRQ.c **** *******************************************************************************/
  17:.\Generated_Source\PSoC5/P2_IRQ.c **** 
  18:.\Generated_Source\PSoC5/P2_IRQ.c **** 
  19:.\Generated_Source\PSoC5/P2_IRQ.c **** #include <cydevice_trm.h>
  20:.\Generated_Source\PSoC5/P2_IRQ.c **** #include <CyLib.h>
  21:.\Generated_Source\PSoC5/P2_IRQ.c **** #include <P2_IRQ.h>
  22:.\Generated_Source\PSoC5/P2_IRQ.c **** #include "cyapicallbacks.h"
  23:.\Generated_Source\PSoC5/P2_IRQ.c **** 
  24:.\Generated_Source\PSoC5/P2_IRQ.c **** #if !defined(P2_IRQ__REMOVED) /* Check for removal by optimization */
  25:.\Generated_Source\PSoC5/P2_IRQ.c **** 
  26:.\Generated_Source\PSoC5/P2_IRQ.c **** /*******************************************************************************
  27:.\Generated_Source\PSoC5/P2_IRQ.c **** *  Place your includes, defines and code here 
  28:.\Generated_Source\PSoC5/P2_IRQ.c **** ********************************************************************************/
  29:.\Generated_Source\PSoC5/P2_IRQ.c **** /* `#START P2_IRQ_intc` */
  30:.\Generated_Source\PSoC5/P2_IRQ.c **** #include <main.h>
  31:.\Generated_Source\PSoC5/P2_IRQ.c **** /* `#END` */
ARM GAS  C:\Users\Thomas\AppData\Local\Temp\cc0ZInsp.s 			page 2


  32:.\Generated_Source\PSoC5/P2_IRQ.c **** 
  33:.\Generated_Source\PSoC5/P2_IRQ.c **** #ifndef CYINT_IRQ_BASE
  34:.\Generated_Source\PSoC5/P2_IRQ.c **** #define CYINT_IRQ_BASE      16
  35:.\Generated_Source\PSoC5/P2_IRQ.c **** #endif /* CYINT_IRQ_BASE */
  36:.\Generated_Source\PSoC5/P2_IRQ.c **** #ifndef CYINT_VECT_TABLE
  37:.\Generated_Source\PSoC5/P2_IRQ.c **** #define CYINT_VECT_TABLE    ((cyisraddress **) CYREG_NVIC_VECT_OFFSET)
  38:.\Generated_Source\PSoC5/P2_IRQ.c **** #endif /* CYINT_VECT_TABLE */
  39:.\Generated_Source\PSoC5/P2_IRQ.c **** 
  40:.\Generated_Source\PSoC5/P2_IRQ.c **** /* Declared in startup, used to set unused interrupts to. */
  41:.\Generated_Source\PSoC5/P2_IRQ.c **** CY_ISR_PROTO(IntDefaultHandler);
  42:.\Generated_Source\PSoC5/P2_IRQ.c **** 
  43:.\Generated_Source\PSoC5/P2_IRQ.c **** 
  44:.\Generated_Source\PSoC5/P2_IRQ.c **** /*******************************************************************************
  45:.\Generated_Source\PSoC5/P2_IRQ.c **** * Function Name: P2_IRQ_Start
  46:.\Generated_Source\PSoC5/P2_IRQ.c **** ********************************************************************************
  47:.\Generated_Source\PSoC5/P2_IRQ.c **** *
  48:.\Generated_Source\PSoC5/P2_IRQ.c **** * Summary:
  49:.\Generated_Source\PSoC5/P2_IRQ.c **** *  Set up the interrupt and enable it. This function disables the interrupt, 
  50:.\Generated_Source\PSoC5/P2_IRQ.c **** *  sets the default interrupt vector, sets the priority from the value in the
  51:.\Generated_Source\PSoC5/P2_IRQ.c **** *  Design Wide Resources Interrupt Editor, then enables the interrupt to the 
  52:.\Generated_Source\PSoC5/P2_IRQ.c **** *  interrupt controller.
  53:.\Generated_Source\PSoC5/P2_IRQ.c **** *
  54:.\Generated_Source\PSoC5/P2_IRQ.c **** * Parameters:  
  55:.\Generated_Source\PSoC5/P2_IRQ.c **** *   None
  56:.\Generated_Source\PSoC5/P2_IRQ.c **** *
  57:.\Generated_Source\PSoC5/P2_IRQ.c **** * Return:
  58:.\Generated_Source\PSoC5/P2_IRQ.c **** *   None
  59:.\Generated_Source\PSoC5/P2_IRQ.c **** *
  60:.\Generated_Source\PSoC5/P2_IRQ.c **** *******************************************************************************/
  61:.\Generated_Source\PSoC5/P2_IRQ.c **** void P2_IRQ_Start(void)
  62:.\Generated_Source\PSoC5/P2_IRQ.c **** {
  63:.\Generated_Source\PSoC5/P2_IRQ.c ****     /* For all we know the interrupt is active. */
  64:.\Generated_Source\PSoC5/P2_IRQ.c ****     P2_IRQ_Disable();
  65:.\Generated_Source\PSoC5/P2_IRQ.c **** 
  66:.\Generated_Source\PSoC5/P2_IRQ.c ****     /* Set the ISR to point to the P2_IRQ Interrupt. */
  67:.\Generated_Source\PSoC5/P2_IRQ.c ****     P2_IRQ_SetVector(&P2_IRQ_Interrupt);
  68:.\Generated_Source\PSoC5/P2_IRQ.c **** 
  69:.\Generated_Source\PSoC5/P2_IRQ.c ****     /* Set the priority. */
  70:.\Generated_Source\PSoC5/P2_IRQ.c ****     P2_IRQ_SetPriority((uint8)P2_IRQ_INTC_PRIOR_NUMBER);
  71:.\Generated_Source\PSoC5/P2_IRQ.c **** 
  72:.\Generated_Source\PSoC5/P2_IRQ.c ****     /* Enable it. */
  73:.\Generated_Source\PSoC5/P2_IRQ.c ****     P2_IRQ_Enable();
  74:.\Generated_Source\PSoC5/P2_IRQ.c **** }
  75:.\Generated_Source\PSoC5/P2_IRQ.c **** 
  76:.\Generated_Source\PSoC5/P2_IRQ.c **** 
  77:.\Generated_Source\PSoC5/P2_IRQ.c **** /*******************************************************************************
  78:.\Generated_Source\PSoC5/P2_IRQ.c **** * Function Name: P2_IRQ_StartEx
  79:.\Generated_Source\PSoC5/P2_IRQ.c **** ********************************************************************************
  80:.\Generated_Source\PSoC5/P2_IRQ.c **** *
  81:.\Generated_Source\PSoC5/P2_IRQ.c **** * Summary:
  82:.\Generated_Source\PSoC5/P2_IRQ.c **** *  Sets up the interrupt and enables it. This function disables the interrupt,
  83:.\Generated_Source\PSoC5/P2_IRQ.c **** *  sets the interrupt vector based on the address passed in, sets the priority 
  84:.\Generated_Source\PSoC5/P2_IRQ.c **** *  from the value in the Design Wide Resources Interrupt Editor, then enables 
  85:.\Generated_Source\PSoC5/P2_IRQ.c **** *  the interrupt to the interrupt controller.
  86:.\Generated_Source\PSoC5/P2_IRQ.c **** *  
  87:.\Generated_Source\PSoC5/P2_IRQ.c **** *  When defining ISR functions, the CY_ISR and CY_ISR_PROTO macros should be 
  88:.\Generated_Source\PSoC5/P2_IRQ.c **** *  used to provide consistent definition across compilers:
ARM GAS  C:\Users\Thomas\AppData\Local\Temp\cc0ZInsp.s 			page 3


  89:.\Generated_Source\PSoC5/P2_IRQ.c **** *  
  90:.\Generated_Source\PSoC5/P2_IRQ.c **** *  Function definition example:
  91:.\Generated_Source\PSoC5/P2_IRQ.c **** *   CY_ISR(MyISR)
  92:.\Generated_Source\PSoC5/P2_IRQ.c **** *   {
  93:.\Generated_Source\PSoC5/P2_IRQ.c **** *   }
  94:.\Generated_Source\PSoC5/P2_IRQ.c **** *   Function prototype example:
  95:.\Generated_Source\PSoC5/P2_IRQ.c **** *   CY_ISR_PROTO(MyISR);
  96:.\Generated_Source\PSoC5/P2_IRQ.c **** *
  97:.\Generated_Source\PSoC5/P2_IRQ.c **** * Parameters:  
  98:.\Generated_Source\PSoC5/P2_IRQ.c **** *   address: Address of the ISR to set in the interrupt vector table.
  99:.\Generated_Source\PSoC5/P2_IRQ.c **** *
 100:.\Generated_Source\PSoC5/P2_IRQ.c **** * Return:
 101:.\Generated_Source\PSoC5/P2_IRQ.c **** *   None
 102:.\Generated_Source\PSoC5/P2_IRQ.c **** *
 103:.\Generated_Source\PSoC5/P2_IRQ.c **** *******************************************************************************/
 104:.\Generated_Source\PSoC5/P2_IRQ.c **** void P2_IRQ_StartEx(cyisraddress address)
 105:.\Generated_Source\PSoC5/P2_IRQ.c **** {
 106:.\Generated_Source\PSoC5/P2_IRQ.c ****     /* For all we know the interrupt is active. */
 107:.\Generated_Source\PSoC5/P2_IRQ.c ****     P2_IRQ_Disable();
 108:.\Generated_Source\PSoC5/P2_IRQ.c **** 
 109:.\Generated_Source\PSoC5/P2_IRQ.c ****     /* Set the ISR to point to the P2_IRQ Interrupt. */
 110:.\Generated_Source\PSoC5/P2_IRQ.c ****     P2_IRQ_SetVector(address);
 111:.\Generated_Source\PSoC5/P2_IRQ.c **** 
 112:.\Generated_Source\PSoC5/P2_IRQ.c ****     /* Set the priority. */
 113:.\Generated_Source\PSoC5/P2_IRQ.c ****     P2_IRQ_SetPriority((uint8)P2_IRQ_INTC_PRIOR_NUMBER);
 114:.\Generated_Source\PSoC5/P2_IRQ.c **** 
 115:.\Generated_Source\PSoC5/P2_IRQ.c ****     /* Enable it. */
 116:.\Generated_Source\PSoC5/P2_IRQ.c ****     P2_IRQ_Enable();
 117:.\Generated_Source\PSoC5/P2_IRQ.c **** }
 118:.\Generated_Source\PSoC5/P2_IRQ.c **** 
 119:.\Generated_Source\PSoC5/P2_IRQ.c **** 
 120:.\Generated_Source\PSoC5/P2_IRQ.c **** /*******************************************************************************
 121:.\Generated_Source\PSoC5/P2_IRQ.c **** * Function Name: P2_IRQ_Stop
 122:.\Generated_Source\PSoC5/P2_IRQ.c **** ********************************************************************************
 123:.\Generated_Source\PSoC5/P2_IRQ.c **** *
 124:.\Generated_Source\PSoC5/P2_IRQ.c **** * Summary:
 125:.\Generated_Source\PSoC5/P2_IRQ.c **** *   Disables and removes the interrupt.
 126:.\Generated_Source\PSoC5/P2_IRQ.c **** *
 127:.\Generated_Source\PSoC5/P2_IRQ.c **** * Parameters:  
 128:.\Generated_Source\PSoC5/P2_IRQ.c **** *   None
 129:.\Generated_Source\PSoC5/P2_IRQ.c **** *
 130:.\Generated_Source\PSoC5/P2_IRQ.c **** * Return:
 131:.\Generated_Source\PSoC5/P2_IRQ.c **** *   None
 132:.\Generated_Source\PSoC5/P2_IRQ.c **** *
 133:.\Generated_Source\PSoC5/P2_IRQ.c **** *******************************************************************************/
 134:.\Generated_Source\PSoC5/P2_IRQ.c **** void P2_IRQ_Stop(void)
 135:.\Generated_Source\PSoC5/P2_IRQ.c **** {
 136:.\Generated_Source\PSoC5/P2_IRQ.c ****     /* Disable this interrupt. */
 137:.\Generated_Source\PSoC5/P2_IRQ.c ****     P2_IRQ_Disable();
 138:.\Generated_Source\PSoC5/P2_IRQ.c **** 
 139:.\Generated_Source\PSoC5/P2_IRQ.c ****     /* Set the ISR to point to the passive one. */
 140:.\Generated_Source\PSoC5/P2_IRQ.c ****     P2_IRQ_SetVector(&IntDefaultHandler);
 141:.\Generated_Source\PSoC5/P2_IRQ.c **** }
 142:.\Generated_Source\PSoC5/P2_IRQ.c **** 
 143:.\Generated_Source\PSoC5/P2_IRQ.c **** 
 144:.\Generated_Source\PSoC5/P2_IRQ.c **** /*******************************************************************************
 145:.\Generated_Source\PSoC5/P2_IRQ.c **** * Function Name: P2_IRQ_Interrupt
ARM GAS  C:\Users\Thomas\AppData\Local\Temp\cc0ZInsp.s 			page 4


 146:.\Generated_Source\PSoC5/P2_IRQ.c **** ********************************************************************************
 147:.\Generated_Source\PSoC5/P2_IRQ.c **** *
 148:.\Generated_Source\PSoC5/P2_IRQ.c **** * Summary:
 149:.\Generated_Source\PSoC5/P2_IRQ.c **** *   The default Interrupt Service Routine for P2_IRQ.
 150:.\Generated_Source\PSoC5/P2_IRQ.c **** *
 151:.\Generated_Source\PSoC5/P2_IRQ.c **** *   Add custom code between the coments to keep the next version of this file
 152:.\Generated_Source\PSoC5/P2_IRQ.c **** *   from over writting your code.
 153:.\Generated_Source\PSoC5/P2_IRQ.c **** *
 154:.\Generated_Source\PSoC5/P2_IRQ.c **** * Parameters:  
 155:.\Generated_Source\PSoC5/P2_IRQ.c **** *
 156:.\Generated_Source\PSoC5/P2_IRQ.c **** * Return:
 157:.\Generated_Source\PSoC5/P2_IRQ.c **** *   None
 158:.\Generated_Source\PSoC5/P2_IRQ.c **** *
 159:.\Generated_Source\PSoC5/P2_IRQ.c **** *******************************************************************************/
 160:.\Generated_Source\PSoC5/P2_IRQ.c **** CY_ISR(P2_IRQ_Interrupt)
 161:.\Generated_Source\PSoC5/P2_IRQ.c **** {
  27              		.loc 1 161 0
  28              		.cfi_startproc
  29              		@ args = 0, pretend = 0, frame = 0
  30              		@ frame_needed = 0, uses_anonymous_args = 0
  31 0000 10B5     		push	{r4, lr}
  32              		.cfi_def_cfa_offset 8
  33              		.cfi_offset 4, -8
  34              		.cfi_offset 14, -4
 162:.\Generated_Source\PSoC5/P2_IRQ.c ****     #ifdef P2_IRQ_INTERRUPT_INTERRUPT_CALLBACK
 163:.\Generated_Source\PSoC5/P2_IRQ.c ****         P2_IRQ_Interrupt_InterruptCallback();
 164:.\Generated_Source\PSoC5/P2_IRQ.c ****     #endif /* P2_IRQ_INTERRUPT_INTERRUPT_CALLBACK */ 
 165:.\Generated_Source\PSoC5/P2_IRQ.c **** 
 166:.\Generated_Source\PSoC5/P2_IRQ.c ****     /*  Place your Interrupt code here. */
 167:.\Generated_Source\PSoC5/P2_IRQ.c ****     /* `#START P2_IRQ_Interrupt` */
 168:.\Generated_Source\PSoC5/P2_IRQ.c ****     P2_RegD0_WriteRegValue(data[3]);
  35              		.loc 1 168 0
  36 0002 214C     		ldr	r4, .L6
  37 0004 E088     		ldrh	r0, [r4, #6]
  38 0006 80B2     		uxth	r0, r0
  39 0008 FFF7FEFF 		bl	P2_RegD0_WriteRegValue
  40              	.LVL0:
 169:.\Generated_Source\PSoC5/P2_IRQ.c ****     P2_RegD1_WriteRegValue(data[4]);
  41              		.loc 1 169 0
  42 000c 2089     		ldrh	r0, [r4, #8]
  43 000e 80B2     		uxth	r0, r0
  44 0010 FFF7FEFF 		bl	P2_RegD1_WriteRegValue
  45              	.LVL1:
 170:.\Generated_Source\PSoC5/P2_IRQ.c ****     P2_RegD2_WriteRegValue(data[5]);
  46              		.loc 1 170 0
  47 0014 6089     		ldrh	r0, [r4, #10]
  48 0016 80B2     		uxth	r0, r0
  49 0018 FFF7FEFF 		bl	P2_RegD2_WriteRegValue
  50              	.LVL2:
 171:.\Generated_Source\PSoC5/P2_IRQ.c **** 
 172:.\Generated_Source\PSoC5/P2_IRQ.c ****     if(playing)
  51              		.loc 1 172 0
  52 001c 1B4B     		ldr	r3, .L6+4
  53 001e 1B68     		ldr	r3, [r3]
  54 0020 002B     		cmp	r3, #0
  55 0022 2FD0     		beq	.L1
 173:.\Generated_Source\PSoC5/P2_IRQ.c ****     {
ARM GAS  C:\Users\Thomas\AppData\Local\Temp\cc0ZInsp.s 			page 5


 174:.\Generated_Source\PSoC5/P2_IRQ.c ****         if(!use_timer[1])
  56              		.loc 1 174 0
  57 0024 1A4B     		ldr	r3, .L6+8
  58 0026 5B68     		ldr	r3, [r3, #4]
  59 0028 4BBB     		cbnz	r3, .L3
 175:.\Generated_Source\PSoC5/P2_IRQ.c ****         {
 176:.\Generated_Source\PSoC5/P2_IRQ.c ****             input_ptr[1] = (input_ptr[1]+1)%INPUT_BUF_SIZE;
  60              		.loc 1 176 0
  61 002a 1A4B     		ldr	r3, .L6+12
  62 002c 5A68     		ldr	r2, [r3, #4]
  63 002e 0132     		adds	r2, r2, #1
  64 0030 194B     		ldr	r3, .L6+16
  65 0032 1340     		ands	r3, r3, r2
  66 0034 002B     		cmp	r3, #0
  67 0036 05DA     		bge	.L4
  68 0038 013B     		subs	r3, r3, #1
  69 003a 6FEA4353 		mvn	r3, r3, lsl #21
  70 003e 6FEA5353 		mvn	r3, r3, lsr #21
  71 0042 0133     		adds	r3, r3, #1
  72              	.L4:
  73 0044 134A     		ldr	r2, .L6+12
  74 0046 5360     		str	r3, [r2, #4]
 177:.\Generated_Source\PSoC5/P2_IRQ.c ****             data[3] = input[3][input_ptr[1]]; 
  75              		.loc 1 177 0
  76 0048 5368     		ldr	r3, [r2, #4]
  77 004a 1449     		ldr	r1, .L6+20
  78 004c 03F5C053 		add	r3, r3, #6144
  79 0050 31F81300 		ldrh	r0, [r1, r3, lsl #1]
  80 0054 80B2     		uxth	r0, r0
  81 0056 0C4B     		ldr	r3, .L6
  82 0058 D880     		strh	r0, [r3, #6]	@ movhi
 178:.\Generated_Source\PSoC5/P2_IRQ.c ****             data[4] = input[4][input_ptr[1]]; 
  83              		.loc 1 178 0
  84 005a 5068     		ldr	r0, [r2, #4]
  85 005c 00F50050 		add	r0, r0, #8192
  86 0060 31F81000 		ldrh	r0, [r1, r0, lsl #1]
  87 0064 80B2     		uxth	r0, r0
  88 0066 1881     		strh	r0, [r3, #8]	@ movhi
 179:.\Generated_Source\PSoC5/P2_IRQ.c ****             data[5] = input[5][input_ptr[1]]; 
  89              		.loc 1 179 0
  90 0068 5268     		ldr	r2, [r2, #4]
  91 006a 02F52052 		add	r2, r2, #10240
  92 006e 31F81220 		ldrh	r2, [r1, r2, lsl #1]
  93 0072 92B2     		uxth	r2, r2
  94 0074 5A81     		strh	r2, [r3, #10]	@ movhi
 180:.\Generated_Source\PSoC5/P2_IRQ.c ****             latches[1]++;
  95              		.loc 1 180 0
  96 0076 0A4A     		ldr	r2, .L6+24
  97 0078 5368     		ldr	r3, [r2, #4]
  98 007a 0133     		adds	r3, r3, #1
  99 007c 5360     		str	r3, [r2, #4]
 100              	.L3:
 181:.\Generated_Source\PSoC5/P2_IRQ.c ****         }
 182:.\Generated_Source\PSoC5/P2_IRQ.c ****         sent = 1;
 101              		.loc 1 182 0
 102 007e 0122     		movs	r2, #1
 103 0080 084B     		ldr	r3, .L6+28
ARM GAS  C:\Users\Thomas\AppData\Local\Temp\cc0ZInsp.s 			page 6


 104 0082 1A60     		str	r2, [r3]
 105              	.L1:
 106 0084 10BD     		pop	{r4, pc}
 107              	.L7:
 108 0086 00BF     		.align	2
 109              	.L6:
 110 0088 00000000 		.word	data
 111 008c 00000000 		.word	playing
 112 0090 00000000 		.word	use_timer
 113 0094 00000000 		.word	input_ptr
 114 0098 FF070080 		.word	-2147481601
 115 009c 00000000 		.word	input
 116 00a0 00000000 		.word	latches
 117 00a4 00000000 		.word	sent
 118              		.cfi_endproc
 119              	.LFE66:
 120              		.size	P2_IRQ_Interrupt, .-P2_IRQ_Interrupt
 121              		.section	.text.P2_IRQ_SetVector,"ax",%progbits
 122              		.align	2
 123              		.global	P2_IRQ_SetVector
 124              		.thumb
 125              		.thumb_func
 126              		.type	P2_IRQ_SetVector, %function
 127              	P2_IRQ_SetVector:
 128              	.LFB67:
 183:.\Generated_Source\PSoC5/P2_IRQ.c ****     }
 184:.\Generated_Source\PSoC5/P2_IRQ.c ****     /* `#END` */
 185:.\Generated_Source\PSoC5/P2_IRQ.c **** }
 186:.\Generated_Source\PSoC5/P2_IRQ.c **** 
 187:.\Generated_Source\PSoC5/P2_IRQ.c **** 
 188:.\Generated_Source\PSoC5/P2_IRQ.c **** /*******************************************************************************
 189:.\Generated_Source\PSoC5/P2_IRQ.c **** * Function Name: P2_IRQ_SetVector
 190:.\Generated_Source\PSoC5/P2_IRQ.c **** ********************************************************************************
 191:.\Generated_Source\PSoC5/P2_IRQ.c **** *
 192:.\Generated_Source\PSoC5/P2_IRQ.c **** * Summary:
 193:.\Generated_Source\PSoC5/P2_IRQ.c **** *   Change the ISR vector for the Interrupt. Note calling P2_IRQ_Start
 194:.\Generated_Source\PSoC5/P2_IRQ.c **** *   will override any effect this method would have had. To set the vector 
 195:.\Generated_Source\PSoC5/P2_IRQ.c **** *   before the component has been started use P2_IRQ_StartEx instead.
 196:.\Generated_Source\PSoC5/P2_IRQ.c **** * 
 197:.\Generated_Source\PSoC5/P2_IRQ.c **** *   When defining ISR functions, the CY_ISR and CY_ISR_PROTO macros should be 
 198:.\Generated_Source\PSoC5/P2_IRQ.c **** *   used to provide consistent definition across compilers:
 199:.\Generated_Source\PSoC5/P2_IRQ.c **** *
 200:.\Generated_Source\PSoC5/P2_IRQ.c **** *   Function definition example:
 201:.\Generated_Source\PSoC5/P2_IRQ.c **** *   CY_ISR(MyISR)
 202:.\Generated_Source\PSoC5/P2_IRQ.c **** *   {
 203:.\Generated_Source\PSoC5/P2_IRQ.c **** *   }
 204:.\Generated_Source\PSoC5/P2_IRQ.c **** *
 205:.\Generated_Source\PSoC5/P2_IRQ.c **** *   Function prototype example:
 206:.\Generated_Source\PSoC5/P2_IRQ.c **** *     CY_ISR_PROTO(MyISR);
 207:.\Generated_Source\PSoC5/P2_IRQ.c **** *
 208:.\Generated_Source\PSoC5/P2_IRQ.c **** * Parameters:
 209:.\Generated_Source\PSoC5/P2_IRQ.c **** *   address: Address of the ISR to set in the interrupt vector table.
 210:.\Generated_Source\PSoC5/P2_IRQ.c **** *
 211:.\Generated_Source\PSoC5/P2_IRQ.c **** * Return:
 212:.\Generated_Source\PSoC5/P2_IRQ.c **** *   None
 213:.\Generated_Source\PSoC5/P2_IRQ.c **** *
 214:.\Generated_Source\PSoC5/P2_IRQ.c **** *******************************************************************************/
ARM GAS  C:\Users\Thomas\AppData\Local\Temp\cc0ZInsp.s 			page 7


 215:.\Generated_Source\PSoC5/P2_IRQ.c **** void P2_IRQ_SetVector(cyisraddress address)
 216:.\Generated_Source\PSoC5/P2_IRQ.c **** {
 129              		.loc 1 216 0
 130              		.cfi_startproc
 131              		@ args = 0, pretend = 0, frame = 0
 132              		@ frame_needed = 0, uses_anonymous_args = 0
 133              		@ link register save eliminated.
 134              	.LVL3:
 217:.\Generated_Source\PSoC5/P2_IRQ.c ****     cyisraddress * ramVectorTable;
 218:.\Generated_Source\PSoC5/P2_IRQ.c **** 
 219:.\Generated_Source\PSoC5/P2_IRQ.c ****     ramVectorTable = (cyisraddress *) *CYINT_VECT_TABLE;
 135              		.loc 1 219 0
 136 0000 014B     		ldr	r3, .L9
 137 0002 1B68     		ldr	r3, [r3]
 138              	.LVL4:
 220:.\Generated_Source\PSoC5/P2_IRQ.c **** 
 221:.\Generated_Source\PSoC5/P2_IRQ.c ****     ramVectorTable[CYINT_IRQ_BASE + (uint32)P2_IRQ__INTC_NUMBER] = address;
 139              		.loc 1 221 0
 140 0004 9864     		str	r0, [r3, #72]
 141 0006 7047     		bx	lr
 142              	.L10:
 143              		.align	2
 144              	.L9:
 145 0008 08ED00E0 		.word	-536810232
 146              		.cfi_endproc
 147              	.LFE67:
 148              		.size	P2_IRQ_SetVector, .-P2_IRQ_SetVector
 149              		.section	.text.P2_IRQ_GetVector,"ax",%progbits
 150              		.align	2
 151              		.global	P2_IRQ_GetVector
 152              		.thumb
 153              		.thumb_func
 154              		.type	P2_IRQ_GetVector, %function
 155              	P2_IRQ_GetVector:
 156              	.LFB68:
 222:.\Generated_Source\PSoC5/P2_IRQ.c **** }
 223:.\Generated_Source\PSoC5/P2_IRQ.c **** 
 224:.\Generated_Source\PSoC5/P2_IRQ.c **** 
 225:.\Generated_Source\PSoC5/P2_IRQ.c **** /*******************************************************************************
 226:.\Generated_Source\PSoC5/P2_IRQ.c **** * Function Name: P2_IRQ_GetVector
 227:.\Generated_Source\PSoC5/P2_IRQ.c **** ********************************************************************************
 228:.\Generated_Source\PSoC5/P2_IRQ.c **** *
 229:.\Generated_Source\PSoC5/P2_IRQ.c **** * Summary:
 230:.\Generated_Source\PSoC5/P2_IRQ.c **** *   Gets the "address" of the current ISR vector for the Interrupt.
 231:.\Generated_Source\PSoC5/P2_IRQ.c **** *
 232:.\Generated_Source\PSoC5/P2_IRQ.c **** * Parameters:
 233:.\Generated_Source\PSoC5/P2_IRQ.c **** *   None
 234:.\Generated_Source\PSoC5/P2_IRQ.c **** *
 235:.\Generated_Source\PSoC5/P2_IRQ.c **** * Return:
 236:.\Generated_Source\PSoC5/P2_IRQ.c **** *   Address of the ISR in the interrupt vector table.
 237:.\Generated_Source\PSoC5/P2_IRQ.c **** *
 238:.\Generated_Source\PSoC5/P2_IRQ.c **** *******************************************************************************/
 239:.\Generated_Source\PSoC5/P2_IRQ.c **** cyisraddress P2_IRQ_GetVector(void)
 240:.\Generated_Source\PSoC5/P2_IRQ.c **** {
 157              		.loc 1 240 0
 158              		.cfi_startproc
 159              		@ args = 0, pretend = 0, frame = 0
ARM GAS  C:\Users\Thomas\AppData\Local\Temp\cc0ZInsp.s 			page 8


 160              		@ frame_needed = 0, uses_anonymous_args = 0
 161              		@ link register save eliminated.
 241:.\Generated_Source\PSoC5/P2_IRQ.c ****     cyisraddress * ramVectorTable;
 242:.\Generated_Source\PSoC5/P2_IRQ.c **** 
 243:.\Generated_Source\PSoC5/P2_IRQ.c ****     ramVectorTable = (cyisraddress *) *CYINT_VECT_TABLE;
 162              		.loc 1 243 0
 163 0000 014B     		ldr	r3, .L12
 164 0002 1B68     		ldr	r3, [r3]
 165              	.LVL5:
 244:.\Generated_Source\PSoC5/P2_IRQ.c **** 
 245:.\Generated_Source\PSoC5/P2_IRQ.c ****     return ramVectorTable[CYINT_IRQ_BASE + (uint32)P2_IRQ__INTC_NUMBER];
 246:.\Generated_Source\PSoC5/P2_IRQ.c **** }
 166              		.loc 1 246 0
 167 0004 986C     		ldr	r0, [r3, #72]
 168 0006 7047     		bx	lr
 169              	.L13:
 170              		.align	2
 171              	.L12:
 172 0008 08ED00E0 		.word	-536810232
 173              		.cfi_endproc
 174              	.LFE68:
 175              		.size	P2_IRQ_GetVector, .-P2_IRQ_GetVector
 176              		.section	.text.P2_IRQ_SetPriority,"ax",%progbits
 177              		.align	2
 178              		.global	P2_IRQ_SetPriority
 179              		.thumb
 180              		.thumb_func
 181              		.type	P2_IRQ_SetPriority, %function
 182              	P2_IRQ_SetPriority:
 183              	.LFB69:
 247:.\Generated_Source\PSoC5/P2_IRQ.c **** 
 248:.\Generated_Source\PSoC5/P2_IRQ.c **** 
 249:.\Generated_Source\PSoC5/P2_IRQ.c **** /*******************************************************************************
 250:.\Generated_Source\PSoC5/P2_IRQ.c **** * Function Name: P2_IRQ_SetPriority
 251:.\Generated_Source\PSoC5/P2_IRQ.c **** ********************************************************************************
 252:.\Generated_Source\PSoC5/P2_IRQ.c **** *
 253:.\Generated_Source\PSoC5/P2_IRQ.c **** * Summary:
 254:.\Generated_Source\PSoC5/P2_IRQ.c **** *   Sets the Priority of the Interrupt. 
 255:.\Generated_Source\PSoC5/P2_IRQ.c **** *
 256:.\Generated_Source\PSoC5/P2_IRQ.c **** *   Note calling P2_IRQ_Start or P2_IRQ_StartEx will 
 257:.\Generated_Source\PSoC5/P2_IRQ.c **** *   override any effect this API would have had. This API should only be called
 258:.\Generated_Source\PSoC5/P2_IRQ.c **** *   after P2_IRQ_Start or P2_IRQ_StartEx has been called. 
 259:.\Generated_Source\PSoC5/P2_IRQ.c **** *   To set the initial priority for the component, use the Design-Wide Resources
 260:.\Generated_Source\PSoC5/P2_IRQ.c **** *   Interrupt Editor.
 261:.\Generated_Source\PSoC5/P2_IRQ.c **** *
 262:.\Generated_Source\PSoC5/P2_IRQ.c **** *   Note This API has no effect on Non-maskable interrupt NMI).
 263:.\Generated_Source\PSoC5/P2_IRQ.c **** *
 264:.\Generated_Source\PSoC5/P2_IRQ.c **** * Parameters:
 265:.\Generated_Source\PSoC5/P2_IRQ.c **** *   priority: Priority of the interrupt, 0 being the highest priority
 266:.\Generated_Source\PSoC5/P2_IRQ.c **** *             PSoC 3 and PSoC 5LP: Priority is from 0 to 7.
 267:.\Generated_Source\PSoC5/P2_IRQ.c **** *             PSoC 4: Priority is from 0 to 3.
 268:.\Generated_Source\PSoC5/P2_IRQ.c **** *
 269:.\Generated_Source\PSoC5/P2_IRQ.c **** * Return:
 270:.\Generated_Source\PSoC5/P2_IRQ.c **** *   None
 271:.\Generated_Source\PSoC5/P2_IRQ.c **** *
 272:.\Generated_Source\PSoC5/P2_IRQ.c **** *******************************************************************************/
 273:.\Generated_Source\PSoC5/P2_IRQ.c **** void P2_IRQ_SetPriority(uint8 priority)
ARM GAS  C:\Users\Thomas\AppData\Local\Temp\cc0ZInsp.s 			page 9


 274:.\Generated_Source\PSoC5/P2_IRQ.c **** {
 184              		.loc 1 274 0
 185              		.cfi_startproc
 186              		@ args = 0, pretend = 0, frame = 0
 187              		@ frame_needed = 0, uses_anonymous_args = 0
 188              		@ link register save eliminated.
 189              	.LVL6:
 275:.\Generated_Source\PSoC5/P2_IRQ.c ****     *P2_IRQ_INTC_PRIOR = priority << 5;
 190              		.loc 1 275 0
 191 0000 4001     		lsls	r0, r0, #5
 192              	.LVL7:
 193 0002 C0B2     		uxtb	r0, r0
 194 0004 014B     		ldr	r3, .L15
 195 0006 1870     		strb	r0, [r3]
 196 0008 7047     		bx	lr
 197              	.L16:
 198 000a 00BF     		.align	2
 199              	.L15:
 200 000c 02E400E0 		.word	-536812542
 201              		.cfi_endproc
 202              	.LFE69:
 203              		.size	P2_IRQ_SetPriority, .-P2_IRQ_SetPriority
 204              		.section	.text.P2_IRQ_GetPriority,"ax",%progbits
 205              		.align	2
 206              		.global	P2_IRQ_GetPriority
 207              		.thumb
 208              		.thumb_func
 209              		.type	P2_IRQ_GetPriority, %function
 210              	P2_IRQ_GetPriority:
 211              	.LFB70:
 276:.\Generated_Source\PSoC5/P2_IRQ.c **** }
 277:.\Generated_Source\PSoC5/P2_IRQ.c **** 
 278:.\Generated_Source\PSoC5/P2_IRQ.c **** 
 279:.\Generated_Source\PSoC5/P2_IRQ.c **** /*******************************************************************************
 280:.\Generated_Source\PSoC5/P2_IRQ.c **** * Function Name: P2_IRQ_GetPriority
 281:.\Generated_Source\PSoC5/P2_IRQ.c **** ********************************************************************************
 282:.\Generated_Source\PSoC5/P2_IRQ.c **** *
 283:.\Generated_Source\PSoC5/P2_IRQ.c **** * Summary:
 284:.\Generated_Source\PSoC5/P2_IRQ.c **** *   Gets the Priority of the Interrupt.
 285:.\Generated_Source\PSoC5/P2_IRQ.c **** *
 286:.\Generated_Source\PSoC5/P2_IRQ.c **** * Parameters:
 287:.\Generated_Source\PSoC5/P2_IRQ.c **** *   None
 288:.\Generated_Source\PSoC5/P2_IRQ.c **** *
 289:.\Generated_Source\PSoC5/P2_IRQ.c **** * Return:
 290:.\Generated_Source\PSoC5/P2_IRQ.c **** *   Priority of the interrupt, 0 being the highest priority
 291:.\Generated_Source\PSoC5/P2_IRQ.c **** *    PSoC 3 and PSoC 5LP: Priority is from 0 to 7.
 292:.\Generated_Source\PSoC5/P2_IRQ.c **** *    PSoC 4: Priority is from 0 to 3.
 293:.\Generated_Source\PSoC5/P2_IRQ.c **** *
 294:.\Generated_Source\PSoC5/P2_IRQ.c **** *******************************************************************************/
 295:.\Generated_Source\PSoC5/P2_IRQ.c **** uint8 P2_IRQ_GetPriority(void)
 296:.\Generated_Source\PSoC5/P2_IRQ.c **** {
 212              		.loc 1 296 0
 213              		.cfi_startproc
 214              		@ args = 0, pretend = 0, frame = 0
 215              		@ frame_needed = 0, uses_anonymous_args = 0
 216              		@ link register save eliminated.
 297:.\Generated_Source\PSoC5/P2_IRQ.c ****     uint8 priority;
ARM GAS  C:\Users\Thomas\AppData\Local\Temp\cc0ZInsp.s 			page 10


 298:.\Generated_Source\PSoC5/P2_IRQ.c **** 
 299:.\Generated_Source\PSoC5/P2_IRQ.c **** 
 300:.\Generated_Source\PSoC5/P2_IRQ.c ****     priority = *P2_IRQ_INTC_PRIOR >> 5;
 217              		.loc 1 300 0
 218 0000 014B     		ldr	r3, .L18
 219 0002 1878     		ldrb	r0, [r3]	@ zero_extendqisi2
 220              	.LVL8:
 301:.\Generated_Source\PSoC5/P2_IRQ.c **** 
 302:.\Generated_Source\PSoC5/P2_IRQ.c ****     return priority;
 303:.\Generated_Source\PSoC5/P2_IRQ.c **** }
 221              		.loc 1 303 0
 222 0004 4009     		lsrs	r0, r0, #5
 223              	.LVL9:
 224 0006 7047     		bx	lr
 225              	.L19:
 226              		.align	2
 227              	.L18:
 228 0008 02E400E0 		.word	-536812542
 229              		.cfi_endproc
 230              	.LFE70:
 231              		.size	P2_IRQ_GetPriority, .-P2_IRQ_GetPriority
 232              		.section	.text.P2_IRQ_Enable,"ax",%progbits
 233              		.align	2
 234              		.global	P2_IRQ_Enable
 235              		.thumb
 236              		.thumb_func
 237              		.type	P2_IRQ_Enable, %function
 238              	P2_IRQ_Enable:
 239              	.LFB71:
 304:.\Generated_Source\PSoC5/P2_IRQ.c **** 
 305:.\Generated_Source\PSoC5/P2_IRQ.c **** 
 306:.\Generated_Source\PSoC5/P2_IRQ.c **** /*******************************************************************************
 307:.\Generated_Source\PSoC5/P2_IRQ.c **** * Function Name: P2_IRQ_Enable
 308:.\Generated_Source\PSoC5/P2_IRQ.c **** ********************************************************************************
 309:.\Generated_Source\PSoC5/P2_IRQ.c **** *
 310:.\Generated_Source\PSoC5/P2_IRQ.c **** * Summary:
 311:.\Generated_Source\PSoC5/P2_IRQ.c **** *   Enables the interrupt to the interrupt controller. Do not call this function
 312:.\Generated_Source\PSoC5/P2_IRQ.c **** *   unless ISR_Start() has been called or the functionality of the ISR_Start() 
 313:.\Generated_Source\PSoC5/P2_IRQ.c **** *   function, which sets the vector and the priority, has been called.
 314:.\Generated_Source\PSoC5/P2_IRQ.c **** *
 315:.\Generated_Source\PSoC5/P2_IRQ.c **** * Parameters:
 316:.\Generated_Source\PSoC5/P2_IRQ.c **** *   None
 317:.\Generated_Source\PSoC5/P2_IRQ.c **** *
 318:.\Generated_Source\PSoC5/P2_IRQ.c **** * Return:
 319:.\Generated_Source\PSoC5/P2_IRQ.c **** *   None
 320:.\Generated_Source\PSoC5/P2_IRQ.c **** *
 321:.\Generated_Source\PSoC5/P2_IRQ.c **** *******************************************************************************/
 322:.\Generated_Source\PSoC5/P2_IRQ.c **** void P2_IRQ_Enable(void)
 323:.\Generated_Source\PSoC5/P2_IRQ.c **** {
 240              		.loc 1 323 0
 241              		.cfi_startproc
 242              		@ args = 0, pretend = 0, frame = 0
 243              		@ frame_needed = 0, uses_anonymous_args = 0
 244              		@ link register save eliminated.
 324:.\Generated_Source\PSoC5/P2_IRQ.c ****     /* Enable the general interrupt. */
 325:.\Generated_Source\PSoC5/P2_IRQ.c ****     *P2_IRQ_INTC_SET_EN = P2_IRQ__INTC_MASK;
 245              		.loc 1 325 0
ARM GAS  C:\Users\Thomas\AppData\Local\Temp\cc0ZInsp.s 			page 11


 246 0000 0422     		movs	r2, #4
 247 0002 014B     		ldr	r3, .L21
 248 0004 1A60     		str	r2, [r3]
 249 0006 7047     		bx	lr
 250              	.L22:
 251              		.align	2
 252              	.L21:
 253 0008 00E100E0 		.word	-536813312
 254              		.cfi_endproc
 255              	.LFE71:
 256              		.size	P2_IRQ_Enable, .-P2_IRQ_Enable
 257              		.section	.text.P2_IRQ_GetState,"ax",%progbits
 258              		.align	2
 259              		.global	P2_IRQ_GetState
 260              		.thumb
 261              		.thumb_func
 262              		.type	P2_IRQ_GetState, %function
 263              	P2_IRQ_GetState:
 264              	.LFB72:
 326:.\Generated_Source\PSoC5/P2_IRQ.c **** }
 327:.\Generated_Source\PSoC5/P2_IRQ.c **** 
 328:.\Generated_Source\PSoC5/P2_IRQ.c **** 
 329:.\Generated_Source\PSoC5/P2_IRQ.c **** /*******************************************************************************
 330:.\Generated_Source\PSoC5/P2_IRQ.c **** * Function Name: P2_IRQ_GetState
 331:.\Generated_Source\PSoC5/P2_IRQ.c **** ********************************************************************************
 332:.\Generated_Source\PSoC5/P2_IRQ.c **** *
 333:.\Generated_Source\PSoC5/P2_IRQ.c **** * Summary:
 334:.\Generated_Source\PSoC5/P2_IRQ.c **** *   Gets the state (enabled, disabled) of the Interrupt.
 335:.\Generated_Source\PSoC5/P2_IRQ.c **** *
 336:.\Generated_Source\PSoC5/P2_IRQ.c **** * Parameters:
 337:.\Generated_Source\PSoC5/P2_IRQ.c **** *   None
 338:.\Generated_Source\PSoC5/P2_IRQ.c **** *
 339:.\Generated_Source\PSoC5/P2_IRQ.c **** * Return:
 340:.\Generated_Source\PSoC5/P2_IRQ.c **** *   1 if enabled, 0 if disabled.
 341:.\Generated_Source\PSoC5/P2_IRQ.c **** *
 342:.\Generated_Source\PSoC5/P2_IRQ.c **** *******************************************************************************/
 343:.\Generated_Source\PSoC5/P2_IRQ.c **** uint8 P2_IRQ_GetState(void)
 344:.\Generated_Source\PSoC5/P2_IRQ.c **** {
 265              		.loc 1 344 0
 266              		.cfi_startproc
 267              		@ args = 0, pretend = 0, frame = 0
 268              		@ frame_needed = 0, uses_anonymous_args = 0
 269              		@ link register save eliminated.
 345:.\Generated_Source\PSoC5/P2_IRQ.c ****     /* Get the state of the general interrupt. */
 346:.\Generated_Source\PSoC5/P2_IRQ.c ****     return ((*P2_IRQ_INTC_SET_EN & (uint32)P2_IRQ__INTC_MASK) != 0u) ? 1u:0u;
 270              		.loc 1 346 0
 271 0000 044B     		ldr	r3, .L26
 272 0002 1B68     		ldr	r3, [r3]
 273 0004 13F0040F 		tst	r3, #4
 274 0008 01D0     		beq	.L25
 275 000a 0120     		movs	r0, #1
 276 000c 7047     		bx	lr
 277              	.L25:
 278 000e 0020     		movs	r0, #0
 347:.\Generated_Source\PSoC5/P2_IRQ.c **** }
 279              		.loc 1 347 0
 280 0010 7047     		bx	lr
ARM GAS  C:\Users\Thomas\AppData\Local\Temp\cc0ZInsp.s 			page 12


 281              	.L27:
 282 0012 00BF     		.align	2
 283              	.L26:
 284 0014 00E100E0 		.word	-536813312
 285              		.cfi_endproc
 286              	.LFE72:
 287              		.size	P2_IRQ_GetState, .-P2_IRQ_GetState
 288              		.section	.text.P2_IRQ_Disable,"ax",%progbits
 289              		.align	2
 290              		.global	P2_IRQ_Disable
 291              		.thumb
 292              		.thumb_func
 293              		.type	P2_IRQ_Disable, %function
 294              	P2_IRQ_Disable:
 295              	.LFB73:
 348:.\Generated_Source\PSoC5/P2_IRQ.c **** 
 349:.\Generated_Source\PSoC5/P2_IRQ.c **** 
 350:.\Generated_Source\PSoC5/P2_IRQ.c **** /*******************************************************************************
 351:.\Generated_Source\PSoC5/P2_IRQ.c **** * Function Name: P2_IRQ_Disable
 352:.\Generated_Source\PSoC5/P2_IRQ.c **** ********************************************************************************
 353:.\Generated_Source\PSoC5/P2_IRQ.c **** *
 354:.\Generated_Source\PSoC5/P2_IRQ.c **** * Summary:
 355:.\Generated_Source\PSoC5/P2_IRQ.c **** *   Disables the Interrupt in the interrupt controller.
 356:.\Generated_Source\PSoC5/P2_IRQ.c **** *
 357:.\Generated_Source\PSoC5/P2_IRQ.c **** * Parameters:
 358:.\Generated_Source\PSoC5/P2_IRQ.c **** *   None
 359:.\Generated_Source\PSoC5/P2_IRQ.c **** *
 360:.\Generated_Source\PSoC5/P2_IRQ.c **** * Return:
 361:.\Generated_Source\PSoC5/P2_IRQ.c **** *   None
 362:.\Generated_Source\PSoC5/P2_IRQ.c **** *
 363:.\Generated_Source\PSoC5/P2_IRQ.c **** *******************************************************************************/
 364:.\Generated_Source\PSoC5/P2_IRQ.c **** void P2_IRQ_Disable(void)
 365:.\Generated_Source\PSoC5/P2_IRQ.c **** {
 296              		.loc 1 365 0
 297              		.cfi_startproc
 298              		@ args = 0, pretend = 0, frame = 0
 299              		@ frame_needed = 0, uses_anonymous_args = 0
 300              		@ link register save eliminated.
 366:.\Generated_Source\PSoC5/P2_IRQ.c ****     /* Disable the general interrupt. */
 367:.\Generated_Source\PSoC5/P2_IRQ.c ****     *P2_IRQ_INTC_CLR_EN = P2_IRQ__INTC_MASK;
 301              		.loc 1 367 0
 302 0000 0422     		movs	r2, #4
 303 0002 014B     		ldr	r3, .L29
 304 0004 1A60     		str	r2, [r3]
 305 0006 7047     		bx	lr
 306              	.L30:
 307              		.align	2
 308              	.L29:
 309 0008 80E100E0 		.word	-536813184
 310              		.cfi_endproc
 311              	.LFE73:
 312              		.size	P2_IRQ_Disable, .-P2_IRQ_Disable
 313              		.section	.text.P2_IRQ_Start,"ax",%progbits
 314              		.align	2
 315              		.global	P2_IRQ_Start
 316              		.thumb
 317              		.thumb_func
ARM GAS  C:\Users\Thomas\AppData\Local\Temp\cc0ZInsp.s 			page 13


 318              		.type	P2_IRQ_Start, %function
 319              	P2_IRQ_Start:
 320              	.LFB63:
  62:.\Generated_Source\PSoC5/P2_IRQ.c ****     /* For all we know the interrupt is active. */
 321              		.loc 1 62 0
 322              		.cfi_startproc
 323              		@ args = 0, pretend = 0, frame = 0
 324              		@ frame_needed = 0, uses_anonymous_args = 0
 325 0000 08B5     		push	{r3, lr}
 326              		.cfi_def_cfa_offset 8
 327              		.cfi_offset 3, -8
 328              		.cfi_offset 14, -4
  64:.\Generated_Source\PSoC5/P2_IRQ.c **** 
 329              		.loc 1 64 0
 330 0002 FFF7FEFF 		bl	P2_IRQ_Disable
 331              	.LVL10:
  67:.\Generated_Source\PSoC5/P2_IRQ.c **** 
 332              		.loc 1 67 0
 333 0006 0448     		ldr	r0, .L33
 334 0008 FFF7FEFF 		bl	P2_IRQ_SetVector
 335              	.LVL11:
  70:.\Generated_Source\PSoC5/P2_IRQ.c **** 
 336              		.loc 1 70 0
 337 000c 0020     		movs	r0, #0
 338 000e FFF7FEFF 		bl	P2_IRQ_SetPriority
 339              	.LVL12:
  73:.\Generated_Source\PSoC5/P2_IRQ.c **** }
 340              		.loc 1 73 0
 341 0012 FFF7FEFF 		bl	P2_IRQ_Enable
 342              	.LVL13:
 343 0016 08BD     		pop	{r3, pc}
 344              	.L34:
 345              		.align	2
 346              	.L33:
 347 0018 00000000 		.word	P2_IRQ_Interrupt
 348              		.cfi_endproc
 349              	.LFE63:
 350              		.size	P2_IRQ_Start, .-P2_IRQ_Start
 351              		.section	.text.P2_IRQ_StartEx,"ax",%progbits
 352              		.align	2
 353              		.global	P2_IRQ_StartEx
 354              		.thumb
 355              		.thumb_func
 356              		.type	P2_IRQ_StartEx, %function
 357              	P2_IRQ_StartEx:
 358              	.LFB64:
 105:.\Generated_Source\PSoC5/P2_IRQ.c ****     /* For all we know the interrupt is active. */
 359              		.loc 1 105 0
 360              		.cfi_startproc
 361              		@ args = 0, pretend = 0, frame = 0
 362              		@ frame_needed = 0, uses_anonymous_args = 0
 363              	.LVL14:
 364 0000 10B5     		push	{r4, lr}
 365              		.cfi_def_cfa_offset 8
 366              		.cfi_offset 4, -8
 367              		.cfi_offset 14, -4
 368 0002 0446     		mov	r4, r0
ARM GAS  C:\Users\Thomas\AppData\Local\Temp\cc0ZInsp.s 			page 14


 107:.\Generated_Source\PSoC5/P2_IRQ.c **** 
 369              		.loc 1 107 0
 370 0004 FFF7FEFF 		bl	P2_IRQ_Disable
 371              	.LVL15:
 110:.\Generated_Source\PSoC5/P2_IRQ.c **** 
 372              		.loc 1 110 0
 373 0008 2046     		mov	r0, r4
 374 000a FFF7FEFF 		bl	P2_IRQ_SetVector
 375              	.LVL16:
 113:.\Generated_Source\PSoC5/P2_IRQ.c **** 
 376              		.loc 1 113 0
 377 000e 0020     		movs	r0, #0
 378 0010 FFF7FEFF 		bl	P2_IRQ_SetPriority
 379              	.LVL17:
 116:.\Generated_Source\PSoC5/P2_IRQ.c **** }
 380              		.loc 1 116 0
 381 0014 FFF7FEFF 		bl	P2_IRQ_Enable
 382              	.LVL18:
 383 0018 10BD     		pop	{r4, pc}
 384              		.cfi_endproc
 385              	.LFE64:
 386              		.size	P2_IRQ_StartEx, .-P2_IRQ_StartEx
 387 001a 00BF     		.section	.text.P2_IRQ_Stop,"ax",%progbits
 388              		.align	2
 389              		.global	P2_IRQ_Stop
 390              		.thumb
 391              		.thumb_func
 392              		.type	P2_IRQ_Stop, %function
 393              	P2_IRQ_Stop:
 394              	.LFB65:
 135:.\Generated_Source\PSoC5/P2_IRQ.c ****     /* Disable this interrupt. */
 395              		.loc 1 135 0
 396              		.cfi_startproc
 397              		@ args = 0, pretend = 0, frame = 0
 398              		@ frame_needed = 0, uses_anonymous_args = 0
 399 0000 08B5     		push	{r3, lr}
 400              		.cfi_def_cfa_offset 8
 401              		.cfi_offset 3, -8
 402              		.cfi_offset 14, -4
 137:.\Generated_Source\PSoC5/P2_IRQ.c **** 
 403              		.loc 1 137 0
 404 0002 FFF7FEFF 		bl	P2_IRQ_Disable
 405              	.LVL19:
 140:.\Generated_Source\PSoC5/P2_IRQ.c **** }
 406              		.loc 1 140 0
 407 0006 0248     		ldr	r0, .L39
 408 0008 FFF7FEFF 		bl	P2_IRQ_SetVector
 409              	.LVL20:
 410 000c 08BD     		pop	{r3, pc}
 411              	.L40:
 412 000e 00BF     		.align	2
 413              	.L39:
 414 0010 00000000 		.word	IntDefaultHandler
 415              		.cfi_endproc
 416              	.LFE65:
 417              		.size	P2_IRQ_Stop, .-P2_IRQ_Stop
 418              		.section	.text.P2_IRQ_SetPending,"ax",%progbits
ARM GAS  C:\Users\Thomas\AppData\Local\Temp\cc0ZInsp.s 			page 15


 419              		.align	2
 420              		.global	P2_IRQ_SetPending
 421              		.thumb
 422              		.thumb_func
 423              		.type	P2_IRQ_SetPending, %function
 424              	P2_IRQ_SetPending:
 425              	.LFB74:
 368:.\Generated_Source\PSoC5/P2_IRQ.c **** }
 369:.\Generated_Source\PSoC5/P2_IRQ.c **** 
 370:.\Generated_Source\PSoC5/P2_IRQ.c **** 
 371:.\Generated_Source\PSoC5/P2_IRQ.c **** /*******************************************************************************
 372:.\Generated_Source\PSoC5/P2_IRQ.c **** * Function Name: P2_IRQ_SetPending
 373:.\Generated_Source\PSoC5/P2_IRQ.c **** ********************************************************************************
 374:.\Generated_Source\PSoC5/P2_IRQ.c **** *
 375:.\Generated_Source\PSoC5/P2_IRQ.c **** * Summary:
 376:.\Generated_Source\PSoC5/P2_IRQ.c **** *   Causes the Interrupt to enter the pending state, a software method of
 377:.\Generated_Source\PSoC5/P2_IRQ.c **** *   generating the interrupt.
 378:.\Generated_Source\PSoC5/P2_IRQ.c **** *
 379:.\Generated_Source\PSoC5/P2_IRQ.c **** * Parameters:
 380:.\Generated_Source\PSoC5/P2_IRQ.c **** *   None
 381:.\Generated_Source\PSoC5/P2_IRQ.c **** *
 382:.\Generated_Source\PSoC5/P2_IRQ.c **** * Return:
 383:.\Generated_Source\PSoC5/P2_IRQ.c **** *   None
 384:.\Generated_Source\PSoC5/P2_IRQ.c **** *
 385:.\Generated_Source\PSoC5/P2_IRQ.c **** * Side Effects:
 386:.\Generated_Source\PSoC5/P2_IRQ.c **** *   If interrupts are enabled and the interrupt is set up properly, the ISR is
 387:.\Generated_Source\PSoC5/P2_IRQ.c **** *   entered (depending on the priority of this interrupt and other pending 
 388:.\Generated_Source\PSoC5/P2_IRQ.c **** *   interrupts).
 389:.\Generated_Source\PSoC5/P2_IRQ.c **** *
 390:.\Generated_Source\PSoC5/P2_IRQ.c **** *******************************************************************************/
 391:.\Generated_Source\PSoC5/P2_IRQ.c **** void P2_IRQ_SetPending(void)
 392:.\Generated_Source\PSoC5/P2_IRQ.c **** {
 426              		.loc 1 392 0
 427              		.cfi_startproc
 428              		@ args = 0, pretend = 0, frame = 0
 429              		@ frame_needed = 0, uses_anonymous_args = 0
 430              		@ link register save eliminated.
 393:.\Generated_Source\PSoC5/P2_IRQ.c ****     *P2_IRQ_INTC_SET_PD = P2_IRQ__INTC_MASK;
 431              		.loc 1 393 0
 432 0000 0422     		movs	r2, #4
 433 0002 014B     		ldr	r3, .L42
 434 0004 1A60     		str	r2, [r3]
 435 0006 7047     		bx	lr
 436              	.L43:
 437              		.align	2
 438              	.L42:
 439 0008 00E200E0 		.word	-536813056
 440              		.cfi_endproc
 441              	.LFE74:
 442              		.size	P2_IRQ_SetPending, .-P2_IRQ_SetPending
 443              		.section	.text.P2_IRQ_ClearPending,"ax",%progbits
 444              		.align	2
 445              		.global	P2_IRQ_ClearPending
 446              		.thumb
 447              		.thumb_func
 448              		.type	P2_IRQ_ClearPending, %function
 449              	P2_IRQ_ClearPending:
ARM GAS  C:\Users\Thomas\AppData\Local\Temp\cc0ZInsp.s 			page 16


 450              	.LFB75:
 394:.\Generated_Source\PSoC5/P2_IRQ.c **** }
 395:.\Generated_Source\PSoC5/P2_IRQ.c **** 
 396:.\Generated_Source\PSoC5/P2_IRQ.c **** 
 397:.\Generated_Source\PSoC5/P2_IRQ.c **** /*******************************************************************************
 398:.\Generated_Source\PSoC5/P2_IRQ.c **** * Function Name: P2_IRQ_ClearPending
 399:.\Generated_Source\PSoC5/P2_IRQ.c **** ********************************************************************************
 400:.\Generated_Source\PSoC5/P2_IRQ.c **** *
 401:.\Generated_Source\PSoC5/P2_IRQ.c **** * Summary:
 402:.\Generated_Source\PSoC5/P2_IRQ.c **** *   Clears a pending interrupt in the interrupt controller.
 403:.\Generated_Source\PSoC5/P2_IRQ.c **** *
 404:.\Generated_Source\PSoC5/P2_IRQ.c **** *   Note Some interrupt sources are clear-on-read and require the block 
 405:.\Generated_Source\PSoC5/P2_IRQ.c **** *   interrupt/status register to be read/cleared with the appropriate block API 
 406:.\Generated_Source\PSoC5/P2_IRQ.c **** *   (GPIO, UART, and so on). Otherwise the ISR will continue to remain in 
 407:.\Generated_Source\PSoC5/P2_IRQ.c **** *   pending state even though the interrupt itself is cleared using this API.
 408:.\Generated_Source\PSoC5/P2_IRQ.c **** *
 409:.\Generated_Source\PSoC5/P2_IRQ.c **** * Parameters:
 410:.\Generated_Source\PSoC5/P2_IRQ.c **** *   None
 411:.\Generated_Source\PSoC5/P2_IRQ.c **** *
 412:.\Generated_Source\PSoC5/P2_IRQ.c **** * Return:
 413:.\Generated_Source\PSoC5/P2_IRQ.c **** *   None
 414:.\Generated_Source\PSoC5/P2_IRQ.c **** *
 415:.\Generated_Source\PSoC5/P2_IRQ.c **** *******************************************************************************/
 416:.\Generated_Source\PSoC5/P2_IRQ.c **** void P2_IRQ_ClearPending(void)
 417:.\Generated_Source\PSoC5/P2_IRQ.c **** {
 451              		.loc 1 417 0
 452              		.cfi_startproc
 453              		@ args = 0, pretend = 0, frame = 0
 454              		@ frame_needed = 0, uses_anonymous_args = 0
 455              		@ link register save eliminated.
 418:.\Generated_Source\PSoC5/P2_IRQ.c ****     *P2_IRQ_INTC_CLR_PD = P2_IRQ__INTC_MASK;
 456              		.loc 1 418 0
 457 0000 0422     		movs	r2, #4
 458 0002 014B     		ldr	r3, .L45
 459 0004 1A60     		str	r2, [r3]
 460 0006 7047     		bx	lr
 461              	.L46:
 462              		.align	2
 463              	.L45:
 464 0008 80E200E0 		.word	-536812928
 465              		.cfi_endproc
 466              	.LFE75:
 467              		.size	P2_IRQ_ClearPending, .-P2_IRQ_ClearPending
 468              		.comm	request,8,4
 469              		.comm	lines,4,4
 470              		.comm	ports,4,4
 471              		.comm	latches,8,4
 472              		.comm	window_off,8,4
 473              		.comm	bytes,4,4
 474              		.comm	disable_timer,8,4
 475              		.comm	use_timer,8,4
 476              		.comm	timer_ready,8,4
 477              		.comm	ready,4,4
 478              		.comm	input,24576,4
 479              		.comm	data,12,4
 480              		.comm	buf_ptr,8,4
 481              		.comm	input_ptr,8,4
ARM GAS  C:\Users\Thomas\AppData\Local\Temp\cc0ZInsp.s 			page 17


 482              		.comm	playing,4,4
 483              		.comm	sent,4,4
 484              		.text
 485              	.Letext0:
 486              		.file 2 "c:\\program files (x86)\\cypress\\psoc creator\\3.3\\psoc creator\\import\\gnu\\arm\\4.9.
 487              		.file 3 "c:\\program files (x86)\\cypress\\psoc creator\\3.3\\psoc creator\\import\\gnu\\arm\\4.9.
 488              		.file 4 "Generated_Source\\PSoC5/cytypes.h"
 489              		.file 5 "Generated_Source\\PSoC5/core_cm3.h"
 490              		.file 6 "./main.h"
 491              		.file 7 "Generated_Source\\PSoC5/P2_RegD0.h"
 492              		.file 8 "Generated_Source\\PSoC5/P2_RegD1.h"
 493              		.file 9 "Generated_Source\\PSoC5/P2_RegD2.h"