ARM GAS  C:\Users\Thomas\AppData\Local\Temp\ccHSNeoG.s 			page 1


   1              		.syntax unified
   2              		.cpu cortex-m3
   3              		.fpu softvfp
   4              		.eabi_attribute 20, 1
   5              		.eabi_attribute 21, 1
   6              		.eabi_attribute 23, 3
   7              		.eabi_attribute 24, 1
   8              		.eabi_attribute 25, 1
   9              		.eabi_attribute 26, 1
  10              		.eabi_attribute 30, 1
  11              		.eabi_attribute 34, 1
  12              		.eabi_attribute 18, 4
  13              		.thumb
  14              		.file	"USBUART_1.c"
  15              		.text
  16              	.Ltext0:
  17              		.cfi_sections	.debug_frame
  18              		.section	.text.USBUART_1_Init,"ax",%progbits
  19              		.align	2
  20              		.global	USBUART_1_Init
  21              		.thumb
  22              		.thumb_func
  23              		.type	USBUART_1_Init, %function
  24              	USBUART_1_Init:
  25              	.LFB1:
  26              		.file 1 ".\\Generated_Source\\PSoC5\\USBUART_1.c"
   1:.\Generated_Source\PSoC5/USBUART_1.c **** /***************************************************************************//**
   2:.\Generated_Source\PSoC5/USBUART_1.c **** * \file USBUART_1.c
   3:.\Generated_Source\PSoC5/USBUART_1.c **** * \version 3.0
   4:.\Generated_Source\PSoC5/USBUART_1.c **** *
   5:.\Generated_Source\PSoC5/USBUART_1.c **** * \brief
   6:.\Generated_Source\PSoC5/USBUART_1.c **** *  This file contains the global USBFS API functions.
   7:.\Generated_Source\PSoC5/USBUART_1.c **** *
   8:.\Generated_Source\PSoC5/USBUART_1.c **** * Note:
   9:.\Generated_Source\PSoC5/USBUART_1.c **** *  Many of the functions use an endpoint number. SRAM arrays are sized with 9
  10:.\Generated_Source\PSoC5/USBUART_1.c **** *  elements, so they are indexed directly by epNumber.  The SIE and ARB
  11:.\Generated_Source\PSoC5/USBUART_1.c **** *  registers are indexed by variations of epNumber - 1.
  12:.\Generated_Source\PSoC5/USBUART_1.c **** *
  13:.\Generated_Source\PSoC5/USBUART_1.c **** ********************************************************************************
  14:.\Generated_Source\PSoC5/USBUART_1.c **** * \copyright
  15:.\Generated_Source\PSoC5/USBUART_1.c **** * Copyright 2008-2015, Cypress Semiconductor Corporation.  All rights reserved.
  16:.\Generated_Source\PSoC5/USBUART_1.c **** * You may use this file only in accordance with the license, terms, conditions,
  17:.\Generated_Source\PSoC5/USBUART_1.c **** * disclaimers, and limitations in the end user license agreement accompanying
  18:.\Generated_Source\PSoC5/USBUART_1.c **** * the software package with which this file was provided.
  19:.\Generated_Source\PSoC5/USBUART_1.c **** *******************************************************************************/
  20:.\Generated_Source\PSoC5/USBUART_1.c **** 
  21:.\Generated_Source\PSoC5/USBUART_1.c **** #include "USBUART_1_pvt.h"
  22:.\Generated_Source\PSoC5/USBUART_1.c **** #include "USBUART_1_cydmac.h"
  23:.\Generated_Source\PSoC5/USBUART_1.c **** #include "USBUART_1_hid.h"
  24:.\Generated_Source\PSoC5/USBUART_1.c **** 
  25:.\Generated_Source\PSoC5/USBUART_1.c **** 
  26:.\Generated_Source\PSoC5/USBUART_1.c **** /***************************************
  27:.\Generated_Source\PSoC5/USBUART_1.c **** * Global data allocation
  28:.\Generated_Source\PSoC5/USBUART_1.c **** ***************************************/
  29:.\Generated_Source\PSoC5/USBUART_1.c **** 
  30:.\Generated_Source\PSoC5/USBUART_1.c **** /** Indicates whether the USBFS has been initialized. The variable is
  31:.\Generated_Source\PSoC5/USBUART_1.c **** * initialized to 0 after device reset and set to 1 the first time USBFS_Start()
ARM GAS  C:\Users\Thomas\AppData\Local\Temp\ccHSNeoG.s 			page 2


  32:.\Generated_Source\PSoC5/USBUART_1.c **** * is called. This allows the Component to restart without reinitialization after
  33:.\Generated_Source\PSoC5/USBUART_1.c **** * the first call to the USBFS_Start() routine.
  34:.\Generated_Source\PSoC5/USBUART_1.c **** * If re-initialization of the Component is required, the variable should be set
  35:.\Generated_Source\PSoC5/USBUART_1.c **** * to 0 before the USBFS_Start() routine is called. Alternatively, the USBFS can
  36:.\Generated_Source\PSoC5/USBUART_1.c **** * be reinitialized by calling both USBFS_Init() and USBFS_InitComponent()
  37:.\Generated_Source\PSoC5/USBUART_1.c **** * functions.
  38:.\Generated_Source\PSoC5/USBUART_1.c **** */
  39:.\Generated_Source\PSoC5/USBUART_1.c **** uint8 USBUART_1_initVar = 0u;
  40:.\Generated_Source\PSoC5/USBUART_1.c **** 
  41:.\Generated_Source\PSoC5/USBUART_1.c **** #if (USBUART_1_EP_MANAGEMENT_DMA)
  42:.\Generated_Source\PSoC5/USBUART_1.c ****     #if (CY_PSOC4)
  43:.\Generated_Source\PSoC5/USBUART_1.c ****         static void USBUART_1_InitEpDma(void);
  44:.\Generated_Source\PSoC5/USBUART_1.c **** 
  45:.\Generated_Source\PSoC5/USBUART_1.c ****         /* DMA chanels assigend for endpoints. */
  46:.\Generated_Source\PSoC5/USBUART_1.c ****         const uint8 USBUART_1_DmaChan[USBUART_1_MAX_EP] =
  47:.\Generated_Source\PSoC5/USBUART_1.c ****         {
  48:.\Generated_Source\PSoC5/USBUART_1.c ****             0u,
  49:.\Generated_Source\PSoC5/USBUART_1.c ****             0u,
  50:.\Generated_Source\PSoC5/USBUART_1.c ****             0u,
  51:.\Generated_Source\PSoC5/USBUART_1.c ****             0u,
  52:.\Generated_Source\PSoC5/USBUART_1.c ****             0u,
  53:.\Generated_Source\PSoC5/USBUART_1.c ****             0u,
  54:.\Generated_Source\PSoC5/USBUART_1.c ****             0u,
  55:.\Generated_Source\PSoC5/USBUART_1.c ****             0u,
  56:.\Generated_Source\PSoC5/USBUART_1.c ****             0u,
  57:.\Generated_Source\PSoC5/USBUART_1.c ****         };        
  58:.\Generated_Source\PSoC5/USBUART_1.c ****     #else
  59:.\Generated_Source\PSoC5/USBUART_1.c ****         /* DMA chanels assigend for endpoints. */
  60:.\Generated_Source\PSoC5/USBUART_1.c ****         uint8 USBUART_1_DmaChan[USBUART_1_MAX_EP];
  61:.\Generated_Source\PSoC5/USBUART_1.c ****         
  62:.\Generated_Source\PSoC5/USBUART_1.c ****         /* DMA TDs require for PSoC 3/5LP operation. */
  63:.\Generated_Source\PSoC5/USBUART_1.c ****         uint8 USBUART_1_DmaTd[USBUART_1_MAX_EP];
  64:.\Generated_Source\PSoC5/USBUART_1.c ****     #endif /* (CY_PSOC4) */
  65:.\Generated_Source\PSoC5/USBUART_1.c **** #endif /* (USBUART_1_EP_MANAGEMENT_DMA) */
  66:.\Generated_Source\PSoC5/USBUART_1.c **** 
  67:.\Generated_Source\PSoC5/USBUART_1.c **** #if (USBUART_1_EP_MANAGEMENT_DMA_AUTO)
  68:.\Generated_Source\PSoC5/USBUART_1.c **** #if (CY_PSOC4)
  69:.\Generated_Source\PSoC5/USBUART_1.c ****     /* Number of DMA bursts. */
  70:.\Generated_Source\PSoC5/USBUART_1.c ****     uint8  USBUART_1_DmaEpBurstCnt   [USBUART_1_MAX_EP];
  71:.\Generated_Source\PSoC5/USBUART_1.c ****     
  72:.\Generated_Source\PSoC5/USBUART_1.c ****     /* Number of bytes to transfer in last DMA burst. */
  73:.\Generated_Source\PSoC5/USBUART_1.c ****     uint8  USBUART_1_DmaEpLastBurstEl[USBUART_1_MAX_EP];
  74:.\Generated_Source\PSoC5/USBUART_1.c **** 
  75:.\Generated_Source\PSoC5/USBUART_1.c ****     /* Storage for arrays above. */
  76:.\Generated_Source\PSoC5/USBUART_1.c ****     uint8  USBUART_1_DmaEpBurstCntBackup  [USBUART_1_MAX_EP];
  77:.\Generated_Source\PSoC5/USBUART_1.c ****     uint32 USBUART_1_DmaEpBufferAddrBackup[USBUART_1_MAX_EP];
  78:.\Generated_Source\PSoC5/USBUART_1.c ****      
  79:.\Generated_Source\PSoC5/USBUART_1.c ****     /* DMA trigger mux output for usb.dma_req[0-7]. */
  80:.\Generated_Source\PSoC5/USBUART_1.c ****     const uint8 USBUART_1_DmaReqOut[USBUART_1_MAX_EP] =
  81:.\Generated_Source\PSoC5/USBUART_1.c ****     {
  82:.\Generated_Source\PSoC5/USBUART_1.c ****         0u,
  83:.\Generated_Source\PSoC5/USBUART_1.c ****         USBUART_1_ep1_dma__TR_OUTPUT,
  84:.\Generated_Source\PSoC5/USBUART_1.c ****         USBUART_1_ep2_dma__TR_OUTPUT,
  85:.\Generated_Source\PSoC5/USBUART_1.c ****         USBUART_1_ep3_dma__TR_OUTPUT,
  86:.\Generated_Source\PSoC5/USBUART_1.c ****         0u,
  87:.\Generated_Source\PSoC5/USBUART_1.c ****         0u,
  88:.\Generated_Source\PSoC5/USBUART_1.c ****         0u,
ARM GAS  C:\Users\Thomas\AppData\Local\Temp\ccHSNeoG.s 			page 3


  89:.\Generated_Source\PSoC5/USBUART_1.c ****         0u,
  90:.\Generated_Source\PSoC5/USBUART_1.c ****         0u,
  91:.\Generated_Source\PSoC5/USBUART_1.c ****     };
  92:.\Generated_Source\PSoC5/USBUART_1.c **** 
  93:.\Generated_Source\PSoC5/USBUART_1.c ****     /* DMA trigger mux output for usb.dma_burstend[0-7]. */
  94:.\Generated_Source\PSoC5/USBUART_1.c ****     const uint8 USBUART_1_DmaBurstEndOut[USBUART_1_MAX_EP] =
  95:.\Generated_Source\PSoC5/USBUART_1.c ****     {
  96:.\Generated_Source\PSoC5/USBUART_1.c ****         0u,
  97:.\Generated_Source\PSoC5/USBUART_1.c ****         USBUART_1_BURSTEND_0_TR_OUTPUT,
  98:.\Generated_Source\PSoC5/USBUART_1.c ****         USBUART_1_BURSTEND_1_TR_OUTPUT,
  99:.\Generated_Source\PSoC5/USBUART_1.c ****         USBUART_1_BURSTEND_2_TR_OUTPUT,
 100:.\Generated_Source\PSoC5/USBUART_1.c ****         USBUART_1_BURSTEND_3_TR_OUTPUT,
 101:.\Generated_Source\PSoC5/USBUART_1.c ****         USBUART_1_BURSTEND_4_TR_OUTPUT,
 102:.\Generated_Source\PSoC5/USBUART_1.c ****         USBUART_1_BURSTEND_5_TR_OUTPUT,
 103:.\Generated_Source\PSoC5/USBUART_1.c ****         USBUART_1_BURSTEND_6_TR_OUTPUT,
 104:.\Generated_Source\PSoC5/USBUART_1.c ****         USBUART_1_BURSTEND_7_TR_OUTPUT
 105:.\Generated_Source\PSoC5/USBUART_1.c ****     };
 106:.\Generated_Source\PSoC5/USBUART_1.c ****     
 107:.\Generated_Source\PSoC5/USBUART_1.c **** #else
 108:.\Generated_Source\PSoC5/USBUART_1.c ****     #if (USBUART_1_EP_DMA_AUTO_OPT == 0u)
 109:.\Generated_Source\PSoC5/USBUART_1.c ****         static uint8 clearInDataRdyStatus = USBUART_1_ARB_EPX_CFG_DEFAULT;
 110:.\Generated_Source\PSoC5/USBUART_1.c ****         uint8 USBUART_1_DmaNextTd[USBUART_1_MAX_EP];
 111:.\Generated_Source\PSoC5/USBUART_1.c ****         const uint8 USBUART_1_epX_TD_TERMOUT_EN[USBUART_1_MAX_EP] =
 112:.\Generated_Source\PSoC5/USBUART_1.c ****         {
 113:.\Generated_Source\PSoC5/USBUART_1.c ****             0u,
 114:.\Generated_Source\PSoC5/USBUART_1.c ****             0u,
 115:.\Generated_Source\PSoC5/USBUART_1.c ****             0u,
 116:.\Generated_Source\PSoC5/USBUART_1.c ****             0u,
 117:.\Generated_Source\PSoC5/USBUART_1.c ****             0u,
 118:.\Generated_Source\PSoC5/USBUART_1.c ****             0u,
 119:.\Generated_Source\PSoC5/USBUART_1.c ****             0u,
 120:.\Generated_Source\PSoC5/USBUART_1.c ****             0u,
 121:.\Generated_Source\PSoC5/USBUART_1.c ****             0u,
 122:.\Generated_Source\PSoC5/USBUART_1.c ****         };
 123:.\Generated_Source\PSoC5/USBUART_1.c **** 
 124:.\Generated_Source\PSoC5/USBUART_1.c ****         volatile uint16 USBUART_1_inLength[USBUART_1_MAX_EP];
 125:.\Generated_Source\PSoC5/USBUART_1.c ****         const uint8 *USBUART_1_inDataPointer[USBUART_1_MAX_EP];
 126:.\Generated_Source\PSoC5/USBUART_1.c ****         volatile uint8 USBUART_1_inBufFull[USBUART_1_MAX_EP];
 127:.\Generated_Source\PSoC5/USBUART_1.c ****     #endif /* (USBUART_1_EP_DMA_AUTO_OPT == 0u) */
 128:.\Generated_Source\PSoC5/USBUART_1.c **** #endif /* (CY_PSOC4) */
 129:.\Generated_Source\PSoC5/USBUART_1.c **** #endif /* (USBUART_1_EP_MANAGEMENT_DMA_AUTO) */
 130:.\Generated_Source\PSoC5/USBUART_1.c **** 
 131:.\Generated_Source\PSoC5/USBUART_1.c **** 
 132:.\Generated_Source\PSoC5/USBUART_1.c **** /*******************************************************************************
 133:.\Generated_Source\PSoC5/USBUART_1.c **** * Function Name: USBUART_1_Start
 134:.\Generated_Source\PSoC5/USBUART_1.c **** ****************************************************************************//**
 135:.\Generated_Source\PSoC5/USBUART_1.c **** *
 136:.\Generated_Source\PSoC5/USBUART_1.c **** *   This function performs all required initialization for the USBFS component.
 137:.\Generated_Source\PSoC5/USBUART_1.c **** *   After this function call, the USB device initiates communication with the
 138:.\Generated_Source\PSoC5/USBUART_1.c **** *   host by pull-up D+ line. This is the preferred method to begin component
 139:.\Generated_Source\PSoC5/USBUART_1.c **** *   operation.
 140:.\Generated_Source\PSoC5/USBUART_1.c **** *
 141:.\Generated_Source\PSoC5/USBUART_1.c **** *   Note that global interrupts have to be enabled because interrupts are
 142:.\Generated_Source\PSoC5/USBUART_1.c **** *   required for USBFS component operation.
 143:.\Generated_Source\PSoC5/USBUART_1.c **** *
 144:.\Generated_Source\PSoC5/USBUART_1.c **** *   PSoC 4200L devices: when USBFS component configured to DMA with Automatic
 145:.\Generated_Source\PSoC5/USBUART_1.c **** *   Buffer Management, the DMA interrupt priority is changed to the highest
ARM GAS  C:\Users\Thomas\AppData\Local\Temp\ccHSNeoG.s 			page 4


 146:.\Generated_Source\PSoC5/USBUART_1.c **** *   (priority 0) inside this function.
 147:.\Generated_Source\PSoC5/USBUART_1.c **** *
 148:.\Generated_Source\PSoC5/USBUART_1.c **** *   PSoC 3/PSoC 5LP devices: when USBFS component configured to DMA with
 149:.\Generated_Source\PSoC5/USBUART_1.c **** *   Automatic Buffer Management, the Arbiter interrupt priority is changed to
 150:.\Generated_Source\PSoC5/USBUART_1.c **** *   the highest (priority 0) inside this function.
 151:.\Generated_Source\PSoC5/USBUART_1.c **** *
 152:.\Generated_Source\PSoC5/USBUART_1.c **** *  \param device
 153:.\Generated_Source\PSoC5/USBUART_1.c **** *          Contains the device number of the desired device descriptor.
 154:.\Generated_Source\PSoC5/USBUART_1.c **** *          The device number can be found in the Device Descriptor Tab of
 155:.\Generated_Source\PSoC5/USBUART_1.c **** *          "Configure" dialog, under the settings of desired Device Descriptor,
 156:.\Generated_Source\PSoC5/USBUART_1.c **** *          in the "Device Number" field.
 157:.\Generated_Source\PSoC5/USBUART_1.c **** *  \param mode:
 158:.\Generated_Source\PSoC5/USBUART_1.c **** *   The operating voltage. This determines whether the voltage regulator
 159:.\Generated_Source\PSoC5/USBUART_1.c **** *   is enabled for 5V operation or if pass through mode is used for 3.3V
 160:.\Generated_Source\PSoC5/USBUART_1.c **** *   operation. Symbolic names and their associated values are given in the
 161:.\Generated_Source\PSoC5/USBUART_1.c **** *   following list.
 162:.\Generated_Source\PSoC5/USBUART_1.c **** *
 163:.\Generated_Source\PSoC5/USBUART_1.c **** *       *USBUART_1_3V_OPERATION* - Disable voltage regulator and pass-
 164:.\Generated_Source\PSoC5/USBUART_1.c **** *                                      through Vcc for pull-up
 165:.\Generated_Source\PSoC5/USBUART_1.c **** *
 166:.\Generated_Source\PSoC5/USBUART_1.c **** *       *USBUART_1_5V_OPERATION* - Enable voltage regulator and use
 167:.\Generated_Source\PSoC5/USBUART_1.c **** *                                      regulator for pull-up
 168:.\Generated_Source\PSoC5/USBUART_1.c **** *
 169:.\Generated_Source\PSoC5/USBUART_1.c **** *       *USBUART_1_DWR_POWER_OPERATION* - Enable or disable the voltage
 170:.\Generated_Source\PSoC5/USBUART_1.c **** *                                      regulator depending on the power supply
 171:.\Generated_Source\PSoC5/USBUART_1.c **** *                                      voltage configuration in the DWR tab.
 172:.\Generated_Source\PSoC5/USBUART_1.c **** *                                      For PSoC 3/5LP devices, the VDDD supply
 173:.\Generated_Source\PSoC5/USBUART_1.c **** *                                      voltage is considered and for PSoC 4A-L,
 174:.\Generated_Source\PSoC5/USBUART_1.c **** *                                      the VBUS supply voltage is considered.*
 175:.\Generated_Source\PSoC5/USBUART_1.c **** * \globalvars
 176:.\Generated_Source\PSoC5/USBUART_1.c **** *  \ref USBUART_1_initVar
 177:.\Generated_Source\PSoC5/USBUART_1.c **** *
 178:.\Generated_Source\PSoC5/USBUART_1.c **** * \sideeffect
 179:.\Generated_Source\PSoC5/USBUART_1.c **** *   This function will reset all communication states to default.
 180:.\Generated_Source\PSoC5/USBUART_1.c **** *
 181:.\Generated_Source\PSoC5/USBUART_1.c **** * \reentrant
 182:.\Generated_Source\PSoC5/USBUART_1.c **** *  No.
 183:.\Generated_Source\PSoC5/USBUART_1.c **** *
 184:.\Generated_Source\PSoC5/USBUART_1.c **** *******************************************************************************/
 185:.\Generated_Source\PSoC5/USBUART_1.c **** void USBUART_1_Start(uint8 device, uint8 mode) 
 186:.\Generated_Source\PSoC5/USBUART_1.c **** {
 187:.\Generated_Source\PSoC5/USBUART_1.c ****     if (0u == USBUART_1_initVar)
 188:.\Generated_Source\PSoC5/USBUART_1.c ****     {
 189:.\Generated_Source\PSoC5/USBUART_1.c ****         USBUART_1_Init();
 190:.\Generated_Source\PSoC5/USBUART_1.c ****         USBUART_1_initVar = 1u;
 191:.\Generated_Source\PSoC5/USBUART_1.c ****     }
 192:.\Generated_Source\PSoC5/USBUART_1.c **** 
 193:.\Generated_Source\PSoC5/USBUART_1.c ****     USBUART_1_InitComponent(device, mode);
 194:.\Generated_Source\PSoC5/USBUART_1.c **** }
 195:.\Generated_Source\PSoC5/USBUART_1.c **** 
 196:.\Generated_Source\PSoC5/USBUART_1.c **** 
 197:.\Generated_Source\PSoC5/USBUART_1.c **** /*******************************************************************************
 198:.\Generated_Source\PSoC5/USBUART_1.c **** * Function Name: USBUART_1_Init
 199:.\Generated_Source\PSoC5/USBUART_1.c **** ****************************************************************************//**
 200:.\Generated_Source\PSoC5/USBUART_1.c **** *
 201:.\Generated_Source\PSoC5/USBUART_1.c **** * This function initializes or restores the component according to the
 202:.\Generated_Source\PSoC5/USBUART_1.c **** * customizer Configure dialog settings. It is not necessary to call
ARM GAS  C:\Users\Thomas\AppData\Local\Temp\ccHSNeoG.s 			page 5


 203:.\Generated_Source\PSoC5/USBUART_1.c **** * USBUART_1_Init() because the USBUART_1_Start() routine calls
 204:.\Generated_Source\PSoC5/USBUART_1.c **** * this function and is the preferred method to begin component operation.
 205:.\Generated_Source\PSoC5/USBUART_1.c **** *
 206:.\Generated_Source\PSoC5/USBUART_1.c **** * \reentrant
 207:.\Generated_Source\PSoC5/USBUART_1.c **** *  No.
 208:.\Generated_Source\PSoC5/USBUART_1.c **** *
 209:.\Generated_Source\PSoC5/USBUART_1.c **** *******************************************************************************/
 210:.\Generated_Source\PSoC5/USBUART_1.c **** void USBUART_1_Init(void) 
 211:.\Generated_Source\PSoC5/USBUART_1.c **** {
  27              		.loc 1 211 0
  28              		.cfi_startproc
  29              		@ args = 0, pretend = 0, frame = 0
  30              		@ frame_needed = 0, uses_anonymous_args = 0
  31 0000 F8B5     		push	{r3, r4, r5, r6, r7, lr}
  32              		.cfi_def_cfa_offset 24
  33              		.cfi_offset 3, -24
  34              		.cfi_offset 4, -20
  35              		.cfi_offset 5, -16
  36              		.cfi_offset 6, -12
  37              		.cfi_offset 7, -8
  38              		.cfi_offset 14, -4
 212:.\Generated_Source\PSoC5/USBUART_1.c **** #if (CY_PSOC4)
 213:.\Generated_Source\PSoC5/USBUART_1.c ****     /* Enable clock to USB IP. */
 214:.\Generated_Source\PSoC5/USBUART_1.c ****     USBUART_1_USB_CLK_EN_REG = USBUART_1_USB_CLK_CSR_CLK_EN;
 215:.\Generated_Source\PSoC5/USBUART_1.c **** 
 216:.\Generated_Source\PSoC5/USBUART_1.c ****     /* The internal regulator (CR1.REG_ENABLE) is enabled in
 217:.\Generated_Source\PSoC5/USBUART_1.c ****     * USBUART_1_InitComponent() if it is required.
 218:.\Generated_Source\PSoC5/USBUART_1.c ****     */
 219:.\Generated_Source\PSoC5/USBUART_1.c **** 
 220:.\Generated_Source\PSoC5/USBUART_1.c ****     /* Enable USBIO control on drive mode of D+ and D- pins. */
 221:.\Generated_Source\PSoC5/USBUART_1.c ****     USBUART_1_USBIO_CR1_REG &= ~ (uint32) USBUART_1_USBIO_CR1_IOMODE;
 222:.\Generated_Source\PSoC5/USBUART_1.c **** 
 223:.\Generated_Source\PSoC5/USBUART_1.c ****     /* Set number of LF CLK to detect UBS bus reset. */
 224:.\Generated_Source\PSoC5/USBUART_1.c ****     USBUART_1_BUS_RST_CNT_REG = USBUART_1_DEFUALT_BUS_RST_CNT;
 225:.\Generated_Source\PSoC5/USBUART_1.c **** 
 226:.\Generated_Source\PSoC5/USBUART_1.c ****     /* Select VBUS detection source and clear PHY isolate. The application level
 227:.\Generated_Source\PSoC5/USBUART_1.c ****     * must ensure that VBUS is valid. There is no need to wait 2us before VBUS is valid.
 228:.\Generated_Source\PSoC5/USBUART_1.c ****     */
 229:.\Generated_Source\PSoC5/USBUART_1.c ****     USBUART_1_POWER_CTRL_REG = USBUART_1_DEFAULT_POWER_CTRL_VBUS;
 230:.\Generated_Source\PSoC5/USBUART_1.c **** 
 231:.\Generated_Source\PSoC5/USBUART_1.c ****     /* Enable PHY detector and single-ended and differential receivers. */
 232:.\Generated_Source\PSoC5/USBUART_1.c ****     USBUART_1_POWER_CTRL_REG |= USBUART_1_DEFAULT_POWER_CTRL_PHY;
 233:.\Generated_Source\PSoC5/USBUART_1.c **** 
 234:.\Generated_Source\PSoC5/USBUART_1.c ****     /* Suspend clear sequence. */
 235:.\Generated_Source\PSoC5/USBUART_1.c ****     USBUART_1_POWER_CTRL_REG &= (uint32) ~USBUART_1_POWER_CTRL_SUSPEND;
 236:.\Generated_Source\PSoC5/USBUART_1.c ****     CyDelayUs(USBUART_1_WAIT_SUSPEND_DEL_DISABLE);
 237:.\Generated_Source\PSoC5/USBUART_1.c ****     USBUART_1_POWER_CTRL_REG &= (uint32) ~USBUART_1_POWER_CTRL_SUSPEND_DEL;
 238:.\Generated_Source\PSoC5/USBUART_1.c **** 
 239:.\Generated_Source\PSoC5/USBUART_1.c ****     /* Sets IMO lock options and clear all other bits. */
 240:.\Generated_Source\PSoC5/USBUART_1.c ****     USBUART_1_CR1_REG = USBUART_1_DEFUALT_CR1;
 241:.\Generated_Source\PSoC5/USBUART_1.c **** 
 242:.\Generated_Source\PSoC5/USBUART_1.c ****     /* Configure level (hi, lo, med) for each interrupt source. */
 243:.\Generated_Source\PSoC5/USBUART_1.c ****     USBUART_1_INTR_LVL_SEL_REG = USBUART_1_DEFAULT_INTR_LVL_SEL;
 244:.\Generated_Source\PSoC5/USBUART_1.c **** 
 245:.\Generated_Source\PSoC5/USBUART_1.c ****     /* Configure interrupt sources from: SOF, Bus Reset and EP0. */
 246:.\Generated_Source\PSoC5/USBUART_1.c ****     USBUART_1_INTR_SIE_MASK_REG = USBUART_1_DEFAULT_INTR_SIE_MASK;
 247:.\Generated_Source\PSoC5/USBUART_1.c **** 
ARM GAS  C:\Users\Thomas\AppData\Local\Temp\ccHSNeoG.s 			page 6


 248:.\Generated_Source\PSoC5/USBUART_1.c **** #else
 249:.\Generated_Source\PSoC5/USBUART_1.c ****     uint8 enableInterrupts = CyEnterCriticalSection();
  39              		.loc 1 249 0
  40 0002 FFF7FEFF 		bl	CyEnterCriticalSection
  41              	.LVL0:
  42 0006 0746     		mov	r7, r0
  43              	.LVL1:
 250:.\Generated_Source\PSoC5/USBUART_1.c **** 
 251:.\Generated_Source\PSoC5/USBUART_1.c **** #if (USBUART_1_EP_MANAGEMENT_DMA)
 252:.\Generated_Source\PSoC5/USBUART_1.c ****     uint16 i;
 253:.\Generated_Source\PSoC5/USBUART_1.c **** #endif /* (USBUART_1_EP_MANAGEMENT_DMA) */
 254:.\Generated_Source\PSoC5/USBUART_1.c **** 
 255:.\Generated_Source\PSoC5/USBUART_1.c ****     /* Enable USB block. */
 256:.\Generated_Source\PSoC5/USBUART_1.c ****     USBUART_1_PM_ACT_CFG_REG |= USBUART_1_PM_ACT_EN_FSUSB;
  44              		.loc 1 256 0
  45 0008 404A     		ldr	r2, .L3
  46 000a 1378     		ldrb	r3, [r2]	@ zero_extendqisi2
  47 000c 43F00103 		orr	r3, r3, #1
  48 0010 1370     		strb	r3, [r2]
 257:.\Generated_Source\PSoC5/USBUART_1.c ****     /* Enable USB block for Standby Power Mode. */
 258:.\Generated_Source\PSoC5/USBUART_1.c ****     USBUART_1_PM_STBY_CFG_REG |= USBUART_1_PM_STBY_EN_FSUSB;
  49              		.loc 1 258 0
  50 0012 1032     		adds	r2, r2, #16
  51 0014 1378     		ldrb	r3, [r2]	@ zero_extendqisi2
  52 0016 43F00103 		orr	r3, r3, #1
  53 001a 1370     		strb	r3, [r2]
 259:.\Generated_Source\PSoC5/USBUART_1.c **** 
 260:.\Generated_Source\PSoC5/USBUART_1.c ****     /* Enable core clock. */
 261:.\Generated_Source\PSoC5/USBUART_1.c ****     USBUART_1_USB_CLK_EN_REG = USBUART_1_USB_CLK_ENABLE;
  54              		.loc 1 261 0
  55 001c 0126     		movs	r6, #1
  56 001e 3C4B     		ldr	r3, .L3+4
  57 0020 1E70     		strb	r6, [r3]
 262:.\Generated_Source\PSoC5/USBUART_1.c **** 
 263:.\Generated_Source\PSoC5/USBUART_1.c ****     USBUART_1_CR1_REG = USBUART_1_CR1_ENABLE_LOCK;
  58              		.loc 1 263 0
  59 0022 0225     		movs	r5, #2
  60 0024 943B     		subs	r3, r3, #148
  61 0026 1D70     		strb	r5, [r3]
 264:.\Generated_Source\PSoC5/USBUART_1.c **** 
 265:.\Generated_Source\PSoC5/USBUART_1.c ****     /* ENABLING USBIO PADS IN USB MODE FROM I/O MODE. */
 266:.\Generated_Source\PSoC5/USBUART_1.c ****     /* Ensure USB transmit enable is low (USB_USBIO_CR0.ten). - Manual Transmission - Disabled. */
 267:.\Generated_Source\PSoC5/USBUART_1.c ****     USBUART_1_USBIO_CR0_REG &= (uint8) ~USBUART_1_USBIO_CR0_TEN;
  62              		.loc 1 267 0
  63 0028 02F5E252 		add	r2, r2, #7232
  64 002c 1B32     		adds	r2, r2, #27
  65 002e 1378     		ldrb	r3, [r2]	@ zero_extendqisi2
  66 0030 03F07F03 		and	r3, r3, #127
  67 0034 1370     		strb	r3, [r2]
 268:.\Generated_Source\PSoC5/USBUART_1.c ****     CyDelayUs(USBUART_1_WAIT_REG_STABILITY_50NS);  /* ~50ns delay. */
  68              		.loc 1 268 0
  69 0036 0020     		movs	r0, #0
  70 0038 FFF7FEFF 		bl	CyDelayUs
  71              	.LVL2:
 269:.\Generated_Source\PSoC5/USBUART_1.c ****     /* Disable USBIO by asserting PM.USB_CR0.fsusbio_pd_n(Inverted.
 270:.\Generated_Source\PSoC5/USBUART_1.c ****     *  high. These bits will be set low by the power manager out-of-reset.
 271:.\Generated_Source\PSoC5/USBUART_1.c ****     *  Also confirm USBIO pull-up is disabled.
ARM GAS  C:\Users\Thomas\AppData\Local\Temp\ccHSNeoG.s 			page 7


 272:.\Generated_Source\PSoC5/USBUART_1.c ****     */
 273:.\Generated_Source\PSoC5/USBUART_1.c ****     USBUART_1_PM_USB_CR0_REG &= (uint8) ~(USBUART_1_PM_USB_CR0_PD_N |
  72              		.loc 1 273 0
  73 003c 354C     		ldr	r4, .L3+8
  74 003e 2378     		ldrb	r3, [r4]	@ zero_extendqisi2
  75 0040 03F0F903 		and	r3, r3, #249
  76 0044 2370     		strb	r3, [r4]
 274:.\Generated_Source\PSoC5/USBUART_1.c ****                                                  USBUART_1_PM_USB_CR0_PD_PULLUP_N);
 275:.\Generated_Source\PSoC5/USBUART_1.c **** 
 276:.\Generated_Source\PSoC5/USBUART_1.c ****     /* Select IOMODE to USB mode. */
 277:.\Generated_Source\PSoC5/USBUART_1.c ****     USBUART_1_USBIO_CR1_REG &= (uint8) ~USBUART_1_USBIO_CR1_IOMODE;
  77              		.loc 1 277 0
  78 0046 344A     		ldr	r2, .L3+12
  79 0048 1378     		ldrb	r3, [r2]	@ zero_extendqisi2
  80 004a 03F0DF03 		and	r3, r3, #223
  81 004e 1370     		strb	r3, [r2]
 278:.\Generated_Source\PSoC5/USBUART_1.c **** 
 279:.\Generated_Source\PSoC5/USBUART_1.c ****     /* Enable USBIO reference by setting PM.USB_CR0.fsusbio_ref_en. */
 280:.\Generated_Source\PSoC5/USBUART_1.c ****     USBUART_1_PM_USB_CR0_REG |= USBUART_1_PM_USB_CR0_REF_EN;
  82              		.loc 1 280 0
  83 0050 2378     		ldrb	r3, [r4]	@ zero_extendqisi2
  84 0052 3343     		orrs	r3, r3, r6
  85 0054 2370     		strb	r3, [r4]
 281:.\Generated_Source\PSoC5/USBUART_1.c ****     /* Reference is available for 1us after regulator is enabled. */
 282:.\Generated_Source\PSoC5/USBUART_1.c ****     CyDelayUs(USBUART_1_WAIT_REG_STABILITY_1US);
  86              		.loc 1 282 0
  87 0056 3046     		mov	r0, r6
  88 0058 FFF7FEFF 		bl	CyDelayUs
  89              	.LVL3:
 283:.\Generated_Source\PSoC5/USBUART_1.c ****     /* OR 40us after power is restored. */
 284:.\Generated_Source\PSoC5/USBUART_1.c ****     CyDelayUs(USBUART_1_WAIT_VREF_RESTORE);
  90              		.loc 1 284 0
  91 005c 2820     		movs	r0, #40
  92 005e FFF7FEFF 		bl	CyDelayUs
  93              	.LVL4:
 285:.\Generated_Source\PSoC5/USBUART_1.c ****     /* Ensure single-ended disable bits are low (PRT15.INP_DIS[7:6])(input receiver enabled). */
 286:.\Generated_Source\PSoC5/USBUART_1.c ****     USBUART_1_DM_INP_DIS_REG &= (uint8) ~USBUART_1_DM_MASK;
  94              		.loc 1 286 0
  95 0062 2E4B     		ldr	r3, .L3+16
  96 0064 1A78     		ldrb	r2, [r3]	@ zero_extendqisi2
  97 0066 02F07F02 		and	r2, r2, #127
  98 006a 1A70     		strb	r2, [r3]
 287:.\Generated_Source\PSoC5/USBUART_1.c ****     USBUART_1_DP_INP_DIS_REG &= (uint8) ~USBUART_1_DP_MASK;
  99              		.loc 1 287 0
 100 006c 1A78     		ldrb	r2, [r3]	@ zero_extendqisi2
 101 006e 02F0BF02 		and	r2, r2, #191
 102 0072 1A70     		strb	r2, [r3]
 288:.\Generated_Source\PSoC5/USBUART_1.c **** 
 289:.\Generated_Source\PSoC5/USBUART_1.c ****     /* Enable USBIO. */
 290:.\Generated_Source\PSoC5/USBUART_1.c ****     USBUART_1_PM_USB_CR0_REG |= USBUART_1_PM_USB_CR0_PD_N;
 103              		.loc 1 290 0
 104 0074 2378     		ldrb	r3, [r4]	@ zero_extendqisi2
 105 0076 2B43     		orrs	r3, r3, r5
 106 0078 2370     		strb	r3, [r4]
 291:.\Generated_Source\PSoC5/USBUART_1.c ****     CyDelayUs(USBUART_1_WAIT_PD_PULLUP_N_ENABLE);
 107              		.loc 1 291 0
 108 007a 2846     		mov	r0, r5
ARM GAS  C:\Users\Thomas\AppData\Local\Temp\ccHSNeoG.s 			page 8


 109 007c FFF7FEFF 		bl	CyDelayUs
 110              	.LVL5:
 292:.\Generated_Source\PSoC5/USBUART_1.c ****     /* Set USBIO pull-up enable. */
 293:.\Generated_Source\PSoC5/USBUART_1.c ****     USBUART_1_PM_USB_CR0_REG |= USBUART_1_PM_USB_CR0_PD_PULLUP_N;
 111              		.loc 1 293 0
 112 0080 2378     		ldrb	r3, [r4]	@ zero_extendqisi2
 113 0082 43F00403 		orr	r3, r3, #4
 114 0086 2370     		strb	r3, [r4]
 294:.\Generated_Source\PSoC5/USBUART_1.c **** 
 295:.\Generated_Source\PSoC5/USBUART_1.c ****     /* Reset Arbiter Write Address register for endpoint 1. */
 296:.\Generated_Source\PSoC5/USBUART_1.c ****     CY_SET_REG8(USBUART_1_ARB_RW1_WA_PTR,     0u);
 115              		.loc 1 296 0
 116 0088 0023     		movs	r3, #0
 117 008a 254A     		ldr	r2, .L3+20
 118 008c 1370     		strb	r3, [r2]
 297:.\Generated_Source\PSoC5/USBUART_1.c ****     CY_SET_REG8(USBUART_1_ARB_RW1_WA_MSB_PTR, 0u);
 119              		.loc 1 297 0
 120 008e 0132     		adds	r2, r2, #1
 121 0090 1370     		strb	r3, [r2]
 298:.\Generated_Source\PSoC5/USBUART_1.c **** 
 299:.\Generated_Source\PSoC5/USBUART_1.c **** #if (USBUART_1_EP_MANAGEMENT_DMA)
 300:.\Generated_Source\PSoC5/USBUART_1.c ****     /* Initialize transfer descriptor. This will be used to detect DMA state - initialized or not. 
 301:.\Generated_Source\PSoC5/USBUART_1.c ****     for (i = 0u; i < USBUART_1_MAX_EP; ++i)
 302:.\Generated_Source\PSoC5/USBUART_1.c ****     {
 303:.\Generated_Source\PSoC5/USBUART_1.c ****         USBUART_1_DmaTd[i] = DMA_INVALID_TD;
 304:.\Generated_Source\PSoC5/USBUART_1.c **** 
 305:.\Generated_Source\PSoC5/USBUART_1.c ****     #if (USBUART_1_EP_MANAGEMENT_DMA_AUTO && (USBUART_1_EP_DMA_AUTO_OPT == 0u))
 306:.\Generated_Source\PSoC5/USBUART_1.c ****         USBUART_1_DmaNextTd[i] = DMA_INVALID_TD;
 307:.\Generated_Source\PSoC5/USBUART_1.c ****     #endif /* (USBUART_1_EP_MANAGEMENT_DMA_AUTO && (USBUART_1_EP_DMA_AUTO_OPT == 0u)) */
 308:.\Generated_Source\PSoC5/USBUART_1.c ****     }
 309:.\Generated_Source\PSoC5/USBUART_1.c **** #endif /* (USBUART_1_EP_MANAGEMENT_DMA) */
 310:.\Generated_Source\PSoC5/USBUART_1.c **** 
 311:.\Generated_Source\PSoC5/USBUART_1.c ****     CyExitCriticalSection(enableInterrupts);
 122              		.loc 1 311 0
 123 0092 3846     		mov	r0, r7
 124 0094 FFF7FEFF 		bl	CyExitCriticalSection
 125              	.LVL6:
 312:.\Generated_Source\PSoC5/USBUART_1.c **** #endif /* (CY_PSOC4) */
 313:.\Generated_Source\PSoC5/USBUART_1.c **** 
 314:.\Generated_Source\PSoC5/USBUART_1.c ****     /* Configure interrupts from USB block. */
 315:.\Generated_Source\PSoC5/USBUART_1.c **** #if (CY_PSOC4)
 316:.\Generated_Source\PSoC5/USBUART_1.c ****     /* Configure hi_int: set handler and priority. */
 317:.\Generated_Source\PSoC5/USBUART_1.c ****     CyIntSetPriority     (USBUART_1_INTR_HI_VECT_NUM,  USBUART_1_INTR_HI_PRIORITY);
 318:.\Generated_Source\PSoC5/USBUART_1.c ****     (void) CyIntSetVector(USBUART_1_INTR_HI_VECT_NUM, &USBUART_1_INTR_HI_ISR);
 319:.\Generated_Source\PSoC5/USBUART_1.c **** 
 320:.\Generated_Source\PSoC5/USBUART_1.c ****     /* Configure lo_int: set handler and priority. */
 321:.\Generated_Source\PSoC5/USBUART_1.c ****     CyIntSetPriority     (USBUART_1_INTR_LO_VECT_NUM,  USBUART_1_INTR_LO_PRIORITY);
 322:.\Generated_Source\PSoC5/USBUART_1.c ****     (void) CyIntSetVector(USBUART_1_INTR_LO_VECT_NUM, &USBUART_1_INTR_LO_ISR);
 323:.\Generated_Source\PSoC5/USBUART_1.c **** 
 324:.\Generated_Source\PSoC5/USBUART_1.c ****     /* Configure med_int: set handler and priority (routed through DSI). */
 325:.\Generated_Source\PSoC5/USBUART_1.c ****     CyIntSetPriority     (USBUART_1_INTR_MED_VECT_NUM,  USBUART_1_INTR_MED_PRIORITY);
 326:.\Generated_Source\PSoC5/USBUART_1.c ****     (void) CyIntSetVector(USBUART_1_INTR_MED_VECT_NUM, &USBUART_1_INTR_MED_ISR);
 327:.\Generated_Source\PSoC5/USBUART_1.c **** 
 328:.\Generated_Source\PSoC5/USBUART_1.c **** #else
 329:.\Generated_Source\PSoC5/USBUART_1.c ****     /* Set bus reset interrupt. */
 330:.\Generated_Source\PSoC5/USBUART_1.c ****     CyIntSetPriority(USBUART_1_BUS_RESET_VECT_NUM, USBUART_1_BUS_RESET_PRIOR);
 126              		.loc 1 330 0
ARM GAS  C:\Users\Thomas\AppData\Local\Temp\ccHSNeoG.s 			page 9


 127 0098 1720     		movs	r0, #23
 128 009a 0721     		movs	r1, #7
 129 009c FFF7FEFF 		bl	CyIntSetPriority
 130              	.LVL7:
 331:.\Generated_Source\PSoC5/USBUART_1.c ****     (void) CyIntSetVector(USBUART_1_BUS_RESET_VECT_NUM,   &USBUART_1_BUS_RESET_ISR);
 131              		.loc 1 331 0
 132 00a0 1720     		movs	r0, #23
 133 00a2 2049     		ldr	r1, .L3+24
 134 00a4 FFF7FEFF 		bl	CyIntSetVector
 135              	.LVL8:
 332:.\Generated_Source\PSoC5/USBUART_1.c **** 
 333:.\Generated_Source\PSoC5/USBUART_1.c ****     /* Set Control Endpoint Interrupt. */
 334:.\Generated_Source\PSoC5/USBUART_1.c ****     CyIntSetPriority(USBUART_1_EP_0_VECT_NUM, USBUART_1_EP_0_PRIOR);
 136              		.loc 1 334 0
 137 00a8 1820     		movs	r0, #24
 138 00aa 0721     		movs	r1, #7
 139 00ac FFF7FEFF 		bl	CyIntSetPriority
 140              	.LVL9:
 335:.\Generated_Source\PSoC5/USBUART_1.c ****     (void) CyIntSetVector(USBUART_1_EP_0_VECT_NUM,   &USBUART_1_EP_0_ISR);
 141              		.loc 1 335 0
 142 00b0 1820     		movs	r0, #24
 143 00b2 1D49     		ldr	r1, .L3+28
 144 00b4 FFF7FEFF 		bl	CyIntSetVector
 145              	.LVL10:
 336:.\Generated_Source\PSoC5/USBUART_1.c **** 
 337:.\Generated_Source\PSoC5/USBUART_1.c ****     /* Set SOF interrupt. */
 338:.\Generated_Source\PSoC5/USBUART_1.c ****     #if (USBUART_1_SOF_ISR_ACTIVE)
 339:.\Generated_Source\PSoC5/USBUART_1.c ****         CyIntSetPriority     (USBUART_1_SOF_VECT_NUM,  USBUART_1_SOF_PRIOR);
 146              		.loc 1 339 0
 147 00b8 1520     		movs	r0, #21
 148 00ba 0721     		movs	r1, #7
 149 00bc FFF7FEFF 		bl	CyIntSetPriority
 150              	.LVL11:
 340:.\Generated_Source\PSoC5/USBUART_1.c ****         (void) CyIntSetVector(USBUART_1_SOF_VECT_NUM, &USBUART_1_SOF_ISR);
 151              		.loc 1 340 0
 152 00c0 1520     		movs	r0, #21
 153 00c2 1A49     		ldr	r1, .L3+32
 154 00c4 FFF7FEFF 		bl	CyIntSetVector
 155              	.LVL12:
 341:.\Generated_Source\PSoC5/USBUART_1.c ****     #endif /* (USBUART_1_SOF_ISR_ACTIVE) */
 342:.\Generated_Source\PSoC5/USBUART_1.c **** 
 343:.\Generated_Source\PSoC5/USBUART_1.c ****     /* Set Data Endpoint 1 Interrupt. */
 344:.\Generated_Source\PSoC5/USBUART_1.c ****     #if (USBUART_1_EP1_ISR_ACTIVE)
 345:.\Generated_Source\PSoC5/USBUART_1.c ****         CyIntSetPriority     (USBUART_1_EP_1_VECT_NUM,  USBUART_1_EP_1_PRIOR);
 156              		.loc 1 345 0
 157 00c8 3046     		mov	r0, r6
 158 00ca 0721     		movs	r1, #7
 159 00cc FFF7FEFF 		bl	CyIntSetPriority
 160              	.LVL13:
 346:.\Generated_Source\PSoC5/USBUART_1.c ****         (void) CyIntSetVector(USBUART_1_EP_1_VECT_NUM,  &USBUART_1_EP_1_ISR);
 161              		.loc 1 346 0
 162 00d0 3046     		mov	r0, r6
 163 00d2 1749     		ldr	r1, .L3+36
 164 00d4 FFF7FEFF 		bl	CyIntSetVector
 165              	.LVL14:
 347:.\Generated_Source\PSoC5/USBUART_1.c ****     #endif /* (USBUART_1_EP1_ISR_ACTIVE) */
 348:.\Generated_Source\PSoC5/USBUART_1.c **** 
ARM GAS  C:\Users\Thomas\AppData\Local\Temp\ccHSNeoG.s 			page 10


 349:.\Generated_Source\PSoC5/USBUART_1.c ****     /* Set Data Endpoint 2 Interrupt. */
 350:.\Generated_Source\PSoC5/USBUART_1.c ****     #if (USBUART_1_EP2_ISR_ACTIVE)
 351:.\Generated_Source\PSoC5/USBUART_1.c ****         CyIntSetPriority     (USBUART_1_EP_2_VECT_NUM,  USBUART_1_EP_2_PRIOR);
 166              		.loc 1 351 0
 167 00d8 2846     		mov	r0, r5
 168 00da 0721     		movs	r1, #7
 169 00dc FFF7FEFF 		bl	CyIntSetPriority
 170              	.LVL15:
 352:.\Generated_Source\PSoC5/USBUART_1.c ****         (void) CyIntSetVector(USBUART_1_EP_2_VECT_NUM, &USBUART_1_EP_2_ISR);
 171              		.loc 1 352 0
 172 00e0 2846     		mov	r0, r5
 173 00e2 1449     		ldr	r1, .L3+40
 174 00e4 FFF7FEFF 		bl	CyIntSetVector
 175              	.LVL16:
 353:.\Generated_Source\PSoC5/USBUART_1.c ****     #endif /* (USBUART_1_EP2_ISR_ACTIVE) */
 354:.\Generated_Source\PSoC5/USBUART_1.c **** 
 355:.\Generated_Source\PSoC5/USBUART_1.c ****     /* Set Data Endpoint 3 Interrupt. */
 356:.\Generated_Source\PSoC5/USBUART_1.c ****     #if (USBUART_1_EP3_ISR_ACTIVE)
 357:.\Generated_Source\PSoC5/USBUART_1.c ****         CyIntSetPriority     (USBUART_1_EP_3_VECT_NUM,  USBUART_1_EP_3_PRIOR);
 176              		.loc 1 357 0
 177 00e8 0320     		movs	r0, #3
 178 00ea 0721     		movs	r1, #7
 179 00ec FFF7FEFF 		bl	CyIntSetPriority
 180              	.LVL17:
 358:.\Generated_Source\PSoC5/USBUART_1.c ****         (void) CyIntSetVector(USBUART_1_EP_3_VECT_NUM, &USBUART_1_EP_3_ISR);
 181              		.loc 1 358 0
 182 00f0 0320     		movs	r0, #3
 183 00f2 1149     		ldr	r1, .L3+44
 184 00f4 FFF7FEFF 		bl	CyIntSetVector
 185              	.LVL18:
 359:.\Generated_Source\PSoC5/USBUART_1.c ****     #endif /* (USBUART_1_EP3_ISR_ACTIVE) */
 360:.\Generated_Source\PSoC5/USBUART_1.c **** 
 361:.\Generated_Source\PSoC5/USBUART_1.c ****     /* Set Data Endpoint 4 Interrupt. */
 362:.\Generated_Source\PSoC5/USBUART_1.c ****     #if (USBUART_1_EP4_ISR_ACTIVE)
 363:.\Generated_Source\PSoC5/USBUART_1.c ****         CyIntSetPriority     (USBUART_1_EP_4_VECT_NUM,  USBUART_1_EP_4_PRIOR);
 364:.\Generated_Source\PSoC5/USBUART_1.c ****         (void) CyIntSetVector(USBUART_1_EP_4_VECT_NUM, &USBUART_1_EP_4_ISR);
 365:.\Generated_Source\PSoC5/USBUART_1.c ****     #endif /* (USBUART_1_EP4_ISR_ACTIVE) */
 366:.\Generated_Source\PSoC5/USBUART_1.c **** 
 367:.\Generated_Source\PSoC5/USBUART_1.c ****     /* Set Data Endpoint 5 Interrupt. */
 368:.\Generated_Source\PSoC5/USBUART_1.c ****     #if (USBUART_1_EP5_ISR_ACTIVE)
 369:.\Generated_Source\PSoC5/USBUART_1.c ****         CyIntSetPriority     (USBUART_1_EP_5_VECT_NUM,  USBUART_1_EP_5_PRIOR);
 370:.\Generated_Source\PSoC5/USBUART_1.c ****         (void) CyIntSetVector(USBUART_1_EP_5_VECT_NUM, &USBUART_1_EP_5_ISR);
 371:.\Generated_Source\PSoC5/USBUART_1.c ****     #endif /* (USBUART_1_EP5_ISR_ACTIVE) */
 372:.\Generated_Source\PSoC5/USBUART_1.c **** 
 373:.\Generated_Source\PSoC5/USBUART_1.c ****     /* Set Data Endpoint 6 Interrupt. */
 374:.\Generated_Source\PSoC5/USBUART_1.c ****     #if (USBUART_1_EP6_ISR_ACTIVE)
 375:.\Generated_Source\PSoC5/USBUART_1.c ****         CyIntSetPriority     (USBUART_1_EP_6_VECT_NUM,  USBUART_1_EP_6_PRIOR);
 376:.\Generated_Source\PSoC5/USBUART_1.c ****         (void) CyIntSetVector(USBUART_1_EP_6_VECT_NUM, &USBUART_1_EP_6_ISR);
 377:.\Generated_Source\PSoC5/USBUART_1.c ****     #endif /* (USBUART_1_EP6_ISR_ACTIVE) */
 378:.\Generated_Source\PSoC5/USBUART_1.c **** 
 379:.\Generated_Source\PSoC5/USBUART_1.c ****      /* Set Data Endpoint 7 Interrupt. */
 380:.\Generated_Source\PSoC5/USBUART_1.c ****     #if (USBUART_1_EP7_ISR_ACTIVE)
 381:.\Generated_Source\PSoC5/USBUART_1.c ****         CyIntSetPriority     (USBUART_1_EP_7_VECT_NUM,  USBUART_1_EP_7_PRIOR);
 382:.\Generated_Source\PSoC5/USBUART_1.c ****         (void) CyIntSetVector(USBUART_1_EP_7_VECT_NUM, &USBUART_1_EP_7_ISR);
 383:.\Generated_Source\PSoC5/USBUART_1.c ****     #endif /* (USBUART_1_EP7_ISR_ACTIVE) */
 384:.\Generated_Source\PSoC5/USBUART_1.c **** 
 385:.\Generated_Source\PSoC5/USBUART_1.c ****     /* Set Data Endpoint 8 Interrupt. */
ARM GAS  C:\Users\Thomas\AppData\Local\Temp\ccHSNeoG.s 			page 11


 386:.\Generated_Source\PSoC5/USBUART_1.c ****     #if (USBUART_1_EP8_ISR_ACTIVE)
 387:.\Generated_Source\PSoC5/USBUART_1.c ****         CyIntSetPriority     (USBUART_1_EP_8_VECT_NUM,  USBUART_1_EP_8_PRIOR);
 388:.\Generated_Source\PSoC5/USBUART_1.c ****         (void) CyIntSetVector(USBUART_1_EP_8_VECT_NUM, &USBUART_1_EP_8_ISR);
 389:.\Generated_Source\PSoC5/USBUART_1.c ****     #endif /* (USBUART_1_EP8_ISR_ACTIVE) */
 390:.\Generated_Source\PSoC5/USBUART_1.c **** 
 391:.\Generated_Source\PSoC5/USBUART_1.c ****     /* Set ARB Interrupt. */
 392:.\Generated_Source\PSoC5/USBUART_1.c ****     #if (USBUART_1_EP_MANAGEMENT_DMA && USBUART_1_ARB_ISR_ACTIVE)
 393:.\Generated_Source\PSoC5/USBUART_1.c ****         CyIntSetPriority     (USBUART_1_ARB_VECT_NUM,  USBUART_1_ARB_PRIOR);
 394:.\Generated_Source\PSoC5/USBUART_1.c ****         (void) CyIntSetVector(USBUART_1_ARB_VECT_NUM, &USBUART_1_ARB_ISR);
 395:.\Generated_Source\PSoC5/USBUART_1.c ****     #endif /* (USBUART_1_EP_MANAGEMENT_DMA && USBUART_1_ARB_ISR_ACTIVE) */
 396:.\Generated_Source\PSoC5/USBUART_1.c **** #endif /* (CY_PSOC4) */
 397:.\Generated_Source\PSoC5/USBUART_1.c **** 
 398:.\Generated_Source\PSoC5/USBUART_1.c ****     /* Common: Configure GPIO interrupt for wakeup. */
 399:.\Generated_Source\PSoC5/USBUART_1.c **** #if (USBUART_1_DP_ISR_ACTIVE)
 400:.\Generated_Source\PSoC5/USBUART_1.c ****     CyIntSetPriority     (USBUART_1_DP_INTC_VECT_NUM,  USBUART_1_DP_INTC_PRIORITY);
 186              		.loc 1 400 0
 187 00f8 0C20     		movs	r0, #12
 188 00fa 0721     		movs	r1, #7
 189 00fc FFF7FEFF 		bl	CyIntSetPriority
 190              	.LVL19:
 401:.\Generated_Source\PSoC5/USBUART_1.c ****     (void) CyIntSetVector(USBUART_1_DP_INTC_VECT_NUM, &USBUART_1_DP_ISR);
 191              		.loc 1 401 0
 192 0100 0C20     		movs	r0, #12
 193 0102 0E49     		ldr	r1, .L3+48
 194 0104 FFF7FEFF 		bl	CyIntSetVector
 195              	.LVL20:
 196 0108 F8BD     		pop	{r3, r4, r5, r6, r7, pc}
 197              	.LVL21:
 198              	.L4:
 199 010a 00BF     		.align	2
 200              	.L3:
 201 010c A5430040 		.word	1073759141
 202 0110 9D600040 		.word	1073766557
 203 0114 94430040 		.word	1073759124
 204 0118 12600040 		.word	1073766418
 205 011c F8510040 		.word	1073762808
 206 0120 84600040 		.word	1073766532
 207 0124 00000000 		.word	USBUART_1_BUS_RESET_ISR
 208 0128 00000000 		.word	USBUART_1_EP_0_ISR
 209 012c 00000000 		.word	USBUART_1_SOF_ISR
 210 0130 00000000 		.word	USBUART_1_EP_1_ISR
 211 0134 00000000 		.word	USBUART_1_EP_2_ISR
 212 0138 00000000 		.word	USBUART_1_EP_3_ISR
 213 013c 00000000 		.word	USBUART_1_DP_ISR
 214              		.cfi_endproc
 215              	.LFE1:
 216              		.size	USBUART_1_Init, .-USBUART_1_Init
 217              		.section	.text.USBUART_1_InitComponent,"ax",%progbits
 218              		.align	2
 219              		.global	USBUART_1_InitComponent
 220              		.thumb
 221              		.thumb_func
 222              		.type	USBUART_1_InitComponent, %function
 223              	USBUART_1_InitComponent:
 224              	.LFB2:
 402:.\Generated_Source\PSoC5/USBUART_1.c **** #endif /* (USBUART_1_DP_ISR_ACTIVE) */
 403:.\Generated_Source\PSoC5/USBUART_1.c **** 
ARM GAS  C:\Users\Thomas\AppData\Local\Temp\ccHSNeoG.s 			page 12


 404:.\Generated_Source\PSoC5/USBUART_1.c **** #if (USBUART_1_EP_MANAGEMENT_DMA && CY_PSOC4)
 405:.\Generated_Source\PSoC5/USBUART_1.c ****     /* Initialize DMA channels. */
 406:.\Generated_Source\PSoC5/USBUART_1.c ****     USBUART_1_InitEpDma();
 407:.\Generated_Source\PSoC5/USBUART_1.c **** #endif /* (USBUART_1_EP_MANAGEMENT_DMA && CY_PSOC4) */
 408:.\Generated_Source\PSoC5/USBUART_1.c **** }
 409:.\Generated_Source\PSoC5/USBUART_1.c **** 
 410:.\Generated_Source\PSoC5/USBUART_1.c **** 
 411:.\Generated_Source\PSoC5/USBUART_1.c **** /*******************************************************************************
 412:.\Generated_Source\PSoC5/USBUART_1.c **** * Function Name: USBUART_1_InitComponent
 413:.\Generated_Source\PSoC5/USBUART_1.c **** ****************************************************************************//**
 414:.\Generated_Source\PSoC5/USBUART_1.c **** *
 415:.\Generated_Source\PSoC5/USBUART_1.c **** *   This function initializes the component’s global variables and initiates
 416:.\Generated_Source\PSoC5/USBUART_1.c **** *   communication with the host by pull-up D+ line.
 417:.\Generated_Source\PSoC5/USBUART_1.c **** *
 418:.\Generated_Source\PSoC5/USBUART_1.c **** * \param device:
 419:.\Generated_Source\PSoC5/USBUART_1.c **** *   Contains the device number of the desired device descriptor. The device
 420:.\Generated_Source\PSoC5/USBUART_1.c **** *   number can be found in the Device Descriptor Tab of "Configure" dialog,
 421:.\Generated_Source\PSoC5/USBUART_1.c **** *   under the settings of desired Device Descriptor, in the *Device Number*
 422:.\Generated_Source\PSoC5/USBUART_1.c **** *   field.
 423:.\Generated_Source\PSoC5/USBUART_1.c **** *  \param mode:
 424:.\Generated_Source\PSoC5/USBUART_1.c **** *   The operating voltage. This determines whether the voltage regulator
 425:.\Generated_Source\PSoC5/USBUART_1.c **** *   is enabled for 5V operation or if pass through mode is used for 3.3V
 426:.\Generated_Source\PSoC5/USBUART_1.c **** *   operation. Symbolic names and their associated values are given in the
 427:.\Generated_Source\PSoC5/USBUART_1.c **** *   following list.
 428:.\Generated_Source\PSoC5/USBUART_1.c **** *
 429:.\Generated_Source\PSoC5/USBUART_1.c **** *       *USBUART_1_3V_OPERATION* - Disable voltage regulator and pass-
 430:.\Generated_Source\PSoC5/USBUART_1.c **** *                                      through Vcc for pull-up
 431:.\Generated_Source\PSoC5/USBUART_1.c **** *
 432:.\Generated_Source\PSoC5/USBUART_1.c **** *       *USBUART_1_5V_OPERATION* - Enable voltage regulator and use
 433:.\Generated_Source\PSoC5/USBUART_1.c **** *                                      regulator for pull-up
 434:.\Generated_Source\PSoC5/USBUART_1.c **** *
 435:.\Generated_Source\PSoC5/USBUART_1.c **** *       *USBUART_1_DWR_POWER_OPERATION* - Enable or disable the voltage
 436:.\Generated_Source\PSoC5/USBUART_1.c **** *                                      regulator depending on the power supply
 437:.\Generated_Source\PSoC5/USBUART_1.c **** *                                      voltage configuration in the DWR tab.
 438:.\Generated_Source\PSoC5/USBUART_1.c **** *                                      For PSoC 3/5LP devices, the VDDD supply
 439:.\Generated_Source\PSoC5/USBUART_1.c **** *                                      voltage is considered and for PSoC 4A-L,
 440:.\Generated_Source\PSoC5/USBUART_1.c **** *                                      the VBUS supply voltage is considered.
 441:.\Generated_Source\PSoC5/USBUART_1.c **** *
 442:.\Generated_Source\PSoC5/USBUART_1.c **** * \globalvars
 443:.\Generated_Source\PSoC5/USBUART_1.c **** *   \ref USBUART_1_device
 444:.\Generated_Source\PSoC5/USBUART_1.c **** *   \ref USBUART_1_transferState
 445:.\Generated_Source\PSoC5/USBUART_1.c **** *   \ref USBUART_1_configuration
 446:.\Generated_Source\PSoC5/USBUART_1.c **** *   \ref USBUART_1_deviceStatus
 447:.\Generated_Source\PSoC5/USBUART_1.c **** *
 448:.\Generated_Source\PSoC5/USBUART_1.c **** *   \ref USBUART_1_deviceAddress - Contains the current device address. This
 449:.\Generated_Source\PSoC5/USBUART_1.c **** *       variable is initialized to zero in this API. The Host starts to communicate
 450:.\Generated_Source\PSoC5/USBUART_1.c **** *      to the device with address 0 and then sets it to a whatever value using a
 451:.\Generated_Source\PSoC5/USBUART_1.c **** *      SET_ADDRESS request.
 452:.\Generated_Source\PSoC5/USBUART_1.c **** *
 453:.\Generated_Source\PSoC5/USBUART_1.c **** *   \ref USBUART_1_lastPacketSize - Initialized to 0;
 454:.\Generated_Source\PSoC5/USBUART_1.c **** *
 455:.\Generated_Source\PSoC5/USBUART_1.c **** * \reentrant
 456:.\Generated_Source\PSoC5/USBUART_1.c **** *  No.
 457:.\Generated_Source\PSoC5/USBUART_1.c **** *
 458:.\Generated_Source\PSoC5/USBUART_1.c **** *******************************************************************************/
 459:.\Generated_Source\PSoC5/USBUART_1.c **** void USBUART_1_InitComponent(uint8 device, uint8 mode) 
 460:.\Generated_Source\PSoC5/USBUART_1.c **** {
ARM GAS  C:\Users\Thomas\AppData\Local\Temp\ccHSNeoG.s 			page 13


 225              		.loc 1 460 0
 226              		.cfi_startproc
 227              		@ args = 0, pretend = 0, frame = 0
 228              		@ frame_needed = 0, uses_anonymous_args = 0
 229              	.LVL22:
 230 0000 08B5     		push	{r3, lr}
 231              		.cfi_def_cfa_offset 8
 232              		.cfi_offset 3, -8
 233              		.cfi_offset 14, -4
 461:.\Generated_Source\PSoC5/USBUART_1.c ****     /* Initialize _hidProtocol variable to comply with
 462:.\Generated_Source\PSoC5/USBUART_1.c ****     *  HID 7.2.6 Set_Protocol Request:
 463:.\Generated_Source\PSoC5/USBUART_1.c ****     *  "When initialized, all devices default to report protocol."
 464:.\Generated_Source\PSoC5/USBUART_1.c ****     */
 465:.\Generated_Source\PSoC5/USBUART_1.c **** #if defined(USBUART_1_ENABLE_HID_CLASS)
 466:.\Generated_Source\PSoC5/USBUART_1.c ****     uint8 i;
 467:.\Generated_Source\PSoC5/USBUART_1.c **** 
 468:.\Generated_Source\PSoC5/USBUART_1.c ****     for (i = 0u; i < USBUART_1_MAX_INTERFACES_NUMBER; i++)
 469:.\Generated_Source\PSoC5/USBUART_1.c ****     {
 470:.\Generated_Source\PSoC5/USBUART_1.c ****         USBUART_1_hidProtocol[i] = USBUART_1_PROTOCOL_REPORT;
 471:.\Generated_Source\PSoC5/USBUART_1.c ****     }
 472:.\Generated_Source\PSoC5/USBUART_1.c **** #endif /* USBUART_1_ENABLE_HID_CLASS */
 473:.\Generated_Source\PSoC5/USBUART_1.c **** 
 474:.\Generated_Source\PSoC5/USBUART_1.c ****     /* Store device number to access descriptor. */
 475:.\Generated_Source\PSoC5/USBUART_1.c ****     USBUART_1_device = device;
 234              		.loc 1 475 0
 235 0002 214B     		ldr	r3, .L12
 236 0004 1870     		strb	r0, [r3]
 476:.\Generated_Source\PSoC5/USBUART_1.c **** 
 477:.\Generated_Source\PSoC5/USBUART_1.c ****     /* Reset component internal variables. */
 478:.\Generated_Source\PSoC5/USBUART_1.c ****     USBUART_1_transferState   = USBUART_1_TRANS_STATE_IDLE;
 237              		.loc 1 478 0
 238 0006 0023     		movs	r3, #0
 239 0008 204A     		ldr	r2, .L12+4
 240 000a 1370     		strb	r3, [r2]
 479:.\Generated_Source\PSoC5/USBUART_1.c ****     USBUART_1_configurationChanged = 0u;
 241              		.loc 1 479 0
 242 000c 204A     		ldr	r2, .L12+8
 243 000e 1370     		strb	r3, [r2]
 480:.\Generated_Source\PSoC5/USBUART_1.c ****     USBUART_1_configuration   = 0u;
 244              		.loc 1 480 0
 245 0010 204A     		ldr	r2, .L12+12
 246 0012 1370     		strb	r3, [r2]
 481:.\Generated_Source\PSoC5/USBUART_1.c ****     USBUART_1_interfaceNumber = 0u;
 247              		.loc 1 481 0
 248 0014 204A     		ldr	r2, .L12+16
 249 0016 1370     		strb	r3, [r2]
 482:.\Generated_Source\PSoC5/USBUART_1.c ****     USBUART_1_deviceAddress   = 0u;
 250              		.loc 1 482 0
 251 0018 204A     		ldr	r2, .L12+20
 252 001a 1370     		strb	r3, [r2]
 483:.\Generated_Source\PSoC5/USBUART_1.c ****     USBUART_1_deviceStatus    = 0u;
 253              		.loc 1 483 0
 254 001c 204A     		ldr	r2, .L12+24
 255 001e 1370     		strb	r3, [r2]
 484:.\Generated_Source\PSoC5/USBUART_1.c ****     USBUART_1_lastPacketSize  = 0u;
 256              		.loc 1 484 0
 257 0020 204A     		ldr	r2, .L12+28
ARM GAS  C:\Users\Thomas\AppData\Local\Temp\ccHSNeoG.s 			page 14


 258 0022 1370     		strb	r3, [r2]
 485:.\Generated_Source\PSoC5/USBUART_1.c **** 
 486:.\Generated_Source\PSoC5/USBUART_1.c ****     /* Enable component interrupts. */
 487:.\Generated_Source\PSoC5/USBUART_1.c **** #if (CY_PSOC4)
 488:.\Generated_Source\PSoC5/USBUART_1.c ****     CyIntEnable(USBUART_1_INTR_HI_VECT_NUM);
 489:.\Generated_Source\PSoC5/USBUART_1.c ****     CyIntEnable(USBUART_1_INTR_MED_VECT_NUM);
 490:.\Generated_Source\PSoC5/USBUART_1.c ****     CyIntEnable(USBUART_1_INTR_LO_VECT_NUM);
 491:.\Generated_Source\PSoC5/USBUART_1.c **** #else
 492:.\Generated_Source\PSoC5/USBUART_1.c ****     CyIntEnable(USBUART_1_BUS_RESET_VECT_NUM);
 259              		.loc 1 492 0
 260 0024 204B     		ldr	r3, .L12+32
 261 0026 4FF40002 		mov	r2, #8388608
 262 002a 1A60     		str	r2, [r3]
 493:.\Generated_Source\PSoC5/USBUART_1.c ****     CyIntEnable(USBUART_1_EP_0_VECT_NUM);
 263              		.loc 1 493 0
 264 002c 4FF08072 		mov	r2, #16777216
 265 0030 1A60     		str	r2, [r3]
 494:.\Generated_Source\PSoC5/USBUART_1.c **** 
 495:.\Generated_Source\PSoC5/USBUART_1.c ****     #if (USBUART_1_SOF_ISR_ACTIVE)
 496:.\Generated_Source\PSoC5/USBUART_1.c ****         CyIntEnable(USBUART_1_SOF_VECT_NUM);
 266              		.loc 1 496 0
 267 0032 4FF40012 		mov	r2, #2097152
 268 0036 1A60     		str	r2, [r3]
 497:.\Generated_Source\PSoC5/USBUART_1.c ****     #endif /* (USBUART_1_SOF_ISR_ACTIVE) */
 498:.\Generated_Source\PSoC5/USBUART_1.c **** 
 499:.\Generated_Source\PSoC5/USBUART_1.c ****     #if (USBUART_1_EP1_ISR_ACTIVE)
 500:.\Generated_Source\PSoC5/USBUART_1.c ****         CyIntEnable(USBUART_1_EP_1_VECT_NUM);
 269              		.loc 1 500 0
 270 0038 0222     		movs	r2, #2
 271 003a 1A60     		str	r2, [r3]
 501:.\Generated_Source\PSoC5/USBUART_1.c ****     #endif /* (USBUART_1_EP1_ISR_ACTIVE) */
 502:.\Generated_Source\PSoC5/USBUART_1.c **** 
 503:.\Generated_Source\PSoC5/USBUART_1.c ****     #if (USBUART_1_EP2_ISR_ACTIVE)
 504:.\Generated_Source\PSoC5/USBUART_1.c ****         CyIntEnable(USBUART_1_EP_2_VECT_NUM);
 272              		.loc 1 504 0
 273 003c 0422     		movs	r2, #4
 274 003e 1A60     		str	r2, [r3]
 505:.\Generated_Source\PSoC5/USBUART_1.c ****     #endif /* (USBUART_1_EP5_ISR_ACTIVE) */
 506:.\Generated_Source\PSoC5/USBUART_1.c **** 
 507:.\Generated_Source\PSoC5/USBUART_1.c ****     #if (USBUART_1_EP3_ISR_ACTIVE)
 508:.\Generated_Source\PSoC5/USBUART_1.c ****         CyIntEnable(USBUART_1_EP_3_VECT_NUM);
 275              		.loc 1 508 0
 276 0040 0822     		movs	r2, #8
 277 0042 1A60     		str	r2, [r3]
 509:.\Generated_Source\PSoC5/USBUART_1.c ****     #endif /* (USBUART_1_EP5_ISR_ACTIVE) */
 510:.\Generated_Source\PSoC5/USBUART_1.c **** 
 511:.\Generated_Source\PSoC5/USBUART_1.c ****     #if (USBUART_1_EP4_ISR_ACTIVE)
 512:.\Generated_Source\PSoC5/USBUART_1.c ****         CyIntEnable(USBUART_1_EP_4_VECT_NUM);
 513:.\Generated_Source\PSoC5/USBUART_1.c ****     #endif /* (USBUART_1_EP5_ISR_ACTIVE) */
 514:.\Generated_Source\PSoC5/USBUART_1.c **** 
 515:.\Generated_Source\PSoC5/USBUART_1.c ****     #if (USBUART_1_EP5_ISR_ACTIVE)
 516:.\Generated_Source\PSoC5/USBUART_1.c ****         CyIntEnable(USBUART_1_EP_5_VECT_NUM);
 517:.\Generated_Source\PSoC5/USBUART_1.c ****     #endif /* (USBUART_1_EP5_ISR_ACTIVE) */
 518:.\Generated_Source\PSoC5/USBUART_1.c **** 
 519:.\Generated_Source\PSoC5/USBUART_1.c ****     #if (USBUART_1_EP6_ISR_ACTIVE)
 520:.\Generated_Source\PSoC5/USBUART_1.c ****         CyIntEnable(USBUART_1_EP_6_VECT_NUM);
 521:.\Generated_Source\PSoC5/USBUART_1.c ****     #endif /* USBUART_1_EP6_ISR_REMOVE */
ARM GAS  C:\Users\Thomas\AppData\Local\Temp\ccHSNeoG.s 			page 15


 522:.\Generated_Source\PSoC5/USBUART_1.c **** 
 523:.\Generated_Source\PSoC5/USBUART_1.c ****     #if (USBUART_1_EP7_ISR_ACTIVE)
 524:.\Generated_Source\PSoC5/USBUART_1.c ****         CyIntEnable(USBUART_1_EP_7_VECT_NUM);
 525:.\Generated_Source\PSoC5/USBUART_1.c ****     #endif /* (USBUART_1_EP7_ISR_ACTIVE) */
 526:.\Generated_Source\PSoC5/USBUART_1.c **** 
 527:.\Generated_Source\PSoC5/USBUART_1.c ****     #if (USBUART_1_EP8_ISR_ACTIVE)
 528:.\Generated_Source\PSoC5/USBUART_1.c ****         CyIntEnable(USBUART_1_EP_8_VECT_NUM);
 529:.\Generated_Source\PSoC5/USBUART_1.c ****     #endif /* (USBUART_1_EP8_ISR_ACTIVE) */
 530:.\Generated_Source\PSoC5/USBUART_1.c **** #endif /* (CY_PSOC4) */
 531:.\Generated_Source\PSoC5/USBUART_1.c **** 
 532:.\Generated_Source\PSoC5/USBUART_1.c **** #if (USBUART_1_EP_MANAGEMENT_DMA && USBUART_1_ARB_ISR_ACTIVE)
 533:.\Generated_Source\PSoC5/USBUART_1.c ****     /* Enable ARB EP interrupt sources. */
 534:.\Generated_Source\PSoC5/USBUART_1.c ****     USBUART_1_ARB_INT_EN_REG = USBUART_1_DEFAULT_ARB_INT_EN;
 535:.\Generated_Source\PSoC5/USBUART_1.c **** 
 536:.\Generated_Source\PSoC5/USBUART_1.c ****     #if (CY_PSOC3 || CY_PSOC5)
 537:.\Generated_Source\PSoC5/USBUART_1.c ****         CyIntEnable(USBUART_1_ARB_VECT_NUM);
 538:.\Generated_Source\PSoC5/USBUART_1.c ****     #endif /* (CY_PSOC3 || CY_PSOC5) */
 539:.\Generated_Source\PSoC5/USBUART_1.c **** #endif   /* (USBUART_1_EP_MANAGEMENT_DMA && USBUART_1_ARB_ISR_ACTIVE) */
 540:.\Generated_Source\PSoC5/USBUART_1.c **** 
 541:.\Generated_Source\PSoC5/USBUART_1.c **** /* Arbiter configuration for DMA transfers. */
 542:.\Generated_Source\PSoC5/USBUART_1.c **** #if (USBUART_1_EP_MANAGEMENT_DMA)
 543:.\Generated_Source\PSoC5/USBUART_1.c ****     /* Configure Arbiter for Manual or Auto DMA operation and clear configuration completion. */
 544:.\Generated_Source\PSoC5/USBUART_1.c ****     USBUART_1_ARB_CFG_REG = USBUART_1_DEFAULT_ARB_CFG;
 545:.\Generated_Source\PSoC5/USBUART_1.c **** 
 546:.\Generated_Source\PSoC5/USBUART_1.c ****     #if (CY_PSOC4)
 547:.\Generated_Source\PSoC5/USBUART_1.c ****         /* Enable DMA operation. */
 548:.\Generated_Source\PSoC5/USBUART_1.c ****         CyDmaEnable();
 549:.\Generated_Source\PSoC5/USBUART_1.c **** 
 550:.\Generated_Source\PSoC5/USBUART_1.c ****         #if (USBUART_1_EP_MANAGEMENT_DMA_AUTO)
 551:.\Generated_Source\PSoC5/USBUART_1.c ****             /* Change DMA priority to be highest. */
 552:.\Generated_Source\PSoC5/USBUART_1.c ****              CyIntSetPriority(CYDMA_INTR_NUMBER, USBUART_1_DMA_AUTO_INTR_PRIO);
 553:.\Generated_Source\PSoC5/USBUART_1.c ****         #endif /* (USBUART_1_EP_MANAGEMENT_DMA_AUTO) */
 554:.\Generated_Source\PSoC5/USBUART_1.c ****     #endif /* (CY_PSOC4) */
 555:.\Generated_Source\PSoC5/USBUART_1.c **** 
 556:.\Generated_Source\PSoC5/USBUART_1.c ****     #if (USBUART_1_EP_MANAGEMENT_DMA_AUTO)
 557:.\Generated_Source\PSoC5/USBUART_1.c ****         #if (CY_PSOC4)
 558:.\Generated_Source\PSoC5/USBUART_1.c ****             /* Enable DMA interrupt to handle DMA management. */
 559:.\Generated_Source\PSoC5/USBUART_1.c ****             CyIntEnable(CYDMA_INTR_NUMBER);
 560:.\Generated_Source\PSoC5/USBUART_1.c ****         #else
 561:.\Generated_Source\PSoC5/USBUART_1.c ****             #if (USBUART_1_EP_DMA_AUTO_OPT == 0u)
 562:.\Generated_Source\PSoC5/USBUART_1.c ****                 /* Initialize interrupts which handle verification of successful DMA transaction. *
 563:.\Generated_Source\PSoC5/USBUART_1.c ****                 USBUART_1_EP_DMA_Done_isr_StartEx(&USBUART_1_EP_DMA_DONE_ISR);
 564:.\Generated_Source\PSoC5/USBUART_1.c ****                 USBUART_1_EP17_DMA_Done_SR_InterruptEnable();
 565:.\Generated_Source\PSoC5/USBUART_1.c ****                 USBUART_1_EP8_DMA_Done_SR_InterruptEnable();
 566:.\Generated_Source\PSoC5/USBUART_1.c ****             #endif /* (USBUART_1_EP_DMA_AUTO_OPT == 0u) */
 567:.\Generated_Source\PSoC5/USBUART_1.c ****         #endif /* (CY_PSOC4) */
 568:.\Generated_Source\PSoC5/USBUART_1.c ****     #endif /* (USBUART_1_EP_MANAGEMENT_DMA_AUTO) */
 569:.\Generated_Source\PSoC5/USBUART_1.c **** #endif /* (USBUART_1_EP_MANAGEMENT_DMA) */
 570:.\Generated_Source\PSoC5/USBUART_1.c **** 
 571:.\Generated_Source\PSoC5/USBUART_1.c ****     /* Enable USB regulator depends on operation voltage. IMO Locking is enabled in Init(). */
 572:.\Generated_Source\PSoC5/USBUART_1.c ****     switch(mode)
 278              		.loc 1 572 0
 279 0044 11B1     		cbz	r1, .L7
 280 0046 0129     		cmp	r1, #1
 281 0048 06D0     		beq	.L8
 282 004a 0BE0     		b	.L10
 283              	.L7:
ARM GAS  C:\Users\Thomas\AppData\Local\Temp\ccHSNeoG.s 			page 16


 573:.\Generated_Source\PSoC5/USBUART_1.c ****     {
 574:.\Generated_Source\PSoC5/USBUART_1.c ****     case USBUART_1_3V_OPERATION:
 575:.\Generated_Source\PSoC5/USBUART_1.c ****         /* Disable regulator for 3V operation. */
 576:.\Generated_Source\PSoC5/USBUART_1.c ****         USBUART_1_CR1_REG &= (uint8) ~USBUART_1_CR1_REG_ENABLE;
 284              		.loc 1 576 0
 285 004c 174A     		ldr	r2, .L12+36
 286 004e 1378     		ldrb	r3, [r2]	@ zero_extendqisi2
 287 0050 03F0FE03 		and	r3, r3, #254
 288 0054 1370     		strb	r3, [r2]
 577:.\Generated_Source\PSoC5/USBUART_1.c ****         break;
 289              		.loc 1 577 0
 290 0056 0AE0     		b	.L9
 291              	.L8:
 578:.\Generated_Source\PSoC5/USBUART_1.c **** 
 579:.\Generated_Source\PSoC5/USBUART_1.c ****     case USBUART_1_5V_OPERATION:
 580:.\Generated_Source\PSoC5/USBUART_1.c ****         /* Enable regulator for 5V operation. */
 581:.\Generated_Source\PSoC5/USBUART_1.c ****         USBUART_1_CR1_REG |= (uint8)  USBUART_1_CR1_REG_ENABLE;
 292              		.loc 1 581 0
 293 0058 144A     		ldr	r2, .L12+36
 294 005a 1378     		ldrb	r3, [r2]	@ zero_extendqisi2
 295 005c 43F00103 		orr	r3, r3, #1
 296 0060 1370     		strb	r3, [r2]
 582:.\Generated_Source\PSoC5/USBUART_1.c ****         break;
 297              		.loc 1 582 0
 298 0062 04E0     		b	.L9
 299              	.L10:
 583:.\Generated_Source\PSoC5/USBUART_1.c **** 
 584:.\Generated_Source\PSoC5/USBUART_1.c ****     default: /* Check DWR settings of USB power supply. */
 585:.\Generated_Source\PSoC5/USBUART_1.c ****     #if (USBUART_1_VDDD_MV < USBUART_1_3500MV)
 586:.\Generated_Source\PSoC5/USBUART_1.c ****         /* Disable regulator for 3V operation. */
 587:.\Generated_Source\PSoC5/USBUART_1.c ****         USBUART_1_CR1_REG &= (uint8) ~USBUART_1_CR1_REG_ENABLE;
 588:.\Generated_Source\PSoC5/USBUART_1.c ****     #else
 589:.\Generated_Source\PSoC5/USBUART_1.c ****         /* Enable regulator for 5V operation. */
 590:.\Generated_Source\PSoC5/USBUART_1.c ****         USBUART_1_CR1_REG |= (uint8)  USBUART_1_CR1_REG_ENABLE;
 300              		.loc 1 590 0
 301 0064 114A     		ldr	r2, .L12+36
 302 0066 1378     		ldrb	r3, [r2]	@ zero_extendqisi2
 303 0068 43F00103 		orr	r3, r3, #1
 304 006c 1370     		strb	r3, [r2]
 305              	.L9:
 591:.\Generated_Source\PSoC5/USBUART_1.c ****     #endif /* (USBUART_1_VDDD_MV < USBUART_1_3500MV) */
 592:.\Generated_Source\PSoC5/USBUART_1.c ****         break;
 593:.\Generated_Source\PSoC5/USBUART_1.c ****     }
 594:.\Generated_Source\PSoC5/USBUART_1.c **** 
 595:.\Generated_Source\PSoC5/USBUART_1.c **** #if (CY_PSOC4)
 596:.\Generated_Source\PSoC5/USBUART_1.c ****     /* Clear bus activity. */
 597:.\Generated_Source\PSoC5/USBUART_1.c ****     USBUART_1_CR1_REG &= (uint32) ~USBUART_1_CR1_BUS_ACTIVITY;
 598:.\Generated_Source\PSoC5/USBUART_1.c **** 
 599:.\Generated_Source\PSoC5/USBUART_1.c ****     /* Clear EP0 count register. */
 600:.\Generated_Source\PSoC5/USBUART_1.c ****     USBUART_1_EP0_CNT_REG = USBUART_1_CLEAR_REG;
 601:.\Generated_Source\PSoC5/USBUART_1.c **** 
 602:.\Generated_Source\PSoC5/USBUART_1.c ****     /* Set EP0.CR: ACK Setup, NAK IN/OUT. */
 603:.\Generated_Source\PSoC5/USBUART_1.c ****     USBUART_1_EP0_CR_REG = USBUART_1_MODE_NAK_IN_OUT;
 604:.\Generated_Source\PSoC5/USBUART_1.c **** 
 605:.\Generated_Source\PSoC5/USBUART_1.c ****     #if (USBUART_1_LPM_ACTIVE)
 606:.\Generated_Source\PSoC5/USBUART_1.c ****         if (NULL != USBUART_1_GetBOSPtr())
 607:.\Generated_Source\PSoC5/USBUART_1.c ****         {
ARM GAS  C:\Users\Thomas\AppData\Local\Temp\ccHSNeoG.s 			page 17


 608:.\Generated_Source\PSoC5/USBUART_1.c ****             /* Enable LPM and acknowledge LPM packets for active device.
 609:.\Generated_Source\PSoC5/USBUART_1.c ****             * Reset NYET_EN and SUB_RESP bits in the LPM_CTRL register.
 610:.\Generated_Source\PSoC5/USBUART_1.c ****             */
 611:.\Generated_Source\PSoC5/USBUART_1.c ****             USBUART_1_LPM_CTRL_REG = (USBUART_1_LPM_CTRL_LPM_EN | \
 612:.\Generated_Source\PSoC5/USBUART_1.c ****                                              USBUART_1_LPM_CTRL_LPM_ACK_RESP);
 613:.\Generated_Source\PSoC5/USBUART_1.c ****         }
 614:.\Generated_Source\PSoC5/USBUART_1.c ****         else
 615:.\Generated_Source\PSoC5/USBUART_1.c ****         {
 616:.\Generated_Source\PSoC5/USBUART_1.c ****             /* Disable LPM for active device. */
 617:.\Generated_Source\PSoC5/USBUART_1.c ****             USBUART_1_LPM_CTRL_REG &= (uint32) ~USBUART_1_LPM_CTRL_LPM_EN;
 618:.\Generated_Source\PSoC5/USBUART_1.c ****         }
 619:.\Generated_Source\PSoC5/USBUART_1.c ****     #endif /* (USBUART_1_LPM_ACTIVE) */
 620:.\Generated_Source\PSoC5/USBUART_1.c **** 
 621:.\Generated_Source\PSoC5/USBUART_1.c ****     /* Enable device to responds to USB traffic with address 0. */
 622:.\Generated_Source\PSoC5/USBUART_1.c ****     USBUART_1_CR0_REG = USBUART_1_DEFUALT_CR0;
 623:.\Generated_Source\PSoC5/USBUART_1.c **** 
 624:.\Generated_Source\PSoC5/USBUART_1.c **** #else
 625:.\Generated_Source\PSoC5/USBUART_1.c ****     /* Set EP0.CR: ACK Setup, STALL IN/OUT. */
 626:.\Generated_Source\PSoC5/USBUART_1.c ****     USBUART_1_EP0_CR_REG = USBUART_1_MODE_STALL_IN_OUT;
 306              		.loc 1 626 0
 307 006e 0322     		movs	r2, #3
 308 0070 0F4B     		ldr	r3, .L12+40
 309 0072 1A70     		strb	r2, [r3]
 627:.\Generated_Source\PSoC5/USBUART_1.c **** 
 628:.\Generated_Source\PSoC5/USBUART_1.c ****     /* Enable device to respond to USB traffic with address 0. */
 629:.\Generated_Source\PSoC5/USBUART_1.c ****     USBUART_1_CR0_REG = USBUART_1_DEFUALT_CR0;
 310              		.loc 1 629 0
 311 0074 8022     		movs	r2, #128
 312 0076 203B     		subs	r3, r3, #32
 313 0078 1A70     		strb	r2, [r3]
 630:.\Generated_Source\PSoC5/USBUART_1.c ****     CyDelayCycles(USBUART_1_WAIT_CR0_REG_STABILITY);
 314              		.loc 1 630 0
 315 007a 0120     		movs	r0, #1
 316              	.LVL23:
 317 007c FFF7FEFF 		bl	CyDelayCycles
 318              	.LVL24:
 631:.\Generated_Source\PSoC5/USBUART_1.c **** #endif /* (CY_PSOC4) */
 632:.\Generated_Source\PSoC5/USBUART_1.c **** 
 633:.\Generated_Source\PSoC5/USBUART_1.c ****     /* Enable D+ pull-up and keep USB control on IO. */
 634:.\Generated_Source\PSoC5/USBUART_1.c ****     USBUART_1_USBIO_CR1_REG = USBUART_1_USBIO_CR1_USBPUEN;
 319              		.loc 1 634 0
 320 0080 0422     		movs	r2, #4
 321 0082 0C4B     		ldr	r3, .L12+44
 322 0084 1A70     		strb	r2, [r3]
 323 0086 08BD     		pop	{r3, pc}
 324              	.L13:
 325              		.align	2
 326              	.L12:
 327 0088 00000000 		.word	USBUART_1_device
 328 008c 00000000 		.word	USBUART_1_transferState
 329 0090 00000000 		.word	USBUART_1_configurationChanged
 330 0094 00000000 		.word	USBUART_1_configuration
 331 0098 00000000 		.word	USBUART_1_interfaceNumber
 332 009c 00000000 		.word	USBUART_1_deviceAddress
 333 00a0 00000000 		.word	USBUART_1_deviceStatus
 334 00a4 00000000 		.word	USBUART_1_lastPacketSize
 335 00a8 00E100E0 		.word	-536813312
ARM GAS  C:\Users\Thomas\AppData\Local\Temp\ccHSNeoG.s 			page 18


 336 00ac 09600040 		.word	1073766409
 337 00b0 28600040 		.word	1073766440
 338 00b4 12600040 		.word	1073766418
 339              		.cfi_endproc
 340              	.LFE2:
 341              		.size	USBUART_1_InitComponent, .-USBUART_1_InitComponent
 342              		.section	.text.USBUART_1_Start,"ax",%progbits
 343              		.align	2
 344              		.global	USBUART_1_Start
 345              		.thumb
 346              		.thumb_func
 347              		.type	USBUART_1_Start, %function
 348              	USBUART_1_Start:
 349              	.LFB0:
 186:.\Generated_Source\PSoC5/USBUART_1.c ****     if (0u == USBUART_1_initVar)
 350              		.loc 1 186 0
 351              		.cfi_startproc
 352              		@ args = 0, pretend = 0, frame = 0
 353              		@ frame_needed = 0, uses_anonymous_args = 0
 354              	.LVL25:
 355 0000 38B5     		push	{r3, r4, r5, lr}
 356              		.cfi_def_cfa_offset 16
 357              		.cfi_offset 3, -16
 358              		.cfi_offset 4, -12
 359              		.cfi_offset 5, -8
 360              		.cfi_offset 14, -4
 361 0002 0546     		mov	r5, r0
 362 0004 0C46     		mov	r4, r1
 187:.\Generated_Source\PSoC5/USBUART_1.c ****     {
 363              		.loc 1 187 0
 364 0006 064B     		ldr	r3, .L17
 365 0008 1B78     		ldrb	r3, [r3]	@ zero_extendqisi2
 366 000a 23B9     		cbnz	r3, .L15
 189:.\Generated_Source\PSoC5/USBUART_1.c ****         USBUART_1_initVar = 1u;
 367              		.loc 1 189 0
 368 000c FFF7FEFF 		bl	USBUART_1_Init
 369              	.LVL26:
 190:.\Generated_Source\PSoC5/USBUART_1.c ****     }
 370              		.loc 1 190 0
 371 0010 0122     		movs	r2, #1
 372 0012 034B     		ldr	r3, .L17
 373 0014 1A70     		strb	r2, [r3]
 374              	.L15:
 193:.\Generated_Source\PSoC5/USBUART_1.c **** }
 375              		.loc 1 193 0
 376 0016 2846     		mov	r0, r5
 377 0018 2146     		mov	r1, r4
 378 001a FFF7FEFF 		bl	USBUART_1_InitComponent
 379              	.LVL27:
 380 001e 38BD     		pop	{r3, r4, r5, pc}
 381              	.L18:
 382              		.align	2
 383              	.L17:
 384 0020 00000000 		.word	.LANCHOR0
 385              		.cfi_endproc
 386              	.LFE0:
 387              		.size	USBUART_1_Start, .-USBUART_1_Start
ARM GAS  C:\Users\Thomas\AppData\Local\Temp\ccHSNeoG.s 			page 19


 388              		.section	.text.USBUART_1_ReInitComponent,"ax",%progbits
 389              		.align	2
 390              		.global	USBUART_1_ReInitComponent
 391              		.thumb
 392              		.thumb_func
 393              		.type	USBUART_1_ReInitComponent, %function
 394              	USBUART_1_ReInitComponent:
 395              	.LFB3:
 635:.\Generated_Source\PSoC5/USBUART_1.c **** }
 636:.\Generated_Source\PSoC5/USBUART_1.c **** 
 637:.\Generated_Source\PSoC5/USBUART_1.c **** 
 638:.\Generated_Source\PSoC5/USBUART_1.c **** /*******************************************************************************
 639:.\Generated_Source\PSoC5/USBUART_1.c **** * Function Name: USBUART_1_ReInitComponent
 640:.\Generated_Source\PSoC5/USBUART_1.c **** ****************************************************************************//**
 641:.\Generated_Source\PSoC5/USBUART_1.c **** *
 642:.\Generated_Source\PSoC5/USBUART_1.c **** *  This function reinitialize the component configuration and is
 643:.\Generated_Source\PSoC5/USBUART_1.c **** *  intend to be called from the Reset interrupt.
 644:.\Generated_Source\PSoC5/USBUART_1.c **** *
 645:.\Generated_Source\PSoC5/USBUART_1.c **** * \globalvars
 646:.\Generated_Source\PSoC5/USBUART_1.c **** *   USBUART_1_device - Contains the device number of the desired Device
 647:.\Generated_Source\PSoC5/USBUART_1.c **** *        Descriptor. The device number can be found in the Device Descriptor tab
 648:.\Generated_Source\PSoC5/USBUART_1.c **** *       of the Configure dialog, under the settings of the desired Device Descriptor,
 649:.\Generated_Source\PSoC5/USBUART_1.c **** *       in the Device Number field.
 650:.\Generated_Source\PSoC5/USBUART_1.c **** *   USBUART_1_transferState - This variable is used by the communication
 651:.\Generated_Source\PSoC5/USBUART_1.c **** *       functions to handle the current transfer state. Initialized to
 652:.\Generated_Source\PSoC5/USBUART_1.c **** *       TRANS_STATE_IDLE in this API.
 653:.\Generated_Source\PSoC5/USBUART_1.c **** *   USBUART_1_configuration - Contains the current configuration number
 654:.\Generated_Source\PSoC5/USBUART_1.c **** *       set by the Host using a SET_CONFIGURATION request.
 655:.\Generated_Source\PSoC5/USBUART_1.c **** *       Initialized to zero in this API.
 656:.\Generated_Source\PSoC5/USBUART_1.c **** *   USBUART_1_deviceAddress - Contains the current device address. This
 657:.\Generated_Source\PSoC5/USBUART_1.c **** *       variable is initialized to zero in this API. The Host starts to communicate
 658:.\Generated_Source\PSoC5/USBUART_1.c **** *      to the device with address 0 and then sets it to a whatever value using
 659:.\Generated_Source\PSoC5/USBUART_1.c **** *      a SET_ADDRESS request.
 660:.\Generated_Source\PSoC5/USBUART_1.c **** *   USBUART_1_deviceStatus - Initialized to 0.
 661:.\Generated_Source\PSoC5/USBUART_1.c **** *       This is a two-bit variable which contains the power status in the first bit
 662:.\Generated_Source\PSoC5/USBUART_1.c **** *       (DEVICE_STATUS_BUS_POWERED or DEVICE_STATUS_SELF_POWERED) and the remote
 663:.\Generated_Source\PSoC5/USBUART_1.c **** *       wakeup status (DEVICE_STATUS_REMOTE_WAKEUP) in the second bit.
 664:.\Generated_Source\PSoC5/USBUART_1.c **** *   USBUART_1_lastPacketSize - Initialized to 0;
 665:.\Generated_Source\PSoC5/USBUART_1.c **** *
 666:.\Generated_Source\PSoC5/USBUART_1.c **** * \reentrant
 667:.\Generated_Source\PSoC5/USBUART_1.c **** *  No.
 668:.\Generated_Source\PSoC5/USBUART_1.c **** *
 669:.\Generated_Source\PSoC5/USBUART_1.c **** *******************************************************************************/
 670:.\Generated_Source\PSoC5/USBUART_1.c **** void USBUART_1_ReInitComponent(void) 
 671:.\Generated_Source\PSoC5/USBUART_1.c **** {
 396              		.loc 1 671 0
 397              		.cfi_startproc
 398              		@ args = 0, pretend = 0, frame = 0
 399              		@ frame_needed = 0, uses_anonymous_args = 0
 400              		@ link register save eliminated.
 672:.\Generated_Source\PSoC5/USBUART_1.c ****     /* Initialize _hidProtocol variable to comply with HID 7.2.6 Set_Protocol
 673:.\Generated_Source\PSoC5/USBUART_1.c ****     *  Request: "When initialized, all devices default to report protocol."
 674:.\Generated_Source\PSoC5/USBUART_1.c ****     */
 675:.\Generated_Source\PSoC5/USBUART_1.c **** #if defined(USBUART_1_ENABLE_HID_CLASS)
 676:.\Generated_Source\PSoC5/USBUART_1.c ****     uint8 i;
 677:.\Generated_Source\PSoC5/USBUART_1.c **** 
 678:.\Generated_Source\PSoC5/USBUART_1.c ****     for (i = 0u; i < USBUART_1_MAX_INTERFACES_NUMBER; i++)
ARM GAS  C:\Users\Thomas\AppData\Local\Temp\ccHSNeoG.s 			page 20


 679:.\Generated_Source\PSoC5/USBUART_1.c ****     {
 680:.\Generated_Source\PSoC5/USBUART_1.c ****         USBUART_1_hidProtocol[i] = USBUART_1_PROTOCOL_REPORT;
 681:.\Generated_Source\PSoC5/USBUART_1.c ****     }
 682:.\Generated_Source\PSoC5/USBUART_1.c **** #endif /* USBUART_1_ENABLE_HID_CLASS */
 683:.\Generated_Source\PSoC5/USBUART_1.c **** 
 684:.\Generated_Source\PSoC5/USBUART_1.c ****     /* Reset component internal variables. */
 685:.\Generated_Source\PSoC5/USBUART_1.c ****     USBUART_1_transferState   = USBUART_1_TRANS_STATE_IDLE;
 401              		.loc 1 685 0
 402 0000 0023     		movs	r3, #0
 403 0002 0A4A     		ldr	r2, .L20
 404 0004 1370     		strb	r3, [r2]
 686:.\Generated_Source\PSoC5/USBUART_1.c ****     USBUART_1_configurationChanged = 0u;
 405              		.loc 1 686 0
 406 0006 0A4A     		ldr	r2, .L20+4
 407 0008 1370     		strb	r3, [r2]
 687:.\Generated_Source\PSoC5/USBUART_1.c ****     USBUART_1_configuration   = 0u;
 408              		.loc 1 687 0
 409 000a 0A4A     		ldr	r2, .L20+8
 410 000c 1370     		strb	r3, [r2]
 688:.\Generated_Source\PSoC5/USBUART_1.c ****     USBUART_1_interfaceNumber = 0u;
 411              		.loc 1 688 0
 412 000e 0A4A     		ldr	r2, .L20+12
 413 0010 1370     		strb	r3, [r2]
 689:.\Generated_Source\PSoC5/USBUART_1.c ****     USBUART_1_deviceAddress   = 0u;
 414              		.loc 1 689 0
 415 0012 0A4A     		ldr	r2, .L20+16
 416 0014 1370     		strb	r3, [r2]
 690:.\Generated_Source\PSoC5/USBUART_1.c ****     USBUART_1_deviceStatus    = 0u;
 417              		.loc 1 690 0
 418 0016 0A4A     		ldr	r2, .L20+20
 419 0018 1370     		strb	r3, [r2]
 691:.\Generated_Source\PSoC5/USBUART_1.c ****     USBUART_1_lastPacketSize  = 0u;
 420              		.loc 1 691 0
 421 001a 0A4A     		ldr	r2, .L20+24
 422 001c 1370     		strb	r3, [r2]
 692:.\Generated_Source\PSoC5/USBUART_1.c **** 
 693:.\Generated_Source\PSoC5/USBUART_1.c **** #if (CY_PSOC4)
 694:.\Generated_Source\PSoC5/USBUART_1.c ****     /* Set EP0.CR: ACK Setup, NAK IN/OUT. */
 695:.\Generated_Source\PSoC5/USBUART_1.c ****     USBUART_1_EP0_CR_REG = USBUART_1_MODE_NAK_IN_OUT;
 696:.\Generated_Source\PSoC5/USBUART_1.c **** #else
 697:.\Generated_Source\PSoC5/USBUART_1.c ****     /* Set EP0.CR: ACK Setup, STALL IN/OUT. */
 698:.\Generated_Source\PSoC5/USBUART_1.c ****     USBUART_1_EP0_CR_REG = USBUART_1_MODE_STALL_IN_OUT;
 423              		.loc 1 698 0
 424 001e 0322     		movs	r2, #3
 425 0020 094B     		ldr	r3, .L20+28
 426 0022 1A70     		strb	r2, [r3]
 699:.\Generated_Source\PSoC5/USBUART_1.c **** #endif /* (CY_PSOC4) */
 700:.\Generated_Source\PSoC5/USBUART_1.c **** 
 701:.\Generated_Source\PSoC5/USBUART_1.c ****     /* Enable device to respond to USB traffic with address 0. */
 702:.\Generated_Source\PSoC5/USBUART_1.c ****     USBUART_1_CR0_REG = USBUART_1_DEFUALT_CR0;
 427              		.loc 1 702 0
 428 0024 8022     		movs	r2, #128
 429 0026 203B     		subs	r3, r3, #32
 430 0028 1A70     		strb	r2, [r3]
 431 002a 7047     		bx	lr
 432              	.L21:
 433              		.align	2
ARM GAS  C:\Users\Thomas\AppData\Local\Temp\ccHSNeoG.s 			page 21


 434              	.L20:
 435 002c 00000000 		.word	USBUART_1_transferState
 436 0030 00000000 		.word	USBUART_1_configurationChanged
 437 0034 00000000 		.word	USBUART_1_configuration
 438 0038 00000000 		.word	USBUART_1_interfaceNumber
 439 003c 00000000 		.word	USBUART_1_deviceAddress
 440 0040 00000000 		.word	USBUART_1_deviceStatus
 441 0044 00000000 		.word	USBUART_1_lastPacketSize
 442 0048 28600040 		.word	1073766440
 443              		.cfi_endproc
 444              	.LFE3:
 445              		.size	USBUART_1_ReInitComponent, .-USBUART_1_ReInitComponent
 446              		.section	.text.USBUART_1_Stop,"ax",%progbits
 447              		.align	2
 448              		.global	USBUART_1_Stop
 449              		.thumb
 450              		.thumb_func
 451              		.type	USBUART_1_Stop, %function
 452              	USBUART_1_Stop:
 453              	.LFB4:
 703:.\Generated_Source\PSoC5/USBUART_1.c **** }
 704:.\Generated_Source\PSoC5/USBUART_1.c **** 
 705:.\Generated_Source\PSoC5/USBUART_1.c **** 
 706:.\Generated_Source\PSoC5/USBUART_1.c **** /*******************************************************************************
 707:.\Generated_Source\PSoC5/USBUART_1.c **** * Function Name: USBUART_1_Stop
 708:.\Generated_Source\PSoC5/USBUART_1.c **** ****************************************************************************//**
 709:.\Generated_Source\PSoC5/USBUART_1.c **** *
 710:.\Generated_Source\PSoC5/USBUART_1.c **** *  This function shuts down the USB function including to release
 711:.\Generated_Source\PSoC5/USBUART_1.c **** *  the D+ pull-up and disabling the SIE.
 712:.\Generated_Source\PSoC5/USBUART_1.c **** *
 713:.\Generated_Source\PSoC5/USBUART_1.c **** * \globalvars
 714:.\Generated_Source\PSoC5/USBUART_1.c **** *   \ref USBUART_1_configuration
 715:.\Generated_Source\PSoC5/USBUART_1.c **** *
 716:.\Generated_Source\PSoC5/USBUART_1.c **** *   USBUART_1_deviceAddress - Contains the current device address. This
 717:.\Generated_Source\PSoC5/USBUART_1.c **** *       variable is initialized to zero in this API. The Host starts to communicate
 718:.\Generated_Source\PSoC5/USBUART_1.c **** *      to the device with address 0 and then sets it to a whatever value using
 719:.\Generated_Source\PSoC5/USBUART_1.c **** *      a SET_ADDRESS request.
 720:.\Generated_Source\PSoC5/USBUART_1.c **** *
 721:.\Generated_Source\PSoC5/USBUART_1.c **** *   \ref USBUART_1_deviceStatus
 722:.\Generated_Source\PSoC5/USBUART_1.c **** *
 723:.\Generated_Source\PSoC5/USBUART_1.c **** *   \ref USBUART_1_configurationChanged
 724:.\Generated_Source\PSoC5/USBUART_1.c **** *
 725:.\Generated_Source\PSoC5/USBUART_1.c **** *   USBUART_1_intiVar -  This variable is set to zero
 726:.\Generated_Source\PSoC5/USBUART_1.c **** *
 727:.\Generated_Source\PSoC5/USBUART_1.c **** *******************************************************************************/
 728:.\Generated_Source\PSoC5/USBUART_1.c **** void USBUART_1_Stop(void) 
 729:.\Generated_Source\PSoC5/USBUART_1.c **** {
 454              		.loc 1 729 0
 455              		.cfi_startproc
 456              		@ args = 0, pretend = 0, frame = 0
 457              		@ frame_needed = 0, uses_anonymous_args = 0
 458 0000 08B5     		push	{r3, lr}
 459              		.cfi_def_cfa_offset 8
 460              		.cfi_offset 3, -8
 461              		.cfi_offset 14, -4
 730:.\Generated_Source\PSoC5/USBUART_1.c ****     uint8 enableInterrupts;
 731:.\Generated_Source\PSoC5/USBUART_1.c **** 
ARM GAS  C:\Users\Thomas\AppData\Local\Temp\ccHSNeoG.s 			page 22


 732:.\Generated_Source\PSoC5/USBUART_1.c **** #if (USBUART_1_EP_MANAGEMENT_DMA)
 733:.\Generated_Source\PSoC5/USBUART_1.c ****     /* Stop all DMA channels. */
 734:.\Generated_Source\PSoC5/USBUART_1.c ****     USBUART_1_Stop_DMA(USBUART_1_MAX_EP);
 735:.\Generated_Source\PSoC5/USBUART_1.c **** #endif /* (USBUART_1_EP_MANAGEMENT_DMA) */
 736:.\Generated_Source\PSoC5/USBUART_1.c **** 
 737:.\Generated_Source\PSoC5/USBUART_1.c ****     enableInterrupts = CyEnterCriticalSection();
 462              		.loc 1 737 0
 463 0002 FFF7FEFF 		bl	CyEnterCriticalSection
 464              	.LVL28:
 738:.\Generated_Source\PSoC5/USBUART_1.c **** 
 739:.\Generated_Source\PSoC5/USBUART_1.c ****     /* Disable USB IP to respond to USB traffic. */
 740:.\Generated_Source\PSoC5/USBUART_1.c ****     USBUART_1_CR0_REG &= (uint8) ~USBUART_1_CR0_ENABLE;
 465              		.loc 1 740 0
 466 0006 1B4A     		ldr	r2, .L24
 467 0008 1378     		ldrb	r3, [r2]	@ zero_extendqisi2
 468 000a 03F07F03 		and	r3, r3, #127
 469 000e 1370     		strb	r3, [r2]
 741:.\Generated_Source\PSoC5/USBUART_1.c **** 
 742:.\Generated_Source\PSoC5/USBUART_1.c ****     /* Disable D+ pull-up. */
 743:.\Generated_Source\PSoC5/USBUART_1.c ****     USBUART_1_USBIO_CR1_REG &= (uint8) ~ USBUART_1_USBIO_CR1_USBPUEN;
 470              		.loc 1 743 0
 471 0010 0A32     		adds	r2, r2, #10
 472 0012 1378     		ldrb	r3, [r2]	@ zero_extendqisi2
 473 0014 03F0FB03 		and	r3, r3, #251
 474 0018 1370     		strb	r3, [r2]
 744:.\Generated_Source\PSoC5/USBUART_1.c **** 
 745:.\Generated_Source\PSoC5/USBUART_1.c **** #if (CY_PSOC4)
 746:.\Generated_Source\PSoC5/USBUART_1.c ****     /* Disable USBFS block. */
 747:.\Generated_Source\PSoC5/USBUART_1.c ****     USBUART_1_POWER_CTRL_REG &= (uint32) ~USBUART_1_POWER_CTRL_ENABLE;
 748:.\Generated_Source\PSoC5/USBUART_1.c **** #else
 749:.\Generated_Source\PSoC5/USBUART_1.c ****     /* Clear power active and standby mode templates. */
 750:.\Generated_Source\PSoC5/USBUART_1.c ****     USBUART_1_PM_ACT_CFG_REG  &= (uint8) ~USBUART_1_PM_ACT_EN_FSUSB;
 475              		.loc 1 750 0
 476 001a A2F5E352 		sub	r2, r2, #7264
 477 001e 0D3A     		subs	r2, r2, #13
 478 0020 1378     		ldrb	r3, [r2]	@ zero_extendqisi2
 479 0022 03F0FE03 		and	r3, r3, #254
 480 0026 1370     		strb	r3, [r2]
 751:.\Generated_Source\PSoC5/USBUART_1.c ****     USBUART_1_PM_STBY_CFG_REG &= (uint8) ~USBUART_1_PM_STBY_EN_FSUSB;
 481              		.loc 1 751 0
 482 0028 1032     		adds	r2, r2, #16
 483 002a 1378     		ldrb	r3, [r2]	@ zero_extendqisi2
 484 002c 03F0FE03 		and	r3, r3, #254
 485 0030 1370     		strb	r3, [r2]
 752:.\Generated_Source\PSoC5/USBUART_1.c **** #endif /* (CY_PSOC4) */
 753:.\Generated_Source\PSoC5/USBUART_1.c **** 
 754:.\Generated_Source\PSoC5/USBUART_1.c ****     CyExitCriticalSection(enableInterrupts);
 486              		.loc 1 754 0
 487 0032 FFF7FEFF 		bl	CyExitCriticalSection
 488              	.LVL29:
 755:.\Generated_Source\PSoC5/USBUART_1.c **** 
 756:.\Generated_Source\PSoC5/USBUART_1.c ****     /* Disable component interrupts. */
 757:.\Generated_Source\PSoC5/USBUART_1.c **** #if (CY_PSOC4)
 758:.\Generated_Source\PSoC5/USBUART_1.c ****     CyIntDisable(USBUART_1_INTR_HI_VECT_NUM);
 759:.\Generated_Source\PSoC5/USBUART_1.c ****     CyIntDisable(USBUART_1_INTR_LO_VECT_NUM);
 760:.\Generated_Source\PSoC5/USBUART_1.c ****     CyIntDisable(USBUART_1_INTR_MED_VECT_NUM);
 761:.\Generated_Source\PSoC5/USBUART_1.c **** #else
ARM GAS  C:\Users\Thomas\AppData\Local\Temp\ccHSNeoG.s 			page 23


 762:.\Generated_Source\PSoC5/USBUART_1.c **** 
 763:.\Generated_Source\PSoC5/USBUART_1.c ****     CyIntDisable(USBUART_1_BUS_RESET_VECT_NUM);
 489              		.loc 1 763 0
 490 0036 104B     		ldr	r3, .L24+4
 491 0038 4FF40002 		mov	r2, #8388608
 492 003c 1A60     		str	r2, [r3]
 764:.\Generated_Source\PSoC5/USBUART_1.c ****     CyIntDisable(USBUART_1_EP_0_VECT_NUM);
 493              		.loc 1 764 0
 494 003e 4FF08072 		mov	r2, #16777216
 495 0042 1A60     		str	r2, [r3]
 765:.\Generated_Source\PSoC5/USBUART_1.c **** 
 766:.\Generated_Source\PSoC5/USBUART_1.c ****     #if (USBUART_1_SOF_ISR_ACTIVE)
 767:.\Generated_Source\PSoC5/USBUART_1.c ****         CyIntDisable(USBUART_1_SOF_VECT_NUM);
 496              		.loc 1 767 0
 497 0044 4FF40012 		mov	r2, #2097152
 498 0048 1A60     		str	r2, [r3]
 768:.\Generated_Source\PSoC5/USBUART_1.c ****     #endif /* (USBUART_1_SOF_ISR_ACTIVE) */
 769:.\Generated_Source\PSoC5/USBUART_1.c **** 
 770:.\Generated_Source\PSoC5/USBUART_1.c ****     #if (USBUART_1_EP1_ISR_ACTIVE)
 771:.\Generated_Source\PSoC5/USBUART_1.c ****         CyIntDisable(USBUART_1_EP_1_VECT_NUM);
 499              		.loc 1 771 0
 500 004a 0222     		movs	r2, #2
 501 004c 1A60     		str	r2, [r3]
 772:.\Generated_Source\PSoC5/USBUART_1.c ****     #endif /* (USBUART_1_EP1_ISR_ACTIVE) */
 773:.\Generated_Source\PSoC5/USBUART_1.c **** 
 774:.\Generated_Source\PSoC5/USBUART_1.c ****     #if (USBUART_1_EP2_ISR_ACTIVE)
 775:.\Generated_Source\PSoC5/USBUART_1.c ****         CyIntDisable(USBUART_1_EP_2_VECT_NUM);
 502              		.loc 1 775 0
 503 004e 0422     		movs	r2, #4
 504 0050 1A60     		str	r2, [r3]
 776:.\Generated_Source\PSoC5/USBUART_1.c ****     #endif /* (USBUART_1_EP2_ISR_ACTIVE) */
 777:.\Generated_Source\PSoC5/USBUART_1.c **** 
 778:.\Generated_Source\PSoC5/USBUART_1.c ****     #if (USBUART_1_EP3_ISR_ACTIVE)
 779:.\Generated_Source\PSoC5/USBUART_1.c ****         CyIntDisable(USBUART_1_EP_3_VECT_NUM);
 505              		.loc 1 779 0
 506 0052 0822     		movs	r2, #8
 507 0054 1A60     		str	r2, [r3]
 780:.\Generated_Source\PSoC5/USBUART_1.c ****     #endif /* (USBUART_1_EP3_ISR_ACTIVE) */
 781:.\Generated_Source\PSoC5/USBUART_1.c **** 
 782:.\Generated_Source\PSoC5/USBUART_1.c ****     #if (USBUART_1_EP4_ISR_ACTIVE)
 783:.\Generated_Source\PSoC5/USBUART_1.c ****         CyIntDisable(USBUART_1_EP_4_VECT_NUM);
 784:.\Generated_Source\PSoC5/USBUART_1.c ****     #endif /* (USBUART_1_EP4_ISR_ACTIVE) */
 785:.\Generated_Source\PSoC5/USBUART_1.c **** 
 786:.\Generated_Source\PSoC5/USBUART_1.c ****     #if (USBUART_1_EP5_ISR_ACTIVE)
 787:.\Generated_Source\PSoC5/USBUART_1.c ****         CyIntDisable(USBUART_1_EP_5_VECT_NUM);
 788:.\Generated_Source\PSoC5/USBUART_1.c ****     #endif /* (USBUART_1_EP5_ISR_ACTIVE) */
 789:.\Generated_Source\PSoC5/USBUART_1.c **** 
 790:.\Generated_Source\PSoC5/USBUART_1.c ****     #if (USBUART_1_EP6_ISR_ACTIVE)
 791:.\Generated_Source\PSoC5/USBUART_1.c ****         CyIntDisable(USBUART_1_EP_6_VECT_NUM);
 792:.\Generated_Source\PSoC5/USBUART_1.c ****     #endif /* USBUART_1_EP6_ISR_REMOVE */
 793:.\Generated_Source\PSoC5/USBUART_1.c **** 
 794:.\Generated_Source\PSoC5/USBUART_1.c ****     #if (USBUART_1_EP7_ISR_ACTIVE)
 795:.\Generated_Source\PSoC5/USBUART_1.c ****         CyIntDisable(USBUART_1_EP_7_VECT_NUM);
 796:.\Generated_Source\PSoC5/USBUART_1.c ****     #endif /* (USBUART_1_EP7_ISR_ACTIVE) */
 797:.\Generated_Source\PSoC5/USBUART_1.c **** 
 798:.\Generated_Source\PSoC5/USBUART_1.c ****     #if (USBUART_1_EP8_ISR_ACTIVE)
 799:.\Generated_Source\PSoC5/USBUART_1.c ****         CyIntDisable(USBUART_1_EP_8_VECT_NUM);
ARM GAS  C:\Users\Thomas\AppData\Local\Temp\ccHSNeoG.s 			page 24


 800:.\Generated_Source\PSoC5/USBUART_1.c ****     #endif /* (USBUART_1_EP8_ISR_ACTIVE) */
 801:.\Generated_Source\PSoC5/USBUART_1.c **** #endif /* (CY_PSOC4) */
 802:.\Generated_Source\PSoC5/USBUART_1.c **** 
 803:.\Generated_Source\PSoC5/USBUART_1.c ****     /* Reset component internal variables. */
 804:.\Generated_Source\PSoC5/USBUART_1.c ****     USBUART_1_configurationChanged = 0u;
 508              		.loc 1 804 0
 509 0056 0023     		movs	r3, #0
 510 0058 084A     		ldr	r2, .L24+8
 511 005a 1370     		strb	r3, [r2]
 805:.\Generated_Source\PSoC5/USBUART_1.c ****     USBUART_1_configuration   = 0u;
 512              		.loc 1 805 0
 513 005c 084A     		ldr	r2, .L24+12
 514 005e 1370     		strb	r3, [r2]
 806:.\Generated_Source\PSoC5/USBUART_1.c ****     USBUART_1_interfaceNumber = 0u;
 515              		.loc 1 806 0
 516 0060 084A     		ldr	r2, .L24+16
 517 0062 1370     		strb	r3, [r2]
 807:.\Generated_Source\PSoC5/USBUART_1.c ****     USBUART_1_deviceAddress   = 0u;
 518              		.loc 1 807 0
 519 0064 084A     		ldr	r2, .L24+20
 520 0066 1370     		strb	r3, [r2]
 808:.\Generated_Source\PSoC5/USBUART_1.c ****     USBUART_1_deviceStatus    = 0u;
 521              		.loc 1 808 0
 522 0068 084A     		ldr	r2, .L24+24
 523 006a 1370     		strb	r3, [r2]
 809:.\Generated_Source\PSoC5/USBUART_1.c **** 
 810:.\Generated_Source\PSoC5/USBUART_1.c ****     /* It is mandatory for correct device startup. */
 811:.\Generated_Source\PSoC5/USBUART_1.c ****     USBUART_1_initVar = 0u;
 524              		.loc 1 811 0
 525 006c 084A     		ldr	r2, .L24+28
 526 006e 1370     		strb	r3, [r2]
 527 0070 08BD     		pop	{r3, pc}
 528              	.L25:
 529 0072 00BF     		.align	2
 530              	.L24:
 531 0074 08600040 		.word	1073766408
 532 0078 80E100E0 		.word	-536813184
 533 007c 00000000 		.word	USBUART_1_configurationChanged
 534 0080 00000000 		.word	USBUART_1_configuration
 535 0084 00000000 		.word	USBUART_1_interfaceNumber
 536 0088 00000000 		.word	USBUART_1_deviceAddress
 537 008c 00000000 		.word	USBUART_1_deviceStatus
 538 0090 00000000 		.word	.LANCHOR0
 539              		.cfi_endproc
 540              	.LFE4:
 541              		.size	USBUART_1_Stop, .-USBUART_1_Stop
 542              		.section	.text.USBUART_1_CheckActivity,"ax",%progbits
 543              		.align	2
 544              		.global	USBUART_1_CheckActivity
 545              		.thumb
 546              		.thumb_func
 547              		.type	USBUART_1_CheckActivity, %function
 548              	USBUART_1_CheckActivity:
 549              	.LFB5:
 812:.\Generated_Source\PSoC5/USBUART_1.c **** }
 813:.\Generated_Source\PSoC5/USBUART_1.c **** 
 814:.\Generated_Source\PSoC5/USBUART_1.c **** 
ARM GAS  C:\Users\Thomas\AppData\Local\Temp\ccHSNeoG.s 			page 25


 815:.\Generated_Source\PSoC5/USBUART_1.c **** /*******************************************************************************
 816:.\Generated_Source\PSoC5/USBUART_1.c **** * Function Name: USBUART_1_CheckActivity
 817:.\Generated_Source\PSoC5/USBUART_1.c **** ****************************************************************************//**
 818:.\Generated_Source\PSoC5/USBUART_1.c **** *
 819:.\Generated_Source\PSoC5/USBUART_1.c **** *  This function returns the activity status of the bus. It clears the hardware
 820:.\Generated_Source\PSoC5/USBUART_1.c **** *  status to provide updated status on the next call of this function. It
 821:.\Generated_Source\PSoC5/USBUART_1.c **** *  provides a way to determine whether any USB bus activity occurred. The
 822:.\Generated_Source\PSoC5/USBUART_1.c **** *  application should use this function to determine if the USB suspend
 823:.\Generated_Source\PSoC5/USBUART_1.c **** *  conditions are met.
 824:.\Generated_Source\PSoC5/USBUART_1.c **** *
 825:.\Generated_Source\PSoC5/USBUART_1.c **** *
 826:.\Generated_Source\PSoC5/USBUART_1.c **** * \return
 827:.\Generated_Source\PSoC5/USBUART_1.c **** *  cystatus: Status of the bus since the last call of the function.
 828:.\Generated_Source\PSoC5/USBUART_1.c **** *  Return Value |   Description
 829:.\Generated_Source\PSoC5/USBUART_1.c **** *  -------------|---------------------------------------------------------------
 830:.\Generated_Source\PSoC5/USBUART_1.c **** *  1            |Bus activity was detected since the last call to this function
 831:.\Generated_Source\PSoC5/USBUART_1.c **** *  0            |Bus activity was not detected since the last call to this function
 832:.\Generated_Source\PSoC5/USBUART_1.c **** *
 833:.\Generated_Source\PSoC5/USBUART_1.c **** *
 834:.\Generated_Source\PSoC5/USBUART_1.c **** *******************************************************************************/
 835:.\Generated_Source\PSoC5/USBUART_1.c **** uint8 USBUART_1_CheckActivity(void) 
 836:.\Generated_Source\PSoC5/USBUART_1.c **** {
 550              		.loc 1 836 0
 551              		.cfi_startproc
 552              		@ args = 0, pretend = 0, frame = 0
 553              		@ frame_needed = 0, uses_anonymous_args = 0
 554              		@ link register save eliminated.
 837:.\Generated_Source\PSoC5/USBUART_1.c ****     uint8 cr1Reg = USBUART_1_CR1_REG;
 555              		.loc 1 837 0
 556 0000 064A     		ldr	r2, .L28
 557 0002 1378     		ldrb	r3, [r2]	@ zero_extendqisi2
 558 0004 DBB2     		uxtb	r3, r3
 559              	.LVL30:
 838:.\Generated_Source\PSoC5/USBUART_1.c **** 
 839:.\Generated_Source\PSoC5/USBUART_1.c ****     /* Clear bus activity. */
 840:.\Generated_Source\PSoC5/USBUART_1.c ****     USBUART_1_CR1_REG = (cr1Reg & (uint8) ~USBUART_1_CR1_BUS_ACTIVITY);
 560              		.loc 1 840 0
 561 0006 03F0FB01 		and	r1, r3, #251
 562 000a 1170     		strb	r1, [r2]
 841:.\Generated_Source\PSoC5/USBUART_1.c **** 
 842:.\Generated_Source\PSoC5/USBUART_1.c ****     /* Get bus activity. */
 843:.\Generated_Source\PSoC5/USBUART_1.c ****     return ((0u != (cr1Reg & USBUART_1_CR1_BUS_ACTIVITY)) ? (1u) : (0u));
 563              		.loc 1 843 0
 564 000c 03F00403 		and	r3, r3, #4
 565              	.LVL31:
 566 0010 03F0FF00 		and	r0, r3, #255
 567 0014 03B1     		cbz	r3, .L27
 568 0016 0120     		movs	r0, #1
 569              	.L27:
 844:.\Generated_Source\PSoC5/USBUART_1.c **** }
 570              		.loc 1 844 0 discriminator 4
 571 0018 7047     		bx	lr
 572              	.L29:
 573 001a 00BF     		.align	2
 574              	.L28:
 575 001c 09600040 		.word	1073766409
 576              		.cfi_endproc
ARM GAS  C:\Users\Thomas\AppData\Local\Temp\ccHSNeoG.s 			page 26


 577              	.LFE5:
 578              		.size	USBUART_1_CheckActivity, .-USBUART_1_CheckActivity
 579              		.section	.text.USBUART_1_GetConfiguration,"ax",%progbits
 580              		.align	2
 581              		.global	USBUART_1_GetConfiguration
 582              		.thumb
 583              		.thumb_func
 584              		.type	USBUART_1_GetConfiguration, %function
 585              	USBUART_1_GetConfiguration:
 586              	.LFB6:
 845:.\Generated_Source\PSoC5/USBUART_1.c **** 
 846:.\Generated_Source\PSoC5/USBUART_1.c **** 
 847:.\Generated_Source\PSoC5/USBUART_1.c **** /*******************************************************************************
 848:.\Generated_Source\PSoC5/USBUART_1.c **** * Function Name: USBUART_1_GetConfiguration
 849:.\Generated_Source\PSoC5/USBUART_1.c **** ****************************************************************************//**
 850:.\Generated_Source\PSoC5/USBUART_1.c **** *
 851:.\Generated_Source\PSoC5/USBUART_1.c **** *  This function gets the current configuration of the USB device.
 852:.\Generated_Source\PSoC5/USBUART_1.c **** *
 853:.\Generated_Source\PSoC5/USBUART_1.c **** * \return
 854:.\Generated_Source\PSoC5/USBUART_1.c **** *  Returns the currently assigned configuration. Returns 0 if the device
 855:.\Generated_Source\PSoC5/USBUART_1.c **** *  is not configured
 856:.\Generated_Source\PSoC5/USBUART_1.c **** *
 857:.\Generated_Source\PSoC5/USBUART_1.c **** *******************************************************************************/
 858:.\Generated_Source\PSoC5/USBUART_1.c **** uint8 USBUART_1_GetConfiguration(void) 
 859:.\Generated_Source\PSoC5/USBUART_1.c **** {
 587              		.loc 1 859 0
 588              		.cfi_startproc
 589              		@ args = 0, pretend = 0, frame = 0
 590              		@ frame_needed = 0, uses_anonymous_args = 0
 591              		@ link register save eliminated.
 860:.\Generated_Source\PSoC5/USBUART_1.c ****     return (USBUART_1_configuration);
 592              		.loc 1 860 0
 593 0000 014B     		ldr	r3, .L31
 594 0002 1878     		ldrb	r0, [r3]	@ zero_extendqisi2
 861:.\Generated_Source\PSoC5/USBUART_1.c **** }
 595              		.loc 1 861 0
 596 0004 7047     		bx	lr
 597              	.L32:
 598 0006 00BF     		.align	2
 599              	.L31:
 600 0008 00000000 		.word	USBUART_1_configuration
 601              		.cfi_endproc
 602              	.LFE6:
 603              		.size	USBUART_1_GetConfiguration, .-USBUART_1_GetConfiguration
 604              		.section	.text.USBUART_1_IsConfigurationChanged,"ax",%progbits
 605              		.align	2
 606              		.global	USBUART_1_IsConfigurationChanged
 607              		.thumb
 608              		.thumb_func
 609              		.type	USBUART_1_IsConfigurationChanged, %function
 610              	USBUART_1_IsConfigurationChanged:
 611              	.LFB7:
 862:.\Generated_Source\PSoC5/USBUART_1.c **** 
 863:.\Generated_Source\PSoC5/USBUART_1.c **** 
 864:.\Generated_Source\PSoC5/USBUART_1.c **** /*******************************************************************************
 865:.\Generated_Source\PSoC5/USBUART_1.c **** * Function Name: USBUART_1_IsConfigurationChanged
 866:.\Generated_Source\PSoC5/USBUART_1.c **** ****************************************************************************//**
ARM GAS  C:\Users\Thomas\AppData\Local\Temp\ccHSNeoG.s 			page 27


 867:.\Generated_Source\PSoC5/USBUART_1.c **** *
 868:.\Generated_Source\PSoC5/USBUART_1.c **** *  This function returns the clear-on-read configuration state.  It is useful
 869:.\Generated_Source\PSoC5/USBUART_1.c **** *  when the host sends double SET_CONFIGURATION request with the same 
 870:.\Generated_Source\PSoC5/USBUART_1.c **** *  configuration number or changes alternate settings of the interface. 
 871:.\Generated_Source\PSoC5/USBUART_1.c **** *  After configuration has been changed the OUT endpoints must be enabled and IN 
 872:.\Generated_Source\PSoC5/USBUART_1.c **** *  endpoint must be loaded with data to start communication with the host.
 873:.\Generated_Source\PSoC5/USBUART_1.c **** *
 874:.\Generated_Source\PSoC5/USBUART_1.c **** * \return
 875:.\Generated_Source\PSoC5/USBUART_1.c **** *  None-zero value when new configuration has been changed, otherwise zero is
 876:.\Generated_Source\PSoC5/USBUART_1.c **** *  returned.
 877:.\Generated_Source\PSoC5/USBUART_1.c **** *
 878:.\Generated_Source\PSoC5/USBUART_1.c **** * \globalvars
 879:.\Generated_Source\PSoC5/USBUART_1.c **** *
 880:.\Generated_Source\PSoC5/USBUART_1.c **** *  \ref USBUART_1_configurationChanged - This variable is set to 1 after
 881:.\Generated_Source\PSoC5/USBUART_1.c **** *   a SET_CONFIGURATION request and cleared in this function.
 882:.\Generated_Source\PSoC5/USBUART_1.c **** *
 883:.\Generated_Source\PSoC5/USBUART_1.c **** *******************************************************************************/
 884:.\Generated_Source\PSoC5/USBUART_1.c **** uint8 USBUART_1_IsConfigurationChanged(void) 
 885:.\Generated_Source\PSoC5/USBUART_1.c **** {
 612              		.loc 1 885 0
 613              		.cfi_startproc
 614              		@ args = 0, pretend = 0, frame = 0
 615              		@ frame_needed = 0, uses_anonymous_args = 0
 616              		@ link register save eliminated.
 617              	.LVL32:
 886:.\Generated_Source\PSoC5/USBUART_1.c ****     uint8 res = 0u;
 887:.\Generated_Source\PSoC5/USBUART_1.c **** 
 888:.\Generated_Source\PSoC5/USBUART_1.c ****     if (USBUART_1_configurationChanged != 0u)
 618              		.loc 1 888 0
 619 0000 064B     		ldr	r3, .L36
 620 0002 1B78     		ldrb	r3, [r3]	@ zero_extendqisi2
 621 0004 13F0FF0F 		tst	r3, #255
 622 0008 05D0     		beq	.L35
 889:.\Generated_Source\PSoC5/USBUART_1.c ****     {
 890:.\Generated_Source\PSoC5/USBUART_1.c ****         res = USBUART_1_configurationChanged;
 623              		.loc 1 890 0
 624 000a 044B     		ldr	r3, .L36
 625 000c 1878     		ldrb	r0, [r3]	@ zero_extendqisi2
 626 000e C0B2     		uxtb	r0, r0
 627              	.LVL33:
 891:.\Generated_Source\PSoC5/USBUART_1.c ****         USBUART_1_configurationChanged = 0u;
 628              		.loc 1 891 0
 629 0010 0022     		movs	r2, #0
 630 0012 1A70     		strb	r2, [r3]
 631 0014 7047     		bx	lr
 632              	.LVL34:
 633              	.L35:
 886:.\Generated_Source\PSoC5/USBUART_1.c ****     uint8 res = 0u;
 634              		.loc 1 886 0
 635 0016 0020     		movs	r0, #0
 636              	.LVL35:
 892:.\Generated_Source\PSoC5/USBUART_1.c ****     }
 893:.\Generated_Source\PSoC5/USBUART_1.c **** 
 894:.\Generated_Source\PSoC5/USBUART_1.c ****     return (res);
 895:.\Generated_Source\PSoC5/USBUART_1.c **** }
 637              		.loc 1 895 0
 638 0018 7047     		bx	lr
ARM GAS  C:\Users\Thomas\AppData\Local\Temp\ccHSNeoG.s 			page 28


 639              	.L37:
 640 001a 00BF     		.align	2
 641              	.L36:
 642 001c 00000000 		.word	USBUART_1_configurationChanged
 643              		.cfi_endproc
 644              	.LFE7:
 645              		.size	USBUART_1_IsConfigurationChanged, .-USBUART_1_IsConfigurationChanged
 646              		.section	.text.USBUART_1_GetInterfaceSetting,"ax",%progbits
 647              		.align	2
 648              		.global	USBUART_1_GetInterfaceSetting
 649              		.thumb
 650              		.thumb_func
 651              		.type	USBUART_1_GetInterfaceSetting, %function
 652              	USBUART_1_GetInterfaceSetting:
 653              	.LFB8:
 896:.\Generated_Source\PSoC5/USBUART_1.c **** 
 897:.\Generated_Source\PSoC5/USBUART_1.c **** 
 898:.\Generated_Source\PSoC5/USBUART_1.c **** /*******************************************************************************
 899:.\Generated_Source\PSoC5/USBUART_1.c **** * Function Name: USBUART_1_GetInterfaceSetting
 900:.\Generated_Source\PSoC5/USBUART_1.c **** ****************************************************************************//**
 901:.\Generated_Source\PSoC5/USBUART_1.c **** *
 902:.\Generated_Source\PSoC5/USBUART_1.c **** *  This function gets the current alternate setting for the specified interface.
 903:.\Generated_Source\PSoC5/USBUART_1.c **** *  It is useful to identify which alternate settings are active in the specified 
 904:.\Generated_Source\PSoC5/USBUART_1.c **** *  interface.
 905:.\Generated_Source\PSoC5/USBUART_1.c **** *
 906:.\Generated_Source\PSoC5/USBUART_1.c **** *  \param
 907:.\Generated_Source\PSoC5/USBUART_1.c **** *  interfaceNumber interface number
 908:.\Generated_Source\PSoC5/USBUART_1.c **** *
 909:.\Generated_Source\PSoC5/USBUART_1.c **** * \return
 910:.\Generated_Source\PSoC5/USBUART_1.c **** *  Returns the current alternate setting for the specified interface.
 911:.\Generated_Source\PSoC5/USBUART_1.c **** *
 912:.\Generated_Source\PSoC5/USBUART_1.c **** *******************************************************************************/
 913:.\Generated_Source\PSoC5/USBUART_1.c **** uint8  USBUART_1_GetInterfaceSetting(uint8 interfaceNumber)
 914:.\Generated_Source\PSoC5/USBUART_1.c ****                                                     
 915:.\Generated_Source\PSoC5/USBUART_1.c **** {
 654              		.loc 1 915 0
 655              		.cfi_startproc
 656              		@ args = 0, pretend = 0, frame = 0
 657              		@ frame_needed = 0, uses_anonymous_args = 0
 658              		@ link register save eliminated.
 659              	.LVL36:
 916:.\Generated_Source\PSoC5/USBUART_1.c ****     return (USBUART_1_interfaceSetting[interfaceNumber]);
 660              		.loc 1 916 0
 661 0000 014B     		ldr	r3, .L39
 662 0002 185C     		ldrb	r0, [r3, r0]	@ zero_extendqisi2
 663              	.LVL37:
 917:.\Generated_Source\PSoC5/USBUART_1.c **** }
 664              		.loc 1 917 0
 665 0004 7047     		bx	lr
 666              	.L40:
 667 0006 00BF     		.align	2
 668              	.L39:
 669 0008 00000000 		.word	USBUART_1_interfaceSetting
 670              		.cfi_endproc
 671              	.LFE8:
 672              		.size	USBUART_1_GetInterfaceSetting, .-USBUART_1_GetInterfaceSetting
 673              		.section	.text.USBUART_1_GetEPState,"ax",%progbits
ARM GAS  C:\Users\Thomas\AppData\Local\Temp\ccHSNeoG.s 			page 29


 674              		.align	2
 675              		.global	USBUART_1_GetEPState
 676              		.thumb
 677              		.thumb_func
 678              		.type	USBUART_1_GetEPState, %function
 679              	USBUART_1_GetEPState:
 680              	.LFB9:
 918:.\Generated_Source\PSoC5/USBUART_1.c **** 
 919:.\Generated_Source\PSoC5/USBUART_1.c **** 
 920:.\Generated_Source\PSoC5/USBUART_1.c **** /*******************************************************************************
 921:.\Generated_Source\PSoC5/USBUART_1.c **** * Function Name: USBUART_1_GetEPState
 922:.\Generated_Source\PSoC5/USBUART_1.c **** ****************************************************************************//**
 923:.\Generated_Source\PSoC5/USBUART_1.c **** *
 924:.\Generated_Source\PSoC5/USBUART_1.c **** *  This function returns the state of the requested endpoint.
 925:.\Generated_Source\PSoC5/USBUART_1.c **** *
 926:.\Generated_Source\PSoC5/USBUART_1.c **** * \param epNumber Data endpoint number
 927:.\Generated_Source\PSoC5/USBUART_1.c **** *
 928:.\Generated_Source\PSoC5/USBUART_1.c **** * \return
 929:.\Generated_Source\PSoC5/USBUART_1.c **** *  Returns the current state of the specified USBFS endpoint. Symbolic names and
 930:.\Generated_Source\PSoC5/USBUART_1.c **** *  their associated values are given in the following table. Use these constants
 931:.\Generated_Source\PSoC5/USBUART_1.c **** *  whenever you write code to change the state of the endpoints, such as ISR
 932:.\Generated_Source\PSoC5/USBUART_1.c **** *  code, to handle data sent or received.
 933:.\Generated_Source\PSoC5/USBUART_1.c **** *
 934:.\Generated_Source\PSoC5/USBUART_1.c **** *  Return Value           | Description
 935:.\Generated_Source\PSoC5/USBUART_1.c **** *  -----------------------|-----------------------------------------------------
 936:.\Generated_Source\PSoC5/USBUART_1.c **** *  USBFS_NO_EVENT_PENDING |The endpoint is awaiting SIE action
 937:.\Generated_Source\PSoC5/USBUART_1.c **** *  USBFS_EVENT_PENDING    |The endpoint is awaiting CPU action
 938:.\Generated_Source\PSoC5/USBUART_1.c **** *  USBFS_NO_EVENT_ALLOWED |The endpoint is locked from access
 939:.\Generated_Source\PSoC5/USBUART_1.c **** *  USBFS_IN_BUFFER_FULL   |The IN endpoint is loaded and the mode is set to ACK IN
 940:.\Generated_Source\PSoC5/USBUART_1.c **** *  USBFS_IN_BUFFER_EMPTY  |An IN transaction occurred and more data can be loaded
 941:.\Generated_Source\PSoC5/USBUART_1.c **** *  USBFS_OUT_BUFFER_EMPTY |The OUT endpoint is set to ACK OUT and is waiting for data
 942:.\Generated_Source\PSoC5/USBUART_1.c **** *  USBFS_OUT_BUFFER_FULL  |An OUT transaction has occurred and data can be read
 943:.\Generated_Source\PSoC5/USBUART_1.c **** *
 944:.\Generated_Source\PSoC5/USBUART_1.c **** *******************************************************************************/
 945:.\Generated_Source\PSoC5/USBUART_1.c **** uint8 USBUART_1_GetEPState(uint8 epNumber) 
 946:.\Generated_Source\PSoC5/USBUART_1.c **** {
 681              		.loc 1 946 0
 682              		.cfi_startproc
 683              		@ args = 0, pretend = 0, frame = 0
 684              		@ frame_needed = 0, uses_anonymous_args = 0
 685              		@ link register save eliminated.
 686              	.LVL38:
 947:.\Generated_Source\PSoC5/USBUART_1.c ****     return (USBUART_1_EP[epNumber].apiEpState);
 687              		.loc 1 947 0
 688 0000 00EB4000 		add	r0, r0, r0, lsl #1
 689              	.LVL39:
 690 0004 8000     		lsls	r0, r0, #2
 691 0006 024B     		ldr	r3, .L42
 692 0008 1844     		add	r0, r0, r3
 693 000a 4078     		ldrb	r0, [r0, #1]	@ zero_extendqisi2
 948:.\Generated_Source\PSoC5/USBUART_1.c **** }
 694              		.loc 1 948 0
 695 000c 7047     		bx	lr
 696              	.L43:
 697 000e 00BF     		.align	2
 698              	.L42:
 699 0010 00000000 		.word	USBUART_1_EP
ARM GAS  C:\Users\Thomas\AppData\Local\Temp\ccHSNeoG.s 			page 30


 700              		.cfi_endproc
 701              	.LFE9:
 702              		.size	USBUART_1_GetEPState, .-USBUART_1_GetEPState
 703              		.section	.text.USBUART_1_GetEPCount,"ax",%progbits
 704              		.align	2
 705              		.global	USBUART_1_GetEPCount
 706              		.thumb
 707              		.thumb_func
 708              		.type	USBUART_1_GetEPCount, %function
 709              	USBUART_1_GetEPCount:
 710              	.LFB10:
 949:.\Generated_Source\PSoC5/USBUART_1.c **** 
 950:.\Generated_Source\PSoC5/USBUART_1.c **** 
 951:.\Generated_Source\PSoC5/USBUART_1.c **** /*******************************************************************************
 952:.\Generated_Source\PSoC5/USBUART_1.c **** * Function Name: USBUART_1_GetEPCount
 953:.\Generated_Source\PSoC5/USBUART_1.c **** ****************************************************************************//**
 954:.\Generated_Source\PSoC5/USBUART_1.c **** *
 955:.\Generated_Source\PSoC5/USBUART_1.c **** *  This function supports Data Endpoints only(EP1-EP8).
 956:.\Generated_Source\PSoC5/USBUART_1.c **** *  Returns the transfer count for the requested endpoint.  The value from
 957:.\Generated_Source\PSoC5/USBUART_1.c **** *  the count registers includes 2 counts for the two byte checksum of the
 958:.\Generated_Source\PSoC5/USBUART_1.c **** *  packet.  This function subtracts the two counts.
 959:.\Generated_Source\PSoC5/USBUART_1.c **** *
 960:.\Generated_Source\PSoC5/USBUART_1.c **** *  \param epNumber Data Endpoint Number.
 961:.\Generated_Source\PSoC5/USBUART_1.c **** *                   Valid values are between 1 and 8.
 962:.\Generated_Source\PSoC5/USBUART_1.c **** *
 963:.\Generated_Source\PSoC5/USBUART_1.c **** * \return
 964:.\Generated_Source\PSoC5/USBUART_1.c **** *  Returns the current byte count from the specified endpoint or 0 for an
 965:.\Generated_Source\PSoC5/USBUART_1.c **** *  invalid endpoint.
 966:.\Generated_Source\PSoC5/USBUART_1.c **** *
 967:.\Generated_Source\PSoC5/USBUART_1.c **** *******************************************************************************/
 968:.\Generated_Source\PSoC5/USBUART_1.c **** uint16 USBUART_1_GetEPCount(uint8 epNumber) 
 969:.\Generated_Source\PSoC5/USBUART_1.c **** {
 711              		.loc 1 969 0
 712              		.cfi_startproc
 713              		@ args = 0, pretend = 0, frame = 0
 714              		@ frame_needed = 0, uses_anonymous_args = 0
 715              		@ link register save eliminated.
 716              	.LVL40:
 970:.\Generated_Source\PSoC5/USBUART_1.c ****     uint16 cntr = 0u;
 971:.\Generated_Source\PSoC5/USBUART_1.c **** 
 972:.\Generated_Source\PSoC5/USBUART_1.c ****     if ((epNumber > USBUART_1_EP0) && (epNumber < USBUART_1_MAX_EP))
 717              		.loc 1 972 0
 718 0000 431E     		subs	r3, r0, #1
 719 0002 DBB2     		uxtb	r3, r3
 720 0004 072B     		cmp	r3, #7
 721 0006 0BD8     		bhi	.L46
 973:.\Generated_Source\PSoC5/USBUART_1.c ****     {
 974:.\Generated_Source\PSoC5/USBUART_1.c ****         /* Get 11-bits EP counter where epCnt0 - 3 bits MSB and epCnt1 - 8 bits LSB. */
 975:.\Generated_Source\PSoC5/USBUART_1.c ****         cntr  = ((uint16) USBUART_1_SIE_EP_BASE.sieEp[epNumber].epCnt0) & USBUART_1_EPX_CNT0_MASK;
 722              		.loc 1 975 0
 723 0008 064B     		ldr	r3, .L47
 724 000a 0001     		lsls	r0, r0, #4
 725              	.LVL41:
 726 000c 1A18     		adds	r2, r3, r0
 727 000e 185C     		ldrb	r0, [r3, r0]	@ zero_extendqisi2
 728 0010 00F00F00 		and	r0, r0, #15
 729              	.LVL42:
ARM GAS  C:\Users\Thomas\AppData\Local\Temp\ccHSNeoG.s 			page 31


 976:.\Generated_Source\PSoC5/USBUART_1.c ****         cntr  = ((uint16) (cntr << 8u)) | ((uint16) USBUART_1_SIE_EP_BASE.sieEp[epNumber].epCnt1);
 730              		.loc 1 976 0
 731 0014 5378     		ldrb	r3, [r2, #1]	@ zero_extendqisi2
 732 0016 43EA0020 		orr	r0, r3, r0, lsl #8
 733              	.LVL43:
 977:.\Generated_Source\PSoC5/USBUART_1.c ****         cntr -= USBUART_1_EPX_CNTX_CRC_COUNT;
 734              		.loc 1 977 0
 735 001a 0238     		subs	r0, r0, #2
 736              	.LVL44:
 737 001c 80B2     		uxth	r0, r0
 738              	.LVL45:
 739 001e 7047     		bx	lr
 740              	.LVL46:
 741              	.L46:
 970:.\Generated_Source\PSoC5/USBUART_1.c **** 
 742              		.loc 1 970 0
 743 0020 0020     		movs	r0, #0
 744              	.LVL47:
 978:.\Generated_Source\PSoC5/USBUART_1.c ****     }
 979:.\Generated_Source\PSoC5/USBUART_1.c **** 
 980:.\Generated_Source\PSoC5/USBUART_1.c ****     return (cntr);
 981:.\Generated_Source\PSoC5/USBUART_1.c **** }
 745              		.loc 1 981 0
 746 0022 7047     		bx	lr
 747              	.L48:
 748              		.align	2
 749              	.L47:
 750 0024 FC5F0040 		.word	1073766396
 751              		.cfi_endproc
 752              	.LFE10:
 753              		.size	USBUART_1_GetEPCount, .-USBUART_1_GetEPCount
 754              		.section	.text.USBUART_1_LoadInEP,"ax",%progbits
 755              		.align	2
 756              		.global	USBUART_1_LoadInEP
 757              		.thumb
 758              		.thumb_func
 759              		.type	USBUART_1_LoadInEP, %function
 760              	USBUART_1_LoadInEP:
 761              	.LFB11:
 982:.\Generated_Source\PSoC5/USBUART_1.c **** 
 983:.\Generated_Source\PSoC5/USBUART_1.c **** 
 984:.\Generated_Source\PSoC5/USBUART_1.c **** #if (USBUART_1_EP_MANAGEMENT_DMA)
 985:.\Generated_Source\PSoC5/USBUART_1.c **** #if (CY_PSOC4)
 986:.\Generated_Source\PSoC5/USBUART_1.c ****     /*******************************************************************************
 987:.\Generated_Source\PSoC5/USBUART_1.c ****     * Function Name: USBUART_1_InitEpDma
 988:.\Generated_Source\PSoC5/USBUART_1.c ****     ****************************************************************************//**
 989:.\Generated_Source\PSoC5/USBUART_1.c ****     *
 990:.\Generated_Source\PSoC5/USBUART_1.c ****     *  This function configures priority for all DMA channels utilized by the
 991:.\Generated_Source\PSoC5/USBUART_1.c ****     *  component. Also sets callbacks for DMA auto mode.
 992:.\Generated_Source\PSoC5/USBUART_1.c ****     *
 993:.\Generated_Source\PSoC5/USBUART_1.c ****     *******************************************************************************/
 994:.\Generated_Source\PSoC5/USBUART_1.c ****     static void USBUART_1_InitEpDma(void)
 995:.\Generated_Source\PSoC5/USBUART_1.c ****     {
 996:.\Generated_Source\PSoC5/USBUART_1.c ****     #if (USBUART_1_DMA1_ACTIVE)
 997:.\Generated_Source\PSoC5/USBUART_1.c ****         CYDMA_CH_CTL_BASE.ctl[USBUART_1_ep1_dma_CHANNEL] = USBUART_1_ep1_dma_CHANNEL_CFG;
 998:.\Generated_Source\PSoC5/USBUART_1.c ****     #endif /* (USBUART_1_DMA1_ACTIVE) */
 999:.\Generated_Source\PSoC5/USBUART_1.c **** 
ARM GAS  C:\Users\Thomas\AppData\Local\Temp\ccHSNeoG.s 			page 32


1000:.\Generated_Source\PSoC5/USBUART_1.c ****     #if (USBUART_1_DMA2_ACTIVE)
1001:.\Generated_Source\PSoC5/USBUART_1.c ****         CYDMA_CH_CTL_BASE.ctl[USBUART_1_ep2_dma_CHANNEL] = USBUART_1_ep2_dma_CHANNEL_CFG;
1002:.\Generated_Source\PSoC5/USBUART_1.c ****     #endif /* (USBUART_1_DMA2_ACTIVE) */
1003:.\Generated_Source\PSoC5/USBUART_1.c **** 
1004:.\Generated_Source\PSoC5/USBUART_1.c ****     #if (USBUART_1_DMA3_ACTIVE)
1005:.\Generated_Source\PSoC5/USBUART_1.c ****         CYDMA_CH_CTL_BASE.ctl[USBUART_1_ep3_dma_CHANNEL] = USBUART_1_ep3_dma_CHANNEL_CFG;
1006:.\Generated_Source\PSoC5/USBUART_1.c ****     #endif /* (USBUART_1_DMA3_ACTIVE) */
1007:.\Generated_Source\PSoC5/USBUART_1.c **** 
1008:.\Generated_Source\PSoC5/USBUART_1.c ****     #if (USBUART_1_DMA4_ACTIVE)
1009:.\Generated_Source\PSoC5/USBUART_1.c ****         CYDMA_CH_CTL_BASE.ctl[USBUART_1_ep4_dma_CHANNEL] = USBUART_1_ep4_dma_CHANNEL_CFG;
1010:.\Generated_Source\PSoC5/USBUART_1.c ****     #endif /* (USBUART_1_DMA4_ACTIVE) */
1011:.\Generated_Source\PSoC5/USBUART_1.c **** 
1012:.\Generated_Source\PSoC5/USBUART_1.c ****     #if (USBUART_1_DMA5_ACTIVE)
1013:.\Generated_Source\PSoC5/USBUART_1.c ****         CYDMA_CH_CTL_BASE.ctl[USBUART_1_ep5_dma_CHANNEL] = USBUART_1_ep5_dma_CHANNEL_CFG;
1014:.\Generated_Source\PSoC5/USBUART_1.c ****     #endif /* (USBUART_1_DMA5_ACTIVE) */
1015:.\Generated_Source\PSoC5/USBUART_1.c **** 
1016:.\Generated_Source\PSoC5/USBUART_1.c ****     #if (USBUART_1_DMA6_ACTIVE)
1017:.\Generated_Source\PSoC5/USBUART_1.c ****         CYDMA_CH_CTL_BASE.ctl[USBUART_1_ep6_dma_CHANNEL] = USBUART_1_ep6_dma_CHANNEL_CFG;
1018:.\Generated_Source\PSoC5/USBUART_1.c ****     #endif /* (USBUART_1_DMA6_ACTIVE) */
1019:.\Generated_Source\PSoC5/USBUART_1.c **** 
1020:.\Generated_Source\PSoC5/USBUART_1.c ****     #if (USBUART_1_DMA7_ACTIVE)
1021:.\Generated_Source\PSoC5/USBUART_1.c ****         CYDMA_CH_CTL_BASE.ctl[USBUART_1_ep7_dma_CHANNEL] = USBUART_1_ep7_dma_CHANNEL_CFG;
1022:.\Generated_Source\PSoC5/USBUART_1.c ****     #endif /* (USBUART_1_DMA7_ACTIVE) */
1023:.\Generated_Source\PSoC5/USBUART_1.c **** 
1024:.\Generated_Source\PSoC5/USBUART_1.c ****     #if (USBUART_1_DMA8_ACTIVE)
1025:.\Generated_Source\PSoC5/USBUART_1.c ****         CYDMA_CH_CTL_BASE.ctl[USBUART_1_ep8_dma_CHANNEL] = USBUART_1_ep8_dma_CHANNEL_CFG;
1026:.\Generated_Source\PSoC5/USBUART_1.c ****     #endif /* (USBUART_1_DMA8_ACTIVE) */
1027:.\Generated_Source\PSoC5/USBUART_1.c **** 
1028:.\Generated_Source\PSoC5/USBUART_1.c ****     #if (USBUART_1_EP_MANAGEMENT_DMA_AUTO)
1029:.\Generated_Source\PSoC5/USBUART_1.c ****         /* Initialize DMA channel callbacks. */
1030:.\Generated_Source\PSoC5/USBUART_1.c ****         #if (USBUART_1_DMA1_ACTIVE)
1031:.\Generated_Source\PSoC5/USBUART_1.c ****             (void) USBUART_1_ep1_dma_SetInterruptCallback(&USBUART_1_EP1_DMA_DONE_ISR);
1032:.\Generated_Source\PSoC5/USBUART_1.c ****         #endif /* (USBUART_1_DMA1_ACTIVE) */
1033:.\Generated_Source\PSoC5/USBUART_1.c **** 
1034:.\Generated_Source\PSoC5/USBUART_1.c ****         #if (USBUART_1_DMA2_ACTIVE)
1035:.\Generated_Source\PSoC5/USBUART_1.c ****             (void) USBUART_1_ep2_dma_SetInterruptCallback(&USBUART_1_EP2_DMA_DONE_ISR);
1036:.\Generated_Source\PSoC5/USBUART_1.c ****         #endif /* (USBUART_1_DMA2_ACTIVE) */
1037:.\Generated_Source\PSoC5/USBUART_1.c **** 
1038:.\Generated_Source\PSoC5/USBUART_1.c ****         #if (USBUART_1_DMA3_ACTIVE)
1039:.\Generated_Source\PSoC5/USBUART_1.c ****             (void) USBUART_1_ep3_dma_SetInterruptCallback(&USBUART_1_EP3_DMA_DONE_ISR);
1040:.\Generated_Source\PSoC5/USBUART_1.c ****         #endif /* (USBUART_1_DMA3_ACTIVE) */
1041:.\Generated_Source\PSoC5/USBUART_1.c **** 
1042:.\Generated_Source\PSoC5/USBUART_1.c ****         #if (USBUART_1_DMA4_ACTIVE)
1043:.\Generated_Source\PSoC5/USBUART_1.c ****             (void) USBUART_1_ep4_dma_SetInterruptCallback(&USBUART_1_EP4_DMA_DONE_ISR);
1044:.\Generated_Source\PSoC5/USBUART_1.c ****         #endif /* (USBUART_1_DMA4_ACTIVE) */
1045:.\Generated_Source\PSoC5/USBUART_1.c **** 
1046:.\Generated_Source\PSoC5/USBUART_1.c ****         #if (USBUART_1_DMA5_ACTIVE)
1047:.\Generated_Source\PSoC5/USBUART_1.c ****             (void) USBUART_1_ep5_dma_SetInterruptCallback(&USBUART_1_EP5_DMA_DONE_ISR);
1048:.\Generated_Source\PSoC5/USBUART_1.c ****         #endif /* (USBUART_1_DMA5_ACTIVE) */
1049:.\Generated_Source\PSoC5/USBUART_1.c **** 
1050:.\Generated_Source\PSoC5/USBUART_1.c ****         #if (USBUART_1_DMA6_ACTIVE)
1051:.\Generated_Source\PSoC5/USBUART_1.c ****             (void) USBUART_1_ep6_dma_SetInterruptCallback(&USBUART_1_EP6_DMA_DONE_ISR);
1052:.\Generated_Source\PSoC5/USBUART_1.c ****         #endif /* (USBUART_1_DMA6_ACTIVE) */
1053:.\Generated_Source\PSoC5/USBUART_1.c **** 
1054:.\Generated_Source\PSoC5/USBUART_1.c ****         #if (USBUART_1_DMA7_ACTIVE)
1055:.\Generated_Source\PSoC5/USBUART_1.c ****             (void) USBUART_1_ep7_dma_SetInterruptCallback(&USBUART_1_EP7_DMA_DONE_ISR);
1056:.\Generated_Source\PSoC5/USBUART_1.c ****         #endif /* (USBUART_1_DMA7_ACTIVE) */
ARM GAS  C:\Users\Thomas\AppData\Local\Temp\ccHSNeoG.s 			page 33


1057:.\Generated_Source\PSoC5/USBUART_1.c **** 
1058:.\Generated_Source\PSoC5/USBUART_1.c ****         #if (USBUART_1_DMA8_ACTIVE)
1059:.\Generated_Source\PSoC5/USBUART_1.c ****             (void) USBUART_1_ep8_dma_SetInterruptCallback(&USBUART_1_EP8_DMA_DONE_ISR);
1060:.\Generated_Source\PSoC5/USBUART_1.c ****         #endif /* (USBUART_1_DMA8_ACTIVE) */
1061:.\Generated_Source\PSoC5/USBUART_1.c ****     #endif /* (USBUART_1_EP_MANAGEMENT_DMA_AUTO) */
1062:.\Generated_Source\PSoC5/USBUART_1.c ****     }
1063:.\Generated_Source\PSoC5/USBUART_1.c **** #else
1064:.\Generated_Source\PSoC5/USBUART_1.c **** 
1065:.\Generated_Source\PSoC5/USBUART_1.c **** 
1066:.\Generated_Source\PSoC5/USBUART_1.c ****     /***************************************************************************
1067:.\Generated_Source\PSoC5/USBUART_1.c ****     * Function Name: USBUART_1_InitEP_DMA
1068:.\Generated_Source\PSoC5/USBUART_1.c ****     ************************************************************************//**
1069:.\Generated_Source\PSoC5/USBUART_1.c ****     *
1070:.\Generated_Source\PSoC5/USBUART_1.c ****     *  This function allocates and initializes a DMA channel to be used by the
1071:.\Generated_Source\PSoC5/USBUART_1.c ****     *  USBUART_1_LoadInEP() or USBUART_1_ReadOutEP() APIs for data
1072:.\Generated_Source\PSoC5/USBUART_1.c ****     *  transfer. It is available when the Endpoint Memory Management parameter
1073:.\Generated_Source\PSoC5/USBUART_1.c ****     *  is set to DMA.
1074:.\Generated_Source\PSoC5/USBUART_1.c ****     *
1075:.\Generated_Source\PSoC5/USBUART_1.c ****     *  This function is automatically called from the USBFS_LoadInEP() and USBFS_ReadOutEP() APIs.
1076:.\Generated_Source\PSoC5/USBUART_1.c ****     *
1077:.\Generated_Source\PSoC5/USBUART_1.c ****     *  \param epNumber Contains the data endpoint number.
1078:.\Generated_Source\PSoC5/USBUART_1.c ****     *            Valid values are between 1 and 8.
1079:.\Generated_Source\PSoC5/USBUART_1.c ****     *  \param *pData Pointer to a data array that is related to the EP transfers.
1080:.\Generated_Source\PSoC5/USBUART_1.c ****     *
1081:.\Generated_Source\PSoC5/USBUART_1.c ****     * \reentrant No.
1082:.\Generated_Source\PSoC5/USBUART_1.c ****     *
1083:.\Generated_Source\PSoC5/USBUART_1.c ****     ***************************************************************************/
1084:.\Generated_Source\PSoC5/USBUART_1.c ****     void USBUART_1_InitEP_DMA(uint8 epNumber, const uint8 *pData)
1085:.\Generated_Source\PSoC5/USBUART_1.c ****                                                                     
1086:.\Generated_Source\PSoC5/USBUART_1.c ****     {
1087:.\Generated_Source\PSoC5/USBUART_1.c ****         uint16 src;
1088:.\Generated_Source\PSoC5/USBUART_1.c ****         uint16 dst;
1089:.\Generated_Source\PSoC5/USBUART_1.c **** 
1090:.\Generated_Source\PSoC5/USBUART_1.c ****     #if (CY_PSOC3)
1091:.\Generated_Source\PSoC5/USBUART_1.c ****         src = HI16(CYDEV_SRAM_BASE);
1092:.\Generated_Source\PSoC5/USBUART_1.c ****         dst = HI16(CYDEV_PERIPH_BASE);
1093:.\Generated_Source\PSoC5/USBUART_1.c ****         pData = pData;
1094:.\Generated_Source\PSoC5/USBUART_1.c ****     #else
1095:.\Generated_Source\PSoC5/USBUART_1.c ****         if ((USBUART_1_EP[epNumber].addr & USBUART_1_DIR_IN) != 0u)
1096:.\Generated_Source\PSoC5/USBUART_1.c ****         {
1097:.\Generated_Source\PSoC5/USBUART_1.c ****             /* IN endpoint: source is memory buffer. */
1098:.\Generated_Source\PSoC5/USBUART_1.c ****             src = HI16(pData);
1099:.\Generated_Source\PSoC5/USBUART_1.c ****             dst = HI16(CYDEV_PERIPH_BASE);
1100:.\Generated_Source\PSoC5/USBUART_1.c ****         }
1101:.\Generated_Source\PSoC5/USBUART_1.c ****         else
1102:.\Generated_Source\PSoC5/USBUART_1.c ****         {
1103:.\Generated_Source\PSoC5/USBUART_1.c ****             /* OUT endpoint: source is USB IP memory buffer. */
1104:.\Generated_Source\PSoC5/USBUART_1.c ****             src = HI16(CYDEV_PERIPH_BASE);
1105:.\Generated_Source\PSoC5/USBUART_1.c ****             dst = HI16(pData);
1106:.\Generated_Source\PSoC5/USBUART_1.c ****         }
1107:.\Generated_Source\PSoC5/USBUART_1.c ****     #endif  /* (CY_PSOC3) */
1108:.\Generated_Source\PSoC5/USBUART_1.c **** 
1109:.\Generated_Source\PSoC5/USBUART_1.c ****         switch(epNumber)
1110:.\Generated_Source\PSoC5/USBUART_1.c ****         {
1111:.\Generated_Source\PSoC5/USBUART_1.c ****     #if (USBUART_1_DMA1_ACTIVE)
1112:.\Generated_Source\PSoC5/USBUART_1.c ****         case USBUART_1_EP1:
1113:.\Generated_Source\PSoC5/USBUART_1.c ****             USBUART_1_DmaChan[epNumber] = USBUART_1_ep1_DmaInitialize(USBUART_1_DMA_BYTES_PER_BURST
ARM GAS  C:\Users\Thomas\AppData\Local\Temp\ccHSNeoG.s 			page 34


1114:.\Generated_Source\PSoC5/USBUART_1.c ****                                                                                     USBUART_1_DMA_R
1115:.\Generated_Source\PSoC5/USBUART_1.c ****             break;
1116:.\Generated_Source\PSoC5/USBUART_1.c ****     #endif /* (USBUART_1_DMA1_ACTIVE) */
1117:.\Generated_Source\PSoC5/USBUART_1.c **** 
1118:.\Generated_Source\PSoC5/USBUART_1.c ****     #if (USBUART_1_DMA2_ACTIVE)
1119:.\Generated_Source\PSoC5/USBUART_1.c ****         case USBUART_1_EP2:
1120:.\Generated_Source\PSoC5/USBUART_1.c ****             USBUART_1_DmaChan[epNumber] = USBUART_1_ep2_DmaInitialize(USBUART_1_DMA_BYTES_PER_BURST
1121:.\Generated_Source\PSoC5/USBUART_1.c ****                                                                                     USBUART_1_DMA_R
1122:.\Generated_Source\PSoC5/USBUART_1.c ****             break;
1123:.\Generated_Source\PSoC5/USBUART_1.c ****     #endif /* (USBUART_1_DMA2_ACTIVE) */
1124:.\Generated_Source\PSoC5/USBUART_1.c **** 
1125:.\Generated_Source\PSoC5/USBUART_1.c ****     #if (USBUART_1_DMA3_ACTIVE)
1126:.\Generated_Source\PSoC5/USBUART_1.c ****             case USBUART_1_EP3:
1127:.\Generated_Source\PSoC5/USBUART_1.c ****                 USBUART_1_DmaChan[epNumber] = USBUART_1_ep3_DmaInitialize(USBUART_1_DMA_BYTES_PER_B
1128:.\Generated_Source\PSoC5/USBUART_1.c ****                                                                                         USBUART_1_D
1129:.\Generated_Source\PSoC5/USBUART_1.c ****             break;
1130:.\Generated_Source\PSoC5/USBUART_1.c ****     #endif /* (USBUART_1_DMA3_ACTIVE) */
1131:.\Generated_Source\PSoC5/USBUART_1.c **** 
1132:.\Generated_Source\PSoC5/USBUART_1.c ****     #if (USBUART_1_DMA4_ACTIVE)
1133:.\Generated_Source\PSoC5/USBUART_1.c ****             case USBUART_1_EP4:
1134:.\Generated_Source\PSoC5/USBUART_1.c ****                 USBUART_1_DmaChan[epNumber] = USBUART_1_ep4_DmaInitialize(USBUART_1_DMA_BYTES_PER_B
1135:.\Generated_Source\PSoC5/USBUART_1.c ****                                                                                         USBUART_1_D
1136:.\Generated_Source\PSoC5/USBUART_1.c ****             break;
1137:.\Generated_Source\PSoC5/USBUART_1.c ****     #endif /* (USBUART_1_DMA4_ACTIVE) */
1138:.\Generated_Source\PSoC5/USBUART_1.c **** 
1139:.\Generated_Source\PSoC5/USBUART_1.c ****     #if (USBUART_1_DMA5_ACTIVE)
1140:.\Generated_Source\PSoC5/USBUART_1.c ****             case USBUART_1_EP5:
1141:.\Generated_Source\PSoC5/USBUART_1.c ****                 USBUART_1_DmaChan[epNumber] = USBUART_1_ep5_DmaInitialize(USBUART_1_DMA_BYTES_PER_B
1142:.\Generated_Source\PSoC5/USBUART_1.c ****                                                                                         USBUART_1_D
1143:.\Generated_Source\PSoC5/USBUART_1.c ****             break;
1144:.\Generated_Source\PSoC5/USBUART_1.c ****     #endif /* (USBUART_1_DMA5_ACTIVE) */
1145:.\Generated_Source\PSoC5/USBUART_1.c **** 
1146:.\Generated_Source\PSoC5/USBUART_1.c ****     #if (USBUART_1_DMA6_ACTIVE)
1147:.\Generated_Source\PSoC5/USBUART_1.c ****         case USBUART_1_EP6:
1148:.\Generated_Source\PSoC5/USBUART_1.c ****             USBUART_1_DmaChan[epNumber] = USBUART_1_ep6_DmaInitialize(USBUART_1_DMA_BYTES_PER_BURST
1149:.\Generated_Source\PSoC5/USBUART_1.c ****                                                                                     USBUART_1_DMA_R
1150:.\Generated_Source\PSoC5/USBUART_1.c ****             break;
1151:.\Generated_Source\PSoC5/USBUART_1.c ****     #endif /* (USBUART_1_DMA6_ACTIVE) */
1152:.\Generated_Source\PSoC5/USBUART_1.c **** 
1153:.\Generated_Source\PSoC5/USBUART_1.c ****     #if (USBUART_1_DMA7_ACTIVE)
1154:.\Generated_Source\PSoC5/USBUART_1.c ****         case USBUART_1_EP7:
1155:.\Generated_Source\PSoC5/USBUART_1.c ****                 USBUART_1_DmaChan[epNumber] = USBUART_1_ep7_DmaInitialize(USBUART_1_DMA_BYTES_PER_B
1156:.\Generated_Source\PSoC5/USBUART_1.c ****                                                                                         USBUART_1_D
1157:.\Generated_Source\PSoC5/USBUART_1.c ****             break;
1158:.\Generated_Source\PSoC5/USBUART_1.c ****     #endif /* (USBUART_1_DMA7_ACTIVE) */
1159:.\Generated_Source\PSoC5/USBUART_1.c **** 
1160:.\Generated_Source\PSoC5/USBUART_1.c ****     #if (USBUART_1_DMA8_ACTIVE)
1161:.\Generated_Source\PSoC5/USBUART_1.c ****         case USBUART_1_EP8:
1162:.\Generated_Source\PSoC5/USBUART_1.c ****                 USBUART_1_DmaChan[epNumber] = USBUART_1_ep8_DmaInitialize(USBUART_1_DMA_BYTES_PER_B
1163:.\Generated_Source\PSoC5/USBUART_1.c ****                                                                                         USBUART_1_D
1164:.\Generated_Source\PSoC5/USBUART_1.c ****             break;
1165:.\Generated_Source\PSoC5/USBUART_1.c ****     #endif /* (USBUART_1_DMA8_ACTIVE) */
1166:.\Generated_Source\PSoC5/USBUART_1.c **** 
1167:.\Generated_Source\PSoC5/USBUART_1.c ****         default:
1168:.\Generated_Source\PSoC5/USBUART_1.c ****             /* Do nothing for endpoints other than 1-8. */
1169:.\Generated_Source\PSoC5/USBUART_1.c ****             break;
1170:.\Generated_Source\PSoC5/USBUART_1.c ****         }
ARM GAS  C:\Users\Thomas\AppData\Local\Temp\ccHSNeoG.s 			page 35


1171:.\Generated_Source\PSoC5/USBUART_1.c **** 
1172:.\Generated_Source\PSoC5/USBUART_1.c ****         if ((epNumber > USBUART_1_EP0) && (epNumber < USBUART_1_MAX_EP))
1173:.\Generated_Source\PSoC5/USBUART_1.c ****         {
1174:.\Generated_Source\PSoC5/USBUART_1.c ****             USBUART_1_DmaTd[epNumber] = CyDmaTdAllocate();
1175:.\Generated_Source\PSoC5/USBUART_1.c **** 
1176:.\Generated_Source\PSoC5/USBUART_1.c ****         #if (USBUART_1_EP_MANAGEMENT_DMA_AUTO && (USBUART_1_EP_DMA_AUTO_OPT == 0u))
1177:.\Generated_Source\PSoC5/USBUART_1.c ****             USBUART_1_DmaNextTd[epNumber] = CyDmaTdAllocate();
1178:.\Generated_Source\PSoC5/USBUART_1.c ****         #endif /* (USBUART_1_EP_MANAGEMENT_DMA_AUTO && (USBUART_1_EP_DMA_AUTO_OPT == 0u)) */
1179:.\Generated_Source\PSoC5/USBUART_1.c ****         }
1180:.\Generated_Source\PSoC5/USBUART_1.c ****     }
1181:.\Generated_Source\PSoC5/USBUART_1.c **** #endif /* (CY_PSOC4) */
1182:.\Generated_Source\PSoC5/USBUART_1.c **** 
1183:.\Generated_Source\PSoC5/USBUART_1.c ****     /***************************************************************************
1184:.\Generated_Source\PSoC5/USBUART_1.c ****     * Function Name: USBUART_1_Stop_DMA
1185:.\Generated_Source\PSoC5/USBUART_1.c ****     ************************************************************************//**
1186:.\Generated_Source\PSoC5/USBUART_1.c ****     *  
1187:.\Generated_Source\PSoC5/USBUART_1.c ****     *  This function stops DMA channel associated with endpoint. It is available 
1188:.\Generated_Source\PSoC5/USBUART_1.c ****     *  when the Endpoint Buffer Management parameter is set to DMA. Call this 
1189:.\Generated_Source\PSoC5/USBUART_1.c ****     *  function when endpoint direction is changed from IN to OUT or vice versa 
1190:.\Generated_Source\PSoC5/USBUART_1.c ****     *  to trigger DMA re-configuration when USBUART_1_LoadInEP() or 
1191:.\Generated_Source\PSoC5/USBUART_1.c ****     *  USBUART_1_ReadOutEP() functions are called the first time. 
1192:.\Generated_Source\PSoC5/USBUART_1.c ****     *  
1193:.\Generated_Source\PSoC5/USBUART_1.c ****     *  \param epNumber: The data endpoint number for which associated DMA 
1194:.\Generated_Source\PSoC5/USBUART_1.c ****     *  channel is stopped. The range of valid values is between 1 and 8. To stop 
1195:.\Generated_Source\PSoC5/USBUART_1.c ****     *  all DMAs associated with endpoints call this function with 
1196:.\Generated_Source\PSoC5/USBUART_1.c ****     *  USBUART_1_MAX_EP argument.
1197:.\Generated_Source\PSoC5/USBUART_1.c ****     *
1198:.\Generated_Source\PSoC5/USBUART_1.c ****     * \reentrant
1199:.\Generated_Source\PSoC5/USBUART_1.c ****     *  No.
1200:.\Generated_Source\PSoC5/USBUART_1.c ****     *
1201:.\Generated_Source\PSoC5/USBUART_1.c ****     ***************************************************************************/
1202:.\Generated_Source\PSoC5/USBUART_1.c ****     void USBUART_1_Stop_DMA(uint8 epNumber) 
1203:.\Generated_Source\PSoC5/USBUART_1.c ****     {
1204:.\Generated_Source\PSoC5/USBUART_1.c ****         uint8 i;
1205:.\Generated_Source\PSoC5/USBUART_1.c **** 
1206:.\Generated_Source\PSoC5/USBUART_1.c ****         i = (epNumber < USBUART_1_MAX_EP) ? epNumber : USBUART_1_EP1;
1207:.\Generated_Source\PSoC5/USBUART_1.c **** 
1208:.\Generated_Source\PSoC5/USBUART_1.c ****         do
1209:.\Generated_Source\PSoC5/USBUART_1.c ****         {
1210:.\Generated_Source\PSoC5/USBUART_1.c ****         #if (CY_PSOC4)
1211:.\Generated_Source\PSoC5/USBUART_1.c ****             if (0u != USBUART_1_DmaChan[i])
1212:.\Generated_Source\PSoC5/USBUART_1.c ****             {
1213:.\Generated_Source\PSoC5/USBUART_1.c ****                 USBUART_1_CyDmaChDisable(USBUART_1_DmaChan[i]);
1214:.\Generated_Source\PSoC5/USBUART_1.c ****             }
1215:.\Generated_Source\PSoC5/USBUART_1.c ****         #else
1216:.\Generated_Source\PSoC5/USBUART_1.c ****             if(USBUART_1_DmaTd[i] != DMA_INVALID_TD)
1217:.\Generated_Source\PSoC5/USBUART_1.c ****             {
1218:.\Generated_Source\PSoC5/USBUART_1.c ****                 (void) CyDmaChDisable(USBUART_1_DmaChan[i]);
1219:.\Generated_Source\PSoC5/USBUART_1.c ****                 CyDmaTdFree(USBUART_1_DmaTd[i]);
1220:.\Generated_Source\PSoC5/USBUART_1.c ****                 USBUART_1_DmaTd[i] = DMA_INVALID_TD;
1221:.\Generated_Source\PSoC5/USBUART_1.c ****             }
1222:.\Generated_Source\PSoC5/USBUART_1.c **** 
1223:.\Generated_Source\PSoC5/USBUART_1.c ****             #if (USBUART_1_EP_MANAGEMENT_DMA_AUTO && (USBUART_1_EP_DMA_AUTO_OPT == 0u))
1224:.\Generated_Source\PSoC5/USBUART_1.c ****                 if(USBUART_1_DmaNextTd[i] != DMA_INVALID_TD)
1225:.\Generated_Source\PSoC5/USBUART_1.c ****                 {
1226:.\Generated_Source\PSoC5/USBUART_1.c ****                     CyDmaTdFree(USBUART_1_DmaNextTd[i]);
1227:.\Generated_Source\PSoC5/USBUART_1.c ****                     USBUART_1_DmaNextTd[i] = DMA_INVALID_TD;
ARM GAS  C:\Users\Thomas\AppData\Local\Temp\ccHSNeoG.s 			page 36


1228:.\Generated_Source\PSoC5/USBUART_1.c ****                 }
1229:.\Generated_Source\PSoC5/USBUART_1.c ****             #endif /* (USBUART_1_EP_MANAGEMENT_DMA_AUTO && (USBUART_1_EP_DMA_AUTO_OPT == 0u)) */
1230:.\Generated_Source\PSoC5/USBUART_1.c **** 
1231:.\Generated_Source\PSoC5/USBUART_1.c ****         #endif /* (CY_PSOC4) */
1232:.\Generated_Source\PSoC5/USBUART_1.c ****             i++;
1233:.\Generated_Source\PSoC5/USBUART_1.c ****         }
1234:.\Generated_Source\PSoC5/USBUART_1.c ****         while ((i < USBUART_1_MAX_EP) && (epNumber == USBUART_1_MAX_EP));
1235:.\Generated_Source\PSoC5/USBUART_1.c ****     }
1236:.\Generated_Source\PSoC5/USBUART_1.c **** #endif /* (USBUART_1_EP_MANAGEMENT_DMA) */
1237:.\Generated_Source\PSoC5/USBUART_1.c **** 
1238:.\Generated_Source\PSoC5/USBUART_1.c **** 
1239:.\Generated_Source\PSoC5/USBUART_1.c **** #if (CY_PSOC3 || CY_PSOC5)
1240:.\Generated_Source\PSoC5/USBUART_1.c **** #if (USBUART_1_EP_MANAGEMENT_DMA_AUTO && (USBUART_1_EP_DMA_AUTO_OPT == 0u))
1241:.\Generated_Source\PSoC5/USBUART_1.c ****     /***************************************************************************
1242:.\Generated_Source\PSoC5/USBUART_1.c ****     * Function Name: USBUART_1_LoadNextInEP
1243:.\Generated_Source\PSoC5/USBUART_1.c ****     ************************************************************************//**
1244:.\Generated_Source\PSoC5/USBUART_1.c ****     *
1245:.\Generated_Source\PSoC5/USBUART_1.c ****     * Summary:
1246:.\Generated_Source\PSoC5/USBUART_1.c ****     *  This internal function is used for IN endpoint DMA reconfiguration in
1247:.\Generated_Source\PSoC5/USBUART_1.c ****     *  Auto DMA mode.
1248:.\Generated_Source\PSoC5/USBUART_1.c ****     *
1249:.\Generated_Source\PSoC5/USBUART_1.c ****     * Parameters:
1250:.\Generated_Source\PSoC5/USBUART_1.c ****     *  epNumber: Contains the data endpoint number.
1251:.\Generated_Source\PSoC5/USBUART_1.c ****     *  mode:   0 - Configure DMA to send the the rest of data.
1252:.\Generated_Source\PSoC5/USBUART_1.c ****     *          1 - Configure DMA to repeat 2 last bytes of the first burst.
1253:.\Generated_Source\PSoC5/USBUART_1.c ****     *
1254:.\Generated_Source\PSoC5/USBUART_1.c ****     ***************************************************************************/
1255:.\Generated_Source\PSoC5/USBUART_1.c ****     void USBUART_1_LoadNextInEP(uint8 epNumber, uint8 mode) 
1256:.\Generated_Source\PSoC5/USBUART_1.c ****     {
1257:.\Generated_Source\PSoC5/USBUART_1.c ****         reg16 *convert;
1258:.\Generated_Source\PSoC5/USBUART_1.c **** 
1259:.\Generated_Source\PSoC5/USBUART_1.c ****         if (mode == 0u)
1260:.\Generated_Source\PSoC5/USBUART_1.c ****         {
1261:.\Generated_Source\PSoC5/USBUART_1.c ****             /* Configure DMA to send rest of data. */
1262:.\Generated_Source\PSoC5/USBUART_1.c ****             /* CyDmaTdSetConfiguration API is optimized to change transfer length only and configur
1263:.\Generated_Source\PSoC5/USBUART_1.c ****             convert = (reg16 *) &CY_DMA_TDMEM_STRUCT_PTR[USBUART_1_DmaTd[epNumber]].TD0[0u];
1264:.\Generated_Source\PSoC5/USBUART_1.c ****             /* Set transfer length. */
1265:.\Generated_Source\PSoC5/USBUART_1.c ****             CY_SET_REG16(convert, USBUART_1_inLength[epNumber] - USBUART_1_DMA_BYTES_PER_BURST);
1266:.\Generated_Source\PSoC5/USBUART_1.c ****             /* CyDmaTdSetAddress API is optimized to change source address only. */
1267:.\Generated_Source\PSoC5/USBUART_1.c ****             convert = (reg16 *) &CY_DMA_TDMEM_STRUCT_PTR[USBUART_1_DmaTd[epNumber]].TD1[0u];
1268:.\Generated_Source\PSoC5/USBUART_1.c ****             CY_SET_REG16(convert, LO16((uint32)USBUART_1_inDataPointer[epNumber] +
1269:.\Generated_Source\PSoC5/USBUART_1.c ****                                             USBUART_1_DMA_BYTES_PER_BURST));
1270:.\Generated_Source\PSoC5/USBUART_1.c ****             USBUART_1_inBufFull[epNumber] = 1u;
1271:.\Generated_Source\PSoC5/USBUART_1.c ****         }
1272:.\Generated_Source\PSoC5/USBUART_1.c ****         else
1273:.\Generated_Source\PSoC5/USBUART_1.c ****         {
1274:.\Generated_Source\PSoC5/USBUART_1.c ****             /* Configure DMA to repeat 2 last bytes of the first burst. */
1275:.\Generated_Source\PSoC5/USBUART_1.c ****             /* CyDmaTdSetConfiguration API is optimized to change transfer length only and configur
1276:.\Generated_Source\PSoC5/USBUART_1.c ****             convert = (reg16 *) &CY_DMA_TDMEM_STRUCT_PTR[USBUART_1_DmaTd[epNumber]].TD0[0u];
1277:.\Generated_Source\PSoC5/USBUART_1.c ****             /* Set transfer length. */
1278:.\Generated_Source\PSoC5/USBUART_1.c ****             CY_SET_REG16(convert, USBUART_1_DMA_BYTES_REPEAT);
1279:.\Generated_Source\PSoC5/USBUART_1.c ****             /* CyDmaTdSetAddress API is optimized to change source address only. */
1280:.\Generated_Source\PSoC5/USBUART_1.c ****             convert = (reg16 *) &CY_DMA_TDMEM_STRUCT_PTR[USBUART_1_DmaTd[epNumber]].TD1[0u];
1281:.\Generated_Source\PSoC5/USBUART_1.c ****             CY_SET_REG16(convert,  LO16((uint32)USBUART_1_inDataPointer[epNumber] +
1282:.\Generated_Source\PSoC5/USBUART_1.c ****                                    (USBUART_1_DMA_BYTES_PER_BURST - USBUART_1_DMA_BYTES_REPEAT)));
1283:.\Generated_Source\PSoC5/USBUART_1.c ****         }
1284:.\Generated_Source\PSoC5/USBUART_1.c **** 
ARM GAS  C:\Users\Thomas\AppData\Local\Temp\ccHSNeoG.s 			page 37


1285:.\Generated_Source\PSoC5/USBUART_1.c ****         /* CyDmaChSetInitialTd API is optimized to initialize TD. */
1286:.\Generated_Source\PSoC5/USBUART_1.c ****         CY_DMA_CH_STRUCT_PTR[USBUART_1_DmaChan[epNumber]].basic_status[1u] = USBUART_1_DmaTd[epNumb
1287:.\Generated_Source\PSoC5/USBUART_1.c ****     }
1288:.\Generated_Source\PSoC5/USBUART_1.c **** #endif /* (USBUART_1_EP_MANAGEMENT_DMA_AUTO && (USBUART_1_EP_DMA_AUTO_OPT == 0u)) */
1289:.\Generated_Source\PSoC5/USBUART_1.c **** #endif /* (CY_PSOC3 || CY_PSOC5) */
1290:.\Generated_Source\PSoC5/USBUART_1.c **** 
1291:.\Generated_Source\PSoC5/USBUART_1.c **** 
1292:.\Generated_Source\PSoC5/USBUART_1.c **** /*******************************************************************************
1293:.\Generated_Source\PSoC5/USBUART_1.c **** * Function Name: USBUART_1_LoadInEP
1294:.\Generated_Source\PSoC5/USBUART_1.c **** ****************************************************************************//**
1295:.\Generated_Source\PSoC5/USBUART_1.c **** *
1296:.\Generated_Source\PSoC5/USBUART_1.c **** *  This function performs different functionality depending on the Component’s
1297:.\Generated_Source\PSoC5/USBUART_1.c **** *  configured Endpoint Buffer Management. This parameter is defined in
1298:.\Generated_Source\PSoC5/USBUART_1.c **** *  the Descriptor Root in Component Configure window.
1299:.\Generated_Source\PSoC5/USBUART_1.c **** *
1300:.\Generated_Source\PSoC5/USBUART_1.c **** *  *Manual (Static/Dynamic Allocation):*
1301:.\Generated_Source\PSoC5/USBUART_1.c **** *  This function loads and enables the specified USB data endpoint for an IN
1302:.\Generated_Source\PSoC5/USBUART_1.c **** *  data transfer.
1303:.\Generated_Source\PSoC5/USBUART_1.c **** *
1304:.\Generated_Source\PSoC5/USBUART_1.c **** *  *DMA with Manual Buffer Management:*
1305:.\Generated_Source\PSoC5/USBUART_1.c **** *  Configures DMA for a data transfer from system RAM to endpoint buffer.
1306:.\Generated_Source\PSoC5/USBUART_1.c **** *  Generates request for a transfer.
1307:.\Generated_Source\PSoC5/USBUART_1.c **** *
1308:.\Generated_Source\PSoC5/USBUART_1.c **** *  *DMA with Automatic Buffer Management:*
1309:.\Generated_Source\PSoC5/USBUART_1.c **** *  Configures DMA. This is required only once, so it is done only when parameter
1310:.\Generated_Source\PSoC5/USBUART_1.c **** *  pData is not NULL. When the pData pointer is NULL, the function skips this
1311:.\Generated_Source\PSoC5/USBUART_1.c **** *  task. Sets Data ready status: This generates the first DMA transfer and
1312:.\Generated_Source\PSoC5/USBUART_1.c **** *  prepares data in endpoint buffer.
1313:.\Generated_Source\PSoC5/USBUART_1.c **** *
1314:.\Generated_Source\PSoC5/USBUART_1.c **** *  \param epNumber Contains the data endpoint number.
1315:.\Generated_Source\PSoC5/USBUART_1.c **** *            Valid values are between 1 and 8.
1316:.\Generated_Source\PSoC5/USBUART_1.c **** *  \param *pData A pointer to a data array from which the data for the endpoint space
1317:.\Generated_Source\PSoC5/USBUART_1.c **** *          is loaded.
1318:.\Generated_Source\PSoC5/USBUART_1.c **** *  \param length The number of bytes to transfer from the array and then send as
1319:.\Generated_Source\PSoC5/USBUART_1.c **** *          a result of an IN request. Valid values are between 0 and 512
1320:.\Generated_Source\PSoC5/USBUART_1.c **** *          (1023 for DMA with Automatic Buffer Management mode). The value 512
1321:.\Generated_Source\PSoC5/USBUART_1.c **** *          is applicable if only one endpoint is used.
1322:.\Generated_Source\PSoC5/USBUART_1.c **** *
1323:.\Generated_Source\PSoC5/USBUART_1.c **** *
1324:.\Generated_Source\PSoC5/USBUART_1.c **** * \reentrant
1325:.\Generated_Source\PSoC5/USBUART_1.c **** *  No.
1326:.\Generated_Source\PSoC5/USBUART_1.c **** *
1327:.\Generated_Source\PSoC5/USBUART_1.c **** *******************************************************************************/
1328:.\Generated_Source\PSoC5/USBUART_1.c **** void USBUART_1_LoadInEP(uint8 epNumber, const uint8 pData[], uint16 length)
1329:.\Generated_Source\PSoC5/USBUART_1.c ****                                                                         
1330:.\Generated_Source\PSoC5/USBUART_1.c **** {
 762              		.loc 1 1330 0
 763              		.cfi_startproc
 764              		@ args = 0, pretend = 0, frame = 0
 765              		@ frame_needed = 0, uses_anonymous_args = 0
 766              		@ link register save eliminated.
 767              	.LVL48:
1331:.\Generated_Source\PSoC5/USBUART_1.c ****     if ((epNumber > USBUART_1_EP0) && (epNumber < USBUART_1_MAX_EP))
 768              		.loc 1 1331 0
 769 0000 431E     		subs	r3, r0, #1
 770 0002 DBB2     		uxtb	r3, r3
 771 0004 072B     		cmp	r3, #7
ARM GAS  C:\Users\Thomas\AppData\Local\Temp\ccHSNeoG.s 			page 38


 772 0006 3BD8     		bhi	.L58
1330:.\Generated_Source\PSoC5/USBUART_1.c ****     if ((epNumber > USBUART_1_EP0) && (epNumber < USBUART_1_MAX_EP))
 773              		.loc 1 1330 0
 774 0008 F0B4     		push	{r4, r5, r6, r7}
 775              		.cfi_def_cfa_offset 16
 776              		.cfi_offset 4, -16
 777              		.cfi_offset 5, -12
 778              		.cfi_offset 6, -8
 779              		.cfi_offset 7, -4
1332:.\Generated_Source\PSoC5/USBUART_1.c ****     {
1333:.\Generated_Source\PSoC5/USBUART_1.c ****     #if (!USBUART_1_EP_MANAGEMENT_DMA_AUTO)
1334:.\Generated_Source\PSoC5/USBUART_1.c ****         /* Limit length to available buffer USB IP buffer size.*/
1335:.\Generated_Source\PSoC5/USBUART_1.c ****         if (length > (USBUART_1_EPX_DATA_BUF_MAX - USBUART_1_EP[epNumber].buffOffset))
 780              		.loc 1 1335 0
 781 000a 0746     		mov	r7, r0
 782 000c 00EB4003 		add	r3, r0, r0, lsl #1
 783 0010 9B00     		lsls	r3, r3, #2
 784 0012 1C4C     		ldr	r4, .L59
 785 0014 2344     		add	r3, r3, r4
 786 0016 DB88     		ldrh	r3, [r3, #6]
 787 0018 9BB2     		uxth	r3, r3
 788 001a C3F50073 		rsb	r3, r3, #512
 789 001e 9A42     		cmp	r2, r3
 790 0020 07D9     		bls	.L51
1336:.\Generated_Source\PSoC5/USBUART_1.c ****         {
1337:.\Generated_Source\PSoC5/USBUART_1.c ****             length = USBUART_1_EPX_DATA_BUF_MAX - USBUART_1_EP[epNumber].buffOffset;
 791              		.loc 1 1337 0
 792 0022 00EB4003 		add	r3, r0, r0, lsl #1
 793 0026 9B00     		lsls	r3, r3, #2
 794 0028 2344     		add	r3, r3, r4
 795 002a DA88     		ldrh	r2, [r3, #6]
 796              	.LVL49:
 797 002c C2F50072 		rsb	r2, r2, #512
 798 0030 92B2     		uxth	r2, r2
 799              	.LVL50:
 800              	.L51:
1338:.\Generated_Source\PSoC5/USBUART_1.c ****         }
1339:.\Generated_Source\PSoC5/USBUART_1.c ****     #endif /* (!USBUART_1_EP_MANAGEMENT_DMA_AUTO) */
1340:.\Generated_Source\PSoC5/USBUART_1.c **** 
1341:.\Generated_Source\PSoC5/USBUART_1.c ****         /* Set count and data toggle. */
1342:.\Generated_Source\PSoC5/USBUART_1.c ****         USBUART_1_SIE_EP_BASE.sieEp[epNumber].epCnt0 = (uint8) HI8(length) | USBUART_1_EP[epNumber]
 801              		.loc 1 1342 0
 802 0032 00EB4003 		add	r3, r0, r0, lsl #1
 803 0036 9B00     		lsls	r3, r3, #2
 804 0038 124C     		ldr	r4, .L59
 805 003a 2344     		add	r3, r3, r4
 806 003c DB78     		ldrb	r3, [r3, #3]	@ zero_extendqisi2
 807 003e 43EA1223 		orr	r3, r3, r2, lsr #8
 808 0042 114D     		ldr	r5, .L59+4
 809 0044 0401     		lsls	r4, r0, #4
 810 0046 2E19     		adds	r6, r5, r4
 811 0048 2B55     		strb	r3, [r5, r4]
1343:.\Generated_Source\PSoC5/USBUART_1.c ****         USBUART_1_SIE_EP_BASE.sieEp[epNumber].epCnt1 = (uint8) LO8(length);
 812              		.loc 1 1343 0
 813 004a D3B2     		uxtb	r3, r2
 814 004c 7370     		strb	r3, [r6, #1]
1344:.\Generated_Source\PSoC5/USBUART_1.c **** 
ARM GAS  C:\Users\Thomas\AppData\Local\Temp\ccHSNeoG.s 			page 39


1345:.\Generated_Source\PSoC5/USBUART_1.c ****     #if (USBUART_1_EP_MANAGEMENT_MANUAL)
1346:.\Generated_Source\PSoC5/USBUART_1.c ****         if (NULL != pData)
 815              		.loc 1 1346 0
 816 004e 39B9     		cbnz	r1, .L55
 817              	.LBB2:
 818 0050 09E0     		b	.L53
 819              	.LVL51:
 820              	.L54:
1347:.\Generated_Source\PSoC5/USBUART_1.c ****         {
1348:.\Generated_Source\PSoC5/USBUART_1.c **** 			/* Copy data using arbiter data register. */
1349:.\Generated_Source\PSoC5/USBUART_1.c ****             uint16 i;
1350:.\Generated_Source\PSoC5/USBUART_1.c ****             for (i = 0u; i < length; ++i)
1351:.\Generated_Source\PSoC5/USBUART_1.c ****             {
1352:.\Generated_Source\PSoC5/USBUART_1.c ****                 USBUART_1_ARB_EP_BASE.arbEp[epNumber].rwDr = pData[i];
 821              		.loc 1 1352 0 discriminator 3
 822 0052 CE5C     		ldrb	r6, [r1, r3]	@ zero_extendqisi2
 823 0054 3D01     		lsls	r5, r7, #4
 824 0056 0D4C     		ldr	r4, .L59+8
 825 0058 6655     		strb	r6, [r4, r5]
1350:.\Generated_Source\PSoC5/USBUART_1.c ****             {
 826              		.loc 1 1350 0 discriminator 3
 827 005a 0133     		adds	r3, r3, #1
 828              	.LVL52:
 829 005c 9BB2     		uxth	r3, r3
 830              	.LVL53:
 831 005e 00E0     		b	.L52
 832              	.LVL54:
 833              	.L55:
 834              	.LBE2:
 835 0060 0023     		movs	r3, #0
 836              	.L52:
 837              	.LVL55:
 838              	.LBB3:
1350:.\Generated_Source\PSoC5/USBUART_1.c ****             {
 839              		.loc 1 1350 0 is_stmt 0 discriminator 1
 840 0062 9342     		cmp	r3, r2
 841 0064 F5D3     		bcc	.L54
 842              	.LVL56:
 843              	.L53:
 844              	.LBE3:
1353:.\Generated_Source\PSoC5/USBUART_1.c ****             }
1354:.\Generated_Source\PSoC5/USBUART_1.c ****         }
1355:.\Generated_Source\PSoC5/USBUART_1.c **** 
1356:.\Generated_Source\PSoC5/USBUART_1.c ****         /* IN endpoint buffer is full - read to be read. */
1357:.\Generated_Source\PSoC5/USBUART_1.c ****         USBUART_1_EP[epNumber].apiEpState = USBUART_1_NO_EVENT_PENDING;
 845              		.loc 1 1357 0 is_stmt 1
 846 0066 4300     		lsls	r3, r0, #1
 847 0068 0344     		add	r3, r3, r0
 848 006a 9B00     		lsls	r3, r3, #2
 849 006c 054A     		ldr	r2, .L59
 850              	.LVL57:
 851 006e 1344     		add	r3, r3, r2
 852 0070 0022     		movs	r2, #0
 853 0072 5A70     		strb	r2, [r3, #1]
1358:.\Generated_Source\PSoC5/USBUART_1.c **** 
1359:.\Generated_Source\PSoC5/USBUART_1.c ****         /* Arm IN endpoint. */
1360:.\Generated_Source\PSoC5/USBUART_1.c ****         USBUART_1_SIE_EP_BASE.sieEp[epNumber].epCr0 = USBUART_1_EP[epNumber].epMode;
ARM GAS  C:\Users\Thomas\AppData\Local\Temp\ccHSNeoG.s 			page 40


 854              		.loc 1 1360 0
 855 0074 5A79     		ldrb	r2, [r3, #5]	@ zero_extendqisi2
 856 0076 D2B2     		uxtb	r2, r2
 857 0078 0001     		lsls	r0, r0, #4
 858              	.LVL58:
 859 007a 054B     		ldr	r3, .L59+12
 860 007c 1A54     		strb	r2, [r3, r0]
1361:.\Generated_Source\PSoC5/USBUART_1.c **** 
1362:.\Generated_Source\PSoC5/USBUART_1.c ****     #else
1363:.\Generated_Source\PSoC5/USBUART_1.c **** 
1364:.\Generated_Source\PSoC5/USBUART_1.c ****         #if (CY_PSOC3 || CY_PSOC5LP)
1365:.\Generated_Source\PSoC5/USBUART_1.c ****             /* Initialize DMA if it was not initialized. */
1366:.\Generated_Source\PSoC5/USBUART_1.c ****             if (DMA_INVALID_TD == USBUART_1_DmaTd[epNumber])
1367:.\Generated_Source\PSoC5/USBUART_1.c ****             {
1368:.\Generated_Source\PSoC5/USBUART_1.c ****                 USBUART_1_InitEP_DMA(epNumber, pData);
1369:.\Generated_Source\PSoC5/USBUART_1.c ****             }
1370:.\Generated_Source\PSoC5/USBUART_1.c ****         #endif /* (CY_PSOC3 || CY_PSOC5LP) */
1371:.\Generated_Source\PSoC5/USBUART_1.c **** 
1372:.\Generated_Source\PSoC5/USBUART_1.c ****         #if (USBUART_1_EP_MANAGEMENT_DMA_MANUAL)
1373:.\Generated_Source\PSoC5/USBUART_1.c ****             /* IN endpoint buffer will be fully loaded by DMA shortly. */
1374:.\Generated_Source\PSoC5/USBUART_1.c ****             USBUART_1_EP[epNumber].apiEpState = USBUART_1_NO_EVENT_PENDING;
1375:.\Generated_Source\PSoC5/USBUART_1.c **** 
1376:.\Generated_Source\PSoC5/USBUART_1.c ****             if ((pData != NULL) && (length > 0u))
1377:.\Generated_Source\PSoC5/USBUART_1.c ****             {
1378:.\Generated_Source\PSoC5/USBUART_1.c ****             #if (CY_PSOC4)
1379:.\Generated_Source\PSoC5/USBUART_1.c ****                 uint32 channelNum = (uint32) USBUART_1_DmaChan[epNumber];
1380:.\Generated_Source\PSoC5/USBUART_1.c **** 
1381:.\Generated_Source\PSoC5/USBUART_1.c ****                 /* Disable DMA channel: start configuration. */
1382:.\Generated_Source\PSoC5/USBUART_1.c ****                 USBUART_1_CyDmaChDisable(channelNum);
1383:.\Generated_Source\PSoC5/USBUART_1.c **** 
1384:.\Generated_Source\PSoC5/USBUART_1.c ****                 /* Configure source and destination. */
1385:.\Generated_Source\PSoC5/USBUART_1.c ****                 USBUART_1_CyDmaSetSrcAddress(channelNum, USBUART_1_DMA_DESCR0, (void*) pData);
1386:.\Generated_Source\PSoC5/USBUART_1.c ****                 USBUART_1_CyDmaSetDstAddress(channelNum, USBUART_1_DMA_DESCR0, (void*) &USBUART_1_A
1387:.\Generated_Source\PSoC5/USBUART_1.c **** 
1388:.\Generated_Source\PSoC5/USBUART_1.c ****                 /* Configure DMA descriptor. */
1389:.\Generated_Source\PSoC5/USBUART_1.c ****                 --length;
1390:.\Generated_Source\PSoC5/USBUART_1.c ****                 USBUART_1_CyDmaSetConfiguration(channelNum, USBUART_1_DMA_DESCR0, USBUART_1_DMA_COM
1391:.\Generated_Source\PSoC5/USBUART_1.c ****                                                         CYDMA_BYTE | CYDMA_ELEMENT_WORD | CYDMA_INC
1392:.\Generated_Source\PSoC5/USBUART_1.c **** 
1393:.\Generated_Source\PSoC5/USBUART_1.c ****                 /* Validate descriptor to execute on following DMA request. */
1394:.\Generated_Source\PSoC5/USBUART_1.c ****                 USBUART_1_CyDmaValidateDescriptor(channelNum, USBUART_1_DMA_DESCR0);
1395:.\Generated_Source\PSoC5/USBUART_1.c **** 
1396:.\Generated_Source\PSoC5/USBUART_1.c ****                 /* Enable DMA channel: configuration complete. */
1397:.\Generated_Source\PSoC5/USBUART_1.c ****                 USBUART_1_CyDmaChEnable(channelNum);
1398:.\Generated_Source\PSoC5/USBUART_1.c ****             #else
1399:.\Generated_Source\PSoC5/USBUART_1.c ****                 /* Configure DMA to transfer data. */
1400:.\Generated_Source\PSoC5/USBUART_1.c ****                 (void) CyDmaChDisable(USBUART_1_DmaChan[epNumber]);
1401:.\Generated_Source\PSoC5/USBUART_1.c ****                 (void) CyDmaTdSetConfiguration(USBUART_1_DmaTd[epNumber], length, CY_DMA_DISABLE_TD
1402:.\Generated_Source\PSoC5/USBUART_1.c ****                 (void) CyDmaTdSetAddress(USBUART_1_DmaTd[epNumber], LO16((uint32) pData), LO16((uin
1403:.\Generated_Source\PSoC5/USBUART_1.c **** 
1404:.\Generated_Source\PSoC5/USBUART_1.c ****                 /* Enable DMA channel. */
1405:.\Generated_Source\PSoC5/USBUART_1.c ****                 (void) CyDmaChSetInitialTd(USBUART_1_DmaChan[epNumber], USBUART_1_DmaTd[epNumber]);
1406:.\Generated_Source\PSoC5/USBUART_1.c ****                 (void) CyDmaChEnable(USBUART_1_DmaChan[epNumber], 1u);
1407:.\Generated_Source\PSoC5/USBUART_1.c ****             #endif /* (CY_PSOC4) */
1408:.\Generated_Source\PSoC5/USBUART_1.c **** 
1409:.\Generated_Source\PSoC5/USBUART_1.c ****                 /* Generate DMA request. */
1410:.\Generated_Source\PSoC5/USBUART_1.c ****                 USBUART_1_ARB_EP_BASE.arbEp[epNumber].epCfg |=  (uint8)  USBUART_1_ARB_EPX_CFG_DMA_
ARM GAS  C:\Users\Thomas\AppData\Local\Temp\ccHSNeoG.s 			page 41


1411:.\Generated_Source\PSoC5/USBUART_1.c ****                 USBUART_1_ARB_EP_BASE.arbEp[epNumber].epCfg &=  (uint8) ~USBUART_1_ARB_EPX_CFG_DMA_
1412:.\Generated_Source\PSoC5/USBUART_1.c **** 
1413:.\Generated_Source\PSoC5/USBUART_1.c ****                 /* IN endpoint will be armed in ARB_ISR(source: IN_BUF_FULL) after first DMA transf
1414:.\Generated_Source\PSoC5/USBUART_1.c ****             }
1415:.\Generated_Source\PSoC5/USBUART_1.c ****             else
1416:.\Generated_Source\PSoC5/USBUART_1.c ****             {
1417:.\Generated_Source\PSoC5/USBUART_1.c ****                 /* When zero-length packet: arm IN endpoint directly. */
1418:.\Generated_Source\PSoC5/USBUART_1.c ****                 USBUART_1_SIE_EP_BASE.sieEp[epNumber].epCr0 = USBUART_1_EP[epNumber].epMode;
1419:.\Generated_Source\PSoC5/USBUART_1.c ****             }
1420:.\Generated_Source\PSoC5/USBUART_1.c ****         #endif /* (USBUART_1_EP_MANAGEMENT_DMA_MANUAL) */
1421:.\Generated_Source\PSoC5/USBUART_1.c **** 
1422:.\Generated_Source\PSoC5/USBUART_1.c ****         #if (USBUART_1_EP_MANAGEMENT_DMA_AUTO)
1423:.\Generated_Source\PSoC5/USBUART_1.c ****             if (pData != NULL)
1424:.\Generated_Source\PSoC5/USBUART_1.c ****             {
1425:.\Generated_Source\PSoC5/USBUART_1.c ****             #if (CY_PSOC4)
1426:.\Generated_Source\PSoC5/USBUART_1.c ****                 uint32 channelNum = (uint32) USBUART_1_DmaChan[epNumber];
1427:.\Generated_Source\PSoC5/USBUART_1.c **** 
1428:.\Generated_Source\PSoC5/USBUART_1.c ****                 /* Store address of buffer. */
1429:.\Generated_Source\PSoC5/USBUART_1.c ****                 USBUART_1_DmaEpBufferAddrBackup[epNumber] = (uint32) pData;
1430:.\Generated_Source\PSoC5/USBUART_1.c **** 
1431:.\Generated_Source\PSoC5/USBUART_1.c ****                 /* Disable DMA channel: start configuration. */
1432:.\Generated_Source\PSoC5/USBUART_1.c ****                 USBUART_1_CyDmaChDisable(channelNum);
1433:.\Generated_Source\PSoC5/USBUART_1.c **** 
1434:.\Generated_Source\PSoC5/USBUART_1.c ****                 /* Set destination address. */
1435:.\Generated_Source\PSoC5/USBUART_1.c ****                 USBUART_1_CyDmaSetDstAddress(channelNum, USBUART_1_DMA_DESCR0, (void*) &USBUART_1_A
1436:.\Generated_Source\PSoC5/USBUART_1.c ****                 USBUART_1_CyDmaSetDstAddress(channelNum, USBUART_1_DMA_DESCR1, (void*) &USBUART_1_A
1437:.\Generated_Source\PSoC5/USBUART_1.c **** 
1438:.\Generated_Source\PSoC5/USBUART_1.c ****                 /* Configure DMA descriptor. */
1439:.\Generated_Source\PSoC5/USBUART_1.c ****                 USBUART_1_CyDmaSetConfiguration(channelNum, USBUART_1_DMA_DESCR0, USBUART_1_DMA_COM
1440:.\Generated_Source\PSoC5/USBUART_1.c ****                                                         CYDMA_BYTE | CYDMA_ELEMENT_WORD | CYDMA_INC
1441:.\Generated_Source\PSoC5/USBUART_1.c **** 
1442:.\Generated_Source\PSoC5/USBUART_1.c ****                 /* Configure DMA descriptor. */
1443:.\Generated_Source\PSoC5/USBUART_1.c ****                 USBUART_1_CyDmaSetConfiguration(channelNum, USBUART_1_DMA_DESCR1, USBUART_1_DMA_COM
1444:.\Generated_Source\PSoC5/USBUART_1.c ****                                                         CYDMA_BYTE | CYDMA_ELEMENT_WORD | CYDMA_INC
1445:.\Generated_Source\PSoC5/USBUART_1.c **** 
1446:.\Generated_Source\PSoC5/USBUART_1.c ****                 /* Enable interrupt from DMA channel. */
1447:.\Generated_Source\PSoC5/USBUART_1.c ****                 USBUART_1_CyDmaSetInterruptMask(channelNum);
1448:.\Generated_Source\PSoC5/USBUART_1.c **** 
1449:.\Generated_Source\PSoC5/USBUART_1.c ****                 /* Validate descriptor 1. It will not be invalided during operation. */
1450:.\Generated_Source\PSoC5/USBUART_1.c ****                 USBUART_1_CyDmaValidateDescriptor(channelNum, USBUART_1_DMA_DESCR1);
1451:.\Generated_Source\PSoC5/USBUART_1.c **** 
1452:.\Generated_Source\PSoC5/USBUART_1.c ****                 /* Enable DMA channel: configuration complete. */
1453:.\Generated_Source\PSoC5/USBUART_1.c ****                 USBUART_1_CyDmaChEnable(channelNum);
1454:.\Generated_Source\PSoC5/USBUART_1.c **** 
1455:.\Generated_Source\PSoC5/USBUART_1.c ****             #else
1456:.\Generated_Source\PSoC5/USBUART_1.c ****                 (void) CyDmaChDisable(USBUART_1_DmaChan[epNumber]);
1457:.\Generated_Source\PSoC5/USBUART_1.c **** 
1458:.\Generated_Source\PSoC5/USBUART_1.c ****                 #if (USBUART_1_EP_DMA_AUTO_OPT == 0u)
1459:.\Generated_Source\PSoC5/USBUART_1.c ****                     USBUART_1_inLength[epNumber] = length;
1460:.\Generated_Source\PSoC5/USBUART_1.c ****                     USBUART_1_inDataPointer[epNumber] = pData;
1461:.\Generated_Source\PSoC5/USBUART_1.c **** 
1462:.\Generated_Source\PSoC5/USBUART_1.c ****                     /* Configure DMA to send data only for first burst */
1463:.\Generated_Source\PSoC5/USBUART_1.c ****                     (void) CyDmaTdSetConfiguration(USBUART_1_DmaTd[epNumber],
1464:.\Generated_Source\PSoC5/USBUART_1.c ****                         (length > USBUART_1_DMA_BYTES_PER_BURST) ? USBUART_1_DMA_BYTES_PER_BURST : 
1465:.\Generated_Source\PSoC5/USBUART_1.c ****                         USBUART_1_DmaNextTd[epNumber], TD_TERMIN_EN | TD_INC_SRC_ADR);
1466:.\Generated_Source\PSoC5/USBUART_1.c ****                     (void) CyDmaTdSetAddress(USBUART_1_DmaTd[epNumber], LO16((uint32) pData),
1467:.\Generated_Source\PSoC5/USBUART_1.c ****                                                                                LO16((uint32) &USBUA
ARM GAS  C:\Users\Thomas\AppData\Local\Temp\ccHSNeoG.s 			page 42


1468:.\Generated_Source\PSoC5/USBUART_1.c **** 
1469:.\Generated_Source\PSoC5/USBUART_1.c ****                     /* The second TD will be executed only when the first one fails.
1470:.\Generated_Source\PSoC5/USBUART_1.c ****                     *  The intention of this TD is to generate NRQ interrupt
1471:.\Generated_Source\PSoC5/USBUART_1.c ****                     *  and repeat 2 last bytes of the first burst.
1472:.\Generated_Source\PSoC5/USBUART_1.c ****                     */
1473:.\Generated_Source\PSoC5/USBUART_1.c ****                     (void) CyDmaTdSetConfiguration(USBUART_1_DmaNextTd[epNumber], 1u,
1474:.\Generated_Source\PSoC5/USBUART_1.c ****                                                    USBUART_1_DmaNextTd[epNumber],
1475:.\Generated_Source\PSoC5/USBUART_1.c ****                                                    USBUART_1_epX_TD_TERMOUT_EN[epNumber]);
1476:.\Generated_Source\PSoC5/USBUART_1.c **** 
1477:.\Generated_Source\PSoC5/USBUART_1.c ****                     /* Configure DmaNextTd to clear Data Ready status. */
1478:.\Generated_Source\PSoC5/USBUART_1.c ****                     (void) CyDmaTdSetAddress(USBUART_1_DmaNextTd[epNumber], LO16((uint32) &clearInD
1479:.\Generated_Source\PSoC5/USBUART_1.c ****                                                                                    LO16((uint32) &U
1480:.\Generated_Source\PSoC5/USBUART_1.c ****                 #else
1481:.\Generated_Source\PSoC5/USBUART_1.c ****                     /* Configure DMA to send all data. */
1482:.\Generated_Source\PSoC5/USBUART_1.c ****                     (void) CyDmaTdSetConfiguration(USBUART_1_DmaTd[epNumber], length,
1483:.\Generated_Source\PSoC5/USBUART_1.c ****                                                    USBUART_1_DmaTd[epNumber], TD_TERMIN_EN | TD_INC
1484:.\Generated_Source\PSoC5/USBUART_1.c ****                     (void) CyDmaTdSetAddress(USBUART_1_DmaTd[epNumber], LO16((uint32) pData),
1485:.\Generated_Source\PSoC5/USBUART_1.c ****                                                                                LO16((uint32) &USBUA
1486:.\Generated_Source\PSoC5/USBUART_1.c ****                 #endif /* (USBUART_1_EP_DMA_AUTO_OPT == 0u) */
1487:.\Generated_Source\PSoC5/USBUART_1.c **** 
1488:.\Generated_Source\PSoC5/USBUART_1.c ****                 /* Clear any potential pending DMA requests before starting DMA channel to transfer
1489:.\Generated_Source\PSoC5/USBUART_1.c ****                 (void) CyDmaClearPendingDrq(USBUART_1_DmaChan[epNumber]);
1490:.\Generated_Source\PSoC5/USBUART_1.c ****                 /* Enable DMA. */
1491:.\Generated_Source\PSoC5/USBUART_1.c ****                 (void) CyDmaChSetInitialTd(USBUART_1_DmaChan[epNumber], USBUART_1_DmaTd[epNumber]);
1492:.\Generated_Source\PSoC5/USBUART_1.c ****                 (void) CyDmaChEnable(USBUART_1_DmaChan[epNumber], 1u);
1493:.\Generated_Source\PSoC5/USBUART_1.c ****             #endif /* (CY_PSOC4) */
1494:.\Generated_Source\PSoC5/USBUART_1.c ****             }
1495:.\Generated_Source\PSoC5/USBUART_1.c ****             else
1496:.\Generated_Source\PSoC5/USBUART_1.c ****             {
1497:.\Generated_Source\PSoC5/USBUART_1.c ****                 /* IN endpoint buffer (32 bytes) will shortly be preloaded by DMA. */
1498:.\Generated_Source\PSoC5/USBUART_1.c ****                 USBUART_1_EP[epNumber].apiEpState = USBUART_1_NO_EVENT_PENDING;
1499:.\Generated_Source\PSoC5/USBUART_1.c **** 
1500:.\Generated_Source\PSoC5/USBUART_1.c ****                 if (length > 0u)
1501:.\Generated_Source\PSoC5/USBUART_1.c ****                 {
1502:.\Generated_Source\PSoC5/USBUART_1.c ****                 #if (CY_PSOC4)
1503:.\Generated_Source\PSoC5/USBUART_1.c ****                     uint32 lengthDescr0, lengthDescr1;
1504:.\Generated_Source\PSoC5/USBUART_1.c ****                     uint32 channelNum = (uint32) USBUART_1_DmaChan[epNumber];
1505:.\Generated_Source\PSoC5/USBUART_1.c **** 
1506:.\Generated_Source\PSoC5/USBUART_1.c ****                     /* Get number of full bursts. */
1507:.\Generated_Source\PSoC5/USBUART_1.c ****                     USBUART_1_DmaEpBurstCnt[epNumber] = (uint8) (length / USBUART_1_DMA_BYTES_PER_B
1508:.\Generated_Source\PSoC5/USBUART_1.c **** 
1509:.\Generated_Source\PSoC5/USBUART_1.c ****                     /* Get number of elements in the last burst. */
1510:.\Generated_Source\PSoC5/USBUART_1.c ****                     USBUART_1_DmaEpLastBurstEl[epNumber] = (uint8) (length % USBUART_1_DMA_BYTES_PE
1511:.\Generated_Source\PSoC5/USBUART_1.c **** 
1512:.\Generated_Source\PSoC5/USBUART_1.c ****                     /* Get total number of bursts. */
1513:.\Generated_Source\PSoC5/USBUART_1.c ****                     USBUART_1_DmaEpBurstCnt[epNumber] += (0u != USBUART_1_DmaEpLastBurstEl[epNumber
1514:.\Generated_Source\PSoC5/USBUART_1.c **** 
1515:.\Generated_Source\PSoC5/USBUART_1.c ****                     /* Adjust number of data elements transferred in last burst. */
1516:.\Generated_Source\PSoC5/USBUART_1.c ****                     USBUART_1_DmaEpLastBurstEl[epNumber] = (0u != USBUART_1_DmaEpLastBurstEl[epNumb
1517:.\Generated_Source\PSoC5/USBUART_1.c ****                                                                           (USBUART_1_DmaEpLastBurst
1518:.\Generated_Source\PSoC5/USBUART_1.c ****                                                                           (USBUART_1_DMA_BYTES_PER_
1519:.\Generated_Source\PSoC5/USBUART_1.c **** 
1520:.\Generated_Source\PSoC5/USBUART_1.c ****                     /* Get number of data elements to transfer for descriptor 0 and 1. */
1521:.\Generated_Source\PSoC5/USBUART_1.c ****                     lengthDescr0 = (1u == USBUART_1_DmaEpBurstCnt[epNumber]) ? USBUART_1_DmaEpLastB
1522:.\Generated_Source\PSoC5/USBUART_1.c ****                     lengthDescr1 = (2u == USBUART_1_DmaEpBurstCnt[epNumber]) ? USBUART_1_DmaEpLastB
1523:.\Generated_Source\PSoC5/USBUART_1.c **** 
1524:.\Generated_Source\PSoC5/USBUART_1.c **** 
ARM GAS  C:\Users\Thomas\AppData\Local\Temp\ccHSNeoG.s 			page 43


1525:.\Generated_Source\PSoC5/USBUART_1.c ****                     /* Mark which descriptor is last one to execute. */
1526:.\Generated_Source\PSoC5/USBUART_1.c ****                     USBUART_1_DmaEpLastBurstEl[epNumber] |= (0u != (USBUART_1_DmaEpBurstCnt[epNumbe
1527:.\Generated_Source\PSoC5/USBUART_1.c ****                                                                             USBUART_1_DMA_DESCR0_MA
1528:.\Generated_Source\PSoC5/USBUART_1.c **** 
1529:.\Generated_Source\PSoC5/USBUART_1.c ****                     /* Adjust burst counter taking to account: 2 valid descriptors and interrupt tr
1530:.\Generated_Source\PSoC5/USBUART_1.c ****                     USBUART_1_DmaEpBurstCnt[epNumber] = USBUART_1_DMA_GET_BURST_CNT(USBUART_1_DmaEp
1531:.\Generated_Source\PSoC5/USBUART_1.c **** 
1532:.\Generated_Source\PSoC5/USBUART_1.c ****                     /* Restore DMA settings for current transfer. */
1533:.\Generated_Source\PSoC5/USBUART_1.c ****                     USBUART_1_CyDmaChDisable(channelNum);
1534:.\Generated_Source\PSoC5/USBUART_1.c **** 
1535:.\Generated_Source\PSoC5/USBUART_1.c ****                     /* Restore destination address for input endpoint. */
1536:.\Generated_Source\PSoC5/USBUART_1.c ****                     USBUART_1_CyDmaSetSrcAddress(channelNum, USBUART_1_DMA_DESCR0, (void*) ((uint32
1537:.\Generated_Source\PSoC5/USBUART_1.c ****                     USBUART_1_CyDmaSetSrcAddress(channelNum, USBUART_1_DMA_DESCR1, (void*) ((uint32
1538:.\Generated_Source\PSoC5/USBUART_1.c ****                                                                                                    
1539:.\Generated_Source\PSoC5/USBUART_1.c **** 
1540:.\Generated_Source\PSoC5/USBUART_1.c ****                     /* Set number of elements to transfer. */
1541:.\Generated_Source\PSoC5/USBUART_1.c ****                     USBUART_1_CyDmaSetNumDataElements(channelNum, USBUART_1_DMA_DESCR0, lengthDescr
1542:.\Generated_Source\PSoC5/USBUART_1.c ****                     USBUART_1_CyDmaSetNumDataElements(channelNum, USBUART_1_DMA_DESCR1, lengthDescr
1543:.\Generated_Source\PSoC5/USBUART_1.c **** 
1544:.\Generated_Source\PSoC5/USBUART_1.c ****                     /* Validate descriptor 0 and command to start with it. */
1545:.\Generated_Source\PSoC5/USBUART_1.c ****                     USBUART_1_CyDmaValidateDescriptor(channelNum, USBUART_1_DMA_DESCR0);
1546:.\Generated_Source\PSoC5/USBUART_1.c ****                     USBUART_1_CyDmaSetDescriptor0Next(channelNum);
1547:.\Generated_Source\PSoC5/USBUART_1.c **** 
1548:.\Generated_Source\PSoC5/USBUART_1.c ****                     /* Enable DMA channel: configuration complete. */
1549:.\Generated_Source\PSoC5/USBUART_1.c ****                     USBUART_1_CyDmaChEnable(channelNum);
1550:.\Generated_Source\PSoC5/USBUART_1.c **** 
1551:.\Generated_Source\PSoC5/USBUART_1.c ****                 #elif (USBUART_1_EP_DMA_AUTO_OPT == 0u)
1552:.\Generated_Source\PSoC5/USBUART_1.c ****                     USBUART_1_inLength[epNumber]  = length;
1553:.\Generated_Source\PSoC5/USBUART_1.c ****                     USBUART_1_inBufFull[epNumber] = 0u;
1554:.\Generated_Source\PSoC5/USBUART_1.c **** 
1555:.\Generated_Source\PSoC5/USBUART_1.c ****                     (void) CyDmaChDisable(USBUART_1_DmaChan[epNumber]);
1556:.\Generated_Source\PSoC5/USBUART_1.c ****                     /* Configure DMA to send data only for first burst. */
1557:.\Generated_Source\PSoC5/USBUART_1.c ****                     (void) CyDmaTdSetConfiguration(
1558:.\Generated_Source\PSoC5/USBUART_1.c ****                         USBUART_1_DmaTd[epNumber], (length > USBUART_1_DMA_BYTES_PER_BURST) ?
1559:.\Generated_Source\PSoC5/USBUART_1.c ****                         USBUART_1_DMA_BYTES_PER_BURST : length,
1560:.\Generated_Source\PSoC5/USBUART_1.c ****                         USBUART_1_DmaNextTd[epNumber], TD_TERMIN_EN | TD_INC_SRC_ADR );
1561:.\Generated_Source\PSoC5/USBUART_1.c ****                     (void) CyDmaTdSetAddress(USBUART_1_DmaTd[epNumber], LO16((uint32)  USBUART_1_in
1562:.\Generated_Source\PSoC5/USBUART_1.c ****                                                                                LO16((uint32) &USBUA
1563:.\Generated_Source\PSoC5/USBUART_1.c ****                     /* Clear Any potential pending DMA requests before starting DMA channel to tran
1564:.\Generated_Source\PSoC5/USBUART_1.c ****                     (void) CyDmaClearPendingDrq(USBUART_1_DmaChan[epNumber]);
1565:.\Generated_Source\PSoC5/USBUART_1.c ****                     /* Enable DMA. */
1566:.\Generated_Source\PSoC5/USBUART_1.c ****                     (void) CyDmaChSetInitialTd(USBUART_1_DmaChan[epNumber], USBUART_1_DmaTd[epNumbe
1567:.\Generated_Source\PSoC5/USBUART_1.c ****                     (void) CyDmaChEnable(USBUART_1_DmaChan[epNumber], 1u);
1568:.\Generated_Source\PSoC5/USBUART_1.c ****                 #endif /* (CY_PSOC4) */
1569:.\Generated_Source\PSoC5/USBUART_1.c **** 
1570:.\Generated_Source\PSoC5/USBUART_1.c ****                 #if !defined (USBUART_1_MANUAL_IN_EP_ARM)
1571:.\Generated_Source\PSoC5/USBUART_1.c ****                     /* Set IN data ready to generate DMA request to load data into endpoint buffer.
1572:.\Generated_Source\PSoC5/USBUART_1.c ****                     USBUART_1_ARB_EP_BASE.arbEp[epNumber].epCfg |= USBUART_1_ARB_EPX_CFG_IN_DATA_RD
1573:.\Generated_Source\PSoC5/USBUART_1.c ****                 #endif  /* (USBUART_1_MANUAL_IN_EP_ARM) */
1574:.\Generated_Source\PSoC5/USBUART_1.c **** 
1575:.\Generated_Source\PSoC5/USBUART_1.c ****                     /* IN endpoint will be armed in ARB_ISR(source: IN_BUF_FULL) after first DMA tr
1576:.\Generated_Source\PSoC5/USBUART_1.c ****                 }
1577:.\Generated_Source\PSoC5/USBUART_1.c ****                 else
1578:.\Generated_Source\PSoC5/USBUART_1.c ****                 {
1579:.\Generated_Source\PSoC5/USBUART_1.c ****                     /* When zero-length packet: arm IN endpoint directly. */
1580:.\Generated_Source\PSoC5/USBUART_1.c ****                     USBUART_1_SIE_EP_BASE.sieEp[epNumber].epCr0 = USBUART_1_EP[epNumber].epMode;
1581:.\Generated_Source\PSoC5/USBUART_1.c ****                 }
ARM GAS  C:\Users\Thomas\AppData\Local\Temp\ccHSNeoG.s 			page 44


1582:.\Generated_Source\PSoC5/USBUART_1.c ****             }
1583:.\Generated_Source\PSoC5/USBUART_1.c ****         #endif /* (USBUART_1_EP_MANAGEMENT_DMA_AUTO) */
1584:.\Generated_Source\PSoC5/USBUART_1.c ****     #endif /* (USBUART_1_EP_MANAGEMENT_MANUAL) */
1585:.\Generated_Source\PSoC5/USBUART_1.c ****     }
1586:.\Generated_Source\PSoC5/USBUART_1.c **** }
 861              		.loc 1 1586 0
 862 007e F0BC     		pop	{r4, r5, r6, r7}
 863              		.cfi_restore 7
 864              		.cfi_restore 6
 865              		.cfi_restore 5
 866              		.cfi_restore 4
 867              		.cfi_def_cfa_offset 0
 868              	.L58:
 869 0080 7047     		bx	lr
 870              	.L60:
 871 0082 00BF     		.align	2
 872              	.L59:
 873 0084 00000000 		.word	USBUART_1_EP
 874 0088 FC5F0040 		.word	1073766396
 875 008c 78600040 		.word	1073766520
 876 0090 FE5F0040 		.word	1073766398
 877              		.cfi_endproc
 878              	.LFE11:
 879              		.size	USBUART_1_LoadInEP, .-USBUART_1_LoadInEP
 880              		.section	.text.USBUART_1_EnableOutEP,"ax",%progbits
 881              		.align	2
 882              		.global	USBUART_1_EnableOutEP
 883              		.thumb
 884              		.thumb_func
 885              		.type	USBUART_1_EnableOutEP, %function
 886              	USBUART_1_EnableOutEP:
 887              	.LFB13:
1587:.\Generated_Source\PSoC5/USBUART_1.c **** 
1588:.\Generated_Source\PSoC5/USBUART_1.c **** 
1589:.\Generated_Source\PSoC5/USBUART_1.c **** /*******************************************************************************
1590:.\Generated_Source\PSoC5/USBUART_1.c **** * Function Name: USBUART_1_ReadOutEP
1591:.\Generated_Source\PSoC5/USBUART_1.c **** ****************************************************************************//**
1592:.\Generated_Source\PSoC5/USBUART_1.c **** *
1593:.\Generated_Source\PSoC5/USBUART_1.c **** *   This function performs different functionality depending on the Component’s
1594:.\Generated_Source\PSoC5/USBUART_1.c **** *   configured Endpoint Buffer Management. This parameter is defined in the
1595:.\Generated_Source\PSoC5/USBUART_1.c **** *   Descriptor Root in Component Configure window.
1596:.\Generated_Source\PSoC5/USBUART_1.c **** *
1597:.\Generated_Source\PSoC5/USBUART_1.c **** *   *Manual (Static/Dynamic Allocation):*
1598:.\Generated_Source\PSoC5/USBUART_1.c **** *   This function moves the specified number of bytes from endpoint buffer to
1599:.\Generated_Source\PSoC5/USBUART_1.c **** *   system RAM. The number of bytes actually transferred from endpoint buffer to
1600:.\Generated_Source\PSoC5/USBUART_1.c **** *   system RAM is the lesser of the actual number of bytes sent by the host or
1601:.\Generated_Source\PSoC5/USBUART_1.c **** *   the number of bytes requested by the length parameter.
1602:.\Generated_Source\PSoC5/USBUART_1.c **** *
1603:.\Generated_Source\PSoC5/USBUART_1.c **** *   *DMA with Manual Buffer Management:*
1604:.\Generated_Source\PSoC5/USBUART_1.c **** *   Configure DMA to transfer data from endpoint buffer to system RAM. Generate
1605:.\Generated_Source\PSoC5/USBUART_1.c **** *   a DMA request. The firmware must wait until the DMA completes the data
1606:.\Generated_Source\PSoC5/USBUART_1.c **** *   transfer after calling the USBUART_1_ReadOutEP() API. For example,
1607:.\Generated_Source\PSoC5/USBUART_1.c **** *   by checking EPstate:
1608:.\Generated_Source\PSoC5/USBUART_1.c **** *
1609:.\Generated_Source\PSoC5/USBUART_1.c **** *   \snippet /USBFS_sut_02.cydsn/main.c checking EPstatey
1610:.\Generated_Source\PSoC5/USBUART_1.c **** *
1611:.\Generated_Source\PSoC5/USBUART_1.c **** *   The USBFS_EnableOutEP() has to be called to allow host to write data into
ARM GAS  C:\Users\Thomas\AppData\Local\Temp\ccHSNeoG.s 			page 45


1612:.\Generated_Source\PSoC5/USBUART_1.c **** *   the endpoint buffer after DMA has completed transfer data from OUT endpoint
1613:.\Generated_Source\PSoC5/USBUART_1.c **** *   buffer to SRAM.
1614:.\Generated_Source\PSoC5/USBUART_1.c **** *
1615:.\Generated_Source\PSoC5/USBUART_1.c **** *   *DMA with Automatic Buffer Management:*
1616:.\Generated_Source\PSoC5/USBUART_1.c **** *   Configure DMA. This is required only once and automatically generates DMA
1617:.\Generated_Source\PSoC5/USBUART_1.c **** *   requests as data arrives
1618:.\Generated_Source\PSoC5/USBUART_1.c **** *
1619:.\Generated_Source\PSoC5/USBUART_1.c **** *  \param epNumber: Contains the data endpoint number.
1620:.\Generated_Source\PSoC5/USBUART_1.c **** *            Valid values are between 1 and 8.
1621:.\Generated_Source\PSoC5/USBUART_1.c **** *  \param pData: A pointer to a data array from which the data for the endpoint
1622:.\Generated_Source\PSoC5/USBUART_1.c **** *         space is loaded.
1623:.\Generated_Source\PSoC5/USBUART_1.c **** *  \param length: The number of bytes to transfer from the USB Out endpoint and
1624:.\Generated_Source\PSoC5/USBUART_1.c **** *          loads it into data array. Valid values are between 0 and 1023. The
1625:.\Generated_Source\PSoC5/USBUART_1.c **** *          function moves fewer than the requested number of bytes if the host
1626:.\Generated_Source\PSoC5/USBUART_1.c **** *          sends fewer bytes than requested.
1627:.\Generated_Source\PSoC5/USBUART_1.c **** *
1628:.\Generated_Source\PSoC5/USBUART_1.c **** * \return
1629:.\Generated_Source\PSoC5/USBUART_1.c **** *  Number of bytes received, 0 for an invalid endpoint.
1630:.\Generated_Source\PSoC5/USBUART_1.c **** *
1631:.\Generated_Source\PSoC5/USBUART_1.c **** * \reentrant
1632:.\Generated_Source\PSoC5/USBUART_1.c **** *  No.
1633:.\Generated_Source\PSoC5/USBUART_1.c **** *
1634:.\Generated_Source\PSoC5/USBUART_1.c **** *******************************************************************************/
1635:.\Generated_Source\PSoC5/USBUART_1.c **** uint16 USBUART_1_ReadOutEP(uint8 epNumber, uint8 pData[], uint16 length)
1636:.\Generated_Source\PSoC5/USBUART_1.c ****                                                                         
1637:.\Generated_Source\PSoC5/USBUART_1.c **** {
1638:.\Generated_Source\PSoC5/USBUART_1.c ****     if ((pData != NULL) && (epNumber > USBUART_1_EP0) && (epNumber < USBUART_1_MAX_EP))
1639:.\Generated_Source\PSoC5/USBUART_1.c ****     {
1640:.\Generated_Source\PSoC5/USBUART_1.c ****     #if (!USBUART_1_EP_MANAGEMENT_DMA_AUTO)
1641:.\Generated_Source\PSoC5/USBUART_1.c ****         /* Adjust requested length to available data. */
1642:.\Generated_Source\PSoC5/USBUART_1.c ****         length = (length > USBUART_1_GetEPCount(epNumber)) ? USBUART_1_GetEPCount(epNumber) : lengt
1643:.\Generated_Source\PSoC5/USBUART_1.c ****     #endif /* (!USBUART_1_EP_MANAGEMENT_DMA_AUTO) */
1644:.\Generated_Source\PSoC5/USBUART_1.c **** 
1645:.\Generated_Source\PSoC5/USBUART_1.c ****     #if (USBUART_1_EP_MANAGEMENT_MANUAL)
1646:.\Generated_Source\PSoC5/USBUART_1.c ****         {
1647:.\Generated_Source\PSoC5/USBUART_1.c ****             /* Copy data using arbiter data register. */
1648:.\Generated_Source\PSoC5/USBUART_1.c ****             uint16 i;
1649:.\Generated_Source\PSoC5/USBUART_1.c ****             for (i = 0u; i < length; ++i)
1650:.\Generated_Source\PSoC5/USBUART_1.c ****             {
1651:.\Generated_Source\PSoC5/USBUART_1.c ****                 pData[i] = (uint8) USBUART_1_ARB_EP_BASE.arbEp[epNumber].rwDr;
1652:.\Generated_Source\PSoC5/USBUART_1.c ****             }
1653:.\Generated_Source\PSoC5/USBUART_1.c ****         }
1654:.\Generated_Source\PSoC5/USBUART_1.c **** 
1655:.\Generated_Source\PSoC5/USBUART_1.c ****         /* Arm OUT endpoint after data has been copied from endpoint buffer. */
1656:.\Generated_Source\PSoC5/USBUART_1.c ****         USBUART_1_EnableOutEP(epNumber);
1657:.\Generated_Source\PSoC5/USBUART_1.c ****     #else
1658:.\Generated_Source\PSoC5/USBUART_1.c **** 
1659:.\Generated_Source\PSoC5/USBUART_1.c ****         #if (CY_PSOC3 || CY_PSOC5LP)
1660:.\Generated_Source\PSoC5/USBUART_1.c ****             /* Initialize DMA if it was not initialized. */
1661:.\Generated_Source\PSoC5/USBUART_1.c ****             if (DMA_INVALID_TD == USBUART_1_DmaTd[epNumber])
1662:.\Generated_Source\PSoC5/USBUART_1.c ****             {
1663:.\Generated_Source\PSoC5/USBUART_1.c ****                 USBUART_1_InitEP_DMA(epNumber, pData);
1664:.\Generated_Source\PSoC5/USBUART_1.c ****             }
1665:.\Generated_Source\PSoC5/USBUART_1.c ****         #endif /* (CY_PSOC3 || CY_PSOC5LP) */
1666:.\Generated_Source\PSoC5/USBUART_1.c **** 
1667:.\Generated_Source\PSoC5/USBUART_1.c ****         #if (USBUART_1_EP_MANAGEMENT_DMA_MANUAL)
1668:.\Generated_Source\PSoC5/USBUART_1.c ****         #if (CY_PSOC4)
ARM GAS  C:\Users\Thomas\AppData\Local\Temp\ccHSNeoG.s 			page 46


1669:.\Generated_Source\PSoC5/USBUART_1.c ****         {
1670:.\Generated_Source\PSoC5/USBUART_1.c ****             uint32 channelNum = (uint32) USBUART_1_DmaChan[epNumber];
1671:.\Generated_Source\PSoC5/USBUART_1.c **** 
1672:.\Generated_Source\PSoC5/USBUART_1.c ****             /* Disable DMA channel: start configuration. */
1673:.\Generated_Source\PSoC5/USBUART_1.c ****             USBUART_1_CyDmaChDisable(channelNum);
1674:.\Generated_Source\PSoC5/USBUART_1.c **** 
1675:.\Generated_Source\PSoC5/USBUART_1.c ****             /* Configure source and destination. */
1676:.\Generated_Source\PSoC5/USBUART_1.c ****             USBUART_1_CyDmaSetSrcAddress(channelNum, USBUART_1_DMA_DESCR0, (void*) &USBUART_1_ARB_E
1677:.\Generated_Source\PSoC5/USBUART_1.c ****             USBUART_1_CyDmaSetDstAddress(channelNum, USBUART_1_DMA_DESCR0, (void*) pData);
1678:.\Generated_Source\PSoC5/USBUART_1.c **** 
1679:.\Generated_Source\PSoC5/USBUART_1.c ****             /* Configure DMA descriptor. */
1680:.\Generated_Source\PSoC5/USBUART_1.c ****             USBUART_1_CyDmaSetConfiguration(channelNum, USBUART_1_DMA_DESCR0, USBUART_1_DMA_COMMON_
1681:.\Generated_Source\PSoC5/USBUART_1.c ****                                                     CYDMA_BYTE | CYDMA_WORD_ELEMENT | CYDMA_INC_DST
1682:.\Generated_Source\PSoC5/USBUART_1.c **** 
1683:.\Generated_Source\PSoC5/USBUART_1.c ****             /* Validate descriptor to execute on following DMA request. */
1684:.\Generated_Source\PSoC5/USBUART_1.c ****             USBUART_1_CyDmaValidateDescriptor(channelNum, USBUART_1_DMA_DESCR0);
1685:.\Generated_Source\PSoC5/USBUART_1.c **** 
1686:.\Generated_Source\PSoC5/USBUART_1.c ****             /* Enable DMA channel: configuration complete. */
1687:.\Generated_Source\PSoC5/USBUART_1.c ****             USBUART_1_CyDmaChEnable(channelNum);
1688:.\Generated_Source\PSoC5/USBUART_1.c ****         }
1689:.\Generated_Source\PSoC5/USBUART_1.c ****         #else
1690:.\Generated_Source\PSoC5/USBUART_1.c ****             /* Configure DMA to transfer data. */
1691:.\Generated_Source\PSoC5/USBUART_1.c ****             (void) CyDmaChDisable(USBUART_1_DmaChan[epNumber]);
1692:.\Generated_Source\PSoC5/USBUART_1.c ****             (void) CyDmaTdSetConfiguration(USBUART_1_DmaTd[epNumber], length, CY_DMA_DISABLE_TD, TD
1693:.\Generated_Source\PSoC5/USBUART_1.c ****             (void) CyDmaTdSetAddress(USBUART_1_DmaTd[epNumber], LO16((uint32) &USBUART_1_ARB_EP_BAS
1694:.\Generated_Source\PSoC5/USBUART_1.c **** 
1695:.\Generated_Source\PSoC5/USBUART_1.c ****             /* Enable DMA channel. */
1696:.\Generated_Source\PSoC5/USBUART_1.c ****             (void) CyDmaChSetInitialTd(USBUART_1_DmaChan[epNumber], USBUART_1_DmaTd[epNumber]);
1697:.\Generated_Source\PSoC5/USBUART_1.c ****             (void) CyDmaChEnable(USBUART_1_DmaChan[epNumber], 1u);
1698:.\Generated_Source\PSoC5/USBUART_1.c ****         #endif /* (CY_PSOC4) */
1699:.\Generated_Source\PSoC5/USBUART_1.c **** 
1700:.\Generated_Source\PSoC5/USBUART_1.c ****             /* Generate DMA request. */
1701:.\Generated_Source\PSoC5/USBUART_1.c ****             USBUART_1_ARB_EP_BASE.arbEp[epNumber].epCfg |=  (uint8)  USBUART_1_ARB_EPX_CFG_DMA_REQ;
1702:.\Generated_Source\PSoC5/USBUART_1.c ****             USBUART_1_ARB_EP_BASE.arbEp[epNumber].epCfg &=  (uint8) ~USBUART_1_ARB_EPX_CFG_DMA_REQ;
1703:.\Generated_Source\PSoC5/USBUART_1.c **** 
1704:.\Generated_Source\PSoC5/USBUART_1.c ****             /* OUT endpoint has to be armed again by user when DMA transfers have been completed.
1705:.\Generated_Source\PSoC5/USBUART_1.c ****             * NO_EVENT_PENDING: notifies that data has been copied from endpoint buffer.
1706:.\Generated_Source\PSoC5/USBUART_1.c ****             */
1707:.\Generated_Source\PSoC5/USBUART_1.c **** 
1708:.\Generated_Source\PSoC5/USBUART_1.c ****         #endif /* (USBUART_1_EP_MANAGEMENT_DMA_MANUAL) */
1709:.\Generated_Source\PSoC5/USBUART_1.c **** 
1710:.\Generated_Source\PSoC5/USBUART_1.c ****         #if (USBUART_1_EP_MANAGEMENT_DMA_AUTO)
1711:.\Generated_Source\PSoC5/USBUART_1.c ****         #if (CY_PSOC4)
1712:.\Generated_Source\PSoC5/USBUART_1.c ****         {
1713:.\Generated_Source\PSoC5/USBUART_1.c ****             uint32 channelNum = (uint32) USBUART_1_DmaChan[epNumber];
1714:.\Generated_Source\PSoC5/USBUART_1.c ****             uint32 lengthDescr0, lengthDescr1;
1715:.\Generated_Source\PSoC5/USBUART_1.c **** 
1716:.\Generated_Source\PSoC5/USBUART_1.c ****             /* Get number of full bursts. */
1717:.\Generated_Source\PSoC5/USBUART_1.c ****             USBUART_1_DmaEpBurstCnt[epNumber] = (uint8) (length / USBUART_1_DMA_BYTES_PER_BURST);
1718:.\Generated_Source\PSoC5/USBUART_1.c **** 
1719:.\Generated_Source\PSoC5/USBUART_1.c ****             /* Get number of elements in the last burst. */
1720:.\Generated_Source\PSoC5/USBUART_1.c ****             USBUART_1_DmaEpLastBurstEl[epNumber] = (uint8) (length % USBUART_1_DMA_BYTES_PER_BURST)
1721:.\Generated_Source\PSoC5/USBUART_1.c **** 
1722:.\Generated_Source\PSoC5/USBUART_1.c ****             /* Get total number of bursts. */
1723:.\Generated_Source\PSoC5/USBUART_1.c ****             USBUART_1_DmaEpBurstCnt[epNumber] += (0u != USBUART_1_DmaEpLastBurstEl[epNumber]) ? 1u 
1724:.\Generated_Source\PSoC5/USBUART_1.c **** 
1725:.\Generated_Source\PSoC5/USBUART_1.c ****             /* Adjust number of the data elements transfered in last burst. */
ARM GAS  C:\Users\Thomas\AppData\Local\Temp\ccHSNeoG.s 			page 47


1726:.\Generated_Source\PSoC5/USBUART_1.c ****             USBUART_1_DmaEpLastBurstEl[epNumber] = (0u != USBUART_1_DmaEpLastBurstEl[epNumber]) ?
1727:.\Generated_Source\PSoC5/USBUART_1.c ****                                                                   (USBUART_1_DmaEpLastBurstEl[epNum
1728:.\Generated_Source\PSoC5/USBUART_1.c ****                                                                   (USBUART_1_DMA_BYTES_PER_BURST - 
1729:.\Generated_Source\PSoC5/USBUART_1.c **** 
1730:.\Generated_Source\PSoC5/USBUART_1.c ****             /* Get number of data elements to transfer for descriptor 0 and 1. */
1731:.\Generated_Source\PSoC5/USBUART_1.c ****             lengthDescr0 = (1u == USBUART_1_DmaEpBurstCnt[epNumber]) ? USBUART_1_DmaEpLastBurstEl[e
1732:.\Generated_Source\PSoC5/USBUART_1.c ****             lengthDescr1 = (2u == USBUART_1_DmaEpBurstCnt[epNumber]) ? USBUART_1_DmaEpLastBurstEl[e
1733:.\Generated_Source\PSoC5/USBUART_1.c **** 
1734:.\Generated_Source\PSoC5/USBUART_1.c ****             /* Mark if revert number of data elements in descriptor after transfer completion. */
1735:.\Generated_Source\PSoC5/USBUART_1.c ****             USBUART_1_DmaEpLastBurstEl[epNumber] |= (USBUART_1_DmaEpBurstCnt[epNumber] > 2u) ? USBU
1736:.\Generated_Source\PSoC5/USBUART_1.c **** 
1737:.\Generated_Source\PSoC5/USBUART_1.c ****             /* Mark last descriptor to be executed. */
1738:.\Generated_Source\PSoC5/USBUART_1.c ****             USBUART_1_DmaEpLastBurstEl[epNumber] |= (0u != (USBUART_1_DmaEpBurstCnt[epNumber] & 0x1
1739:.\Generated_Source\PSoC5/USBUART_1.c ****                                                                     USBUART_1_DMA_DESCR0_MASK : USB
1740:.\Generated_Source\PSoC5/USBUART_1.c **** 
1741:.\Generated_Source\PSoC5/USBUART_1.c ****             /* Adjust burst counter taking to account: 2 valid descriptors and interrupt trigger af
1742:.\Generated_Source\PSoC5/USBUART_1.c ****             USBUART_1_DmaEpBurstCnt[epNumber] = USBUART_1_DMA_GET_BURST_CNT(USBUART_1_DmaEpBurstCnt
1743:.\Generated_Source\PSoC5/USBUART_1.c **** 
1744:.\Generated_Source\PSoC5/USBUART_1.c ****             /* Store address of buffer and burst counter for endpoint. */
1745:.\Generated_Source\PSoC5/USBUART_1.c ****             USBUART_1_DmaEpBufferAddrBackup[epNumber] = (uint32) pData;
1746:.\Generated_Source\PSoC5/USBUART_1.c ****             USBUART_1_DmaEpBurstCntBackup[epNumber]   = USBUART_1_DmaEpBurstCnt[epNumber];
1747:.\Generated_Source\PSoC5/USBUART_1.c **** 
1748:.\Generated_Source\PSoC5/USBUART_1.c ****             /* Disable DMA channel: start configuration. */
1749:.\Generated_Source\PSoC5/USBUART_1.c ****             USBUART_1_CyDmaChDisable(channelNum);
1750:.\Generated_Source\PSoC5/USBUART_1.c **** 
1751:.\Generated_Source\PSoC5/USBUART_1.c ****             /* Set destination address. */
1752:.\Generated_Source\PSoC5/USBUART_1.c ****             USBUART_1_CyDmaSetSrcAddress(channelNum, USBUART_1_DMA_DESCR0, (void*) &USBUART_1_ARB_E
1753:.\Generated_Source\PSoC5/USBUART_1.c ****             USBUART_1_CyDmaSetSrcAddress(channelNum, USBUART_1_DMA_DESCR1, (void*) &USBUART_1_ARB_E
1754:.\Generated_Source\PSoC5/USBUART_1.c **** 
1755:.\Generated_Source\PSoC5/USBUART_1.c ****             USBUART_1_CyDmaSetDstAddress(channelNum, USBUART_1_DMA_DESCR0, (void*) ((uint32) pData)
1756:.\Generated_Source\PSoC5/USBUART_1.c ****             USBUART_1_CyDmaSetDstAddress(channelNum, USBUART_1_DMA_DESCR1, (void*) ((uint32) pData 
1757:.\Generated_Source\PSoC5/USBUART_1.c **** 
1758:.\Generated_Source\PSoC5/USBUART_1.c ****             /* Configure DMA descriptor. */
1759:.\Generated_Source\PSoC5/USBUART_1.c ****             USBUART_1_CyDmaSetConfiguration(channelNum, USBUART_1_DMA_DESCR0, USBUART_1_DMA_COMMON_
1760:.\Generated_Source\PSoC5/USBUART_1.c ****                                                     CYDMA_BYTE | CYDMA_WORD_ELEMENT | CYDMA_INC_DST
1761:.\Generated_Source\PSoC5/USBUART_1.c **** 
1762:.\Generated_Source\PSoC5/USBUART_1.c ****             /* Configure DMA descriptor. */
1763:.\Generated_Source\PSoC5/USBUART_1.c ****             USBUART_1_CyDmaSetConfiguration(channelNum, USBUART_1_DMA_DESCR1, USBUART_1_DMA_COMMON_
1764:.\Generated_Source\PSoC5/USBUART_1.c ****                                                     CYDMA_BYTE | CYDMA_WORD_ELEMENT | CYDMA_INC_DST
1765:.\Generated_Source\PSoC5/USBUART_1.c **** 
1766:.\Generated_Source\PSoC5/USBUART_1.c ****             /* Enable interrupt from DMA channel. */
1767:.\Generated_Source\PSoC5/USBUART_1.c ****             USBUART_1_CyDmaSetInterruptMask(channelNum);
1768:.\Generated_Source\PSoC5/USBUART_1.c **** 
1769:.\Generated_Source\PSoC5/USBUART_1.c ****             /* Validate DMA descriptor 0 and 1. */
1770:.\Generated_Source\PSoC5/USBUART_1.c ****             USBUART_1_CyDmaValidateDescriptor(channelNum, USBUART_1_DMA_DESCR0);
1771:.\Generated_Source\PSoC5/USBUART_1.c ****             USBUART_1_CyDmaValidateDescriptor(channelNum, USBUART_1_DMA_DESCR1);
1772:.\Generated_Source\PSoC5/USBUART_1.c **** 
1773:.\Generated_Source\PSoC5/USBUART_1.c ****             /* Enable DMA channel: configuration complete. */
1774:.\Generated_Source\PSoC5/USBUART_1.c ****             USBUART_1_CyDmaChEnable(channelNum);
1775:.\Generated_Source\PSoC5/USBUART_1.c ****         }
1776:.\Generated_Source\PSoC5/USBUART_1.c ****         #else
1777:.\Generated_Source\PSoC5/USBUART_1.c ****             (void) CyDmaChDisable(USBUART_1_DmaChan[epNumber]);
1778:.\Generated_Source\PSoC5/USBUART_1.c ****             (void) CyDmaTdSetConfiguration(USBUART_1_DmaTd[epNumber], length,  USBUART_1_DmaTd[epNu
1779:.\Generated_Source\PSoC5/USBUART_1.c ****             (void) CyDmaTdSetAddress(USBUART_1_DmaTd[epNumber], LO16((uint32) &USBUART_1_ARB_EP_BAS
1780:.\Generated_Source\PSoC5/USBUART_1.c **** 
1781:.\Generated_Source\PSoC5/USBUART_1.c ****             /* Clear Any potential pending DMA requests before starting DMA channel to transfer dat
1782:.\Generated_Source\PSoC5/USBUART_1.c ****             (void) CyDmaClearPendingDrq(USBUART_1_DmaChan[epNumber]);
ARM GAS  C:\Users\Thomas\AppData\Local\Temp\ccHSNeoG.s 			page 48


1783:.\Generated_Source\PSoC5/USBUART_1.c **** 
1784:.\Generated_Source\PSoC5/USBUART_1.c ****             /* Enable DMA channel. */
1785:.\Generated_Source\PSoC5/USBUART_1.c ****             (void) CyDmaChSetInitialTd(USBUART_1_DmaChan[epNumber], USBUART_1_DmaTd[epNumber]);
1786:.\Generated_Source\PSoC5/USBUART_1.c ****             (void) CyDmaChEnable(USBUART_1_DmaChan[epNumber], 1u);
1787:.\Generated_Source\PSoC5/USBUART_1.c ****         #endif /* (CY_PSOC4) */
1788:.\Generated_Source\PSoC5/USBUART_1.c **** 
1789:.\Generated_Source\PSoC5/USBUART_1.c ****             /* OUT endpoint has to be armed again by user when DMA transfers have been completed.
1790:.\Generated_Source\PSoC5/USBUART_1.c ****             * NO_EVENT_PENDING: notifies that data has been copied from endpoint buffer.
1791:.\Generated_Source\PSoC5/USBUART_1.c ****             */
1792:.\Generated_Source\PSoC5/USBUART_1.c **** 
1793:.\Generated_Source\PSoC5/USBUART_1.c ****         #endif /* (USBUART_1_EP_MANAGEMENT_DMA_AUTO) */
1794:.\Generated_Source\PSoC5/USBUART_1.c ****     #endif /* (USBUART_1_EP_MANAGEMENT_MANUAL) */
1795:.\Generated_Source\PSoC5/USBUART_1.c ****     }
1796:.\Generated_Source\PSoC5/USBUART_1.c ****     else
1797:.\Generated_Source\PSoC5/USBUART_1.c ****     {
1798:.\Generated_Source\PSoC5/USBUART_1.c ****         length = 0u;
1799:.\Generated_Source\PSoC5/USBUART_1.c ****     }
1800:.\Generated_Source\PSoC5/USBUART_1.c **** 
1801:.\Generated_Source\PSoC5/USBUART_1.c ****     return (length);
1802:.\Generated_Source\PSoC5/USBUART_1.c **** }
1803:.\Generated_Source\PSoC5/USBUART_1.c **** 
1804:.\Generated_Source\PSoC5/USBUART_1.c **** 
1805:.\Generated_Source\PSoC5/USBUART_1.c **** #if (USBUART_1_16BITS_EP_ACCESS_ENABLE)
1806:.\Generated_Source\PSoC5/USBUART_1.c **** /*******************************************************************************
1807:.\Generated_Source\PSoC5/USBUART_1.c **** * Function Name: USBUART_1_LoadInEP16
1808:.\Generated_Source\PSoC5/USBUART_1.c **** ****************************************************************************//**
1809:.\Generated_Source\PSoC5/USBUART_1.c **** *
1810:.\Generated_Source\PSoC5/USBUART_1.c **** *  This function performs different functionality depending on the Component’s
1811:.\Generated_Source\PSoC5/USBUART_1.c **** *  configured Endpoint Buffer Management. This parameter is defined in
1812:.\Generated_Source\PSoC5/USBUART_1.c **** *  the Descriptor Root in Component Configure window.
1813:.\Generated_Source\PSoC5/USBUART_1.c **** *
1814:.\Generated_Source\PSoC5/USBUART_1.c **** *  *Manual (Static/Dynamic Allocation):*
1815:.\Generated_Source\PSoC5/USBUART_1.c **** *  This function loads and enables the specified USB data endpoint for an IN
1816:.\Generated_Source\PSoC5/USBUART_1.c **** *  data transfer.
1817:.\Generated_Source\PSoC5/USBUART_1.c **** *
1818:.\Generated_Source\PSoC5/USBUART_1.c **** *  *DMA with Manual Buffer Management:*
1819:.\Generated_Source\PSoC5/USBUART_1.c **** *  Configures DMA for a data transfer from system RAM to endpoint buffer.
1820:.\Generated_Source\PSoC5/USBUART_1.c **** *  Generates request for a transfer.
1821:.\Generated_Source\PSoC5/USBUART_1.c **** *
1822:.\Generated_Source\PSoC5/USBUART_1.c **** *  *DMA with Automatic Buffer Management:*
1823:.\Generated_Source\PSoC5/USBUART_1.c **** *  Configures DMA. This is required only once, so it is done only when parameter
1824:.\Generated_Source\PSoC5/USBUART_1.c **** *  pData is not NULL. When the pData pointer is NULL, the function skips this
1825:.\Generated_Source\PSoC5/USBUART_1.c **** *  task. Sets Data ready status: This generates the first DMA transfer and
1826:.\Generated_Source\PSoC5/USBUART_1.c **** *  prepares data in endpoint buffer.
1827:.\Generated_Source\PSoC5/USBUART_1.c **** *
1828:.\Generated_Source\PSoC5/USBUART_1.c **** *  \param epNumber Contains the data endpoint number.
1829:.\Generated_Source\PSoC5/USBUART_1.c **** *        Valid values are between 1 and 8.
1830:.\Generated_Source\PSoC5/USBUART_1.c **** *  \param *pData A pointer to a data array from which the data for the endpoint
1831:.\Generated_Source\PSoC5/USBUART_1.c **** *        space is loaded. It shall be ensured that this pointer address is even
1832:.\Generated_Source\PSoC5/USBUART_1.c **** *        to ensure the 16-bit transfer is aligned to even address. Else, a hard
1833:.\Generated_Source\PSoC5/USBUART_1.c **** *        fault condition can occur.
1834:.\Generated_Source\PSoC5/USBUART_1.c **** *  \param length The number of bytes to transfer from the array and then send as
1835:.\Generated_Source\PSoC5/USBUART_1.c **** *        a result of an IN request. Valid values are between 0 and 512 (1023 for
1836:.\Generated_Source\PSoC5/USBUART_1.c **** *        DMA with Automatic Buffer Management mode). The value 512 is applicable
1837:.\Generated_Source\PSoC5/USBUART_1.c **** *        if only one endpoint is used.
1838:.\Generated_Source\PSoC5/USBUART_1.c **** *
1839:.\Generated_Source\PSoC5/USBUART_1.c **** * \reentrant
ARM GAS  C:\Users\Thomas\AppData\Local\Temp\ccHSNeoG.s 			page 49


1840:.\Generated_Source\PSoC5/USBUART_1.c **** *  No.
1841:.\Generated_Source\PSoC5/USBUART_1.c **** *
1842:.\Generated_Source\PSoC5/USBUART_1.c **** *******************************************************************************/
1843:.\Generated_Source\PSoC5/USBUART_1.c **** void USBUART_1_LoadInEP16(uint8 epNumber, const uint8 pData[], uint16 length)
1844:.\Generated_Source\PSoC5/USBUART_1.c **** {
1845:.\Generated_Source\PSoC5/USBUART_1.c ****     /* Check array alignment on half-word boundary. */
1846:.\Generated_Source\PSoC5/USBUART_1.c ****     CYASSERT(0u == (((uint32) pData) & 0x01u));
1847:.\Generated_Source\PSoC5/USBUART_1.c **** 
1848:.\Generated_Source\PSoC5/USBUART_1.c ****     if ((epNumber > USBUART_1_EP0) && (epNumber < USBUART_1_MAX_EP))
1849:.\Generated_Source\PSoC5/USBUART_1.c ****     {
1850:.\Generated_Source\PSoC5/USBUART_1.c ****     #if (!USBUART_1_EP_MANAGEMENT_DMA_AUTO)
1851:.\Generated_Source\PSoC5/USBUART_1.c ****         /* Limit length to available buffer USB IP buffer size. */
1852:.\Generated_Source\PSoC5/USBUART_1.c ****         if (length > (USBUART_1_EPX_DATA_BUF_MAX - USBUART_1_EP[epNumber].buffOffset))
1853:.\Generated_Source\PSoC5/USBUART_1.c ****         {
1854:.\Generated_Source\PSoC5/USBUART_1.c ****             length = USBUART_1_EPX_DATA_BUF_MAX - USBUART_1_EP[epNumber].buffOffset;
1855:.\Generated_Source\PSoC5/USBUART_1.c ****         }
1856:.\Generated_Source\PSoC5/USBUART_1.c ****     #endif /* (!USBUART_1_EP_MANAGEMENT_DMA_AUTO) */
1857:.\Generated_Source\PSoC5/USBUART_1.c **** 
1858:.\Generated_Source\PSoC5/USBUART_1.c ****         /* Set count and data toggle. */
1859:.\Generated_Source\PSoC5/USBUART_1.c ****         USBUART_1_SIE_EP_BASE.sieEp[epNumber].epCnt0 = (uint32) HI8(length) | USBUART_1_EP[epNumber
1860:.\Generated_Source\PSoC5/USBUART_1.c ****         USBUART_1_SIE_EP_BASE.sieEp[epNumber].epCnt1 = (uint32) LO8(length);
1861:.\Generated_Source\PSoC5/USBUART_1.c **** 
1862:.\Generated_Source\PSoC5/USBUART_1.c ****         /* Adjust requested length: 2 bytes are handled at one data register access. */
1863:.\Generated_Source\PSoC5/USBUART_1.c ****         length += (length & 0x01u);
1864:.\Generated_Source\PSoC5/USBUART_1.c **** 
1865:.\Generated_Source\PSoC5/USBUART_1.c ****     #if (USBUART_1_EP_MANAGEMENT_MANUAL)
1866:.\Generated_Source\PSoC5/USBUART_1.c ****         if (NULL != pData)
1867:.\Generated_Source\PSoC5/USBUART_1.c ****         {
1868:.\Generated_Source\PSoC5/USBUART_1.c ****             /* Convert uint8 array to uint16. */
1869:.\Generated_Source\PSoC5/USBUART_1.c ****             const uint16 *dataBuf = (uint16 *) pData;
1870:.\Generated_Source\PSoC5/USBUART_1.c **** 
1871:.\Generated_Source\PSoC5/USBUART_1.c ****             /* Copy data using 16-bits arbiter data register. */
1872:.\Generated_Source\PSoC5/USBUART_1.c ****             uint16 i;
1873:.\Generated_Source\PSoC5/USBUART_1.c ****             for (i = 0u; i < (length >> 1u); ++i)
1874:.\Generated_Source\PSoC5/USBUART_1.c ****             {
1875:.\Generated_Source\PSoC5/USBUART_1.c ****                 USBUART_1_ARB_EP16_BASE.arbEp[epNumber].rwDr16 = dataBuf[i];
1876:.\Generated_Source\PSoC5/USBUART_1.c ****             }
1877:.\Generated_Source\PSoC5/USBUART_1.c ****         }
1878:.\Generated_Source\PSoC5/USBUART_1.c **** 
1879:.\Generated_Source\PSoC5/USBUART_1.c ****         /* IN endpoint buffer is full - read to be read. */
1880:.\Generated_Source\PSoC5/USBUART_1.c ****         USBUART_1_EP[epNumber].apiEpState = USBUART_1_NO_EVENT_PENDING;
1881:.\Generated_Source\PSoC5/USBUART_1.c **** 
1882:.\Generated_Source\PSoC5/USBUART_1.c ****         /* Arm IN endpoint. */
1883:.\Generated_Source\PSoC5/USBUART_1.c ****         USBUART_1_SIE_EP_BASE.sieEp[epNumber].epCr0 = USBUART_1_EP[epNumber].epMode;
1884:.\Generated_Source\PSoC5/USBUART_1.c **** 
1885:.\Generated_Source\PSoC5/USBUART_1.c ****     #else
1886:.\Generated_Source\PSoC5/USBUART_1.c **** 
1887:.\Generated_Source\PSoC5/USBUART_1.c ****         #if (USBUART_1_EP_MANAGEMENT_DMA_MANUAL)
1888:.\Generated_Source\PSoC5/USBUART_1.c ****             /* IN endpoint buffer will be fully loaded by DMA shortly. */
1889:.\Generated_Source\PSoC5/USBUART_1.c ****             USBUART_1_EP[epNumber].apiEpState = USBUART_1_NO_EVENT_PENDING;
1890:.\Generated_Source\PSoC5/USBUART_1.c **** 
1891:.\Generated_Source\PSoC5/USBUART_1.c ****             if ((pData != NULL) && (length > 0u))
1892:.\Generated_Source\PSoC5/USBUART_1.c ****             {
1893:.\Generated_Source\PSoC5/USBUART_1.c ****                 uint32 channelNum = (uint32) USBUART_1_DmaChan[epNumber];
1894:.\Generated_Source\PSoC5/USBUART_1.c **** 
1895:.\Generated_Source\PSoC5/USBUART_1.c ****                 /* Disable DMA channel: start configuration. */
1896:.\Generated_Source\PSoC5/USBUART_1.c ****                 USBUART_1_CyDmaChDisable(channelNum);
ARM GAS  C:\Users\Thomas\AppData\Local\Temp\ccHSNeoG.s 			page 50


1897:.\Generated_Source\PSoC5/USBUART_1.c **** 
1898:.\Generated_Source\PSoC5/USBUART_1.c ****                 /* Configure source and destination. */
1899:.\Generated_Source\PSoC5/USBUART_1.c ****                 USBUART_1_CyDmaSetSrcAddress(channelNum, USBUART_1_DMA_DESCR0, (void*) pData);
1900:.\Generated_Source\PSoC5/USBUART_1.c ****                 USBUART_1_CyDmaSetDstAddress(channelNum, USBUART_1_DMA_DESCR0, (void*) &USBUART_1_A
1901:.\Generated_Source\PSoC5/USBUART_1.c **** 
1902:.\Generated_Source\PSoC5/USBUART_1.c ****                 /* Configure DMA descriptor. */
1903:.\Generated_Source\PSoC5/USBUART_1.c ****                 length = (length >> 1u) - 1u;
1904:.\Generated_Source\PSoC5/USBUART_1.c ****                 USBUART_1_CyDmaSetConfiguration(channelNum, USBUART_1_DMA_DESCR0, USBUART_1_DMA_COM
1905:.\Generated_Source\PSoC5/USBUART_1.c ****                                                         CYDMA_HALFWORD | CYDMA_ELEMENT_WORD | CYDMA
1906:.\Generated_Source\PSoC5/USBUART_1.c **** 
1907:.\Generated_Source\PSoC5/USBUART_1.c ****                 /* Validate descriptor to execute on following DMA request. */
1908:.\Generated_Source\PSoC5/USBUART_1.c ****                 USBUART_1_CyDmaValidateDescriptor(channelNum, USBUART_1_DMA_DESCR0);
1909:.\Generated_Source\PSoC5/USBUART_1.c **** 
1910:.\Generated_Source\PSoC5/USBUART_1.c ****                 /* Enable DMA channel: configuration complete. */
1911:.\Generated_Source\PSoC5/USBUART_1.c ****                 USBUART_1_CyDmaChEnable(channelNum);
1912:.\Generated_Source\PSoC5/USBUART_1.c **** 
1913:.\Generated_Source\PSoC5/USBUART_1.c ****                 /* Generate DMA request. */
1914:.\Generated_Source\PSoC5/USBUART_1.c ****                 USBUART_1_ARB_EP_BASE.arbEp[epNumber].epCfg |=  (uint32)  USBUART_1_ARB_EPX_CFG_DMA
1915:.\Generated_Source\PSoC5/USBUART_1.c ****                 USBUART_1_ARB_EP_BASE.arbEp[epNumber].epCfg &=  (uint32) ~USBUART_1_ARB_EPX_CFG_DMA
1916:.\Generated_Source\PSoC5/USBUART_1.c **** 
1917:.\Generated_Source\PSoC5/USBUART_1.c ****                 /* IN endpoint will be armed in ARB_ISR(source: IN_BUF_FULL) after first DMA transf
1918:.\Generated_Source\PSoC5/USBUART_1.c ****             }
1919:.\Generated_Source\PSoC5/USBUART_1.c ****             else
1920:.\Generated_Source\PSoC5/USBUART_1.c ****             {
1921:.\Generated_Source\PSoC5/USBUART_1.c ****                 /* When zero-length packet: arm IN endpoint directly. */
1922:.\Generated_Source\PSoC5/USBUART_1.c ****                 USBUART_1_SIE_EP_BASE.sieEp[epNumber].epCr0 = USBUART_1_EP[epNumber].epMode;
1923:.\Generated_Source\PSoC5/USBUART_1.c ****             }
1924:.\Generated_Source\PSoC5/USBUART_1.c ****         #endif /* (USBUART_1_EP_MANAGEMENT_DMA_MANUAL) */
1925:.\Generated_Source\PSoC5/USBUART_1.c **** 
1926:.\Generated_Source\PSoC5/USBUART_1.c ****         #if (USBUART_1_EP_MANAGEMENT_DMA_AUTO)
1927:.\Generated_Source\PSoC5/USBUART_1.c ****             if (pData != NULL)
1928:.\Generated_Source\PSoC5/USBUART_1.c ****             {
1929:.\Generated_Source\PSoC5/USBUART_1.c ****                 uint32 channelNum = (uint32) USBUART_1_DmaChan[epNumber];
1930:.\Generated_Source\PSoC5/USBUART_1.c **** 
1931:.\Generated_Source\PSoC5/USBUART_1.c ****                 /* Store address of buffer. */
1932:.\Generated_Source\PSoC5/USBUART_1.c ****                 USBUART_1_DmaEpBufferAddrBackup[epNumber] = (uint32) pData;
1933:.\Generated_Source\PSoC5/USBUART_1.c **** 
1934:.\Generated_Source\PSoC5/USBUART_1.c ****                 /* Disable DMA channel: start configuration. */
1935:.\Generated_Source\PSoC5/USBUART_1.c ****                 USBUART_1_CyDmaChDisable(channelNum);
1936:.\Generated_Source\PSoC5/USBUART_1.c **** 
1937:.\Generated_Source\PSoC5/USBUART_1.c ****                 /* Set destination address. */
1938:.\Generated_Source\PSoC5/USBUART_1.c ****                 USBUART_1_CyDmaSetDstAddress(channelNum, USBUART_1_DMA_DESCR0, (void*) &USBUART_1_A
1939:.\Generated_Source\PSoC5/USBUART_1.c ****                 USBUART_1_CyDmaSetDstAddress(channelNum, USBUART_1_DMA_DESCR1, (void*) &USBUART_1_A
1940:.\Generated_Source\PSoC5/USBUART_1.c **** 
1941:.\Generated_Source\PSoC5/USBUART_1.c ****                 /* Configure DMA descriptor. */
1942:.\Generated_Source\PSoC5/USBUART_1.c ****                 USBUART_1_CyDmaSetConfiguration(channelNum, USBUART_1_DMA_DESCR0, USBUART_1_DMA_COM
1943:.\Generated_Source\PSoC5/USBUART_1.c ****                                                         CYDMA_HALFWORD | CYDMA_ELEMENT_WORD | CYDMA
1944:.\Generated_Source\PSoC5/USBUART_1.c **** 
1945:.\Generated_Source\PSoC5/USBUART_1.c ****                 /* Configure DMA descriptor. */
1946:.\Generated_Source\PSoC5/USBUART_1.c ****                 USBUART_1_CyDmaSetConfiguration(channelNum, USBUART_1_DMA_DESCR1, USBUART_1_DMA_COM
1947:.\Generated_Source\PSoC5/USBUART_1.c ****                                                         CYDMA_HALFWORD | CYDMA_ELEMENT_WORD | CYDMA
1948:.\Generated_Source\PSoC5/USBUART_1.c **** 
1949:.\Generated_Source\PSoC5/USBUART_1.c ****                 /* Enable interrupt from DMA channel. */
1950:.\Generated_Source\PSoC5/USBUART_1.c ****                 USBUART_1_CyDmaSetInterruptMask(channelNum);
1951:.\Generated_Source\PSoC5/USBUART_1.c **** 
1952:.\Generated_Source\PSoC5/USBUART_1.c ****                 /* Validate descriptor 1. It will not be invalided during operation. */
1953:.\Generated_Source\PSoC5/USBUART_1.c ****                 USBUART_1_CyDmaValidateDescriptor(channelNum, USBUART_1_DMA_DESCR1);
ARM GAS  C:\Users\Thomas\AppData\Local\Temp\ccHSNeoG.s 			page 51


1954:.\Generated_Source\PSoC5/USBUART_1.c **** 
1955:.\Generated_Source\PSoC5/USBUART_1.c ****                 /* Enable DMA channel: configuration complete. */
1956:.\Generated_Source\PSoC5/USBUART_1.c ****                 USBUART_1_CyDmaChEnable(channelNum);
1957:.\Generated_Source\PSoC5/USBUART_1.c ****             }
1958:.\Generated_Source\PSoC5/USBUART_1.c ****             else
1959:.\Generated_Source\PSoC5/USBUART_1.c ****             {
1960:.\Generated_Source\PSoC5/USBUART_1.c ****                 /* IN endpoint buffer (32 bytes) will shortly be preloaded by DMA. */
1961:.\Generated_Source\PSoC5/USBUART_1.c ****                 USBUART_1_EP[epNumber].apiEpState = USBUART_1_NO_EVENT_PENDING;
1962:.\Generated_Source\PSoC5/USBUART_1.c **** 
1963:.\Generated_Source\PSoC5/USBUART_1.c ****                 if (length > 0u)
1964:.\Generated_Source\PSoC5/USBUART_1.c ****                 {
1965:.\Generated_Source\PSoC5/USBUART_1.c ****                     uint32 lengthDescr0, lengthDescr1;
1966:.\Generated_Source\PSoC5/USBUART_1.c ****                     uint32 channelNum = (uint32) USBUART_1_DmaChan[epNumber];
1967:.\Generated_Source\PSoC5/USBUART_1.c **** 
1968:.\Generated_Source\PSoC5/USBUART_1.c ****                     /* Get number of full bursts. */
1969:.\Generated_Source\PSoC5/USBUART_1.c ****                     USBUART_1_DmaEpBurstCnt[epNumber] = (uint8) (length / USBUART_1_DMA_BYTES_PER_B
1970:.\Generated_Source\PSoC5/USBUART_1.c **** 
1971:.\Generated_Source\PSoC5/USBUART_1.c ****                     /* Get number of elements in the last burst. */
1972:.\Generated_Source\PSoC5/USBUART_1.c ****                     USBUART_1_DmaEpLastBurstEl[epNumber] = (uint8) (length % USBUART_1_DMA_BYTES_PE
1973:.\Generated_Source\PSoC5/USBUART_1.c **** 
1974:.\Generated_Source\PSoC5/USBUART_1.c ****                     /* Get total number of bursts. */
1975:.\Generated_Source\PSoC5/USBUART_1.c ****                     USBUART_1_DmaEpBurstCnt[epNumber] += (0u != USBUART_1_DmaEpLastBurstEl[epNumber
1976:.\Generated_Source\PSoC5/USBUART_1.c **** 
1977:.\Generated_Source\PSoC5/USBUART_1.c ****                     /* Adjust number of data elements transferred in last burst. */
1978:.\Generated_Source\PSoC5/USBUART_1.c ****                     USBUART_1_DmaEpLastBurstEl[epNumber] = (0u != USBUART_1_DmaEpLastBurstEl[epNumb
1979:.\Generated_Source\PSoC5/USBUART_1.c ****                                                                           ((USBUART_1_DmaEpLastBurs
1980:.\Generated_Source\PSoC5/USBUART_1.c ****                                                                            (USBUART_1_DMA_HALFWORDS
1981:.\Generated_Source\PSoC5/USBUART_1.c **** 
1982:.\Generated_Source\PSoC5/USBUART_1.c ****                     /* Get number of data elements to transfer for descriptor 0 and 1. */
1983:.\Generated_Source\PSoC5/USBUART_1.c ****                     lengthDescr0 = (1u == USBUART_1_DmaEpBurstCnt[epNumber]) ? USBUART_1_DmaEpLastB
1984:.\Generated_Source\PSoC5/USBUART_1.c ****                     lengthDescr1 = (2u == USBUART_1_DmaEpBurstCnt[epNumber]) ? USBUART_1_DmaEpLastB
1985:.\Generated_Source\PSoC5/USBUART_1.c **** 
1986:.\Generated_Source\PSoC5/USBUART_1.c ****                     /* Mark which descriptor is last one to execute. */
1987:.\Generated_Source\PSoC5/USBUART_1.c ****                     USBUART_1_DmaEpLastBurstEl[epNumber] |= (0u != (USBUART_1_DmaEpBurstCnt[epNumbe
1988:.\Generated_Source\PSoC5/USBUART_1.c ****                                                                             USBUART_1_DMA_DESCR0_MA
1989:.\Generated_Source\PSoC5/USBUART_1.c **** 
1990:.\Generated_Source\PSoC5/USBUART_1.c ****                     /* Adjust burst counter taking to account: 2 valid descriptors and interrupt tr
1991:.\Generated_Source\PSoC5/USBUART_1.c ****                     USBUART_1_DmaEpBurstCnt[epNumber] = USBUART_1_DMA_GET_BURST_CNT(USBUART_1_DmaEp
1992:.\Generated_Source\PSoC5/USBUART_1.c **** 
1993:.\Generated_Source\PSoC5/USBUART_1.c ****                     /* Restore DMA settings for current transfer. */
1994:.\Generated_Source\PSoC5/USBUART_1.c ****                     USBUART_1_CyDmaChDisable(channelNum);
1995:.\Generated_Source\PSoC5/USBUART_1.c **** 
1996:.\Generated_Source\PSoC5/USBUART_1.c ****                     /* Restore destination address for input endpoint. */
1997:.\Generated_Source\PSoC5/USBUART_1.c ****                     USBUART_1_CyDmaSetSrcAddress(channelNum, USBUART_1_DMA_DESCR0, (void*) ((uint32
1998:.\Generated_Source\PSoC5/USBUART_1.c ****                     USBUART_1_CyDmaSetSrcAddress(channelNum, USBUART_1_DMA_DESCR1, (void*) ((uint32
1999:.\Generated_Source\PSoC5/USBUART_1.c ****                                                                                                    
2000:.\Generated_Source\PSoC5/USBUART_1.c **** 
2001:.\Generated_Source\PSoC5/USBUART_1.c ****                     /* Set number of elements to transfer. */
2002:.\Generated_Source\PSoC5/USBUART_1.c ****                     USBUART_1_CyDmaSetNumDataElements(channelNum, USBUART_1_DMA_DESCR0, lengthDescr
2003:.\Generated_Source\PSoC5/USBUART_1.c ****                     USBUART_1_CyDmaSetNumDataElements(channelNum, USBUART_1_DMA_DESCR1, lengthDescr
2004:.\Generated_Source\PSoC5/USBUART_1.c **** 
2005:.\Generated_Source\PSoC5/USBUART_1.c ****                     /* Validate descriptor 0 and command to start with it. */
2006:.\Generated_Source\PSoC5/USBUART_1.c ****                     USBUART_1_CyDmaValidateDescriptor(channelNum, USBUART_1_DMA_DESCR0);
2007:.\Generated_Source\PSoC5/USBUART_1.c ****                     USBUART_1_CyDmaSetDescriptor0Next(channelNum);
2008:.\Generated_Source\PSoC5/USBUART_1.c **** 
2009:.\Generated_Source\PSoC5/USBUART_1.c ****                     /* Enable DMA channel: configuration complete. */
2010:.\Generated_Source\PSoC5/USBUART_1.c ****                     USBUART_1_CyDmaChEnable(channelNum);
ARM GAS  C:\Users\Thomas\AppData\Local\Temp\ccHSNeoG.s 			page 52


2011:.\Generated_Source\PSoC5/USBUART_1.c **** 
2012:.\Generated_Source\PSoC5/USBUART_1.c ****                 #if !defined (USBUART_1_MANUAL_IN_EP_ARM)
2013:.\Generated_Source\PSoC5/USBUART_1.c ****                     /* Set IN data ready to generate DMA request to load data into endpoint buffer.
2014:.\Generated_Source\PSoC5/USBUART_1.c ****                     USBUART_1_ARB_EP_BASE.arbEp[epNumber].epCfg |= USBUART_1_ARB_EPX_CFG_IN_DATA_RD
2015:.\Generated_Source\PSoC5/USBUART_1.c ****                 #endif  /* (USBUART_1_MANUAL_IN_EP_ARM) */
2016:.\Generated_Source\PSoC5/USBUART_1.c **** 
2017:.\Generated_Source\PSoC5/USBUART_1.c ****                     /* IN endpoint will be armed in ARB_ISR(source: IN_BUF_FULL) after first DMA tr
2018:.\Generated_Source\PSoC5/USBUART_1.c ****                 }
2019:.\Generated_Source\PSoC5/USBUART_1.c ****                 else
2020:.\Generated_Source\PSoC5/USBUART_1.c ****                 {
2021:.\Generated_Source\PSoC5/USBUART_1.c ****                     /* When zero-length packet: arm IN endpoint directly. */
2022:.\Generated_Source\PSoC5/USBUART_1.c ****                     USBUART_1_SIE_EP_BASE.sieEp[epNumber].epCr0 = USBUART_1_EP[epNumber].epMode;
2023:.\Generated_Source\PSoC5/USBUART_1.c ****                 }
2024:.\Generated_Source\PSoC5/USBUART_1.c ****             }
2025:.\Generated_Source\PSoC5/USBUART_1.c ****         #endif /* (USBUART_1_EP_MANAGEMENT_DMA_AUTO) */
2026:.\Generated_Source\PSoC5/USBUART_1.c ****     #endif /* (USBUART_1_EP_MANAGEMENT_MANUAL) */
2027:.\Generated_Source\PSoC5/USBUART_1.c ****     }
2028:.\Generated_Source\PSoC5/USBUART_1.c **** }
2029:.\Generated_Source\PSoC5/USBUART_1.c **** 
2030:.\Generated_Source\PSoC5/USBUART_1.c **** 
2031:.\Generated_Source\PSoC5/USBUART_1.c **** /*******************************************************************************
2032:.\Generated_Source\PSoC5/USBUART_1.c **** * Function Name: USBUART_1_ReadOutEP16
2033:.\Generated_Source\PSoC5/USBUART_1.c **** ****************************************************************************//**
2034:.\Generated_Source\PSoC5/USBUART_1.c **** *
2035:.\Generated_Source\PSoC5/USBUART_1.c **** *   This function performs different functionality depending on the Component’s
2036:.\Generated_Source\PSoC5/USBUART_1.c **** *   configured Endpoint Buffer Management. This parameter is defined in the
2037:.\Generated_Source\PSoC5/USBUART_1.c **** *   Descriptor Root in Component Configure window.
2038:.\Generated_Source\PSoC5/USBUART_1.c **** *
2039:.\Generated_Source\PSoC5/USBUART_1.c **** *   *Manual (Static/Dynamic Allocation):*
2040:.\Generated_Source\PSoC5/USBUART_1.c **** *   This function moves the specified number of bytes from endpoint buffer to
2041:.\Generated_Source\PSoC5/USBUART_1.c **** *   system RAM. The number of bytes actually transferred from endpoint buffer to
2042:.\Generated_Source\PSoC5/USBUART_1.c **** *   system RAM is the lesser of the actual number of bytes sent by the host or
2043:.\Generated_Source\PSoC5/USBUART_1.c **** *   the number of bytes requested by the length parameter.
2044:.\Generated_Source\PSoC5/USBUART_1.c **** *
2045:.\Generated_Source\PSoC5/USBUART_1.c **** *   *DMA with Manual Buffer Management:*
2046:.\Generated_Source\PSoC5/USBUART_1.c **** *   Configure DMA to transfer data from endpoint buffer to system RAM. Generate
2047:.\Generated_Source\PSoC5/USBUART_1.c **** *   a DMA request. The firmware must wait until the DMA completes the data
2048:.\Generated_Source\PSoC5/USBUART_1.c **** *   transfer after calling the USBUART_1_ReadOutEP() API. For example,
2049:.\Generated_Source\PSoC5/USBUART_1.c **** *   by checking EPstate:
2050:.\Generated_Source\PSoC5/USBUART_1.c **** *
2051:.\Generated_Source\PSoC5/USBUART_1.c **** *   \snippet /USBFS_sut_02.cydsn/main.c checking EPstatey
2052:.\Generated_Source\PSoC5/USBUART_1.c **** *
2053:.\Generated_Source\PSoC5/USBUART_1.c **** *   The USBFS_EnableOutEP() has to be called to allow host to write data into
2054:.\Generated_Source\PSoC5/USBUART_1.c **** *   the endpoint buffer after DMA has completed transfer data from OUT endpoint
2055:.\Generated_Source\PSoC5/USBUART_1.c **** *   buffer to SRAM.
2056:.\Generated_Source\PSoC5/USBUART_1.c **** *
2057:.\Generated_Source\PSoC5/USBUART_1.c **** *   *DMA with Automatic Buffer Management:*
2058:.\Generated_Source\PSoC5/USBUART_1.c **** *   Configure DMA. This is required only once and automatically generates DMA
2059:.\Generated_Source\PSoC5/USBUART_1.c **** *   requests as data arrives
2060:.\Generated_Source\PSoC5/USBUART_1.c **** *
2061:.\Generated_Source\PSoC5/USBUART_1.c **** *  \param epNumber: Contains the data endpoint number.
2062:.\Generated_Source\PSoC5/USBUART_1.c **** *         Valid values are between 1 and 8.
2063:.\Generated_Source\PSoC5/USBUART_1.c **** *  \param pData: A pointer to a data array into which the data for the endpoint
2064:.\Generated_Source\PSoC5/USBUART_1.c **** *         space is copied. It shall be ensured that this pointer address is
2065:.\Generated_Source\PSoC5/USBUART_1.c **** *         even to ensure the 16-bit transfer is aligned to even address. Else,
2066:.\Generated_Source\PSoC5/USBUART_1.c **** *         a hard fault condition can occur.
2067:.\Generated_Source\PSoC5/USBUART_1.c **** *  \param length: The number of bytes to transfer from the USB Out endpoint and
ARM GAS  C:\Users\Thomas\AppData\Local\Temp\ccHSNeoG.s 			page 53


2068:.\Generated_Source\PSoC5/USBUART_1.c **** *         loads it into data array. Valid values are between 0 and 1023. The
2069:.\Generated_Source\PSoC5/USBUART_1.c **** *         function moves fewer than the requested number of bytes if the host
2070:.\Generated_Source\PSoC5/USBUART_1.c **** *         sends fewer bytes than requested.
2071:.\Generated_Source\PSoC5/USBUART_1.c **** *
2072:.\Generated_Source\PSoC5/USBUART_1.c **** * \return
2073:.\Generated_Source\PSoC5/USBUART_1.c **** *  Number of bytes received, 0 for an invalid endpoint.
2074:.\Generated_Source\PSoC5/USBUART_1.c **** *
2075:.\Generated_Source\PSoC5/USBUART_1.c **** * \reentrant
2076:.\Generated_Source\PSoC5/USBUART_1.c **** *  No.
2077:.\Generated_Source\PSoC5/USBUART_1.c **** *
2078:.\Generated_Source\PSoC5/USBUART_1.c **** *******************************************************************************/
2079:.\Generated_Source\PSoC5/USBUART_1.c **** uint16 USBUART_1_ReadOutEP16(uint8 epNumber, uint8 pData[], uint16 length)
2080:.\Generated_Source\PSoC5/USBUART_1.c **** {
2081:.\Generated_Source\PSoC5/USBUART_1.c ****     uint32 adjLength;
2082:.\Generated_Source\PSoC5/USBUART_1.c **** 
2083:.\Generated_Source\PSoC5/USBUART_1.c ****     /* Check array alignment on half-word boundary */
2084:.\Generated_Source\PSoC5/USBUART_1.c ****     CYASSERT(0u == (((uint32) pData) & 0x01u));
2085:.\Generated_Source\PSoC5/USBUART_1.c **** 
2086:.\Generated_Source\PSoC5/USBUART_1.c ****     if ((pData != NULL) && (epNumber > USBUART_1_EP0) && (epNumber < USBUART_1_MAX_EP))
2087:.\Generated_Source\PSoC5/USBUART_1.c ****     {
2088:.\Generated_Source\PSoC5/USBUART_1.c ****     #if (!USBUART_1_EP_MANAGEMENT_DMA_AUTO)
2089:.\Generated_Source\PSoC5/USBUART_1.c ****         /* Adjust requested length to available data. */
2090:.\Generated_Source\PSoC5/USBUART_1.c ****         length = (length > USBUART_1_GetEPCount(epNumber)) ? USBUART_1_GetEPCount(epNumber) : lengt
2091:.\Generated_Source\PSoC5/USBUART_1.c ****     #endif /* (!USBUART_1_EP_MANAGEMENT_DMA_AUTO) */
2092:.\Generated_Source\PSoC5/USBUART_1.c **** 
2093:.\Generated_Source\PSoC5/USBUART_1.c ****     /* Adjust requested length: 2 bytes are handled at one data register access. */
2094:.\Generated_Source\PSoC5/USBUART_1.c ****     adjLength =  length + ((uint32)length & 1u);
2095:.\Generated_Source\PSoC5/USBUART_1.c **** 
2096:.\Generated_Source\PSoC5/USBUART_1.c ****     #if (USBUART_1_EP_MANAGEMENT_MANUAL)
2097:.\Generated_Source\PSoC5/USBUART_1.c ****         {
2098:.\Generated_Source\PSoC5/USBUART_1.c ****             /* Convert uint8 array to uint16. */
2099:.\Generated_Source\PSoC5/USBUART_1.c ****             uint16 *dataBuf = (uint16 *) pData;
2100:.\Generated_Source\PSoC5/USBUART_1.c **** 
2101:.\Generated_Source\PSoC5/USBUART_1.c ****             /* Copy data using 16-bits arbiter data register. */
2102:.\Generated_Source\PSoC5/USBUART_1.c ****             uint16 i;
2103:.\Generated_Source\PSoC5/USBUART_1.c ****             for (i = 0u; i < (adjLength >> 1u); ++i)
2104:.\Generated_Source\PSoC5/USBUART_1.c ****             {
2105:.\Generated_Source\PSoC5/USBUART_1.c ****                 dataBuf[i] = (uint16) USBUART_1_ARB_EP16_BASE.arbEp[epNumber].rwDr16;
2106:.\Generated_Source\PSoC5/USBUART_1.c ****             }
2107:.\Generated_Source\PSoC5/USBUART_1.c ****         }
2108:.\Generated_Source\PSoC5/USBUART_1.c **** 
2109:.\Generated_Source\PSoC5/USBUART_1.c ****         /* Arm OUT endpoint after data has been read from endpoint buffer. */
2110:.\Generated_Source\PSoC5/USBUART_1.c ****         USBUART_1_EnableOutEP(epNumber);
2111:.\Generated_Source\PSoC5/USBUART_1.c ****     #else
2112:.\Generated_Source\PSoC5/USBUART_1.c **** 
2113:.\Generated_Source\PSoC5/USBUART_1.c ****         #if (USBUART_1_EP_MANAGEMENT_DMA_MANUAL)
2114:.\Generated_Source\PSoC5/USBUART_1.c ****         {
2115:.\Generated_Source\PSoC5/USBUART_1.c ****             uint32 channelNum = (uint32) USBUART_1_DmaChan[epNumber];
2116:.\Generated_Source\PSoC5/USBUART_1.c **** 
2117:.\Generated_Source\PSoC5/USBUART_1.c ****             /* Disable DMA channel: start configuration. */
2118:.\Generated_Source\PSoC5/USBUART_1.c ****             USBUART_1_CyDmaChDisable(channelNum);
2119:.\Generated_Source\PSoC5/USBUART_1.c **** 
2120:.\Generated_Source\PSoC5/USBUART_1.c ****             /* Configure source and destination. */
2121:.\Generated_Source\PSoC5/USBUART_1.c ****             USBUART_1_CyDmaSetSrcAddress(channelNum, USBUART_1_DMA_DESCR0, (void*) &USBUART_1_ARB_E
2122:.\Generated_Source\PSoC5/USBUART_1.c ****             USBUART_1_CyDmaSetDstAddress(channelNum, USBUART_1_DMA_DESCR0, (void*) pData);
2123:.\Generated_Source\PSoC5/USBUART_1.c **** 
2124:.\Generated_Source\PSoC5/USBUART_1.c ****             /* Configure DMA descriptor. */
ARM GAS  C:\Users\Thomas\AppData\Local\Temp\ccHSNeoG.s 			page 54


2125:.\Generated_Source\PSoC5/USBUART_1.c ****             USBUART_1_CyDmaSetConfiguration(channelNum, USBUART_1_DMA_DESCR0, USBUART_1_DMA_COMMON_
2126:.\Generated_Source\PSoC5/USBUART_1.c ****                                                     CYDMA_HALFWORD | CYDMA_WORD_ELEMENT | CYDMA_INC
2127:.\Generated_Source\PSoC5/USBUART_1.c **** 
2128:.\Generated_Source\PSoC5/USBUART_1.c ****             /* Validate descriptor to execute on following DMA request. */
2129:.\Generated_Source\PSoC5/USBUART_1.c ****             USBUART_1_CyDmaValidateDescriptor(channelNum, USBUART_1_DMA_DESCR0);
2130:.\Generated_Source\PSoC5/USBUART_1.c **** 
2131:.\Generated_Source\PSoC5/USBUART_1.c ****             /* Enable DMA channel: configuration complete. */
2132:.\Generated_Source\PSoC5/USBUART_1.c ****             USBUART_1_CyDmaChEnable(channelNum);
2133:.\Generated_Source\PSoC5/USBUART_1.c **** 
2134:.\Generated_Source\PSoC5/USBUART_1.c ****             /* Generate DMA request. */
2135:.\Generated_Source\PSoC5/USBUART_1.c ****             USBUART_1_ARB_EP_BASE.arbEp[epNumber].epCfg |=  (uint32)  USBUART_1_ARB_EPX_CFG_DMA_REQ
2136:.\Generated_Source\PSoC5/USBUART_1.c ****             USBUART_1_ARB_EP_BASE.arbEp[epNumber].epCfg &=  (uint32) ~USBUART_1_ARB_EPX_CFG_DMA_REQ
2137:.\Generated_Source\PSoC5/USBUART_1.c **** 
2138:.\Generated_Source\PSoC5/USBUART_1.c ****             /* OUT endpoint has to be armed again by user when DMA transfers have been completed.
2139:.\Generated_Source\PSoC5/USBUART_1.c ****             * NO_EVENT_PENDING: notifies that data has been copied from endpoint buffer.
2140:.\Generated_Source\PSoC5/USBUART_1.c ****             */
2141:.\Generated_Source\PSoC5/USBUART_1.c ****         }
2142:.\Generated_Source\PSoC5/USBUART_1.c ****         #endif /* (USBUART_1_EP_MANAGEMENT_DMA_MANUAL) */
2143:.\Generated_Source\PSoC5/USBUART_1.c **** 
2144:.\Generated_Source\PSoC5/USBUART_1.c ****         #if (USBUART_1_EP_MANAGEMENT_DMA_AUTO)
2145:.\Generated_Source\PSoC5/USBUART_1.c ****         {
2146:.\Generated_Source\PSoC5/USBUART_1.c ****             uint32 lengthDescr0, lengthDescr1;
2147:.\Generated_Source\PSoC5/USBUART_1.c ****             uint32 channelNum = (uint32) USBUART_1_DmaChan[epNumber];
2148:.\Generated_Source\PSoC5/USBUART_1.c **** 
2149:.\Generated_Source\PSoC5/USBUART_1.c ****             /* Get number of full bursts. */
2150:.\Generated_Source\PSoC5/USBUART_1.c ****             USBUART_1_DmaEpBurstCnt[epNumber] = (uint8) (adjLength / USBUART_1_DMA_BYTES_PER_BURST)
2151:.\Generated_Source\PSoC5/USBUART_1.c **** 
2152:.\Generated_Source\PSoC5/USBUART_1.c ****             /* Get number of elements in last burst. */
2153:.\Generated_Source\PSoC5/USBUART_1.c ****             USBUART_1_DmaEpLastBurstEl[epNumber] = (uint8) (adjLength % USBUART_1_DMA_BYTES_PER_BUR
2154:.\Generated_Source\PSoC5/USBUART_1.c **** 
2155:.\Generated_Source\PSoC5/USBUART_1.c ****             /* Get total number of bursts. */
2156:.\Generated_Source\PSoC5/USBUART_1.c ****             USBUART_1_DmaEpBurstCnt[epNumber] += (0u != USBUART_1_DmaEpLastBurstEl[epNumber]) ? 1u 
2157:.\Generated_Source\PSoC5/USBUART_1.c **** 
2158:.\Generated_Source\PSoC5/USBUART_1.c ****             /* Adjust number of data elements transferred in last burst. */
2159:.\Generated_Source\PSoC5/USBUART_1.c ****             USBUART_1_DmaEpLastBurstEl[epNumber] = (0u != USBUART_1_DmaEpLastBurstEl[epNumber]) ?
2160:.\Generated_Source\PSoC5/USBUART_1.c ****                                                                   ((USBUART_1_DmaEpLastBurstEl[epNu
2161:.\Generated_Source\PSoC5/USBUART_1.c ****                                                                    (USBUART_1_DMA_HALFWORDS_PER_BUR
2162:.\Generated_Source\PSoC5/USBUART_1.c **** 
2163:.\Generated_Source\PSoC5/USBUART_1.c ****             /* Get number of data elements to transfer for descriptor 0 and 1. */
2164:.\Generated_Source\PSoC5/USBUART_1.c ****             lengthDescr0 = (1u == USBUART_1_DmaEpBurstCnt[epNumber]) ? USBUART_1_DmaEpLastBurstEl[e
2165:.\Generated_Source\PSoC5/USBUART_1.c ****             lengthDescr1 = (2u == USBUART_1_DmaEpBurstCnt[epNumber]) ? USBUART_1_DmaEpLastBurstEl[e
2166:.\Generated_Source\PSoC5/USBUART_1.c **** 
2167:.\Generated_Source\PSoC5/USBUART_1.c ****             /* Mark last descriptor to be executed. */
2168:.\Generated_Source\PSoC5/USBUART_1.c ****             USBUART_1_DmaEpLastBurstEl[epNumber] |= (0u != (USBUART_1_DmaEpBurstCnt[epNumber] & 0x1
2169:.\Generated_Source\PSoC5/USBUART_1.c ****                                                                     USBUART_1_DMA_DESCR0_MASK : USB
2170:.\Generated_Source\PSoC5/USBUART_1.c **** 
2171:.\Generated_Source\PSoC5/USBUART_1.c ****             /* Mark if revert number of data elements in descriptor after transfer completion. */
2172:.\Generated_Source\PSoC5/USBUART_1.c ****             USBUART_1_DmaEpLastBurstEl[epNumber] |= (USBUART_1_DmaEpBurstCnt[epNumber] > 2u) ? USBU
2173:.\Generated_Source\PSoC5/USBUART_1.c **** 
2174:.\Generated_Source\PSoC5/USBUART_1.c ****             /* Mark that 16-bits access to data register is performed. */
2175:.\Generated_Source\PSoC5/USBUART_1.c ****             USBUART_1_DmaEpLastBurstEl[epNumber] |= USBUART_1_DMA_DESCR_16BITS;
2176:.\Generated_Source\PSoC5/USBUART_1.c **** 
2177:.\Generated_Source\PSoC5/USBUART_1.c ****             /* Adjust burst counter taking to account: 2 valid descriptors and interrupt trigger af
2178:.\Generated_Source\PSoC5/USBUART_1.c ****             USBUART_1_DmaEpBurstCnt[epNumber] = USBUART_1_DMA_GET_BURST_CNT(USBUART_1_DmaEpBurstCnt
2179:.\Generated_Source\PSoC5/USBUART_1.c **** 
2180:.\Generated_Source\PSoC5/USBUART_1.c ****             /* Store address of buffer and burst counter for endpoint. */
2181:.\Generated_Source\PSoC5/USBUART_1.c ****             USBUART_1_DmaEpBufferAddrBackup[epNumber] = (uint32) pData;
ARM GAS  C:\Users\Thomas\AppData\Local\Temp\ccHSNeoG.s 			page 55


2182:.\Generated_Source\PSoC5/USBUART_1.c ****             USBUART_1_DmaEpBurstCntBackup[epNumber]   = USBUART_1_DmaEpBurstCnt[epNumber];
2183:.\Generated_Source\PSoC5/USBUART_1.c **** 
2184:.\Generated_Source\PSoC5/USBUART_1.c ****             /* Disable DMA channel: start configuration. */
2185:.\Generated_Source\PSoC5/USBUART_1.c ****             USBUART_1_CyDmaChDisable(channelNum);
2186:.\Generated_Source\PSoC5/USBUART_1.c **** 
2187:.\Generated_Source\PSoC5/USBUART_1.c ****             /* Set destination address. */
2188:.\Generated_Source\PSoC5/USBUART_1.c ****             USBUART_1_CyDmaSetSrcAddress(channelNum, USBUART_1_DMA_DESCR0, (void*) &USBUART_1_ARB_E
2189:.\Generated_Source\PSoC5/USBUART_1.c ****             USBUART_1_CyDmaSetSrcAddress(channelNum, USBUART_1_DMA_DESCR1, (void*) &USBUART_1_ARB_E
2190:.\Generated_Source\PSoC5/USBUART_1.c **** 
2191:.\Generated_Source\PSoC5/USBUART_1.c ****             USBUART_1_CyDmaSetDstAddress(channelNum, USBUART_1_DMA_DESCR0, (void*) ((uint32) pData)
2192:.\Generated_Source\PSoC5/USBUART_1.c ****             USBUART_1_CyDmaSetDstAddress(channelNum, USBUART_1_DMA_DESCR1, (void*) ((uint32) pData 
2193:.\Generated_Source\PSoC5/USBUART_1.c **** 
2194:.\Generated_Source\PSoC5/USBUART_1.c ****             /* Configure DMA descriptor 0. */
2195:.\Generated_Source\PSoC5/USBUART_1.c ****             USBUART_1_CyDmaSetConfiguration(channelNum, USBUART_1_DMA_DESCR0, USBUART_1_DMA_COMMON_
2196:.\Generated_Source\PSoC5/USBUART_1.c ****                                                     CYDMA_HALFWORD | CYDMA_WORD_ELEMENT | CYDMA_INC
2197:.\Generated_Source\PSoC5/USBUART_1.c **** 
2198:.\Generated_Source\PSoC5/USBUART_1.c ****             /* Configure DMA descriptor 1. */
2199:.\Generated_Source\PSoC5/USBUART_1.c ****             USBUART_1_CyDmaSetConfiguration(channelNum, USBUART_1_DMA_DESCR1, USBUART_1_DMA_COMMON_
2200:.\Generated_Source\PSoC5/USBUART_1.c ****                                                     CYDMA_HALFWORD | CYDMA_WORD_ELEMENT | CYDMA_INC
2201:.\Generated_Source\PSoC5/USBUART_1.c **** 
2202:.\Generated_Source\PSoC5/USBUART_1.c ****             /* Enable interrupt from DMA channel. */
2203:.\Generated_Source\PSoC5/USBUART_1.c ****             USBUART_1_CyDmaSetInterruptMask(channelNum);
2204:.\Generated_Source\PSoC5/USBUART_1.c **** 
2205:.\Generated_Source\PSoC5/USBUART_1.c ****             /* Validate DMA descriptor 0 and 1. */
2206:.\Generated_Source\PSoC5/USBUART_1.c ****             USBUART_1_CyDmaValidateDescriptor(channelNum, USBUART_1_DMA_DESCR0);
2207:.\Generated_Source\PSoC5/USBUART_1.c ****             USBUART_1_CyDmaValidateDescriptor(channelNum, USBUART_1_DMA_DESCR1);
2208:.\Generated_Source\PSoC5/USBUART_1.c **** 
2209:.\Generated_Source\PSoC5/USBUART_1.c ****             /* Enable DMA channel: configuration complete. */
2210:.\Generated_Source\PSoC5/USBUART_1.c ****             USBUART_1_CyDmaChEnable(channelNum);
2211:.\Generated_Source\PSoC5/USBUART_1.c **** 
2212:.\Generated_Source\PSoC5/USBUART_1.c ****             /* OUT endpoint has to be armed again by user when DMA transfers have been completed.
2213:.\Generated_Source\PSoC5/USBUART_1.c ****             * NO_EVENT_PENDING: notifies that data has been copied from endpoint buffer.
2214:.\Generated_Source\PSoC5/USBUART_1.c ****             */
2215:.\Generated_Source\PSoC5/USBUART_1.c ****         }
2216:.\Generated_Source\PSoC5/USBUART_1.c ****         #endif /* (USBUART_1_EP_MANAGEMENT_DMA_AUTO) */
2217:.\Generated_Source\PSoC5/USBUART_1.c ****     #endif /* (USBUART_1_EP_MANAGEMENT_MANUAL) */
2218:.\Generated_Source\PSoC5/USBUART_1.c ****     }
2219:.\Generated_Source\PSoC5/USBUART_1.c ****     else
2220:.\Generated_Source\PSoC5/USBUART_1.c ****     {
2221:.\Generated_Source\PSoC5/USBUART_1.c ****         length = 0u;
2222:.\Generated_Source\PSoC5/USBUART_1.c ****     }
2223:.\Generated_Source\PSoC5/USBUART_1.c **** 
2224:.\Generated_Source\PSoC5/USBUART_1.c ****     return (length);
2225:.\Generated_Source\PSoC5/USBUART_1.c **** }
2226:.\Generated_Source\PSoC5/USBUART_1.c **** #endif /* (USBUART_1_16BITS_EP_ACCESS_ENABLE) */
2227:.\Generated_Source\PSoC5/USBUART_1.c **** 
2228:.\Generated_Source\PSoC5/USBUART_1.c **** 
2229:.\Generated_Source\PSoC5/USBUART_1.c **** /*******************************************************************************
2230:.\Generated_Source\PSoC5/USBUART_1.c **** * Function Name: USBUART_1_EnableOutEP
2231:.\Generated_Source\PSoC5/USBUART_1.c **** ****************************************************************************//**
2232:.\Generated_Source\PSoC5/USBUART_1.c **** *
2233:.\Generated_Source\PSoC5/USBUART_1.c **** *  This function enables the specified endpoint for OUT transfers. Do not call
2234:.\Generated_Source\PSoC5/USBUART_1.c **** *  this function for IN endpoints.
2235:.\Generated_Source\PSoC5/USBUART_1.c **** *
2236:.\Generated_Source\PSoC5/USBUART_1.c **** *  \param epNumber: Contains the data endpoint number. Valid values are between
2237:.\Generated_Source\PSoC5/USBUART_1.c **** *  1 and 8.
2238:.\Generated_Source\PSoC5/USBUART_1.c **** *
ARM GAS  C:\Users\Thomas\AppData\Local\Temp\ccHSNeoG.s 			page 56


2239:.\Generated_Source\PSoC5/USBUART_1.c **** * \globalvars
2240:.\Generated_Source\PSoC5/USBUART_1.c **** *
2241:.\Generated_Source\PSoC5/USBUART_1.c **** *  \ref USBUART_1_EP[epNumber].apiEpState - set to NO_EVENT_PENDING
2242:.\Generated_Source\PSoC5/USBUART_1.c **** *
2243:.\Generated_Source\PSoC5/USBUART_1.c **** * \reentrant
2244:.\Generated_Source\PSoC5/USBUART_1.c **** *  No.
2245:.\Generated_Source\PSoC5/USBUART_1.c **** *
2246:.\Generated_Source\PSoC5/USBUART_1.c **** *******************************************************************************/
2247:.\Generated_Source\PSoC5/USBUART_1.c **** void USBUART_1_EnableOutEP(uint8 epNumber) 
2248:.\Generated_Source\PSoC5/USBUART_1.c **** {
 888              		.loc 1 2248 0
 889              		.cfi_startproc
 890              		@ args = 0, pretend = 0, frame = 0
 891              		@ frame_needed = 0, uses_anonymous_args = 0
 892              		@ link register save eliminated.
 893              	.LVL59:
2249:.\Generated_Source\PSoC5/USBUART_1.c ****     if ((epNumber > USBUART_1_EP0) && (epNumber < USBUART_1_MAX_EP))
 894              		.loc 1 2249 0
 895 0000 431E     		subs	r3, r0, #1
 896 0002 DBB2     		uxtb	r3, r3
 897 0004 072B     		cmp	r3, #7
 898 0006 0BD8     		bhi	.L61
2250:.\Generated_Source\PSoC5/USBUART_1.c ****     {
2251:.\Generated_Source\PSoC5/USBUART_1.c ****         USBUART_1_EP[epNumber].apiEpState = USBUART_1_NO_EVENT_PENDING;
 899              		.loc 1 2251 0
 900 0008 4300     		lsls	r3, r0, #1
 901 000a 0344     		add	r3, r3, r0
 902 000c 9B00     		lsls	r3, r3, #2
 903 000e 054A     		ldr	r2, .L63
 904 0010 1344     		add	r3, r3, r2
 905 0012 0022     		movs	r2, #0
 906 0014 5A70     		strb	r2, [r3, #1]
2252:.\Generated_Source\PSoC5/USBUART_1.c **** 
2253:.\Generated_Source\PSoC5/USBUART_1.c ****         /* Enable OUT endpoint to be written by Host. */
2254:.\Generated_Source\PSoC5/USBUART_1.c ****         USBUART_1_SIE_EP_BASE.sieEp[epNumber].epCr0 = USBUART_1_EP[epNumber].epMode;
 907              		.loc 1 2254 0
 908 0016 5A79     		ldrb	r2, [r3, #5]	@ zero_extendqisi2
 909 0018 D2B2     		uxtb	r2, r2
 910 001a 0001     		lsls	r0, r0, #4
 911              	.LVL60:
 912 001c 024B     		ldr	r3, .L63+4
 913 001e 1A54     		strb	r2, [r3, r0]
 914              	.L61:
 915 0020 7047     		bx	lr
 916              	.L64:
 917 0022 00BF     		.align	2
 918              	.L63:
 919 0024 00000000 		.word	USBUART_1_EP
 920 0028 FE5F0040 		.word	1073766398
 921              		.cfi_endproc
 922              	.LFE13:
 923              		.size	USBUART_1_EnableOutEP, .-USBUART_1_EnableOutEP
 924              		.section	.text.USBUART_1_ReadOutEP,"ax",%progbits
 925              		.align	2
 926              		.global	USBUART_1_ReadOutEP
 927              		.thumb
 928              		.thumb_func
ARM GAS  C:\Users\Thomas\AppData\Local\Temp\ccHSNeoG.s 			page 57


 929              		.type	USBUART_1_ReadOutEP, %function
 930              	USBUART_1_ReadOutEP:
 931              	.LFB12:
1637:.\Generated_Source\PSoC5/USBUART_1.c ****     if ((pData != NULL) && (epNumber > USBUART_1_EP0) && (epNumber < USBUART_1_MAX_EP))
 932              		.loc 1 1637 0
 933              		.cfi_startproc
 934              		@ args = 0, pretend = 0, frame = 0
 935              		@ frame_needed = 0, uses_anonymous_args = 0
 936              	.LVL61:
 937 0000 70B5     		push	{r4, r5, r6, lr}
 938              		.cfi_def_cfa_offset 16
 939              		.cfi_offset 4, -16
 940              		.cfi_offset 5, -12
 941              		.cfi_offset 6, -8
 942              		.cfi_offset 14, -4
1638:.\Generated_Source\PSoC5/USBUART_1.c ****     {
 943              		.loc 1 1638 0
 944 0002 D9B1     		cbz	r1, .L70
 945 0004 0546     		mov	r5, r0
 946 0006 1446     		mov	r4, r2
 947 0008 0E46     		mov	r6, r1
1638:.\Generated_Source\PSoC5/USBUART_1.c ****     {
 948              		.loc 1 1638 0 is_stmt 0 discriminator 1
 949 000a C8B1     		cbz	r0, .L71
1638:.\Generated_Source\PSoC5/USBUART_1.c ****     {
 950              		.loc 1 1638 0 discriminator 2
 951 000c 0828     		cmp	r0, #8
 952 000e 19D8     		bhi	.L72
1642:.\Generated_Source\PSoC5/USBUART_1.c ****     #endif /* (!USBUART_1_EP_MANAGEMENT_DMA_AUTO) */
 953              		.loc 1 1642 0 is_stmt 1
 954 0010 FFF7FEFF 		bl	USBUART_1_GetEPCount
 955              	.LVL62:
 956 0014 A042     		cmp	r0, r4
 957 0016 03D2     		bcs	.L67
1642:.\Generated_Source\PSoC5/USBUART_1.c ****     #endif /* (!USBUART_1_EP_MANAGEMENT_DMA_AUTO) */
 958              		.loc 1 1642 0 is_stmt 0 discriminator 1
 959 0018 2846     		mov	r0, r5
 960 001a FFF7FEFF 		bl	USBUART_1_GetEPCount
 961              	.LVL63:
 962 001e 0446     		mov	r4, r0
 963              	.L67:
 964              	.LVL64:
 965              	.LBB4:
1649:.\Generated_Source\PSoC5/USBUART_1.c ****             {
 966              		.loc 1 1649 0 is_stmt 1 discriminator 4
 967 0020 0023     		movs	r3, #0
 968 0022 05E0     		b	.L68
 969              	.LVL65:
 970              	.L69:
1651:.\Generated_Source\PSoC5/USBUART_1.c ****             }
 971              		.loc 1 1651 0 discriminator 3
 972 0024 2901     		lsls	r1, r5, #4
 973 0026 094A     		ldr	r2, .L74
 974 0028 525C     		ldrb	r2, [r2, r1]	@ zero_extendqisi2
 975 002a F254     		strb	r2, [r6, r3]
1649:.\Generated_Source\PSoC5/USBUART_1.c ****             {
 976              		.loc 1 1649 0 discriminator 3
ARM GAS  C:\Users\Thomas\AppData\Local\Temp\ccHSNeoG.s 			page 58


 977 002c 0133     		adds	r3, r3, #1
 978              	.LVL66:
 979 002e 9BB2     		uxth	r3, r3
 980              	.LVL67:
 981              	.L68:
1649:.\Generated_Source\PSoC5/USBUART_1.c ****             {
 982              		.loc 1 1649 0 is_stmt 0 discriminator 1
 983 0030 A342     		cmp	r3, r4
 984 0032 F7D3     		bcc	.L69
 985              	.LBE4:
1656:.\Generated_Source\PSoC5/USBUART_1.c ****     #else
 986              		.loc 1 1656 0 is_stmt 1
 987 0034 2846     		mov	r0, r5
 988 0036 FFF7FEFF 		bl	USBUART_1_EnableOutEP
 989              	.LVL68:
 990 003a 04E0     		b	.L66
 991              	.LVL69:
 992              	.L70:
1798:.\Generated_Source\PSoC5/USBUART_1.c ****     }
 993              		.loc 1 1798 0
 994 003c 0024     		movs	r4, #0
 995 003e 02E0     		b	.L66
 996              	.L71:
 997 0040 0024     		movs	r4, #0
 998 0042 00E0     		b	.L66
 999              	.L72:
 1000 0044 0024     		movs	r4, #0
 1001              	.LVL70:
 1002              	.L66:
1802:.\Generated_Source\PSoC5/USBUART_1.c **** 
 1003              		.loc 1 1802 0
 1004 0046 2046     		mov	r0, r4
 1005 0048 70BD     		pop	{r4, r5, r6, pc}
 1006              	.LVL71:
 1007              	.L75:
 1008 004a 00BF     		.align	2
 1009              	.L74:
 1010 004c 78600040 		.word	1073766520
 1011              		.cfi_endproc
 1012              	.LFE12:
 1013              		.size	USBUART_1_ReadOutEP, .-USBUART_1_ReadOutEP
 1014              		.section	.text.USBUART_1_DisableOutEP,"ax",%progbits
 1015              		.align	2
 1016              		.global	USBUART_1_DisableOutEP
 1017              		.thumb
 1018              		.thumb_func
 1019              		.type	USBUART_1_DisableOutEP, %function
 1020              	USBUART_1_DisableOutEP:
 1021              	.LFB14:
2255:.\Generated_Source\PSoC5/USBUART_1.c ****         
2256:.\Generated_Source\PSoC5/USBUART_1.c ****     }
2257:.\Generated_Source\PSoC5/USBUART_1.c **** }
2258:.\Generated_Source\PSoC5/USBUART_1.c **** 
2259:.\Generated_Source\PSoC5/USBUART_1.c **** 
2260:.\Generated_Source\PSoC5/USBUART_1.c **** /*******************************************************************************
2261:.\Generated_Source\PSoC5/USBUART_1.c **** * Function Name: USBUART_1_DisableOutEP
2262:.\Generated_Source\PSoC5/USBUART_1.c **** ****************************************************************************//**
ARM GAS  C:\Users\Thomas\AppData\Local\Temp\ccHSNeoG.s 			page 59


2263:.\Generated_Source\PSoC5/USBUART_1.c **** *
2264:.\Generated_Source\PSoC5/USBUART_1.c **** *  This function disables the specified USBFS OUT endpoint. Do not call this
2265:.\Generated_Source\PSoC5/USBUART_1.c **** *  function for IN endpoints.
2266:.\Generated_Source\PSoC5/USBUART_1.c **** *
2267:.\Generated_Source\PSoC5/USBUART_1.c **** *  \param epNumber: Contains the data endpoint number.
2268:.\Generated_Source\PSoC5/USBUART_1.c **** *            Valid values are between 1 and 8.
2269:.\Generated_Source\PSoC5/USBUART_1.c **** *
2270:.\Generated_Source\PSoC5/USBUART_1.c **** *******************************************************************************/
2271:.\Generated_Source\PSoC5/USBUART_1.c **** void USBUART_1_DisableOutEP(uint8 epNumber) 
2272:.\Generated_Source\PSoC5/USBUART_1.c **** {
 1022              		.loc 1 2272 0
 1023              		.cfi_startproc
 1024              		@ args = 0, pretend = 0, frame = 0
 1025              		@ frame_needed = 0, uses_anonymous_args = 0
 1026              		@ link register save eliminated.
 1027              	.LVL72:
2273:.\Generated_Source\PSoC5/USBUART_1.c ****     if ((epNumber > USBUART_1_EP0) && (epNumber < USBUART_1_MAX_EP))
 1028              		.loc 1 2273 0
 1029 0000 431E     		subs	r3, r0, #1
 1030 0002 DBB2     		uxtb	r3, r3
 1031 0004 072B     		cmp	r3, #7
 1032 0006 03D8     		bhi	.L76
2274:.\Generated_Source\PSoC5/USBUART_1.c ****     {
2275:.\Generated_Source\PSoC5/USBUART_1.c ****         /* Set NAK response for OUT endpoint. */
2276:.\Generated_Source\PSoC5/USBUART_1.c ****         USBUART_1_SIE_EP_BASE.sieEp[epNumber].epCr0 = USBUART_1_MODE_NAK_OUT;
 1033              		.loc 1 2276 0
 1034 0008 0001     		lsls	r0, r0, #4
 1035              	.LVL73:
 1036 000a 024B     		ldr	r3, .L78
 1037 000c 0822     		movs	r2, #8
 1038 000e 1A54     		strb	r2, [r3, r0]
 1039              	.L76:
 1040 0010 7047     		bx	lr
 1041              	.L79:
 1042 0012 00BF     		.align	2
 1043              	.L78:
 1044 0014 FE5F0040 		.word	1073766398
 1045              		.cfi_endproc
 1046              	.LFE14:
 1047              		.size	USBUART_1_DisableOutEP, .-USBUART_1_DisableOutEP
 1048              		.section	.text.USBUART_1_Force,"ax",%progbits
 1049              		.align	2
 1050              		.global	USBUART_1_Force
 1051              		.thumb
 1052              		.thumb_func
 1053              		.type	USBUART_1_Force, %function
 1054              	USBUART_1_Force:
 1055              	.LFB15:
2277:.\Generated_Source\PSoC5/USBUART_1.c ****     }
2278:.\Generated_Source\PSoC5/USBUART_1.c **** }
2279:.\Generated_Source\PSoC5/USBUART_1.c **** 
2280:.\Generated_Source\PSoC5/USBUART_1.c **** 
2281:.\Generated_Source\PSoC5/USBUART_1.c **** /*******************************************************************************
2282:.\Generated_Source\PSoC5/USBUART_1.c **** * Function Name: USBUART_1_Force
2283:.\Generated_Source\PSoC5/USBUART_1.c **** ****************************************************************************//**
2284:.\Generated_Source\PSoC5/USBUART_1.c **** *
2285:.\Generated_Source\PSoC5/USBUART_1.c **** *  This function forces a USB J, K, or SE0 state on the D+/D– lines. It provides
ARM GAS  C:\Users\Thomas\AppData\Local\Temp\ccHSNeoG.s 			page 60


2286:.\Generated_Source\PSoC5/USBUART_1.c **** *  the necessary mechanism for a USB device application to perform a USB Remote
2287:.\Generated_Source\PSoC5/USBUART_1.c **** *  Wakeup. For more information, see the USB 2.0 Specification for details on
2288:.\Generated_Source\PSoC5/USBUART_1.c **** *  Suspend and Resume.
2289:.\Generated_Source\PSoC5/USBUART_1.c **** *
2290:.\Generated_Source\PSoC5/USBUART_1.c **** *  \param state A byte indicating which of the four bus states to enable.
2291:.\Generated_Source\PSoC5/USBUART_1.c **** *        Symbolic names  and their associated values are listed here:
2292:.\Generated_Source\PSoC5/USBUART_1.c **** *    State                      |Description
2293:.\Generated_Source\PSoC5/USBUART_1.c **** *    ---------------------------|----------------------------------------------
2294:.\Generated_Source\PSoC5/USBUART_1.c **** *    USBUART_1_FORCE_J   | Force a J State onto the D+/D– lines
2295:.\Generated_Source\PSoC5/USBUART_1.c **** *    USBUART_1_FORCE_K   | Force a K State onto the D+/D– lines
2296:.\Generated_Source\PSoC5/USBUART_1.c **** *    USBUART_1_FORCE_SE0 | Force a Single Ended 0 onto the D+/D– lines
2297:.\Generated_Source\PSoC5/USBUART_1.c **** *    USBUART_1_FORCE_NONE| Return bus to SIE control
2298:.\Generated_Source\PSoC5/USBUART_1.c **** *
2299:.\Generated_Source\PSoC5/USBUART_1.c **** *
2300:.\Generated_Source\PSoC5/USBUART_1.c **** *******************************************************************************/
2301:.\Generated_Source\PSoC5/USBUART_1.c **** void USBUART_1_Force(uint8 bState) 
2302:.\Generated_Source\PSoC5/USBUART_1.c **** {
 1056              		.loc 1 2302 0
 1057              		.cfi_startproc
 1058              		@ args = 0, pretend = 0, frame = 0
 1059              		@ frame_needed = 0, uses_anonymous_args = 0
 1060              		@ link register save eliminated.
 1061              	.LVL74:
2303:.\Generated_Source\PSoC5/USBUART_1.c ****     /* This registers is used only for manual control of SIE (no masking is
2304:.\Generated_Source\PSoC5/USBUART_1.c ****     * needed before write into it).
2305:.\Generated_Source\PSoC5/USBUART_1.c ****     */
2306:.\Generated_Source\PSoC5/USBUART_1.c ****     USBUART_1_USBIO_CR0_REG = bState;
 1062              		.loc 1 2306 0
 1063 0000 014B     		ldr	r3, .L81
 1064 0002 1870     		strb	r0, [r3]
 1065 0004 7047     		bx	lr
 1066              	.L82:
 1067 0006 00BF     		.align	2
 1068              	.L81:
 1069 0008 10600040 		.word	1073766416
 1070              		.cfi_endproc
 1071              	.LFE15:
 1072              		.size	USBUART_1_Force, .-USBUART_1_Force
 1073              		.section	.text.USBUART_1_GetEPAckState,"ax",%progbits
 1074              		.align	2
 1075              		.global	USBUART_1_GetEPAckState
 1076              		.thumb
 1077              		.thumb_func
 1078              		.type	USBUART_1_GetEPAckState, %function
 1079              	USBUART_1_GetEPAckState:
 1080              	.LFB16:
2307:.\Generated_Source\PSoC5/USBUART_1.c **** }
2308:.\Generated_Source\PSoC5/USBUART_1.c **** 
2309:.\Generated_Source\PSoC5/USBUART_1.c **** 
2310:.\Generated_Source\PSoC5/USBUART_1.c **** /*******************************************************************************
2311:.\Generated_Source\PSoC5/USBUART_1.c **** * Function Name: USBUART_1_GetEPAckState
2312:.\Generated_Source\PSoC5/USBUART_1.c **** ****************************************************************************//**
2313:.\Generated_Source\PSoC5/USBUART_1.c **** *
2314:.\Generated_Source\PSoC5/USBUART_1.c **** *  This function determines whether an ACK transaction occurred on this endpoint
2315:.\Generated_Source\PSoC5/USBUART_1.c **** *  by reading the ACK bit in the control register of the endpoint. It does not
2316:.\Generated_Source\PSoC5/USBUART_1.c **** *  clear the ACK bit.
2317:.\Generated_Source\PSoC5/USBUART_1.c **** *
ARM GAS  C:\Users\Thomas\AppData\Local\Temp\ccHSNeoG.s 			page 61


2318:.\Generated_Source\PSoC5/USBUART_1.c **** *  \param epNumber Contains the data endpoint number.
2319:.\Generated_Source\PSoC5/USBUART_1.c **** *            Valid values are between 1 and 8.
2320:.\Generated_Source\PSoC5/USBUART_1.c **** *
2321:.\Generated_Source\PSoC5/USBUART_1.c **** *  \return
2322:.\Generated_Source\PSoC5/USBUART_1.c **** *  If an ACKed transaction occurred, this function returns a non-zero value.
2323:.\Generated_Source\PSoC5/USBUART_1.c **** *  Otherwise, it returns zero.
2324:.\Generated_Source\PSoC5/USBUART_1.c **** *
2325:.\Generated_Source\PSoC5/USBUART_1.c **** *******************************************************************************/
2326:.\Generated_Source\PSoC5/USBUART_1.c **** uint8 USBUART_1_GetEPAckState(uint8 epNumber) 
2327:.\Generated_Source\PSoC5/USBUART_1.c **** {
 1081              		.loc 1 2327 0
 1082              		.cfi_startproc
 1083              		@ args = 0, pretend = 0, frame = 0
 1084              		@ frame_needed = 0, uses_anonymous_args = 0
 1085              		@ link register save eliminated.
 1086              	.LVL75:
2328:.\Generated_Source\PSoC5/USBUART_1.c ****     uint8 cr = 0u;
2329:.\Generated_Source\PSoC5/USBUART_1.c **** 
2330:.\Generated_Source\PSoC5/USBUART_1.c ****     if ((epNumber > USBUART_1_EP0) && (epNumber < USBUART_1_MAX_EP))
 1087              		.loc 1 2330 0
 1088 0000 431E     		subs	r3, r0, #1
 1089 0002 DBB2     		uxtb	r3, r3
 1090 0004 072B     		cmp	r3, #7
 1091 0006 06D8     		bhi	.L85
2331:.\Generated_Source\PSoC5/USBUART_1.c ****     {
2332:.\Generated_Source\PSoC5/USBUART_1.c ****         cr = USBUART_1_SIE_EP_BASE.sieEp[epNumber].epCr0 & USBUART_1_MODE_ACKD;
 1092              		.loc 1 2332 0
 1093 0008 0001     		lsls	r0, r0, #4
 1094              	.LVL76:
 1095 000a 044B     		ldr	r3, .L86
 1096 000c 185C     		ldrb	r0, [r3, r0]	@ zero_extendqisi2
 1097 000e 00F01000 		and	r0, r0, #16
 1098 0012 C0B2     		uxtb	r0, r0
 1099              	.LVL77:
 1100 0014 7047     		bx	lr
 1101              	.LVL78:
 1102              	.L85:
2328:.\Generated_Source\PSoC5/USBUART_1.c ****     uint8 cr = 0u;
 1103              		.loc 1 2328 0
 1104 0016 0020     		movs	r0, #0
 1105              	.LVL79:
2333:.\Generated_Source\PSoC5/USBUART_1.c ****     }
2334:.\Generated_Source\PSoC5/USBUART_1.c **** 
2335:.\Generated_Source\PSoC5/USBUART_1.c ****     return ((uint8) cr);
2336:.\Generated_Source\PSoC5/USBUART_1.c **** }
 1106              		.loc 1 2336 0
 1107 0018 7047     		bx	lr
 1108              	.L87:
 1109 001a 00BF     		.align	2
 1110              	.L86:
 1111 001c FE5F0040 		.word	1073766398
 1112              		.cfi_endproc
 1113              	.LFE16:
 1114              		.size	USBUART_1_GetEPAckState, .-USBUART_1_GetEPAckState
 1115              		.section	.text.USBUART_1_SetPowerStatus,"ax",%progbits
 1116              		.align	2
 1117              		.global	USBUART_1_SetPowerStatus
ARM GAS  C:\Users\Thomas\AppData\Local\Temp\ccHSNeoG.s 			page 62


 1118              		.thumb
 1119              		.thumb_func
 1120              		.type	USBUART_1_SetPowerStatus, %function
 1121              	USBUART_1_SetPowerStatus:
 1122              	.LFB17:
2337:.\Generated_Source\PSoC5/USBUART_1.c **** 
2338:.\Generated_Source\PSoC5/USBUART_1.c **** 
2339:.\Generated_Source\PSoC5/USBUART_1.c **** /*******************************************************************************
2340:.\Generated_Source\PSoC5/USBUART_1.c **** * Function Name: USBUART_1_SetPowerStatus
2341:.\Generated_Source\PSoC5/USBUART_1.c **** ****************************************************************************//**
2342:.\Generated_Source\PSoC5/USBUART_1.c **** *
2343:.\Generated_Source\PSoC5/USBUART_1.c **** *  This function sets the current power status. The device replies to USB
2344:.\Generated_Source\PSoC5/USBUART_1.c **** *  GET_STATUS requests based on this value. This allows the device to properly
2345:.\Generated_Source\PSoC5/USBUART_1.c **** *  report its status for USB Chapter 9 compliance. Devices can change their
2346:.\Generated_Source\PSoC5/USBUART_1.c **** *  power source from self powered to bus powered at any time and report their
2347:.\Generated_Source\PSoC5/USBUART_1.c **** *  current power source as part of the device status. You should call this
2348:.\Generated_Source\PSoC5/USBUART_1.c **** *  function any time your device changes from self powered to bus powered or
2349:.\Generated_Source\PSoC5/USBUART_1.c **** *  vice versa, and set the status appropriately.
2350:.\Generated_Source\PSoC5/USBUART_1.c **** *
2351:.\Generated_Source\PSoC5/USBUART_1.c **** *  \param powerStatus: Contains the desired power status, one for self powered
2352:.\Generated_Source\PSoC5/USBUART_1.c **** *        or zero for bus powered. Symbolic names and their associated values are
2353:.\Generated_Source\PSoC5/USBUART_1.c **** *        given here:
2354:.\Generated_Source\PSoC5/USBUART_1.c **** *  Power Status                                |Description
2355:.\Generated_Source\PSoC5/USBUART_1.c **** *  --------------------------------------------|---------------------------
2356:.\Generated_Source\PSoC5/USBUART_1.c **** *  USBUART_1_DEVICE_STATUS_BUS_POWERED  | Set the device to bus powered
2357:.\Generated_Source\PSoC5/USBUART_1.c **** *  USBUART_1_DEVICE_STATUS_SELF_POWERED | Set the device to self powered
2358:.\Generated_Source\PSoC5/USBUART_1.c **** *
2359:.\Generated_Source\PSoC5/USBUART_1.c **** * \globalvars
2360:.\Generated_Source\PSoC5/USBUART_1.c **** *
2361:.\Generated_Source\PSoC5/USBUART_1.c **** *  \ref USBUART_1_deviceStatus - set power status
2362:.\Generated_Source\PSoC5/USBUART_1.c **** *
2363:.\Generated_Source\PSoC5/USBUART_1.c **** * \reentrant
2364:.\Generated_Source\PSoC5/USBUART_1.c **** *  No.
2365:.\Generated_Source\PSoC5/USBUART_1.c **** *
2366:.\Generated_Source\PSoC5/USBUART_1.c **** *******************************************************************************/
2367:.\Generated_Source\PSoC5/USBUART_1.c **** void USBUART_1_SetPowerStatus(uint8 powerStatus) 
2368:.\Generated_Source\PSoC5/USBUART_1.c **** {
 1123              		.loc 1 2368 0
 1124              		.cfi_startproc
 1125              		@ args = 0, pretend = 0, frame = 0
 1126              		@ frame_needed = 0, uses_anonymous_args = 0
 1127              		@ link register save eliminated.
 1128              	.LVL80:
2369:.\Generated_Source\PSoC5/USBUART_1.c ****     if (powerStatus != USBUART_1_DEVICE_STATUS_BUS_POWERED)
 1129              		.loc 1 2369 0
 1130 0000 28B1     		cbz	r0, .L89
2370:.\Generated_Source\PSoC5/USBUART_1.c ****     {
2371:.\Generated_Source\PSoC5/USBUART_1.c ****         USBUART_1_deviceStatus |= (uint8)  USBUART_1_DEVICE_STATUS_SELF_POWERED;
 1131              		.loc 1 2371 0
 1132 0002 064A     		ldr	r2, .L91
 1133 0004 1378     		ldrb	r3, [r2]	@ zero_extendqisi2
 1134 0006 43F00103 		orr	r3, r3, #1
 1135 000a 1370     		strb	r3, [r2]
 1136 000c 7047     		bx	lr
 1137              	.L89:
2372:.\Generated_Source\PSoC5/USBUART_1.c ****     }
2373:.\Generated_Source\PSoC5/USBUART_1.c ****     else
ARM GAS  C:\Users\Thomas\AppData\Local\Temp\ccHSNeoG.s 			page 63


2374:.\Generated_Source\PSoC5/USBUART_1.c ****     {
2375:.\Generated_Source\PSoC5/USBUART_1.c ****         USBUART_1_deviceStatus &= (uint8) ~USBUART_1_DEVICE_STATUS_SELF_POWERED;
 1138              		.loc 1 2375 0
 1139 000e 034A     		ldr	r2, .L91
 1140 0010 1378     		ldrb	r3, [r2]	@ zero_extendqisi2
 1141 0012 03F0FE03 		and	r3, r3, #254
 1142 0016 1370     		strb	r3, [r2]
 1143 0018 7047     		bx	lr
 1144              	.L92:
 1145 001a 00BF     		.align	2
 1146              	.L91:
 1147 001c 00000000 		.word	USBUART_1_deviceStatus
 1148              		.cfi_endproc
 1149              	.LFE17:
 1150              		.size	USBUART_1_SetPowerStatus, .-USBUART_1_SetPowerStatus
 1151              		.section	.text.USBUART_1_RWUEnabled,"ax",%progbits
 1152              		.align	2
 1153              		.global	USBUART_1_RWUEnabled
 1154              		.thumb
 1155              		.thumb_func
 1156              		.type	USBUART_1_RWUEnabled, %function
 1157              	USBUART_1_RWUEnabled:
 1158              	.LFB18:
2376:.\Generated_Source\PSoC5/USBUART_1.c ****     }
2377:.\Generated_Source\PSoC5/USBUART_1.c **** }
2378:.\Generated_Source\PSoC5/USBUART_1.c **** 
2379:.\Generated_Source\PSoC5/USBUART_1.c **** 
2380:.\Generated_Source\PSoC5/USBUART_1.c **** #if (USBUART_1_VBUS_MONITORING_ENABLE)
2381:.\Generated_Source\PSoC5/USBUART_1.c ****     /***************************************************************************
2382:.\Generated_Source\PSoC5/USBUART_1.c ****     * Function Name: USBUART_1_VBusPresent
2383:.\Generated_Source\PSoC5/USBUART_1.c ****     ************************************************************************//**
2384:.\Generated_Source\PSoC5/USBUART_1.c ****     *
2385:.\Generated_Source\PSoC5/USBUART_1.c ****     *  Determines VBUS presence for self-powered devices. This function is
2386:.\Generated_Source\PSoC5/USBUART_1.c ****     *  available when the VBUS Monitoring option is enabled in the Advanced tab.
2387:.\Generated_Source\PSoC5/USBUART_1.c ****     *
2388:.\Generated_Source\PSoC5/USBUART_1.c ****     * \return
2389:.\Generated_Source\PSoC5/USBUART_1.c ****     *  The return value can be the following:
2390:.\Generated_Source\PSoC5/USBUART_1.c ****     *  Return Value | Description
2391:.\Generated_Source\PSoC5/USBUART_1.c ****     *  -------------|-----------------
2392:.\Generated_Source\PSoC5/USBUART_1.c ****     *  1            | VBUS is present
2393:.\Generated_Source\PSoC5/USBUART_1.c ****     *  0            | VBUS is absent
2394:.\Generated_Source\PSoC5/USBUART_1.c ****     *
2395:.\Generated_Source\PSoC5/USBUART_1.c ****     *
2396:.\Generated_Source\PSoC5/USBUART_1.c ****     ***************************************************************************/
2397:.\Generated_Source\PSoC5/USBUART_1.c ****     uint8 USBUART_1_VBusPresent(void) 
2398:.\Generated_Source\PSoC5/USBUART_1.c ****     {
2399:.\Generated_Source\PSoC5/USBUART_1.c ****         return ((0u != (USBUART_1_VBUS_STATUS_REG & USBUART_1_VBUS_VALID)) ? (uint8) 1u : (uint8) 0
2400:.\Generated_Source\PSoC5/USBUART_1.c ****     }
2401:.\Generated_Source\PSoC5/USBUART_1.c **** #endif /* (USBUART_1_VBUS_MONITORING_ENABLE) */
2402:.\Generated_Source\PSoC5/USBUART_1.c **** 
2403:.\Generated_Source\PSoC5/USBUART_1.c **** 
2404:.\Generated_Source\PSoC5/USBUART_1.c **** /*******************************************************************************
2405:.\Generated_Source\PSoC5/USBUART_1.c **** * Function Name: USBUART_1_RWUEnabled
2406:.\Generated_Source\PSoC5/USBUART_1.c **** ****************************************************************************//**
2407:.\Generated_Source\PSoC5/USBUART_1.c **** *
2408:.\Generated_Source\PSoC5/USBUART_1.c **** *  This function returns the current remote wakeup status.
2409:.\Generated_Source\PSoC5/USBUART_1.c **** *  If the device supports remote wakeup, the application should use this
ARM GAS  C:\Users\Thomas\AppData\Local\Temp\ccHSNeoG.s 			page 64


2410:.\Generated_Source\PSoC5/USBUART_1.c **** *  function to determine if remote wakeup was enabled by the host. When the
2411:.\Generated_Source\PSoC5/USBUART_1.c **** *  device is suspended and it determines the conditions to initiate a remote
2412:.\Generated_Source\PSoC5/USBUART_1.c **** *  wakeup are met, the application should use the USBFS_Force() function to
2413:.\Generated_Source\PSoC5/USBUART_1.c **** *  force the appropriate J and K states onto the USB bus, signaling a remote
2414:.\Generated_Source\PSoC5/USBUART_1.c **** *  wakeup.
2415:.\Generated_Source\PSoC5/USBUART_1.c **** *
2416:.\Generated_Source\PSoC5/USBUART_1.c **** *
2417:.\Generated_Source\PSoC5/USBUART_1.c **** * \return
2418:.\Generated_Source\PSoC5/USBUART_1.c **** *  Returns non-zero value if remote wakeup is enabled and zero otherwise.
2419:.\Generated_Source\PSoC5/USBUART_1.c **** *
2420:.\Generated_Source\PSoC5/USBUART_1.c **** * \globalvars
2421:.\Generated_Source\PSoC5/USBUART_1.c **** *  USBUART_1_deviceStatus - checked to determine remote status
2422:.\Generated_Source\PSoC5/USBUART_1.c **** *
2423:.\Generated_Source\PSoC5/USBUART_1.c **** *******************************************************************************/
2424:.\Generated_Source\PSoC5/USBUART_1.c **** uint8 USBUART_1_RWUEnabled(void) 
2425:.\Generated_Source\PSoC5/USBUART_1.c **** {
 1159              		.loc 1 2425 0
 1160              		.cfi_startproc
 1161              		@ args = 0, pretend = 0, frame = 0
 1162              		@ frame_needed = 0, uses_anonymous_args = 0
 1163              		@ link register save eliminated.
 1164              	.LVL81:
2426:.\Generated_Source\PSoC5/USBUART_1.c ****     uint8 result = USBUART_1_FALSE;
2427:.\Generated_Source\PSoC5/USBUART_1.c **** 
2428:.\Generated_Source\PSoC5/USBUART_1.c ****     if (0u != (USBUART_1_deviceStatus & USBUART_1_DEVICE_STATUS_REMOTE_WAKEUP))
 1165              		.loc 1 2428 0
 1166 0000 044B     		ldr	r3, .L96
 1167 0002 1B78     		ldrb	r3, [r3]	@ zero_extendqisi2
 1168 0004 13F0020F 		tst	r3, #2
 1169 0008 01D1     		bne	.L95
2426:.\Generated_Source\PSoC5/USBUART_1.c ****     uint8 result = USBUART_1_FALSE;
 1170              		.loc 1 2426 0
 1171 000a 0020     		movs	r0, #0
 1172 000c 7047     		bx	lr
 1173              	.L95:
2429:.\Generated_Source\PSoC5/USBUART_1.c ****     {
2430:.\Generated_Source\PSoC5/USBUART_1.c ****         result = USBUART_1_TRUE;
 1174              		.loc 1 2430 0
 1175 000e 0120     		movs	r0, #1
 1176              	.LVL82:
2431:.\Generated_Source\PSoC5/USBUART_1.c ****     }
2432:.\Generated_Source\PSoC5/USBUART_1.c **** 
2433:.\Generated_Source\PSoC5/USBUART_1.c ****     return (result);
2434:.\Generated_Source\PSoC5/USBUART_1.c **** }
 1177              		.loc 1 2434 0
 1178 0010 7047     		bx	lr
 1179              	.L97:
 1180 0012 00BF     		.align	2
 1181              	.L96:
 1182 0014 00000000 		.word	USBUART_1_deviceStatus
 1183              		.cfi_endproc
 1184              	.LFE18:
 1185              		.size	USBUART_1_RWUEnabled, .-USBUART_1_RWUEnabled
 1186              		.section	.text.USBUART_1_GetDeviceAddress,"ax",%progbits
 1187              		.align	2
 1188              		.global	USBUART_1_GetDeviceAddress
 1189              		.thumb
ARM GAS  C:\Users\Thomas\AppData\Local\Temp\ccHSNeoG.s 			page 65


 1190              		.thumb_func
 1191              		.type	USBUART_1_GetDeviceAddress, %function
 1192              	USBUART_1_GetDeviceAddress:
 1193              	.LFB19:
2435:.\Generated_Source\PSoC5/USBUART_1.c **** 
2436:.\Generated_Source\PSoC5/USBUART_1.c **** 
2437:.\Generated_Source\PSoC5/USBUART_1.c **** /*******************************************************************************
2438:.\Generated_Source\PSoC5/USBUART_1.c **** * Function Name: USBUART_1_GetDeviceAddress
2439:.\Generated_Source\PSoC5/USBUART_1.c **** ****************************************************************************//**
2440:.\Generated_Source\PSoC5/USBUART_1.c **** *
2441:.\Generated_Source\PSoC5/USBUART_1.c **** *  This function returns the currently assigned address for the USB device.
2442:.\Generated_Source\PSoC5/USBUART_1.c **** *
2443:.\Generated_Source\PSoC5/USBUART_1.c **** * \return
2444:.\Generated_Source\PSoC5/USBUART_1.c **** *  Returns the currently assigned address.
2445:.\Generated_Source\PSoC5/USBUART_1.c **** *  Returns 0 if the device has not yet been assigned an address.
2446:.\Generated_Source\PSoC5/USBUART_1.c **** *
2447:.\Generated_Source\PSoC5/USBUART_1.c **** *******************************************************************************/
2448:.\Generated_Source\PSoC5/USBUART_1.c **** uint8 USBUART_1_GetDeviceAddress(void) 
2449:.\Generated_Source\PSoC5/USBUART_1.c **** {
 1194              		.loc 1 2449 0
 1195              		.cfi_startproc
 1196              		@ args = 0, pretend = 0, frame = 0
 1197              		@ frame_needed = 0, uses_anonymous_args = 0
 1198              		@ link register save eliminated.
2450:.\Generated_Source\PSoC5/USBUART_1.c ****     return (uint8)(USBUART_1_CR0_REG & USBUART_1_CR0_DEVICE_ADDRESS_MASK);
 1199              		.loc 1 2450 0
 1200 0000 024B     		ldr	r3, .L99
 1201 0002 1878     		ldrb	r0, [r3]	@ zero_extendqisi2
2451:.\Generated_Source\PSoC5/USBUART_1.c **** }
 1202              		.loc 1 2451 0
 1203 0004 00F07F00 		and	r0, r0, #127
 1204 0008 7047     		bx	lr
 1205              	.L100:
 1206 000a 00BF     		.align	2
 1207              	.L99:
 1208 000c 08600040 		.word	1073766408
 1209              		.cfi_endproc
 1210              	.LFE19:
 1211              		.size	USBUART_1_GetDeviceAddress, .-USBUART_1_GetDeviceAddress
 1212              		.section	.text.USBUART_1_EnableSofInt,"ax",%progbits
 1213              		.align	2
 1214              		.global	USBUART_1_EnableSofInt
 1215              		.thumb
 1216              		.thumb_func
 1217              		.type	USBUART_1_EnableSofInt, %function
 1218              	USBUART_1_EnableSofInt:
 1219              	.LFB20:
2452:.\Generated_Source\PSoC5/USBUART_1.c **** 
2453:.\Generated_Source\PSoC5/USBUART_1.c **** 
2454:.\Generated_Source\PSoC5/USBUART_1.c **** /*******************************************************************************
2455:.\Generated_Source\PSoC5/USBUART_1.c **** * Function Name: USBUART_1_EnableSofInt
2456:.\Generated_Source\PSoC5/USBUART_1.c **** ****************************************************************************//**
2457:.\Generated_Source\PSoC5/USBUART_1.c **** *
2458:.\Generated_Source\PSoC5/USBUART_1.c **** *  This function enables interrupt generation when a Start-of-Frame (SOF)
2459:.\Generated_Source\PSoC5/USBUART_1.c **** *  packet is received from the host.
2460:.\Generated_Source\PSoC5/USBUART_1.c **** *
2461:.\Generated_Source\PSoC5/USBUART_1.c **** *******************************************************************************/
ARM GAS  C:\Users\Thomas\AppData\Local\Temp\ccHSNeoG.s 			page 66


2462:.\Generated_Source\PSoC5/USBUART_1.c **** void USBUART_1_EnableSofInt(void) 
2463:.\Generated_Source\PSoC5/USBUART_1.c **** {
 1220              		.loc 1 2463 0
 1221              		.cfi_startproc
 1222              		@ args = 0, pretend = 0, frame = 0
 1223              		@ frame_needed = 0, uses_anonymous_args = 0
 1224              		@ link register save eliminated.
2464:.\Generated_Source\PSoC5/USBUART_1.c **** #if (CY_PSOC4)
2465:.\Generated_Source\PSoC5/USBUART_1.c ****     /* Enable SOF interrupt interrupt source. */
2466:.\Generated_Source\PSoC5/USBUART_1.c ****     USBUART_1_INTR_SIE_MASK_REG |= (uint32) USBUART_1_INTR_SIE_SOF_INTR;
2467:.\Generated_Source\PSoC5/USBUART_1.c **** #else
2468:.\Generated_Source\PSoC5/USBUART_1.c ****     /* Enable SOF interrupt if it is present. */
2469:.\Generated_Source\PSoC5/USBUART_1.c ****     #if (USBUART_1_SOF_ISR_ACTIVE)
2470:.\Generated_Source\PSoC5/USBUART_1.c ****         CyIntEnable(USBUART_1_SOF_VECT_NUM);
 1225              		.loc 1 2470 0
 1226 0000 4FF40012 		mov	r2, #2097152
 1227 0004 014B     		ldr	r3, .L102
 1228 0006 1A60     		str	r2, [r3]
 1229 0008 7047     		bx	lr
 1230              	.L103:
 1231 000a 00BF     		.align	2
 1232              	.L102:
 1233 000c 00E100E0 		.word	-536813312
 1234              		.cfi_endproc
 1235              	.LFE20:
 1236              		.size	USBUART_1_EnableSofInt, .-USBUART_1_EnableSofInt
 1237              		.section	.text.USBUART_1_DisableSofInt,"ax",%progbits
 1238              		.align	2
 1239              		.global	USBUART_1_DisableSofInt
 1240              		.thumb
 1241              		.thumb_func
 1242              		.type	USBUART_1_DisableSofInt, %function
 1243              	USBUART_1_DisableSofInt:
 1244              	.LFB21:
2471:.\Generated_Source\PSoC5/USBUART_1.c ****     #endif /* (USBUART_1_SOF_ISR_ACTIVE) */
2472:.\Generated_Source\PSoC5/USBUART_1.c **** #endif /* (CY_PSOC4) */
2473:.\Generated_Source\PSoC5/USBUART_1.c **** }
2474:.\Generated_Source\PSoC5/USBUART_1.c **** 
2475:.\Generated_Source\PSoC5/USBUART_1.c **** 
2476:.\Generated_Source\PSoC5/USBUART_1.c **** /*******************************************************************************
2477:.\Generated_Source\PSoC5/USBUART_1.c **** * Function Name: USBUART_1_DisableSofInt
2478:.\Generated_Source\PSoC5/USBUART_1.c **** ****************************************************************************//**
2479:.\Generated_Source\PSoC5/USBUART_1.c **** *
2480:.\Generated_Source\PSoC5/USBUART_1.c **** *  This function disables interrupt generation when a Start-of-Frame (SOF)
2481:.\Generated_Source\PSoC5/USBUART_1.c **** *  packet is received from the host.
2482:.\Generated_Source\PSoC5/USBUART_1.c **** *
2483:.\Generated_Source\PSoC5/USBUART_1.c **** *******************************************************************************/
2484:.\Generated_Source\PSoC5/USBUART_1.c **** void USBUART_1_DisableSofInt(void) 
2485:.\Generated_Source\PSoC5/USBUART_1.c **** {
 1245              		.loc 1 2485 0
 1246              		.cfi_startproc
 1247              		@ args = 0, pretend = 0, frame = 0
 1248              		@ frame_needed = 0, uses_anonymous_args = 0
 1249              		@ link register save eliminated.
2486:.\Generated_Source\PSoC5/USBUART_1.c **** #if (CY_PSOC4)
2487:.\Generated_Source\PSoC5/USBUART_1.c ****     /* Disable SOF interrupt interrupt source. */
2488:.\Generated_Source\PSoC5/USBUART_1.c ****     USBUART_1_INTR_SIE_MASK_REG &= (uint32) ~USBUART_1_INTR_SIE_SOF_INTR;
ARM GAS  C:\Users\Thomas\AppData\Local\Temp\ccHSNeoG.s 			page 67


2489:.\Generated_Source\PSoC5/USBUART_1.c **** #else
2490:.\Generated_Source\PSoC5/USBUART_1.c ****     /* Disable SOF interrupt if it is present. */
2491:.\Generated_Source\PSoC5/USBUART_1.c ****     #if (USBUART_1_SOF_ISR_ACTIVE)
2492:.\Generated_Source\PSoC5/USBUART_1.c ****         CyIntDisable(USBUART_1_SOF_VECT_NUM);
 1250              		.loc 1 2492 0
 1251 0000 4FF40012 		mov	r2, #2097152
 1252 0004 014B     		ldr	r3, .L105
 1253 0006 1A60     		str	r2, [r3]
 1254 0008 7047     		bx	lr
 1255              	.L106:
 1256 000a 00BF     		.align	2
 1257              	.L105:
 1258 000c 80E100E0 		.word	-536813184
 1259              		.cfi_endproc
 1260              	.LFE21:
 1261              		.size	USBUART_1_DisableSofInt, .-USBUART_1_DisableSofInt
 1262              		.global	USBUART_1_initVar
 1263              		.bss
 1264              		.set	.LANCHOR0,. + 0
 1265              		.type	USBUART_1_initVar, %object
 1266              		.size	USBUART_1_initVar, 1
 1267              	USBUART_1_initVar:
 1268 0000 00       		.space	1
 1269              		.text
 1270              	.Letext0:
 1271              		.file 2 ".\\Generated_Source\\PSoC5\\cytypes.h"
 1272              		.file 3 ".\\Generated_Source\\PSoC5\\USBUART_1.h"
 1273              		.file 4 ".\\Generated_Source\\PSoC5\\USBUART_1_pvt.h"
 1274              		.file 5 ".\\Generated_Source\\PSoC5\\CyLib.h"
 1275              		.section	.debug_info,"",%progbits
 1276              	.Ldebug_info0:
 1277 0000 AA090000 		.4byte	0x9aa
 1278 0004 0400     		.2byte	0x4
 1279 0006 00000000 		.4byte	.Ldebug_abbrev0
 1280 000a 04       		.byte	0x4
 1281 000b 01       		.uleb128 0x1
 1282 000c 35050000 		.4byte	.LASF95
 1283 0010 01       		.byte	0x1
 1284 0011 E0020000 		.4byte	.LASF96
 1285 0015 13060000 		.4byte	.LASF97
 1286 0019 18000000 		.4byte	.Ldebug_ranges0+0x18
 1287 001d 00000000 		.4byte	0
 1288 0021 00000000 		.4byte	.Ldebug_line0
 1289 0025 02       		.uleb128 0x2
 1290 0026 01       		.byte	0x1
 1291 0027 06       		.byte	0x6
 1292 0028 D7000000 		.4byte	.LASF0
 1293 002c 02       		.uleb128 0x2
 1294 002d 01       		.byte	0x1
 1295 002e 08       		.byte	0x8
 1296 002f E6030000 		.4byte	.LASF1
 1297 0033 02       		.uleb128 0x2
 1298 0034 02       		.byte	0x2
 1299 0035 05       		.byte	0x5
 1300 0036 03040000 		.4byte	.LASF2
 1301 003a 02       		.uleb128 0x2
 1302 003b 02       		.byte	0x2
ARM GAS  C:\Users\Thomas\AppData\Local\Temp\ccHSNeoG.s 			page 68


 1303 003c 07       		.byte	0x7
 1304 003d 35020000 		.4byte	.LASF3
 1305 0041 02       		.uleb128 0x2
 1306 0042 04       		.byte	0x4
 1307 0043 05       		.byte	0x5
 1308 0044 18010000 		.4byte	.LASF4
 1309 0048 02       		.uleb128 0x2
 1310 0049 04       		.byte	0x4
 1311 004a 07       		.byte	0x7
 1312 004b F8010000 		.4byte	.LASF5
 1313 004f 02       		.uleb128 0x2
 1314 0050 08       		.byte	0x8
 1315 0051 05       		.byte	0x5
 1316 0052 C9000000 		.4byte	.LASF6
 1317 0056 02       		.uleb128 0x2
 1318 0057 08       		.byte	0x8
 1319 0058 07       		.byte	0x7
 1320 0059 60000000 		.4byte	.LASF7
 1321 005d 03       		.uleb128 0x3
 1322 005e 04       		.byte	0x4
 1323 005f 05       		.byte	0x5
 1324 0060 696E7400 		.ascii	"int\000"
 1325 0064 02       		.uleb128 0x2
 1326 0065 04       		.byte	0x4
 1327 0066 07       		.byte	0x7
 1328 0067 EB010000 		.4byte	.LASF8
 1329 006b 04       		.uleb128 0x4
 1330 006c 21010000 		.4byte	.LASF9
 1331 0070 02       		.byte	0x2
 1332 0071 3801     		.2byte	0x138
 1333 0073 2C000000 		.4byte	0x2c
 1334 0077 04       		.uleb128 0x4
 1335 0078 00000000 		.4byte	.LASF10
 1336 007c 02       		.byte	0x2
 1337 007d 3901     		.2byte	0x139
 1338 007f 3A000000 		.4byte	0x3a
 1339 0083 04       		.uleb128 0x4
 1340 0084 57010000 		.4byte	.LASF11
 1341 0088 02       		.byte	0x2
 1342 0089 3A01     		.2byte	0x13a
 1343 008b 48000000 		.4byte	0x48
 1344 008f 02       		.uleb128 0x2
 1345 0090 04       		.byte	0x4
 1346 0091 04       		.byte	0x4
 1347 0092 87030000 		.4byte	.LASF12
 1348 0096 02       		.uleb128 0x2
 1349 0097 08       		.byte	0x8
 1350 0098 04       		.byte	0x4
 1351 0099 3F010000 		.4byte	.LASF13
 1352 009d 02       		.uleb128 0x2
 1353 009e 01       		.byte	0x1
 1354 009f 08       		.byte	0x8
 1355 00a0 6F040000 		.4byte	.LASF14
 1356 00a4 04       		.uleb128 0x4
 1357 00a5 E1030000 		.4byte	.LASF15
 1358 00a9 02       		.byte	0x2
 1359 00aa E201     		.2byte	0x1e2
ARM GAS  C:\Users\Thomas\AppData\Local\Temp\ccHSNeoG.s 			page 69


 1360 00ac B0000000 		.4byte	0xb0
 1361 00b0 05       		.uleb128 0x5
 1362 00b1 6B000000 		.4byte	0x6b
 1363 00b5 04       		.uleb128 0x4
 1364 00b6 1C030000 		.4byte	.LASF16
 1365 00ba 02       		.byte	0x2
 1366 00bb E401     		.2byte	0x1e4
 1367 00bd C1000000 		.4byte	0xc1
 1368 00c1 05       		.uleb128 0x5
 1369 00c2 83000000 		.4byte	0x83
 1370 00c6 04       		.uleb128 0x4
 1371 00c7 79040000 		.4byte	.LASF17
 1372 00cb 02       		.byte	0x2
 1373 00cc F401     		.2byte	0x1f4
 1374 00ce D2000000 		.4byte	0xd2
 1375 00d2 06       		.uleb128 0x6
 1376 00d3 04       		.byte	0x4
 1377 00d4 D8000000 		.4byte	0xd8
 1378 00d8 07       		.uleb128 0x7
 1379 00d9 02       		.uleb128 0x2
 1380 00da 04       		.byte	0x4
 1381 00db 07       		.byte	0x7
 1382 00dc 2C030000 		.4byte	.LASF18
 1383 00e0 08       		.uleb128 0x8
 1384 00e1 0C       		.byte	0xc
 1385 00e2 03       		.byte	0x3
 1386 00e3 8D       		.byte	0x8d
 1387 00e4 55010000 		.4byte	0x155
 1388 00e8 09       		.uleb128 0x9
 1389 00e9 3B030000 		.4byte	.LASF19
 1390 00ed 03       		.byte	0x3
 1391 00ee 8F       		.byte	0x8f
 1392 00ef 6B000000 		.4byte	0x6b
 1393 00f3 00       		.byte	0
 1394 00f4 09       		.uleb128 0x9
 1395 00f5 A3030000 		.4byte	.LASF20
 1396 00f9 03       		.byte	0x3
 1397 00fa 90       		.byte	0x90
 1398 00fb 6B000000 		.4byte	0x6b
 1399 00ff 01       		.byte	0x1
 1400 0100 09       		.uleb128 0x9
 1401 0101 22030000 		.4byte	.LASF21
 1402 0105 03       		.byte	0x3
 1403 0106 91       		.byte	0x91
 1404 0107 6B000000 		.4byte	0x6b
 1405 010b 02       		.byte	0x2
 1406 010c 09       		.uleb128 0x9
 1407 010d 27010000 		.4byte	.LASF22
 1408 0111 03       		.byte	0x3
 1409 0112 92       		.byte	0x92
 1410 0113 6B000000 		.4byte	0x6b
 1411 0117 03       		.byte	0x3
 1412 0118 09       		.uleb128 0x9
 1413 0119 77000000 		.4byte	.LASF23
 1414 011d 03       		.byte	0x3
 1415 011e 93       		.byte	0x93
 1416 011f 6B000000 		.4byte	0x6b
ARM GAS  C:\Users\Thomas\AppData\Local\Temp\ccHSNeoG.s 			page 70


 1417 0123 04       		.byte	0x4
 1418 0124 09       		.uleb128 0x9
 1419 0125 64010000 		.4byte	.LASF24
 1420 0129 03       		.byte	0x3
 1421 012a 94       		.byte	0x94
 1422 012b 6B000000 		.4byte	0x6b
 1423 012f 05       		.byte	0x5
 1424 0130 09       		.uleb128 0x9
 1425 0131 AC040000 		.4byte	.LASF25
 1426 0135 03       		.byte	0x3
 1427 0136 95       		.byte	0x95
 1428 0137 77000000 		.4byte	0x77
 1429 013b 06       		.byte	0x6
 1430 013c 09       		.uleb128 0x9
 1431 013d A1040000 		.4byte	.LASF26
 1432 0141 03       		.byte	0x3
 1433 0142 96       		.byte	0x96
 1434 0143 77000000 		.4byte	0x77
 1435 0147 08       		.byte	0x8
 1436 0148 09       		.uleb128 0x9
 1437 0149 0B030000 		.4byte	.LASF27
 1438 014d 03       		.byte	0x3
 1439 014e 97       		.byte	0x97
 1440 014f 6B000000 		.4byte	0x6b
 1441 0153 0A       		.byte	0xa
 1442 0154 00       		.byte	0
 1443 0155 0A       		.uleb128 0xa
 1444 0156 A2010000 		.4byte	.LASF28
 1445 015a 03       		.byte	0x3
 1446 015b 98       		.byte	0x98
 1447 015c E0000000 		.4byte	0xe0
 1448 0160 08       		.uleb128 0x8
 1449 0161 10       		.byte	0x10
 1450 0162 03       		.byte	0x3
 1451 0163 D4       		.byte	0xd4
 1452 0164 99010000 		.4byte	0x199
 1453 0168 09       		.uleb128 0x9
 1454 0169 62030000 		.4byte	.LASF29
 1455 016d 03       		.byte	0x3
 1456 016e D6       		.byte	0xd6
 1457 016f 6B000000 		.4byte	0x6b
 1458 0173 00       		.byte	0
 1459 0174 09       		.uleb128 0x9
 1460 0175 69030000 		.4byte	.LASF30
 1461 0179 03       		.byte	0x3
 1462 017a D7       		.byte	0xd7
 1463 017b 6B000000 		.4byte	0x6b
 1464 017f 01       		.byte	0x1
 1465 0180 09       		.uleb128 0x9
 1466 0181 81030000 		.4byte	.LASF31
 1467 0185 03       		.byte	0x3
 1468 0186 D8       		.byte	0xd8
 1469 0187 6B000000 		.4byte	0x6b
 1470 018b 02       		.byte	0x2
 1471 018c 0B       		.uleb128 0xb
 1472 018d 67617000 		.ascii	"gap\000"
 1473 0191 03       		.byte	0x3
ARM GAS  C:\Users\Thomas\AppData\Local\Temp\ccHSNeoG.s 			page 71


 1474 0192 D9       		.byte	0xd9
 1475 0193 99010000 		.4byte	0x199
 1476 0197 03       		.byte	0x3
 1477 0198 00       		.byte	0
 1478 0199 0C       		.uleb128 0xc
 1479 019a 6B000000 		.4byte	0x6b
 1480 019e A9010000 		.4byte	0x1a9
 1481 01a2 0D       		.uleb128 0xd
 1482 01a3 D9000000 		.4byte	0xd9
 1483 01a7 0C       		.byte	0xc
 1484 01a8 00       		.byte	0
 1485 01a9 0A       		.uleb128 0xa
 1486 01aa 0D040000 		.4byte	.LASF32
 1487 01ae 03       		.byte	0x3
 1488 01af DA       		.byte	0xda
 1489 01b0 60010000 		.4byte	0x160
 1490 01b4 08       		.uleb128 0x8
 1491 01b5 10       		.byte	0x10
 1492 01b6 03       		.byte	0x3
 1493 01b7 E6       		.byte	0xe6
 1494 01b8 35020000 		.4byte	0x235
 1495 01bc 09       		.uleb128 0x9
 1496 01bd 7C000000 		.4byte	.LASF33
 1497 01c1 03       		.byte	0x3
 1498 01c2 E8       		.byte	0xe8
 1499 01c3 6B000000 		.4byte	0x6b
 1500 01c7 00       		.byte	0
 1501 01c8 09       		.uleb128 0x9
 1502 01c9 0B060000 		.4byte	.LASF34
 1503 01cd 03       		.byte	0x3
 1504 01ce E9       		.byte	0xe9
 1505 01cf 6B000000 		.4byte	0x6b
 1506 01d3 01       		.byte	0x1
 1507 01d4 09       		.uleb128 0x9
 1508 01d5 52010000 		.4byte	.LASF35
 1509 01d9 03       		.byte	0x3
 1510 01da EA       		.byte	0xea
 1511 01db 6B000000 		.4byte	0x6b
 1512 01df 02       		.byte	0x2
 1513 01e0 09       		.uleb128 0x9
 1514 01e1 6B010000 		.4byte	.LASF36
 1515 01e5 03       		.byte	0x3
 1516 01e6 EB       		.byte	0xeb
 1517 01e7 6B000000 		.4byte	0x6b
 1518 01eb 03       		.byte	0x3
 1519 01ec 09       		.uleb128 0x9
 1520 01ed 30010000 		.4byte	.LASF37
 1521 01f1 03       		.byte	0x3
 1522 01f2 EC       		.byte	0xec
 1523 01f3 6B000000 		.4byte	0x6b
 1524 01f7 04       		.byte	0x4
 1525 01f8 09       		.uleb128 0x9
 1526 01f9 59040000 		.4byte	.LASF38
 1527 01fd 03       		.byte	0x3
 1528 01fe ED       		.byte	0xed
 1529 01ff 6B000000 		.4byte	0x6b
 1530 0203 05       		.byte	0x5
ARM GAS  C:\Users\Thomas\AppData\Local\Temp\ccHSNeoG.s 			page 72


 1531 0204 09       		.uleb128 0x9
 1532 0205 3D040000 		.4byte	.LASF39
 1533 0209 03       		.byte	0x3
 1534 020a EE       		.byte	0xee
 1535 020b 6B000000 		.4byte	0x6b
 1536 020f 06       		.byte	0x6
 1537 0210 09       		.uleb128 0x9
 1538 0211 5A030000 		.4byte	.LASF40
 1539 0215 03       		.byte	0x3
 1540 0216 EF       		.byte	0xef
 1541 0217 6B000000 		.4byte	0x6b
 1542 021b 07       		.byte	0x7
 1543 021c 09       		.uleb128 0x9
 1544 021d C3050000 		.4byte	.LASF41
 1545 0221 03       		.byte	0x3
 1546 0222 F0       		.byte	0xf0
 1547 0223 6B000000 		.4byte	0x6b
 1548 0227 08       		.byte	0x8
 1549 0228 0B       		.uleb128 0xb
 1550 0229 67617000 		.ascii	"gap\000"
 1551 022d 03       		.byte	0x3
 1552 022e F1       		.byte	0xf1
 1553 022f 35020000 		.4byte	0x235
 1554 0233 09       		.byte	0x9
 1555 0234 00       		.byte	0
 1556 0235 0C       		.uleb128 0xc
 1557 0236 6B000000 		.4byte	0x6b
 1558 023a 45020000 		.4byte	0x245
 1559 023e 0D       		.uleb128 0xd
 1560 023f D9000000 		.4byte	0xd9
 1561 0243 06       		.byte	0x6
 1562 0244 00       		.byte	0
 1563 0245 0A       		.uleb128 0xa
 1564 0246 C8020000 		.4byte	.LASF42
 1565 024a 03       		.byte	0x3
 1566 024b F2       		.byte	0xf2
 1567 024c B4010000 		.4byte	0x1b4
 1568 0250 0E       		.uleb128 0xe
 1569 0251 90       		.byte	0x90
 1570 0252 03       		.byte	0x3
 1571 0253 0E01     		.2byte	0x10e
 1572 0255 67020000 		.4byte	0x267
 1573 0259 0F       		.uleb128 0xf
 1574 025a 35030000 		.4byte	.LASF43
 1575 025e 03       		.byte	0x3
 1576 025f 1001     		.2byte	0x110
 1577 0261 67020000 		.4byte	0x267
 1578 0265 00       		.byte	0
 1579 0266 00       		.byte	0
 1580 0267 0C       		.uleb128 0xc
 1581 0268 A9010000 		.4byte	0x1a9
 1582 026c 77020000 		.4byte	0x277
 1583 0270 0D       		.uleb128 0xd
 1584 0271 D9000000 		.4byte	0xd9
 1585 0275 08       		.byte	0x8
 1586 0276 00       		.byte	0
 1587 0277 04       		.uleb128 0x4
ARM GAS  C:\Users\Thomas\AppData\Local\Temp\ccHSNeoG.s 			page 73


 1588 0278 89010000 		.4byte	.LASF44
 1589 027c 03       		.byte	0x3
 1590 027d 1101     		.2byte	0x111
 1591 027f 50020000 		.4byte	0x250
 1592 0283 0E       		.uleb128 0xe
 1593 0284 90       		.byte	0x90
 1594 0285 03       		.byte	0x3
 1595 0286 1401     		.2byte	0x114
 1596 0288 9A020000 		.4byte	0x29a
 1597 028c 0F       		.uleb128 0xf
 1598 028d 05030000 		.4byte	.LASF45
 1599 0291 03       		.byte	0x3
 1600 0292 1601     		.2byte	0x116
 1601 0294 9A020000 		.4byte	0x29a
 1602 0298 00       		.byte	0
 1603 0299 00       		.byte	0
 1604 029a 0C       		.uleb128 0xc
 1605 029b 45020000 		.4byte	0x245
 1606 029f AA020000 		.4byte	0x2aa
 1607 02a3 0D       		.uleb128 0xd
 1608 02a4 D9000000 		.4byte	0xd9
 1609 02a8 08       		.byte	0x8
 1610 02a9 00       		.byte	0
 1611 02aa 04       		.uleb128 0x4
 1612 02ab BB010000 		.4byte	.LASF46
 1613 02af 03       		.byte	0x3
 1614 02b0 1701     		.2byte	0x117
 1615 02b2 83020000 		.4byte	0x283
 1616 02b6 10       		.uleb128 0x10
 1617 02b7 33000000 		.4byte	.LASF47
 1618 02bb 01       		.byte	0x1
 1619 02bc D2       		.byte	0xd2
 1620 02bd 00000000 		.4byte	.LFB1
 1621 02c1 40010000 		.4byte	.LFE1-.LFB1
 1622 02c5 01       		.uleb128 0x1
 1623 02c6 9C       		.byte	0x9c
 1624 02c7 74040000 		.4byte	0x474
 1625 02cb 11       		.uleb128 0x11
 1626 02cc 0A050000 		.4byte	.LASF53
 1627 02d0 01       		.byte	0x1
 1628 02d1 F9       		.byte	0xf9
 1629 02d2 6B000000 		.4byte	0x6b
 1630 02d6 00000000 		.4byte	.LLST0
 1631 02da 12       		.uleb128 0x12
 1632 02db 06000000 		.4byte	.LVL0
 1633 02df 43090000 		.4byte	0x943
 1634 02e3 13       		.uleb128 0x13
 1635 02e4 3C000000 		.4byte	.LVL2
 1636 02e8 4E090000 		.4byte	0x94e
 1637 02ec F6020000 		.4byte	0x2f6
 1638 02f0 14       		.uleb128 0x14
 1639 02f1 01       		.uleb128 0x1
 1640 02f2 50       		.byte	0x50
 1641 02f3 01       		.uleb128 0x1
 1642 02f4 30       		.byte	0x30
 1643 02f5 00       		.byte	0
 1644 02f6 13       		.uleb128 0x13
ARM GAS  C:\Users\Thomas\AppData\Local\Temp\ccHSNeoG.s 			page 74


 1645 02f7 5C000000 		.4byte	.LVL3
 1646 02fb 4E090000 		.4byte	0x94e
 1647 02ff 0A030000 		.4byte	0x30a
 1648 0303 14       		.uleb128 0x14
 1649 0304 01       		.uleb128 0x1
 1650 0305 50       		.byte	0x50
 1651 0306 02       		.uleb128 0x2
 1652 0307 76       		.byte	0x76
 1653 0308 00       		.sleb128 0
 1654 0309 00       		.byte	0
 1655 030a 13       		.uleb128 0x13
 1656 030b 62000000 		.4byte	.LVL4
 1657 030f 4E090000 		.4byte	0x94e
 1658 0313 1E030000 		.4byte	0x31e
 1659 0317 14       		.uleb128 0x14
 1660 0318 01       		.uleb128 0x1
 1661 0319 50       		.byte	0x50
 1662 031a 02       		.uleb128 0x2
 1663 031b 08       		.byte	0x8
 1664 031c 28       		.byte	0x28
 1665 031d 00       		.byte	0
 1666 031e 13       		.uleb128 0x13
 1667 031f 80000000 		.4byte	.LVL5
 1668 0323 4E090000 		.4byte	0x94e
 1669 0327 32030000 		.4byte	0x332
 1670 032b 14       		.uleb128 0x14
 1671 032c 01       		.uleb128 0x1
 1672 032d 50       		.byte	0x50
 1673 032e 02       		.uleb128 0x2
 1674 032f 75       		.byte	0x75
 1675 0330 00       		.sleb128 0
 1676 0331 00       		.byte	0
 1677 0332 13       		.uleb128 0x13
 1678 0333 98000000 		.4byte	.LVL6
 1679 0337 5F090000 		.4byte	0x95f
 1680 033b 46030000 		.4byte	0x346
 1681 033f 14       		.uleb128 0x14
 1682 0340 01       		.uleb128 0x1
 1683 0341 50       		.byte	0x50
 1684 0342 02       		.uleb128 0x2
 1685 0343 77       		.byte	0x77
 1686 0344 00       		.sleb128 0
 1687 0345 00       		.byte	0
 1688 0346 13       		.uleb128 0x13
 1689 0347 A0000000 		.4byte	.LVL7
 1690 034b 70090000 		.4byte	0x970
 1691 034f 5E030000 		.4byte	0x35e
 1692 0353 14       		.uleb128 0x14
 1693 0354 01       		.uleb128 0x1
 1694 0355 51       		.byte	0x51
 1695 0356 01       		.uleb128 0x1
 1696 0357 37       		.byte	0x37
 1697 0358 14       		.uleb128 0x14
 1698 0359 01       		.uleb128 0x1
 1699 035a 50       		.byte	0x50
 1700 035b 01       		.uleb128 0x1
 1701 035c 47       		.byte	0x47
ARM GAS  C:\Users\Thomas\AppData\Local\Temp\ccHSNeoG.s 			page 75


 1702 035d 00       		.byte	0
 1703 035e 13       		.uleb128 0x13
 1704 035f A8000000 		.4byte	.LVL8
 1705 0363 86090000 		.4byte	0x986
 1706 0367 71030000 		.4byte	0x371
 1707 036b 14       		.uleb128 0x14
 1708 036c 01       		.uleb128 0x1
 1709 036d 50       		.byte	0x50
 1710 036e 01       		.uleb128 0x1
 1711 036f 47       		.byte	0x47
 1712 0370 00       		.byte	0
 1713 0371 13       		.uleb128 0x13
 1714 0372 B0000000 		.4byte	.LVL9
 1715 0376 70090000 		.4byte	0x970
 1716 037a 89030000 		.4byte	0x389
 1717 037e 14       		.uleb128 0x14
 1718 037f 01       		.uleb128 0x1
 1719 0380 51       		.byte	0x51
 1720 0381 01       		.uleb128 0x1
 1721 0382 37       		.byte	0x37
 1722 0383 14       		.uleb128 0x14
 1723 0384 01       		.uleb128 0x1
 1724 0385 50       		.byte	0x50
 1725 0386 01       		.uleb128 0x1
 1726 0387 48       		.byte	0x48
 1727 0388 00       		.byte	0
 1728 0389 13       		.uleb128 0x13
 1729 038a B8000000 		.4byte	.LVL10
 1730 038e 86090000 		.4byte	0x986
 1731 0392 9C030000 		.4byte	0x39c
 1732 0396 14       		.uleb128 0x14
 1733 0397 01       		.uleb128 0x1
 1734 0398 50       		.byte	0x50
 1735 0399 01       		.uleb128 0x1
 1736 039a 48       		.byte	0x48
 1737 039b 00       		.byte	0
 1738 039c 13       		.uleb128 0x13
 1739 039d C0000000 		.4byte	.LVL11
 1740 03a1 70090000 		.4byte	0x970
 1741 03a5 B4030000 		.4byte	0x3b4
 1742 03a9 14       		.uleb128 0x14
 1743 03aa 01       		.uleb128 0x1
 1744 03ab 51       		.byte	0x51
 1745 03ac 01       		.uleb128 0x1
 1746 03ad 37       		.byte	0x37
 1747 03ae 14       		.uleb128 0x14
 1748 03af 01       		.uleb128 0x1
 1749 03b0 50       		.byte	0x50
 1750 03b1 01       		.uleb128 0x1
 1751 03b2 45       		.byte	0x45
 1752 03b3 00       		.byte	0
 1753 03b4 13       		.uleb128 0x13
 1754 03b5 C8000000 		.4byte	.LVL12
 1755 03b9 86090000 		.4byte	0x986
 1756 03bd C7030000 		.4byte	0x3c7
 1757 03c1 14       		.uleb128 0x14
 1758 03c2 01       		.uleb128 0x1
ARM GAS  C:\Users\Thomas\AppData\Local\Temp\ccHSNeoG.s 			page 76


 1759 03c3 50       		.byte	0x50
 1760 03c4 01       		.uleb128 0x1
 1761 03c5 45       		.byte	0x45
 1762 03c6 00       		.byte	0
 1763 03c7 13       		.uleb128 0x13
 1764 03c8 D0000000 		.4byte	.LVL13
 1765 03cc 70090000 		.4byte	0x970
 1766 03d0 E0030000 		.4byte	0x3e0
 1767 03d4 14       		.uleb128 0x14
 1768 03d5 01       		.uleb128 0x1
 1769 03d6 51       		.byte	0x51
 1770 03d7 01       		.uleb128 0x1
 1771 03d8 37       		.byte	0x37
 1772 03d9 14       		.uleb128 0x14
 1773 03da 01       		.uleb128 0x1
 1774 03db 50       		.byte	0x50
 1775 03dc 02       		.uleb128 0x2
 1776 03dd 76       		.byte	0x76
 1777 03de 00       		.sleb128 0
 1778 03df 00       		.byte	0
 1779 03e0 13       		.uleb128 0x13
 1780 03e1 D8000000 		.4byte	.LVL14
 1781 03e5 86090000 		.4byte	0x986
 1782 03e9 F4030000 		.4byte	0x3f4
 1783 03ed 14       		.uleb128 0x14
 1784 03ee 01       		.uleb128 0x1
 1785 03ef 50       		.byte	0x50
 1786 03f0 02       		.uleb128 0x2
 1787 03f1 76       		.byte	0x76
 1788 03f2 00       		.sleb128 0
 1789 03f3 00       		.byte	0
 1790 03f4 13       		.uleb128 0x13
 1791 03f5 E0000000 		.4byte	.LVL15
 1792 03f9 70090000 		.4byte	0x970
 1793 03fd 0D040000 		.4byte	0x40d
 1794 0401 14       		.uleb128 0x14
 1795 0402 01       		.uleb128 0x1
 1796 0403 51       		.byte	0x51
 1797 0404 01       		.uleb128 0x1
 1798 0405 37       		.byte	0x37
 1799 0406 14       		.uleb128 0x14
 1800 0407 01       		.uleb128 0x1
 1801 0408 50       		.byte	0x50
 1802 0409 02       		.uleb128 0x2
 1803 040a 75       		.byte	0x75
 1804 040b 00       		.sleb128 0
 1805 040c 00       		.byte	0
 1806 040d 13       		.uleb128 0x13
 1807 040e E8000000 		.4byte	.LVL16
 1808 0412 86090000 		.4byte	0x986
 1809 0416 21040000 		.4byte	0x421
 1810 041a 14       		.uleb128 0x14
 1811 041b 01       		.uleb128 0x1
 1812 041c 50       		.byte	0x50
 1813 041d 02       		.uleb128 0x2
 1814 041e 75       		.byte	0x75
 1815 041f 00       		.sleb128 0
ARM GAS  C:\Users\Thomas\AppData\Local\Temp\ccHSNeoG.s 			page 77


 1816 0420 00       		.byte	0
 1817 0421 13       		.uleb128 0x13
 1818 0422 F0000000 		.4byte	.LVL17
 1819 0426 70090000 		.4byte	0x970
 1820 042a 39040000 		.4byte	0x439
 1821 042e 14       		.uleb128 0x14
 1822 042f 01       		.uleb128 0x1
 1823 0430 51       		.byte	0x51
 1824 0431 01       		.uleb128 0x1
 1825 0432 37       		.byte	0x37
 1826 0433 14       		.uleb128 0x14
 1827 0434 01       		.uleb128 0x1
 1828 0435 50       		.byte	0x50
 1829 0436 01       		.uleb128 0x1
 1830 0437 33       		.byte	0x33
 1831 0438 00       		.byte	0
 1832 0439 13       		.uleb128 0x13
 1833 043a F8000000 		.4byte	.LVL18
 1834 043e 86090000 		.4byte	0x986
 1835 0442 4C040000 		.4byte	0x44c
 1836 0446 14       		.uleb128 0x14
 1837 0447 01       		.uleb128 0x1
 1838 0448 50       		.byte	0x50
 1839 0449 01       		.uleb128 0x1
 1840 044a 33       		.byte	0x33
 1841 044b 00       		.byte	0
 1842 044c 13       		.uleb128 0x13
 1843 044d 00010000 		.4byte	.LVL19
 1844 0451 70090000 		.4byte	0x970
 1845 0455 64040000 		.4byte	0x464
 1846 0459 14       		.uleb128 0x14
 1847 045a 01       		.uleb128 0x1
 1848 045b 51       		.byte	0x51
 1849 045c 01       		.uleb128 0x1
 1850 045d 37       		.byte	0x37
 1851 045e 14       		.uleb128 0x14
 1852 045f 01       		.uleb128 0x1
 1853 0460 50       		.byte	0x50
 1854 0461 01       		.uleb128 0x1
 1855 0462 3C       		.byte	0x3c
 1856 0463 00       		.byte	0
 1857 0464 15       		.uleb128 0x15
 1858 0465 08010000 		.4byte	.LVL20
 1859 0469 86090000 		.4byte	0x986
 1860 046d 14       		.uleb128 0x14
 1861 046e 01       		.uleb128 0x1
 1862 046f 50       		.byte	0x50
 1863 0470 01       		.uleb128 0x1
 1864 0471 3C       		.byte	0x3c
 1865 0472 00       		.byte	0
 1866 0473 00       		.byte	0
 1867 0474 16       		.uleb128 0x16
 1868 0475 DF040000 		.4byte	.LASF48
 1869 0479 01       		.byte	0x1
 1870 047a CB01     		.2byte	0x1cb
 1871 047c 00000000 		.4byte	.LFB2
 1872 0480 B8000000 		.4byte	.LFE2-.LFB2
ARM GAS  C:\Users\Thomas\AppData\Local\Temp\ccHSNeoG.s 			page 78


 1873 0484 01       		.uleb128 0x1
 1874 0485 9C       		.byte	0x9c
 1875 0486 BA040000 		.4byte	0x4ba
 1876 048a 17       		.uleb128 0x17
 1877 048b C2000000 		.4byte	.LASF49
 1878 048f 01       		.byte	0x1
 1879 0490 CB01     		.2byte	0x1cb
 1880 0492 6B000000 		.4byte	0x6b
 1881 0496 13000000 		.4byte	.LLST1
 1882 049a 17       		.uleb128 0x17
 1883 049b 74040000 		.4byte	.LASF50
 1884 049f 01       		.byte	0x1
 1885 04a0 CB01     		.2byte	0x1cb
 1886 04a2 6B000000 		.4byte	0x6b
 1887 04a6 34000000 		.4byte	.LLST2
 1888 04aa 15       		.uleb128 0x15
 1889 04ab 80000000 		.4byte	.LVL24
 1890 04af A0090000 		.4byte	0x9a0
 1891 04b3 14       		.uleb128 0x14
 1892 04b4 01       		.uleb128 0x1
 1893 04b5 50       		.byte	0x50
 1894 04b6 01       		.uleb128 0x1
 1895 04b7 31       		.byte	0x31
 1896 04b8 00       		.byte	0
 1897 04b9 00       		.byte	0
 1898 04ba 10       		.uleb128 0x10
 1899 04bb AE030000 		.4byte	.LASF51
 1900 04bf 01       		.byte	0x1
 1901 04c0 B9       		.byte	0xb9
 1902 04c1 00000000 		.4byte	.LFB0
 1903 04c5 24000000 		.4byte	.LFE0-.LFB0
 1904 04c9 01       		.uleb128 0x1
 1905 04ca 9C       		.byte	0x9c
 1906 04cb 0D050000 		.4byte	0x50d
 1907 04cf 18       		.uleb128 0x18
 1908 04d0 C2000000 		.4byte	.LASF49
 1909 04d4 01       		.byte	0x1
 1910 04d5 B9       		.byte	0xb9
 1911 04d6 6B000000 		.4byte	0x6b
 1912 04da 55000000 		.4byte	.LLST3
 1913 04de 18       		.uleb128 0x18
 1914 04df 74040000 		.4byte	.LASF50
 1915 04e3 01       		.byte	0x1
 1916 04e4 B9       		.byte	0xb9
 1917 04e5 6B000000 		.4byte	0x6b
 1918 04e9 76000000 		.4byte	.LLST4
 1919 04ed 12       		.uleb128 0x12
 1920 04ee 10000000 		.4byte	.LVL26
 1921 04f2 B6020000 		.4byte	0x2b6
 1922 04f6 15       		.uleb128 0x15
 1923 04f7 1E000000 		.4byte	.LVL27
 1924 04fb 74040000 		.4byte	0x474
 1925 04ff 14       		.uleb128 0x14
 1926 0500 01       		.uleb128 0x1
 1927 0501 51       		.byte	0x51
 1928 0502 02       		.uleb128 0x2
 1929 0503 74       		.byte	0x74
ARM GAS  C:\Users\Thomas\AppData\Local\Temp\ccHSNeoG.s 			page 79


 1930 0504 00       		.sleb128 0
 1931 0505 14       		.uleb128 0x14
 1932 0506 01       		.uleb128 0x1
 1933 0507 50       		.byte	0x50
 1934 0508 02       		.uleb128 0x2
 1935 0509 75       		.byte	0x75
 1936 050a 00       		.sleb128 0
 1937 050b 00       		.byte	0
 1938 050c 00       		.byte	0
 1939 050d 19       		.uleb128 0x19
 1940 050e FE000000 		.4byte	.LASF78
 1941 0512 01       		.byte	0x1
 1942 0513 9E02     		.2byte	0x29e
 1943 0515 00000000 		.4byte	.LFB3
 1944 0519 4C000000 		.4byte	.LFE3-.LFB3
 1945 051d 01       		.uleb128 0x1
 1946 051e 9C       		.byte	0x9c
 1947 051f 16       		.uleb128 0x16
 1948 0520 F4030000 		.4byte	.LASF52
 1949 0524 01       		.byte	0x1
 1950 0525 D802     		.2byte	0x2d8
 1951 0527 00000000 		.4byte	.LFB4
 1952 052b 94000000 		.4byte	.LFE4-.LFB4
 1953 052f 01       		.uleb128 0x1
 1954 0530 9C       		.byte	0x9c
 1955 0531 58050000 		.4byte	0x558
 1956 0535 1A       		.uleb128 0x1a
 1957 0536 0A050000 		.4byte	.LASF53
 1958 053a 01       		.byte	0x1
 1959 053b DA02     		.2byte	0x2da
 1960 053d 6B000000 		.4byte	0x6b
 1961 0541 97000000 		.4byte	.LLST5
 1962 0545 12       		.uleb128 0x12
 1963 0546 06000000 		.4byte	.LVL28
 1964 054a 43090000 		.4byte	0x943
 1965 054e 12       		.uleb128 0x12
 1966 054f 36000000 		.4byte	.LVL29
 1967 0553 5F090000 		.4byte	0x95f
 1968 0557 00       		.byte	0
 1969 0558 1B       		.uleb128 0x1b
 1970 0559 25040000 		.4byte	.LASF55
 1971 055d 01       		.byte	0x1
 1972 055e 4303     		.2byte	0x343
 1973 0560 6B000000 		.4byte	0x6b
 1974 0564 00000000 		.4byte	.LFB5
 1975 0568 20000000 		.4byte	.LFE5-.LFB5
 1976 056c 01       		.uleb128 0x1
 1977 056d 9C       		.byte	0x9c
 1978 056e 83050000 		.4byte	0x583
 1979 0572 1A       		.uleb128 0x1a
 1980 0573 15030000 		.4byte	.LASF54
 1981 0577 01       		.byte	0x1
 1982 0578 4503     		.2byte	0x345
 1983 057a 6B000000 		.4byte	0x6b
 1984 057e AA000000 		.4byte	.LLST6
 1985 0582 00       		.byte	0
 1986 0583 1C       		.uleb128 0x1c
ARM GAS  C:\Users\Thomas\AppData\Local\Temp\ccHSNeoG.s 			page 80


 1987 0584 C8050000 		.4byte	.LASF76
 1988 0588 01       		.byte	0x1
 1989 0589 5A03     		.2byte	0x35a
 1990 058b 6B000000 		.4byte	0x6b
 1991 058f 00000000 		.4byte	.LFB6
 1992 0593 0C000000 		.4byte	.LFE6-.LFB6
 1993 0597 01       		.uleb128 0x1
 1994 0598 9C       		.byte	0x9c
 1995 0599 1B       		.uleb128 0x1b
 1996 059a 79060000 		.4byte	.LASF56
 1997 059e 01       		.byte	0x1
 1998 059f 7403     		.2byte	0x374
 1999 05a1 6B000000 		.4byte	0x6b
 2000 05a5 00000000 		.4byte	.LFB7
 2001 05a9 20000000 		.4byte	.LFE7-.LFB7
 2002 05ad 01       		.uleb128 0x1
 2003 05ae 9C       		.byte	0x9c
 2004 05af C4050000 		.4byte	0x5c4
 2005 05b3 1D       		.uleb128 0x1d
 2006 05b4 72657300 		.ascii	"res\000"
 2007 05b8 01       		.byte	0x1
 2008 05b9 7603     		.2byte	0x376
 2009 05bb 6B000000 		.4byte	0x6b
 2010 05bf BD000000 		.4byte	.LLST7
 2011 05c3 00       		.byte	0
 2012 05c4 1B       		.uleb128 0x1b
 2013 05c5 42000000 		.4byte	.LASF57
 2014 05c9 01       		.byte	0x1
 2015 05ca 9103     		.2byte	0x391
 2016 05cc 6B000000 		.4byte	0x6b
 2017 05d0 00000000 		.4byte	.LFB8
 2018 05d4 0C000000 		.4byte	.LFE8-.LFB8
 2019 05d8 01       		.uleb128 0x1
 2020 05d9 9C       		.byte	0x9c
 2021 05da EF050000 		.4byte	0x5ef
 2022 05de 17       		.uleb128 0x17
 2023 05df CF040000 		.4byte	.LASF58
 2024 05e3 01       		.byte	0x1
 2025 05e4 9103     		.2byte	0x391
 2026 05e6 6B000000 		.4byte	0x6b
 2027 05ea F3000000 		.4byte	.LLST8
 2028 05ee 00       		.byte	0
 2029 05ef 1B       		.uleb128 0x1b
 2030 05f0 74010000 		.4byte	.LASF59
 2031 05f4 01       		.byte	0x1
 2032 05f5 B103     		.2byte	0x3b1
 2033 05f7 6B000000 		.4byte	0x6b
 2034 05fb 00000000 		.4byte	.LFB9
 2035 05ff 14000000 		.4byte	.LFE9-.LFB9
 2036 0603 01       		.uleb128 0x1
 2037 0604 9C       		.byte	0x9c
 2038 0605 1A060000 		.4byte	0x61a
 2039 0609 17       		.uleb128 0x17
 2040 060a 9A000000 		.4byte	.LASF60
 2041 060e 01       		.byte	0x1
 2042 060f B103     		.2byte	0x3b1
 2043 0611 6B000000 		.4byte	0x6b
ARM GAS  C:\Users\Thomas\AppData\Local\Temp\ccHSNeoG.s 			page 81


 2044 0615 14010000 		.4byte	.LLST9
 2045 0619 00       		.byte	0
 2046 061a 1B       		.uleb128 0x1b
 2047 061b 84020000 		.4byte	.LASF61
 2048 061f 01       		.byte	0x1
 2049 0620 C803     		.2byte	0x3c8
 2050 0622 77000000 		.4byte	0x77
 2051 0626 00000000 		.4byte	.LFB10
 2052 062a 28000000 		.4byte	.LFE10-.LFB10
 2053 062e 01       		.uleb128 0x1
 2054 062f 9C       		.byte	0x9c
 2055 0630 55060000 		.4byte	0x655
 2056 0634 17       		.uleb128 0x17
 2057 0635 9A000000 		.4byte	.LASF60
 2058 0639 01       		.byte	0x1
 2059 063a C803     		.2byte	0x3c8
 2060 063c 6B000000 		.4byte	0x6b
 2061 0640 35010000 		.4byte	.LLST10
 2062 0644 1A       		.uleb128 0x1a
 2063 0645 F9000000 		.4byte	.LASF62
 2064 0649 01       		.byte	0x1
 2065 064a CA03     		.2byte	0x3ca
 2066 064c 77000000 		.4byte	0x77
 2067 0650 6F010000 		.4byte	.LLST11
 2068 0654 00       		.byte	0
 2069 0655 16       		.uleb128 0x16
 2070 0656 F7040000 		.4byte	.LASF63
 2071 065a 01       		.byte	0x1
 2072 065b 3005     		.2byte	0x530
 2073 065d 00000000 		.4byte	.LFB11
 2074 0661 94000000 		.4byte	.LFE11-.LFB11
 2075 0665 01       		.uleb128 0x1
 2076 0666 9C       		.byte	0x9c
 2077 0667 AE060000 		.4byte	0x6ae
 2078 066b 17       		.uleb128 0x17
 2079 066c 9A000000 		.4byte	.LASF60
 2080 0670 01       		.byte	0x1
 2081 0671 3005     		.2byte	0x530
 2082 0673 6B000000 		.4byte	0x6b
 2083 0677 BD010000 		.4byte	.LLST12
 2084 067b 1E       		.uleb128 0x1e
 2085 067c 5E010000 		.4byte	.LASF64
 2086 0680 01       		.byte	0x1
 2087 0681 3005     		.2byte	0x530
 2088 0683 AE060000 		.4byte	0x6ae
 2089 0687 01       		.uleb128 0x1
 2090 0688 51       		.byte	0x51
 2091 0689 17       		.uleb128 0x17
 2092 068a 68040000 		.4byte	.LASF65
 2093 068e 01       		.byte	0x1
 2094 068f 3005     		.2byte	0x530
 2095 0691 77000000 		.4byte	0x77
 2096 0695 DE010000 		.4byte	.LLST13
 2097 0699 1F       		.uleb128 0x1f
 2098 069a 00000000 		.4byte	.Ldebug_ranges0+0
 2099 069e 1D       		.uleb128 0x1d
 2100 069f 6900     		.ascii	"i\000"
ARM GAS  C:\Users\Thomas\AppData\Local\Temp\ccHSNeoG.s 			page 82


 2101 06a1 01       		.byte	0x1
 2102 06a2 4505     		.2byte	0x545
 2103 06a4 77000000 		.4byte	0x77
 2104 06a8 0A020000 		.4byte	.LLST14
 2105 06ac 00       		.byte	0
 2106 06ad 00       		.byte	0
 2107 06ae 06       		.uleb128 0x6
 2108 06af 04       		.byte	0x4
 2109 06b0 B4060000 		.4byte	0x6b4
 2110 06b4 20       		.uleb128 0x20
 2111 06b5 6B000000 		.4byte	0x6b
 2112 06b9 16       		.uleb128 0x16
 2113 06ba E3000000 		.4byte	.LASF66
 2114 06be 01       		.byte	0x1
 2115 06bf C708     		.2byte	0x8c7
 2116 06c1 00000000 		.4byte	.LFB13
 2117 06c5 2C000000 		.4byte	.LFE13-.LFB13
 2118 06c9 01       		.uleb128 0x1
 2119 06ca 9C       		.byte	0x9c
 2120 06cb E0060000 		.4byte	0x6e0
 2121 06cf 17       		.uleb128 0x17
 2122 06d0 9A000000 		.4byte	.LASF60
 2123 06d4 01       		.byte	0x1
 2124 06d5 C708     		.2byte	0x8c7
 2125 06d7 6B000000 		.4byte	0x6b
 2126 06db 33020000 		.4byte	.LLST15
 2127 06df 00       		.byte	0
 2128 06e0 1B       		.uleb128 0x1b
 2129 06e1 48020000 		.4byte	.LASF67
 2130 06e5 01       		.byte	0x1
 2131 06e6 6306     		.2byte	0x663
 2132 06e8 77000000 		.4byte	0x77
 2133 06ec 00000000 		.4byte	.LFB12
 2134 06f0 50000000 		.4byte	.LFE12-.LFB12
 2135 06f4 01       		.uleb128 0x1
 2136 06f5 9C       		.byte	0x9c
 2137 06f6 7F070000 		.4byte	0x77f
 2138 06fa 17       		.uleb128 0x17
 2139 06fb 9A000000 		.4byte	.LASF60
 2140 06ff 01       		.byte	0x1
 2141 0700 6306     		.2byte	0x663
 2142 0702 6B000000 		.4byte	0x6b
 2143 0706 54020000 		.4byte	.LLST16
 2144 070a 17       		.uleb128 0x17
 2145 070b 5E010000 		.4byte	.LASF64
 2146 070f 01       		.byte	0x1
 2147 0710 6306     		.2byte	0x663
 2148 0712 7F070000 		.4byte	0x77f
 2149 0716 8E020000 		.4byte	.LLST17
 2150 071a 17       		.uleb128 0x17
 2151 071b 68040000 		.4byte	.LASF65
 2152 071f 01       		.byte	0x1
 2153 0720 6306     		.2byte	0x663
 2154 0722 77000000 		.4byte	0x77
 2155 0726 C5020000 		.4byte	.LLST18
 2156 072a 21       		.uleb128 0x21
 2157 072b 20000000 		.4byte	.LBB4
ARM GAS  C:\Users\Thomas\AppData\Local\Temp\ccHSNeoG.s 			page 83


 2158 072f 14000000 		.4byte	.LBE4-.LBB4
 2159 0733 46070000 		.4byte	0x746
 2160 0737 1D       		.uleb128 0x1d
 2161 0738 6900     		.ascii	"i\000"
 2162 073a 01       		.byte	0x1
 2163 073b 7006     		.2byte	0x670
 2164 073d 77000000 		.4byte	0x77
 2165 0741 07030000 		.4byte	.LLST19
 2166 0745 00       		.byte	0
 2167 0746 13       		.uleb128 0x13
 2168 0747 14000000 		.4byte	.LVL62
 2169 074b 1A060000 		.4byte	0x61a
 2170 074f 5A070000 		.4byte	0x75a
 2171 0753 14       		.uleb128 0x14
 2172 0754 01       		.uleb128 0x1
 2173 0755 50       		.byte	0x50
 2174 0756 02       		.uleb128 0x2
 2175 0757 75       		.byte	0x75
 2176 0758 00       		.sleb128 0
 2177 0759 00       		.byte	0
 2178 075a 13       		.uleb128 0x13
 2179 075b 1E000000 		.4byte	.LVL63
 2180 075f 1A060000 		.4byte	0x61a
 2181 0763 6E070000 		.4byte	0x76e
 2182 0767 14       		.uleb128 0x14
 2183 0768 01       		.uleb128 0x1
 2184 0769 50       		.byte	0x50
 2185 076a 02       		.uleb128 0x2
 2186 076b 75       		.byte	0x75
 2187 076c 00       		.sleb128 0
 2188 076d 00       		.byte	0
 2189 076e 15       		.uleb128 0x15
 2190 076f 3A000000 		.4byte	.LVL68
 2191 0773 B9060000 		.4byte	0x6b9
 2192 0777 14       		.uleb128 0x14
 2193 0778 01       		.uleb128 0x1
 2194 0779 50       		.byte	0x50
 2195 077a 02       		.uleb128 0x2
 2196 077b 75       		.byte	0x75
 2197 077c 00       		.sleb128 0
 2198 077d 00       		.byte	0
 2199 077e 00       		.byte	0
 2200 077f 06       		.uleb128 0x6
 2201 0780 04       		.byte	0x4
 2202 0781 6B000000 		.4byte	0x6b
 2203 0785 16       		.uleb128 0x16
 2204 0786 42040000 		.4byte	.LASF68
 2205 078a 01       		.byte	0x1
 2206 078b DF08     		.2byte	0x8df
 2207 078d 00000000 		.4byte	.LFB14
 2208 0791 18000000 		.4byte	.LFE14-.LFB14
 2209 0795 01       		.uleb128 0x1
 2210 0796 9C       		.byte	0x9c
 2211 0797 AC070000 		.4byte	0x7ac
 2212 079b 17       		.uleb128 0x17
 2213 079c 9A000000 		.4byte	.LASF60
 2214 07a0 01       		.byte	0x1
ARM GAS  C:\Users\Thomas\AppData\Local\Temp\ccHSNeoG.s 			page 84


 2215 07a1 DF08     		.2byte	0x8df
 2216 07a3 6B000000 		.4byte	0x6b
 2217 07a7 31030000 		.4byte	.LLST20
 2218 07ab 00       		.byte	0
 2219 07ac 16       		.uleb128 0x16
 2220 07ad FB050000 		.4byte	.LASF69
 2221 07b1 01       		.byte	0x1
 2222 07b2 FD08     		.2byte	0x8fd
 2223 07b4 00000000 		.4byte	.LFB15
 2224 07b8 0C000000 		.4byte	.LFE15-.LFB15
 2225 07bc 01       		.uleb128 0x1
 2226 07bd 9C       		.byte	0x9c
 2227 07be D1070000 		.4byte	0x7d1
 2228 07c2 1E       		.uleb128 0x1e
 2229 07c3 61040000 		.4byte	.LASF70
 2230 07c7 01       		.byte	0x1
 2231 07c8 FD08     		.2byte	0x8fd
 2232 07ca 6B000000 		.4byte	0x6b
 2233 07ce 01       		.uleb128 0x1
 2234 07cf 50       		.byte	0x50
 2235 07d0 00       		.byte	0
 2236 07d1 1B       		.uleb128 0x1b
 2237 07d2 82000000 		.4byte	.LASF71
 2238 07d6 01       		.byte	0x1
 2239 07d7 1609     		.2byte	0x916
 2240 07d9 6B000000 		.4byte	0x6b
 2241 07dd 00000000 		.4byte	.LFB16
 2242 07e1 20000000 		.4byte	.LFE16-.LFB16
 2243 07e5 01       		.uleb128 0x1
 2244 07e6 9C       		.byte	0x9c
 2245 07e7 0B080000 		.4byte	0x80b
 2246 07eb 17       		.uleb128 0x17
 2247 07ec 9A000000 		.4byte	.LASF60
 2248 07f0 01       		.byte	0x1
 2249 07f1 1609     		.2byte	0x916
 2250 07f3 6B000000 		.4byte	0x6b
 2251 07f7 52030000 		.4byte	.LLST21
 2252 07fb 1D       		.uleb128 0x1d
 2253 07fc 637200   		.ascii	"cr\000"
 2254 07ff 01       		.byte	0x1
 2255 0800 1809     		.2byte	0x918
 2256 0802 6B000000 		.4byte	0x6b
 2257 0806 8C030000 		.4byte	.LLST22
 2258 080a 00       		.byte	0
 2259 080b 16       		.uleb128 0x16
 2260 080c 1C020000 		.4byte	.LASF72
 2261 0810 01       		.byte	0x1
 2262 0811 3F09     		.2byte	0x93f
 2263 0813 00000000 		.4byte	.LFB17
 2264 0817 20000000 		.4byte	.LFE17-.LFB17
 2265 081b 01       		.uleb128 0x1
 2266 081c 9C       		.byte	0x9c
 2267 081d 30080000 		.4byte	0x830
 2268 0821 1E       		.uleb128 0x1e
 2269 0822 46010000 		.4byte	.LASF73
 2270 0826 01       		.byte	0x1
 2271 0827 3F09     		.2byte	0x93f
ARM GAS  C:\Users\Thomas\AppData\Local\Temp\ccHSNeoG.s 			page 85


 2272 0829 6B000000 		.4byte	0x6b
 2273 082d 01       		.uleb128 0x1
 2274 082e 50       		.byte	0x50
 2275 082f 00       		.byte	0
 2276 0830 1B       		.uleb128 0x1b
 2277 0831 CC030000 		.4byte	.LASF74
 2278 0835 01       		.byte	0x1
 2279 0836 7809     		.2byte	0x978
 2280 0838 6B000000 		.4byte	0x6b
 2281 083c 00000000 		.4byte	.LFB18
 2282 0840 18000000 		.4byte	.LFE18-.LFB18
 2283 0844 01       		.uleb128 0x1
 2284 0845 9C       		.byte	0x9c
 2285 0846 5B080000 		.4byte	0x85b
 2286 084a 1A       		.uleb128 0x1a
 2287 084b 72060000 		.4byte	.LASF75
 2288 084f 01       		.byte	0x1
 2289 0850 7A09     		.2byte	0x97a
 2290 0852 6B000000 		.4byte	0x6b
 2291 0856 C2030000 		.4byte	.LLST23
 2292 085a 00       		.byte	0
 2293 085b 1C       		.uleb128 0x1c
 2294 085c 86040000 		.4byte	.LASF77
 2295 0860 01       		.byte	0x1
 2296 0861 9009     		.2byte	0x990
 2297 0863 6B000000 		.4byte	0x6b
 2298 0867 00000000 		.4byte	.LFB19
 2299 086b 10000000 		.4byte	.LFE19-.LFB19
 2300 086f 01       		.uleb128 0x1
 2301 0870 9C       		.byte	0x9c
 2302 0871 19       		.uleb128 0x19
 2303 0872 4E060000 		.4byte	.LASF79
 2304 0876 01       		.byte	0x1
 2305 0877 9E09     		.2byte	0x99e
 2306 0879 00000000 		.4byte	.LFB20
 2307 087d 10000000 		.4byte	.LFE20-.LFB20
 2308 0881 01       		.uleb128 0x1
 2309 0882 9C       		.byte	0x9c
 2310 0883 19       		.uleb128 0x19
 2311 0884 B7040000 		.4byte	.LASF80
 2312 0888 01       		.byte	0x1
 2313 0889 B409     		.2byte	0x9b4
 2314 088b 00000000 		.4byte	.LFB21
 2315 088f 10000000 		.4byte	.LFE21-.LFB21
 2316 0893 01       		.uleb128 0x1
 2317 0894 9C       		.byte	0x9c
 2318 0895 22       		.uleb128 0x22
 2319 0896 0A020000 		.4byte	.LASF81
 2320 089a 01       		.byte	0x1
 2321 089b 27       		.byte	0x27
 2322 089c 6B000000 		.4byte	0x6b
 2323 08a0 05       		.uleb128 0x5
 2324 08a1 03       		.byte	0x3
 2325 08a2 00000000 		.4byte	USBUART_1_initVar
 2326 08a6 23       		.uleb128 0x23
 2327 08a7 22000000 		.4byte	.LASF82
 2328 08ab 03       		.byte	0x3
ARM GAS  C:\Users\Thomas\AppData\Local\Temp\ccHSNeoG.s 			page 86


 2329 08ac D202     		.2byte	0x2d2
 2330 08ae B0000000 		.4byte	0xb0
 2331 08b2 23       		.uleb128 0x23
 2332 08b3 E3050000 		.4byte	.LASF83
 2333 08b7 03       		.byte	0x3
 2334 08b8 D302     		.2byte	0x2d3
 2335 08ba B0000000 		.4byte	0xb0
 2336 08be 23       		.uleb128 0x23
 2337 08bf 42030000 		.4byte	.LASF84
 2338 08c3 03       		.byte	0x3
 2339 08c4 D402     		.2byte	0x2d4
 2340 08c6 B0000000 		.4byte	0xb0
 2341 08ca 23       		.uleb128 0x23
 2342 08cb A3000000 		.4byte	.LASF85
 2343 08cf 03       		.byte	0x3
 2344 08d0 D502     		.2byte	0x2d5
 2345 08d2 B0000000 		.4byte	0xb0
 2346 08d6 23       		.uleb128 0x23
 2347 08d7 D4010000 		.4byte	.LASF86
 2348 08db 03       		.byte	0x3
 2349 08dc D602     		.2byte	0x2d6
 2350 08de B0000000 		.4byte	0xb0
 2351 08e2 24       		.uleb128 0x24
 2352 08e3 1B050000 		.4byte	.LASF87
 2353 08e7 04       		.byte	0x4
 2354 08e8 72       		.byte	0x72
 2355 08e9 B0000000 		.4byte	0xb0
 2356 08ed 0C       		.uleb128 0xc
 2357 08ee 6B000000 		.4byte	0x6b
 2358 08f2 FD080000 		.4byte	0x8fd
 2359 08f6 0D       		.uleb128 0xd
 2360 08f7 D9000000 		.4byte	0xd9
 2361 08fb 01       		.byte	0x1
 2362 08fc 00       		.byte	0
 2363 08fd 24       		.uleb128 0x24
 2364 08fe 07000000 		.4byte	.LASF88
 2365 0902 04       		.byte	0x4
 2366 0903 73       		.byte	0x73
 2367 0904 08090000 		.4byte	0x908
 2368 0908 05       		.uleb128 0x5
 2369 0909 ED080000 		.4byte	0x8ed
 2370 090d 24       		.uleb128 0x24
 2371 090e B0020000 		.4byte	.LASF89
 2372 0912 04       		.byte	0x4
 2373 0913 75       		.byte	0x75
 2374 0914 B0000000 		.4byte	0xb0
 2375 0918 0C       		.uleb128 0xc
 2376 0919 55010000 		.4byte	0x155
 2377 091d 28090000 		.4byte	0x928
 2378 0921 0D       		.uleb128 0xd
 2379 0922 D9000000 		.4byte	0xd9
 2380 0926 08       		.byte	0x8
 2381 0927 00       		.byte	0
 2382 0928 24       		.uleb128 0x24
 2383 0929 65060000 		.4byte	.LASF90
 2384 092d 04       		.byte	0x4
 2385 092e 79       		.byte	0x79
ARM GAS  C:\Users\Thomas\AppData\Local\Temp\ccHSNeoG.s 			page 87


 2386 092f 33090000 		.4byte	0x933
 2387 0933 05       		.uleb128 0x5
 2388 0934 18090000 		.4byte	0x918
 2389 0938 24       		.uleb128 0x24
 2390 0939 6B020000 		.4byte	.LASF91
 2391 093d 04       		.byte	0x4
 2392 093e 9B       		.byte	0x9b
 2393 093f B0000000 		.4byte	0xb0
 2394 0943 25       		.uleb128 0x25
 2395 0944 99020000 		.4byte	.LASF98
 2396 0948 05       		.byte	0x5
 2397 0949 7E       		.byte	0x7e
 2398 094a 6B000000 		.4byte	0x6b
 2399 094e 26       		.uleb128 0x26
 2400 094f 35010000 		.4byte	.LASF92
 2401 0953 05       		.byte	0x5
 2402 0954 78       		.byte	0x78
 2403 0955 5F090000 		.4byte	0x95f
 2404 0959 27       		.uleb128 0x27
 2405 095a 77000000 		.4byte	0x77
 2406 095e 00       		.byte	0
 2407 095f 26       		.uleb128 0x26
 2408 0960 8D030000 		.4byte	.LASF93
 2409 0964 05       		.byte	0x5
 2410 0965 7F       		.byte	0x7f
 2411 0966 70090000 		.4byte	0x970
 2412 096a 27       		.uleb128 0x27
 2413 096b 6B000000 		.4byte	0x6b
 2414 096f 00       		.byte	0
 2415 0970 26       		.uleb128 0x26
 2416 0971 70030000 		.4byte	.LASF94
 2417 0975 05       		.byte	0x5
 2418 0976 8C       		.byte	0x8c
 2419 0977 86090000 		.4byte	0x986
 2420 097b 27       		.uleb128 0x27
 2421 097c 6B000000 		.4byte	0x6b
 2422 0980 27       		.uleb128 0x27
 2423 0981 6B000000 		.4byte	0x6b
 2424 0985 00       		.byte	0
 2425 0986 28       		.uleb128 0x28
 2426 0987 5C020000 		.4byte	.LASF99
 2427 098b 05       		.byte	0x5
 2428 098c 89       		.byte	0x89
 2429 098d C6000000 		.4byte	0xc6
 2430 0991 A0090000 		.4byte	0x9a0
 2431 0995 27       		.uleb128 0x27
 2432 0996 6B000000 		.4byte	0x6b
 2433 099a 27       		.uleb128 0x27
 2434 099b C6000000 		.4byte	0xc6
 2435 099f 00       		.byte	0
 2436 09a0 29       		.uleb128 0x29
 2437 09a1 BE030000 		.4byte	.LASF100
 2438 09a5 05       		.byte	0x5
 2439 09a6 7A       		.byte	0x7a
 2440 09a7 27       		.uleb128 0x27
 2441 09a8 83000000 		.4byte	0x83
 2442 09ac 00       		.byte	0
ARM GAS  C:\Users\Thomas\AppData\Local\Temp\ccHSNeoG.s 			page 88


 2443 09ad 00       		.byte	0
 2444              		.section	.debug_abbrev,"",%progbits
 2445              	.Ldebug_abbrev0:
 2446 0000 01       		.uleb128 0x1
 2447 0001 11       		.uleb128 0x11
 2448 0002 01       		.byte	0x1
 2449 0003 25       		.uleb128 0x25
 2450 0004 0E       		.uleb128 0xe
 2451 0005 13       		.uleb128 0x13
 2452 0006 0B       		.uleb128 0xb
 2453 0007 03       		.uleb128 0x3
 2454 0008 0E       		.uleb128 0xe
 2455 0009 1B       		.uleb128 0x1b
 2456 000a 0E       		.uleb128 0xe
 2457 000b 55       		.uleb128 0x55
 2458 000c 17       		.uleb128 0x17
 2459 000d 11       		.uleb128 0x11
 2460 000e 01       		.uleb128 0x1
 2461 000f 10       		.uleb128 0x10
 2462 0010 17       		.uleb128 0x17
 2463 0011 00       		.byte	0
 2464 0012 00       		.byte	0
 2465 0013 02       		.uleb128 0x2
 2466 0014 24       		.uleb128 0x24
 2467 0015 00       		.byte	0
 2468 0016 0B       		.uleb128 0xb
 2469 0017 0B       		.uleb128 0xb
 2470 0018 3E       		.uleb128 0x3e
 2471 0019 0B       		.uleb128 0xb
 2472 001a 03       		.uleb128 0x3
 2473 001b 0E       		.uleb128 0xe
 2474 001c 00       		.byte	0
 2475 001d 00       		.byte	0
 2476 001e 03       		.uleb128 0x3
 2477 001f 24       		.uleb128 0x24
 2478 0020 00       		.byte	0
 2479 0021 0B       		.uleb128 0xb
 2480 0022 0B       		.uleb128 0xb
 2481 0023 3E       		.uleb128 0x3e
 2482 0024 0B       		.uleb128 0xb
 2483 0025 03       		.uleb128 0x3
 2484 0026 08       		.uleb128 0x8
 2485 0027 00       		.byte	0
 2486 0028 00       		.byte	0
 2487 0029 04       		.uleb128 0x4
 2488 002a 16       		.uleb128 0x16
 2489 002b 00       		.byte	0
 2490 002c 03       		.uleb128 0x3
 2491 002d 0E       		.uleb128 0xe
 2492 002e 3A       		.uleb128 0x3a
 2493 002f 0B       		.uleb128 0xb
 2494 0030 3B       		.uleb128 0x3b
 2495 0031 05       		.uleb128 0x5
 2496 0032 49       		.uleb128 0x49
 2497 0033 13       		.uleb128 0x13
 2498 0034 00       		.byte	0
 2499 0035 00       		.byte	0
ARM GAS  C:\Users\Thomas\AppData\Local\Temp\ccHSNeoG.s 			page 89


 2500 0036 05       		.uleb128 0x5
 2501 0037 35       		.uleb128 0x35
 2502 0038 00       		.byte	0
 2503 0039 49       		.uleb128 0x49
 2504 003a 13       		.uleb128 0x13
 2505 003b 00       		.byte	0
 2506 003c 00       		.byte	0
 2507 003d 06       		.uleb128 0x6
 2508 003e 0F       		.uleb128 0xf
 2509 003f 00       		.byte	0
 2510 0040 0B       		.uleb128 0xb
 2511 0041 0B       		.uleb128 0xb
 2512 0042 49       		.uleb128 0x49
 2513 0043 13       		.uleb128 0x13
 2514 0044 00       		.byte	0
 2515 0045 00       		.byte	0
 2516 0046 07       		.uleb128 0x7
 2517 0047 15       		.uleb128 0x15
 2518 0048 00       		.byte	0
 2519 0049 27       		.uleb128 0x27
 2520 004a 19       		.uleb128 0x19
 2521 004b 00       		.byte	0
 2522 004c 00       		.byte	0
 2523 004d 08       		.uleb128 0x8
 2524 004e 13       		.uleb128 0x13
 2525 004f 01       		.byte	0x1
 2526 0050 0B       		.uleb128 0xb
 2527 0051 0B       		.uleb128 0xb
 2528 0052 3A       		.uleb128 0x3a
 2529 0053 0B       		.uleb128 0xb
 2530 0054 3B       		.uleb128 0x3b
 2531 0055 0B       		.uleb128 0xb
 2532 0056 01       		.uleb128 0x1
 2533 0057 13       		.uleb128 0x13
 2534 0058 00       		.byte	0
 2535 0059 00       		.byte	0
 2536 005a 09       		.uleb128 0x9
 2537 005b 0D       		.uleb128 0xd
 2538 005c 00       		.byte	0
 2539 005d 03       		.uleb128 0x3
 2540 005e 0E       		.uleb128 0xe
 2541 005f 3A       		.uleb128 0x3a
 2542 0060 0B       		.uleb128 0xb
 2543 0061 3B       		.uleb128 0x3b
 2544 0062 0B       		.uleb128 0xb
 2545 0063 49       		.uleb128 0x49
 2546 0064 13       		.uleb128 0x13
 2547 0065 38       		.uleb128 0x38
 2548 0066 0B       		.uleb128 0xb
 2549 0067 00       		.byte	0
 2550 0068 00       		.byte	0
 2551 0069 0A       		.uleb128 0xa
 2552 006a 16       		.uleb128 0x16
 2553 006b 00       		.byte	0
 2554 006c 03       		.uleb128 0x3
 2555 006d 0E       		.uleb128 0xe
 2556 006e 3A       		.uleb128 0x3a
ARM GAS  C:\Users\Thomas\AppData\Local\Temp\ccHSNeoG.s 			page 90


 2557 006f 0B       		.uleb128 0xb
 2558 0070 3B       		.uleb128 0x3b
 2559 0071 0B       		.uleb128 0xb
 2560 0072 49       		.uleb128 0x49
 2561 0073 13       		.uleb128 0x13
 2562 0074 00       		.byte	0
 2563 0075 00       		.byte	0
 2564 0076 0B       		.uleb128 0xb
 2565 0077 0D       		.uleb128 0xd
 2566 0078 00       		.byte	0
 2567 0079 03       		.uleb128 0x3
 2568 007a 08       		.uleb128 0x8
 2569 007b 3A       		.uleb128 0x3a
 2570 007c 0B       		.uleb128 0xb
 2571 007d 3B       		.uleb128 0x3b
 2572 007e 0B       		.uleb128 0xb
 2573 007f 49       		.uleb128 0x49
 2574 0080 13       		.uleb128 0x13
 2575 0081 38       		.uleb128 0x38
 2576 0082 0B       		.uleb128 0xb
 2577 0083 00       		.byte	0
 2578 0084 00       		.byte	0
 2579 0085 0C       		.uleb128 0xc
 2580 0086 01       		.uleb128 0x1
 2581 0087 01       		.byte	0x1
 2582 0088 49       		.uleb128 0x49
 2583 0089 13       		.uleb128 0x13
 2584 008a 01       		.uleb128 0x1
 2585 008b 13       		.uleb128 0x13
 2586 008c 00       		.byte	0
 2587 008d 00       		.byte	0
 2588 008e 0D       		.uleb128 0xd
 2589 008f 21       		.uleb128 0x21
 2590 0090 00       		.byte	0
 2591 0091 49       		.uleb128 0x49
 2592 0092 13       		.uleb128 0x13
 2593 0093 2F       		.uleb128 0x2f
 2594 0094 0B       		.uleb128 0xb
 2595 0095 00       		.byte	0
 2596 0096 00       		.byte	0
 2597 0097 0E       		.uleb128 0xe
 2598 0098 13       		.uleb128 0x13
 2599 0099 01       		.byte	0x1
 2600 009a 0B       		.uleb128 0xb
 2601 009b 0B       		.uleb128 0xb
 2602 009c 3A       		.uleb128 0x3a
 2603 009d 0B       		.uleb128 0xb
 2604 009e 3B       		.uleb128 0x3b
 2605 009f 05       		.uleb128 0x5
 2606 00a0 01       		.uleb128 0x1
 2607 00a1 13       		.uleb128 0x13
 2608 00a2 00       		.byte	0
 2609 00a3 00       		.byte	0
 2610 00a4 0F       		.uleb128 0xf
 2611 00a5 0D       		.uleb128 0xd
 2612 00a6 00       		.byte	0
 2613 00a7 03       		.uleb128 0x3
ARM GAS  C:\Users\Thomas\AppData\Local\Temp\ccHSNeoG.s 			page 91


 2614 00a8 0E       		.uleb128 0xe
 2615 00a9 3A       		.uleb128 0x3a
 2616 00aa 0B       		.uleb128 0xb
 2617 00ab 3B       		.uleb128 0x3b
 2618 00ac 05       		.uleb128 0x5
 2619 00ad 49       		.uleb128 0x49
 2620 00ae 13       		.uleb128 0x13
 2621 00af 38       		.uleb128 0x38
 2622 00b0 0B       		.uleb128 0xb
 2623 00b1 00       		.byte	0
 2624 00b2 00       		.byte	0
 2625 00b3 10       		.uleb128 0x10
 2626 00b4 2E       		.uleb128 0x2e
 2627 00b5 01       		.byte	0x1
 2628 00b6 3F       		.uleb128 0x3f
 2629 00b7 19       		.uleb128 0x19
 2630 00b8 03       		.uleb128 0x3
 2631 00b9 0E       		.uleb128 0xe
 2632 00ba 3A       		.uleb128 0x3a
 2633 00bb 0B       		.uleb128 0xb
 2634 00bc 3B       		.uleb128 0x3b
 2635 00bd 0B       		.uleb128 0xb
 2636 00be 27       		.uleb128 0x27
 2637 00bf 19       		.uleb128 0x19
 2638 00c0 11       		.uleb128 0x11
 2639 00c1 01       		.uleb128 0x1
 2640 00c2 12       		.uleb128 0x12
 2641 00c3 06       		.uleb128 0x6
 2642 00c4 40       		.uleb128 0x40
 2643 00c5 18       		.uleb128 0x18
 2644 00c6 9742     		.uleb128 0x2117
 2645 00c8 19       		.uleb128 0x19
 2646 00c9 01       		.uleb128 0x1
 2647 00ca 13       		.uleb128 0x13
 2648 00cb 00       		.byte	0
 2649 00cc 00       		.byte	0
 2650 00cd 11       		.uleb128 0x11
 2651 00ce 34       		.uleb128 0x34
 2652 00cf 00       		.byte	0
 2653 00d0 03       		.uleb128 0x3
 2654 00d1 0E       		.uleb128 0xe
 2655 00d2 3A       		.uleb128 0x3a
 2656 00d3 0B       		.uleb128 0xb
 2657 00d4 3B       		.uleb128 0x3b
 2658 00d5 0B       		.uleb128 0xb
 2659 00d6 49       		.uleb128 0x49
 2660 00d7 13       		.uleb128 0x13
 2661 00d8 02       		.uleb128 0x2
 2662 00d9 17       		.uleb128 0x17
 2663 00da 00       		.byte	0
 2664 00db 00       		.byte	0
 2665 00dc 12       		.uleb128 0x12
 2666 00dd 898201   		.uleb128 0x4109
 2667 00e0 00       		.byte	0
 2668 00e1 11       		.uleb128 0x11
 2669 00e2 01       		.uleb128 0x1
 2670 00e3 31       		.uleb128 0x31
ARM GAS  C:\Users\Thomas\AppData\Local\Temp\ccHSNeoG.s 			page 92


 2671 00e4 13       		.uleb128 0x13
 2672 00e5 00       		.byte	0
 2673 00e6 00       		.byte	0
 2674 00e7 13       		.uleb128 0x13
 2675 00e8 898201   		.uleb128 0x4109
 2676 00eb 01       		.byte	0x1
 2677 00ec 11       		.uleb128 0x11
 2678 00ed 01       		.uleb128 0x1
 2679 00ee 31       		.uleb128 0x31
 2680 00ef 13       		.uleb128 0x13
 2681 00f0 01       		.uleb128 0x1
 2682 00f1 13       		.uleb128 0x13
 2683 00f2 00       		.byte	0
 2684 00f3 00       		.byte	0
 2685 00f4 14       		.uleb128 0x14
 2686 00f5 8A8201   		.uleb128 0x410a
 2687 00f8 00       		.byte	0
 2688 00f9 02       		.uleb128 0x2
 2689 00fa 18       		.uleb128 0x18
 2690 00fb 9142     		.uleb128 0x2111
 2691 00fd 18       		.uleb128 0x18
 2692 00fe 00       		.byte	0
 2693 00ff 00       		.byte	0
 2694 0100 15       		.uleb128 0x15
 2695 0101 898201   		.uleb128 0x4109
 2696 0104 01       		.byte	0x1
 2697 0105 11       		.uleb128 0x11
 2698 0106 01       		.uleb128 0x1
 2699 0107 31       		.uleb128 0x31
 2700 0108 13       		.uleb128 0x13
 2701 0109 00       		.byte	0
 2702 010a 00       		.byte	0
 2703 010b 16       		.uleb128 0x16
 2704 010c 2E       		.uleb128 0x2e
 2705 010d 01       		.byte	0x1
 2706 010e 3F       		.uleb128 0x3f
 2707 010f 19       		.uleb128 0x19
 2708 0110 03       		.uleb128 0x3
 2709 0111 0E       		.uleb128 0xe
 2710 0112 3A       		.uleb128 0x3a
 2711 0113 0B       		.uleb128 0xb
 2712 0114 3B       		.uleb128 0x3b
 2713 0115 05       		.uleb128 0x5
 2714 0116 27       		.uleb128 0x27
 2715 0117 19       		.uleb128 0x19
 2716 0118 11       		.uleb128 0x11
 2717 0119 01       		.uleb128 0x1
 2718 011a 12       		.uleb128 0x12
 2719 011b 06       		.uleb128 0x6
 2720 011c 40       		.uleb128 0x40
 2721 011d 18       		.uleb128 0x18
 2722 011e 9742     		.uleb128 0x2117
 2723 0120 19       		.uleb128 0x19
 2724 0121 01       		.uleb128 0x1
 2725 0122 13       		.uleb128 0x13
 2726 0123 00       		.byte	0
 2727 0124 00       		.byte	0
ARM GAS  C:\Users\Thomas\AppData\Local\Temp\ccHSNeoG.s 			page 93


 2728 0125 17       		.uleb128 0x17
 2729 0126 05       		.uleb128 0x5
 2730 0127 00       		.byte	0
 2731 0128 03       		.uleb128 0x3
 2732 0129 0E       		.uleb128 0xe
 2733 012a 3A       		.uleb128 0x3a
 2734 012b 0B       		.uleb128 0xb
 2735 012c 3B       		.uleb128 0x3b
 2736 012d 05       		.uleb128 0x5
 2737 012e 49       		.uleb128 0x49
 2738 012f 13       		.uleb128 0x13
 2739 0130 02       		.uleb128 0x2
 2740 0131 17       		.uleb128 0x17
 2741 0132 00       		.byte	0
 2742 0133 00       		.byte	0
 2743 0134 18       		.uleb128 0x18
 2744 0135 05       		.uleb128 0x5
 2745 0136 00       		.byte	0
 2746 0137 03       		.uleb128 0x3
 2747 0138 0E       		.uleb128 0xe
 2748 0139 3A       		.uleb128 0x3a
 2749 013a 0B       		.uleb128 0xb
 2750 013b 3B       		.uleb128 0x3b
 2751 013c 0B       		.uleb128 0xb
 2752 013d 49       		.uleb128 0x49
 2753 013e 13       		.uleb128 0x13
 2754 013f 02       		.uleb128 0x2
 2755 0140 17       		.uleb128 0x17
 2756 0141 00       		.byte	0
 2757 0142 00       		.byte	0
 2758 0143 19       		.uleb128 0x19
 2759 0144 2E       		.uleb128 0x2e
 2760 0145 00       		.byte	0
 2761 0146 3F       		.uleb128 0x3f
 2762 0147 19       		.uleb128 0x19
 2763 0148 03       		.uleb128 0x3
 2764 0149 0E       		.uleb128 0xe
 2765 014a 3A       		.uleb128 0x3a
 2766 014b 0B       		.uleb128 0xb
 2767 014c 3B       		.uleb128 0x3b
 2768 014d 05       		.uleb128 0x5
 2769 014e 27       		.uleb128 0x27
 2770 014f 19       		.uleb128 0x19
 2771 0150 11       		.uleb128 0x11
 2772 0151 01       		.uleb128 0x1
 2773 0152 12       		.uleb128 0x12
 2774 0153 06       		.uleb128 0x6
 2775 0154 40       		.uleb128 0x40
 2776 0155 18       		.uleb128 0x18
 2777 0156 9742     		.uleb128 0x2117
 2778 0158 19       		.uleb128 0x19
 2779 0159 00       		.byte	0
 2780 015a 00       		.byte	0
 2781 015b 1A       		.uleb128 0x1a
 2782 015c 34       		.uleb128 0x34
 2783 015d 00       		.byte	0
 2784 015e 03       		.uleb128 0x3
ARM GAS  C:\Users\Thomas\AppData\Local\Temp\ccHSNeoG.s 			page 94


 2785 015f 0E       		.uleb128 0xe
 2786 0160 3A       		.uleb128 0x3a
 2787 0161 0B       		.uleb128 0xb
 2788 0162 3B       		.uleb128 0x3b
 2789 0163 05       		.uleb128 0x5
 2790 0164 49       		.uleb128 0x49
 2791 0165 13       		.uleb128 0x13
 2792 0166 02       		.uleb128 0x2
 2793 0167 17       		.uleb128 0x17
 2794 0168 00       		.byte	0
 2795 0169 00       		.byte	0
 2796 016a 1B       		.uleb128 0x1b
 2797 016b 2E       		.uleb128 0x2e
 2798 016c 01       		.byte	0x1
 2799 016d 3F       		.uleb128 0x3f
 2800 016e 19       		.uleb128 0x19
 2801 016f 03       		.uleb128 0x3
 2802 0170 0E       		.uleb128 0xe
 2803 0171 3A       		.uleb128 0x3a
 2804 0172 0B       		.uleb128 0xb
 2805 0173 3B       		.uleb128 0x3b
 2806 0174 05       		.uleb128 0x5
 2807 0175 27       		.uleb128 0x27
 2808 0176 19       		.uleb128 0x19
 2809 0177 49       		.uleb128 0x49
 2810 0178 13       		.uleb128 0x13
 2811 0179 11       		.uleb128 0x11
 2812 017a 01       		.uleb128 0x1
 2813 017b 12       		.uleb128 0x12
 2814 017c 06       		.uleb128 0x6
 2815 017d 40       		.uleb128 0x40
 2816 017e 18       		.uleb128 0x18
 2817 017f 9742     		.uleb128 0x2117
 2818 0181 19       		.uleb128 0x19
 2819 0182 01       		.uleb128 0x1
 2820 0183 13       		.uleb128 0x13
 2821 0184 00       		.byte	0
 2822 0185 00       		.byte	0
 2823 0186 1C       		.uleb128 0x1c
 2824 0187 2E       		.uleb128 0x2e
 2825 0188 00       		.byte	0
 2826 0189 3F       		.uleb128 0x3f
 2827 018a 19       		.uleb128 0x19
 2828 018b 03       		.uleb128 0x3
 2829 018c 0E       		.uleb128 0xe
 2830 018d 3A       		.uleb128 0x3a
 2831 018e 0B       		.uleb128 0xb
 2832 018f 3B       		.uleb128 0x3b
 2833 0190 05       		.uleb128 0x5
 2834 0191 27       		.uleb128 0x27
 2835 0192 19       		.uleb128 0x19
 2836 0193 49       		.uleb128 0x49
 2837 0194 13       		.uleb128 0x13
 2838 0195 11       		.uleb128 0x11
 2839 0196 01       		.uleb128 0x1
 2840 0197 12       		.uleb128 0x12
 2841 0198 06       		.uleb128 0x6
ARM GAS  C:\Users\Thomas\AppData\Local\Temp\ccHSNeoG.s 			page 95


 2842 0199 40       		.uleb128 0x40
 2843 019a 18       		.uleb128 0x18
 2844 019b 9742     		.uleb128 0x2117
 2845 019d 19       		.uleb128 0x19
 2846 019e 00       		.byte	0
 2847 019f 00       		.byte	0
 2848 01a0 1D       		.uleb128 0x1d
 2849 01a1 34       		.uleb128 0x34
 2850 01a2 00       		.byte	0
 2851 01a3 03       		.uleb128 0x3
 2852 01a4 08       		.uleb128 0x8
 2853 01a5 3A       		.uleb128 0x3a
 2854 01a6 0B       		.uleb128 0xb
 2855 01a7 3B       		.uleb128 0x3b
 2856 01a8 05       		.uleb128 0x5
 2857 01a9 49       		.uleb128 0x49
 2858 01aa 13       		.uleb128 0x13
 2859 01ab 02       		.uleb128 0x2
 2860 01ac 17       		.uleb128 0x17
 2861 01ad 00       		.byte	0
 2862 01ae 00       		.byte	0
 2863 01af 1E       		.uleb128 0x1e
 2864 01b0 05       		.uleb128 0x5
 2865 01b1 00       		.byte	0
 2866 01b2 03       		.uleb128 0x3
 2867 01b3 0E       		.uleb128 0xe
 2868 01b4 3A       		.uleb128 0x3a
 2869 01b5 0B       		.uleb128 0xb
 2870 01b6 3B       		.uleb128 0x3b
 2871 01b7 05       		.uleb128 0x5
 2872 01b8 49       		.uleb128 0x49
 2873 01b9 13       		.uleb128 0x13
 2874 01ba 02       		.uleb128 0x2
 2875 01bb 18       		.uleb128 0x18
 2876 01bc 00       		.byte	0
 2877 01bd 00       		.byte	0
 2878 01be 1F       		.uleb128 0x1f
 2879 01bf 0B       		.uleb128 0xb
 2880 01c0 01       		.byte	0x1
 2881 01c1 55       		.uleb128 0x55
 2882 01c2 17       		.uleb128 0x17
 2883 01c3 00       		.byte	0
 2884 01c4 00       		.byte	0
 2885 01c5 20       		.uleb128 0x20
 2886 01c6 26       		.uleb128 0x26
 2887 01c7 00       		.byte	0
 2888 01c8 49       		.uleb128 0x49
 2889 01c9 13       		.uleb128 0x13
 2890 01ca 00       		.byte	0
 2891 01cb 00       		.byte	0
 2892 01cc 21       		.uleb128 0x21
 2893 01cd 0B       		.uleb128 0xb
 2894 01ce 01       		.byte	0x1
 2895 01cf 11       		.uleb128 0x11
 2896 01d0 01       		.uleb128 0x1
 2897 01d1 12       		.uleb128 0x12
 2898 01d2 06       		.uleb128 0x6
ARM GAS  C:\Users\Thomas\AppData\Local\Temp\ccHSNeoG.s 			page 96


 2899 01d3 01       		.uleb128 0x1
 2900 01d4 13       		.uleb128 0x13
 2901 01d5 00       		.byte	0
 2902 01d6 00       		.byte	0
 2903 01d7 22       		.uleb128 0x22
 2904 01d8 34       		.uleb128 0x34
 2905 01d9 00       		.byte	0
 2906 01da 03       		.uleb128 0x3
 2907 01db 0E       		.uleb128 0xe
 2908 01dc 3A       		.uleb128 0x3a
 2909 01dd 0B       		.uleb128 0xb
 2910 01de 3B       		.uleb128 0x3b
 2911 01df 0B       		.uleb128 0xb
 2912 01e0 49       		.uleb128 0x49
 2913 01e1 13       		.uleb128 0x13
 2914 01e2 3F       		.uleb128 0x3f
 2915 01e3 19       		.uleb128 0x19
 2916 01e4 02       		.uleb128 0x2
 2917 01e5 18       		.uleb128 0x18
 2918 01e6 00       		.byte	0
 2919 01e7 00       		.byte	0
 2920 01e8 23       		.uleb128 0x23
 2921 01e9 34       		.uleb128 0x34
 2922 01ea 00       		.byte	0
 2923 01eb 03       		.uleb128 0x3
 2924 01ec 0E       		.uleb128 0xe
 2925 01ed 3A       		.uleb128 0x3a
 2926 01ee 0B       		.uleb128 0xb
 2927 01ef 3B       		.uleb128 0x3b
 2928 01f0 05       		.uleb128 0x5
 2929 01f1 49       		.uleb128 0x49
 2930 01f2 13       		.uleb128 0x13
 2931 01f3 3F       		.uleb128 0x3f
 2932 01f4 19       		.uleb128 0x19
 2933 01f5 3C       		.uleb128 0x3c
 2934 01f6 19       		.uleb128 0x19
 2935 01f7 00       		.byte	0
 2936 01f8 00       		.byte	0
 2937 01f9 24       		.uleb128 0x24
 2938 01fa 34       		.uleb128 0x34
 2939 01fb 00       		.byte	0
 2940 01fc 03       		.uleb128 0x3
 2941 01fd 0E       		.uleb128 0xe
 2942 01fe 3A       		.uleb128 0x3a
 2943 01ff 0B       		.uleb128 0xb
 2944 0200 3B       		.uleb128 0x3b
 2945 0201 0B       		.uleb128 0xb
 2946 0202 49       		.uleb128 0x49
 2947 0203 13       		.uleb128 0x13
 2948 0204 3F       		.uleb128 0x3f
 2949 0205 19       		.uleb128 0x19
 2950 0206 3C       		.uleb128 0x3c
 2951 0207 19       		.uleb128 0x19
 2952 0208 00       		.byte	0
 2953 0209 00       		.byte	0
 2954 020a 25       		.uleb128 0x25
 2955 020b 2E       		.uleb128 0x2e
ARM GAS  C:\Users\Thomas\AppData\Local\Temp\ccHSNeoG.s 			page 97


 2956 020c 00       		.byte	0
 2957 020d 3F       		.uleb128 0x3f
 2958 020e 19       		.uleb128 0x19
 2959 020f 03       		.uleb128 0x3
 2960 0210 0E       		.uleb128 0xe
 2961 0211 3A       		.uleb128 0x3a
 2962 0212 0B       		.uleb128 0xb
 2963 0213 3B       		.uleb128 0x3b
 2964 0214 0B       		.uleb128 0xb
 2965 0215 27       		.uleb128 0x27
 2966 0216 19       		.uleb128 0x19
 2967 0217 49       		.uleb128 0x49
 2968 0218 13       		.uleb128 0x13
 2969 0219 3C       		.uleb128 0x3c
 2970 021a 19       		.uleb128 0x19
 2971 021b 00       		.byte	0
 2972 021c 00       		.byte	0
 2973 021d 26       		.uleb128 0x26
 2974 021e 2E       		.uleb128 0x2e
 2975 021f 01       		.byte	0x1
 2976 0220 3F       		.uleb128 0x3f
 2977 0221 19       		.uleb128 0x19
 2978 0222 03       		.uleb128 0x3
 2979 0223 0E       		.uleb128 0xe
 2980 0224 3A       		.uleb128 0x3a
 2981 0225 0B       		.uleb128 0xb
 2982 0226 3B       		.uleb128 0x3b
 2983 0227 0B       		.uleb128 0xb
 2984 0228 27       		.uleb128 0x27
 2985 0229 19       		.uleb128 0x19
 2986 022a 3C       		.uleb128 0x3c
 2987 022b 19       		.uleb128 0x19
 2988 022c 01       		.uleb128 0x1
 2989 022d 13       		.uleb128 0x13
 2990 022e 00       		.byte	0
 2991 022f 00       		.byte	0
 2992 0230 27       		.uleb128 0x27
 2993 0231 05       		.uleb128 0x5
 2994 0232 00       		.byte	0
 2995 0233 49       		.uleb128 0x49
 2996 0234 13       		.uleb128 0x13
 2997 0235 00       		.byte	0
 2998 0236 00       		.byte	0
 2999 0237 28       		.uleb128 0x28
 3000 0238 2E       		.uleb128 0x2e
 3001 0239 01       		.byte	0x1
 3002 023a 3F       		.uleb128 0x3f
 3003 023b 19       		.uleb128 0x19
 3004 023c 03       		.uleb128 0x3
 3005 023d 0E       		.uleb128 0xe
 3006 023e 3A       		.uleb128 0x3a
 3007 023f 0B       		.uleb128 0xb
 3008 0240 3B       		.uleb128 0x3b
 3009 0241 0B       		.uleb128 0xb
 3010 0242 27       		.uleb128 0x27
 3011 0243 19       		.uleb128 0x19
 3012 0244 49       		.uleb128 0x49
ARM GAS  C:\Users\Thomas\AppData\Local\Temp\ccHSNeoG.s 			page 98


 3013 0245 13       		.uleb128 0x13
 3014 0246 3C       		.uleb128 0x3c
 3015 0247 19       		.uleb128 0x19
 3016 0248 01       		.uleb128 0x1
 3017 0249 13       		.uleb128 0x13
 3018 024a 00       		.byte	0
 3019 024b 00       		.byte	0
 3020 024c 29       		.uleb128 0x29
 3021 024d 2E       		.uleb128 0x2e
 3022 024e 01       		.byte	0x1
 3023 024f 3F       		.uleb128 0x3f
 3024 0250 19       		.uleb128 0x19
 3025 0251 03       		.uleb128 0x3
 3026 0252 0E       		.uleb128 0xe
 3027 0253 3A       		.uleb128 0x3a
 3028 0254 0B       		.uleb128 0xb
 3029 0255 3B       		.uleb128 0x3b
 3030 0256 0B       		.uleb128 0xb
 3031 0257 27       		.uleb128 0x27
 3032 0258 19       		.uleb128 0x19
 3033 0259 3C       		.uleb128 0x3c
 3034 025a 19       		.uleb128 0x19
 3035 025b 00       		.byte	0
 3036 025c 00       		.byte	0
 3037 025d 00       		.byte	0
 3038              		.section	.debug_loc,"",%progbits
 3039              	.Ldebug_loc0:
 3040              	.LLST0:
 3041 0000 08000000 		.4byte	.LVL1
 3042 0004 0A010000 		.4byte	.LVL21
 3043 0008 0100     		.2byte	0x1
 3044 000a 57       		.byte	0x57
 3045 000b 00000000 		.4byte	0
 3046 000f 00000000 		.4byte	0
 3047              	.LLST1:
 3048 0013 00000000 		.4byte	.LVL22
 3049 0017 7C000000 		.4byte	.LVL23
 3050 001b 0100     		.2byte	0x1
 3051 001d 50       		.byte	0x50
 3052 001e 7C000000 		.4byte	.LVL23
 3053 0022 B8000000 		.4byte	.LFE2
 3054 0026 0400     		.2byte	0x4
 3055 0028 F3       		.byte	0xf3
 3056 0029 01       		.uleb128 0x1
 3057 002a 50       		.byte	0x50
 3058 002b 9F       		.byte	0x9f
 3059 002c 00000000 		.4byte	0
 3060 0030 00000000 		.4byte	0
 3061              	.LLST2:
 3062 0034 00000000 		.4byte	.LVL22
 3063 0038 7F000000 		.4byte	.LVL24-1
 3064 003c 0100     		.2byte	0x1
 3065 003e 51       		.byte	0x51
 3066 003f 7F000000 		.4byte	.LVL24-1
 3067 0043 B8000000 		.4byte	.LFE2
 3068 0047 0400     		.2byte	0x4
 3069 0049 F3       		.byte	0xf3
ARM GAS  C:\Users\Thomas\AppData\Local\Temp\ccHSNeoG.s 			page 99


 3070 004a 01       		.uleb128 0x1
 3071 004b 51       		.byte	0x51
 3072 004c 9F       		.byte	0x9f
 3073 004d 00000000 		.4byte	0
 3074 0051 00000000 		.4byte	0
 3075              	.LLST3:
 3076 0055 00000000 		.4byte	.LVL25
 3077 0059 0F000000 		.4byte	.LVL26-1
 3078 005d 0100     		.2byte	0x1
 3079 005f 50       		.byte	0x50
 3080 0060 0F000000 		.4byte	.LVL26-1
 3081 0064 24000000 		.4byte	.LFE0
 3082 0068 0400     		.2byte	0x4
 3083 006a F3       		.byte	0xf3
 3084 006b 01       		.uleb128 0x1
 3085 006c 50       		.byte	0x50
 3086 006d 9F       		.byte	0x9f
 3087 006e 00000000 		.4byte	0
 3088 0072 00000000 		.4byte	0
 3089              	.LLST4:
 3090 0076 00000000 		.4byte	.LVL25
 3091 007a 0F000000 		.4byte	.LVL26-1
 3092 007e 0100     		.2byte	0x1
 3093 0080 51       		.byte	0x51
 3094 0081 0F000000 		.4byte	.LVL26-1
 3095 0085 24000000 		.4byte	.LFE0
 3096 0089 0400     		.2byte	0x4
 3097 008b F3       		.byte	0xf3
 3098 008c 01       		.uleb128 0x1
 3099 008d 51       		.byte	0x51
 3100 008e 9F       		.byte	0x9f
 3101 008f 00000000 		.4byte	0
 3102 0093 00000000 		.4byte	0
 3103              	.LLST5:
 3104 0097 06000000 		.4byte	.LVL28
 3105 009b 35000000 		.4byte	.LVL29-1
 3106 009f 0100     		.2byte	0x1
 3107 00a1 50       		.byte	0x50
 3108 00a2 00000000 		.4byte	0
 3109 00a6 00000000 		.4byte	0
 3110              	.LLST6:
 3111 00aa 06000000 		.4byte	.LVL30
 3112 00ae 10000000 		.4byte	.LVL31
 3113 00b2 0100     		.2byte	0x1
 3114 00b4 53       		.byte	0x53
 3115 00b5 00000000 		.4byte	0
 3116 00b9 00000000 		.4byte	0
 3117              	.LLST7:
 3118 00bd 00000000 		.4byte	.LVL32
 3119 00c1 10000000 		.4byte	.LVL33
 3120 00c5 0200     		.2byte	0x2
 3121 00c7 30       		.byte	0x30
 3122 00c8 9F       		.byte	0x9f
 3123 00c9 10000000 		.4byte	.LVL33
 3124 00cd 16000000 		.4byte	.LVL34
 3125 00d1 0100     		.2byte	0x1
 3126 00d3 50       		.byte	0x50
ARM GAS  C:\Users\Thomas\AppData\Local\Temp\ccHSNeoG.s 			page 100


 3127 00d4 16000000 		.4byte	.LVL34
 3128 00d8 18000000 		.4byte	.LVL35
 3129 00dc 0200     		.2byte	0x2
 3130 00de 30       		.byte	0x30
 3131 00df 9F       		.byte	0x9f
 3132 00e0 18000000 		.4byte	.LVL35
 3133 00e4 20000000 		.4byte	.LFE7
 3134 00e8 0100     		.2byte	0x1
 3135 00ea 50       		.byte	0x50
 3136 00eb 00000000 		.4byte	0
 3137 00ef 00000000 		.4byte	0
 3138              	.LLST8:
 3139 00f3 00000000 		.4byte	.LVL36
 3140 00f7 04000000 		.4byte	.LVL37
 3141 00fb 0100     		.2byte	0x1
 3142 00fd 50       		.byte	0x50
 3143 00fe 04000000 		.4byte	.LVL37
 3144 0102 0C000000 		.4byte	.LFE8
 3145 0106 0400     		.2byte	0x4
 3146 0108 F3       		.byte	0xf3
 3147 0109 01       		.uleb128 0x1
 3148 010a 50       		.byte	0x50
 3149 010b 9F       		.byte	0x9f
 3150 010c 00000000 		.4byte	0
 3151 0110 00000000 		.4byte	0
 3152              	.LLST9:
 3153 0114 00000000 		.4byte	.LVL38
 3154 0118 04000000 		.4byte	.LVL39
 3155 011c 0100     		.2byte	0x1
 3156 011e 50       		.byte	0x50
 3157 011f 04000000 		.4byte	.LVL39
 3158 0123 14000000 		.4byte	.LFE9
 3159 0127 0400     		.2byte	0x4
 3160 0129 F3       		.byte	0xf3
 3161 012a 01       		.uleb128 0x1
 3162 012b 50       		.byte	0x50
 3163 012c 9F       		.byte	0x9f
 3164 012d 00000000 		.4byte	0
 3165 0131 00000000 		.4byte	0
 3166              	.LLST10:
 3167 0135 00000000 		.4byte	.LVL40
 3168 0139 0C000000 		.4byte	.LVL41
 3169 013d 0100     		.2byte	0x1
 3170 013f 50       		.byte	0x50
 3171 0140 0C000000 		.4byte	.LVL41
 3172 0144 20000000 		.4byte	.LVL46
 3173 0148 0400     		.2byte	0x4
 3174 014a F3       		.byte	0xf3
 3175 014b 01       		.uleb128 0x1
 3176 014c 50       		.byte	0x50
 3177 014d 9F       		.byte	0x9f
 3178 014e 20000000 		.4byte	.LVL46
 3179 0152 22000000 		.4byte	.LVL47
 3180 0156 0100     		.2byte	0x1
 3181 0158 50       		.byte	0x50
 3182 0159 22000000 		.4byte	.LVL47
 3183 015d 28000000 		.4byte	.LFE10
ARM GAS  C:\Users\Thomas\AppData\Local\Temp\ccHSNeoG.s 			page 101


 3184 0161 0400     		.2byte	0x4
 3185 0163 F3       		.byte	0xf3
 3186 0164 01       		.uleb128 0x1
 3187 0165 50       		.byte	0x50
 3188 0166 9F       		.byte	0x9f
 3189 0167 00000000 		.4byte	0
 3190 016b 00000000 		.4byte	0
 3191              	.LLST11:
 3192 016f 00000000 		.4byte	.LVL40
 3193 0173 14000000 		.4byte	.LVL42
 3194 0177 0200     		.2byte	0x2
 3195 0179 30       		.byte	0x30
 3196 017a 9F       		.byte	0x9f
 3197 017b 14000000 		.4byte	.LVL42
 3198 017f 1C000000 		.4byte	.LVL44
 3199 0183 0100     		.2byte	0x1
 3200 0185 50       		.byte	0x50
 3201 0186 1C000000 		.4byte	.LVL44
 3202 018a 1E000000 		.4byte	.LVL45
 3203 018e 0300     		.2byte	0x3
 3204 0190 70       		.byte	0x70
 3205 0191 02       		.sleb128 2
 3206 0192 9F       		.byte	0x9f
 3207 0193 1E000000 		.4byte	.LVL45
 3208 0197 20000000 		.4byte	.LVL46
 3209 019b 0100     		.2byte	0x1
 3210 019d 50       		.byte	0x50
 3211 019e 20000000 		.4byte	.LVL46
 3212 01a2 22000000 		.4byte	.LVL47
 3213 01a6 0200     		.2byte	0x2
 3214 01a8 30       		.byte	0x30
 3215 01a9 9F       		.byte	0x9f
 3216 01aa 22000000 		.4byte	.LVL47
 3217 01ae 28000000 		.4byte	.LFE10
 3218 01b2 0100     		.2byte	0x1
 3219 01b4 50       		.byte	0x50
 3220 01b5 00000000 		.4byte	0
 3221 01b9 00000000 		.4byte	0
 3222              	.LLST12:
 3223 01bd 00000000 		.4byte	.LVL48
 3224 01c1 7A000000 		.4byte	.LVL58
 3225 01c5 0100     		.2byte	0x1
 3226 01c7 50       		.byte	0x50
 3227 01c8 7A000000 		.4byte	.LVL58
 3228 01cc 94000000 		.4byte	.LFE11
 3229 01d0 0400     		.2byte	0x4
 3230 01d2 F3       		.byte	0xf3
 3231 01d3 01       		.uleb128 0x1
 3232 01d4 50       		.byte	0x50
 3233 01d5 9F       		.byte	0x9f
 3234 01d6 00000000 		.4byte	0
 3235 01da 00000000 		.4byte	0
 3236              	.LLST13:
 3237 01de 00000000 		.4byte	.LVL48
 3238 01e2 2C000000 		.4byte	.LVL49
 3239 01e6 0100     		.2byte	0x1
 3240 01e8 52       		.byte	0x52
ARM GAS  C:\Users\Thomas\AppData\Local\Temp\ccHSNeoG.s 			page 102


 3241 01e9 2C000000 		.4byte	.LVL49
 3242 01ed 32000000 		.4byte	.LVL50
 3243 01f1 0400     		.2byte	0x4
 3244 01f3 F3       		.byte	0xf3
 3245 01f4 01       		.uleb128 0x1
 3246 01f5 52       		.byte	0x52
 3247 01f6 9F       		.byte	0x9f
 3248 01f7 32000000 		.4byte	.LVL50
 3249 01fb 6E000000 		.4byte	.LVL57
 3250 01ff 0100     		.2byte	0x1
 3251 0201 52       		.byte	0x52
 3252 0202 00000000 		.4byte	0
 3253 0206 00000000 		.4byte	0
 3254              	.LLST14:
 3255 020a 52000000 		.4byte	.LVL51
 3256 020e 5C000000 		.4byte	.LVL52
 3257 0212 0100     		.2byte	0x1
 3258 0214 53       		.byte	0x53
 3259 0215 5E000000 		.4byte	.LVL53
 3260 0219 60000000 		.4byte	.LVL54
 3261 021d 0100     		.2byte	0x1
 3262 021f 53       		.byte	0x53
 3263 0220 62000000 		.4byte	.LVL55
 3264 0224 66000000 		.4byte	.LVL56
 3265 0228 0100     		.2byte	0x1
 3266 022a 53       		.byte	0x53
 3267 022b 00000000 		.4byte	0
 3268 022f 00000000 		.4byte	0
 3269              	.LLST15:
 3270 0233 00000000 		.4byte	.LVL59
 3271 0237 1C000000 		.4byte	.LVL60
 3272 023b 0100     		.2byte	0x1
 3273 023d 50       		.byte	0x50
 3274 023e 1C000000 		.4byte	.LVL60
 3275 0242 2C000000 		.4byte	.LFE13
 3276 0246 0400     		.2byte	0x4
 3277 0248 F3       		.byte	0xf3
 3278 0249 01       		.uleb128 0x1
 3279 024a 50       		.byte	0x50
 3280 024b 9F       		.byte	0x9f
 3281 024c 00000000 		.4byte	0
 3282 0250 00000000 		.4byte	0
 3283              	.LLST16:
 3284 0254 00000000 		.4byte	.LVL61
 3285 0258 13000000 		.4byte	.LVL62-1
 3286 025c 0100     		.2byte	0x1
 3287 025e 50       		.byte	0x50
 3288 025f 13000000 		.4byte	.LVL62-1
 3289 0263 3C000000 		.4byte	.LVL69
 3290 0267 0400     		.2byte	0x4
 3291 0269 F3       		.byte	0xf3
 3292 026a 01       		.uleb128 0x1
 3293 026b 50       		.byte	0x50
 3294 026c 9F       		.byte	0x9f
 3295 026d 3C000000 		.4byte	.LVL69
 3296 0271 46000000 		.4byte	.LVL70
 3297 0275 0100     		.2byte	0x1
ARM GAS  C:\Users\Thomas\AppData\Local\Temp\ccHSNeoG.s 			page 103


 3298 0277 50       		.byte	0x50
 3299 0278 46000000 		.4byte	.LVL70
 3300 027c 50000000 		.4byte	.LFE12
 3301 0280 0400     		.2byte	0x4
 3302 0282 F3       		.byte	0xf3
 3303 0283 01       		.uleb128 0x1
 3304 0284 50       		.byte	0x50
 3305 0285 9F       		.byte	0x9f
 3306 0286 00000000 		.4byte	0
 3307 028a 00000000 		.4byte	0
 3308              	.LLST17:
 3309 028e 00000000 		.4byte	.LVL61
 3310 0292 13000000 		.4byte	.LVL62-1
 3311 0296 0100     		.2byte	0x1
 3312 0298 51       		.byte	0x51
 3313 0299 13000000 		.4byte	.LVL62-1
 3314 029d 3C000000 		.4byte	.LVL69
 3315 02a1 0100     		.2byte	0x1
 3316 02a3 56       		.byte	0x56
 3317 02a4 3C000000 		.4byte	.LVL69
 3318 02a8 46000000 		.4byte	.LVL70
 3319 02ac 0100     		.2byte	0x1
 3320 02ae 51       		.byte	0x51
 3321 02af 46000000 		.4byte	.LVL70
 3322 02b3 50000000 		.4byte	.LFE12
 3323 02b7 0400     		.2byte	0x4
 3324 02b9 F3       		.byte	0xf3
 3325 02ba 01       		.uleb128 0x1
 3326 02bb 51       		.byte	0x51
 3327 02bc 9F       		.byte	0x9f
 3328 02bd 00000000 		.4byte	0
 3329 02c1 00000000 		.4byte	0
 3330              	.LLST18:
 3331 02c5 00000000 		.4byte	.LVL61
 3332 02c9 13000000 		.4byte	.LVL62-1
 3333 02cd 0100     		.2byte	0x1
 3334 02cf 52       		.byte	0x52
 3335 02d0 13000000 		.4byte	.LVL62-1
 3336 02d4 20000000 		.4byte	.LVL64
 3337 02d8 0400     		.2byte	0x4
 3338 02da F3       		.byte	0xf3
 3339 02db 01       		.uleb128 0x1
 3340 02dc 52       		.byte	0x52
 3341 02dd 9F       		.byte	0x9f
 3342 02de 20000000 		.4byte	.LVL64
 3343 02e2 3C000000 		.4byte	.LVL69
 3344 02e6 0100     		.2byte	0x1
 3345 02e8 54       		.byte	0x54
 3346 02e9 3C000000 		.4byte	.LVL69
 3347 02ed 46000000 		.4byte	.LVL70
 3348 02f1 0100     		.2byte	0x1
 3349 02f3 52       		.byte	0x52
 3350 02f4 46000000 		.4byte	.LVL70
 3351 02f8 4A000000 		.4byte	.LVL71
 3352 02fc 0100     		.2byte	0x1
 3353 02fe 54       		.byte	0x54
 3354 02ff 00000000 		.4byte	0
ARM GAS  C:\Users\Thomas\AppData\Local\Temp\ccHSNeoG.s 			page 104


 3355 0303 00000000 		.4byte	0
 3356              	.LLST19:
 3357 0307 20000000 		.4byte	.LVL64
 3358 030b 24000000 		.4byte	.LVL65
 3359 030f 0200     		.2byte	0x2
 3360 0311 30       		.byte	0x30
 3361 0312 9F       		.byte	0x9f
 3362 0313 24000000 		.4byte	.LVL65
 3363 0317 2E000000 		.4byte	.LVL66
 3364 031b 0100     		.2byte	0x1
 3365 031d 53       		.byte	0x53
 3366 031e 30000000 		.4byte	.LVL67
 3367 0322 39000000 		.4byte	.LVL68-1
 3368 0326 0100     		.2byte	0x1
 3369 0328 53       		.byte	0x53
 3370 0329 00000000 		.4byte	0
 3371 032d 00000000 		.4byte	0
 3372              	.LLST20:
 3373 0331 00000000 		.4byte	.LVL72
 3374 0335 0A000000 		.4byte	.LVL73
 3375 0339 0100     		.2byte	0x1
 3376 033b 50       		.byte	0x50
 3377 033c 0A000000 		.4byte	.LVL73
 3378 0340 18000000 		.4byte	.LFE14
 3379 0344 0400     		.2byte	0x4
 3380 0346 F3       		.byte	0xf3
 3381 0347 01       		.uleb128 0x1
 3382 0348 50       		.byte	0x50
 3383 0349 9F       		.byte	0x9f
 3384 034a 00000000 		.4byte	0
 3385 034e 00000000 		.4byte	0
 3386              	.LLST21:
 3387 0352 00000000 		.4byte	.LVL75
 3388 0356 0A000000 		.4byte	.LVL76
 3389 035a 0100     		.2byte	0x1
 3390 035c 50       		.byte	0x50
 3391 035d 0A000000 		.4byte	.LVL76
 3392 0361 16000000 		.4byte	.LVL78
 3393 0365 0400     		.2byte	0x4
 3394 0367 F3       		.byte	0xf3
 3395 0368 01       		.uleb128 0x1
 3396 0369 50       		.byte	0x50
 3397 036a 9F       		.byte	0x9f
 3398 036b 16000000 		.4byte	.LVL78
 3399 036f 18000000 		.4byte	.LVL79
 3400 0373 0100     		.2byte	0x1
 3401 0375 50       		.byte	0x50
 3402 0376 18000000 		.4byte	.LVL79
 3403 037a 20000000 		.4byte	.LFE16
 3404 037e 0400     		.2byte	0x4
 3405 0380 F3       		.byte	0xf3
 3406 0381 01       		.uleb128 0x1
 3407 0382 50       		.byte	0x50
 3408 0383 9F       		.byte	0x9f
 3409 0384 00000000 		.4byte	0
 3410 0388 00000000 		.4byte	0
 3411              	.LLST22:
ARM GAS  C:\Users\Thomas\AppData\Local\Temp\ccHSNeoG.s 			page 105


 3412 038c 00000000 		.4byte	.LVL75
 3413 0390 14000000 		.4byte	.LVL77
 3414 0394 0200     		.2byte	0x2
 3415 0396 30       		.byte	0x30
 3416 0397 9F       		.byte	0x9f
 3417 0398 14000000 		.4byte	.LVL77
 3418 039c 16000000 		.4byte	.LVL78
 3419 03a0 0100     		.2byte	0x1
 3420 03a2 50       		.byte	0x50
 3421 03a3 16000000 		.4byte	.LVL78
 3422 03a7 18000000 		.4byte	.LVL79
 3423 03ab 0200     		.2byte	0x2
 3424 03ad 30       		.byte	0x30
 3425 03ae 9F       		.byte	0x9f
 3426 03af 18000000 		.4byte	.LVL79
 3427 03b3 20000000 		.4byte	.LFE16
 3428 03b7 0100     		.2byte	0x1
 3429 03b9 50       		.byte	0x50
 3430 03ba 00000000 		.4byte	0
 3431 03be 00000000 		.4byte	0
 3432              	.LLST23:
 3433 03c2 00000000 		.4byte	.LVL81
 3434 03c6 10000000 		.4byte	.LVL82
 3435 03ca 0200     		.2byte	0x2
 3436 03cc 30       		.byte	0x30
 3437 03cd 9F       		.byte	0x9f
 3438 03ce 10000000 		.4byte	.LVL82
 3439 03d2 18000000 		.4byte	.LFE18
 3440 03d6 0100     		.2byte	0x1
 3441 03d8 50       		.byte	0x50
 3442 03d9 00000000 		.4byte	0
 3443 03dd 00000000 		.4byte	0
 3444              		.section	.debug_aranges,"",%progbits
 3445 0000 C4000000 		.4byte	0xc4
 3446 0004 0200     		.2byte	0x2
 3447 0006 00000000 		.4byte	.Ldebug_info0
 3448 000a 04       		.byte	0x4
 3449 000b 00       		.byte	0
 3450 000c 0000     		.2byte	0
 3451 000e 0000     		.2byte	0
 3452 0010 00000000 		.4byte	.LFB1
 3453 0014 40010000 		.4byte	.LFE1-.LFB1
 3454 0018 00000000 		.4byte	.LFB2
 3455 001c B8000000 		.4byte	.LFE2-.LFB2
 3456 0020 00000000 		.4byte	.LFB0
 3457 0024 24000000 		.4byte	.LFE0-.LFB0
 3458 0028 00000000 		.4byte	.LFB3
 3459 002c 4C000000 		.4byte	.LFE3-.LFB3
 3460 0030 00000000 		.4byte	.LFB4
 3461 0034 94000000 		.4byte	.LFE4-.LFB4
 3462 0038 00000000 		.4byte	.LFB5
 3463 003c 20000000 		.4byte	.LFE5-.LFB5
 3464 0040 00000000 		.4byte	.LFB6
 3465 0044 0C000000 		.4byte	.LFE6-.LFB6
 3466 0048 00000000 		.4byte	.LFB7
 3467 004c 20000000 		.4byte	.LFE7-.LFB7
 3468 0050 00000000 		.4byte	.LFB8
ARM GAS  C:\Users\Thomas\AppData\Local\Temp\ccHSNeoG.s 			page 106


 3469 0054 0C000000 		.4byte	.LFE8-.LFB8
 3470 0058 00000000 		.4byte	.LFB9
 3471 005c 14000000 		.4byte	.LFE9-.LFB9
 3472 0060 00000000 		.4byte	.LFB10
 3473 0064 28000000 		.4byte	.LFE10-.LFB10
 3474 0068 00000000 		.4byte	.LFB11
 3475 006c 94000000 		.4byte	.LFE11-.LFB11
 3476 0070 00000000 		.4byte	.LFB13
 3477 0074 2C000000 		.4byte	.LFE13-.LFB13
 3478 0078 00000000 		.4byte	.LFB12
 3479 007c 50000000 		.4byte	.LFE12-.LFB12
 3480 0080 00000000 		.4byte	.LFB14
 3481 0084 18000000 		.4byte	.LFE14-.LFB14
 3482 0088 00000000 		.4byte	.LFB15
 3483 008c 0C000000 		.4byte	.LFE15-.LFB15
 3484 0090 00000000 		.4byte	.LFB16
 3485 0094 20000000 		.4byte	.LFE16-.LFB16
 3486 0098 00000000 		.4byte	.LFB17
 3487 009c 20000000 		.4byte	.LFE17-.LFB17
 3488 00a0 00000000 		.4byte	.LFB18
 3489 00a4 18000000 		.4byte	.LFE18-.LFB18
 3490 00a8 00000000 		.4byte	.LFB19
 3491 00ac 10000000 		.4byte	.LFE19-.LFB19
 3492 00b0 00000000 		.4byte	.LFB20
 3493 00b4 10000000 		.4byte	.LFE20-.LFB20
 3494 00b8 00000000 		.4byte	.LFB21
 3495 00bc 10000000 		.4byte	.LFE21-.LFB21
 3496 00c0 00000000 		.4byte	0
 3497 00c4 00000000 		.4byte	0
 3498              		.section	.debug_ranges,"",%progbits
 3499              	.Ldebug_ranges0:
 3500 0000 50000000 		.4byte	.LBB2
 3501 0004 60000000 		.4byte	.LBE2
 3502 0008 62000000 		.4byte	.LBB3
 3503 000c 66000000 		.4byte	.LBE3
 3504 0010 00000000 		.4byte	0
 3505 0014 00000000 		.4byte	0
 3506 0018 00000000 		.4byte	.LFB1
 3507 001c 40010000 		.4byte	.LFE1
 3508 0020 00000000 		.4byte	.LFB2
 3509 0024 B8000000 		.4byte	.LFE2
 3510 0028 00000000 		.4byte	.LFB0
 3511 002c 24000000 		.4byte	.LFE0
 3512 0030 00000000 		.4byte	.LFB3
 3513 0034 4C000000 		.4byte	.LFE3
 3514 0038 00000000 		.4byte	.LFB4
 3515 003c 94000000 		.4byte	.LFE4
 3516 0040 00000000 		.4byte	.LFB5
 3517 0044 20000000 		.4byte	.LFE5
 3518 0048 00000000 		.4byte	.LFB6
 3519 004c 0C000000 		.4byte	.LFE6
 3520 0050 00000000 		.4byte	.LFB7
 3521 0054 20000000 		.4byte	.LFE7
 3522 0058 00000000 		.4byte	.LFB8
 3523 005c 0C000000 		.4byte	.LFE8
 3524 0060 00000000 		.4byte	.LFB9
 3525 0064 14000000 		.4byte	.LFE9
ARM GAS  C:\Users\Thomas\AppData\Local\Temp\ccHSNeoG.s 			page 107


 3526 0068 00000000 		.4byte	.LFB10
 3527 006c 28000000 		.4byte	.LFE10
 3528 0070 00000000 		.4byte	.LFB11
 3529 0074 94000000 		.4byte	.LFE11
 3530 0078 00000000 		.4byte	.LFB13
 3531 007c 2C000000 		.4byte	.LFE13
 3532 0080 00000000 		.4byte	.LFB12
 3533 0084 50000000 		.4byte	.LFE12
 3534 0088 00000000 		.4byte	.LFB14
 3535 008c 18000000 		.4byte	.LFE14
 3536 0090 00000000 		.4byte	.LFB15
 3537 0094 0C000000 		.4byte	.LFE15
 3538 0098 00000000 		.4byte	.LFB16
 3539 009c 20000000 		.4byte	.LFE16
 3540 00a0 00000000 		.4byte	.LFB17
 3541 00a4 20000000 		.4byte	.LFE17
 3542 00a8 00000000 		.4byte	.LFB18
 3543 00ac 18000000 		.4byte	.LFE18
 3544 00b0 00000000 		.4byte	.LFB19
 3545 00b4 10000000 		.4byte	.LFE19
 3546 00b8 00000000 		.4byte	.LFB20
 3547 00bc 10000000 		.4byte	.LFE20
 3548 00c0 00000000 		.4byte	.LFB21
 3549 00c4 10000000 		.4byte	.LFE21
 3550 00c8 00000000 		.4byte	0
 3551 00cc 00000000 		.4byte	0
 3552              		.section	.debug_line,"",%progbits
 3553              	.Ldebug_line0:
 3554 0000 CC020000 		.section	.debug_str,"MS",%progbits,1
 3554      02007500 
 3554      00000201 
 3554      FB0E0D00 
 3554      01010101 
 3555              	.LASF10:
 3556 0000 75696E74 		.ascii	"uint16\000"
 3556      313600
 3557              	.LASF88:
 3558 0007 55534255 		.ascii	"USBUART_1_interfaceSetting\000"
 3558      4152545F 
 3558      315F696E 
 3558      74657266 
 3558      61636553 
 3559              	.LASF82:
 3560 0022 55534255 		.ascii	"USBUART_1_device\000"
 3560      4152545F 
 3560      315F6465 
 3560      76696365 
 3560      00
 3561              	.LASF47:
 3562 0033 55534255 		.ascii	"USBUART_1_Init\000"
 3562      4152545F 
 3562      315F496E 
 3562      697400
 3563              	.LASF57:
 3564 0042 55534255 		.ascii	"USBUART_1_GetInterfaceSetting\000"
 3564      4152545F 
 3564      315F4765 
ARM GAS  C:\Users\Thomas\AppData\Local\Temp\ccHSNeoG.s 			page 108


 3564      74496E74 
 3564      65726661 
 3565              	.LASF7:
 3566 0060 6C6F6E67 		.ascii	"long long unsigned int\000"
 3566      206C6F6E 
 3566      6720756E 
 3566      7369676E 
 3566      65642069 
 3567              	.LASF23:
 3568 0077 61646472 		.ascii	"addr\000"
 3568      00
 3569              	.LASF33:
 3570 007c 65704366 		.ascii	"epCfg\000"
 3570      6700
 3571              	.LASF71:
 3572 0082 55534255 		.ascii	"USBUART_1_GetEPAckState\000"
 3572      4152545F 
 3572      315F4765 
 3572      74455041 
 3572      636B5374 
 3573              	.LASF60:
 3574 009a 65704E75 		.ascii	"epNumber\000"
 3574      6D626572 
 3574      00
 3575              	.LASF85:
 3576 00a3 55534255 		.ascii	"USBUART_1_configurationChanged\000"
 3576      4152545F 
 3576      315F636F 
 3576      6E666967 
 3576      75726174 
 3577              	.LASF49:
 3578 00c2 64657669 		.ascii	"device\000"
 3578      636500
 3579              	.LASF6:
 3580 00c9 6C6F6E67 		.ascii	"long long int\000"
 3580      206C6F6E 
 3580      6720696E 
 3580      7400
 3581              	.LASF0:
 3582 00d7 7369676E 		.ascii	"signed char\000"
 3582      65642063 
 3582      68617200 
 3583              	.LASF66:
 3584 00e3 55534255 		.ascii	"USBUART_1_EnableOutEP\000"
 3584      4152545F 
 3584      315F456E 
 3584      61626C65 
 3584      4F757445 
 3585              	.LASF62:
 3586 00f9 636E7472 		.ascii	"cntr\000"
 3586      00
 3587              	.LASF78:
 3588 00fe 55534255 		.ascii	"USBUART_1_ReInitComponent\000"
 3588      4152545F 
 3588      315F5265 
 3588      496E6974 
 3588      436F6D70 
ARM GAS  C:\Users\Thomas\AppData\Local\Temp\ccHSNeoG.s 			page 109


 3589              	.LASF4:
 3590 0118 6C6F6E67 		.ascii	"long int\000"
 3590      20696E74 
 3590      00
 3591              	.LASF9:
 3592 0121 75696E74 		.ascii	"uint8\000"
 3592      3800
 3593              	.LASF22:
 3594 0127 6570546F 		.ascii	"epToggle\000"
 3594      67676C65 
 3594      00
 3595              	.LASF37:
 3596 0130 72775761 		.ascii	"rwWa\000"
 3596      00
 3597              	.LASF92:
 3598 0135 43794465 		.ascii	"CyDelayUs\000"
 3598      6C617955 
 3598      7300
 3599              	.LASF13:
 3600 013f 646F7562 		.ascii	"double\000"
 3600      6C6500
 3601              	.LASF73:
 3602 0146 706F7765 		.ascii	"powerStatus\000"
 3602      72537461 
 3602      74757300 
 3603              	.LASF35:
 3604 0152 65705372 		.ascii	"epSr\000"
 3604      00
 3605              	.LASF11:
 3606 0157 75696E74 		.ascii	"uint32\000"
 3606      333200
 3607              	.LASF64:
 3608 015e 70446174 		.ascii	"pData\000"
 3608      6100
 3609              	.LASF24:
 3610 0164 65704D6F 		.ascii	"epMode\000"
 3610      646500
 3611              	.LASF36:
 3612 016b 72657365 		.ascii	"reserved\000"
 3612      72766564 
 3612      00
 3613              	.LASF59:
 3614 0174 55534255 		.ascii	"USBUART_1_GetEPState\000"
 3614      4152545F 
 3614      315F4765 
 3614      74455053 
 3614      74617465 
 3615              	.LASF44:
 3616 0189 55534255 		.ascii	"USBUART_1_sie_eps_struct\000"
 3616      4152545F 
 3616      315F7369 
 3616      655F6570 
 3616      735F7374 
 3617              	.LASF28:
 3618 01a2 545F5553 		.ascii	"T_USBUART_1_EP_CTL_BLOCK\000"
 3618      42554152 
 3618      545F315F 
ARM GAS  C:\Users\Thomas\AppData\Local\Temp\ccHSNeoG.s 			page 110


 3618      45505F43 
 3618      544C5F42 
 3619              	.LASF46:
 3620 01bb 55534255 		.ascii	"USBUART_1_arb_eps_struct\000"
 3620      4152545F 
 3620      315F6172 
 3620      625F6570 
 3620      735F7374 
 3621              	.LASF86:
 3622 01d4 55534255 		.ascii	"USBUART_1_deviceStatus\000"
 3622      4152545F 
 3622      315F6465 
 3622      76696365 
 3622      53746174 
 3623              	.LASF8:
 3624 01eb 756E7369 		.ascii	"unsigned int\000"
 3624      676E6564 
 3624      20696E74 
 3624      00
 3625              	.LASF5:
 3626 01f8 6C6F6E67 		.ascii	"long unsigned int\000"
 3626      20756E73 
 3626      69676E65 
 3626      6420696E 
 3626      7400
 3627              	.LASF81:
 3628 020a 55534255 		.ascii	"USBUART_1_initVar\000"
 3628      4152545F 
 3628      315F696E 
 3628      69745661 
 3628      7200
 3629              	.LASF72:
 3630 021c 55534255 		.ascii	"USBUART_1_SetPowerStatus\000"
 3630      4152545F 
 3630      315F5365 
 3630      74506F77 
 3630      65725374 
 3631              	.LASF3:
 3632 0235 73686F72 		.ascii	"short unsigned int\000"
 3632      7420756E 
 3632      7369676E 
 3632      65642069 
 3632      6E7400
 3633              	.LASF67:
 3634 0248 55534255 		.ascii	"USBUART_1_ReadOutEP\000"
 3634      4152545F 
 3634      315F5265 
 3634      61644F75 
 3634      74455000 
 3635              	.LASF99:
 3636 025c 4379496E 		.ascii	"CyIntSetVector\000"
 3636      74536574 
 3636      56656374 
 3636      6F7200
 3637              	.LASF91:
 3638 026b 55534255 		.ascii	"USBUART_1_lastPacketSize\000"
 3638      4152545F 
ARM GAS  C:\Users\Thomas\AppData\Local\Temp\ccHSNeoG.s 			page 111


 3638      315F6C61 
 3638      73745061 
 3638      636B6574 
 3639              	.LASF61:
 3640 0284 55534255 		.ascii	"USBUART_1_GetEPCount\000"
 3640      4152545F 
 3640      315F4765 
 3640      74455043 
 3640      6F756E74 
 3641              	.LASF98:
 3642 0299 4379456E 		.ascii	"CyEnterCriticalSection\000"
 3642      74657243 
 3642      72697469 
 3642      63616C53 
 3642      65637469 
 3643              	.LASF89:
 3644 02b0 55534255 		.ascii	"USBUART_1_deviceAddress\000"
 3644      4152545F 
 3644      315F6465 
 3644      76696365 
 3644      41646472 
 3645              	.LASF42:
 3646 02c8 55534255 		.ascii	"USBUART_1_arb_ep_struct\000"
 3646      4152545F 
 3646      315F6172 
 3646      625F6570 
 3646      5F737472 
 3647              	.LASF96:
 3648 02e0 2E5C4765 		.ascii	".\\Generated_Source\\PSoC5\\USBUART_1.c\000"
 3648      6E657261 
 3648      7465645F 
 3648      536F7572 
 3648      63655C50 
 3649              	.LASF45:
 3650 0305 61726245 		.ascii	"arbEp\000"
 3650      7000
 3651              	.LASF27:
 3652 030b 696E7465 		.ascii	"interface\000"
 3652      72666163 
 3652      6500
 3653              	.LASF54:
 3654 0315 63723152 		.ascii	"cr1Reg\000"
 3654      656700
 3655              	.LASF16:
 3656 031c 72656733 		.ascii	"reg32\000"
 3656      3200
 3657              	.LASF21:
 3658 0322 68774570 		.ascii	"hwEpState\000"
 3658      53746174 
 3658      6500
 3659              	.LASF18:
 3660 032c 73697A65 		.ascii	"sizetype\000"
 3660      74797065 
 3660      00
 3661              	.LASF43:
 3662 0335 73696545 		.ascii	"sieEp\000"
 3662      7000
ARM GAS  C:\Users\Thomas\AppData\Local\Temp\ccHSNeoG.s 			page 112


 3663              	.LASF19:
 3664 033b 61747472 		.ascii	"attrib\000"
 3664      696200
 3665              	.LASF84:
 3666 0342 55534255 		.ascii	"USBUART_1_configuration\000"
 3666      4152545F 
 3666      315F636F 
 3666      6E666967 
 3666      75726174 
 3667              	.LASF40:
 3668 035a 72775261 		.ascii	"rwRaMsb\000"
 3668      4D736200 
 3669              	.LASF29:
 3670 0362 6570436E 		.ascii	"epCnt0\000"
 3670      743000
 3671              	.LASF30:
 3672 0369 6570436E 		.ascii	"epCnt1\000"
 3672      743100
 3673              	.LASF94:
 3674 0370 4379496E 		.ascii	"CyIntSetPriority\000"
 3674      74536574 
 3674      5072696F 
 3674      72697479 
 3674      00
 3675              	.LASF31:
 3676 0381 65704372 		.ascii	"epCr0\000"
 3676      3000
 3677              	.LASF12:
 3678 0387 666C6F61 		.ascii	"float\000"
 3678      7400
 3679              	.LASF93:
 3680 038d 43794578 		.ascii	"CyExitCriticalSection\000"
 3680      69744372 
 3680      69746963 
 3680      616C5365 
 3680      6374696F 
 3681              	.LASF20:
 3682 03a3 61706945 		.ascii	"apiEpState\000"
 3682      70537461 
 3682      746500
 3683              	.LASF51:
 3684 03ae 55534255 		.ascii	"USBUART_1_Start\000"
 3684      4152545F 
 3684      315F5374 
 3684      61727400 
 3685              	.LASF100:
 3686 03be 43794465 		.ascii	"CyDelayCycles\000"
 3686      6C617943 
 3686      79636C65 
 3686      7300
 3687              	.LASF74:
 3688 03cc 55534255 		.ascii	"USBUART_1_RWUEnabled\000"
 3688      4152545F 
 3688      315F5257 
 3688      55456E61 
 3688      626C6564 
 3689              	.LASF15:
ARM GAS  C:\Users\Thomas\AppData\Local\Temp\ccHSNeoG.s 			page 113


 3690 03e1 72656738 		.ascii	"reg8\000"
 3690      00
 3691              	.LASF1:
 3692 03e6 756E7369 		.ascii	"unsigned char\000"
 3692      676E6564 
 3692      20636861 
 3692      7200
 3693              	.LASF52:
 3694 03f4 55534255 		.ascii	"USBUART_1_Stop\000"
 3694      4152545F 
 3694      315F5374 
 3694      6F7000
 3695              	.LASF2:
 3696 0403 73686F72 		.ascii	"short int\000"
 3696      7420696E 
 3696      7400
 3697              	.LASF32:
 3698 040d 55534255 		.ascii	"USBUART_1_sie_ep_struct\000"
 3698      4152545F 
 3698      315F7369 
 3698      655F6570 
 3698      5F737472 
 3699              	.LASF55:
 3700 0425 55534255 		.ascii	"USBUART_1_CheckActivity\000"
 3700      4152545F 
 3700      315F4368 
 3700      65636B41 
 3700      63746976 
 3701              	.LASF39:
 3702 043d 72775261 		.ascii	"rwRa\000"
 3702      00
 3703              	.LASF68:
 3704 0442 55534255 		.ascii	"USBUART_1_DisableOutEP\000"
 3704      4152545F 
 3704      315F4469 
 3704      7361626C 
 3704      654F7574 
 3705              	.LASF38:
 3706 0459 72775761 		.ascii	"rwWaMsb\000"
 3706      4D736200 
 3707              	.LASF70:
 3708 0461 62537461 		.ascii	"bState\000"
 3708      746500
 3709              	.LASF65:
 3710 0468 6C656E67 		.ascii	"length\000"
 3710      746800
 3711              	.LASF14:
 3712 046f 63686172 		.ascii	"char\000"
 3712      00
 3713              	.LASF50:
 3714 0474 6D6F6465 		.ascii	"mode\000"
 3714      00
 3715              	.LASF17:
 3716 0479 63796973 		.ascii	"cyisraddress\000"
 3716      72616464 
 3716      72657373 
 3716      00
ARM GAS  C:\Users\Thomas\AppData\Local\Temp\ccHSNeoG.s 			page 114


 3717              	.LASF77:
 3718 0486 55534255 		.ascii	"USBUART_1_GetDeviceAddress\000"
 3718      4152545F 
 3718      315F4765 
 3718      74446576 
 3718      69636541 
 3719              	.LASF26:
 3720 04a1 62756666 		.ascii	"bufferSize\000"
 3720      65725369 
 3720      7A6500
 3721              	.LASF25:
 3722 04ac 62756666 		.ascii	"buffOffset\000"
 3722      4F666673 
 3722      657400
 3723              	.LASF80:
 3724 04b7 55534255 		.ascii	"USBUART_1_DisableSofInt\000"
 3724      4152545F 
 3724      315F4469 
 3724      7361626C 
 3724      65536F66 
 3725              	.LASF58:
 3726 04cf 696E7465 		.ascii	"interfaceNumber\000"
 3726      72666163 
 3726      654E756D 
 3726      62657200 
 3727              	.LASF48:
 3728 04df 55534255 		.ascii	"USBUART_1_InitComponent\000"
 3728      4152545F 
 3728      315F496E 
 3728      6974436F 
 3728      6D706F6E 
 3729              	.LASF63:
 3730 04f7 55534255 		.ascii	"USBUART_1_LoadInEP\000"
 3730      4152545F 
 3730      315F4C6F 
 3730      6164496E 
 3730      455000
 3731              	.LASF53:
 3732 050a 656E6162 		.ascii	"enableInterrupts\000"
 3732      6C65496E 
 3732      74657272 
 3732      75707473 
 3732      00
 3733              	.LASF87:
 3734 051b 55534255 		.ascii	"USBUART_1_interfaceNumber\000"
 3734      4152545F 
 3734      315F696E 
 3734      74657266 
 3734      6163654E 
 3735              	.LASF95:
 3736 0535 474E5520 		.ascii	"GNU C 4.9.3 20150303 (release) [ARM/embedded-4_9-br"
 3736      4320342E 
 3736      392E3320 
 3736      32303135 
 3736      30333033 
 3737 0568 616E6368 		.ascii	"anch revision 221220] -mcpu=cortex-m3 -mthumb -g -O"
 3737      20726576 
ARM GAS  C:\Users\Thomas\AppData\Local\Temp\ccHSNeoG.s 			page 115


 3737      6973696F 
 3737      6E203232 
 3737      31323230 
 3738 059b 67202D66 		.ascii	"g -ffunction-sections -ffat-lto-objects\000"
 3738      66756E63 
 3738      74696F6E 
 3738      2D736563 
 3738      74696F6E 
 3739              	.LASF41:
 3740 05c3 72774472 		.ascii	"rwDr\000"
 3740      00
 3741              	.LASF76:
 3742 05c8 55534255 		.ascii	"USBUART_1_GetConfiguration\000"
 3742      4152545F 
 3742      315F4765 
 3742      74436F6E 
 3742      66696775 
 3743              	.LASF83:
 3744 05e3 55534255 		.ascii	"USBUART_1_transferState\000"
 3744      4152545F 
 3744      315F7472 
 3744      616E7366 
 3744      65725374 
 3745              	.LASF69:
 3746 05fb 55534255 		.ascii	"USBUART_1_Force\000"
 3746      4152545F 
 3746      315F466F 
 3746      72636500 
 3747              	.LASF34:
 3748 060b 6570496E 		.ascii	"epIntEn\000"
 3748      74456E00 
 3749              	.LASF97:
 3750 0613 433A5C55 		.ascii	"C:\\Users\\Thomas\\Documents\\PSoC Creator\\TASBot\\"
 3750      73657273 
 3750      5C54686F 
 3750      6D61735C 
 3750      446F6375 
 3751 0641 54415342 		.ascii	"TASBot.cydsn\000"
 3751      6F742E63 
 3751      7964736E 
 3751      00
 3752              	.LASF79:
 3753 064e 55534255 		.ascii	"USBUART_1_EnableSofInt\000"
 3753      4152545F 
 3753      315F456E 
 3753      61626C65 
 3753      536F6649 
 3754              	.LASF90:
 3755 0665 55534255 		.ascii	"USBUART_1_EP\000"
 3755      4152545F 
 3755      315F4550 
 3755      00
 3756              	.LASF75:
 3757 0672 72657375 		.ascii	"result\000"
 3757      6C7400
 3758              	.LASF56:
 3759 0679 55534255 		.ascii	"USBUART_1_IsConfigurationChanged\000"
ARM GAS  C:\Users\Thomas\AppData\Local\Temp\ccHSNeoG.s 			page 116


 3759      4152545F 
 3759      315F4973 
 3759      436F6E66 
 3759      69677572 
 3760              		.ident	"GCC: (GNU Tools for ARM Embedded Processors) 4.9.3 20150303 (release) [ARM/embedded-4_9-br
