ARM GAS  C:\Users\Thomas\AppData\Local\Temp\ccHSNeoG.s 			page 1


   1              		.syntax unified
   2              		.cpu cortex-m3
   3              		.fpu softvfp
   4              		.eabi_attribute 20, 1
   5              		.eabi_attribute 21, 1
   6              		.eabi_attribute 23, 3
   7              		.eabi_attribute 24, 1
   8              		.eabi_attribute 25, 1
   9              		.eabi_attribute 26, 1
  10              		.eabi_attribute 30, 1
  11              		.eabi_attribute 34, 1
  12              		.eabi_attribute 18, 4
  13              		.thumb
  14              		.file	"USBUART_1.c"
  15              		.text
  16              	.Ltext0:
  17              		.cfi_sections	.debug_frame
  18              		.section	.text.USBUART_1_Init,"ax",%progbits
  19              		.align	2
  20              		.global	USBUART_1_Init
  21              		.thumb
  22              		.thumb_func
  23              		.type	USBUART_1_Init, %function
  24              	USBUART_1_Init:
  25              	.LFB1:
  26              		.file 1 ".\\Generated_Source\\PSoC5\\USBUART_1.c"
   1:.\Generated_Source\PSoC5/USBUART_1.c **** /***************************************************************************//**
   2:.\Generated_Source\PSoC5/USBUART_1.c **** * \file USBUART_1.c
   3:.\Generated_Source\PSoC5/USBUART_1.c **** * \version 3.0
   4:.\Generated_Source\PSoC5/USBUART_1.c **** *
   5:.\Generated_Source\PSoC5/USBUART_1.c **** * \brief
   6:.\Generated_Source\PSoC5/USBUART_1.c **** *  This file contains the global USBFS API functions.
   7:.\Generated_Source\PSoC5/USBUART_1.c **** *
   8:.\Generated_Source\PSoC5/USBUART_1.c **** * Note:
   9:.\Generated_Source\PSoC5/USBUART_1.c **** *  Many of the functions use an endpoint number. SRAM arrays are sized with 9
  10:.\Generated_Source\PSoC5/USBUART_1.c **** *  elements, so they are indexed directly by epNumber.  The SIE and ARB
  11:.\Generated_Source\PSoC5/USBUART_1.c **** *  registers are indexed by variations of epNumber - 1.
  12:.\Generated_Source\PSoC5/USBUART_1.c **** *
  13:.\Generated_Source\PSoC5/USBUART_1.c **** ********************************************************************************
  14:.\Generated_Source\PSoC5/USBUART_1.c **** * \copyright
  15:.\Generated_Source\PSoC5/USBUART_1.c **** * Copyright 2008-2015, Cypress Semiconductor Corporation.  All rights reserved.
  16:.\Generated_Source\PSoC5/USBUART_1.c **** * You may use this file only in accordance with the license, terms, conditions,
  17:.\Generated_Source\PSoC5/USBUART_1.c **** * disclaimers, and limitations in the end user license agreement accompanying
  18:.\Generated_Source\PSoC5/USBUART_1.c **** * the software package with which this file was provided.
  19:.\Generated_Source\PSoC5/USBUART_1.c **** *******************************************************************************/
  20:.\Generated_Source\PSoC5/USBUART_1.c **** 
  21:.\Generated_Source\PSoC5/USBUART_1.c **** #include "USBUART_1_pvt.h"
  22:.\Generated_Source\PSoC5/USBUART_1.c **** #include "USBUART_1_cydmac.h"
  23:.\Generated_Source\PSoC5/USBUART_1.c **** #include "USBUART_1_hid.h"
  24:.\Generated_Source\PSoC5/USBUART_1.c **** 
  25:.\Generated_Source\PSoC5/USBUART_1.c **** 
  26:.\Generated_Source\PSoC5/USBUART_1.c **** /***************************************
  27:.\Generated_Source\PSoC5/USBUART_1.c **** * Global data allocation
  28:.\Generated_Source\PSoC5/USBUART_1.c **** ***************************************/
  29:.\Generated_Source\PSoC5/USBUART_1.c **** 
  30:.\Generated_Source\PSoC5/USBUART_1.c **** /** Indicates whether the USBFS has been initialized. The variable is
  31:.\Generated_Source\PSoC5/USBUART_1.c **** * initialized to 0 after device reset and set to 1 the first time USBFS_Start()
ARM GAS  C:\Users\Thomas\AppData\Local\Temp\ccHSNeoG.s 			page 2


  32:.\Generated_Source\PSoC5/USBUART_1.c **** * is called. This allows the Component to restart without reinitialization after
  33:.\Generated_Source\PSoC5/USBUART_1.c **** * the first call to the USBFS_Start() routine.
  34:.\Generated_Source\PSoC5/USBUART_1.c **** * If re-initialization of the Component is required, the variable should be set
  35:.\Generated_Source\PSoC5/USBUART_1.c **** * to 0 before the USBFS_Start() routine is called. Alternatively, the USBFS can
  36:.\Generated_Source\PSoC5/USBUART_1.c **** * be reinitialized by calling both USBFS_Init() and USBFS_InitComponent()
  37:.\Generated_Source\PSoC5/USBUART_1.c **** * functions.
  38:.\Generated_Source\PSoC5/USBUART_1.c **** */
  39:.\Generated_Source\PSoC5/USBUART_1.c **** uint8 USBUART_1_initVar = 0u;
  40:.\Generated_Source\PSoC5/USBUART_1.c **** 
  41:.\Generated_Source\PSoC5/USBUART_1.c **** #if (USBUART_1_EP_MANAGEMENT_DMA)
  42:.\Generated_Source\PSoC5/USBUART_1.c ****     #if (CY_PSOC4)
  43:.\Generated_Source\PSoC5/USBUART_1.c ****         static void USBUART_1_InitEpDma(void);
  44:.\Generated_Source\PSoC5/USBUART_1.c **** 
  45:.\Generated_Source\PSoC5/USBUART_1.c ****         /* DMA chanels assigend for endpoints. */
  46:.\Generated_Source\PSoC5/USBUART_1.c ****         const uint8 USBUART_1_DmaChan[USBUART_1_MAX_EP] =
  47:.\Generated_Source\PSoC5/USBUART_1.c ****         {
  48:.\Generated_Source\PSoC5/USBUART_1.c ****             0u,
  49:.\Generated_Source\PSoC5/USBUART_1.c ****             0u,
  50:.\Generated_Source\PSoC5/USBUART_1.c ****             0u,
  51:.\Generated_Source\PSoC5/USBUART_1.c ****             0u,
  52:.\Generated_Source\PSoC5/USBUART_1.c ****             0u,
  53:.\Generated_Source\PSoC5/USBUART_1.c ****             0u,
  54:.\Generated_Source\PSoC5/USBUART_1.c ****             0u,
  55:.\Generated_Source\PSoC5/USBUART_1.c ****             0u,
  56:.\Generated_Source\PSoC5/USBUART_1.c ****             0u,
  57:.\Generated_Source\PSoC5/USBUART_1.c ****         };        
  58:.\Generated_Source\PSoC5/USBUART_1.c ****     #else
  59:.\Generated_Source\PSoC5/USBUART_1.c ****         /* DMA chanels assigend for endpoints. */
  60:.\Generated_Source\PSoC5/USBUART_1.c ****         uint8 USBUART_1_DmaChan[USBUART_1_MAX_EP];
  61:.\Generated_Source\PSoC5/USBUART_1.c ****         
  62:.\Generated_Source\PSoC5/USBUART_1.c ****         /* DMA TDs require for PSoC 3/5LP operation. */
  63:.\Generated_Source\PSoC5/USBUART_1.c ****         uint8 USBUART_1_DmaTd[USBUART_1_MAX_EP];
  64:.\Generated_Source\PSoC5/USBUART_1.c ****     #endif /* (CY_PSOC4) */
  65:.\Generated_Source\PSoC5/USBUART_1.c **** #endif /* (USBUART_1_EP_MANAGEMENT_DMA) */
  66:.\Generated_Source\PSoC5/USBUART_1.c **** 
  67:.\Generated_Source\PSoC5/USBUART_1.c **** #if (USBUART_1_EP_MANAGEMENT_DMA_AUTO)
  68:.\Generated_Source\PSoC5/USBUART_1.c **** #if (CY_PSOC4)
  69:.\Generated_Source\PSoC5/USBUART_1.c ****     /* Number of DMA bursts. */
  70:.\Generated_Source\PSoC5/USBUART_1.c ****     uint8  USBUART_1_DmaEpBurstCnt   [USBUART_1_MAX_EP];
  71:.\Generated_Source\PSoC5/USBUART_1.c ****     
  72:.\Generated_Source\PSoC5/USBUART_1.c ****     /* Number of bytes to transfer in last DMA burst. */
  73:.\Generated_Source\PSoC5/USBUART_1.c ****     uint8  USBUART_1_DmaEpLastBurstEl[USBUART_1_MAX_EP];
  74:.\Generated_Source\PSoC5/USBUART_1.c **** 
  75:.\Generated_Source\PSoC5/USBUART_1.c ****     /* Storage for arrays above. */
  76:.\Generated_Source\PSoC5/USBUART_1.c ****     uint8  USBUART_1_DmaEpBurstCntBackup  [USBUART_1_MAX_EP];
  77:.\Generated_Source\PSoC5/USBUART_1.c ****     uint32 USBUART_1_DmaEpBufferAddrBackup[USBUART_1_MAX_EP];
  78:.\Generated_Source\PSoC5/USBUART_1.c ****      
  79:.\Generated_Source\PSoC5/USBUART_1.c ****     /* DMA trigger mux output for usb.dma_req[0-7]. */
  80:.\Generated_Source\PSoC5/USBUART_1.c ****     const uint8 USBUART_1_DmaReqOut[USBUART_1_MAX_EP] =
  81:.\Generated_Source\PSoC5/USBUART_1.c ****     {
  82:.\Generated_Source\PSoC5/USBUART_1.c ****         0u,
  83:.\Generated_Source\PSoC5/USBUART_1.c ****         USBUART_1_ep1_dma__TR_OUTPUT,
  84:.\Generated_Source\PSoC5/USBUART_1.c ****         USBUART_1_ep2_dma__TR_OUTPUT,
  85:.\Generated_Source\PSoC5/USBUART_1.c ****         USBUART_1_ep3_dma__TR_OUTPUT,
  86:.\Generated_Source\PSoC5/USBUART_1.c ****         0u,
  87:.\Generated_Source\PSoC5/USBUART_1.c ****         0u,
  88:.\Generated_Source\PSoC5/USBUART_1.c ****         0u,
ARM GAS  C:\Users\Thomas\AppData\Local\Temp\ccHSNeoG.s 			page 3


  89:.\Generated_Source\PSoC5/USBUART_1.c ****         0u,
  90:.\Generated_Source\PSoC5/USBUART_1.c ****         0u,
  91:.\Generated_Source\PSoC5/USBUART_1.c ****     };
  92:.\Generated_Source\PSoC5/USBUART_1.c **** 
  93:.\Generated_Source\PSoC5/USBUART_1.c ****     /* DMA trigger mux output for usb.dma_burstend[0-7]. */
  94:.\Generated_Source\PSoC5/USBUART_1.c ****     const uint8 USBUART_1_DmaBurstEndOut[USBUART_1_MAX_EP] =
  95:.\Generated_Source\PSoC5/USBUART_1.c ****     {
  96:.\Generated_Source\PSoC5/USBUART_1.c ****         0u,
  97:.\Generated_Source\PSoC5/USBUART_1.c ****         USBUART_1_BURSTEND_0_TR_OUTPUT,
  98:.\Generated_Source\PSoC5/USBUART_1.c ****         USBUART_1_BURSTEND_1_TR_OUTPUT,
  99:.\Generated_Source\PSoC5/USBUART_1.c ****         USBUART_1_BURSTEND_2_TR_OUTPUT,
 100:.\Generated_Source\PSoC5/USBUART_1.c ****         USBUART_1_BURSTEND_3_TR_OUTPUT,
 101:.\Generated_Source\PSoC5/USBUART_1.c ****         USBUART_1_BURSTEND_4_TR_OUTPUT,
 102:.\Generated_Source\PSoC5/USBUART_1.c ****         USBUART_1_BURSTEND_5_TR_OUTPUT,
 103:.\Generated_Source\PSoC5/USBUART_1.c ****         USBUART_1_BURSTEND_6_TR_OUTPUT,
 104:.\Generated_Source\PSoC5/USBUART_1.c ****         USBUART_1_BURSTEND_7_TR_OUTPUT
 105:.\Generated_Source\PSoC5/USBUART_1.c ****     };
 106:.\Generated_Source\PSoC5/USBUART_1.c ****     
 107:.\Generated_Source\PSoC5/USBUART_1.c **** #else
 108:.\Generated_Source\PSoC5/USBUART_1.c ****     #if (USBUART_1_EP_DMA_AUTO_OPT == 0u)
 109:.\Generated_Source\PSoC5/USBUART_1.c ****         static uint8 clearInDataRdyStatus = USBUART_1_ARB_EPX_CFG_DEFAULT;
 110:.\Generated_Source\PSoC5/USBUART_1.c ****         uint8 USBUART_1_DmaNextTd[USBUART_1_MAX_EP];
 111:.\Generated_Source\PSoC5/USBUART_1.c ****         const uint8 USBUART_1_epX_TD_TERMOUT_EN[USBUART_1_MAX_EP] =
 112:.\Generated_Source\PSoC5/USBUART_1.c ****         {
 113:.\Generated_Source\PSoC5/USBUART_1.c ****             0u,
 114:.\Generated_Source\PSoC5/USBUART_1.c ****             0u,
 115:.\Generated_Source\PSoC5/USBUART_1.c ****             0u,
 116:.\Generated_Source\PSoC5/USBUART_1.c ****             0u,
 117:.\Generated_Source\PSoC5/USBUART_1.c ****             0u,
 118:.\Generated_Source\PSoC5/USBUART_1.c ****             0u,
 119:.\Generated_Source\PSoC5/USBUART_1.c ****             0u,
 120:.\Generated_Source\PSoC5/USBUART_1.c ****             0u,
 121:.\Generated_Source\PSoC5/USBUART_1.c ****             0u,
 122:.\Generated_Source\PSoC5/USBUART_1.c ****         };
 123:.\Generated_Source\PSoC5/USBUART_1.c **** 
 124:.\Generated_Source\PSoC5/USBUART_1.c ****         volatile uint16 USBUART_1_inLength[USBUART_1_MAX_EP];
 125:.\Generated_Source\PSoC5/USBUART_1.c ****         const uint8 *USBUART_1_inDataPointer[USBUART_1_MAX_EP];
 126:.\Generated_Source\PSoC5/USBUART_1.c ****         volatile uint8 USBUART_1_inBufFull[USBUART_1_MAX_EP];
 127:.\Generated_Source\PSoC5/USBUART_1.c ****     #endif /* (USBUART_1_EP_DMA_AUTO_OPT == 0u) */
 128:.\Generated_Source\PSoC5/USBUART_1.c **** #endif /* (CY_PSOC4) */
 129:.\Generated_Source\PSoC5/USBUART_1.c **** #endif /* (USBUART_1_EP_MANAGEMENT_DMA_AUTO) */
 130:.\Generated_Source\PSoC5/USBUART_1.c **** 
 131:.\Generated_Source\PSoC5/USBUART_1.c **** 
 132:.\Generated_Source\PSoC5/USBUART_1.c **** /*******************************************************************************
 133:.\Generated_Source\PSoC5/USBUART_1.c **** * Function Name: USBUART_1_Start
 134:.\Generated_Source\PSoC5/USBUART_1.c **** ****************************************************************************//**
 135:.\Generated_Source\PSoC5/USBUART_1.c **** *
 136:.\Generated_Source\PSoC5/USBUART_1.c **** *   This function performs all required initialization for the USBFS component.
 137:.\Generated_Source\PSoC5/USBUART_1.c **** *   After this function call, the USB device initiates communication with the
 138:.\Generated_Source\PSoC5/USBUART_1.c **** *   host by pull-up D+ line. This is the preferred method to begin component
 139:.\Generated_Source\PSoC5/USBUART_1.c **** *   operation.
 140:.\Generated_Source\PSoC5/USBUART_1.c **** *
 141:.\Generated_Source\PSoC5/USBUART_1.c **** *   Note that global interrupts have to be enabled because interrupts are
 142:.\Generated_Source\PSoC5/USBUART_1.c **** *   required for USBFS component operation.
 143:.\Generated_Source\PSoC5/USBUART_1.c **** *
 144:.\Generated_Source\PSoC5/USBUART_1.c **** *   PSoC 4200L devices: when USBFS component configured to DMA with Automatic
 145:.\Generated_Source\PSoC5/USBUART_1.c **** *   Buffer Management, the DMA interrupt priority is changed to the highest
ARM GAS  C:\Users\Thomas\AppData\Local\Temp\ccHSNeoG.s 			page 4


 146:.\Generated_Source\PSoC5/USBUART_1.c **** *   (priority 0) inside this function.
 147:.\Generated_Source\PSoC5/USBUART_1.c **** *
 148:.\Generated_Source\PSoC5/USBUART_1.c **** *   PSoC 3/PSoC 5LP devices: when USBFS component configured to DMA with
 149:.\Generated_Source\PSoC5/USBUART_1.c **** *   Automatic Buffer Management, the Arbiter interrupt priority is changed to
 150:.\Generated_Source\PSoC5/USBUART_1.c **** *   the highest (priority 0) inside this function.
 151:.\Generated_Source\PSoC5/USBUART_1.c **** *
 152:.\Generated_Source\PSoC5/USBUART_1.c **** *  \param device
 153:.\Generated_Source\PSoC5/USBUART_1.c **** *          Contains the device number of the desired device descriptor.
 154:.\Generated_Source\PSoC5/USBUART_1.c **** *          The device number can be found in the Device Descriptor Tab of
 155:.\Generated_Source\PSoC5/USBUART_1.c **** *          "Configure" dialog, under the settings of desired Device Descriptor,
 156:.\Generated_Source\PSoC5/USBUART_1.c **** *          in the "Device Number" field.
 157:.\Generated_Source\PSoC5/USBUART_1.c **** *  \param mode:
 158:.\Generated_Source\PSoC5/USBUART_1.c **** *   The operating voltage. This determines whether the voltage regulator
 159:.\Generated_Source\PSoC5/USBUART_1.c **** *   is enabled for 5V operation or if pass through mode is used for 3.3V
 160:.\Generated_Source\PSoC5/USBUART_1.c **** *   operation. Symbolic names and their associated values are given in the
 161:.\Generated_Source\PSoC5/USBUART_1.c **** *   following list.
 162:.\Generated_Source\PSoC5/USBUART_1.c **** *
 163:.\Generated_Source\PSoC5/USBUART_1.c **** *       *USBUART_1_3V_OPERATION* - Disable voltage regulator and pass-
 164:.\Generated_Source\PSoC5/USBUART_1.c **** *                                      through Vcc for pull-up
 165:.\Generated_Source\PSoC5/USBUART_1.c **** *
 166:.\Generated_Source\PSoC5/USBUART_1.c **** *       *USBUART_1_5V_OPERATION* - Enable voltage regulator and use
 167:.\Generated_Source\PSoC5/USBUART_1.c **** *                                      regulator for pull-up
 168:.\Generated_Source\PSoC5/USBUART_1.c **** *
 169:.\Generated_Source\PSoC5/USBUART_1.c **** *       *USBUART_1_DWR_POWER_OPERATION* - Enable or disable the voltage
 170:.\Generated_Source\PSoC5/USBUART_1.c **** *                                      regulator depending on the power supply
 171:.\Generated_Source\PSoC5/USBUART_1.c **** *                                      voltage configuration in the DWR tab.
 172:.\Generated_Source\PSoC5/USBUART_1.c **** *                                      For PSoC 3/5LP devices, the VDDD supply
 173:.\Generated_Source\PSoC5/USBUART_1.c **** *                                      voltage is considered and for PSoC 4A-L,
 174:.\Generated_Source\PSoC5/USBUART_1.c **** *                                      the VBUS supply voltage is considered.*
 175:.\Generated_Source\PSoC5/USBUART_1.c **** * \globalvars
 176:.\Generated_Source\PSoC5/USBUART_1.c **** *  \ref USBUART_1_initVar
 177:.\Generated_Source\PSoC5/USBUART_1.c **** *
 178:.\Generated_Source\PSoC5/USBUART_1.c **** * \sideeffect
 179:.\Generated_Source\PSoC5/USBUART_1.c **** *   This function will reset all communication states to default.
 180:.\Generated_Source\PSoC5/USBUART_1.c **** *
 181:.\Generated_Source\PSoC5/USBUART_1.c **** * \reentrant
 182:.\Generated_Source\PSoC5/USBUART_1.c **** *  No.
 183:.\Generated_Source\PSoC5/USBUART_1.c **** *
 184:.\Generated_Source\PSoC5/USBUART_1.c **** *******************************************************************************/
 185:.\Generated_Source\PSoC5/USBUART_1.c **** void USBUART_1_Start(uint8 device, uint8 mode) 
 186:.\Generated_Source\PSoC5/USBUART_1.c **** {
 187:.\Generated_Source\PSoC5/USBUART_1.c ****     if (0u == USBUART_1_initVar)
 188:.\Generated_Source\PSoC5/USBUART_1.c ****     {
 189:.\Generated_Source\PSoC5/USBUART_1.c ****         USBUART_1_Init();
 190:.\Generated_Source\PSoC5/USBUART_1.c ****         USBUART_1_initVar = 1u;
 191:.\Generated_Source\PSoC5/USBUART_1.c ****     }
 192:.\Generated_Source\PSoC5/USBUART_1.c **** 
 193:.\Generated_Source\PSoC5/USBUART_1.c ****     USBUART_1_InitComponent(device, mode);
 194:.\Generated_Source\PSoC5/USBUART_1.c **** }
 195:.\Generated_Source\PSoC5/USBUART_1.c **** 
 196:.\Generated_Source\PSoC5/USBUART_1.c **** 
 197:.\Generated_Source\PSoC5/USBUART_1.c **** /*******************************************************************************
 198:.\Generated_Source\PSoC5/USBUART_1.c **** * Function Name: USBUART_1_Init
 199:.\Generated_Source\PSoC5/USBUART_1.c **** ****************************************************************************//**
 200:.\Generated_Source\PSoC5/USBUART_1.c **** *
 201:.\Generated_Source\PSoC5/USBUART_1.c **** * This function initializes or restores the component according to the
 202:.\Generated_Source\PSoC5/USBUART_1.c **** * customizer Configure dialog settings. It is not necessary to call
ARM GAS  C:\Users\Thomas\AppData\Local\Temp\ccHSNeoG.s 			page 5


 203:.\Generated_Source\PSoC5/USBUART_1.c **** * USBUART_1_Init() because the USBUART_1_Start() routine calls
 204:.\Generated_Source\PSoC5/USBUART_1.c **** * this function and is the preferred method to begin component operation.
 205:.\Generated_Source\PSoC5/USBUART_1.c **** *
 206:.\Generated_Source\PSoC5/USBUART_1.c **** * \reentrant
 207:.\Generated_Source\PSoC5/USBUART_1.c **** *  No.
 208:.\Generated_Source\PSoC5/USBUART_1.c **** *
 209:.\Generated_Source\PSoC5/USBUART_1.c **** *******************************************************************************/
 210:.\Generated_Source\PSoC5/USBUART_1.c **** void USBUART_1_Init(void) 
 211:.\Generated_Source\PSoC5/USBUART_1.c **** {
  27              		.loc 1 211 0
  28              		.cfi_startproc
  29              		@ args = 0, pretend = 0, frame = 0
  30              		@ frame_needed = 0, uses_anonymous_args = 0
  31 0000 F8B5     		push	{r3, r4, r5, r6, r7, lr}
  32              		.cfi_def_cfa_offset 24
  33              		.cfi_offset 3, -24
  34              		.cfi_offset 4, -20
  35              		.cfi_offset 5, -16
  36              		.cfi_offset 6, -12
  37              		.cfi_offset 7, -8
  38              		.cfi_offset 14, -4
 212:.\Generated_Source\PSoC5/USBUART_1.c **** #if (CY_PSOC4)
 213:.\Generated_Source\PSoC5/USBUART_1.c ****     /* Enable clock to USB IP. */
 214:.\Generated_Source\PSoC5/USBUART_1.c ****     USBUART_1_USB_CLK_EN_REG = USBUART_1_USB_CLK_CSR_CLK_EN;
 215:.\Generated_Source\PSoC5/USBUART_1.c **** 
 216:.\Generated_Source\PSoC5/USBUART_1.c ****     /* The internal regulator (CR1.REG_ENABLE) is enabled in
 217:.\Generated_Source\PSoC5/USBUART_1.c ****     * USBUART_1_InitComponent() if it is required.
 218:.\Generated_Source\PSoC5/USBUART_1.c ****     */
 219:.\Generated_Source\PSoC5/USBUART_1.c **** 
 220:.\Generated_Source\PSoC5/USBUART_1.c ****     /* Enable USBIO control on drive mode of D+ and D- pins. */
 221:.\Generated_Source\PSoC5/USBUART_1.c ****     USBUART_1_USBIO_CR1_REG &= ~ (uint32) USBUART_1_USBIO_CR1_IOMODE;
 222:.\Generated_Source\PSoC5/USBUART_1.c **** 
 223:.\Generated_Source\PSoC5/USBUART_1.c ****     /* Set number of LF CLK to detect UBS bus reset. */
 224:.\Generated_Source\PSoC5/USBUART_1.c ****     USBUART_1_BUS_RST_CNT_REG = USBUART_1_DEFUALT_BUS_RST_CNT;
 225:.\Generated_Source\PSoC5/USBUART_1.c **** 
 226:.\Generated_Source\PSoC5/USBUART_1.c ****     /* Select VBUS detection source and clear PHY isolate. The application level
 227:.\Generated_Source\PSoC5/USBUART_1.c ****     * must ensure that VBUS is valid. There is no need to wait 2us before VBUS is valid.
 228:.\Generated_Source\PSoC5/USBUART_1.c ****     */
 229:.\Generated_Source\PSoC5/USBUART_1.c ****     USBUART_1_POWER_CTRL_REG = USBUART_1_DEFAULT_POWER_CTRL_VBUS;
 230:.\Generated_Source\PSoC5/USBUART_1.c **** 
 231:.\Generated_Source\PSoC5/USBUART_1.c ****     /* Enable PHY detector and single-ended and differential receivers. */
 232:.\Generated_Source\PSoC5/USBUART_1.c ****     USBUART_1_POWER_CTRL_REG |= USBUART_1_DEFAULT_POWER_CTRL_PHY;
 233:.\Generated_Source\PSoC5/USBUART_1.c **** 
 234:.\Generated_Source\PSoC5/USBUART_1.c ****     /* Suspend clear sequence. */
 235:.\Generated_Source\PSoC5/USBUART_1.c ****     USBUART_1_POWER_CTRL_REG &= (uint32) ~USBUART_1_POWER_CTRL_SUSPEND;
 236:.\Generated_Source\PSoC5/USBUART_1.c ****     CyDelayUs(USBUART_1_WAIT_SUSPEND_DEL_DISABLE);
 237:.\Generated_Source\PSoC5/USBUART_1.c ****     USBUART_1_POWER_CTRL_REG &= (uint32) ~USBUART_1_POWER_CTRL_SUSPEND_DEL;
 238:.\Generated_Source\PSoC5/USBUART_1.c **** 
 239:.\Generated_Source\PSoC5/USBUART_1.c ****     /* Sets IMO lock options and clear all other bits. */
 240:.\Generated_Source\PSoC5/USBUART_1.c ****     USBUART_1_CR1_REG = USBUART_1_DEFUALT_CR1;
 241:.\Generated_Source\PSoC5/USBUART_1.c **** 
 242:.\Generated_Source\PSoC5/USBUART_1.c ****     /* Configure level (hi, lo, med) for each interrupt source. */
 243:.\Generated_Source\PSoC5/USBUART_1.c ****     USBUART_1_INTR_LVL_SEL_REG = USBUART_1_DEFAULT_INTR_LVL_SEL;
 244:.\Generated_Source\PSoC5/USBUART_1.c **** 
 245:.\Generated_Source\PSoC5/USBUART_1.c ****     /* Configure interrupt sources from: SOF, Bus Reset and EP0. */
 246:.\Generated_Source\PSoC5/USBUART_1.c ****     USBUART_1_INTR_SIE_MASK_REG = USBUART_1_DEFAULT_INTR_SIE_MASK;
 247:.\Generated_Source\PSoC5/USBUART_1.c **** 
ARM GAS  C:\Users\Thomas\AppData\Local\Temp\ccHSNeoG.s 			page 6


 248:.\Generated_Source\PSoC5/USBUART_1.c **** #else
 249:.\Generated_Source\PSoC5/USBUART_1.c ****     uint8 enableInterrupts = CyEnterCriticalSection();
  39              		.loc 1 249 0
  40 0002 FFF7FEFF 		bl	CyEnterCriticalSection
  41              	.LVL0:
  42 0006 0746     		mov	r7, r0
  43              	.LVL1:
 250:.\Generated_Source\PSoC5/USBUART_1.c **** 
 251:.\Generated_Source\PSoC5/USBUART_1.c **** #if (USBUART_1_EP_MANAGEMENT_DMA)
 252:.\Generated_Source\PSoC5/USBUART_1.c ****     uint16 i;
 253:.\Generated_Source\PSoC5/USBUART_1.c **** #endif /* (USBUART_1_EP_MANAGEMENT_DMA) */
 254:.\Generated_Source\PSoC5/USBUART_1.c **** 
 255:.\Generated_Source\PSoC5/USBUART_1.c ****     /* Enable USB block. */
 256:.\Generated_Source\PSoC5/USBUART_1.c ****     USBUART_1_PM_ACT_CFG_REG |= USBUART_1_PM_ACT_EN_FSUSB;
  44              		.loc 1 256 0
  45 0008 404A     		ldr	r2, .L3
  46 000a 1378     		ldrb	r3, [r2]	@ zero_extendqisi2
  47 000c 43F00103 		orr	r3, r3, #1
  48 0010 1370     		strb	r3, [r2]
 257:.\Generated_Source\PSoC5/USBUART_1.c ****     /* Enable USB block for Standby Power Mode. */
 258:.\Generated_Source\PSoC5/USBUART_1.c ****     USBUART_1_PM_STBY_CFG_REG |= USBUART_1_PM_STBY_EN_FSUSB;
  49              		.loc 1 258 0
  50 0012 1032     		adds	r2, r2, #16
  51 0014 1378     		ldrb	r3, [r2]	@ zero_extendqisi2
  52 0016 43F00103 		orr	r3, r3, #1
  53 001a 1370     		strb	r3, [r2]
 259:.\Generated_Source\PSoC5/USBUART_1.c **** 
 260:.\Generated_Source\PSoC5/USBUART_1.c ****     /* Enable core clock. */
 261:.\Generated_Source\PSoC5/USBUART_1.c ****     USBUART_1_USB_CLK_EN_REG = USBUART_1_USB_CLK_ENABLE;
  54              		.loc 1 261 0
  55 001c 0126     		movs	r6, #1
  56 001e 3C4B     		ldr	r3, .L3+4
  57 0020 1E70     		strb	r6, [r3]
 262:.\Generated_Source\PSoC5/USBUART_1.c **** 
 263:.\Generated_Source\PSoC5/USBUART_1.c ****     USBUART_1_CR1_REG = USBUART_1_CR1_ENABLE_LOCK;
  58              		.loc 1 263 0
  59 0022 0225     		movs	r5, #2
  60 0024 943B     		subs	r3, r3, #148
  61 0026 1D70     		strb	r5, [r3]
 264:.\Generated_Source\PSoC5/USBUART_1.c **** 
 265:.\Generated_Source\PSoC5/USBUART_1.c ****     /* ENABLING USBIO PADS IN USB MODE FROM I/O MODE. */
 266:.\Generated_Source\PSoC5/USBUART_1.c ****     /* Ensure USB transmit enable is low (USB_USBIO_CR0.ten). - Manual Transmission - Disabled. */
 267:.\Generated_Source\PSoC5/USBUART_1.c ****     USBUART_1_USBIO_CR0_REG &= (uint8) ~USBUART_1_USBIO_CR0_TEN;
  62              		.loc 1 267 0
  63 0028 02F5E252 		add	r2, r2, #7232
  64 002c 1B32     		adds	r2, r2, #27
  65 002e 1378     		ldrb	r3, [r2]	@ zero_extendqisi2
  66 0030 03F07F03 		and	r3, r3, #127
  67 0034 1370     		strb	r3, [r2]
 268:.\Generated_Source\PSoC5/USBUART_1.c ****     CyDelayUs(USBUART_1_WAIT_REG_STABILITY_50NS);  /* ~50ns delay. */
  68              		.loc 1 268 0
  69 0036 0020     		movs	r0, #0
  70 0038 FFF7FEFF 		bl	CyDelayUs
  71              	.LVL2:
 269:.\Generated_Source\PSoC5/USBUART_1.c ****     /* Disable USBIO by asserting PM.USB_CR0.fsusbio_pd_n(Inverted.
 270:.\Generated_Source\PSoC5/USBUART_1.c ****     *  high. These bits will be set low by the power manager out-of-reset.
 271:.\Generated_Source\PSoC5/USBUART_1.c ****     *  Also confirm USBIO pull-up is disabled.
ARM GAS  C:\Users\Thomas\AppData\Local\Temp\ccHSNeoG.s 			page 7


 272:.\Generated_Source\PSoC5/USBUART_1.c ****     */
 273:.\Generated_Source\PSoC5/USBUART_1.c ****     USBUART_1_PM_USB_CR0_REG &= (uint8) ~(USBUART_1_PM_USB_CR0_PD_N |
  72              		.loc 1 273 0
  73 003c 354C     		ldr	r4, .L3+8
  74 003e 2378     		ldrb	r3, [r4]	@ zero_extendqisi2
  75 0040 03F0F903 		and	r3, r3, #249
  76 0044 2370     		strb	r3, [r4]
 274:.\Generated_Source\PSoC5/USBUART_1.c ****                                                  USBUART_1_PM_USB_CR0_PD_PULLUP_N);
 275:.\Generated_Source\PSoC5/USBUART_1.c **** 
 276:.\Generated_Source\PSoC5/USBUART_1.c ****     /* Select IOMODE to USB mode. */
 277:.\Generated_Source\PSoC5/USBUART_1.c ****     USBUART_1_USBIO_CR1_REG &= (uint8) ~USBUART_1_USBIO_CR1_IOMODE;
  77              		.loc 1 277 0
  78 0046 344A     		ldr	r2, .L3+12
  79 0048 1378     		ldrb	r3, [r2]	@ zero_extendqisi2
  80 004a 03F0DF03 		and	r3, r3, #223
  81 004e 1370     		strb	r3, [r2]
 278:.\Generated_Source\PSoC5/USBUART_1.c **** 
 279:.\Generated_Source\PSoC5/USBUART_1.c ****     /* Enable USBIO reference by setting PM.USB_CR0.fsusbio_ref_en. */
 280:.\Generated_Source\PSoC5/USBUART_1.c ****     USBUART_1_PM_USB_CR0_REG |= USBUART_1_PM_USB_CR0_REF_EN;
  82              		.loc 1 280 0
  83 0050 2378     		ldrb	r3, [r4]	@ zero_extendqisi2
  84 0052 3343     		orrs	r3, r3, r6
  85 0054 2370     		strb	r3, [r4]
 281:.\Generated_Source\PSoC5/USBUART_1.c ****     /* Reference is available for 1us after regulator is enabled. */
 282:.\Generated_Source\PSoC5/USBUART_1.c ****     CyDelayUs(USBUART_1_WAIT_REG_STABILITY_1US);
  86              		.loc 1 282 0
  87 0056 3046     		mov	r0, r6
  88 0058 FFF7FEFF 		bl	CyDelayUs
  89              	.LVL3:
 283:.\Generated_Source\PSoC5/USBUART_1.c ****     /* OR 40us after power is restored. */
 284:.\Generated_Source\PSoC5/USBUART_1.c ****     CyDelayUs(USBUART_1_WAIT_VREF_RESTORE);
  90              		.loc 1 284 0
  91 005c 2820     		movs	r0, #40
  92 005e FFF7FEFF 		bl	CyDelayUs
  93              	.LVL4:
 285:.\Generated_Source\PSoC5/USBUART_1.c ****     /* Ensure single-ended disable bits are low (PRT15.INP_DIS[7:6])(input receiver enabled). */
 286:.\Generated_Source\PSoC5/USBUART_1.c ****     USBUART_1_DM_INP_DIS_REG &= (uint8) ~USBUART_1_DM_MASK;
  94              		.loc 1 286 0
  95 0062 2E4B     		ldr	r3, .L3+16
  96 0064 1A78     		ldrb	r2, [r3]	@ zero_extendqisi2
  97 0066 02F07F02 		and	r2, r2, #127
  98 006a 1A70     		strb	r2, [r3]
 287:.\Generated_Source\PSoC5/USBUART_1.c ****     USBUART_1_DP_INP_DIS_REG &= (uint8) ~USBUART_1_DP_MASK;
  99              		.loc 1 287 0
 100 006c 1A78     		ldrb	r2, [r3]	@ zero_extendqisi2
 101 006e 02F0BF02 		and	r2, r2, #191
 102 0072 1A70     		strb	r2, [r3]
 288:.\Generated_Source\PSoC5/USBUART_1.c **** 
 289:.\Generated_Source\PSoC5/USBUART_1.c ****     /* Enable USBIO. */
 290:.\Generated_Source\PSoC5/USBUART_1.c ****     USBUART_1_PM_USB_CR0_REG |= USBUART_1_PM_USB_CR0_PD_N;
 103              		.loc 1 290 0
 104 0074 2378     		ldrb	r3, [r4]	@ zero_extendqisi2
 105 0076 2B43     		orrs	r3, r3, r5
 106 0078 2370     		strb	r3, [r4]
 291:.\Generated_Source\PSoC5/USBUART_1.c ****     CyDelayUs(USBUART_1_WAIT_PD_PULLUP_N_ENABLE);
 107              		.loc 1 291 0
 108 007a 2846     		mov	r0, r5
ARM GAS  C:\Users\Thomas\AppData\Local\Temp\ccHSNeoG.s 			page 8


 109 007c FFF7FEFF 		bl	CyDelayUs
 110              	.LVL5:
 292:.\Generated_Source\PSoC5/USBUART_1.c ****     /* Set USBIO pull-up enable. */
 293:.\Generated_Source\PSoC5/USBUART_1.c ****     USBUART_1_PM_USB_CR0_REG |= USBUART_1_PM_USB_CR0_PD_PULLUP_N;
 111              		.loc 1 293 0
 112 0080 2378     		ldrb	r3, [r4]	@ zero_extendqisi2
 113 0082 43F00403 		orr	r3, r3, #4
 114 0086 2370     		strb	r3, [r4]
 294:.\Generated_Source\PSoC5/USBUART_1.c **** 
 295:.\Generated_Source\PSoC5/USBUART_1.c ****     /* Reset Arbiter Write Address register for endpoint 1. */
 296:.\Generated_Source\PSoC5/USBUART_1.c ****     CY_SET_REG8(USBUART_1_ARB_RW1_WA_PTR,     0u);
 115              		.loc 1 296 0
 116 0088 0023     		movs	r3, #0
 117 008a 254A     		ldr	r2, .L3+20
 118 008c 1370     		strb	r3, [r2]
 297:.\Generated_Source\PSoC5/USBUART_1.c ****     CY_SET_REG8(USBUART_1_ARB_RW1_WA_MSB_PTR, 0u);
 119              		.loc 1 297 0
 120 008e 0132     		adds	r2, r2, #1
 121 0090 1370     		strb	r3, [r2]
 298:.\Generated_Source\PSoC5/USBUART_1.c **** 
 299:.\Generated_Source\PSoC5/USBUART_1.c **** #if (USBUART_1_EP_MANAGEMENT_DMA)
 300:.\Generated_Source\PSoC5/USBUART_1.c ****     /* Initialize transfer descriptor. This will be used to detect DMA state - initialized or not. 
 301:.\Generated_Source\PSoC5/USBUART_1.c ****     for (i = 0u; i < USBUART_1_MAX_EP; ++i)
 302:.\Generated_Source\PSoC5/USBUART_1.c ****     {
 303:.\Generated_Source\PSoC5/USBUART_1.c ****         USBUART_1_DmaTd[i] = DMA_INVALID_TD;
 304:.\Generated_Source\PSoC5/USBUART_1.c **** 
 305:.\Generated_Source\PSoC5/USBUART_1.c ****     #if (USBUART_1_EP_MANAGEMENT_DMA_AUTO && (USBUART_1_EP_DMA_AUTO_OPT == 0u))
 306:.\Generated_Source\PSoC5/USBUART_1.c ****         USBUART_1_DmaNextTd[i] = DMA_INVALID_TD;
 307:.\Generated_Source\PSoC5/USBUART_1.c ****     #endif /* (USBUART_1_EP_MANAGEMENT_DMA_AUTO && (USBUART_1_EP_DMA_AUTO_OPT == 0u)) */
 308:.\Generated_Source\PSoC5/USBUART_1.c ****     }
 309:.\Generated_Source\PSoC5/USBUART_1.c **** #endif /* (USBUART_1_EP_MANAGEMENT_DMA) */
 310:.\Generated_Source\PSoC5/USBUART_1.c **** 
 311:.\Generated_Source\PSoC5/USBUART_1.c ****     CyExitCriticalSection(enableInterrupts);
 122              		.loc 1 311 0
 123 0092 3846     		mov	r0, r7
 124 0094 FFF7FEFF 		bl	CyExitCriticalSection
 125              	.LVL6:
 312:.\Generated_Source\PSoC5/USBUART_1.c **** #endif /* (CY_PSOC4) */
 313:.\Generated_Source\PSoC5/USBUART_1.c **** 
 314:.\Generated_Source\PSoC5/USBUART_1.c ****     /* Configure interrupts from USB block. */
 315:.\Generated_Source\PSoC5/USBUART_1.c **** #if (CY_PSOC4)
 316:.\Generated_Source\PSoC5/USBUART_1.c ****     /* Configure hi_int: set handler and priority. */
 317:.\Generated_Source\PSoC5/USBUART_1.c ****     CyIntSetPriority     (USBUART_1_INTR_HI_VECT_NUM,  USBUART_1_INTR_HI_PRIORITY);
 318:.\Generated_Source\PSoC5/USBUART_1.c ****     (void) CyIntSetVector(USBUART_1_INTR_HI_VECT_NUM, &USBUART_1_INTR_HI_ISR);
 319:.\Generated_Source\PSoC5/USBUART_1.c **** 
 320:.\Generated_Source\PSoC5/USBUART_1.c ****     /* Configure lo_int: set handler and priority. */
 321:.\Generated_Source\PSoC5/USBUART_1.c ****     CyIntSetPriority     (USBUART_1_INTR_LO_VECT_NUM,  USBUART_1_INTR_LO_PRIORITY);
 322:.\Generated_Source\PSoC5/USBUART_1.c ****     (void) CyIntSetVector(USBUART_1_INTR_LO_VECT_NUM, &USBUART_1_INTR_LO_ISR);
 323:.\Generated_Source\PSoC5/USBUART_1.c **** 
 324:.\Generated_Source\PSoC5/USBUART_1.c ****     /* Configure med_int: set handler and priority (routed through DSI). */
 325:.\Generated_Source\PSoC5/USBUART_1.c ****     CyIntSetPriority     (USBUART_1_INTR_MED_VECT_NUM,  USBUART_1_INTR_MED_PRIORITY);
 326:.\Generated_Source\PSoC5/USBUART_1.c ****     (void) CyIntSetVector(USBUART_1_INTR_MED_VECT_NUM, &USBUART_1_INTR_MED_ISR);
 327:.\Generated_Source\PSoC5/USBUART_1.c **** 
 328:.\Generated_Source\PSoC5/USBUART_1.c **** #else
 329:.\Generated_Source\PSoC5/USBUART_1.c ****     /* Set bus reset interrupt. */
 330:.\Generated_Source\PSoC5/USBUART_1.c ****     CyIntSetPriority(USBUART_1_BUS_RESET_VECT_NUM, USBUART_1_BUS_RESET_PRIOR);
 126              		.loc 1 330 0
ARM GAS  C:\Users\Thomas\AppData\Local\Temp\ccHSNeoG.s 			page 9


 127 0098 1720     		movs	r0, #23
 128 009a 0721     		movs	r1, #7
 129 009c FFF7FEFF 		bl	CyIntSetPriority
 130              	.LVL7:
 331:.\Generated_Source\PSoC5/USBUART_1.c ****     (void) CyIntSetVector(USBUART_1_BUS_RESET_VECT_NUM,   &USBUART_1_BUS_RESET_ISR);
 131              		.loc 1 331 0
 132 00a0 1720     		movs	r0, #23
 133 00a2 2049     		ldr	r1, .L3+24
 134 00a4 FFF7FEFF 		bl	CyIntSetVector
 135              	.LVL8:
 332:.\Generated_Source\PSoC5/USBUART_1.c **** 
 333:.\Generated_Source\PSoC5/USBUART_1.c ****     /* Set Control Endpoint Interrupt. */
 334:.\Generated_Source\PSoC5/USBUART_1.c ****     CyIntSetPriority(USBUART_1_EP_0_VECT_NUM, USBUART_1_EP_0_PRIOR);
 136              		.loc 1 334 0
 137 00a8 1820     		movs	r0, #24
 138 00aa 0721     		movs	r1, #7
 139 00ac FFF7FEFF 		bl	CyIntSetPriority
 140              	.LVL9:
 335:.\Generated_Source\PSoC5/USBUART_1.c ****     (void) CyIntSetVector(USBUART_1_EP_0_VECT_NUM,   &USBUART_1_EP_0_ISR);
 141              		.loc 1 335 0
 142 00b0 1820     		movs	r0, #24
 143 00b2 1D49     		ldr	r1, .L3+28
 144 00b4 FFF7FEFF 		bl	CyIntSetVector
 145              	.LVL10:
 336:.\Generated_Source\PSoC5/USBUART_1.c **** 
 337:.\Generated_Source\PSoC5/USBUART_1.c ****     /* Set SOF interrupt. */
 338:.\Generated_Source\PSoC5/USBUART_1.c ****     #if (USBUART_1_SOF_ISR_ACTIVE)
 339:.\Generated_Source\PSoC5/USBUART_1.c ****         CyIntSetPriority     (USBUART_1_SOF_VECT_NUM,  USBUART_1_SOF_PRIOR);
 146              		.loc 1 339 0
 147 00b8 1520     		movs	r0, #21
 148 00ba 0721     		movs	r1, #7
 149 00bc FFF7FEFF 		bl	CyIntSetPriority
 150              	.LVL11:
 340:.\Generated_Source\PSoC5/USBUART_1.c ****         (void) CyIntSetVector(USBUART_1_SOF_VECT_NUM, &USBUART_1_SOF_ISR);
 151              		.loc 1 340 0
 152 00c0 1520     		movs	r0, #21
 153 00c2 1A49     		ldr	r1, .L3+32
 154 00c4 FFF7FEFF 		bl	CyIntSetVector
 155              	.LVL12:
 341:.\Generated_Source\PSoC5/USBUART_1.c ****     #endif /* (USBUART_1_SOF_ISR_ACTIVE) */
 342:.\Generated_Source\PSoC5/USBUART_1.c **** 
 343:.\Generated_Source\PSoC5/USBUART_1.c ****     /* Set Data Endpoint 1 Interrupt. */
 344:.\Generated_Source\PSoC5/USBUART_1.c ****     #if (USBUART_1_EP1_ISR_ACTIVE)
 345:.\Generated_Source\PSoC5/USBUART_1.c ****         CyIntSetPriority     (USBUART_1_EP_1_VECT_NUM,  USBUART_1_EP_1_PRIOR);
 156              		.loc 1 345 0
 157 00c8 3046     		mov	r0, r6
 158 00ca 0721     		movs	r1, #7
 159 00cc FFF7FEFF 		bl	CyIntSetPriority
 160              	.LVL13:
 346:.\Generated_Source\PSoC5/USBUART_1.c ****         (void) CyIntSetVector(USBUART_1_EP_1_VECT_NUM,  &USBUART_1_EP_1_ISR);
 161              		.loc 1 346 0
 162 00d0 3046     		mov	r0, r6
 163 00d2 1749     		ldr	r1, .L3+36
 164 00d4 FFF7FEFF 		bl	CyIntSetVector
 165              	.LVL14:
 347:.\Generated_Source\PSoC5/USBUART_1.c ****     #endif /* (USBUART_1_EP1_ISR_ACTIVE) */
 348:.\Generated_Source\PSoC5/USBUART_1.c **** 
ARM GAS  C:\Users\Thomas\AppData\Local\Temp\ccHSNeoG.s 			page 10


 349:.\Generated_Source\PSoC5/USBUART_1.c ****     /* Set Data Endpoint 2 Interrupt. */
 350:.\Generated_Source\PSoC5/USBUART_1.c ****     #if (USBUART_1_EP2_ISR_ACTIVE)
 351:.\Generated_Source\PSoC5/USBUART_1.c ****         CyIntSetPriority     (USBUART_1_EP_2_VECT_NUM,  USBUART_1_EP_2_PRIOR);
 166              		.loc 1 351 0
 167 00d8 2846     		mov	r0, r5
 168 00da 0721     		movs	r1, #7
 169 00dc FFF7FEFF 		bl	CyIntSetPriority
 170              	.LVL15:
 352:.\Generated_Source\PSoC5/USBUART_1.c ****         (void) CyIntSetVector(USBUART_1_EP_2_VECT_NUM, &USBUART_1_EP_2_ISR);
 171              		.loc 1 352 0
 172 00e0 2846     		mov	r0, r5
 173 00e2 1449     		ldr	r1, .L3+40
 174 00e4 FFF7FEFF 		bl	CyIntSetVector
 175              	.LVL16:
 353:.\Generated_Source\PSoC5/USBUART_1.c ****     #endif /* (USBUART_1_EP2_ISR_ACTIVE) */
 354:.\Generated_Source\PSoC5/USBUART_1.c **** 
 355:.\Generated_Source\PSoC5/USBUART_1.c ****     /* Set Data Endpoint 3 Interrupt. */
 356:.\Generated_Source\PSoC5/USBUART_1.c ****     #if (USBUART_1_EP3_ISR_ACTIVE)
 357:.\Generated_Source\PSoC5/USBUART_1.c ****         CyIntSetPriority     (USBUART_1_EP_3_VECT_NUM,  USBUART_1_EP_3_PRIOR);
 176              		.loc 1 357 0
 177 00e8 0320     		movs	r0, #3
 178 00ea 0721     		movs	r1, #7
 179 00ec FFF7FEFF 		bl	CyIntSetPriority
 180              	.LVL17:
 358:.\Generated_Source\PSoC5/USBUART_1.c ****         (void) CyIntSetVector(USBUART_1_EP_3_VECT_NUM, &USBUART_1_EP_3_ISR);
 181              		.loc 1 358 0
 182 00f0 0320     		movs	r0, #3
 183 00f2 1149     		ldr	r1, .L3+44
 184 00f4 FFF7FEFF 		bl	CyIntSetVector
 185              	.LVL18:
 359:.\Generated_Source\PSoC5/USBUART_1.c ****     #endif /* (USBUART_1_EP3_ISR_ACTIVE) */
 360:.\Generated_Source\PSoC5/USBUART_1.c **** 
 361:.\Generated_Source\PSoC5/USBUART_1.c ****     /* Set Data Endpoint 4 Interrupt. */
 362:.\Generated_Source\PSoC5/USBUART_1.c ****     #if (USBUART_1_EP4_ISR_ACTIVE)
 363:.\Generated_Source\PSoC5/USBUART_1.c ****         CyIntSetPriority     (USBUART_1_EP_4_VECT_NUM,  USBUART_1_EP_4_PRIOR);
 364:.\Generated_Source\PSoC5/USBUART_1.c ****         (void) CyIntSetVector(USBUART_1_EP_4_VECT_NUM, &USBUART_1_EP_4_ISR);
 365:.\Generated_Source\PSoC5/USBUART_1.c ****     #endif /* (USBUART_1_EP4_ISR_ACTIVE) */
 366:.\Generated_Source\PSoC5/USBUART_1.c **** 
 367:.\Generated_Source\PSoC5/USBUART_1.c ****     /* Set Data Endpoint 5 Interrupt. */
 368:.\Generated_Source\PSoC5/USBUART_1.c ****     #if (USBUART_1_EP5_ISR_ACTIVE)
 369:.\Generated_Source\PSoC5/USBUART_1.c ****         CyIntSetPriority     (USBUART_1_EP_5_VECT_NUM,  USBUART_1_EP_5_PRIOR);
 370:.\Generated_Source\PSoC5/USBUART_1.c ****         (void) CyIntSetVector(USBUART_1_EP_5_VECT_NUM, &USBUART_1_EP_5_ISR);
 371:.\Generated_Source\PSoC5/USBUART_1.c ****     #endif /* (USBUART_1_EP5_ISR_ACTIVE) */
 372:.\Generated_Source\PSoC5/USBUART_1.c **** 
 373:.\Generated_Source\PSoC5/USBUART_1.c ****     /* Set Data Endpoint 6 Interrupt. */
 374:.\Generated_Source\PSoC5/USBUART_1.c ****     #if (USBUART_1_EP6_ISR_ACTIVE)
 375:.\Generated_Source\PSoC5/USBUART_1.c ****         CyIntSetPriority     (USBUART_1_EP_6_VECT_NUM,  USBUART_1_EP_6_PRIOR);
 376:.\Generated_Source\PSoC5/USBUART_1.c ****         (void) CyIntSetVector(USBUART_1_EP_6_VECT_NUM, &USBUART_1_EP_6_ISR);
 377:.\Generated_Source\PSoC5/USBUART_1.c ****     #endif /* (USBUART_1_EP6_ISR_ACTIVE) */
 378:.\Generated_Source\PSoC5/USBUART_1.c **** 
 379:.\Generated_Source\PSoC5/USBUART_1.c ****      /* Set Data Endpoint 7 Interrupt. */
 380:.\Generated_Source\PSoC5/USBUART_1.c ****     #if (USBUART_1_EP7_ISR_ACTIVE)
 381:.\Generated_Source\PSoC5/USBUART_1.c ****         CyIntSetPriority     (USBUART_1_EP_7_VECT_NUM,  USBUART_1_EP_7_PRIOR);
 382:.\Generated_Source\PSoC5/USBUART_1.c ****         (void) CyIntSetVector(USBUART_1_EP_7_VECT_NUM, &USBUART_1_EP_7_ISR);
 383:.\Generated_Source\PSoC5/USBUART_1.c ****     #endif /* (USBUART_1_EP7_ISR_ACTIVE) */
 384:.\Generated_Source\PSoC5/USBUART_1.c **** 
 385:.\Generated_Source\PSoC5/USBUART_1.c ****     /* Set Data Endpoint 8 Interrupt. */
ARM GAS  C:\Users\Thomas\AppData\Local\Temp\ccHSNeoG.s 			page 11


 386:.\Generated_Source\PSoC5/USBUART_1.c ****     #if (USBUART_1_EP8_ISR_ACTIVE)
 387:.\Generated_Source\PSoC5/USBUART_1.c ****         CyIntSetPriority     (USBUART_1_EP_8_VECT_NUM,  USBUART_1_EP_8_PRIOR);
 388:.\Generated_Source\PSoC5/USBUART_1.c ****         (void) CyIntSetVector(USBUART_1_EP_8_VECT_NUM, &USBUART_1_EP_8_ISR);
 389:.\Generated_Source\PSoC5/USBUART_1.c ****     #endif /* (USBUART_1_EP8_ISR_ACTIVE) */
 390:.\Generated_Source\PSoC5/USBUART_1.c **** 
 391:.\Generated_Source\PSoC5/USBUART_1.c ****     /* Set ARB Interrupt. */
 392:.\Generated_Source\PSoC5/USBUART_1.c ****     #if (USBUART_1_EP_MANAGEMENT_DMA && USBUART_1_ARB_ISR_ACTIVE)
 393:.\Generated_Source\PSoC5/USBUART_1.c ****         CyIntSetPriority     (USBUART_1_ARB_VECT_NUM,  USBUART_1_ARB_PRIOR);
 394:.\Generated_Source\PSoC5/USBUART_1.c ****         (void) CyIntSetVector(USBUART_1_ARB_VECT_NUM, &USBUART_1_ARB_ISR);
 395:.\Generated_Source\PSoC5/USBUART_1.c ****     #endif /* (USBUART_1_EP_MANAGEMENT_DMA && USBUART_1_ARB_ISR_ACTIVE) */
 396:.\Generated_Source\PSoC5/USBUART_1.c **** #endif /* (CY_PSOC4) */
 397:.\Generated_Source\PSoC5/USBUART_1.c **** 
 398:.\Generated_Source\PSoC5/USBUART_1.c ****     /* Common: Configure GPIO interrupt for wakeup. */
 399:.\Generated_Source\PSoC5/USBUART_1.c **** #if (USBUART_1_DP_ISR_ACTIVE)
 400:.\Generated_Source\PSoC5/USBUART_1.c ****     CyIntSetPriority     (USBUART_1_DP_INTC_VECT_NUM,  USBUART_1_DP_INTC_PRIORITY);
 186              		.loc 1 400 0
 187 00f8 0C20     		movs	r0, #12
 188 00fa 0721     		movs	r1, #7
 189 00fc FFF7FEFF 		bl	CyIntSetPriority
 190              	.LVL19:
 401:.\Generated_Source\PSoC5/USBUART_1.c ****     (void) CyIntSetVector(USBUART_1_DP_INTC_VECT_NUM, &USBUART_1_DP_ISR);
 191              		.loc 1 401 0
 192 0100 0C20     		movs	r0, #12
 193 0102 0E49     		ldr	r1, .L3+48
 194 0104 FFF7FEFF 		bl	CyIntSetVector
 195              	.LVL20:
 196 0108 F8BD     		pop	{r3, r4, r5, r6, r7, pc}
 197              	.LVL21:
 198              	.L4:
 199 010a 00BF     		.align	2
 200              	.L3:
 201 010c A5430040 		.word	1073759141
 202 0110 9D600040 		.word	1073766557
 203 0114 94430040 		.word	1073759124
 204 0118 12600040 		.word	1073766418
 205 011c F8510040 		.word	1073762808
 206 0120 84600040 		.word	1073766532
 207 0124 00000000 		.word	USBUART_1_BUS_RESET_ISR
 208 0128 00000000 		.word	USBUART_1_EP_0_ISR
 209 012c 00000000 		.word	USBUART_1_SOF_ISR
 210 0130 00000000 		.word	USBUART_1_EP_1_ISR
 211 0134 00000000 		.word	USBUART_1_EP_2_ISR
 212 0138 00000000 		.word	USBUART_1_EP_3_ISR
 213 013c 00000000 		.word	USBUART_1_DP_ISR
 214              		.cfi_endproc
 215              	.LFE1:
 216              		.size	USBUART_1_Init, .-USBUART_1_Init
 217              		.section	.text.USBUART_1_InitComponent,"ax",%progbits
 218              		.align	2
 219              		.global	USBUART_1_InitComponent
 220              		.thumb
 221              		.thumb_func
 222              		.type	USBUART_1_InitComponent, %function
 223              	USBUART_1_InitComponent:
 224              	.LFB2:
 402:.\Generated_Source\PSoC5/USBUART_1.c **** #endif /* (USBUART_1_DP_ISR_ACTIVE) */
 403:.\Generated_Source\PSoC5/USBUART_1.c **** 
ARM GAS  C:\Users\Thomas\AppData\Local\Temp\ccHSNeoG.s 			page 12


 404:.\Generated_Source\PSoC5/USBUART_1.c **** #if (USBUART_1_EP_MANAGEMENT_DMA && CY_PSOC4)
 405:.\Generated_Source\PSoC5/USBUART_1.c ****     /* Initialize DMA channels. */
 406:.\Generated_Source\PSoC5/USBUART_1.c ****     USBUART_1_InitEpDma();
 407:.\Generated_Source\PSoC5/USBUART_1.c **** #endif /* (USBUART_1_EP_MANAGEMENT_DMA && CY_PSOC4) */
 408:.\Generated_Source\PSoC5/USBUART_1.c **** }
 409:.\Generated_Source\PSoC5/USBUART_1.c **** 
 410:.\Generated_Source\PSoC5/USBUART_1.c **** 
 411:.\Generated_Source\PSoC5/USBUART_1.c **** /*******************************************************************************
 412:.\Generated_Source\PSoC5/USBUART_1.c **** * Function Name: USBUART_1_InitComponent
 413:.\Generated_Source\PSoC5/USBUART_1.c **** ****************************************************************************//**
 414:.\Generated_Source\PSoC5/USBUART_1.c **** *
 415:.\Generated_Source\PSoC5/USBUART_1.c **** *   This function initializes the component’s global variables and initiates
 416:.\Generated_Source\PSoC5/USBUART_1.c **** *   communication with the host by pull-up D+ line.
 417:.\Generated_Source\PSoC5/USBUART_1.c **** *
 418:.\Generated_Source\PSoC5/USBUART_1.c **** * \param device:
 419:.\Generated_Source\PSoC5/USBUART_1.c **** *   Contains the device number of the desired device descriptor. The device
 420:.\Generated_Source\PSoC5/USBUART_1.c **** *   number can be found in the Device Descriptor Tab of "Configure" dialog,
 421:.\Generated_Source\PSoC5/USBUART_1.c **** *   under the settings of desired Device Descriptor, in the *Device Number*
 422:.\Generated_Source\PSoC5/USBUART_1.c **** *   field.
 423:.\Generated_Source\PSoC5/USBUART_1.c **** *  \param mode:
 424:.\Generated_Source\PSoC5/USBUART_1.c **** *   The operating voltage. This determines whether the voltage regulator
 425:.\Generated_Source\PSoC5/USBUART_1.c **** *   is enabled for 5V operation or if pass through mode is used for 3.3V
 426:.\Generated_Source\PSoC5/USBUART_1.c **** *   operation. Symbolic names and their associated values are given in the
 427:.\Generated_Source\PSoC5/USBUART_1.c **** *   following list.
 428:.\Generated_Source\PSoC5/USBUART_1.c **** *
 429:.\Generated_Source\PSoC5/USBUART_1.c **** *       *USBUART_1_3V_OPERATION* - Disable voltage regulator and pass-
 430:.\Generated_Source\PSoC5/USBUART_1.c **** *                                      through Vcc for pull-up
 431:.\Generated_Source\PSoC5/USBUART_1.c **** *
 432:.\Generated_Source\PSoC5/USBUART_1.c **** *       *USBUART_1_5V_OPERATION* - Enable voltage regulator and use
 433:.\Generated_Source\PSoC5/USBUART_1.c **** *                                      regulator for pull-up
 434:.\Generated_Source\PSoC5/USBUART_1.c **** *
 435:.\Generated_Source\PSoC5/USBUART_1.c **** *       *USBUART_1_DWR_POWER_OPERATION* - Enable or disable the voltage
 436:.\Generated_Source\PSoC5/USBUART_1.c **** *                                      regulator depending on the power supply
 437:.\Generated_Source\PSoC5/USBUART_1.c **** *                                      voltage configuration in the DWR tab.
 438:.\Generated_Source\PSoC5/USBUART_1.c **** *                                      For PSoC 3/5LP devices, the VDDD supply
 439:.\Generated_Source\PSoC5/USBUART_1.c **** *                                      voltage is considered and for PSoC 4A-L,
 440:.\Generated_Source\PSoC5/USBUART_1.c **** *                                      the VBUS supply voltage is considered.
 441:.\Generated_Source\PSoC5/USBUART_1.c **** *
 442:.\Generated_Source\PSoC5/USBUART_1.c **** * \globalvars
 443:.\Generated_Source\PSoC5/USBUART_1.c **** *   \ref USBUART_1_device
 444:.\Generated_Source\PSoC5/USBUART_1.c **** *   \ref USBUART_1_transferState
 445:.\Generated_Source\PSoC5/USBUART_1.c **** *   \ref USBUART_1_configuration
 446:.\Generated_Source\PSoC5/USBUART_1.c **** *   \ref USBUART_1_deviceStatus
 447:.\Generated_Source\PSoC5/USBUART_1.c **** *
 448:.\Generated_Source\PSoC5/USBUART_1.c **** *   \ref USBUART_1_deviceAddress - Contains the current device address. This
 449:.\Generated_Source\PSoC5/USBUART_1.c **** *       variable is initialized to zero in this API. The Host starts to communicate
 450:.\Generated_Source\PSoC5/USBUART_1.c **** *      to the device with address 0 and then sets it to a whatever value using a
 451:.\Generated_Source\PSoC5/USBUART_1.c **** *      SET_ADDRESS request.
 452:.\Generated_Source\PSoC5/USBUART_1.c **** *
 453:.\Generated_Source\PSoC5/USBUART_1.c **** *   \ref USBUART_1_lastPacketSize - Initialized to 0;
 454:.\Generated_Source\PSoC5/USBUART_1.c **** *
 455:.\Generated_Source\PSoC5/USBUART_1.c **** * \reentrant
 456:.\Generated_Source\PSoC5/USBUART_1.c **** *  No.
 457:.\Generated_Source\PSoC5/USBUART_1.c **** *
 458:.\Generated_Source\PSoC5/USBUART_1.c **** *******************************************************************************/
 459:.\Generated_Source\PSoC5/USBUART_1.c **** void USBUART_1_InitComponent(uint8 device, uint8 mode) 
 460:.\Generated_Source\PSoC5/USBUART_1.c **** {
ARM GAS  C:\Users\Thomas\AppData\Local\Temp\ccHSNeoG.s 			page 13


 225              		.loc 1 460 0
 226              		.cfi_startproc
 227              		@ args = 0, pretend = 0, frame = 0
 228              		@ frame_needed = 0, uses_anonymous_args = 0
 229              	.LVL22:
 230 0000 08B5     		push	{r3, lr}
 231              		.cfi_def_cfa_offset 8
 232              		.cfi_offset 3, -8
 233              		.cfi_offset 14, -4
 461:.\Generated_Source\PSoC5/USBUART_1.c ****     /* Initialize _hidProtocol variable to comply with
 462:.\Generated_Source\PSoC5/USBUART_1.c ****     *  HID 7.2.6 Set_Protocol Request:
 463:.\Generated_Source\PSoC5/USBUART_1.c ****     *  "When initialized, all devices default to report protocol."
 464:.\Generated_Source\PSoC5/USBUART_1.c ****     */
 465:.\Generated_Source\PSoC5/USBUART_1.c **** #if defined(USBUART_1_ENABLE_HID_CLASS)
 466:.\Generated_Source\PSoC5/USBUART_1.c ****     uint8 i;
 467:.\Generated_Source\PSoC5/USBUART_1.c **** 
 468:.\Generated_Source\PSoC5/USBUART_1.c ****     for (i = 0u; i < USBUART_1_MAX_INTERFACES_NUMBER; i++)
 469:.\Generated_Source\PSoC5/USBUART_1.c ****     {
 470:.\Generated_Source\PSoC5/USBUART_1.c ****         USBUART_1_hidProtocol[i] = USBUART_1_PROTOCOL_REPORT;
 471:.\Generated_Source\PSoC5/USBUART_1.c ****     }
 472:.\Generated_Source\PSoC5/USBUART_1.c **** #endif /* USBUART_1_ENABLE_HID_CLASS */
 473:.\Generated_Source\PSoC5/USBUART_1.c **** 
 474:.\Generated_Source\PSoC5/USBUART_1.c ****     /* Store device number to access descriptor. */
 475:.\Generated_Source\PSoC5/USBUART_1.c ****     USBUART_1_device = device;
 234              		.loc 1 475 0
 235 0002 214B     		ldr	r3, .L12
 236 0004 1870     		strb	r0, [r3]
 476:.\Generated_Source\PSoC5/USBUART_1.c **** 
 477:.\Generated_Source\PSoC5/USBUART_1.c ****     /* Reset component internal variables. */
 478:.\Generated_Source\PSoC5/USBUART_1.c ****     USBUART_1_transferState   = USBUART_1_TRANS_STATE_IDLE;
 237              		.loc 1 478 0
 238 0006 0023     		movs	r3, #0
 239 0008 204A     		ldr	r2, .L12+4
 240 000a 1370     		strb	r3, [r2]
 479:.\Generated_Source\PSoC5/USBUART_1.c ****     USBUART_1_configurationChanged = 0u;
 241              		.loc 1 479 0
 242 000c 204A     		ldr	r2, .L12+8
 243 000e 1370     		strb	r3, [r2]
 480:.\Generated_Source\PSoC5/USBUART_1.c ****     USBUART_1_configuration   = 0u;
 244              		.loc 1 480 0
 245 0010 204A     		ldr	r2, .L12+12
 246 0012 1370     		strb	r3, [r2]
 481:.\Generated_Source\PSoC5/USBUART_1.c ****     USBUART_1_interfaceNumber = 0u;
 247              		.loc 1 481 0
 248 0014 204A     		ldr	r2, .L12+16
 249 0016 1370     		strb	r3, [r2]
 482:.\Generated_Source\PSoC5/USBUART_1.c ****     USBUART_1_deviceAddress   = 0u;
 250              		.loc 1 482 0
 251 0018 204A     		ldr	r2, .L12+20
 252 001a 1370     		strb	r3, [r2]
 483:.\Generated_Source\PSoC5/USBUART_1.c ****     USBUART_1_deviceStatus    = 0u;
 253              		.loc 1 483 0
 254 001c 204A     		ldr	r2, .L12+24
 255 001e 1370     		strb	r3, [r2]
 484:.\Generated_Source\PSoC5/USBUART_1.c ****     USBUART_1_lastPacketSize  = 0u;
 256              		.loc 1 484 0
 257 0020 204A     		ldr	r2, .L12+28
ARM GAS  C:\Users\Thomas\AppData\Local\Temp\ccHSNeoG.s 			page 14


 258 0022 1370     		strb	r3, [r2]
 485:.\Generated_Source\PSoC5/USBUART_1.c **** 
 486:.\Generated_Source\PSoC5/USBUART_1.c ****     /* Enable component interrupts. */
 487:.\Generated_Source\PSoC5/USBUART_1.c **** #if (CY_PSOC4)
 488:.\Generated_Source\PSoC5/USBUART_1.c ****     CyIntEnable(USBUART_1_INTR_HI_VECT_NUM);
 489:.\Generated_Source\PSoC5/USBUART_1.c ****     CyIntEnable(USBUART_1_INTR_MED_VECT_NUM);
 490:.\Generated_Source\PSoC5/USBUART_1.c ****     CyIntEnable(USBUART_1_INTR_LO_VECT_NUM);
 491:.\Generated_Source\PSoC5/USBUART_1.c **** #else
 492:.\Generated_Source\PSoC5/USBUART_1.c ****     CyIntEnable(USBUART_1_BUS_RESET_VECT_NUM);
 259              		.loc 1 492 0
 260 0024 204B     		ldr	r3, .L12+32
 261 0026 4FF40002 		mov	r2, #8388608
 262 002a 1A60     		str	r2, [r3]
 493:.\Generated_Source\PSoC5/USBUART_1.c ****     CyIntEnable(USBUART_1_EP_0_VECT_NUM);
 263              		.loc 1 493 0
 264 002c 4FF08072 		mov	r2, #16777216
 265 0030 1A60     		str	r2, [r3]
 494:.\Generated_Source\PSoC5/USBUART_1.c **** 
 495:.\Generated_Source\PSoC5/USBUART_1.c ****     #if (USBUART_1_SOF_ISR_ACTIVE)
 496:.\Generated_Source\PSoC5/USBUART_1.c ****         CyIntEnable(USBUART_1_SOF_VECT_NUM);
 266              		.loc 1 496 0
 267 0032 4FF40012 		mov	r2, #2097152
 268 0036 1A60     		str	r2, [r3]
 497:.\Generated_Source\PSoC5/USBUART_1.c ****     #endif /* (USBUART_1_SOF_ISR_ACTIVE) */
 498:.\Generated_Source\PSoC5/USBUART_1.c **** 
 499:.\Generated_Source\PSoC5/USBUART_1.c ****     #if (USBUART_1_EP1_ISR_ACTIVE)
 500:.\Generated_Source\PSoC5/USBUART_1.c ****         CyIntEnable(USBUART_1_EP_1_VECT_NUM);
 269              		.loc 1 500 0
 270 0038 0222     		movs	r2, #2
 271 003a 1A60     		str	r2, [r3]
 501:.\Generated_Source\PSoC5/USBUART_1.c ****     #endif /* (USBUART_1_EP1_ISR_ACTIVE) */
 502:.\Generated_Source\PSoC5/USBUART_1.c **** 
 503:.\Generated_Source\PSoC5/USBUART_1.c ****     #if (USBUART_1_EP2_ISR_ACTIVE)
 504:.\Generated_Source\PSoC5/USBUART_1.c ****         CyIntEnable(USBUART_1_EP_2_VECT_NUM);
 272              		.loc 1 504 0
 273 003c 0422     		movs	r2, #4
 274 003e 1A60     		str	r2, [r3]
 505:.\Generated_Source\PSoC5/USBUART_1.c ****     #endif /* (USBUART_1_EP5_ISR_ACTIVE) */
 506:.\Generated_Source\PSoC5/USBUART_1.c **** 
 507:.\Generated_Source\PSoC5/USBUART_1.c ****     #if (USBUART_1_EP3_ISR_ACTIVE)
 508:.\Generated_Source\PSoC5/USBUART_1.c ****         CyIntEnable(USBUART_1_EP_3_VECT_NUM);
 275              		.loc 1 508 0
 276 0040 0822     		movs	r2, #8
 277 0042 1A60     		str	r2, [r3]
 509:.\Generated_Source\PSoC5/USBUART_1.c ****     #endif /* (USBUART_1_EP5_ISR_ACTIVE) */
 510:.\Generated_Source\PSoC5/USBUART_1.c **** 
 511:.\Generated_Source\PSoC5/USBUART_1.c ****     #if (USBUART_1_EP4_ISR_ACTIVE)
 512:.\Generated_Source\PSoC5/USBUART_1.c ****         CyIntEnable(USBUART_1_EP_4_VECT_NUM);
 513:.\Generated_Source\PSoC5/USBUART_1.c ****     #endif /* (USBUART_1_EP5_ISR_ACTIVE) */
 514:.\Generated_Source\PSoC5/USBUART_1.c **** 
 515:.\Generated_Source\PSoC5/USBUART_1.c ****     #if (USBUART_1_EP5_ISR_ACTIVE)
 516:.\Generated_Source\PSoC5/USBUART_1.c ****         CyIntEnable(USBUART_1_EP_5_VECT_NUM);
 517:.\Generated_Source\PSoC5/USBUART_1.c ****     #endif /* (USBUART_1_EP5_ISR_ACTIVE) */
 518:.\Generated_Source\PSoC5/USBUART_1.c **** 
 519:.\Generated_Source\PSoC5/USBUART_1.c ****     #if (USBUART_1_EP6_ISR_ACTIVE)
 520:.\Generated_Source\PSoC5/USBUART_1.c ****         CyIntEnable(USBUART_1_EP_6_VECT_NUM);
 521:.\Generated_Source\PSoC5/USBUART_1.c ****     #endif /* USBUART_1_EP6_ISR_REMOVE */
ARM GAS  C:\Users\Thomas\AppData\Local\Temp\ccHSNeoG.s 			page 15


 522:.\Generated_Source\PSoC5/USBUART_1.c **** 
 523:.\Generated_Source\PSoC5/USBUART_1.c ****     #if (USBUART_1_EP7_ISR_ACTIVE)
 524:.\Generated_Source\PSoC5/USBUART_1.c ****         CyIntEnable(USBUART_1_EP_7_VECT_NUM);
 525:.\Generated_Source\PSoC5/USBUART_1.c ****     #endif /* (USBUART_1_EP7_ISR_ACTIVE) */
 526:.\Generated_Source\PSoC5/USBUART_1.c **** 
 527:.\Generated_Source\PSoC5/USBUART_1.c ****     #if (USBUART_1_EP8_ISR_ACTIVE)
 528:.\Generated_Source\PSoC5/USBUART_1.c ****         CyIntEnable(USBUART_1_EP_8_VECT_NUM);
 529:.\Generated_Source\PSoC5/USBUART_1.c ****     #endif /* (USBUART_1_EP8_ISR_ACTIVE) */
 530:.\Generated_Source\PSoC5/USBUART_1.c **** #endif /* (CY_PSOC4) */
 531:.\Generated_Source\PSoC5/USBUART_1.c **** 
 532:.\Generated_Source\PSoC5/USBUART_1.c **** #if (USBUART_1_EP_MANAGEMENT_DMA && USBUART_1_ARB_ISR_ACTIVE)
 533:.\Generated_Source\PSoC5/USBUART_1.c ****     /* Enable ARB EP interrupt sources. */
 534:.\Generated_Source\PSoC5/USBUART_1.c ****     USBUART_1_ARB_INT_EN_REG = USBUART_1_DEFAULT_ARB_INT_EN;
 535:.\Generated_Source\PSoC5/USBUART_1.c **** 
 536:.\Generated_Source\PSoC5/USBUART_1.c ****     #if (CY_PSOC3 || CY_PSOC5)
 537:.\Generated_Source\PSoC5/USBUART_1.c ****         CyIntEnable(USBUART_1_ARB_VECT_NUM);
 538:.\Generated_Source\PSoC5/USBUART_1.c ****     #endif /* (CY_PSOC3 || CY_PSOC5) */
 539:.\Generated_Source\PSoC5/USBUART_1.c **** #endif   /* (USBUART_1_EP_MANAGEMENT_DMA && USBUART_1_ARB_ISR_ACTIVE) */
 540:.\Generated_Source\PSoC5/USBUART_1.c **** 
 541:.\Generated_Source\PSoC5/USBUART_1.c **** /* Arbiter configuration for DMA transfers. */
 542:.\Generated_Source\PSoC5/USBUART_1.c **** #if (USBUART_1_EP_MANAGEMENT_DMA)
 543:.\Generated_Source\PSoC5/USBUART_1.c ****     /* Configure Arbiter for Manual or Auto DMA operation and clear configuration completion. */
 544:.\Generated_Source\PSoC5/USBUART_1.c ****     USBUART_1_ARB_CFG_REG = USBUART_1_DEFAULT_ARB_CFG;
 545:.\Generated_Source\PSoC5/USBUART_1.c **** 
 546:.\Generated_Source\PSoC5/USBUART_1.c ****     #if (CY_PSOC4)
 547:.\Generated_Source\PSoC5/USBUART_1.c ****         /* Enable DMA operation. */
 548:.\Generated_Source\PSoC5/USBUART_1.c ****         CyDmaEnable();
 549:.\Generated_Source\PSoC5/USBUART_1.c **** 
 550:.\Generated_Source\PSoC5/USBUART_1.c ****         #if (USBUART_1_EP_MANAGEMENT_DMA_AUTO)
 551:.\Generated_Source\PSoC5/USBUART_1.c ****             /* Change DMA priority to be highest. */
 552:.\Generated_Source\PSoC5/USBUART_1.c ****              CyIntSetPriority(CYDMA_INTR_NUMBER, USBUART_1_DMA_AUTO_INTR_PRIO);
 553:.\Generated_Source\PSoC5/USBUART_1.c ****         #endif /* (USBUART_1_EP_MANAGEMENT_DMA_AUTO) */
 554:.\Generated_Source\PSoC5/USBUART_1.c ****     #endif /* (CY_PSOC4) */
 555:.\Generated_Source\PSoC5/USBUART_1.c **** 
 556:.\Generated_Source\PSoC5/USBUART_1.c ****     #if (USBUART_1_EP_MANAGEMENT_DMA_AUTO)
 557:.\Generated_Source\PSoC5/USBUART_1.c ****         #if (CY_PSOC4)
 558:.\Generated_Source\PSoC5/USBUART_1.c ****             /* Enable DMA interrupt to handle DMA management. */
 559:.\Generated_Source\PSoC5/USBUART_1.c ****             CyIntEnable(CYDMA_INTR_NUMBER);
 560:.\Generated_Source\PSoC5/USBUART_1.c ****         #else
 561:.\Generated_Source\PSoC5/USBUART_1.c ****             #if (USBUART_1_EP_DMA_AUTO_OPT == 0u)
 562:.\Generated_Source\PSoC5/USBUART_1.c ****                 /* Initialize interrupts which handle verification of successful DMA transaction. *
 563:.\Generated_Source\PSoC5/USBUART_1.c ****                 USBUART_1_EP_DMA_Done_isr_StartEx(&USBUART_1_EP_DMA_DONE_ISR);
 564:.\Generated_Source\PSoC5/USBUART_1.c ****                 USBUART_1_EP17_DMA_Done_SR_InterruptEnable();
 565:.\Generated_Source\PSoC5/USBUART_1.c ****                 USBUART_1_EP8_DMA_Done_SR_InterruptEnable();
 566:.\Generated_Source\PSoC5/USBUART_1.c ****             #endif /* (USBUART_1_EP_DMA_AUTO_OPT == 0u) */
 567:.\Generated_Source\PSoC5/USBUART_1.c ****         #endif /* (CY_PSOC4) */
 568:.\Generated_Source\PSoC5/USBUART_1.c ****     #endif /* (USBUART_1_EP_MANAGEMENT_DMA_AUTO) */
 569:.\Generated_Source\PSoC5/USBUART_1.c **** #endif /* (USBUART_1_EP_MANAGEMENT_DMA) */
 570:.\Generated_Source\PSoC5/USBUART_1.c **** 
 571:.\Generated_Source\PSoC5/USBUART_1.c ****     /* Enable USB regulator depends on operation voltage. IMO Locking is enabled in Init(). */
 572:.\Generated_Source\PSoC5/USBUART_1.c ****     switch(mode)
 278              		.loc 1 572 0
 279 0044 11B1     		cbz	r1, .L7
 280 0046 0129     		cmp	r1, #1
 281 0048 06D0     		beq	.L8
 282 004a 0BE0     		b	.L10
 283              	.L7:
ARM GAS  C:\Users\Thomas\AppData\Local\Temp\ccHSNeoG.s 			page 16


 573:.\Generated_Source\PSoC5/USBUART_1.c ****     {
 574:.\Generated_Source\PSoC5/USBUART_1.c ****     case USBUART_1_3V_OPERATION:
 575:.\Generated_Source\PSoC5/USBUART_1.c ****         /* Disable regulator for 3V operation. */
 576:.\Generated_Source\PSoC5/USBUART_1.c ****         USBUART_1_CR1_REG &= (uint8) ~USBUART_1_CR1_REG_ENABLE;
 284              		.loc 1 576 0
 285 004c 174A     		ldr	r2, .L12+36
 286 004e 1378     		ldrb	r3, [r2]	@ zero_extendqisi2
 287 0050 03F0FE03 		and	r3, r3, #254
 288 0054 1370     		strb	r3, [r2]
 577:.\Generated_Source\PSoC5/USBUART_1.c ****         break;
 289              		.loc 1 577 0
 290 0056 0AE0     		b	.L9
 291              	.L8:
 578:.\Generated_Source\PSoC5/USBUART_1.c **** 
 579:.\Generated_Source\PSoC5/USBUART_1.c ****     case USBUART_1_5V_OPERATION:
 580:.\Generated_Source\PSoC5/USBUART_1.c ****         /* Enable regulator for 5V operation. */
 581:.\Generated_Source\PSoC5/USBUART_1.c ****         USBUART_1_CR1_REG |= (uint8)  USBUART_1_CR1_REG_ENABLE;
 292              		.loc 1 581 0
 293 0058 144A     		ldr	r2, .L12+36
 294 005a 1378     		ldrb	r3, [r2]	@ zero_extendqisi2
 295 005c 43F00103 		orr	r3, r3, #1
 296 0060 1370     		strb	r3, [r2]
 582:.\Generated_Source\PSoC5/USBUART_1.c ****         break;
 297              		.loc 1 582 0
 298 0062 04E0     		b	.L9
 299              	.L10:
 583:.\Generated_Source\PSoC5/USBUART_1.c **** 
 584:.\Generated_Source\PSoC5/USBUART_1.c ****     default: /* Check DWR settings of USB power supply. */
 585:.\Generated_Source\PSoC5/USBUART_1.c ****     #if (USBUART_1_VDDD_MV < USBUART_1_3500MV)
 586:.\Generated_Source\PSoC5/USBUART_1.c ****         /* Disable regulator for 3V operation. */
 587:.\Generated_Source\PSoC5/USBUART_1.c ****         USBUART_1_CR1_REG &= (uint8) ~USBUART_1_CR1_REG_ENABLE;
 588:.\Generated_Source\PSoC5/USBUART_1.c ****     #else
 589:.\Generated_Source\PSoC5/USBUART_1.c ****         /* Enable regulator for 5V operation. */
 590:.\Generated_Source\PSoC5/USBUART_1.c ****         USBUART_1_CR1_REG |= (uint8)  USBUART_1_CR1_REG_ENABLE;
 300              		.loc 1 590 0
 301 0064 114A     		ldr	r2, .L12+36
 302 0066 1378     		ldrb	r3, [r2]	@ zero_extendqisi2
 303 0068 43F00103 		orr	r3, r3, #1
 304 006c 1370     		strb	r3, [r2]
 305              	.L9:
 591:.\Generated_Source\PSoC5/USBUART_1.c ****     #endif /* (USBUART_1_VDDD_MV < USBUART_1_3500MV) */
 592:.\Generated_Source\PSoC5/USBUART_1.c ****         break;
 593:.\Generated_Source\PSoC5/USBUART_1.c ****     }
 594:.\Generated_Source\PSoC5/USBUART_1.c **** 
 595:.\Generated_Source\PSoC5/USBUART_1.c **** #if (CY_PSOC4)
 596:.\Generated_Source\PSoC5/USBUART_1.c ****     /* Clear bus activity. */
 597:.\Generated_Source\PSoC5/USBUART_1.c ****     USBUART_1_CR1_REG &= (uint32) ~USBUART_1_CR1_BUS_ACTIVITY;
 598:.\Generated_Source\PSoC5/USBUART_1.c **** 
 599:.\Generated_Source\PSoC5/USBUART_1.c ****     /* Clear EP0 count register. */
 600:.\Generated_Source\PSoC5/USBUART_1.c ****     USBUART_1_EP0_CNT_REG = USBUART_1_CLEAR_REG;
 601:.\Generated_Source\PSoC5/USBUART_1.c **** 
 602:.\Generated_Source\PSoC5/USBUART_1.c ****     /* Set EP0.CR: ACK Setup, NAK IN/OUT. */
 603:.\Generated_Source\PSoC5/USBUART_1.c ****     USBUART_1_EP0_CR_REG = USBUART_1_MODE_NAK_IN_OUT;
 604:.\Generated_Source\PSoC5/USBUART_1.c **** 
 605:.\Generated_Source\PSoC5/USBUART_1.c ****     #if (USBUART_1_LPM_ACTIVE)
 606:.\Generated_Source\PSoC5/USBUART_1.c ****         if (NULL != USBUART_1_GetBOSPtr())
 607:.\Generated_Source\PSoC5/USBUART_1.c ****         {
ARM GAS  C:\Users\Thomas\AppData\Local\Temp\ccHSNeoG.s 			page 17


 608:.\Generated_Source\PSoC5/USBUART_1.c ****             /* Enable LPM and acknowledge LPM packets for active device.
 609:.\Generated_Source\PSoC5/USBUART_1.c ****             * Reset NYET_EN and SUB_RESP bits in the LPM_CTRL register.
 610:.\Generated_Source\PSoC5/USBUART_1.c ****             */
 611:.\Generated_Source\PSoC5/USBUART_1.c ****             USBUART_1_LPM_CTRL_REG = (USBUART_1_LPM_CTRL_LPM_EN | \
 612:.\Generated_Source\PSoC5/USBUART_1.c ****                                              USBUART_1_LPM_CTRL_LPM_ACK_RESP);
 613:.\Generated_Source\PSoC5/USBUART_1.c ****         }
 614:.\Generated_Source\PSoC5/USBUART_1.c ****         else
 615:.\Generated_Source\PSoC5/USBUART_1.c ****         {
 616:.\Generated_Source\PSoC5/USBUART_1.c ****             /* Disable LPM for active device. */
 617:.\Generated_Source\PSoC5/USBUART_1.c ****             USBUART_1_LPM_CTRL_REG &= (uint32) ~USBUART_1_LPM_CTRL_LPM_EN;
 618:.\Generated_Source\PSoC5/USBUART_1.c ****         }
 619:.\Generated_Source\PSoC5/USBUART_1.c ****     #endif /* (USBUART_1_LPM_ACTIVE) */
 620:.\Generated_Source\PSoC5/USBUART_1.c **** 
 621:.\Generated_Source\PSoC5/USBUART_1.c ****     /* Enable device to responds to USB traffic with address 0. */
 622:.\Generated_Source\PSoC5/USBUART_1.c ****     USBUART_1_CR0_REG = USBUART_1_DEFUALT_CR0;
 623:.\Generated_Source\PSoC5/USBUART_1.c **** 
 624:.\Generated_Source\PSoC5/USBUART_1.c **** #else
 625:.\Generated_Source\PSoC5/USBUART_1.c ****     /* Set EP0.CR: ACK Setup, STALL IN/OUT. */
 626:.\Generated_Source\PSoC5/USBUART_1.c ****     USBUART_1_EP0_CR_REG = USBUART_1_MODE_STALL_IN_OUT;
 306              		.loc 1 626 0
 307 006e 0322     		movs	r2, #3
 308 0070 0F4B     		ldr	r3, .L12+40
 309 0072 1A70     		strb	r2, [r3]
 627:.\Generated_Source\PSoC5/USBUART_1.c **** 
 628:.\Generated_Source\PSoC5/USBUART_1.c ****     /* Enable device to respond to USB traffic with address 0. */
 629:.\Generated_Source\PSoC5/USBUART_1.c ****     USBUART_1_CR0_REG = USBUART_1_DEFUALT_CR0;
 310              		.loc 1 629 0
 311 0074 8022     		movs	r2, #128
 312 0076 203B     		subs	r3, r3, #32
 313 0078 1A70     		strb	r2, [r3]
 630:.\Generated_Source\PSoC5/USBUART_1.c ****     CyDelayCycles(USBUART_1_WAIT_CR0_REG_STABILITY);
 314              		.loc 1 630 0
 315 007a 0120     		movs	r0, #1
 316              	.LVL23:
 317 007c FFF7FEFF 		bl	CyDelayCycles
 318              	.LVL24:
 631:.\Generated_Source\PSoC5/USBUART_1.c **** #endif /* (CY_PSOC4) */
 632:.\Generated_Source\PSoC5/USBUART_1.c **** 
 633:.\Generated_Source\PSoC5/USBUART_1.c ****     /* Enable D+ pull-up and keep USB control on IO. */
 634:.\Generated_Source\PSoC5/USBUART_1.c ****     USBUART_1_USBIO_CR1_REG = USBUART_1_USBIO_CR1_USBPUEN;
 319              		.loc 1 634 0
 320 0080 0422     		movs	r2, #4
 321 0082 0C4B     		ldr	r3, .L12+44
 322 0084 1A70     		strb	r2, [r3]
 323 0086 08BD     		pop	{r3, pc}
 324              	.L13:
 325              		.align	2
 326              	.L12:
 327 0088 00000000 		.word	USBUART_1_device
 328 008c 00000000 		.word	USBUART_1_transferState
 329 0090 00000000 		.word	USBUART_1_configurationChanged
 330 0094 00000000 		.word	USBUART_1_configuration
 331 0098 00000000 		.word	USBUART_1_interfaceNumber
 332 009c 00000000 		.word	USBUART_1_deviceAddress
 333 00a0 00000000 		.word	USBUART_1_deviceStatus
 334 00a4 00000000 		.word	USBUART_1_lastPacketSize
 335 00a8 00E100E0 		.word	-536813312
ARM GAS  C:\Users\Thomas\AppData\Local\Temp\ccHSNeoG.s 			page 18


 336 00ac 09600040 		.word	1073766409
 337 00b0 28600040 		.word	1073766440
 338 00b4 12600040 		.word	1073766418
 339              		.cfi_endproc
 340              	.LFE2:
 341              		.size	USBUART_1_InitComponent, .-USBUART_1_InitComponent
 342              		.section	.text.USBUART_1_Start,"ax",%progbits
 343              		.align	2
 344              		.global	USBUART_1_Start
 345              		.thumb
 346              		.thumb_func
 347              		.type	USBUART_1_Start, %function
 348              	USBUART_1_Start:
 349              	.LFB0:
 186:.\Generated_Source\PSoC5/USBUART_1.c ****     if (0u == USBUART_1_initVar)
 350              		.loc 1 186 0
 351              		.cfi_startproc
 352              		@ args = 0, pretend = 0, frame = 0
 353              		@ frame_needed = 0, uses_anonymous_args = 0
 354              	.LVL25:
 355 0000 38B5     		push	{r3, r4, r5, lr}
 356              		.cfi_def_cfa_offset 16
 357              		.cfi_offset 3, -16
 358              		.cfi_offset 4, -12
 359              		.cfi_offset 5, -8
 360              		.cfi_offset 14, -4
 361 0002 0546     		mov	r5, r0
 362 0004 0C46     		mov	r4, r1
 187:.\Generated_Source\PSoC5/USBUART_1.c ****     {
 363              		.loc 1 187 0
 364 0006 064B     		ldr	r3, .L17
 365 0008 1B78     		ldrb	r3, [r3]	@ zero_extendqisi2
 366 000a 23B9     		cbnz	r3, .L15
 189:.\Generated_Source\PSoC5/USBUART_1.c ****         USBUART_1_initVar = 1u;
 367              		.loc 1 189 0
 368 000c FFF7FEFF 		bl	USBUART_1_Init
 369              	.LVL26:
 190:.\Generated_Source\PSoC5/USBUART_1.c ****     }
 370              		.loc 1 190 0
 371 0010 0122     		movs	r2, #1
 372 0012 034B     		ldr	r3, .L17
 373 0014 1A70     		strb	r2, [r3]
 374              	.L15:
 193:.\Generated_Source\PSoC5/USBUART_1.c **** }
 375              		.loc 1 193 0
 376 0016 2846     		mov	r0, r5
 377 0018 2146     		mov	r1, r4
 378 001a FFF7FEFF 		bl	USBUART_1_InitComponent
 379              	.LVL27:
 380 001e 38BD     		pop	{r3, r4, r5, pc}
 381              	.L18:
 382              		.align	2
 383              	.L17:
 384 0020 00000000 		.word	.LANCHOR0
 385              		.cfi_endproc
 386              	.LFE0:
 387              		.size	USBUART_1_Start, .-USBUART_1_Start
ARM GAS  C:\Users\Thomas\AppData\Local\Temp\ccHSNeoG.s 			page 19


 388              		.section	.text.USBUART_1_ReInitComponent,"ax",%progbits
 389              		.align	2
 390              		.global	USBUART_1_ReInitComponent
 391              		.thumb
 392              		.thumb_func
 393              		.type	USBUART_1_ReInitComponent, %function
 394              	USBUART_1_ReInitComponent:
 395              	.LFB3:
 635:.\Generated_Source\PSoC5/USBUART_1.c **** }
 636:.\Generated_Source\PSoC5/USBUART_1.c **** 
 637:.\Generated_Source\PSoC5/USBUART_1.c **** 
 638:.\Generated_Source\PSoC5/USBUART_1.c **** /*******************************************************************************
 639:.\Generated_Source\PSoC5/USBUART_1.c **** * Function Name: USBUART_1_ReInitComponent
 640:.\Generated_Source\PSoC5/USBUART_1.c **** ****************************************************************************//**
 641:.\Generated_Source\PSoC5/USBUART_1.c **** *
 642:.\Generated_Source\PSoC5/USBUART_1.c **** *  This function reinitialize the component configuration and is
 643:.\Generated_Source\PSoC5/USBUART_1.c **** *  intend to be called from the Reset interrupt.
 644:.\Generated_Source\PSoC5/USBUART_1.c **** *
 645:.\Generated_Source\PSoC5/USBUART_1.c **** * \globalvars
 646:.\Generated_Source\PSoC5/USBUART_1.c **** *   USBUART_1_device - Contains the device number of the desired Device
 647:.\Generated_Source\PSoC5/USBUART_1.c **** *        Descriptor. The device number can be found in the Device Descriptor tab
 648:.\Generated_Source\PSoC5/USBUART_1.c **** *       of the Configure dialog, under the settings of the desired Device Descriptor,
 649:.\Generated_Source\PSoC5/USBUART_1.c **** *       in the Device Number field.
 650:.\Generated_Source\PSoC5/USBUART_1.c **** *   USBUART_1_transferState - This variable is used by the communication
 651:.\Generated_Source\PSoC5/USBUART_1.c **** *       functions to handle the current transfer state. Initialized to
 652:.\Generated_Source\PSoC5/USBUART_1.c **** *       TRANS_STATE_IDLE in this API.
 653:.\Generated_Source\PSoC5/USBUART_1.c **** *   USBUART_1_configuration - Contains the current configuration number
 654:.\Generated_Source\PSoC5/USBUART_1.c **** *       set by the Host using a SET_CONFIGURATION request.
 655:.\Generated_Source\PSoC5/USBUART_1.c **** *       Initialized to zero in this API.
 656:.\Generated_Source\PSoC5/USBUART_1.c **** *   USBUART_1_deviceAddress - Contains the current device address. This
 657:.\Generated_Source\PSoC5/USBUART_1.c **** *       variable is initialized to zero in this API. The Host starts to communicate
 658:.\Generated_Source\PSoC5/USBUART_1.c **** *      to the device with address 0 and then sets it to a whatever value using
 659:.\Generated_Source\PSoC5/USBUART_1.c **** *      a SET_ADDRESS request.
 660:.\Generated_Source\PSoC5/USBUART_1.c **** *   USBUART_1_deviceStatus - Initialized to 0.
 661:.\Generated_Source\PSoC5/USBUART_1.c **** *       This is a two-bit variable which contains the power status in the first bit
 662:.\Generated_Source\PSoC5/USBUART_1.c **** *       (DEVICE_STATUS_BUS_POWERED or DEVICE_STATUS_SELF_POWERED) and the remote
 663:.\Generated_Source\PSoC5/USBUART_1.c **** *       wakeup status (DEVICE_STATUS_REMOTE_WAKEUP) in the second bit.
 664:.\Generated_Source\PSoC5/USBUART_1.c **** *   USBUART_1_lastPacketSize - Initialized to 0;
 665:.\Generated_Source\PSoC5/USBUART_1.c **** *
 666:.\Generated_Source\PSoC5/USBUART_1.c **** * \reentrant
 667:.\Generated_Source\PSoC5/USBUART_1.c **** *  No.
 668:.\Generated_Source\PSoC5/USBUART_1.c **** *
 669:.\Generated_Source\PSoC5/USBUART_1.c **** *******************************************************************************/
 670:.\Generated_Source\PSoC5/USBUART_1.c **** void USBUART_1_ReInitComponent(void) 
 671:.\Generated_Source\PSoC5/USBUART_1.c **** {
 396              		.loc 1 671 0
 397              		.cfi_startproc
 398              		@ args = 0, pretend = 0, frame = 0
 399              		@ frame_needed = 0, uses_anonymous_args = 0
 400              		@ link register save eliminated.
 672:.\Generated_Source\PSoC5/USBUART_1.c ****     /* Initialize _hidProtocol variable to comply with HID 7.2.6 Set_Protocol
 673:.\Generated_Source\PSoC5/USBUART_1.c ****     *  Request: "When initialized, all devices default to report protocol."
 674:.\Generated_Source\PSoC5/USBUART_1.c ****     */
 675:.\Generated_Source\PSoC5/USBUART_1.c **** #if defined(USBUART_1_ENABLE_HID_CLASS)
 676:.\Generated_Source\PSoC5/USBUART_1.c ****     uint8 i;
 677:.\Generated_Source\PSoC5/USBUART_1.c **** 
 678:.\Generated_Source\PSoC5/USBUART_1.c ****     for (i = 0u; i < USBUART_1_MAX_INTERFACES_NUMBER; i++)
ARM GAS  C:\Users\Thomas\AppData\Local\Temp\ccHSNeoG.s 			page 20


 679:.\Generated_Source\PSoC5/USBUART_1.c ****     {
 680:.\Generated_Source\PSoC5/USBUART_1.c ****         USBUART_1_hidProtocol[i] = USBUART_1_PROTOCOL_REPORT;
 681:.\Generated_Source\PSoC5/USBUART_1.c ****     }
 682:.\Generated_Source\PSoC5/USBUART_1.c **** #endif /* USBUART_1_ENABLE_HID_CLASS */
 683:.\Generated_Source\PSoC5/USBUART_1.c **** 
 684:.\Generated_Source\PSoC5/USBUART_1.c ****     /* Reset component internal variables. */
 685:.\Generated_Source\PSoC5/USBUART_1.c ****     USBUART_1_transferState   = USBUART_1_TRANS_STATE_IDLE;
 401              		.loc 1 685 0
 402 0000 0023     		movs	r3, #0
 403 0002 0A4A     		ldr	r2, .L20
 404 0004 1370     		strb	r3, [r2]
 686:.\Generated_Source\PSoC5/USBUART_1.c ****     USBUART_1_configurationChanged = 0u;
 405              		.loc 1 686 0
 406 0006 0A4A     		ldr	r2, .L20+4
 407 0008 1370     		strb	r3, [r2]
 687:.\Generated_Source\PSoC5/USBUART_1.c ****     USBUART_1_configuration   = 0u;
 408              		.loc 1 687 0
 409 000a 0A4A     		ldr	r2, .L20+8
 410 000c 1370     		strb	r3, [r2]
 688:.\Generated_Source\PSoC5/USBUART_1.c ****     USBUART_1_interfaceNumber = 0u;
 411              		.loc 1 688 0
 412 000e 0A4A     		ldr	r2, .L20+12
 413 0010 1370     		strb	r3, [r2]
 689:.\Generated_Source\PSoC5/USBUART_1.c ****     USBUART_1_deviceAddress   = 0u;
 414              		.loc 1 689 0
 415 0012 0A4A     		ldr	r2, .L20+16
 416 0014 1370     		strb	r3, [r2]
 690:.\Generated_Source\PSoC5/USBUART_1.c ****     USBUART_1_deviceStatus    = 0u;
 417              		.loc 1 690 0
 418 0016 0A4A     		ldr	r2, .L20+20
 419 0018 1370     		strb	r3, [r2]
 691:.\Generated_Source\PSoC5/USBUART_1.c ****     USBUART_1_lastPacketSize  = 0u;
 420              		.loc 1 691 0
 421 001a 0A4A     		ldr	r2, .L20+24
 422 001c 1370     		strb	r3, [r2]
 692:.\Generated_Source\PSoC5/USBUART_1.c **** 
 693:.\Generated_Source\PSoC5/USBUART_1.c **** #if (CY_PSOC4)
 694:.\Generated_Source\PSoC5/USBUART_1.c ****     /* Set EP0.CR: ACK Setup, NAK IN/OUT. */
 695:.\Generated_Source\PSoC5/USBUART_1.c ****     USBUART_1_EP0_CR_REG = USBUART_1_MODE_NAK_IN_OUT;
 696:.\Generated_Source\PSoC5/USBUART_1.c **** #else
 697:.\Generated_Source\PSoC5/USBUART_1.c ****     /* Set EP0.CR: ACK Setup, STALL IN/OUT. */
 698:.\Generated_Source\PSoC5/USBUART_1.c ****     USBUART_1_EP0_CR_REG = USBUART_1_MODE_STALL_IN_OUT;
 423              		.loc 1 698 0
 424 001e 0322     		movs	r2, #3
 425 0020 094B     		ldr	r3, .L20+28
 426 0022 1A70     		strb	r2, [r3]
 699:.\Generated_Source\PSoC5/USBUART_1.c **** #endif /* (CY_PSOC4) */
 700:.\Generated_Source\PSoC5/USBUART_1.c **** 
 701:.\Generated_Source\PSoC5/USBUART_1.c ****     /* Enable device to respond to USB traffic with address 0. */
 702:.\Generated_Source\PSoC5/USBUART_1.c ****     USBUART_1_CR0_REG = USBUART_1_DEFUALT_CR0;
 427              		.loc 1 702 0
 428 0024 8022     		movs	r2, #128
 429 0026 203B     		subs	r3, r3, #32
 430 0028 1A70     		strb	r2, [r3]
 431 002a 7047     		bx	lr
 432              	.L21:
 433              		.align	2
ARM GAS  C:\Users\Thomas\AppData\Local\Temp\ccHSNeoG.s 			page 21


 434              	.L20:
 435 002c 00000000 		.word	USBUART_1_transferState
 436 0030 00000000 		.word	USBUART_1_configurationChanged
 437 0034 00000000 		.word	USBUART_1_configuration
 438 0038 00000000 		.word	USBUART_1_interfaceNumber
 439 003c 00000000 		.word	USBUART_1_deviceAddress
 440 0040 00000000 		.word	USBUART_1_deviceStatus
 441 0044 00000000 		.word	USBUART_1_lastPacketSize
 442 0048 28600040 		.word	1073766440
 443              		.cfi_endproc
 444              	.LFE3:
 445              		.size	USBUART_1_ReInitComponent, .-USBUART_1_ReInitComponent
 446              		.section	.text.USBUART_1_Stop,"ax",%progbits
 447              		.align	2
 448              		.global	USBUART_1_Stop
 449              		.thumb
 450              		.thumb_func
 451              		.type	USBUART_1_Stop, %function
 452              	USBUART_1_Stop:
 453              	.LFB4:
 703:.\Generated_Source\PSoC5/USBUART_1.c **** }
 704:.\Generated_Source\PSoC5/USBUART_1.c **** 
 705:.\Generated_Source\PSoC5/USBUART_1.c **** 
 706:.\Generated_Source\PSoC5/USBUART_1.c **** /*******************************************************************************
 707:.\Generated_Source\PSoC5/USBUART_1.c **** * Function Name: USBUART_1_Stop
 708:.\Generated_Source\PSoC5/USBUART_1.c **** ****************************************************************************//**
 709:.\Generated_Source\PSoC5/USBUART_1.c **** *
 710:.\Generated_Source\PSoC5/USBUART_1.c **** *  This function shuts down the USB function including to release
 711:.\Generated_Source\PSoC5/USBUART_1.c **** *  the D+ pull-up and disabling the SIE.
 712:.\Generated_Source\PSoC5/USBUART_1.c **** *
 713:.\Generated_Source\PSoC5/USBUART_1.c **** * \globalvars
 714:.\Generated_Source\PSoC5/USBUART_1.c **** *   \ref USBUART_1_configuration
 715:.\Generated_Source\PSoC5/USBUART_1.c **** *
 716:.\Generated_Source\PSoC5/USBUART_1.c **** *   USBUART_1_deviceAddress - Contains the current device address. This
 717:.\Generated_Source\PSoC5/USBUART_1.c **** *       variable is initialized to zero in this API. The Host starts to communicate
 718:.\Generated_Source\PSoC5/USBUART_1.c **** *      to the device with address 0 and then sets it to a whatever value using
 719:.\Generated_Source\PSoC5/USBUART_1.c **** *      a SET_ADDRESS request.
 720:.\Generated_Source\PSoC5/USBUART_1.c **** *
 721:.\Generated_Source\PSoC5/USBUART_1.c **** *   \ref USBUART_1_deviceStatus
 722:.\Generated_Source\PSoC5/USBUART_1.c **** *
 723:.\Generated_Source\PSoC5/USBUART_1.c **** *   \ref USBUART_1_configurationChanged
 724:.\Generated_Source\PSoC5/USBUART_1.c **** *
 725:.\Generated_Source\PSoC5/USBUART_1.c **** *   USBUART_1_intiVar -  This variable is set to zero
 726:.\Generated_Source\PSoC5/USBUART_1.c **** *
 727:.\Generated_Source\PSoC5/USBUART_1.c **** *******************************************************************************/
 728:.\Generated_Source\PSoC5/USBUART_1.c **** void USBUART_1_Stop(void) 
 729:.\Generated_Source\PSoC5/USBUART_1.c **** {
 454              		.loc 1 729 0
 455              		.cfi_startproc
 456              		@ args = 0, pretend = 0, frame = 0
 457              		@ frame_needed = 0, uses_anonymous_args = 0
 458 0000 08B5     		push	{r3, lr}
 459              		.cfi_def_cfa_offset 8
 460              		.cfi_offset 3, -8
 461              		.cfi_offset 14, -4
 730:.\Generated_Source\PSoC5/USBUART_1.c ****     uint8 enableInterrupts;
 731:.\Generated_Source\PSoC5/USBUART_1.c **** 
ARM GAS  C:\Users\Thomas\AppData\Local\Temp\ccHSNeoG.s 			page 22


 732:.\Generated_Source\PSoC5/USBUART_1.c **** #if (USBUART_1_EP_MANAGEMENT_DMA)
 733:.\Generated_Source\PSoC5/USBUART_1.c ****     /* Stop all DMA channels. */
 734:.\Generated_Source\PSoC5/USBUART_1.c ****     USBUART_1_Stop_DMA(USBUART_1_MAX_EP);
 735:.\Generated_Source\PSoC5/USBUART_1.c **** #endif /* (USBUART_1_EP_MANAGEMENT_DMA) */
 736:.\Generated_Source\PSoC5/USBUART_1.c **** 
 737:.\Generated_Source\PSoC5/USBUART_1.c ****     enableInterrupts = CyEnterCriticalSection();
 462              		.loc 1 737 0
 463 0002 FFF7FEFF 		bl	CyEnterCriticalSection
 464              	.LVL28:
 738:.\Generated_Source\PSoC5/USBUART_1.c **** 
 739:.\Generated_Source\PSoC5/USBUART_1.c ****     /* Disable USB IP to respond to USB traffic. */
 740:.\Generated_Source\PSoC5/USBUART_1.c ****     USBUART_1_CR0_REG &= (uint8) ~USBUART_1_CR0_ENABLE;
 465              		.loc 1 740 0
 466 0006 1B4A     		ldr	r2, .L24
 467 0008 1378     		ldrb	r3, [r2]	@ zero_extendqisi2
 468 000a 03F07F03 		and	r3, r3, #127
 469 000e 1370     		strb	r3, [r2]
 741:.\Generated_Source\PSoC5/USBUART_1.c **** 
 742:.\Generated_Source\PSoC5/USBUART_1.c ****     /* Disable D+ pull-up. */
 743:.\Generated_Source\PSoC5/USBUART_1.c ****     USBUART_1_USBIO_CR1_REG &= (uint8) ~ USBUART_1_USBIO_CR1_USBPUEN;
 470              		.loc 1 743 0
 471 0010 0A32     		adds	r2, r2, #10
 472 0012 1378     		ldrb	r3, [r2]	@ zero_extendqisi2
 473 0014 03F0FB03 		and	r3, r3, #251
 474 0018 1370     		strb	r3, [r2]
 744:.\Generated_Source\PSoC5/USBUART_1.c **** 
 745:.\Generated_Source\PSoC5/USBUART_1.c **** #if (CY_PSOC4)
 746:.\Generated_Source\PSoC5/USBUART_1.c ****     /* Disable USBFS block. */
 747:.\Generated_Source\PSoC5/USBUART_1.c ****     USBUART_1_POWER_CTRL_REG &= (uint32) ~USBUART_1_POWER_CTRL_ENABLE;
 748:.\Generated_Source\PSoC5/USBUART_1.c **** #else
 749:.\Generated_Source\PSoC5/USBUART_1.c ****     /* Clear power active and standby mode templates. */
 750:.\Generated_Source\PSoC5/USBUART_1.c ****     USBUART_1_PM_ACT_CFG_REG  &= (uint8) ~USBUART_1_PM_ACT_EN_FSUSB;
 475              		.loc 1 750 0
 476 001a A2F5E352 		sub	r2, r2, #7264
 477 001e 0D3A     		subs	r2, r2, #13
 478 0020 1378     		ldrb	r3, [r2]	@ zero_extendqisi2
 479 0022 03F0FE03 		and	r3, r3, #254
 480 0026 1370     		strb	r3, [r2]
 751:.\Generated_Source\PSoC5/USBUART_1.c ****     USBUART_1_PM_STBY_CFG_REG &= (uint8) ~USBUART_1_PM_STBY_EN_FSUSB;
 481              		.loc 1 751 0
 482 0028 1032     		adds	r2, r2, #16
 483 002a 1378     		ldrb	r3, [r2]	@ zero_extendqisi2
 484 002c 03F0FE03 		and	r3, r3, #254
 485 0030 1370     		strb	r3, [r2]
 752:.\Generated_Source\PSoC5/USBUART_1.c **** #endif /* (CY_PSOC4) */
 753:.\Generated_Source\PSoC5/USBUART_1.c **** 
 754:.\Generated_Source\PSoC5/USBUART_1.c ****     CyExitCriticalSection(enableInterrupts);
 486              		.loc 1 754 0
 487 0032 FFF7FEFF 		bl	CyExitCriticalSection
 488              	.LVL29:
 755:.\Generated_Source\PSoC5/USBUART_1.c **** 
 756:.\Generated_Source\PSoC5/USBUART_1.c ****     /* Disable component interrupts. */
 757:.\Generated_Source\PSoC5/USBUART_1.c **** #if (CY_PSOC4)
 758:.\Generated_Source\PSoC5/USBUART_1.c ****     CyIntDisable(USBUART_1_INTR_HI_VECT_NUM);
 759:.\Generated_Source\PSoC5/USBUART_1.c ****     CyIntDisable(USBUART_1_INTR_LO_VECT_NUM);
 760:.\Generated_Source\PSoC5/USBUART_1.c ****     CyIntDisable(USBUART_1_INTR_MED_VECT_NUM);
 761:.\Generated_Source\PSoC5/USBUART_1.c **** #else
ARM GAS  C:\Users\Thomas\AppData\Local\Temp\ccHSNeoG.s 			page 23


 762:.\Generated_Source\PSoC5/USBUART_1.c **** 
 763:.\Generated_Source\PSoC5/USBUART_1.c ****     CyIntDisable(USBUART_1_BUS_RESET_VECT_NUM);
 489              		.loc 1 763 0
 490 0036 104B     		ldr	r3, .L24+4
 491 0038 4FF40002 		mov	r2, #8388608
 492 003c 1A60     		str	r2, [r3]
 764:.\Generated_Source\PSoC5/USBUART_1.c ****     CyIntDisable(USBUART_1_EP_0_VECT_NUM);
 493              		.loc 1 764 0
 494 003e 4FF08072 		mov	r2, #16777216
 495 0042 1A60     		str	r2, [r3]
 765:.\Generated_Source\PSoC5/USBUART_1.c **** 
 766:.\Generated_Source\PSoC5/USBUART_1.c ****     #if (USBUART_1_SOF_ISR_ACTIVE)
 767:.\Generated_Source\PSoC5/USBUART_1.c ****         CyIntDisable(USBUART_1_SOF_VECT_NUM);
 496              		.loc 1 767 0
 497 0044 4FF40012 		mov	r2, #2097152
 498 0048 1A60     		str	r2, [r3]
 768:.\Generated_Source\PSoC5/USBUART_1.c ****     #endif /* (USBUART_1_SOF_ISR_ACTIVE) */
 769:.\Generated_Source\PSoC5/USBUART_1.c **** 
 770:.\Generated_Source\PSoC5/USBUART_1.c ****     #if (USBUART_1_EP1_ISR_ACTIVE)
 771:.\Generated_Source\PSoC5/USBUART_1.c ****         CyIntDisable(USBUART_1_EP_1_VECT_NUM);
 499              		.loc 1 771 0
 500 004a 0222     		movs	r2, #2
 501 004c 1A60     		str	r2, [r3]
 772:.\Generated_Source\PSoC5/USBUART_1.c ****     #endif /* (USBUART_1_EP1_ISR_ACTIVE) */
 773:.\Generated_Source\PSoC5/USBUART_1.c **** 
 774:.\Generated_Source\PSoC5/USBUART_1.c ****     #if (USBUART_1_EP2_ISR_ACTIVE)
 775:.\Generated_Source\PSoC5/USBUART_1.c ****         CyIntDisable(USBUART_1_EP_2_VECT_NUM);
 502              		.loc 1 775 0
 503 004e 0422     		movs	r2, #4
 504 0050 1A60     		str	r2, [r3]
 776:.\Generated_Source\PSoC5/USBUART_1.c ****     #endif /* (USBUART_1_EP2_ISR_ACTIVE) */
 777:.\Generated_Source\PSoC5/USBUART_1.c **** 
 778:.\Generated_Source\PSoC5/USBUART_1.c ****     #if (USBUART_1_EP3_ISR_ACTIVE)
 779:.\Generated_Source\PSoC5/USBUART_1.c ****         CyIntDisable(USBUART_1_EP_3_VECT_NUM);
 505              		.loc 1 779 0
 506 0052 0822     		movs	r2, #8
 507 0054 1A60     		str	r2, [r3]
 780:.\Generated_Source\PSoC5/USBUART_1.c ****     #endif /* (USBUART_1_EP3_ISR_ACTIVE) */
 781:.\Generated_Source\PSoC5/USBUART_1.c **** 
 782:.\Generated_Source\PSoC5/USBUART_1.c ****     #if (USBUART_1_EP4_ISR_ACTIVE)
 783:.\Generated_Source\PSoC5/USBUART_1.c ****         CyIntDisable(USBUART_1_EP_4_VECT_NUM);
 784:.\Generated_Source\PSoC5/USBUART_1.c ****     #endif /* (USBUART_1_EP4_ISR_ACTIVE) */
 785:.\Generated_Source\PSoC5/USBUART_1.c **** 
 786:.\Generated_Source\PSoC5/USBUART_1.c ****     #if (USBUART_1_EP5_ISR_ACTIVE)
 787:.\Generated_Source\PSoC5/USBUART_1.c ****         CyIntDisable(USBUART_1_EP_5_VECT_NUM);
 788:.\Generated_Source\PSoC5/USBUART_1.c ****     #endif /* (USBUART_1_EP5_ISR_ACTIVE) */
 789:.\Generated_Source\PSoC5/USBUART_1.c **** 
 790:.\Generated_Source\PSoC5/USBUART_1.c ****     #if (USBUART_1_EP6_ISR_ACTIVE)
 791:.\Generated_Source\PSoC5/USBUART_1.c ****         CyIntDisable(USBUART_1_EP_6_VECT_NUM);
 792:.\Generated_Source\PSoC5/USBUART_1.c ****     #endif /* USBUART_1_EP6_ISR_REMOVE */
 793:.\Generated_Source\PSoC5/USBUART_1.c **** 
 794:.\Generated_Source\PSoC5/USBUART_1.c ****     #if (USBUART_1_EP7_ISR_ACTIVE)
 795:.\Generated_Source\PSoC5/USBUART_1.c ****         CyIntDisable(USBUART_1_EP_7_VECT_NUM);
 796:.\Generated_Source\PSoC5/USBUART_1.c ****     #endif /* (USBUART_1_EP7_ISR_ACTIVE) */
 797:.\Generated_Source\PSoC5/USBUART_1.c **** 
 798:.\Generated_Source\PSoC5/USBUART_1.c ****     #if (USBUART_1_EP8_ISR_ACTIVE)
 799:.\Generated_Source\PSoC5/USBUART_1.c ****         CyIntDisable(USBUART_1_EP_8_VECT_NUM);
ARM GAS  C:\Users\Thomas\AppData\Local\Temp\ccHSNeoG.s 			page 24


 800:.\Generated_Source\PSoC5/USBUART_1.c ****     #endif /* (USBUART_1_EP8_ISR_ACTIVE) */
 801:.\Generated_Source\PSoC5/USBUART_1.c **** #endif /* (CY_PSOC4) */
 802:.\Generated_Source\PSoC5/USBUART_1.c **** 
 803:.\Generated_Source\PSoC5/USBUART_1.c ****     /* Reset component internal variables. */
 804:.\Generated_Source\PSoC5/USBUART_1.c ****     USBUART_1_configurationChanged = 0u;
 508              		.loc 1 804 0
 509 0056 0023     		movs	r3, #0
 510 0058 084A     		ldr	r2, .L24+8
 511 005a 1370     		strb	r3, [r2]
 805:.\Generated_Source\PSoC5/USBUART_1.c ****     USBUART_1_configuration   = 0u;
 512              		.loc 1 805 0
 513 005c 084A     		ldr	r2, .L24+12
 514 005e 1370     		strb	r3, [r2]
 806:.\Generated_Source\PSoC5/USBUART_1.c ****     USBUART_1_interfaceNumber = 0u;
 515              		.loc 1 806 0
 516 0060 084A     		ldr	r2, .L24+16
 517 0062 1370     		strb	r3, [r2]
 807:.\Generated_Source\PSoC5/USBUART_1.c ****     USBUART_1_deviceAddress   = 0u;
 518              		.loc 1 807 0
 519 0064 084A     		ldr	r2, .L24+20
 520 0066 1370     		strb	r3, [r2]
 808:.\Generated_Source\PSoC5/USBUART_1.c ****     USBUART_1_deviceStatus    = 0u;
 521              		.loc 1 808 0
 522 0068 084A     		ldr	r2, .L24+24
 523 006a 1370     		strb	r3, [r2]
 809:.\Generated_Source\PSoC5/USBUART_1.c **** 
 810:.\Generated_Source\PSoC5/USBUART_1.c ****     /* It is mandatory for correct device startup. */
 811:.\Generated_Source\PSoC5/USBUART_1.c ****     USBUART_1_initVar = 0u;
 524              		.loc 1 811 0
 525 006c 084A     		ldr	r2, .L24+28
 526 006e 1370     		strb	r3, [r2]
 527 0070 08BD     		pop	{r3, pc}
 528              	.L25:
 529 0072 00BF     		.align	2
 530              	.L24:
 531 0074 08600040 		.word	1073766408
 532 0078 80E100E0 		.word	-536813184
 533 007c 00000000 		.word	USBUART_1_configurationChanged
 534 0080 00000000 		.word	USBUART_1_configuration
 535 0084 00000000 		.word	USBUART_1_interfaceNumber
 536 0088 00000000 		.word	USBUART_1_deviceAddress
 537 008c 00000000 		.word	USBUART_1_deviceStatus
 538 0090 00000000 		.word	.LANCHOR0
 539              		.cfi_endproc
 540              	.LFE4:
 541              		.size	USBUART_1_Stop, .-USBUART_1_Stop
 542              		.section	.text.USBUART_1_CheckActivity,"ax",%progbits
 543              		.align	2
 544              		.global	USBUART_1_CheckActivity
 545              		.thumb
 546              		.thumb_func
 547              		.type	USBUART_1_CheckActivity, %function
 548              	USBUART_1_CheckActivity:
 549              	.LFB5:
 812:.\Generated_Source\PSoC5/USBUART_1.c **** }
 813:.\Generated_Source\PSoC5/USBUART_1.c **** 
 814:.\Generated_Source\PSoC5/USBUART_1.c **** 
ARM GAS  C:\Users\Thomas\AppData\Local\Temp\ccHSNeoG.s 			page 25


 815:.\Generated_Source\PSoC5/USBUART_1.c **** /*******************************************************************************
 816:.\Generated_Source\PSoC5/USBUART_1.c **** * Function Name: USBUART_1_CheckActivity
 817:.\Generated_Source\PSoC5/USBUART_1.c **** ****************************************************************************//**
 818:.\Generated_Source\PSoC5/USBUART_1.c **** *
 819:.\Generated_Source\PSoC5/USBUART_1.c **** *  This function returns the activity status of the bus. It clears the hardware
 820:.\Generated_Source\PSoC5/USBUART_1.c **** *  status to provide updated status on the next call of this function. It
 821:.\Generated_Source\PSoC5/USBUART_1.c **** *  provides a way to determine whether any USB bus activity occurred. The
 822:.\Generated_Source\PSoC5/USBUART_1.c **** *  application should use this function to determine if the USB suspend
 823:.\Generated_Source\PSoC5/USBUART_1.c **** *  conditions are met.
 824:.\Generated_Source\PSoC5/USBUART_1.c **** *
 825:.\Generated_Source\PSoC5/USBUART_1.c **** *
 826:.\Generated_Source\PSoC5/USBUART_1.c **** * \return
 827:.\Generated_Source\PSoC5/USBUART_1.c **** *  cystatus: Status of the bus since the last call of the function.
 828:.\Generated_Source\PSoC5/USBUART_1.c **** *  Return Value |   Description
 829:.\Generated_Source\PSoC5/USBUART_1.c **** *  -------------|---------------------------------------------------------------
 830:.\Generated_Source\PSoC5/USBUART_1.c **** *  1            |Bus activity was detected since the last call to this function
 831:.\Generated_Source\PSoC5/USBUART_1.c **** *  0            |Bus activity was not detected since the last call to this function
 832:.\Generated_Source\PSoC5/USBUART_1.c **** *
 833:.\Generated_Source\PSoC5/USBUART_1.c **** *
 834:.\Generated_Source\PSoC5/USBUART_1.c **** *******************************************************************************/
 835:.\Generated_Source\PSoC5/USBUART_1.c **** uint8 USBUART_1_CheckActivity(void) 
 836:.\Generated_Source\PSoC5/USBUART_1.c **** {
 550              		.loc 1 836 0
 551              		.cfi_startproc
 552              		@ args = 0, pretend = 0, frame = 0
 553              		@ frame_needed = 0, uses_anonymous_args = 0
 554              		@ link register save eliminated.
 837:.\Generated_Source\PSoC5/USBUART_1.c ****     uint8 cr1Reg = USBUART_1_CR1_REG;
 555              		.loc 1 837 0
 556 0000 064A     		ldr	r2, .L28
 557 0002 1378     		ldrb	r3, [r2]	@ zero_extendqisi2
 558 0004 DBB2     		uxtb	r3, r3
 559              	.LVL30:
 838:.\Generated_Source\PSoC5/USBUART_1.c **** 
 839:.\Generated_Source\PSoC5/USBUART_1.c ****     /* Clear bus activity. */
 840:.\Generated_Source\PSoC5/USBUART_1.c ****     USBUART_1_CR1_REG = (cr1Reg & (uint8) ~USBUART_1_CR1_BUS_ACTIVITY);
 560              		.loc 1 840 0
 561 0006 03F0FB01 		and	r1, r3, #251
 562 000a 1170     		strb	r1, [r2]
 841:.\Generated_Source\PSoC5/USBUART_1.c **** 
 842:.\Generated_Source\PSoC5/USBUART_1.c ****     /* Get bus activity. */
 843:.\Generated_Source\PSoC5/USBUART_1.c ****     return ((0u != (cr1Reg & USBUART_1_CR1_BUS_ACTIVITY)) ? (1u) : (0u));
 563              		.loc 1 843 0
 564 000c 03F00403 		and	r3, r3, #4
 565              	.LVL31:
 566 0010 03F0FF00 		and	r0, r3, #255
 567 0014 03B1     		cbz	r3, .L27
 568 0016 0120     		movs	r0, #1
 569              	.L27:
 844:.\Generated_Source\PSoC5/USBUART_1.c **** }
 570              		.loc 1 844 0 discriminator 4
 571 0018 7047     		bx	lr
 572              	.L29:
 573 001a 00BF     		.align	2
 574              	.L28:
 575 001c 09600040 		.word	1073766409
 576              		.cfi_endproc
ARM GAS  C:\Users\Thomas\AppData\Local\Temp\ccHSNeoG.s 			page 26


 577              	.LFE5:
 578              		.size	USBUART_1_CheckActivity, .-USBUART_1_CheckActivity
 579              		.section	.text.USBUART_1_GetConfiguration,"ax",%progbits
 580              		.align	2
 581              		.global	USBUART_1_GetConfiguration
 582              		.thumb
 583              		.thumb_func
 584              		.type	USBUART_1_GetConfiguration, %function
 585              	USBUART_1_GetConfiguration:
 586              	.LFB6:
 845:.\Generated_Source\PSoC5/USBUART_1.c **** 
 846:.\Generated_Source\PSoC5/USBUART_1.c **** 
 847:.\Generated_Source\PSoC5/USBUART_1.c **** /*******************************************************************************
 848:.\Generated_Source\PSoC5/USBUART_1.c **** * Function Name: USBUART_1_GetConfiguration
 849:.\Generated_Source\PSoC5/USBUART_1.c **** ****************************************************************************//**
 850:.\Generated_Source\PSoC5/USBUART_1.c **** *
 851:.\Generated_Source\PSoC5/USBUART_1.c **** *  This function gets the current configuration of the USB device.
 852:.\Generated_Source\PSoC5/USBUART_1.c **** *
 853:.\Generated_Source\PSoC5/USBUART_1.c **** * \return
 854:.\Generated_Source\PSoC5/USBUART_1.c **** *  Returns the currently assigned configuration. Returns 0 if the device
 855:.\Generated_Source\PSoC5/USBUART_1.c **** *  is not configured
 856:.\Generated_Source\PSoC5/USBUART_1.c **** *
 857:.\Generated_Source\PSoC5/USBUART_1.c **** *******************************************************************************/
 858:.\Generated_Source\PSoC5/USBUART_1.c **** uint8 USBUART_1_GetConfiguration(void) 
 859:.\Generated_Source\PSoC5/USBUART_1.c **** {
 587              		.loc 1 859 0
 588              		.cfi_startproc
 589              		@ args = 0, pretend = 0, frame = 0
 590              		@ frame_needed = 0, uses_anonymous_args = 0
 591              		@ link register save eliminated.
 860:.\Generated_Source\PSoC5/USBUART_1.c ****     return (USBUART_1_configuration);
 592              		.loc 1 860 0
 593 0000 014B     		ldr	r3, .L31
 594 0002 1878     		ldrb	r0, [r3]	@ zero_extendqisi2
 861:.\Generated_Source\PSoC5/USBUART_1.c **** }
 595              		.loc 1 861 0
 596 0004 7047     		bx	lr
 597              	.L32:
 598 0006 00BF     		.align	2
 599              	.L31:
 600 0008 00000000 		.word	USBUART_1_configuration
 601              		.cfi_endproc
 602              	.LFE6:
 603              		.size	USBUART_1_GetConfiguration, .-USBUART_1_GetConfiguration
 604              		.section	.text.USBUART_1_IsConfigurationChanged,"ax",%progbits
 605              		.align	2
 606              		.global	USBUART_1_IsConfigurationChanged
 607              		.thumb
 608              		.thumb_func
 609              		.type	USBUART_1_IsConfigurationChanged, %function
 610              	USBUART_1_IsConfigurationChanged:
 611              	.LFB7:
 862:.\Generated_Source\PSoC5/USBUART_1.c **** 
 863:.\Generated_Source\PSoC5/USBUART_1.c **** 
 864:.\Generated_Source\PSoC5/USBUART_1.c **** /*******************************************************************************
 865:.\Generated_Source\PSoC5/USBUART_1.c **** * Function Name: USBUART_1_IsConfigurationChanged
 866:.\Generated_Source\PSoC5/USBUART_1.c **** ****************************************************************************//**
ARM GAS  C:\Users\Thomas\AppData\Local\Temp\ccHSNeoG.s 			page 27


 867:.\Generated_Source\PSoC5/USBUART_1.c **** *
 868:.\Generated_Source\PSoC5/USBUART_1.c **** *  This function returns the clear-on-read configuration state.  It is useful
 869:.\Generated_Source\PSoC5/USBUART_1.c **** *  when the host sends double SET_CONFIGURATION request with the same 
 870:.\Generated_Source\PSoC5/USBUART_1.c **** *  configuration number or changes alternate settings of the interface. 
 871:.\Generated_Source\PSoC5/USBUART_1.c **** *  After configuration has been changed the OUT endpoints must be enabled and IN 
 872:.\Generated_Source\PSoC5/USBUART_1.c **** *  endpoint must be loaded with data to start communication with the host.
 873:.\Generated_Source\PSoC5/USBUART_1.c **** *
 874:.\Generated_Source\PSoC5/USBUART_1.c **** * \return
 875:.\Generated_Source\PSoC5/USBUART_1.c **** *  None-zero value when new configuration has been changed, otherwise zero is
 876:.\Generated_Source\PSoC5/USBUART_1.c **** *  returned.
 877:.\Generated_Source\PSoC5/USBUART_1.c **** *
 878:.\Generated_Source\PSoC5/USBUART_1.c **** * \globalvars
 879:.\Generated_Source\PSoC5/USBUART_1.c **** *
 880:.\Generated_Source\PSoC5/USBUART_1.c **** *  \ref USBUART_1_configurationChanged - This variable is set to 1 after
 881:.\Generated_Source\PSoC5/USBUART_1.c **** *   a SET_CONFIGURATION request and cleared in this function.
 882:.\Generated_Source\PSoC5/USBUART_1.c **** *
 883:.\Generated_Source\PSoC5/USBUART_1.c **** *******************************************************************************/
 884:.\Generated_Source\PSoC5/USBUART_1.c **** uint8 USBUART_1_IsConfigurationChanged(void) 
 885:.\Generated_Source\PSoC5/USBUART_1.c **** {
 612              		.loc 1 885 0
 613              		.cfi_startproc
 614              		@ args = 0, pretend = 0, frame = 0
 615              		@ frame_needed = 0, uses_anonymous_args = 0
 616              		@ link register save eliminated.
 617              	.LVL32:
 886:.\Generated_Source\PSoC5/USBUART_1.c ****     uint8 res = 0u;
 887:.\Generated_Source\PSoC5/USBUART_1.c **** 
 888:.\Generated_Source\PSoC5/USBUART_1.c ****     if (USBUART_1_configurationChanged != 0u)
 618              		.loc 1 888 0
 619 0000 064B     		ldr	r3, .L36
 620 0002 1B78     		ldrb	r3, [r3]	@ zero_extendqisi2
 621 0004 13F0FF0F 		tst	r3, #255
 622 0008 05D0     		beq	.L35
 889:.\Generated_Source\PSoC5/USBUART_1.c ****     {
 890:.\Generated_Source\PSoC5/USBUART_1.c ****         res = USBUART_1_configurationChanged;
 623              		.loc 1 890 0
 624 000a 044B     		ldr	r3, .L36
 625 000c 1878     		ldrb	r0, [r3]	@ zero_extendqisi2
 626 000e C0B2     		uxtb	r0, r0
 627              	.LVL33:
 891:.\Generated_Source\PSoC5/USBUART_1.c ****         USBUART_1_configurationChanged = 0u;
 628              		.loc 1 891 0
 629 0010 0022     		movs	r2, #0
 630 0012 1A70     		strb	r2, [r3]
 631 0014 7047     		bx	lr
 632              	.LVL34:
 633              	.L35:
 886:.\Generated_Source\PSoC5/USBUART_1.c ****     uint8 res = 0u;
 634              		.loc 1 886 0
 635 0016 0020     		movs	r0, #0
 636              	.LVL35:
 892:.\Generated_Source\PSoC5/USBUART_1.c ****     }
 893:.\Generated_Source\PSoC5/USBUART_1.c **** 
 894:.\Generated_Source\PSoC5/USBUART_1.c ****     return (res);
 895:.\Generated_Source\PSoC5/USBUART_1.c **** }
 637              		.loc 1 895 0
 638 0018 7047     		bx	lr
ARM GAS  C:\Users\Thomas\AppData\Local\Temp\ccHSNeoG.s 			page 28


 639              	.L37:
 640 001a 00BF     		.align	2
 641              	.L36:
 642 001c 00000000 		.word	USBUART_1_configurationChanged
 643              		.cfi_endproc
 644              	.LFE7:
 645              		.size	USBUART_1_IsConfigurationChanged, .-USBUART_1_IsConfigurationChanged
 646              		.section	.text.USBUART_1_GetInterfaceSetting,"ax",%progbits
 647              		.align	2
 648              		.global	USBUART_1_GetInterfaceSetting
 649              		.thumb
 650              		.thumb_func
 651              		.type	USBUART_1_GetInterfaceSetting, %function
 652              	USBUART_1_GetInterfaceSetting:
 653              	.LFB8:
 896:.\Generated_Source\PSoC5/USBUART_1.c **** 
 897:.\Generated_Source\PSoC5/USBUART_1.c **** 
 898:.\Generated_Source\PSoC5/USBUART_1.c **** /*******************************************************************************
 899:.\Generated_Source\PSoC5/USBUART_1.c **** * Function Name: USBUART_1_GetInterfaceSetting
 900:.\Generated_Source\PSoC5/USBUART_1.c **** ****************************************************************************//**
 901:.\Generated_Source\PSoC5/USBUART_1.c **** *
 902:.\Generated_Source\PSoC5/USBUART_1.c **** *  This function gets the current alternate setting for the specified interface.
 903:.\Generated_Source\PSoC5/USBUART_1.c **** *  It is useful to identify which alternate settings are active in the specified 
 904:.\Generated_Source\PSoC5/USBUART_1.c **** *  interface.
 905:.\Generated_Source\PSoC5/USBUART_1.c **** *
 906:.\Generated_Source\PSoC5/USBUART_1.c **** *  \param
 907:.\Generated_Source\PSoC5/USBUART_1.c **** *  interfaceNumber interface number
 908:.\Generated_Source\PSoC5/USBUART_1.c **** *
 909:.\Generated_Source\PSoC5/USBUART_1.c **** * \return
 910:.\Generated_Source\PSoC5/USBUART_1.c **** *  Returns the current alternate setting for the specified interface.
 911:.\Generated_Source\PSoC5/USBUART_1.c **** *
 912:.\Generated_Source\PSoC5/USBUART_1.c **** *******************************************************************************/
 913:.\Generated_Source\PSoC5/USBUART_1.c **** uint8  USBUART_1_GetInterfaceSetting(uint8 interfaceNumber)
 914:.\Generated_Source\PSoC5/USBUART_1.c ****                                                     
 915:.\Generated_Source\PSoC5/USBUART_1.c **** {
 654              		.loc 1 915 0
 655              		.cfi_startproc
 656              		@ args = 0, pretend = 0, frame = 0
 657              		@ frame_needed = 0, uses_anonymous_args = 0
 658              		@ link register save eliminated.
 659              	.LVL36:
 916:.\Generated_Source\PSoC5/USBUART_1.c ****     return (USBUART_1_interfaceSetting[interfaceNumber]);
 660              		.loc 1 916 0
 661 0000 014B     		ldr	r3, .L39
 662 0002 185C     		ldrb	r0, [r3, r0]	@ zero_extendqisi2
 663              	.LVL37:
 917:.\Generated_Source\PSoC5/USBUART_1.c **** }
 664              		.loc 1 917 0
 665 0004 7047     		bx	lr
 666              	.L40:
 667 0006 00BF     		.align	2
 668              	.L39:
 669 0008 00000000 		.word	USBUART_1_interfaceSetting
 670              		.cfi_endproc
 671              	.LFE8:
 672              		.size	USBUART_1_GetInterfaceSetting, .-USBUART_1_GetInterfaceSetting
 673              		.section	.text.USBUART_1_GetEPState,"ax",%progbits
ARM GAS  C:\Users\Thomas\AppData\Local\Temp\ccHSNeoG.s 			page 29


 674              		.align	2
 675              		.global	USBUART_1_GetEPState
 676              		.thumb
 677              		.thumb_func
 678              		.type	USBUART_1_GetEPState, %function
 679              	USBUART_1_GetEPState:
 680              	.LFB9:
 918:.\Generated_Source\PSoC5/USBUART_1.c **** 
 919:.\Generated_Source\PSoC5/USBUART_1.c **** 
 920:.\Generated_Source\PSoC5/USBUART_1.c **** /*******************************************************************************
 921:.\Generated_Source\PSoC5/USBUART_1.c **** * Function Name: USBUART_1_GetEPState
 922:.\Generated_Source\PSoC5/USBUART_1.c **** ****************************************************************************//**
 923:.\Generated_Source\PSoC5/USBUART_1.c **** *
 924:.\Generated_Source\PSoC5/USBUART_1.c **** *  This function returns the state of the requested endpoint.
 925:.\Generated_Source\PSoC5/USBUART_1.c **** *
 926:.\Generated_Source\PSoC5/USBUART_1.c **** * \param epNumber Data endpoint number
 927:.\Generated_Source\PSoC5/USBUART_1.c **** *
 928:.\Generated_Source\PSoC5/USBUART_1.c **** * \return
 929:.\Generated_Source\PSoC5/USBUART_1.c **** *  Returns the current state of the specified USBFS endpoint. Symbolic names and
 930:.\Generated_Source\PSoC5/USBUART_1.c **** *  their associated values are given in the following table. Use these constants
 931:.\Generated_Source\PSoC5/USBUART_1.c **** *  whenever you write code to change the state of the endpoints, such as ISR
 932:.\Generated_Source\PSoC5/USBUART_1.c **** *  code, to handle data sent or received.
 933:.\Generated_Source\PSoC5/USBUART_1.c **** *
 934:.\Generated_Source\PSoC5/USBUART_1.c **** *  Return Value           | Description
 935:.\Generated_Source\PSoC5/USBUART_1.c **** *  -----------------------|-----------------------------------------------------
 936:.\Generated_Source\PSoC5/USBUART_1.c **** *  USBFS_NO_EVENT_PENDING |The endpoint is awaiting SIE action
 937:.\Generated_Source\PSoC5/USBUART_1.c **** *  USBFS_EVENT_PENDING    |The endpoint is awaiting CPU action
 938:.\Generated_Source\PSoC5/USBUART_1.c **** *  USBFS_NO_EVENT_ALLOWED |The endpoint is locked from access
 939:.\Generated_Source\PSoC5/USBUART_1.c **** *  USBFS_IN_BUFFER_FULL   |The IN endpoint is loaded and the mode is set to ACK IN
 940:.\Generated_Source\PSoC5/USBUART_1.c **** *  USBFS_IN_BUFFER_EMPTY  |An IN transaction occurred and more data can be loaded
 941:.\Generated_Source\PSoC5/USBUART_1.c **** *  USBFS_OUT_BUFFER_EMPTY |The OUT endpoint is set to ACK OUT and is waiting for data
 942:.\Generated_Source\PSoC5/USBUART_1.c **** *  USBFS_OUT_BUFFER_FULL  |An OUT transaction has occurred and data can be read
 943:.\Generated_Source\PSoC5/USBUART_1.c **** *
 944:.\Generated_Source\PSoC5/USBUART_1.c **** *******************************************************************************/
 945:.\Generated_Source\PSoC5/USBUART_1.c **** uint8 USBUART_1_GetEPState(uint8 epNumber) 
 946:.\Generated_Source\PSoC5/USBUART_1.c **** {
 681              		.loc 1 946 0
 682              		.cfi_startproc
 683              		@ args = 0, pretend = 0, frame = 0
 684              		@ frame_needed = 0, uses_anonymous_args = 0
 685              		@ link register save eliminated.
 686              	.LVL38:
 947:.\Generated_Source\PSoC5/USBUART_1.c ****     return (USBUART_1_EP[epNumber].apiEpState);
 687              		.loc 1 947 0
 688 0000 00EB4000 		add	r0, r0, r0, lsl #1
 689              	.LVL39:
 690 0004 8000     		lsls	r0, r0, #2
 691 0006 024B     		ldr	r3, .L42
 692 0008 1844     		add	r0, r0, r3
 693 000a 4078     		ldrb	r0, [r0, #1]	@ zero_extendqisi2
 948:.\Generated_Source\PSoC5/USBUART_1.c **** }
 694              		.loc 1 948 0
 695 000c 7047     		bx	lr
 696              	.L43:
 697 000e 00BF     		.align	2
 698              	.L42:
 699 0010 00000000 		.word	USBUART_1_EP
ARM GAS  C:\Users\Thomas\AppData\Local\Temp\ccHSNeoG.s 			page 30


 700              		.cfi_endproc
 701              	.LFE9:
 702              		.size	USBUART_1_GetEPState, .-USBUART_1_GetEPState
 703              		.section	.text.USBUART_1_GetEPCount,"ax",%progbits
 704              		.align	2
 705              		.global	USBUART_1_GetEPCount
 706              		.thumb
 707              		.thumb_func
 708              		.type	USBUART_1_GetEPCount, %function
 709              	USBUART_1_GetEPCount:
 710              	.LFB10:
 949:.\Generated_Source\PSoC5/USBUART_1.c **** 
 950:.\Generated_Source\PSoC5/USBUART_1.c **** 
 951:.\Generated_Source\PSoC5/USBUART_1.c **** /*******************************************************************************
 952:.\Generated_Source\PSoC5/USBUART_1.c **** * Function Name: USBUART_1_GetEPCount
 953:.\Generated_Source\PSoC5/USBUART_1.c **** ****************************************************************************//**
 954:.\Generated_Source\PSoC5/USBUART_1.c **** *
 955:.\Generated_Source\PSoC5/USBUART_1.c **** *  This function supports Data Endpoints only(EP1-EP8).
 956:.\Generated_Source\PSoC5/USBUART_1.c **** *  Returns the transfer count for the requested endpoint.  The value from
 957:.\Generated_Source\PSoC5/USBUART_1.c **** *  the count registers includes 2 counts for the two byte checksum of the
 958:.\Generated_Source\PSoC5/USBUART_1.c **** *  packet.  This function subtracts the two counts.
 959:.\Generated_Source\PSoC5/USBUART_1.c **** *
 960:.\Generated_Source\PSoC5/USBUART_1.c **** *  \param epNumber Data Endpoint Number.
 961:.\Generated_Source\PSoC5/USBUART_1.c **** *                   Valid values are between 1 and 8.
 962:.\Generated_Source\PSoC5/USBUART_1.c **** *
 963:.\Generated_Source\PSoC5/USBUART_1.c **** * \return
 964:.\Generated_Source\PSoC5/USBUART_1.c **** *  Returns the current byte count from the specified endpoint or 0 for an
 965:.\Generated_Source\PSoC5/USBUART_1.c **** *  invalid endpoint.
 966:.\Generated_Source\PSoC5/USBUART_1.c **** *
 967:.\Generated_Source\PSoC5/USBUART_1.c **** *******************************************************************************/
 968:.\Generated_Source\PSoC5/USBUART_1.c **** uint16 USBUART_1_GetEPCount(uint8 epNumber) 
 969:.\Generated_Source\PSoC5/USBUART_1.c **** {
 711              		.loc 1 969 0
 712              		.cfi_startproc
 713              		@ args = 0, pretend = 0, frame = 0
 714              		@ frame_needed = 0, uses_anonymous_args = 0
 715              		@ link register save eliminated.
 716              	.LVL40:
 970:.\Generated_Source\PSoC5/USBUART_1.c ****     uint16 cntr = 0u;
 971:.\Generated_Source\PSoC5/USBUART_1.c **** 
 972:.\Generated_Source\PSoC5/USBUART_1.c ****     if ((epNumber > USBUART_1_EP0) && (epNumber < USBUART_1_MAX_EP))
 717              		.loc 1 972 0
 718 0000 431E     		subs	r3, r0, #1
 719 0002 DBB2     		uxtb	r3, r3
 720 0004 072B     		cmp	r3, #7
 721 0006 0BD8     		bhi	.L46
 973:.\Generated_Source\PSoC5/USBUART_1.c ****     {
 974:.\Generated_Source\PSoC5/USBUART_1.c ****         /* Get 11-bits EP counter where epCnt0 - 3 bits MSB and epCnt1 - 8 bits LSB. */
 975:.\Generated_Source\PSoC5/USBUART_1.c ****         cntr  = ((uint16) USBUART_1_SIE_EP_BASE.sieEp[epNumber].epCnt0) & USBUART_1_EPX_CNT0_MASK;
 722              		.loc 1 975 0
 723 0008 064B     		ldr	r3, .L47
 724 000a 0001     		lsls	r0, r0, #4
 725              	.LVL41:
 726 000c 1A18     		adds	r2, r3, r0
 727 000e 185C     		ldrb	r0, [r3, r0]	@ zero_extendqisi2
 728 0010 00F00F00 		and	r0, r0, #15
 729              	.LVL42:
ARM GAS  C:\Users\Thomas\AppData\Local\Temp\ccHSNeoG.s 			page 31


 976:.\Generated_Source\PSoC5/USBUART_1.c ****         cntr  = ((uint16) (cntr << 8u)) | ((uint16) USBUART_1_SIE_EP_BASE.sieEp[epNumber].epCnt1);
 730              		.loc 1 976 0
 731 0014 5378     		ldrb	r3, [r2, #1]	@ zero_extendqisi2
 732 0016 43EA0020 		orr	r0, r3, r0, lsl #8
 733              	.LVL43:
 977:.\Generated_Source\PSoC5/USBUART_1.c ****         cntr -= USBUART_1_EPX_CNTX_CRC_COUNT;
 734              		.loc 1 977 0
 735 001a 0238     		subs	r0, r0, #2
 736              	.LVL44:
 737 001c 80B2     		uxth	r0, r0
 738              	.LVL45:
 739 001e 7047     		bx	lr
 740              	.LVL46:
 741              	.L46:
 970:.\Generated_Source\PSoC5/USBUART_1.c **** 
 742              		.loc 1 970 0
 743 0020 0020     		movs	r0, #0
 744              	.LVL47:
 978:.\Generated_Source\PSoC5/USBUART_1.c ****     }
 979:.\Generated_Source\PSoC5/USBUART_1.c **** 
 980:.\Generated_Source\PSoC5/USBUART_1.c ****     return (cntr);
 981:.\Generated_Source\PSoC5/USBUART_1.c **** }
 745              		.loc 1 981 0
 746 0022 7047     		bx	lr
 747              	.L48:
 748              		.align	2
 749              	.L47:
 750 0024 FC5F0040 		.word	1073766396
 751              		.cfi_endproc
 752              	.LFE10:
 753              		.size	USBUART_1_GetEPCount, .-USBUART_1_GetEPCount
 754              		.section	.text.USBUART_1_LoadInEP,"ax",%progbits
 755              		.align	2
 756              		.global	USBUART_1_LoadInEP
 757              		.thumb
 758              		.thumb_func
 759              		.type	USBUART_1_LoadInEP, %function
 760              	USBUART_1_LoadInEP:
 761              	.LFB11:
 982:.\Generated_Source\PSoC5/USBUART_1.c **** 
 983:.\Generated_Source\PSoC5/USBUART_1.c **** 
 984:.\Generated_Source\PSoC5/USBUART_1.c **** #if (USBUART_1_EP_MANAGEMENT_DMA)
 985:.\Generated_Source\PSoC5/USBUART_1.c **** #if (CY_PSOC4)
 986:.\Generated_Source\PSoC5/USBUART_1.c ****     /*******************************************************************************
 987:.\Generated_Source\PSoC5/USBUART_1.c ****     * Function Name: USBUART_1_InitEpDma
 988:.\Generated_Source\PSoC5/USBUART_1.c ****     ****************************************************************************//**
 989:.\Generated_Source\PSoC5/USBUART_1.c ****     *
 990:.\Generated_Source\PSoC5/USBUART_1.c ****     *  This function configures priority for all DMA channels utilized by the
 991:.\Generated_Source\PSoC5/USBUART_1.c ****     *  component. Also sets callbacks for DMA auto mode.
 992:.\Generated_Source\PSoC5/USBUART_1.c ****     *
 993:.\Generated_Source\PSoC5/USBUART_1.c ****     *******************************************************************************/
 994:.\Generated_Source\PSoC5/USBUART_1.c ****     static void USBUART_1_InitEpDma(void)
 995:.\Generated_Source\PSoC5/USBUART_1.c ****     {
 996:.\Generated_Source\PSoC5/USBUART_1.c ****     #if (USBUART_1_DMA1_ACTIVE)
 997:.\Generated_Source\PSoC5/USBUART_1.c ****         CYDMA_CH_CTL_BASE.ctl[USBUART_1_ep1_dma_CHANNEL] = USBUART_1_ep1_dma_CHANNEL_CFG;
 998:.\Generated_Source\PSoC5/USBUART_1.c ****     #endif /* (USBUART_1_DMA1_ACTIVE) */
 999:.\Generated_Source\PSoC5/USBUART_1.c **** 
ARM GAS  C:\Users\Thomas\AppData\Local\Temp\ccHSNeoG.s 			page 32


1000:.\Generated_Source\PSoC5/USBUART_1.c ****     #if (USBUART_1_DMA2_ACTIVE)
1001:.\Generated_Source\PSoC5/USBUART_1.c ****         CYDMA_CH_CTL_BASE.ctl[USBUART_1_ep2_dma_CHANNEL] = USBUART_1_ep2_dma_CHANNEL_CFG;
1002:.\Generated_Source\PSoC5/USBUART_1.c ****     #endif /* (USBUART_1_DMA2_ACTIVE) */
1003:.\Generated_Source\PSoC5/USBUART_1.c **** 
1004:.\Generated_Source\PSoC5/USBUART_1.c ****     #if (USBUART_1_DMA3_ACTIVE)
1005:.\Generated_Source\PSoC5/USBUART_1.c ****         CYDMA_CH_CTL_BASE.ctl[USBUART_1_ep3_dma_CHANNEL] = USBUART_1_ep3_dma_CHANNEL_CFG;
1006:.\Generated_Source\PSoC5/USBUART_1.c ****     #endif /* (USBUART_1_DMA3_ACTIVE) */
1007:.\Generated_Source\PSoC5/USBUART_1.c **** 
1008:.\Generated_Source\PSoC5/USBUART_1.c ****     #if (USBUART_1_DMA4_ACTIVE)
1009:.\Generated_Source\PSoC5/USBUART_1.c ****         CYDMA_CH_CTL_BASE.ctl[USBUART_1_ep4_dma_CHANNEL] = USBUART_1_ep4_dma_CHANNEL_CFG;
1010:.\Generated_Source\PSoC5/USBUART_1.c ****     #endif /* (USBUART_1_DMA4_ACTIVE) */
1011:.\Generated_Source\PSoC5/USBUART_1.c **** 
1012:.\Generated_Source\PSoC5/USBUART_1.c ****     #if (USBUART_1_DMA5_ACTIVE)
1013:.\Generated_Source\PSoC5/USBUART_1.c ****         CYDMA_CH_CTL_BASE.ctl[USBUART_1_ep5_dma_CHANNEL] = USBUART_1_ep5_dma_CHANNEL_CFG;
1014:.\Generated_Source\PSoC5/USBUART_1.c ****     #endif /* (USBUART_1_DMA5_ACTIVE) */
1015:.\Generated_Source\PSoC5/USBUART_1.c **** 
1016:.\Generated_Source\PSoC5/USBUART_1.c ****     #if (USBUART_1_DMA6_ACTIVE)
1017:.\Generated_Source\PSoC5/USBUART_1.c ****         CYDMA_CH_CTL_BASE.ctl[USBUART_1_ep6_dma_CHANNEL] = USBUART_1_ep6_dma_CHANNEL_CFG;
1018:.\Generated_Source\PSoC5/USBUART_1.c ****     #endif /* (USBUART_1_DMA6_ACTIVE) */
1019:.\Generated_Source\PSoC5/USBUART_1.c **** 
1020:.\Generated_Source\PSoC5/USBUART_1.c ****     #if (USBUART_1_DMA7_ACTIVE)
1021:.\Generated_Source\PSoC5/USBUART_1.c ****         CYDMA_CH_CTL_BASE.ctl[USBUART_1_ep7_dma_CHANNEL] = USBUART_1_ep7_dma_CHANNEL_CFG;
1022:.\Generated_Source\PSoC5/USBUART_1.c ****     #endif /* (USBUART_1_DMA7_ACTIVE) */
1023:.\Generated_Source\PSoC5/USBUART_1.c **** 
1024:.\Generated_Source\PSoC5/USBUART_1.c ****     #if (USBUART_1_DMA8_ACTIVE)
1025:.\Generated_Source\PSoC5/USBUART_1.c ****         CYDMA_CH_CTL_BASE.ctl[USBUART_1_ep8_dma_CHANNEL] = USBUART_1_ep8_dma_CHANNEL_CFG;
1026:.\Generated_Source\PSoC5/USBUART_1.c ****     #endif /* (USBUART_1_DMA8_ACTIVE) */
1027:.\Generated_Source\PSoC5/USBUART_1.c **** 
1028:.\Generated_Source\PSoC5/USBUART_1.c ****     #if (USBUART_1_EP_MANAGEMENT_DMA_AUTO)
1029:.\Generated_Source\PSoC5/USBUART_1.c ****         /* Initialize DMA channel callbacks. */
1030:.\Generated_Source\PSoC5/USBUART_1.c ****         #if (USBUART_1_DMA1_ACTIVE)
1031:.\Generated_Source\PSoC5/USBUART_1.c ****             (void) USBUART_1_ep1_dma_SetInterruptCallback(&USBUART_1_EP1_DMA_DONE_ISR);
1032:.\Generated_Source\PSoC5/USBUART_1.c ****         #endif /* (USBUART_1_DMA1_ACTIVE) */
1033:.\Generated_Source\PSoC5/USBUART_1.c **** 
1034:.\Generated_Source\PSoC5/USBUART_1.c ****         #if (USBUART_1_DMA2_ACTIVE)
1035:.\Generated_Source\PSoC5/USBUART_1.c ****             (void) USBUART_1_ep2_dma_SetInterruptCallback(&USBUART_1_EP2_DMA_DONE_ISR);
1036:.\Generated_Source\PSoC5/USBUART_1.c ****         #endif /* (USBUART_1_DMA2_ACTIVE) */
1037:.\Generated_Source\PSoC5/USBUART_1.c **** 
1038:.\Generated_Source\PSoC5/USBUART_1.c ****         #if (USBUART_1_DMA3_ACTIVE)
1039:.\Generated_Source\PSoC5/USBUART_1.c ****             (void) USBUART_1_ep3_dma_SetInterruptCallback(&USBUART_1_EP3_DMA_DONE_ISR);
1040:.\Generated_Source\PSoC5/USBUART_1.c ****         #endif /* (USBUART_1_DMA3_ACTIVE) */
1041:.\Generated_Source\PSoC5/USBUART_1.c **** 
1042:.\Generated_Source\PSoC5/USBUART_1.c ****         #if (USBUART_1_DMA4_ACTIVE)
1043:.\Generated_Source\PSoC5/USBUART_1.c ****             (void) USBUART_1_ep4_dma_SetInterruptCallback(&USBUART_1_EP4_DMA_DONE_ISR);
1044:.\Generated_Source\PSoC5/USBUART_1.c ****         #endif /* (USBUART_1_DMA4_ACTIVE) */
1045:.\Generated_Source\PSoC5/USBUART_1.c **** 
1046:.\Generated_Source\PSoC5/USBUART_1.c ****         #if (USBUART_1_DMA5_ACTIVE)
1047:.\Generated_Source\PSoC5/USBUART_1.c ****             (void) USBUART_1_ep5_dma_SetInterruptCallback(&USBUART_1_EP5_DMA_DONE_ISR);
1048:.\Generated_Source\PSoC5/USBUART_1.c ****         #endif /* (USBUART_1_DMA5_ACTIVE) */
1049:.\Generated_Source\PSoC5/USBUART_1.c **** 
1050:.\Generated_Source\PSoC5/USBUART_1.c ****         #if (USBUART_1_DMA6_ACTIVE)
1051:.\Generated_Source\PSoC5/USBUART_1.c ****             (void) USBUART_1_ep6_dma_SetInterruptCallback(&USBUART_1_EP6_DMA_DONE_ISR);
1052:.\Generated_Source\PSoC5/USBUART_1.c ****         #endif /* (USBUART_1_DMA6_ACTIVE) */
1053:.\Generated_Source\PSoC5/USBUART_1.c **** 
1054:.\Generated_Source\PSoC5/USBUART_1.c ****         #if (USBUART_1_DMA7_ACTIVE)
1055:.\Generated_Source\PSoC5/USBUART_1.c ****             (void) USBUART_1_ep7_dma_SetInterruptCallback(&USBUART_1_EP7_DMA_DONE_ISR);
1056:.\Generated_Source\PSoC5/USBUART_1.c ****         #endif /* (USBUART_1_DMA7_ACTIVE) */
ARM GAS  C:\Users\Thomas\AppData\Local\Temp\ccHSNeoG.s 			page 33


1057:.\Generated_Source\PSoC5/USBUART_1.c **** 
1058:.\Generated_Source\PSoC5/USBUART_1.c ****         #if (USBUART_1_DMA8_ACTIVE)
1059:.\Generated_Source\PSoC5/USBUART_1.c ****             (void) USBUART_1_ep8_dma_SetInterruptCallback(&USBUART_1_EP8_DMA_DONE_ISR);
1060:.\Generated_Source\PSoC5/USBUART_1.c ****         #endif /* (USBUART_1_DMA8_ACTIVE) */
1061:.\Generated_Source\PSoC5/USBUART_1.c ****     #endif /* (USBUART_1_EP_MANAGEMENT_DMA_AUTO) */
1062:.\Generated_Source\PSoC5/USBUART_1.c ****     }
1063:.\Generated_Source\PSoC5/USBUART_1.c **** #else
1064:.\Generated_Source\PSoC5/USBUART_1.c **** 
1065:.\Generated_Source\PSoC5/USBUART_1.c **** 
1066:.\Generated_Source\PSoC5/USBUART_1.c ****     /***************************************************************************
1067:.\Generated_Source\PSoC5/USBUART_1.c ****     * Function Name: USBUART_1_InitEP_DMA
1068:.\Generated_Source\PSoC5/USBUART_1.c ****     ************************************************************************//**
1069:.\Generated_Source\PSoC5/USBUART_1.c ****     *
1070:.\Generated_Source\PSoC5/USBUART_1.c ****     *  This function allocates and initializes a DMA channel to be used by the
1071:.\Generated_Source\PSoC5/USBUART_1.c ****     *  USBUART_1_LoadInEP() or USBUART_1_ReadOutEP() APIs for data
1072:.\Generated_Source\PSoC5/USBUART_1.c ****     *  transfer. It is available when the Endpoint Memory Management parameter
1073:.\Generated_Source\PSoC5/USBUART_1.c ****     *  is set to DMA.
1074:.\Generated_Source\PSoC5/USBUART_1.c ****     *
1075:.\Generated_Source\PSoC5/USBUART_1.c ****     *  This function is automatically called from the USBFS_LoadInEP() and USBFS_ReadOutEP() APIs.
1076:.\Generated_Source\PSoC5/USBUART_1.c ****     *
1077:.\Generated_Source\PSoC5/USBUART_1.c ****     *  \param epNumber Contains the data endpoint number.
1078:.\Generated_Source\PSoC5/USBUART_1.c ****     *            Valid values are between 1 and 8.
1079:.\Generated_Source\PSoC5/USBUART_1.c ****     *  \param *pData Pointer to a data array that is related to the EP transfers.
1080:.\Generated_Source\PSoC5/USBUART_1.c ****     *
1081:.\Generated_Source\PSoC5/USBUART_1.c ****     * \reentrant No.
1082:.\Generated_Source\PSoC5/USBUART_1.c ****     *
1083:.\Generated_Source\PSoC5/USBUART_1.c ****     ***************************************************************************/
1084:.\Generated_Source\PSoC5/USBUART_1.c ****     void USBUART_1_InitEP_DMA(uint8 epNumber, const uint8 *pData)
1085:.\Generated_Source\PSoC5/USBUART_1.c ****                                                                     
1086:.\Generated_Source\PSoC5/USBUART_1.c ****     {
1087:.\Generated_Source\PSoC5/USBUART_1.c ****         uint16 src;
1088:.\Generated_Source\PSoC5/USBUART_1.c ****         uint16 dst;
1089:.\Generated_Source\PSoC5/USBUART_1.c **** 
1090:.\Generated_Source\PSoC5/USBUART_1.c ****     #if (CY_PSOC3)
1091:.\Generated_Source\PSoC5/USBUART_1.c ****         src = HI16(CYDEV_SRAM_BASE);
1092:.\Generated_Source\PSoC5/USBUART_1.c ****         dst = HI16(CYDEV_PERIPH_BASE);
1093:.\Generated_Source\PSoC5/USBUART_1.c ****         pData = pData;
1094:.\Generated_Source\PSoC5/USBUART_1.c ****     #else
1095:.\Generated_Source\PSoC5/USBUART_1.c ****         if ((USBUART_1_EP[epNumber].addr & USBUART_1_DIR_IN) != 0u)
1096:.\Generated_Source\PSoC5/USBUART_1.c ****         {
1097:.\Generated_Source\PSoC5/USBUART_1.c ****             /* IN endpoint: source is memory buffer. */
1098:.\Generated_Source\PSoC5/USBUART_1.c ****             src = HI16(pData);
1099:.\Generated_Source\PSoC5/USBUART_1.c ****             dst = HI16(CYDEV_PERIPH_BASE);
1100:.\Generated_Source\PSoC5/USBUART_1.c ****         }
1101:.\Generated_Source\PSoC5/USBUART_1.c ****         else
1102:.\Generated_Source\PSoC5/USBUART_1.c ****         {
1103:.\Generated_Source\PSoC5/USBUART_1.c ****             /* OUT endpoint: source is USB IP memory buffer. */
1104:.\Generated_Source\PSoC5/USBUART_1.c ****             src = HI16(CYDEV_PERIPH_BASE);
1105:.\Generated_Source\PSoC5/USBUART_1.c ****             dst = HI16(pData);
1106:.\Generated_Source\PSoC5/USBUART_1.c ****         }
1107:.\Generated_Source\PSoC5/USBUART_1.c ****     #endif  /* (CY_PSOC3) */
1108:.\Generated_Source\PSoC5/USBUART_1.c **** 
1109:.\Generated_Source\PSoC5/USBUART_1.c ****         switch(epNumber)
1110:.\Generated_Source\PSoC5/USBUART_1.c ****         {
1111:.\Generated_Source\PSoC5/USBUART_1.c ****     #if (USBUART_1_DMA1_ACTIVE)
1112:.\Generated_Source\PSoC5/USBUART_1.c ****         case USBUART_1_EP1:
1113:.\Generated_Source\PSoC5/USBUART_1.c ****             USBUART_1_DmaChan[epNumber] = USBUART_1_ep1_DmaInitialize(USBUART_1_DMA_BYTES_PER_BURST
ARM GAS  C:\Users\Thomas\AppData\Local\Temp\ccHSNeoG.s 			page 34


1114:.\Generated_Source\PSoC5/USBUART_1.c ****                                                                                     USBUART_1_DMA_R
1115:.\Generated_Source\PSoC5/USBUART_1.c ****             break;
1116:.\Generated_Source\PSoC5/USBUART_1.c ****     #endif /* (USBUART_1_DMA1_ACTIVE) */
1117:.\Generated_Source\PSoC5/USBUART_1.c **** 
1118:.\Generated_Source\PSoC5/USBUART_1.c ****     #if (USBUART_1_DMA2_ACTIVE)
1119:.\Generated_Source\PSoC5/USBUART_1.c ****         case USBUART_1_EP2:
1120:.\Generated_Source\PSoC5/USBUART_1.c ****             USBUART_1_DmaChan[epNumber] = USBUART_1_ep2_DmaInitialize(USBUART_1_DMA_BYTES_PER_BURST
1121:.\Generated_Source\PSoC5/USBUART_1.c ****                                                                                     USBUART_1_DMA_R
1122:.\Generated_Source\PSoC5/USBUART_1.c ****             break;
1123:.\Generated_Source\PSoC5/USBUART_1.c ****     #endif /* (USBUART_1_DMA2_ACTIVE) */
1124:.\Generated_Source\PSoC5/USBUART_1.c **** 
1125:.\Generated_Source\PSoC5/USBUART_1.c ****     #if (USBUART_1_DMA3_ACTIVE)
1126:.\Generated_Source\PSoC5/USBUART_1.c ****             case USBUART_1_EP3:
1127:.\Generated_Source\PSoC5/USBUART_1.c ****                 USBUART_1_DmaChan[epNumber] = USBUART_1_ep3_DmaInitialize(USBUART_1_DMA_BYTES_PER_B
1128:.\Generated_Source\PSoC5/USBUART_1.c ****                                                                                         USBUART_1_D
1129:.\Generated_Source\PSoC5/USBUART_1.c ****             break;
1130:.\Generated_Source\PSoC5/USBUART_1.c ****     #endif /* (USBUART_1_DMA3_ACTIVE) */
1131:.\Generated_Source\PSoC5/USBUART_1.c **** 
1132:.\Generated_Source\PSoC5/USBUART_1.c ****     #if (USBUART_1_DMA4_ACTIVE)
1133:.\Generated_Source\PSoC5/USBUART_1.c ****             case USBUART_1_EP4:
1134:.\Generated_Source\PSoC5/USBUART_1.c ****                 USBUART_1_DmaChan[epNumber] = USBUART_1_ep4_DmaInitialize(USBUART_1_DMA_BYTES_PER_B
1135:.\Generated_Source\PSoC5/USBUART_1.c ****                                                                                         USBUART_1_D
1136:.\Generated_Source\PSoC5/USBUART_1.c ****             break;
1137:.\Generated_Source\PSoC5/USBUART_1.c ****     #endif /* (USBUART_1_DMA4_ACTIVE) */
1138:.\Generated_Source\PSoC5/USBUART_1.c **** 
1139:.\Generated_Source\PSoC5/USBUART_1.c ****     #if (USBUART_1_DMA5_ACTIVE)
1140:.\Generated_Source\PSoC5/USBUART_1.c ****             case USBUART_1_EP5:
1141:.\Generated_Source\PSoC5/USBUART_1.c ****                 USBUART_1_DmaChan[epNumber] = USBUART_1_ep5_DmaInitialize(USBUART_1_DMA_BYTES_PER_B
1142:.\Generated_Source\PSoC5/USBUART_1.c ****                                                                                         USBUART_1_D
1143:.\Generated_Source\PSoC5/USBUART_1.c ****             break;
1144:.\Generated_Source\PSoC5/USBUART_1.c ****     #endif /* (USBUART_1_DMA5_ACTIVE) */
1145:.\Generated_Source\PSoC5/USBUART_1.c **** 
1146:.\Generated_Source\PSoC5/USBUART_1.c ****     #if (USBUART_1_DMA6_ACTIVE)
1147:.\Generated_Source\PSoC5/USBUART_1.c ****         case USBUART_1_EP6:
1148:.\Generated_Source\PSoC5/USBUART_1.c ****             USBUART_1_DmaChan[epNumber] = USBUART_1_ep6_DmaInitialize(USBUART_1_DMA_BYTES_PER_BURST
1149:.\Generated_Source\PSoC5/USBUART_1.c ****                                                                                     USBUART_1_DMA_R
1150:.\Generated_Source\PSoC5/USBUART_1.c ****             break;
1151:.\Generated_Source\PSoC5/USBUART_1.c ****     #endif /* (USBUART_1_DMA6_ACTIVE) */
1152:.\Generated_Source\PSoC5/USBUART_1.c **** 
1153:.\Generated_Source\PSoC5/USBUART_1.c ****     #if (USBUART_1_DMA7_ACTIVE)
1154:.\Generated_Source\PSoC5/USBUART_1.c ****         case USBUART_1_EP7:
1155:.\Generated_Source\PSoC5/USBUART_1.c ****                 USBUART_1_DmaChan[epNumber] = USBUART_1_ep7_DmaInitialize(USBUART_1_DMA_BYTES_PER_B
1156:.\Generated_Source\PSoC5/USBUART_1.c ****                                                                                         USBUART_1_D
1157:.\Generated_Source\PSoC5/USBUART_1.c ****             break;
1158:.\Generated_Source\PSoC5/USBUART_1.c ****     #endif /* (USBUART_1_DMA7_ACTIVE) */
1159:.\Generated_Source\PSoC5/USBUART_1.c **** 
1160:.\Generated_Source\PSoC5/USBUART_1.c ****     #if (USBUART_1_DMA8_ACTIVE)
1161:.\Generated_Source\PSoC5/USBUART_1.c ****         case USBUART_1_EP8:
1162:.\Generated_Source\PSoC5/USBUART_1.c ****                 USBUART_1_DmaChan[epNumber] = USBUART_1_ep8_DmaInitialize(USBUART_1_DMA_BYTES_PER_B
1163:.\Generated_Source\PSoC5/USBUART_1.c ****                                                                                         USBUART_1_D
1164:.\Generated_Source\PSoC5/USBUART_1.c ****             break;
1165:.\Generated_Source\PSoC5/USBUART_1.c ****     #endif /* (USBUART_1_DMA8_ACTIVE) */
1166:.\Generated_Source\PSoC5/USBUART_1.c **** 
1167:.\Generated_Source\PSoC5/USBUART_1.c ****         default:
1168:.\Generated_Source\PSoC5/USBUART_1.c ****             /* Do nothing for endpoints other than 1-8. */
1169:.\Generated_Source\PSoC5/USBUART_1.c ****             break;
1170:.\Generated_Source\PSoC5/USBUART_1.c ****         }
ARM GAS  C:\Users\Thomas\AppData\Local\Temp\ccHSNeoG.s 			page 35


1171:.\Generated_Source\PSoC5/USBUART_1.c **** 
1172:.\Generated_Source\PSoC5/USBUART_1.c ****         if ((epNumber > USBUART_1_EP0) && (epNumber < USBUART_1_MAX_EP))
1173:.\Generated_Source\PSoC5/USBUART_1.c ****         {
1174:.\Generated_Source\PSoC5/USBUART_1.c ****             USBUART_1_DmaTd[epNumber] = CyDmaTdAllocate();
1175:.\Generated_Source\PSoC5/USBUART_1.c **** 
1176:.\Generated_Source\PSoC5/USBUART_1.c ****         #if (USBUART_1_EP_MANAGEMENT_DMA_AUTO && (USBUART_1_EP_DMA_AUTO_OPT == 0u))
1177:.\Generated_Source\PSoC5/USBUART_1.c ****             USBUART_1_DmaNextTd[epNumber] = CyDmaTdAllocate();
1178:.\Generated_Source\PSoC5/USBUART_1.c ****         #endif /* (USBUART_1_EP_MANAGEMENT_DMA_AUTO && (USBUART_1_EP_DMA_AUTO_OPT == 0u)) */
1179:.\Generated_Source\PSoC5/USBUART_1.c ****         }
1180:.\Generated_Source\PSoC5/USBUART_1.c ****     }
1181:.\Generated_Source\PSoC5/USBUART_1.c **** #endif /* (CY_PSOC4) */
1182:.\Generated_Source\PSoC5/USBUART_1.c **** 
1183:.\Generated_Source\PSoC5/USBUART_1.c ****     /***************************************************************************
1184:.\Generated_Source\PSoC5/USBUART_1.c ****     * Function Name: USBUART_1_Stop_DMA
1185:.\Generated_Source\PSoC5/USBUART_1.c ****     ************************************************************************//**
1186:.\Generated_Source\PSoC5/USBUART_1.c ****     *  
1187:.\Generated_Source\PSoC5/USBUART_1.c ****     *  This function stops DMA channel associated with endpoint. It is available 
1188:.\Generated_Source\PSoC5/USBUART_1.c ****     *  when the Endpoint Buffer Management parameter is set to DMA. Call this 
1189:.\Generated_Source\PSoC5/USBUART_1.c ****     *  function when endpoint direction is changed from IN to OUT or vice versa 
1190:.\Generated_Source\PSoC5/USBUART_1.c ****     *  to trigger DMA re-configuration when USBUART_1_LoadInEP() or 
1191:.\Generated_Source\PSoC5/USBUART_1.c ****     *  USBUART_1_ReadOutEP() functions are called the first time. 
1192:.\Generated_Source\PSoC5/USBUART_1.c ****     *  
1193:.\Generated_Source\PSoC5/USBUART_1.c ****     *  \param epNumber: The data endpoint number for which associated DMA 
1194:.\Generated_Source\PSoC5/USBUART_1.c ****     *  channel is stopped. The range of valid values is between 1 and 8. To stop 
1195:.\Generated_Source\PSoC5/USBUART_1.c ****     *  all DMAs associated with endpoints call this function with 
1196:.\Generated_Source\PSoC5/USBUART_1.c ****     *  USBUART_1_MAX_EP argument.
1197:.\Generated_Source\PSoC5/USBUART_1.c ****     *
1198:.\Generated_Source\PSoC5/USBUART_1.c ****     * \reentrant
1199:.\Generated_Source\PSoC5/USBUART_1.c ****     *  No.
1200:.\Generated_Source\PSoC5/USBUART_1.c ****     *
1201:.\Generated_Source\PSoC5/USBUART_1.c ****     ***************************************************************************/
1202:.\Generated_Source\PSoC5/USBUART_1.c ****     void USBUART_1_Stop_DMA(uint8 epNumber) 
1203:.\Generated_Source\PSoC5/USBUART_1.c ****     {
1204:.\Generated_Source\PSoC5/USBUART_1.c ****         uint8 i;
1205:.\Generated_Source\PSoC5/USBUART_1.c **** 
1206:.\Generated_Source\PSoC5/USBUART_1.c ****         i = (epNumber < USBUART_1_MAX_EP) ? epNumber : USBUART_1_EP1;
1207:.\Generated_Source\PSoC5/USBUART_1.c **** 
1208:.\Generated_Source\PSoC5/USBUART_1.c ****         do
1209:.\Generated_Source\PSoC5/USBUART_1.c ****         {
1210:.\Generated_Source\PSoC5/USBUART_1.c ****         #if (CY_PSOC4)
1211:.\Generated_Source\PSoC5/USBUART_1.c ****             if (0u != USBUART_1_DmaChan[i])
1212:.\Generated_Source\PSoC5/USBUART_1.c ****             {
1213:.\Generated_Source\PSoC5/USBUART_1.c ****                 USBUART_1_CyDmaChDisable(USBUART_1_DmaChan[i]);
1214:.\Generated_Source\PSoC5/USBUART_1.c ****             }
1215:.\Generated_Source\PSoC5/USBUART_1.c ****         #else
1216:.\Generated_Source\PSoC5/USBUART_1.c ****             if(USBUART_1_DmaTd[i] != DMA_INVALID_TD)
1217:.\Generated_Source\PSoC5/USBUART_1.c ****             {
1218:.\Generated_Source\PSoC5/USBUART_1.c ****                 (void) CyDmaChDisable(USBUART_1_DmaChan[i]);
1219:.\Generated_Source\PSoC5/USBUART_1.c ****                 CyDmaTdFree(USBUART_1_DmaTd[i]);
1220:.\Generated_Source\PSoC5/USBUART_1.c ****                 USBUART_1_DmaTd[i] = DMA_INVALID_TD;
1221:.\Generated_Source\PSoC5/USBUART_1.c ****             }
1222:.\Generated_Source\PSoC5/USBUART_1.c **** 
1223:.\Generated_Source\PSoC5/USBUART_1.c ****             #if (USBUART_1_EP_MANAGEMENT_DMA_AUTO && (USBUART_1_EP_DMA_AUTO_OPT == 0u))
1224:.\Generated_Source\PSoC5/USBUART_1.c ****                 if(USBUART_1_DmaNextTd[i] != DMA_INVALID_TD)
1225:.\Generated_Source\PSoC5/USBUART_1.c ****                 {
1226:.\Generated_Source\PSoC5/USBUART_1.c ****                     CyDmaTdFree(USBUART_1_DmaNextTd[i]);
1227:.\Generated_Source\PSoC5/USBUART_1.c ****                     USBUART_1_DmaNextTd[i] = DMA_INVALID_TD;
ARM GAS  C:\Users\Thomas\AppData\Local\Temp\ccHSNeoG.s 			page 36


1228:.\Generated_Source\PSoC5/USBUART_1.c ****                 }
1229:.\Generated_Source\PSoC5/USBUART_1.c ****             #endif /* (USBUART_1_EP_MANAGEMENT_DMA_AUTO && (USBUART_1_EP_DMA_AUTO_OPT == 0u)) */
1230:.\Generated_Source\PSoC5/USBUART_1.c **** 
1231:.\Generated_Source\PSoC5/USBUART_1.c ****         #endif /* (CY_PSOC4) */
1232:.\Generated_Source\PSoC5/USBUART_1.c ****             i++;
1233:.\Generated_Source\PSoC5/USBUART_1.c ****         }
1234:.\Generated_Source\PSoC5/USBUART_1.c ****         while ((i < USBUART_1_MAX_EP) && (epNumber == USBUART_1_MAX_EP));
1235:.\Generated_Source\PSoC5/USBUART_1.c ****     }
1236:.\Generated_Source\PSoC5/USBUART_1.c **** #endif /* (USBUART_1_EP_MANAGEMENT_DMA) */
1237:.\Generated_Source\PSoC5/USBUART_1.c **** 
1238:.\Generated_Source\PSoC5/USBUART_1.c **** 
1239:.\Generated_Source\PSoC5/USBUART_1.c **** #if (CY_PSOC3 || CY_PSOC5)
1240:.\Generated_Source\PSoC5/USBUART_1.c **** #if (USBUART_1_EP_MANAGEMENT_DMA_AUTO && (USBUART_1_EP_DMA_AUTO_OPT == 0u))
1241:.\Generated_Source\PSoC5/USBUART_1.c ****     /***************************************************************************
1242:.\Generated_Source\PSoC5/USBUART_1.c ****     * Function Name: USBUART_1_LoadNextInEP
1243:.\Generated_Source\PSoC5/USBUART_1.c ****     ************************************************************************//**
1244:.\Generated_Source\PSoC5/USBUART_1.c ****     *
1245:.\Generated_Source\PSoC5/USBUART_1.c ****     * Summary:
1246:.\Generated_Source\PSoC5/USBUART_1.c ****     *  This internal function is used for IN endpoint DMA reconfiguration in
1247:.\Generated_Source\PSoC5/USBUART_1.c ****     *  Auto DMA mode.
1248:.\Generated_Source\PSoC5/USBUART_1.c ****     *
1249:.\Generated_Source\PSoC5/USBUART_1.c ****     * Parameters:
1250:.\Generated_Source\PSoC5/USBUART_1.c ****     *  epNumber: Contains the data endpoint number.
1251:.\Generated_Source\PSoC5/USBUART_1.c ****     *  mode:   0 - Configure DMA to send the the rest of data.
1252:.\Generated_Source\PSoC5/USBUART_1.c ****     *          1 - Configure DMA to repeat 2 last bytes of the first burst.
1253:.\Generated_Source\PSoC5/USBUART_1.c ****     *
1254:.\Generated_Source\PSoC5/USBUART_1.c ****     ***************************************************************************/
1255:.\Generated_Source\PSoC5/USBUART_1.c ****     void USBUART_1_LoadNextInEP(uint8 epNumber, uint8 mode) 
1256:.\Generated_Source\PSoC5/USBUART_1.c ****     {
1257:.\Generated_Source\PSoC5/USBUART_1.c ****         reg16 *convert;
1258:.\Generated_Source\PSoC5/USBUART_1.c **** 
1259:.\Generated_Source\PSoC5/USBUART_1.c ****         if (mode == 0u)
1260:.\Generated_Source\PSoC5/USBUART_1.c ****         {
1261:.\Generated_Source\PSoC5/USBUART_1.c ****             /* Configure DMA to send rest of data. */
1262:.\Generated_Source\PSoC5/USBUART_1.c ****             /* CyDmaTdSetConfiguration API is optimized to change transfer length only and configur
1263:.\Generated_Source\PSoC5/USBUART_1.c ****             convert = (reg16 *) &CY_DMA_TDMEM_STRUCT_PTR[USBUART_1_DmaTd[epNumber]].TD0[0u];
1264:.\Generated_Source\PSoC5/USBUART_1.c ****             /* Set transfer length. */
1265:.\Generated_Source\PSoC5/USBUART_1.c ****             CY_SET_REG16(convert, USBUART_1_inLength[epNumber] - USBUART_1_DMA_BYTES_PER_BURST);
1266:.\Generated_Source\PSoC5/USBUART_1.c ****             /* CyDmaTdSetAddress API is optimized to change source address only. */
1267:.\Generated_Source\PSoC5/USBUART_1.c ****             convert = (reg16 *) &CY_DMA_TDMEM_STRUCT_PTR[USBUART_1_DmaTd[epNumber]].TD1[0u];
1268:.\Generated_Source\PSoC5/USBUART_1.c ****             CY_SET_REG16(convert, LO16((uint32)USBUART_1_inDataPointer[epNumber] +
1269:.\Generated_Source\PSoC5/USBUART_1.c ****                                             USBUART_1_DMA_BYTES_PER_BURST));
1270:.\Generated_Source\PSoC5/USBUART_1.c ****             USBUART_1_inBufFull[epNumber] = 1u;
1271:.\Generated_Source\PSoC5/USBUART_1.c ****         }
1272:.\Generated_Source\PSoC5/USBUART_1.c ****         else
1273:.\Generated_Source\PSoC5/USBUART_1.c ****         {
1274:.\Generated_Source\PSoC5/USBUART_1.c ****             /* Configure DMA to repeat 2 last bytes of the first burst. */
1275:.\Generated_Source\PSoC5/USBUART_1.c ****             /* CyDmaTdSetConfiguration API is optimized to change transfer length only and configur
1276:.\Generated_Source\PSoC5/USBUART_1.c ****             convert = (reg16 *) &CY_DMA_TDMEM_STRUCT_PTR[USBUART_1_DmaTd[epNumber]].TD0[0u];
1277:.\Generated_Source\PSoC5/USBUART_1.c ****             /* Set transfer length. */
1278:.\Generated_Source\PSoC5/USBUART_1.c ****             CY_SET_REG16(convert, USBUART_1_DMA_BYTES_REPEAT);
1279:.\Generated_Source\PSoC5/USBUART_1.c ****             /* CyDmaTdSetAddress API is optimized to change source address only. */
1280:.\Generated_Source\PSoC5/USBUART_1.c ****             convert = (reg16 *) &CY_DMA_TDMEM_STRUCT_PTR[USBUART_1_DmaTd[epNumber]].TD1[0u];
1281:.\Generated_Source\PSoC5/USBUART_1.c ****             CY_SET_REG16(convert,  LO16((uint32)USBUART_1_inDataPointer[epNumber] +
1282:.\Generated_Source\PSoC5/USBUART_1.c ****                                    (USBUART_1_DMA_BYTES_PER_BURST - USBUART_1_DMA_BYTES_REPEAT)));
1283:.\Generated_Source\PSoC5/USBUART_1.c ****         }
1284:.\Generated_Source\PSoC5/USBUART_1.c **** 
ARM GAS  C:\Users\Thomas\AppData\Local\Temp\ccHSNeoG.s 			page 37


1285:.\Generated_Source\PSoC5/USBUART_1.c ****         /* CyDmaChSetInitialTd API is optimized to initialize TD. */
1286:.\Generated_Source\PSoC5/USBUART_1.c ****         CY_DMA_CH_STRUCT_PTR[USBUART_1_DmaChan[epNumber]].basic_status[1u] = USBUART_1_DmaTd[epNumb
1287:.\Generated_Source\PSoC5/USBUART_1.c ****     }
1288:.\Generated_Source\PSoC5/USBUART_1.c **** #endif /* (USBUART_1_EP_MANAGEMENT_DMA_AUTO && (USBUART_1_EP_DMA_AUTO_OPT == 0u)) */
1289:.\Generated_Source\PSoC5/USBUART_1.c **** #endif /* (CY_PSOC3 || CY_PSOC5) */
1290:.\Generated_Source\PSoC5/USBUART_1.c **** 
1291:.\Generated_Source\PSoC5/USBUART_1.c **** 
1292:.\Generated_Source\PSoC5/USBUART_1.c **** /*******************************************************************************
1293:.\Generated_Source\PSoC5/USBUART_1.c **** * Function Name: USBUART_1_LoadInEP
1294:.\Generated_Source\PSoC5/USBUART_1.c **** ****************************************************************************//**
1295:.\Generated_Source\PSoC5/USBUART_1.c **** *
1296:.\Generated_Source\PSoC5/USBUART_1.c **** *  This function performs different functionality depending on the Component’s
1297:.\Generated_Source\PSoC5/USBUART_1.c **** *  configured Endpoint Buffer Management. This parameter is defined in
1298:.\Generated_Source\PSoC5/USBUART_1.c **** *  the Descriptor Root in Component Configure window.
1299:.\Generated_Source\PSoC5/USBUART_1.c **** *
1300:.\Generated_Source\PSoC5/USBUART_1.c **** *  *Manual (Static/Dynamic Allocation):*
1301:.\Generated_Source\PSoC5/USBUART_1.c **** *  This function loads and enables the specified USB data endpoint for an IN
1302:.\Generated_Source\PSoC5/USBUART_1.c **** *  data transfer.
1303:.\Generated_Source\PSoC5/USBUART_1.c **** *
1304:.\Generated_Source\PSoC5/USBUART_1.c **** *  *DMA with Manual Buffer Management:*
1305:.\Generated_Source\PSoC5/USBUART_1.c **** *  Configures DMA for a data transfer from system RAM to endpoint buffer.
1306:.\Generated_Source\PSoC5/USBUART_1.c **** *  Generates request for a transfer.
1307:.\Generated_Source\PSoC5/USBUART_1.c **** *
1308:.\Generated_Source\PSoC5/USBUART_1.c **** *  *DMA with Automatic Buffer Management:*
1309:.\Generated_Source\PSoC5/USBUART_1.c **** *  Configures DMA. This is required only once, so it is done only when parameter
1310:.\Generated_Source\PSoC5/USBUART_1.c **** *  pData is not NULL. When the pData pointer is NULL, the function skips this
1311:.\Generated_Source\PSoC5/USBUART_1.c **** *  task. Sets Data ready status: This generates the first DMA transfer and
1312:.\Generated_Source\PSoC5/USBUART_1.c **** *  prepares data in endpoint buffer.
1313:.\Generated_Source\PSoC5/USBUART_1.c **** *
1314:.\Generated_Source\PSoC5/USBUART_1.c **** *  \param epNumber Contains the data endpoint number.
1315:.\Generated_Source\PSoC5/USBUART_1.c **** *            Valid values are between 1 and 8.
1316:.\Generated_Source\PSoC5/USBUART_1.c **** *  \param *pData A pointer to a data array from which the data for the endpoint space
1317:.\Generated_Source\PSoC5/USBUART_1.c **** *          is loaded.
1318:.\Generated_Source\PSoC5/USBUART_1.c **** *  \param length The number of bytes to transfer from the array and then send as
1319:.\Generated_Source\PSoC5/USBUART_1.c **** *          a result of an IN request. Valid values are between 0 and 512
1320:.\Generated_Source\PSoC5/USBUART_1.c **** *          (1023 for DMA with Automatic Buffer Management mode). The value 512
1321:.\Generated_Source\PSoC5/USBUART_1.c **** *          is applicable if only one endpoint is used.
1322:.\Generated_Source\PSoC5/USBUART_1.c **** *
1323:.\Generated_Source\PSoC5/USBUART_1.c **** *
1324:.\Generated_Source\PSoC5/USBUART_1.c **** * \reentrant
1325:.\Generated_Source\PSoC5/USBUART_1.c **** *  No.
1326:.\Generated_Source\PSoC5/USBUART_1.c **** *
1327:.\Generated_Source\PSoC5/USBUART_1.c **** *******************************************************************************/
1328:.\Generated_Source\PSoC5/USBUART_1.c **** void USBUART_1_LoadInEP(uint8 epNumber, const uint8 pData[], uint16 length)
1329:.\Generated_Source\PSoC5/USBUART_1.c ****                                                                         
1330:.\Generated_Source\PSoC5/USBUART_1.c **** {
 762              		.loc 1 1330 0
 763              		.cfi_startproc
 764              		@ args = 0, pretend = 0, frame = 0
 765              		@ frame_needed = 0, uses_anonymous_args = 0
 766              		@ link register save eliminated.
 767              	.LVL48:
1331:.\Generated_Source\PSoC5/USBUART_1.c ****     if ((epNumber > USBUART_1_EP0) && (epNumber < USBUART_1_MAX_EP))
 768              		.loc 1 1331 0
 769 0000 431E     		subs	r3, r0, #1
 770 0002 DBB2     		uxtb	r3, r3
 771 0004 072B     		cmp	r3, #7
ARM GAS  C:\Users\Thomas\AppData\Local\Temp\ccHSNeoG.s 			page 38


 772 0006 3BD8     		bhi	.L58
1330:.\Generated_Source\PSoC5/USBUART_1.c ****     if ((epNumber > USBUART_1_EP0) && (epNumber < USBUART_1_MAX_EP))
 773              		.loc 1 1330 0
 774 0008 F0B4     		push	{r4, r5, r6, r7}
 775              		.cfi_def_cfa_offset 16
 776              		.cfi_offset 4, -16
 777              		.cfi_offset 5, -12
 778              		.cfi_offset 6, -8
 779              		.cfi_offset 7, -4
1332:.\Generated_Source\PSoC5/USBUART_1.c ****     {
1333:.\Generated_Source\PSoC5/USBUART_1.c ****     #if (!USBUART_1_EP_MANAGEMENT_DMA_AUTO)
1334:.\Generated_Source\PSoC5/USBUART_1.c ****         /* Limit length to available buffer USB IP buffer size.*/
1335:.\Generated_Source\PSoC5/USBUART_1.c ****         if (length > (USBUART_1_EPX_DATA_BUF_MAX - USBUART_1_EP[epNumber].buffOffset))
 780              		.loc 1 1335 0
 781 000a 0746     		mov	r7, r0
 782 000c 00EB4003 		add	r3, r0, r0, lsl #1
 783 0010 9B00     		lsls	r3, r3, #2
 784 0012 1C4C     		ldr	r4, .L59
 785 0014 2344     		add	r3, r3, r4
 786 0016 DB88     		ldrh	r3, [r3, #6]
 787 0018 9BB2     		uxth	r3, r3
 788 001a C3F50073 		rsb	r3, r3, #512
 789 001e 9A42     		cmp	r2, r3
 790 0020 07D9     		bls	.L51
1336:.\Generated_Source\PSoC5/USBUART_1.c ****         {
1337:.\Generated_Source\PSoC5/USBUART_1.c ****             length = USBUART_1_EPX_DATA_BUF_MAX - USBUART_1_EP[epNumber].buffOffset;
 791              		.loc 1 1337 0
 792 0022 00EB4003 		add	r3, r0, r0, lsl #1
 793 0026 9B00     		lsls	r3, r3, #2
 794 0028 2344     		add	r3, r3, r4
 795 002a DA88     		ldrh	r2, [r3, #6]
 796              	.LVL49:
 797 002c C2F50072 		rsb	r2, r2, #512
 798 0030 92B2     		uxth	r2, r2
 799              	.LVL50:
 800              	.L51:
1338:.\Generated_Source\PSoC5/USBUART_1.c ****         }
1339:.\Generated_Source\PSoC5/USBUART_1.c ****     #endif /* (!USBUART_1_EP_MANAGEMENT_DMA_AUTO) */
1340:.\Generated_Source\PSoC5/USBUART_1.c **** 
1341:.\Generated_Source\PSoC5/USBUART_1.c ****         /* Set count and data toggle. */
1342:.\Generated_Source\PSoC5/USBUART_1.c ****         USBUART_1_SIE_EP_BASE.sieEp[epNumber].epCnt0 = (uint8) HI8(length) | USBUART_1_EP[epNumber]
 801              		.loc 1 1342 0
 802 0032 00EB4003 		add	r3, r0, r0, lsl #1
 803 0036 9B00     		lsls	r3, r3, #2
 804 0038 124C     		ldr	r4, .L59
 805 003a 2344     		add	r3, r3, r4
 806 003c DB78     		ldrb	r3, [r3, #3]	@ zero_extendqisi2
 807 003e 43EA1223 		orr	r3, r3, r2, lsr #8
 808 0042 114D     		ldr	r5, .L59+4
 809 0044 0401     		lsls	r4, r0, #4
 810 0046 2E19     		adds	r6, r5, r4
 811 0048 2B55     		strb	r3, [r5, r4]
1343:.\Generated_Source\PSoC5/USBUART_1.c ****         USBUART_1_SIE_EP_BASE.sieEp[epNumber].epCnt1 = (uint8) LO8(length);
 812              		.loc 1 1343 0
 813 004a D3B2     		uxtb	r3, r2
 814 004c 7370     		strb	r3, [r6, #1]
1344:.\Generated_Source\PSoC5/USBUART_1.c **** 
ARM GAS  C:\Users\Thomas\AppData\Local\Temp\ccHSNeoG.s 			page 39


1345:.\Generated_Source\PSoC5/USBUART_1.c ****     #if (USBUART_1_EP_MANAGEMENT_MANUAL)
1346:.\Generated_Source\PSoC5/USBUART_1.c ****         if (NULL != pData)
 815              		.loc 1 1346 0
 816 004e 39B9     		cbnz	r1, .L55
 817              	.LBB2:
 818 0050 09E0     		b	.L53
 819              	.LVL51:
 820              	.L54:
1347:.\Generated_Source\PSoC5/USBUART_1.c ****         {
1348:.\Generated_Source\PSoC5/USBUART_1.c **** 			/* Copy data using arbiter data register. */
1349:.\Generated_Source\PSoC5/USBUART_1.c ****             uint16 i;
1350:.\Generated_Source\PSoC5/USBUART_1.c ****             for (i = 0u; i < length; ++i)
1351:.\Generated_Source\PSoC5/USBUART_1.c ****             {
1352:.\Generated_Source\PSoC5/USBUART_1.c ****                 USBUART_1_ARB_EP_BASE.arbEp[epNumber].rwDr = pData[i];
 821              		.loc 1 1352 0 discriminator 3
 822 0052 CE5C     		ldrb	r6, [r1, r3]	@ zero_extendqisi2
 823 0054 3D01     		lsls	r5, r7, #4
 824 0056 0D4C     		ldr	r4, .L59+8
 825 0058 6655     		strb	r6, [r4, r5]
1350:.\Generated_Source\PSoC5/USBUART_1.c ****             {
 826              		.loc 1 1350 0 discriminator 3
 827 005a 0133     		adds	r3, r3, #1
 828              	.LVL52:
 829 005c 9BB2     		uxth	r3, r3
 830              	.LVL53:
 831 005e 00E0     		b	.L52
 832              	.LVL54:
 833              	.L55:
 834              	.LBE2:
 835 0060 0023     		movs	r3, #0
 836              	.L52:
 837              	.LVL55:
 838              	.LBB3:
1350:.\Generated_Source\PSoC5/USBUART_1.c ****             {
 839              		.loc 1 1350 0 is_stmt 0 discriminator 1
 840 0062 9342     		cmp	r3, r2
 841 0064 F5D3     		bcc	.L54
 842              	.LVL56:
 843              	.L53:
 844              	.LBE3:
1353:.\Generated_Source\PSoC5/USBUART_1.c ****             }
1354:.\Generated_Source\PSoC5/USBUART_1.c ****         }
1355:.\Generated_Source\PSoC5/USBUART_1.c **** 
1356:.\Generated_Source\PSoC5/USBUART_1.c ****         /* IN endpoint buffer is full - read to be read. */
1357:.\Generated_Source\PSoC5/USBUART_1.c ****         USBUART_1_EP[epNumber].apiEpState = USBUART_1_NO_EVENT_PENDING;
 845              		.loc 1 1357 0 is_stmt 1
 846 0066 4300     		lsls	r3, r0, #1
 847 0068 0344     		add	r3, r3, r0
 848 006a 9B00     		lsls	r3, r3, #2
 849 006c 054A     		ldr	r2, .L59
 850              	.LVL57:
 851 006e 1344     		add	r3, r3, r2
 852 0070 0022     		movs	r2, #0
 853 0072 5A70     		strb	r2, [r3, #1]
1358:.\Generated_Source\PSoC5/USBUART_1.c **** 
1359:.\Generated_Source\PSoC5/USBUART_1.c ****         /* Arm IN endpoint. */
1360:.\Generated_Source\PSoC5/USBUART_1.c ****         USBUART_1_SIE_EP_BASE.sieEp[epNumber].epCr0 = USBUART_1_EP[epNumber].epMode;
ARM GAS  C:\Users\Thomas\AppData\Local\Temp\ccHSNeoG.s 			page 40


 854              		.loc 1 1360 0
 855 0074 5A79     		ldrb	r2, [r3, #5]	@ zero_extendqisi2
 856 0076 D2B2     		uxtb	r2, r2
 857 0078 0001     		lsls	r0, r0, #4
 858              	.LVL58:
 859 007a 054B     		ldr	r3, .L59+12
 860 007c 1A54     		strb	r2, [r3, r0]
1361:.\Generated_Source\PSoC5/USBUART_1.c **** 
1362:.\Generated_Source\PSoC5/USBUART_1.c ****     #else
1363:.\Generated_Source\PSoC5/USBUART_1.c **** 
1364:.\Generated_Source\PSoC5/USBUART_1.c ****         #if (CY_PSOC3 || CY_PSOC5LP)
1365:.\Generated_Source\PSoC5/USBUART_1.c ****             /* Initialize DMA if it was not initialized. */
1366:.\Generated_Source\PSoC5/USBUART_1.c ****             if (DMA_INVALID_TD == USBUART_1_DmaTd[epNumber])
1367:.\Generated_Source\PSoC5/USBUART_1.c ****             {
1368:.\Generated_Source\PSoC5/USBUART_1.c ****                 USBUART_1_InitEP_DMA(epNumber, pData);
1369:.\Generated_Source\PSoC5/USBUART_1.c ****             }
1370:.\Generated_Source\PSoC5/USBUART_1.c ****         #endif /* (CY_PSOC3 || CY_PSOC5LP) */
1371:.\Generated_Source\PSoC5/USBUART_1.c **** 
1372:.\Generated_Source\PSoC5/USBUART_1.c ****         #if (USBUART_1_EP_MANAGEMENT_DMA_MANUAL)
1373:.\Generated_Source\PSoC5/USBUART_1.c ****             /* IN endpoint buffer will be fully loaded by DMA shortly. */
1374:.\Generated_Source\PSoC5/USBUART_1.c ****             USBUART_1_EP[epNumber].apiEpState = USBUART_1_NO_EVENT_PENDING;
1375:.\Generated_Source\PSoC5/USBUART_1.c **** 
1376:.\Generated_Source\PSoC5/USBUART_1.c ****             if ((pData != NULL) && (length > 0u))
1377:.\Generated_Source\PSoC5/USBUART_1.c ****             {
1378:.\Generated_Source\PSoC5/USBUART_1.c ****             #if (CY_PSOC4)
1379:.\Generated_Source\PSoC5/USBUART_1.c ****                 uint32 channelNum = (uint32) USBUART_1_DmaChan[epNumber];
1380:.\Generated_Source\PSoC5/USBUART_1.c **** 
1381:.\Generated_Source\PSoC5/USBUART_1.c ****                 /* Disable DMA channel: start configuration. */
1382:.\Generated_Source\PSoC5/USBUART_1.c ****                 USBUART_1_CyDmaChDisable(channelNum);
1383:.\Generated_Source\PSoC5/USBUART_1.c **** 
1384:.\Generated_Source\PSoC5/USBUART_1.c ****                 /* Configure source and destination. */
1385:.\Generated_Source\PSoC5/USBUART_1.c ****                 USBUART_1_CyDmaSetSrcAddress(channelNum, USBUART_1_DMA_DESCR0, (void*) pData);
1386:.\Generated_Source\PSoC5/USBUART_1.c ****                 USBUART_1_CyDmaSetDstAddress(channelNum, USBUART_1_DMA_DESCR0, (void*) &USBUART_1_A
1387:.\Generated_Source\PSoC5/USBUART_1.c **** 
1388:.\Generated_Source\PSoC5/USBUART_1.c ****                 /* Configure DMA descriptor. */
1389:.\Generated_Source\PSoC5/USBUART_1.c ****                 --length;
1390:.\Generated_Source\PSoC5/USBUART_1.c ****                 USBUART_1_CyDmaSetConfiguration(channelNum, USBUART_1_DMA_DESCR0, USBUART_1_DMA_COM
1391:.\Generated_Source\PSoC5/USBUART_1.c ****                                                         CYDMA_BYTE | CYDMA_ELEMENT_WORD | CYDMA_INC
1392:.\Generated_Source\PSoC5/USBUART_1.c **** 
1393:.\Generated_Source\PSoC5/USBUART_1.c ****                 /* Validate descriptor to execute on following DMA request. */
1394:.\Generated_Source\PSoC5/USBUART_1.c ****                 USBUART_1_CyDmaValidateDescriptor(channelNum, USBUART_1_DMA_DESCR0);
1395:.\Generated_Source\PSoC5/USBUART_1.c **** 
1396:.\Generated_Source\PSoC5/USBUART_1.c ****                 /* Enable DMA channel: configuration complete. */
1397:.\Generated_Source\PSoC5/USBUART_1.c ****                 USBUART_1_CyDmaChEnable(channelNum);
1398:.\Generated_Source\PSoC5/USBUART_1.c ****             #else
1399:.\Generated_Source\PSoC5/USBUART_1.c ****                 /* Configure DMA to transfer data. */
1400:.\Generated_Source\PSoC5/USBUART_1.c ****                 (void) CyDmaChDisable(USBUART_1_DmaChan[epNumber]);
1401:.\Generated_Source\PSoC5/USBUART_1.c ****                 (void) CyDmaTdSetConfiguration(USBUART_1_DmaTd[epNumber], length, CY_DMA_DISABLE_TD
1402:.\Generated_Source\PSoC5/USBUART_1.c ****                 (void) CyDmaTdSetAddress(USBUART_1_DmaTd[epNumber], LO16((uint32) pData), LO16((uin
1403:.\Generated_Source\PSoC5/USBUART_1.c **** 
1404:.\Generated_Source\PSoC5/USBUART_1.c ****                 /* Enable DMA channel. */
1405:.\Generated_Source\PSoC5/USBUART_1.c ****                 (void) CyDmaChSetInitialTd(USBUART_1_DmaChan[epNumber], USBUART_1_DmaTd[epNumber]);
1406:.\Generated_Source\PSoC5/USBUART_1.c ****                 (void) CyDmaChEnable(USBUART_1_DmaChan[epNumber], 1u);
1407:.\Generated_Source\PSoC5/USBUART_1.c ****             #endif /* (CY_PSOC4) */
1408:.\Generated_Source\PSoC5/USBUART_1.c **** 
1409:.\Generated_Source\PSoC5/USBUART_1.c ****                 /* Generate DMA request. */
1410:.\Generated_Source\PSoC5/USBUART_1.c ****                 USBUART_1_ARB_EP_BASE.arbEp[epNumber].epCfg |=  (uint8)  USBUART_1_ARB_EPX_CFG_DMA_
ARM GAS  C:\Users\Thomas\AppData\Local\Temp\ccHSNeoG.s 			page 41


1411:.\Generated_Source\PSoC5/USBUART_1.c ****                 USBUART_1_ARB_EP_BASE.arbEp[epNumber].epCfg &=  (uint8) ~USBUART_1_ARB_EPX_CFG_DMA_
1412:.\Generated_Source\PSoC5/USBUART_1.c **** 
1413:.\Generated_Source\PSoC5/USBUART_1.c ****                 /* IN endpoint will be armed in ARB_ISR(source: IN_BUF_FULL) after first DMA transf
1414:.\Generated_Source\PSoC5/USBUART_1.c ****             }
1415:.\Generated_Source\PSoC5/USBUART_1.c ****             else
1416:.\Generated_Source\PSoC5/USBUART_1.c ****             {
1417:.\Generated_Source\PSoC5/USBUART_1.c ****                 /* When zero-length packet: arm IN endpoint directly. */
1418:.\Generated_Source\PSoC5/USBUART_1.c ****                 USBUART_1_SIE_EP_BASE.sieEp[epNumber].epCr0 = USBUART_1_EP[epNumber].epMode;
1419:.\Generated_Source\PSoC5/USBUART_1.c ****             }
1420:.\Generated_Source\PSoC5/USBUART_1.c ****         #endif /* (USBUART_1_EP_MANAGEMENT_DMA_MANUAL) */
1421:.\Generated_Source\PSoC5/USBUART_1.c **** 
1422:.\Generated_Source\PSoC5/USBUART_1.c ****         #if (USBUART_1_EP_MANAGEMENT_DMA_AUTO)
1423:.\Generated_Source\PSoC5/USBUART_1.c ****             if (pData != NULL)
1424:.\Generated_Source\PSoC5/USBUART_1.c ****             {
1425:.\Generated_Source\PSoC5/USBUART_1.c ****             #if (CY_PSOC4)
1426:.\Generated_Source\PSoC5/USBUART_1.c ****                 uint32 channelNum = (uint32) USBUART_1_DmaChan[epNumber];
1427:.\Generated_Source\PSoC5/USBUART_1.c **** 
1428:.\Generated_Source\PSoC5/USBUART_1.c ****                 /* Store address of buffer. */
1429:.\Generated_Source\PSoC5/USBUART_1.c ****                 USBUART_1_DmaEpBufferAddrBackup[epNumber] = (uint32) pData;
1430:.\Generated_Source\PSoC5/USBUART_1.c **** 
1431:.\Generated_Source\PSoC5/USBUART_1.c ****                 /* Disable DMA channel: start configuration. */
1432:.\Generated_Source\PSoC5/USBUART_1.c ****                 USBUART_1_CyDmaChDisable(channelNum);
1433:.\Generated_Source\PSoC5/USBUART_1.c **** 
1434:.\Generated_Source\PSoC5/USBUART_1.c ****                 /* Set destination address. */
1435:.\Generated_Source\PSoC5/USBUART_1.c ****                 USBUART_1_CyDmaSetDstAddress(channelNum, USBUART_1_DMA_DESCR0, (void*) &USBUART_1_A
1436:.\Generated_Source\PSoC5/USBUART_1.c ****                 USBUART_1_CyDmaSetDstAddress(channelNum, USBUART_1_DMA_DESCR1, (void*) &USBUART_1_A
1437:.\Generated_Source\PSoC5/USBUART_1.c **** 
1438:.\Generated_Source\PSoC5/USBUART_1.c ****                 /* Configure DMA descriptor. */
1439:.\Generated_Source\PSoC5/USBUART_1.c ****                 USBUART_1_CyDmaSetConfiguration(channelNum, USBUART_1_DMA_DESCR0, USBUART_1_DMA_COM
1440:.\Generated_Source\PSoC5/USBUART_1.c ****                                                         CYDMA_BYTE | CYDMA_ELEMENT_WORD | CYDMA_INC
1441:.\Generated_Source\PSoC5/USBUART_1.c **** 
1442:.\Generated_Source\PSoC5/USBUART_1.c ****                 /* Configure DMA descriptor. */
1443:.\Generated_Source\PSoC5/USBUART_1.c ****                 USBUART_1_CyDmaSetConfiguration(channelNum, USBUART_1_DMA_DESCR1, USBUART_1_DMA_COM
1444:.\Generated_Source\PSoC5/USBUART_1.c ****                                                         CYDMA_BYTE | CYDMA_ELEMENT_WORD | CYDMA_INC
1445:.\Generated_Source\PSoC5/USBUART_1.c **** 
1446:.\Generated_Source\PSoC5/USBUART_1.c ****                 /* Enable interrupt from DMA channel. */
1447:.\Generated_Source\PSoC5/USBUART_1.c ****                 USBUART_1_CyDmaSetInterruptMask(channelNum);
1448:.\Generated_Source\PSoC5/USBUART_1.c **** 
1449:.\Generated_Source\PSoC5/USBUART_1.c ****                 /* Validate descriptor 1. It will not be invalided during operation. */
1450:.\Generated_Source\PSoC5/USBUART_1.c ****                 USBUART_1_CyDmaValidateDescriptor(channelNum, USBUART_1_DMA_DESCR1);
1451:.\Generated_Source\PSoC5/USBUART_1.c **** 
1452:.\Generated_Source\PSoC5/USBUART_1.c ****                 /* Enable DMA channel: configuration complete. */
1453:.\Generated_Source\PSoC5/USBUART_1.c ****                 USBUART_1_CyDmaChEnable(channelNum);
1454:.\Generated_Source\PSoC5/USBUART_1.c **** 
1455:.\Generated_Source\PSoC5/USBUART_1.c ****             #else
1456:.\Generated_Source\PSoC5/USBUART_1.c ****                 (void) CyDmaChDisable(USBUART_1_DmaChan[epNumber]);
1457:.\Generated_Source\PSoC5/USBUART_1.c **** 
1458:.\Generated_Source\PSoC5/USBUART_1.c ****                 #if (USBUART_1_EP_DMA_AUTO_OPT == 0u)
1459:.\Generated_Source\PSoC5/USBUART_1.c ****                     USBUART_1_inLength[epNumber] = length;
1460:.\Generated_Source\PSoC5/USBUART_1.c ****                     USBUART_1_inDataPointer[epNumber] = pData;
1461:.\Generated_Source\PSoC5/USBUART_1.c **** 
1462:.\Generated_Source\PSoC5/USBUART_1.c ****                     /* Configure DMA to send data only for first burst */
1463:.\Generated_Source\PSoC5/USBUART_1.c ****                     (void) CyDmaTdSetConfiguration(USBUART_1_DmaTd[epNumber],
1464:.\Generated_Source\PSoC5/USBUART_1.c ****                         (length > USBUART_1_DMA_BYTES_PER_BURST) ? USBUART_1_DMA_BYTES_PER_BURST : 
1465:.\Generated_Source\PSoC5/USBUART_1.c ****                         USBUART_1_DmaNextTd[epNumber], TD_TERMIN_EN | TD_INC_SRC_ADR);
1466:.\Generated_Source\PSoC5/USBUART_1.c ****                     (void) CyDmaTdSetAddress(USBUART_1_DmaTd[epNumber], LO16((uint32) pData),
1467:.\Generated_Source\PSoC5/USBUART_1.c ****                                                                                LO16((uint32) &USBUA
ARM GAS  C:\Users\Thomas\AppData\Local\Temp\ccHSNeoG.s 			page 42


1468:.\Generated_Source\PSoC5/USBUART_1.c **** 
1469:.\Generated_Source\PSoC5/USBUART_1.c ****                     /* The second TD will be executed only when the first one fails.
1470:.\Generated_Source\PSoC5/USBUART_1.c ****                     *  The intention of this TD is to generate NRQ interrupt
1471:.\Generated_Source\PSoC5/USBUART_1.c ****                     *  and repeat 2 last bytes of the first burst.
1472:.\Generated_Source\PSoC5/USBUART_1.c ****                     */
1473:.\Generated_Source\PSoC5/USBUART_1.c ****                     (void) CyDmaTdSetConfiguration(USBUART_1_DmaNextTd[epNumber], 1u,
1474:.\Generated_Source\PSoC5/USBUART_1.c ****                                                    USBUART_1_DmaNextTd[epNumber],
1475:.\Generated_Source\PSoC5/USBUART_1.c ****                                                    USBUART_1_epX_TD_TERMOUT_EN[epNumber]);
1476:.\Generated_Source\PSoC5/USBUART_1.c **** 
1477:.\Generated_Source\PSoC5/USBUART_1.c ****                     /* Configure DmaNextTd to clear Data Ready status. */
1478:.\Generated_Source\PSoC5/USBUART_1.c ****                     (void) CyDmaTdSetAddress(USBUART_1_DmaNextTd[epNumber], LO16((uint32) &clearInD
1479:.\Generated_Source\PSoC5/USBUART_1.c ****                                                                                    LO16((uint32) &U
1480:.\Generated_Source\PSoC5/USBUART_1.c ****                 #else
1481:.\Generated_Source\PSoC5/USBUART_1.c ****                     /* Configure DMA to send all data. */
1482:.\Generated_Source\PSoC5/USBUART_1.c ****                     (void) CyDmaTdSetConfiguration(USBUART_1_DmaTd[epNumber], length,
1483:.\Generated_Source\PSoC5/USBUART_1.c ****                                                    USBUART_1_DmaTd[epNumber], TD_TERMIN_EN | TD_INC
1484:.\Generated_Source\PSoC5/USBUART_1.c ****                     (void) CyDmaTdSetAddress(USBUART_1_DmaTd[epNumber], LO16((uint32) pData),
1485:.\Generated_Source\PSoC5/USBUART_1.c ****                                                                                LO16((uint32) &USBUA
1486:.\Generated_Source\PSoC5/USBUART_1.c ****                 #endif /* (USBUART_1_EP_DMA_AUTO_OPT == 0u) */
1487:.\Generated_Source\PSoC5/USBUART_1.c **** 
1488:.\Generated_Source\PSoC5/USBUART_1.c ****                 /* Clear any potential pending DMA requests before starting DMA channel to transfer
1489:.\Generated_Source\PSoC5/USBUART_1.c ****                 (void) CyDmaClearPendingDrq(USBUART_1_DmaChan[epNumber]);
1490:.\Generated_Source\PSoC5/USBUART_1.c ****                 /* Enable DMA. */
1491:.\Generated_Source\PSoC5/USBUART_1.c ****                 (void) CyDmaChSetInitialTd(USBUART_1_DmaChan[epNumber], USBUART_1_DmaTd[epNumber]);
1492:.\Generated_Source\PSoC5/USBUART_1.c ****                 (void) CyDmaChEnable(USBUART_1_DmaChan[epNumber], 1u);
1493:.\Generated_Source\PSoC5/USBUART_1.c ****             #endif /* (CY_PSOC4) */
1494:.\Generated_Source\PSoC5/USBUART_1.c ****             }
1495:.\Generated_Source\PSoC5/USBUART_1.c ****             else
1496:.\Generated_Source\PSoC5/USBUART_1.c ****             {
1497:.\Generated_Source\PSoC5/USBUART_1.c ****                 /* IN endpoint buffer (32 bytes) will shortly be preloaded by DMA. */
1498:.\Generated_Source\PSoC5/USBUART_1.c ****                 USBUART_1_EP[epNumber].apiEpState = USBUART_1_NO_EVENT_PENDING;
1499:.\Generated_Source\PSoC5/USBUART_1.c **** 
1500:.\Generated_Source\PSoC5/USBUART_1.c ****                 if (length > 0u)
1501:.\Generated_Source\PSoC5/USBUART_1.c ****                 {
1502:.\Generated_Source\PSoC5/USBUART_1.c ****                 #if (CY_PSOC4)
1503:.\Generated_Source\PSoC5/USBUART_1.c ****                     uint32 lengthDescr0, lengthDescr1;
1504:.\Generated_Source\PSoC5/USBUART_1.c ****                     uint32 channelNum = (uint32) USBUART_1_DmaChan[epNumber];
1505:.\Generated_Source\PSoC5/USBUART_1.c **** 
1506:.\Generated_Source\PSoC5/USBUART_1.c ****                     /* Get number of full bursts. */
1507:.\Generated_Source\PSoC5/USBUART_1.c ****                     USBUART_1_DmaEpBurstCnt[epNumber] = (uint8) (length / USBUART_1_DMA_BYTES_PER_B
1508:.\Generated_Source\PSoC5/USBUART_1.c **** 
1509:.\Generated_Source\PSoC5/USBUART_1.c ****                     /* Get number of elements in the last burst. */
1510:.\Generated_Source\PSoC5/USBUART_1.c ****                     USBUART_1_DmaEpLastBurstEl[epNumber] = (uint8) (length % USBUART_1_DMA_BYTES_PE
1511:.\Generated_Source\PSoC5/USBUART_1.c **** 
1512:.\Generated_Source\PSoC5/USBUART_1.c ****                     /* Get total number of bursts. */
1513:.\Generated_Source\PSoC5/USBUART_1.c ****                     USBUART_1_DmaEpBurstCnt[epNumber] += (0u != USBUART_1_DmaEpLastBurstEl[epNumber
1514:.\Generated_Source\PSoC5/USBUART_1.c **** 
1515:.\Generated_Source\PSoC5/USBUART_1.c ****                     /* Adjust number of data elements transferred in last burst. */
1516:.\Generated_Source\PSoC5/USBUART_1.c ****                     USBUART_1_DmaEpLastBurstEl[epNumber] = (0u != USBUART_1_DmaEpLastBurstEl[epNumb
1517:.\Generated_Source\PSoC5/USBUART_1.c ****                                                                           (USBUART_1_DmaEpLastBurst
1518:.\Generated_Source\PSoC5/USBUART_1.c ****                                                                           (USBUART_1_DMA_BYTES_PER_
1519:.\Generated_Source\PSoC5/USBUART_1.c **** 
1520:.\Generated_Source\PSoC5/USBUART_1.c ****                     /* Get number of data elements to transfer for descriptor 0 and 1. */
1521:.\Generated_Source\PSoC5/USBUART_1.c ****                     lengthDescr0 = (1u == USBUART_1_DmaEpBurstCnt[epNumber]) ? USBUART_1_DmaEpLastB
1522:.\Generated_Source\PSoC5/USBUART_1.c ****                     lengthDescr1 = (2u == USBUART_1_DmaEpBurstCnt[epNumber]) ? USBUART_1_DmaEpLastB
1523:.\Generated_Source\PSoC5/USBUART_1.c **** 
1524:.\Generated_Source\PSoC5/USBUART_1.c **** 
ARM GAS  C:\Users\Thomas\AppData\Local\Temp\ccHSNeoG.s 			page 43


1525:.\Generated_Source\PSoC5/USBUART_1.c ****                     /* Mark which descriptor is last one to execute. */
1526:.\Generated_Source\PSoC5/USBUART_1.c ****                     USBUART_1_DmaEpLastBurstEl[epNumber] |= (0u != (USBUART_1_DmaEpBurstCnt[epNumbe
1527:.\Generated_Source\PSoC5/USBUART_1.c ****                                                                             USBUART_1_DMA_DESCR0_MA
1528:.\Generated_Source\PSoC5/USBUART_1.c **** 
1529:.\Generated_Source\PSoC5/USBUART_1.c ****                     /* Adjust burst counter taking to account: 2 valid descriptors and interrupt tr
1530:.\Generated_Source\PSoC5/USBUART_1.c ****                     USBUART_1_DmaEpBurstCnt[epNumber] = USBUART_1_DMA_GET_BURST_CNT(USBUART_1_DmaEp
1531:.\Generated_Source\PSoC5/USBUART_1.c **** 
1532:.\Generated_Source\PSoC5/USBUART_1.c ****                     /* Restore DMA settings for current transfer. */
1533:.\Generated_Source\PSoC5/USBUART_1.c ****                     USBUART_1_CyDmaChDisable(channelNum);
1534:.\Generated_Source\PSoC5/USBUART_1.c **** 
1535:.\Generated_Source\PSoC5/USBUART_1.c ****                     /* Restore destination address for input endpoint. */
1536:.\Generated_Source\PSoC5/USBUART_1.c ****                     USBUART_1_CyDmaSetSrcAddress(channelNum, USBUART_1_DMA_DESCR0, (void*) ((uint32
1537:.\Generated_Source\PSoC5/USBUART_1.c ****                     USBUART_1_CyDmaSetSrcAddress(channelNum, USBUART_1_DMA_DESCR1, (void*) ((uint32
1538:.\Generated_Source\PSoC5/USBUART_1.c ****                                                                                                    
1539:.\Generated_Source\PSoC5/USBUART_1.c **** 
1540:.\Generated_Source\PSoC5/USBUART_1.c ****                     /* Set number of elements to transfer. */
1541:.\Generated_Source\PSoC5/USBUART_1.c ****                     USBUART_1_CyDmaSetNumDataElements(channelNum, USBUART_1_DMA_DESCR0, lengthDescr
1542:.\Generated_Source\PSoC5/USBUART_1.c ****                     USBUART_1_CyDmaSetNumDataElements(channelNum, USBUART_1_DMA_DESCR1, lengthDescr
1543:.\Generated_Source\PSoC5/USBUART_1.c **** 
1544:.\Generated_Source\PSoC5/USBUART_1.c ****                     /* Validate descriptor 0 and command to start with it. */
1545:.\Generated_Source\PSoC5/USBUART_1.c ****                     USBUART_1_CyDmaValidateDescriptor(channelNum, USBUART_1_DMA_DESCR0);
1546:.\Generated_Source\PSoC5/USBUART_1.c ****                     USBUART_1_CyDmaSetDescriptor0Next(channelNum);
1547:.\Generated_Source\PSoC5/USBUART_1.c **** 
1548:.\Generated_Source\PSoC5/USBUART_1.c ****                     /* Enable DMA channel: configuration complete. */
1549:.\Generated_Source\PSoC5/USBUART_1.c ****                     USBUART_1_CyDmaChEnable(channelNum);
1550:.\Generated_Source\PSoC5/USBUART_1.c **** 
1551:.\Generated_Source\PSoC5/USBUART_1.c ****                 #elif (USBUART_1_EP_DMA_AUTO_OPT == 0u)
1552:.\Generated_Source\PSoC5/USBUART_1.c ****                     USBUART_1_inLength[epNumber]  = length;
1553:.\Generated_Source\PSoC5/USBUART_1.c ****                     USBUART_1_inBufFull[epNumber] = 0u;
1554:.\Generated_Source\PSoC5/USBUART_1.c **** 
1555:.\Generated_Source\PSoC5/USBUART_1.c ****                     (void) CyDmaChDisable(USBUART_1_DmaChan[epNumber]);
1556:.\Generated_Source\PSoC5/USBUART_1.c ****                     /* Configure DMA to send data only for first burst. */
1557:.\Generated_Source\PSoC5/USBUART_1.c ****                     (void) CyDmaTdSetConfiguration(
1558:.\Generated_Source\PSoC5/USBUART_1.c ****                         USBUART_1_DmaTd[epNumber], (length > USBUART_1_DMA_BYTES_PER_BURST) ?
1559:.\Generated_Source\PSoC5/USBUART_1.c ****                         USBUART_1_DMA_BYTES_PER_BURST : length,
1560:.\Generated_Source\PSoC5/USBUART_1.c ****                         USBUART_1_DmaNextTd[epNumber], TD_TERMIN_EN | TD_INC_SRC_ADR );
1561:.\Generated_Source\PSoC5/USBUART_1.c ****                     (void) CyDmaTdSetAddress(USBUART_1_DmaTd[epNumber], LO16((uint32)  USBUART_1_in
1562:.\Generated_Source\PSoC5/USBUART_1.c ****                                                                                LO16((uint32) &USBUA
1563:.\Generated_Source\PSoC5/USBUART_1.c ****                     /* Clear Any potential pending DMA requests before starting DMA channel to tran
1564:.\Generated_Source\PSoC5/USBUART_1.c ****                     (void) CyDmaClearPendingDrq(USBUART_1_DmaChan[epNumber]);
1565:.\Generated_Source\PSoC5/USBUART_1.c ****                     /* Enable DMA. */
1566:.\Generated_Source\PSoC5/USBUART_1.c ****                     (void) CyDmaChSetInitialTd(USBUART_1_DmaChan[epNumber], USBUART_1_DmaTd[epNumbe
1567:.\Generated_Source\PSoC5/USBUART_1.c ****                     (void) CyDmaChEnable(USBUART_1_DmaChan[epNumber], 1u);
1568:.\Generated_Source\PSoC5/USBUART_1.c ****                 #endif /* (CY_PSOC4) */
1569:.\Generated_Source\PSoC5/USBUART_1.c **** 
1570:.\Generated_Source\PSoC5/USBUART_1.c ****                 #if !defined (USBUART_1_MANUAL_IN_EP_ARM)
1571:.\Generated_Source\PSoC5/USBUART_1.c ****                     /* Set IN data ready to generate DMA request to load data into endpoint buffer.
1572:.\Generated_Source\PSoC5/USBUART_1.c ****                     USBUART_1_ARB_EP_BASE.arbEp[epNumber].epCfg |= USBUART_1_ARB_EPX_CFG_IN_DATA_RD
1573:.\Generated_Source\PSoC5/USBUART_1.c ****                 #endif  /* (USBUART_1_MANUAL_IN_EP_ARM) */
1574:.\Generated_Source\PSoC5/USBUART_1.c **** 
1575:.\Generated_Source\PSoC5/USBUART_1.c ****                     /* IN endpoint will be armed in ARB_ISR(source: IN_BUF_FULL) after first DMA tr
1576:.\Generated_Source\PSoC5/USBUART_1.c ****                 }
1577:.\Generated_Source\PSoC5/USBUART_1.c ****                 else
1578:.\Generated_Source\PSoC5/USBUART_1.c ****                 {
1579:.\Generated_Source\PSoC5/USBUART_1.c ****                     /* When zero-length packet: arm IN endpoint directly. */
1580:.\Generated_Source\PSoC5/USBUART_1.c ****                     USBUART_1_SIE_EP_BASE.sieEp[epNumber].epCr0 = USBUART_1_EP[epNumber].epMode;
1581:.\Generated_Source\PSoC5/USBUART_1.c ****                 }
ARM GAS  C:\Users\Thomas\AppData\Local\Temp\ccHSNeoG.s 			page 44


1582:.\Generated_Source\PSoC5/USBUART_1.c ****             }
1583:.\Generated_Source\PSoC5/USBUART_1.c ****         #endif /* (USBUART_1_EP_MANAGEMENT_DMA_AUTO) */
1584:.\Generated_Source\PSoC5/USBUART_1.c ****     #endif /* (USBUART_1_EP_MANAGEMENT_MANUAL) */
1585:.\Generated_Source\PSoC5/USBUART_1.c ****     }
1586:.\Generated_Source\PSoC5/USBUART_1.c **** }
 861              		.loc 1 1586 0
 862 007e F0BC     		pop	{r4, r5, r6, r7}
 863              		.cfi_restore 7
 864              		.cfi_restore 6
 865              		.cfi_restore 5
 866              		.cfi_restore 4
 867              		.cfi_def_cfa_offset 0
 868              	.L58:
 869 0080 7047     		bx	lr
 870              	.L60:
 871 0082 00BF     		.align	2
 872              	.L59:
 873 0084 00000000 		.word	USBUART_1_EP
 874 0088 FC5F0040 		.word	1073766396
 875 008c 78600040 		.word	1073766520
 876 0090 FE5F0040 		.word	1073766398
 877              		.cfi_endproc
 878              	.LFE11:
 879              		.size	USBUART_1_LoadInEP, .-USBUART_1_LoadInEP
 880              		.section	.text.USBUART_1_EnableOutEP,"ax",%progbits
 881              		.align	2
 882              		.global	USBUART_1_EnableOutEP
 883              		.thumb
 884              		.thumb_func
 885              		.type	USBUART_1_EnableOutEP, %function
 886              	USBUART_1_EnableOutEP:
 887              	.LFB13:
1587:.\Generated_Source\PSoC5/USBUART_1.c **** 
1588:.\Generated_Source\PSoC5/USBUART_1.c **** 
1589:.\Generated_Source\PSoC5/USBUART_1.c **** /*******************************************************************************
1590:.\Generated_Source\PSoC5/USBUART_1.c **** * Function Name: USBUART_1_ReadOutEP
1591:.\Generated_Source\PSoC5/USBUART_1.c **** ****************************************************************************//**
1592:.\Generated_Source\PSoC5/USBUART_1.c **** *
1593:.\Generated_Source\PSoC5/USBUART_1.c **** *   This function performs different functionality depending on the Component’s
1594:.\Generated_Source\PSoC5/USBUART_1.c **** *   configured Endpoint Buffer Management. This parameter is defined in the
1595:.\Generated_Source\PSoC5/USBUART_1.c **** *   Descriptor Root in Component Configure window.
1596:.\Generated_Source\PSoC5/USBUART_1.c **** *
1597:.\Generated_Source\PSoC5/USBUART_1.c **** *   *Manual (Static/Dynamic Allocation):*
1598:.\Generated_Source\PSoC5/USBUART_1.c **** *   This function moves the specified number of bytes from endpoint buffer to
1599:.\Generated_Source\PSoC5/USBUART_1.c **** *   system RAM. The number of bytes actually transferred from endpoint buffer to
1600:.\Generated_Source\PSoC5/USBUART_1.c **** *   system RAM is the lesser of the actual number of bytes sent by the host or
1601:.\Generated_Source\PSoC5/USBUART_1.c **** *   the number of bytes requested by the length parameter.
1602:.\Generated_Source\PSoC5/USBUART_1.c **** *
1603:.\Generated_Source\PSoC5/USBUART_1.c **** *   *DMA with Manual Buffer Management:*
1604:.\Generated_Source\PSoC5/USBUART_1.c **** *   Configure DMA to transfer data from endpoint buffer to system RAM. Generate
1605:.\Generated_Source\PSoC5/USBUART_1.c **** *   a DMA request. The firmware must wait until the DMA completes the data
1606:.\Generated_Source\PSoC5/USBUART_1.c **** *   transfer after calling the USBUART_1_ReadOutEP() API. For example,
1607:.\Generated_Source\PSoC5/USBUART_1.c **** *   by checking EPstate:
1608:.\Generated_Source\PSoC5/USBUART_1.c **** *
1609:.\Generated_Source\PSoC5/USBUART_1.c **** *   \snippet /USBFS_sut_02.cydsn/main.c checking EPstatey
1610:.\Generated_Source\PSoC5/USBUART_1.c **** *
1611:.\Generated_Source\PSoC5/USBUART_1.c **** *   The USBFS_EnableOutEP() has to be called to allow host to write data into
ARM GAS  C:\Users\Thomas\AppData\Local\Temp\ccHSNeoG.s 			page 45


1612:.\Generated_Source\PSoC5/USBUART_1.c **** *   the endpoint buffer after DMA has completed transfer data from OUT endpoint
1613:.\Generated_Source\PSoC5/USBUART_1.c **** *   buffer to SRAM.
1614:.\Generated_Source\PSoC5/USBUART_1.c **** *
1615:.\Generated_Source\PSoC5/USBUART_1.c **** *   *DMA with Automatic Buffer Management:*
1616:.\Generated_Source\PSoC5/USBUART_1.c **** *   Configure DMA. This is required only once and automatically generates DMA
1617:.\Generated_Source\PSoC5/USBUART_1.c **** *   requests as data arrives
1618:.\Generated_Source\PSoC5/USBUART_1.c **** *
1619:.\Generated_Source\PSoC5/USBUART_1.c **** *  \param epNumber: Contains the data endpoint number.
1620:.\Generated_Source\PSoC5/USBUART_1.c **** *            Valid values are between 1 and 8.
1621:.\Generated_Source\PSoC5/USBUART_1.c **** *  \param pData: A pointer to a data array from which the data for the endpoint
1622:.\Generated_Source\PSoC5/USBUART_1.c **** *         space is loaded.
1623:.\Generated_Source\PSoC5/USBUART_1.c **** *  \param length: The number of bytes to transfer from the USB Out endpoint and
1624:.\Generated_Source\PSoC5/USBUART_1.c **** *          loads it into data array. Valid values are between 0 and 1023. The
1625:.\Generated_Source\PSoC5/USBUART_1.c **** *          function moves fewer than the requested number of bytes if the host
1626:.\Generated_Source\PSoC5/USBUART_1.c **** *          sends fewer bytes than requested.
1627:.\Generated_Source\PSoC5/USBUART_1.c **** *
1628:.\Generated_Source\PSoC5/USBUART_1.c **** * \return
1629:.\Generated_Source\PSoC5/USBUART_1.c **** *  Number of bytes received, 0 for an invalid endpoint.
1630:.\Generated_Source\PSoC5/USBUART_1.c **** *
1631:.\Generated_Source\PSoC5/USBUART_1.c **** * \reentrant
1632:.\Generated_Source\PSoC5/USBUART_1.c **** *  No.
1633:.\Generated_Source\PSoC5/USBUART_1.c **** *
1634:.\Generated_Source\PSoC5/USBUART_1.c **** *******************************************************************************/
1635:.\Generated_Source\PSoC5/USBUART_1.c **** uint16 USBUART_1_ReadOutEP(uint8 epNumber, uint8 pData[], uint16 length)
1636:.\Generated_Source\PSoC5/USBUART_1.c ****                                                                         
1637:.\Generated_Source\PSoC5/USBUART_1.c **** {
1638:.\Generated_Source\PSoC5/USBUART_1.c ****     if ((pData != NULL) && (epNumber > USBUART_1_EP0) && (epNumber < USBUART_1_MAX_EP))
1639:.\Generated_Source\PSoC5/USBUART_1.c ****     {
1640:.\Generated_Source\PSoC5/USBUART_1.c ****     #if (!USBUART_1_EP_MANAGEMENT_DMA_AUTO)
1641:.\Generated_Source\PSoC5/USBUART_1.c ****         /* Adjust requested length to available data. */
1642:.\Generated_Source\PSoC5/USBUART_1.c ****         length = (length > USBUART_1_GetEPCount(epNumber)) ? USBUART_1_GetEPCount(epNumber) : lengt
1643:.\Generated_Source\PSoC5/USBUART_1.c ****     #endif /* (!USBUART_1_EP_MANAGEMENT_DMA_AUTO) */
1644:.\Generated_Source\PSoC5/USBUART_1.c **** 
1645:.\Generated_Source\PSoC5/USBUART_1.c ****     #if (USBUART_1_EP_MANAGEMENT_MANUAL)
1646:.\Generated_Source\PSoC5/USBUART_1.c ****         {
1647:.\Generated_Source\PSoC5/USBUART_1.c ****             /* Copy data using arbiter data register. */
1648:.\Generated_Source\PSoC5/USBUART_1.c ****             uint16 i;
1649:.\Generated_Source\PSoC5/USBUART_1.c ****             for (i = 0u; i < length; ++i)
1650:.\Generated_Source\PSoC5/USBUART_1.c ****             {
1651:.\Generated_Source\PSoC5/USBUART_1.c ****                 pData[i] = (uint8) USBUART_1_ARB_EP_BASE.arbEp[epNumber].rwDr;
1652:.\Generated_Source\PSoC5/USBUART_1.c ****             }
1653:.\Generated_Source\PSoC5/USBUART_1.c ****         }
1654:.\Generated_Source\PSoC5/USBUART_1.c **** 
1655:.\Generated_Source\PSoC5/USBUART_1.c ****         /* Arm OUT endpoint after data has been copied from endpoint buffer. */
1656:.\Generated_Source\PSoC5/USBUART_1.c ****         USBUART_1_EnableOutEP(epNumber);
1657:.\Generated_Source\PSoC5/USBUART_1.c ****     #else
1658:.\Generated_Source\PSoC5/USBUART_1.c **** 
1659:.\Generated_Source\PSoC5/USBUART_1.c ****         #if (CY_PSOC3 || CY_PSOC5LP)
1660:.\Generated_Source\PSoC5/USBUART_1.c ****             /* Initialize DMA if it was not initialized. */
1661:.\Generated_Source\PSoC5/USBUART_1.c ****             if (DMA_INVALID_TD == USBUART_1_DmaTd[epNumber])
1662:.\Generated_Source\PSoC5/USBUART_1.c ****             {
1663:.\Generated_Source\PSoC5/USBUART_1.c ****                 USBUART_1_InitEP_DMA(epNumber, pData);
1664:.\Generated_Source\PSoC5/USBUART_1.c ****             }
1665:.\Generated_Source\PSoC5/USBUART_1.c ****         #endif /* (CY_PSOC3 || CY_PSOC5LP) */
1666:.\Generated_Source\PSoC5/USBUART_1.c **** 
1667:.\Generated_Source\PSoC5/USBUART_1.c ****         #if (USBUART_1_EP_MANAGEMENT_DMA_MANUAL)
1668:.\Generated_Source\PSoC5/USBUART_1.c ****         #if (CY_PSOC4)
ARM GAS  C:\Users\Thomas\AppData\Local\Temp\ccHSNeoG.s 			page 46


1669:.\Generated_Source\PSoC5/USBUART_1.c ****         {
1670:.\Generated_Source\PSoC5/USBUART_1.c ****             uint32 channelNum = (uint32) USBUART_1_DmaChan[epNumber];
1671:.\Generated_Source\PSoC5/USBUART_1.c **** 
1672:.\Generated_Source\PSoC5/USBUART_1.c ****             /* Disable DMA channel: start configuration. */
1673:.\Generated_Source\PSoC5/USBUART_1.c ****             USBUART_1_CyDmaChDisable(channelNum);
1674:.\Generated_Source\PSoC5/USBUART_1.c **** 
1675:.\Generated_Source\PSoC5/USBUART_1.c ****             /* Configure source and destination. */
1676:.\Generated_Source\PSoC5/USBUART_1.c ****             USBUART_1_CyDmaSetSrcAddress(channelNum, USBUART_1_DMA_DESCR0, (void*) &USBUART_1_ARB_E
1677:.\Generated_Source\PSoC5/USBUART_1.c ****             USBUART_1_CyDmaSetDstAddress(channelNum, USBUART_1_DMA_DESCR0, (void*) pData);
1678:.\Generated_Source\PSoC5/USBUART_1.c **** 
1679:.\Generated_Source\PSoC5/USBUART_1.c ****             /* Configure DMA descriptor. */
1680:.\Generated_Source\PSoC5/USBUART_1.c ****             USBUART_1_CyDmaSetConfiguration(channelNum, USBUART_1_DMA_DESCR0, USBUART_1_DMA_COMMON_
1681:.\Generated_Source\PSoC5/USBUART_1.c ****                                                     CYDMA_BYTE | CYDMA_WORD_ELEMENT | CYDMA_INC_DST
1682:.\Generated_Source\PSoC5/USBUART_1.c **** 
1683:.\Generated_Source\PSoC5/USBUART_1.c ****             /* Validate descriptor to execute on following DMA request. */
1684:.\Generated_Source\PSoC5/USBUART_1.c ****             USBUART_1_CyDmaValidateDescriptor(channelNum, USBUART_1_DMA_DESCR0);
1685:.\Generated_Source\PSoC5/USBUART_1.c **** 
1686:.\Generated_Source\PSoC5/USBUART_1.c ****             /* Enable DMA channel: configuration complete. */
1687:.\Generated_Source\PSoC5/USBUART_1.c ****             USBUART_1_CyDmaChEnable(channelNum);
1688:.\Generated_Source\PSoC5/USBUART_1.c ****         }
1689:.\Generated_Source\PSoC5/USBUART_1.c ****         #else
1690:.\Generated_Source\PSoC5/USBUART_1.c ****             /* Configure DMA to transfer data. */
1691:.\Generated_Source\PSoC5/USBUART_1.c ****             (void) CyDmaChDisable(USBUART_1_DmaChan[epNumber]);
1692:.\Generated_Source\PSoC5/USBUART_1.c ****             (void) CyDmaTdSetConfiguration(USBUART_1_DmaTd[epNumber], length, CY_DMA_DISABLE_TD, TD
1693:.\Generated_Source\PSoC5/USBUART_1.c ****             (void) CyDmaTdSetAddress(USBUART_1_DmaTd[epNumber], LO16((uint32) &USBUART_1_ARB_EP_BAS
1694:.\Generated_Source\PSoC5/USBUART_1.c **** 
1695:.\Generated_Source\PSoC5/USBUART_1.c ****             /* Enable DMA channel. */
1696:.\Generated_Source\PSoC5/USBUART_1.c ****             (void) CyDmaChSetInitialTd(USBUART_1_DmaChan[epNumber], USBUART_1_DmaTd[epNumber]);
1697:.\Generated_Source\PSoC5/USBUART_1.c ****             (void) CyDmaChEnable(USBUART_1_DmaChan[epNumber], 1u);
1698:.\Generated_Source\PSoC5/USBUART_1.c ****         #endif /* (CY_PSOC4) */
1699:.\Generated_Source\PSoC5/USBUART_1.c **** 
1700:.\Generated_Source\PSoC5/USBUART_1.c ****             /* Generate DMA request. */
1701:.\Generated_Source\PSoC5/USBUART_1.c ****             USBUART_1_ARB_EP_BASE.arbEp[epNumber].epCfg |=  (uint8)  USBUART_1_ARB_EPX_CFG_DMA_REQ;
1702:.\Generated_Source\PSoC5/USBUART_1.c ****             USBUART_1_ARB_EP_BASE.arbEp[epNumber].epCfg &=  (uint8) ~USBUART_1_ARB_EPX_CFG_DMA_REQ;
1703:.\Generated_Source\PSoC5/USBUART_1.c **** 
1704:.\Generated_Source\PSoC5/USBUART_1.c ****             /* OUT endpoint has to be armed again by user when DMA transfers have been completed.
1705:.\Generated_Source\PSoC5/USBUART_1.c ****             * NO_EVENT_PENDING: notifies that data has been copied from endpoint buffer.
1706:.\Generated_Source\PSoC5/USBUART_1.c ****             */
1707:.\Generated_Source\PSoC5/USBUART_1.c **** 
1708:.\Generated_Source\PSoC5/USBUART_1.c ****         #endif /* (USBUART_1_EP_MANAGEMENT_DMA_MANUAL) */
1709:.\Generated_Source\PSoC5/USBUART_1.c **** 
1710:.\Generated_Source\PSoC5/USBUART_1.c ****         #if (USBUART_1_EP_MANAGEMENT_DMA_AUTO)
1711:.\Generated_Source\PSoC5/USBUART_1.c ****         #if (CY_PSOC4)
1712:.\Generated_Source\PSoC5/USBUART_1.c ****         {
1713:.\Generated_Source\PSoC5/USBUART_1.c ****             uint32 channelNum = (uint32) USBUART_1_DmaChan[epNumber];
1714:.\Generated_Source\PSoC5/USBUART_1.c ****             uint32 lengthDescr0, lengthDescr1;
1715:.\Generated_Source\PSoC5/USBUART_1.c **** 
1716:.\Generated_Source\PSoC5/USBUART_1.c ****             /* Get number of full bursts. */
1717:.\Generated_Source\PSoC5/USBUART_1.c ****             USBUART_1_DmaEpBurstCnt[epNumber] = (uint8) (length / USBUART_1_DMA_BYTES_PER_BURST);
1718:.\Generated_Source\PSoC5/USBUART_1.c **** 
1719:.\Generated_Source\PSoC5/USBUART_1.c ****             /* Get number of elements in the last burst. */
1720:.\Generated_Source\PSoC5/USBUART_1.c ****             USBUART_1_DmaEpLastBurstEl[epNumber] = (uint8) (length % USBUART_1_DMA_BYTES_PER_BURST)
1721:.\Generated_Source\PSoC5/USBUART_1.c **** 
1722:.\Generated_Source\PSoC5/USBUART_1.c ****             /* Get total number of bursts. */
1723:.\Generated_Source\PSoC5/USBUART_1.c ****             USBUART_1_DmaEpBurstCnt[epNumber] += (0u != USBUART_1_DmaEpLastBurstEl[epNumber]) ? 1u 
1724:.\Generated_Source\PSoC5/USBUART_1.c **** 
1725:.\Generated_Source\PSoC5/USBUART_1.c ****             /* Adjust number of the data elements transfered in last burst. */
ARM GAS  C:\Users\Thomas\AppData\Local\Temp\ccHSNeoG.s 			page 47


1726:.\Generated_Source\PSoC5/USBUART_1.c ****             USBUART_1_DmaEpLastBurstEl[epNumber] = (0u != USBUART_1_DmaEpLastBurstEl[epNumber]) ?
1727:.\Generated_Source\PSoC5/USBUART_1.c ****                                                                   (USBUART_1_DmaEpLastBurstEl[epNum
1728:.\Generated_Source\PSoC5/USBUART_1.c ****                                                                   (USBUART_1_DMA_BYTES_PER_BURST - 
1729:.\Generated_Source\PSoC5/USBUART_1.c **** 
1730:.\Generated_Source\PSoC5/USBUART_1.c ****             /* Get number of data elements to transfer for descriptor 0 and 1. */
1731:.\Generated_Source\PSoC5/USBUART_1.c ****             lengthDescr0 = (1u == USBUART_1_DmaEpBurstCnt[epNumber]) ? USBUART_1_DmaEpLastBurstEl[e
1732:.\Generated_Source\PSoC5/USBUART_1.c ****             lengthDescr1 = (2u == USBUART_1_DmaEpBurstCnt[epNumber]) ? USBUART_1_DmaEpLastBurstEl[e
1733:.\Generated_Source\PSoC5/USBUART_1.c **** 
1734:.\Generated_Source\PSoC5/USBUART_1.c ****             /* Mark if revert number of data elements in descriptor after transfer completion. */
1735:.\Generated_Source\PSoC5/USBUART_1.c ****             USBUART_1_DmaEpLastBurstEl[epNumber] |= (USBUART_1_DmaEpBurstCnt[epNumber] > 2u) ? USBU
1736:.\Generated_Source\PSoC5/USBUART_1.c **** 
1737:.\Generated_Source\PSoC5/USBUART_1.c ****             /* Mark last descriptor to be executed. */
1738:.\Generated_Source\PSoC5/USBUART_1.c ****             USBUART_1_DmaEpLastBurstEl[epNumber] |= (0u != (USBUART_1_DmaEpBurstCnt[epNumber] & 0x1
1739:.\Generated_Source\PSoC5/USBUART_1.c ****                                                                     USBUART_1_DMA_DESCR0_MASK : USB
1740:.\Generated_Source\PSoC5/USBUART_1.c **** 
1741:.\Generated_Source\PSoC5/USBUART_1.c ****             /* Adjust burst counter taking to account: 2 valid descriptors and interrupt trigger af
1742:.\Generated_Source\PSoC5/USBUART_1.c ****             USBUART_1_DmaEpBurstCnt[epNumber] = USBUART_1_DMA_GET_BURST_CNT(USBUART_1_DmaEpBurstCnt
1743:.\Generated_Source\PSoC5/USBUART_1.c **** 
1744:.\Generated_Source\PSoC5/USBUART_1.c ****             /* Store address of buffer and burst counter for endpoint. */
1745:.\Generated_Source\PSoC5/USBUART_1.c ****             USBUART_1_DmaEpBufferAddrBackup[epNumber] = (uint32) pData;
1746:.\Generated_Source\PSoC5/USBUART_1.c ****             USBUART_1_DmaEpBurstCntBackup[epNumber]   = USBUART_1_DmaEpBurstCnt[epNumber];
1747:.\Generated_Source\PSoC5/USBUART_1.c **** 
1748:.\Generated_Source\PSoC5/USBUART_1.c ****             /* Disable DMA channel: start configuration. */
1749:.\Generated_Source\PSoC5/USBUART_1.c ****             USBUART_1_CyDmaChDisable(channelNum);
1750:.\Generated_Source\PSoC5/USBUART_1.c **** 
1751:.\Generated_Source\PSoC5/USBUART_1.c ****             /* Set destination address. */
1752:.\Generated_Source\PSoC5/USBUART_1.c ****             USBUART_1_CyDmaSetSrcAddress(channelNum, USBUART_1_DMA_DESCR0, (void*) &USBUART_1_ARB_E
1753:.\Generated_Source\PSoC5/USBUART_1.c ****             USBUART_1_CyDmaSetSrcAddress(channelNum, USBUART_1_DMA_DESCR1, (void*) &USBUART_1_ARB_E
1754:.\Generated_Source\PSoC5/USBUART_1.c **** 
1755:.\Generated_Source\PSoC5/USBUART_1.c ****             USBUART_1_CyDmaSetDstAddress(channelNum, USBUART_1_DMA_DESCR0, (void*) ((uint32) pData)
1756:.\Generated_Source\PSoC5/USBUART_1.c ****             USBUART_1_CyDmaSetDstAddress(channelNum, USBUART_1_DMA_DESCR1, (void*) ((uint32) pData 
1757:.\Generated_Source\PSoC5/USBUART_1.c **** 
1758:.\Generated_Source\PSoC5/USBUART_1.c ****             /* Configure DMA descriptor. */
1759:.\Generated_Source\PSoC5/USBUART_1.c ****             USBUART_1_CyDmaSetConfiguration(channelNum, USBUART_1_DMA_DESCR0, USBUART_1_DMA_COMMON_
1760:.\Generated_Source\PSoC5/USBUART_1.c ****                                                     CYDMA_BYTE | CYDMA_WORD_ELEMENT | CYDMA_INC_DST
1761:.\Generated_Source\PSoC5/USBUART_1.c **** 
1762:.\Generated_Source\PSoC5/USBUART_1.c ****             /* Configure DMA descriptor. */
1763:.\Generated_Source\PSoC5/USBUART_1.c ****             USBUART_1_CyDmaSetConfiguration(channelNum, USBUART_1_DMA_DESCR1, USBUART_1_DMA_COMMON_
1764:.\Generated_Source\PSoC5/USBUART_1.c ****                                                     CYDMA_BYTE | CYDMA_WORD_ELEMENT | CYDMA_INC_DST
1765:.\Generated_Source\PSoC5/USBUART_1.c **** 
1766:.\Generated_Source\PSoC5/USBUART_1.c ****             /* Enable interrupt from DMA channel. */
1767:.\Generated_Source\PSoC5/USBUART_1.c ****             USBUART_1_CyDmaSetInterruptMask(channelNum);
1768:.\Generated_Source\PSoC5/USBUART_1.c **** 
1769:.\Generated_Source\PSoC5/USBUART_1.c ****             /* Validate DMA descriptor 0 and 1. */
1770:.\Generated_Source\PSoC5/USBUART_1.c ****             USBUART_1_CyDmaValidateDescriptor(channelNum, USBUART_1_DMA_DESCR0);
1771:.\Generated_Source\PSoC5/USBUART_1.c ****             USBUART_1_CyDmaValidateDescriptor(channelNum, USBUART_1_DMA_DESCR1);
1772:.\Generated_Source\PSoC5/USBUART_1.c **** 
1773:.\Generated_Source\PSoC5/USBUART_1.c ****             /* Enable DMA channel: configuration complete. */
1774:.\Generated_Source\PSoC5/USBUART_1.c ****             USBUART_1_CyDmaChEnable(channelNum);
1775:.\Generated_Source\PSoC5/USBUART_1.c ****         }
1776:.\Generated_Source\PSoC5/USBUART_1.c ****         #else
1777:.\Generated_Source\PSoC5/USBUART_1.c ****             (void) CyDmaChDisable(USBUART_1_DmaChan[epNumber]);
1778:.\Generated_Source\PSoC5/USBUART_1.c ****             (void) CyDmaTdSetConfiguration(USBUART_1_DmaTd[epNumber], length,  USBUART_1_DmaTd[epNu
1779:.\Generated_Source\PSoC5/USBUART_1.c ****             (void) CyDmaTdSetAddress(USBUART_1_DmaTd[epNumber], LO16((uint32) &USBUART_1_ARB_EP_BAS
1780:.\Generated_Source\PSoC5/USBUART_1.c **** 
1781:.\Generated_Source\PSoC5/USBUART_1.c ****             /* Clear Any potential pending DMA requests before starting DMA channel to transfer dat
1782:.\Generated_Source\PSoC5/USBUART_1.c ****             (void) CyDmaClearPendingDrq(USBUART_1_DmaChan[epNumber]);
ARM GAS  C:\Users\Thomas\AppData\Local\Temp\ccHSNeoG.s 			page 48


1783:.\Generated_Source\PSoC5/USBUART_1.c **** 
1784:.\Generated_Source\PSoC5/USBUART_1.c ****             /* Enable DMA channel. */
1785:.\Generated_Source\PSoC5/USBUART_1.c ****             (void) CyDmaChSetInitialTd(USBUART_1_DmaChan[epNumber], USBUART_1_DmaTd[epNumber]);
1786:.\Generated_Source\PSoC5/USBUART_1.c ****             (void) CyDmaChEnable(USBUART_1_DmaChan[epNumber], 1u);
1787:.\Generated_Source\PSoC5/USBUART_1.c ****         #endif /* (CY_PSOC4) */
1788:.\Generated_Source\PSoC5/USBUART_1.c **** 
1789:.\Generated_Source\PSoC5/USBUART_1.c ****             /* OUT endpoint has to be armed again by user when DMA transfers have been completed.
1790:.\Generated_Source\PSoC5/USBUART_1.c ****             * NO_EVENT_PENDING: notifies that data has been copied from endpoint buffer.
1791:.\Generated_Source\PSoC5/USBUART_1.c ****             */
1792:.\Generated_Source\PSoC5/USBUART_1.c **** 
1793:.\Generated_Source\PSoC5/USBUART_1.c ****         #endif /* (USBUART_1_EP_MANAGEMENT_DMA_AUTO) */
1794:.\Generated_Source\PSoC5/USBUART_1.c ****     #endif /* (USBUART_1_EP_MANAGEMENT_MANUAL) */
1795:.\Generated_Source\PSoC5/USBUART_1.c ****     }
1796:.\Generated_Source\PSoC5/USBUART_1.c ****     else
1797:.\Generated_Source\PSoC5/USBUART_1.c ****     {
1798:.\Generated_Source\PSoC5/USBUART_1.c ****         length = 0u;
1799:.\Generated_Source\PSoC5/USBUART_1.c ****     }
1800:.\Generated_Source\PSoC5/USBUART_1.c **** 
1801:.\Generated_Source\PSoC5/USBUART_1.c ****     return (length);
1802:.\Generated_Source\PSoC5/USBUART_1.c **** }
1803:.\Generated_Source\PSoC5/USBUART_1.c **** 
1804:.\Generated_Source\PSoC5/USBUART_1.c **** 
1805:.\Generated_Source\PSoC5/USBUART_1.c **** #if (USBUART_1_16BITS_EP_ACCESS_ENABLE)
1806:.\Generated_Source\PSoC5/USBUART_1.c **** /*******************************************************************************
1807:.\Generated_Source\PSoC5/USBUART_1.c **** * Function Name: USBUART_1_LoadInEP16
1808:.\Generated_Source\PSoC5/USBUART_1.c **** ****************************************************************************//**
1809:.\Generated_Source\PSoC5/USBUART_1.c **** *
1810:.\Generated_Source\PSoC5/USBUART_1.c **** *  This function performs different functionality depending on the Component’s
1811:.\Generated_Source\PSoC5/USBUART_1.c **** *  configured Endpoint Buffer Management. This parameter is defined in
1812:.\Generated_Source\PSoC5/USBUART_1.c **** *  the Descriptor Root in Component Configure window.
1813:.\Generated_Source\PSoC5/USBUART_1.c **** *
1814:.\Generated_Source\PSoC5/USBUART_1.c **** *  *Manual (Static/Dynamic Allocation):*
1815:.\Generated_Source\PSoC5/USBUART_1.c **** *  This function loads and enables the specified USB data endpoint for an IN
1816:.\Generated_Source\PSoC5/USBUART_1.c **** *  data transfer.
1817:.\Generated_Source\PSoC5/USBUART_1.c **** *
1818:.\Generated_Source\PSoC5/USBUART_1.c **** *  *DMA with Manual Buffer Management:*
1819:.\Generated_Source\PSoC5/USBUART_1.c **** *  Configures DMA for a data transfer from system RAM to endpoint buffer.
1820:.\Generated_Source\PSoC5/USBUART_1.c **** *  Generates request for a transfer.
1821:.\Generated_Source\PSoC5/USBUART_1.c **** *
1822:.\Generated_Source\PSoC5/USBUART_1.c **** *  *DMA with Automatic Buffer Management:*
1823:.\Generated_Source\PSoC5/USBUART_1.c **** *  Configures DMA. This is required only once, so it is done only when parameter
1824:.\Generated_Source\PSoC5/USBUART_1.c **** *  pData is not NULL. When the pData pointer is NULL, the function skips this
1825:.\Generated_Source\PSoC5/USBUART_1.c **** *  task. Sets Data ready status: This generates the first DMA transfer and
1826:.\Generated_Source\PSoC5/USBUART_1.c **** *  prepares data in endpoint buffer.
1827:.\Generated_Source\PSoC5/USBUART_1.c **** *
1828:.\Generated_Source\PSoC5/USBUART_1.c **** *  \param epNumber Contains the data endpoint number.
1829:.\Generated_Source\PSoC5/USBUART_1.c **** *        Valid values are between 1 and 8.
1830:.\Generated_Source\PSoC5/USBUART_1.c **** *  \param *pData A pointer to a data array from which the data for the endpoint
1831:.\Generated_Source\PSoC5/USBUART_1.c **** *        space is loaded. It shall be ensured that this pointer address is even
1832:.\Generated_Source\PSoC5/USBUART_1.c **** *        to ensure the 16-bit transfer is aligned to even address. Else, a hard
1833:.\Generated_Source\PSoC5/USBUART_1.c **** *        fault condition can occur.
1834:.\Generated_Source\PSoC5/USBUART_1.c **** *  \param length The number of bytes to transfer from the array and then send as
1835:.\Generated_Source\PSoC5/USBUART_1.c **** *        a result of an IN request. Valid values are between 0 and 512 (1023 for
1836:.\Generated_Source\PSoC5/USBUART_1.c **** *        DMA with Automatic Buffer Management mode). The value 512 is applicable
1837:.\Generated_Source\PSoC5/USBUART_1.c **** *        if only one endpoint is used.
1838:.\Generated_Source\PSoC5/USBUART_1.c **** *
1839:.\Generated_Source\PSoC5/USBUART_1.c **** * \reentrant
ARM GAS  C:\Users\Thomas\AppData\Local\Temp\ccHSNeoG.s 			page 49


1840:.\Generated_Source\PSoC5/USBUART_1.c **** *  No.
1841:.\Generated_Source\PSoC5/USBUART_1.c **** *
1842:.\Generated_Source\PSoC5/USBUART_1.c **** *******************************************************************************/
1843:.\Generated_Source\PSoC5/USBUART_1.c **** void USBUART_1_LoadInEP16(uint8 epNumber, const uint8 pData[], uint16 length)
1844:.\Generated_Source\PSoC5/USBUART_1.c **** {
1845:.\Generated_Source\PSoC5/USBUART_1.c ****     /* Check array alignment on half-word boundary. */
1846:.\Generated_Source\PSoC5/USBUART_1.c ****     CYASSERT(0u == (((uint32) pData) & 0x01u));
1847:.\Generated_Source\PSoC5/USBUART_1.c **** 
1848:.\Generated_Source\PSoC5/USBUART_1.c ****     if ((epNumber > USBUART_1_EP0) && (epNumber < USBUART_1_MAX_EP))
1849:.\Generated_Source\PSoC5/USBUART_1.c ****     {
1850:.\Generated_Source\PSoC5/USBUART_1.c ****     #if (!USBUART_1_EP_MANAGEMENT_DMA_AUTO)
1851:.\Generated_Source\PSoC5/USBUART_1.c ****         /* Limit length to available buffer USB IP buffer size. */
1852:.\Generated_Source\PSoC5/USBUART_1.c ****         if (length > (USBUART_1_EPX_DATA_BUF_MAX - USBUART_1_EP[epNumber].buffOffset))
1853:.\Generated_Source\PSoC5/USBUART_1.c ****         {
1854:.\Generated_Source\PSoC5/USBUART_1.c ****             length = USBUART_1_EPX_DATA_BUF_MAX - USBUART_1_EP[epNumber].buffOffset;
1855:.\Generated_Source\PSoC5/USBUART_1.c ****         }
1856:.\Generated_Source\PSoC5/USBUART_1.c ****     #endif /* (!USBUART_1_EP_MANAGEMENT_DMA_AUTO) */
1857:.\Generated_Source\PSoC5/USBUART_1.c **** 
1858:.\Generated_Source\PSoC5/USBUART_1.c ****         /* Set count and data toggle. */
1859:.\Generated_Source\PSoC5/USBUART_1.c ****         USBUART_1_SIE_EP_BASE.sieEp[epNumber].epCnt0 = (uint32) HI8(length) | USBUART_1_EP[epNumber
1860:.\Generated_Source\PSoC5/USBUART_1.c ****         USBUART_1_SIE_EP_BASE.sieEp[epNumber].epCnt1 = (uint32) LO8(length);
1861:.\Generated_Source\PSoC5/USBUART_1.c **** 
1862:.\Generated_Source\PSoC5/USBUART_1.c ****         /* Adjust requested length: 2 bytes are handled at one data register access. */
1863:.\Generated_Source\PSoC5/USBUART_1.c ****         length += (length & 0x01u);
1864:.\Generated_Source\PSoC5/USBUART_1.c **** 
1865:.\Generated_Source\PSoC5/USBUART_1.c ****     #if (USBUART_1_EP_MANAGEMENT_MANUAL)
1866:.\Generated_Source\PSoC5/USBUART_1.c ****         if (NULL != pData)
1867:.\Generated_Source\PSoC5/USBUART_1.c ****         {
1868:.\Generated_Source\PSoC5/USBUART_1.c ****             /* Convert uint8 array to uint16. */
1869:.\Generated_Source\PSoC5/USBUART_1.c ****             const uint16 *dataBuf = (uint16 *) pData;
1870:.\Generated_Source\PSoC5/USBUART_1.c **** 
1871:.\Generated_Source\PSoC5/USBUART_1.c ****             /* Copy data using 16-bits arbiter data register. */
1872:.\Generated_Source\PSoC5/USBUART_1.c ****             uint16 i;
1873:.\Generated_Source\PSoC5/USBUART_1.c ****             for (i = 0u; i < (length >> 1u); ++i)
1874:.\Generated_Source\PSoC5/USBUART_1.c ****             {
1875:.\Generated_Source\PSoC5/USBUART_1.c ****                 USBUART_1_ARB_EP16_BASE.arbEp[epNumber].rwDr16 = dataBuf[i];
1876:.\Generated_Source\PSoC5/USBUART_1.c ****             }
1877:.\Generated_Source\PSoC5/USBUART_1.c ****         }
1878:.\Generated_Source\PSoC5/USBUART_1.c **** 
1879:.\Generated_Source\PSoC5/USBUART_1.c ****         /* IN endpoint buffer is full - read to be read. */
1880:.\Generated_Source\PSoC5/USBUART_1.c ****         USBUART_1_EP[epNumber].apiEpState = USBUART_1_NO_EVENT_PENDING;
1881:.\Generated_Source\PSoC5/USBUART_1.c **** 
1882:.\Generated_Source\PSoC5/USBUART_1.c ****         /* Arm IN endpoint. */
1883:.\Generated_Source\PSoC5/USBUART_1.c ****         USBUART_1_SIE_EP_BASE.sieEp[epNumber].epCr0 = USBUART_1_EP[epNumber].epMode;
1884:.\Generated_Source\PSoC5/USBUART_1.c **** 
1885:.\Generated_Source\PSoC5/USBUART_1.c ****     #else
1886:.\Generated_Source\PSoC5/USBUART_1.c **** 
1887:.\Generated_Source\PSoC5/USBUART_1.c ****         #if (USBUART_1_EP_MANAGEMENT_DMA_MANUAL)
1888:.\Generated_Source\PSoC5/USBUART_1.c ****             /* IN endpoint buffer will be fully loaded by DMA shortly. */
1889:.\Generated_Source\PSoC5/USBUART_1.c ****             USBUART_1_EP[epNumber].apiEpState = USBUART_1_NO_EVENT_PENDING;
1890:.\Generated_Source\PSoC5/USBUART_1.c **** 
1891:.\Generated_Source\PSoC5/USBUART_1.c ****             if ((pData != NULL) && (length > 0u))
1892:.\Generated_Source\PSoC5/USBUART_1.c ****             {
1893:.\Generated_Source\PSoC5/USBUART_1.c ****                 uint32 channelNum = (uint32) USBUART_1_DmaChan[epNumber];
1894:.\Generated_Source\PSoC5/USBUART_1.c **** 
1895:.\Generated_Source\PSoC5/USBUART_1.c ****                 /* Disable DMA channel: start configuration. */
1896:.\Generated_Source\PSoC5/USBUART_1.c ****                 USBUART_1_CyDmaChDisable(channelNum);
ARM GAS  C:\Users\Thomas\AppData\Local\Temp\ccHSNeoG.s 			page 50


1897:.\Generated_Source\PSoC5/USBUART_1.c **** 
1898:.\Generated_Source\PSoC5/USBUART_1.c ****                 /* Configure source and destination. */
1899:.\Generated_Source\PSoC5/USBUART_1.c ****                 USBUART_1_CyDmaSetSrcAddress(channelNum, USBUART_1_DMA_DESCR0, (void*) pData);
1900:.\Generated_Source\PSoC5/USBUART_1.c ****                 USBUART_1_CyDmaSetDstAddress(channelNum, USBUART_1_DMA_DESCR0, (void*) &USBUART_1_A
1901:.\Generated_Source\PSoC5/USBUART_1.c **** 
1902:.\Generated_Source\PSoC5/USBUART_1.c ****                 /* Configure DMA descriptor. */
1903:.\Generated_Source\PSoC5/USBUART_1.c ****                 length = (length >> 1u) - 1u;
1904:.\Generated_Source\PSoC5/USBUART_1.c ****                 USBUART_1_CyDmaSetConfiguration(channelNum, USBUART_1_DMA_DESCR0, USBUART_1_DMA_COM
1905:.\Generated_Source\PSoC5/USBUART_1.c ****                                                         CYDMA_HALFWORD | CYDMA_ELEMENT_WORD | CYDMA
1906:.\Generated_Source\PSoC5/USBUART_1.c **** 
1907:.\Generated_Source\PSoC5/USBUART_1.c ****                 /* Validate descriptor to execute on following DMA request. */
1908:.\Generated_Source\PSoC5/USBUART_1.c ****                 USBUART_1_CyDmaValidateDescriptor(channelNum, USBUART_1_DMA_DESCR0);
1909:.\Generated_Source\PSoC5/USBUART_1.c **** 
1910:.\Generated_Source\PSoC5/USBUART_1.c ****                 /* Enable DMA channel: configuration complete. */
1911:.\Generated_Source\PSoC5/USBUART_1.c ****                 USBUART_1_CyDmaChEnable(channelNum);
1912:.\Generated_Source\PSoC5/USBUART_1.c **** 
1913:.\Generated_Source\PSoC5/USBUART_1.c ****                 /* Generate DMA request. */
1914:.\Generated_Source\PSoC5/USBUART_1.c ****                 USBUART_1_ARB_EP_BASE.arbEp[epNumber].epCfg |=  (uint32)  USBUART_1_ARB_EPX_CFG_DMA
1915:.\Generated_Source\PSoC5/USBUART_1.c ****                 USBUART_1_ARB_EP_BASE.arbEp[epNumber].epCfg &=  (uint32) ~USBUART_1_ARB_EPX_CFG_DMA
1916:.\Generated_Source\PSoC5/USBUART_1.c **** 
1917:.\Generated_Source\PSoC5/USBUART_1.c ****                 /* IN endpoint will be armed in ARB_ISR(source: IN_BUF_FULL) after first DMA transf
1918:.\Generated_Source\PSoC5/USBUART_1.c ****             }
1919:.\Generated_Source\PSoC5/USBUART_1.c ****             else
1920:.\Generated_Source\PSoC5/USBUART_1.c ****             {
1921:.\Generated_Source\PSoC5/USBUART_1.c ****                 /* When zero-length packet: arm IN endpoint directly. */
1922:.\Generated_Source\PSoC5/USBUART_1.c ****                 USBUART_1_SIE_EP_BASE.sieEp[epNumber].epCr0 = USBUART_1_EP[epNumber].epMode;
1923:.\Generated_Source\PSoC5/USBUART_1.c ****             }
1924:.\Generated_Source\PSoC5/USBUART_1.c ****         #endif /* (USBUART_1_EP_MANAGEMENT_DMA_MANUAL) */
1925:.\Generated_Source\PSoC5/USBUART_1.c **** 
1926:.\Generated_Source\PSoC5/USBUART_1.c ****         #if (USBUART_1_EP_MANAGEMENT_DMA_AUTO)
1927:.\Generated_Source\PSoC5/USBUART_1.c ****             if (pData != NULL)
1928:.\Generated_Source\PSoC5/USBUART_1.c ****             {
1929:.\Generated_Source\PSoC5/USBUART_1.c ****                 uint32 channelNum = (uint32) USBUART_1_DmaChan[epNumber];
1930:.\Generated_Source\PSoC5/USBUART_1.c **** 
1931:.\Generated_Source\PSoC5/USBUART_1.c ****                 /* Store address of buffer. */
1932:.\Generated_Source\PSoC5/USBUART_1.c ****                 USBUART_1_DmaEpBufferAddrBackup[epNumber] = (uint32) pData;
1933:.\Generated_Source\PSoC5/USBUART_1.c **** 
1934:.\Generated_Source\PSoC5/USBUART_1.c ****                 /* Disable DMA channel: start configuration. */
1935:.\Generated_Source\PSoC5/USBUART_1.c ****                 USBUART_1_CyDmaChDisable(channelNum);
1936:.\Generated_Source\PSoC5/USBUART_1.c **** 
1937:.\Generated_Source\PSoC5/USBUART_1.c ****                 /* Set destination address. */
1938:.\Generated_Source\PSoC5/USBUART_1.c ****                 USBUART_1_CyDmaSetDstAddress(channelNum, USBUART_1_DMA_DESCR0, (void*) &USBUART_1_A
1939:.\Generated_Source\PSoC5/USBUART_1.c ****                 USBUART_1_CyDmaSetDstAddress(channelNum, USBUART_1_DMA_DESCR1, (void*) &USBUART_1_A
1940:.\Generated_Source\PSoC5/USBUART_1.c **** 
1941:.\Generated_Source\PSoC5/USBUART_1.c ****                 /* Configure DMA descriptor. */
1942:.\Generated_Source\PSoC5/USBUART_1.c ****                 USBUART_1_CyDmaSetConfiguration(channelNum, USBUART_1_DMA_DESCR0, USBUART_1_DMA_COM
1943:.\Generated_Source\PSoC5/USBUART_1.c ****                                                         CYDMA_HALFWORD | CYDMA_ELEMENT_WORD | CYDMA
1944:.\Generated_Source\PSoC5/USBUART_1.c **** 
1945:.\Generated_Source\PSoC5/USBUART_1.c ****                 /* Configure DMA descriptor. */
1946:.\Generated_Source\PSoC5/USBUART_1.c ****                 USBUART_1_CyDmaSetConfiguration(channelNum, USBUART_1_DMA_DESCR1, USBUART_1_DMA_COM
1947:.\Generated_Source\PSoC5/USBUART_1.c ****                                                         CYDMA_HALFWORD | CYDMA_ELEMENT_WORD | CYDMA
1948:.\Generated_Source\PSoC5/USBUART_1.c **** 
1949:.\Generated_Source\PSoC5/USBUART_1.c ****                 /* Enable interrupt from DMA channel. */
1950:.\Generated_Source\PSoC5/USBUART_1.c ****                 USBUART_1_CyDmaSetInterruptMask(channelNum);
1951:.\Generated_Source\PSoC5/USBUART_1.c **** 
1952:.\Generated_Source\PSoC5/USBUART_1.c ****                 /* Validate descriptor 1. It will not be invalided during operation. */
1953:.\Generated_Source\PSoC5/USBUART_1.c ****                 USBUART_1_CyDmaValidateDescriptor(channelNum, USBUART_1_DMA_DESCR1);
ARM GAS  C:\Users\Thomas\AppData\Local\Temp\ccHSNeoG.s 			page 51


1954:.\Generated_Source\PSoC5/USBUART_1.c **** 
1955:.\Generated_Source\PSoC5/USBUART_1.c ****                 /* Enable DMA channel: configuration complete. */
1956:.\Generated_Source\PSoC5/USBUART_1.c ****                 USBUART_1_CyDmaChEnable(channelNum);
1957:.\Generated_Source\PSoC5/USBUART_1.c ****             }
1958:.\Generated_Source\PSoC5/USBUART_1.c ****             else
1959:.\Generated_Source\PSoC5/USBUART_1.c ****             {
1960:.\Generated_Source\PSoC5/USBUART_1.c ****                 /* IN endpoint buffer (32 bytes) will shortly be preloaded by DMA. */
1961:.\Generated_Source\PSoC5/USBUART_1.c ****                 USBUART_1_EP[epNumber].apiEpState = USBUART_1_NO_EVENT_PENDING;
1962:.\Generated_Source\PSoC5/USBUART_1.c **** 
1963:.\Generated_Source\PSoC5/USBUART_1.c ****                 if (length > 0u)
1964:.\Generated_Source\PSoC5/USBUART_1.c ****                 {
1965:.\Generated_Source\PSoC5/USBUART_1.c ****                     uint32 lengthDescr0, lengthDescr1;
1966:.\Generated_Source\PSoC5/USBUART_1.c ****                     uint32 channelNum = (uint32) USBUART_1_DmaChan[epNumber];
1967:.\Generated_Source\PSoC5/USBUART_1.c **** 
1968:.\Generated_Source\PSoC5/USBUART_1.c ****                     /* Get number of full bursts. */
1969:.\Generated_Source\PSoC5/USBUART_1.c ****                     USBUART_1_DmaEpBurstCnt[epNumber] = (uint8) (length / USBUART_1_DMA_BYTES_PER_B
1970:.\Generated_Source\PSoC5/USBUART_1.c **** 
1971:.\Generated_Source\PSoC5/USBUART_1.c ****                     /* Get number of elements in the last burst. */
1972:.\Generated_Source\PSoC5/USBUART_1.c ****                     USBUART_1_DmaEpLastBurstEl[epNumber] = (uint8) (length % USBUART_1_DMA_BYTES_PE
1973:.\Generated_Source\PSoC5/USBUART_1.c **** 
1974:.\Generated_Source\PSoC5/USBUART_1.c ****                     /* Get total number of bursts. */
1975:.\Generated_Source\PSoC5/USBUART_1.c ****                     USBUART_1_DmaEpBurstCnt[epNumber] += (0u != USBUART_1_DmaEpLastBurstEl[epNumber
1976:.\Generated_Source\PSoC5/USBUART_1.c **** 
1977:.\Generated_Source\PSoC5/USBUART_1.c ****                     /* Adjust number of data elements transferred in last burst. */
1978:.\Generated_Source\PSoC5/USBUART_1.c ****                     USBUART_1_DmaEpLastBurstEl[epNumber] = (0u != USBUART_1_DmaEpLastBurstEl[epNumb
1979:.\Generated_Source\PSoC5/USBUART_1.c ****                                                                           ((USBUART_1_DmaEpLastBurs
1980:.\Generated_Source\PSoC5/USBUART_1.c ****                                                                            (USBUART_1_DMA_HALFWORDS
1981:.\Generated_Source\PSoC5/USBUART_1.c **** 
1982:.\Generated_Source\PSoC5/USBUART_1.c ****                     /* Get number of data elements to transfer for descriptor 0 and 1. */
1983:.\Generated_Source\PSoC5/USBUART_1.c ****                     lengthDescr0 = (1u == USBUART_1_DmaEpBurstCnt[epNumber]) ? USBUART_1_DmaEpLastB
1984:.\Generated_Source\PSoC5/USBUART_1.c ****                     lengthDescr1 = (2u == USBUART_1_DmaEpBurstCnt[epNumber]) ? USBUART_1_DmaEpLastB
1985:.\Generated_Source\PSoC5/USBUART_1.c **** 
1986:.\Generated_Source\PSoC5/USBUART_1.c ****                     /* Mark which descriptor is last one to execute. */
1987:.\Generated_Source\PSoC5/USBUART_1.c ****                     USBUART_1_DmaEpLastBurstEl[epNumber] |= (0u != (USBUART_1_DmaEpBurstCnt[epNumbe
1988:.\Generated_Source\PSoC5/USBUART_1.c ****                                                                             USBUART_1_DMA_DESCR0_MA
1989:.\Generated_Source\PSoC5/USBUART_1.c **** 
1990:.\Generated_Source\PSoC5/USBUART_1.c ****                     /* Adjust burst counter taking to account: 2 valid descriptors and interrupt tr
1991:.\Generated_Source\PSoC5/USBUART_1.c ****                     USBUART_1_DmaEpBurstCnt[epNumber] = USBUART_1_DMA_GET_BURST_CNT(USBUART_1_DmaEp
1992:.\Generated_Source\PSoC5/USBUART_1.c **** 
1993:.\Generated_Source\PSoC5/USBUART_1.c ****                     /* Restore DMA settings for current transfer. */
1994:.\Generated_Source\PSoC5/USBUART_1.c ****                     USBUART_1_CyDmaChDisable(channelNum);
1995:.\Generated_Source\PSoC5/USBUART_1.c **** 
1996:.\Generated_Source\PSoC5/USBUART_1.c ****                     /* Restore destination address for input endpoint. */
1997:.\Generated_Source\PSoC5/USBUART_1.c ****                     USBUART_1_CyDmaSetSrcAddress(channelNum, USBUART_1_DMA_DESCR0, (void*) ((uint32
1998:.\Generated_Source\PSoC5/USBUART_1.c ****                     USBUART_1_CyDmaSetSrcAddress(channelNum, USBUART_1_DMA_DESCR1, (void*) ((uint32
1999:.\Generated_Source\PSoC5/USBUART_1.c ****                                                                                                    
2000:.\Generated_Source\PSoC5/USBUART_1.c **** 
2001:.\Generated_Source\PSoC5/USBUART_1.c ****                     /* Set number of elements to transfer. */
2002:.\Generated_Source\PSoC5/USBUART_1.c ****                     USBUART_1_CyDmaSetNumDataElements(channelNum, USBUART_1_DMA_DESCR0, lengthDescr
2003:.\Generated_Source\PSoC5/USBUART_1.c ****                     USBUART_1_CyDmaSetNumDataElements(channelNum, USBUART_1_DMA_DESCR1, lengthDescr
2004:.\Generated_Source\PSoC5/USBUART_1.c **** 
2005:.\Generated_Source\PSoC5/USBUART_1.c ****                     /* Validate descriptor 0 and command to start with it. */
2006:.\Generated_Source\PSoC5/USBUART_1.c ****                     USBUART_1_CyDmaValidateDescriptor(channelNum, USBUART_1_DMA_DESCR0);
2007:.\Generated_Source\PSoC5/USBUART_1.c ****                     USBUART_1_CyDmaSetDescriptor0Next(channelNum);
2008:.\Generated_Source\PSoC5/USBUART_1.c **** 
2009:.\Generated_Source\PSoC5/USBUART_1.c ****                     /* Enable DMA channel: configuration complete. */
2010:.\Generated_Source\PSoC5/USBUART_1.c ****                     USBUART_1_CyDmaChEnable(channelNum);
ARM GAS  C:\Users\Thomas\AppData\Local\Temp\ccHSNeoG.s 			page 52


2011:.\Generated_Source\PSoC5/USBUART_1.c **** 
2012:.\Generated_Source\PSoC5/USBUART_1.c ****                 #if !defined (USBUART_1_MANUAL_IN_EP_ARM)
2013:.\Generated_Source\PSoC5/USBUART_1.c ****                     /* Set IN data ready to generate DMA request to load data into endpoint buffer.
2014:.\Generated_Source\PSoC5/USBUART_1.c ****                     USBUART_1_ARB_EP_BASE.arbEp[epNumber].epCfg |= USBUART_1_ARB_EPX_CFG_IN_DATA_RD
2015:.\Generated_Source\PSoC5/USBUART_1.c ****                 #endif  /* (USBUART_1_MANUAL_IN_EP_ARM) */
2016:.\Generated_Source\PSoC5/USBUART_1.c **** 
2017:.\Generated_Source\PSoC5/USBUART_1.c ****                     /* IN endpoint will be armed in ARB_ISR(source: IN_BUF_FULL) after first DMA tr
2018:.\Generated_Source\PSoC5/USBUART_1.c ****                 }
2019:.\Generated_Source\PSoC5/USBUART_1.c ****                 else
2020:.\Generated_Source\PSoC5/USBUART_1.c ****                 {
2021:.\Generated_Source\PSoC5/USBUART_1.c ****                     /* When zero-length packet: arm IN endpoint directly. */
2022:.\Generated_Source\PSoC5/USBUART_1.c ****                     USBUART_1_SIE_EP_BASE.sieEp[epNumber].epCr0 = USBUART_1_EP[epNumber].epMode;
2023:.\Generated_Source\PSoC5/USBUART_1.c ****                 }
2024:.\Generated_Source\PSoC5/USBUART_1.c ****             }
2025:.\Generated_Source\PSoC5/USBUART_1.c ****         #endif /* (USBUART_1_EP_MANAGEMENT_DMA_AUTO) */
2026:.\Generated_Source\PSoC5/USBUART_1.c ****     #endif /* (USBUART_1_EP_MANAGEMENT_MANUAL) */
2027:.\Generated_Source\PSoC5/USBUART_1.c ****     }
2028:.\Generated_Source\PSoC5/USBUART_1.c **** }
2029:.\Generated_Source\PSoC5/USBUART_1.c **** 
2030:.\Generated_Source\PSoC5/USBUART_1.c **** 
2031:.\Generated_Source\PSoC5/USBUART_1.c **** /*******************************************************************************
2032:.\Generated_Source\PSoC5/USBUART_1.c **** * Function Name: USBUART_1_ReadOutEP16
2033:.\Generated_Source\PSoC5/USBUART_1.c **** ****************************************************************************//**
2034:.\Generated_Source\PSoC5/USBUART_1.c **** *
2035:.\Generated_Source\PSoC5/USBUART_1.c **** *   This function performs different functionality depending on the Component’s
2036:.\Generated_Source\PSoC5/USBUART_1.c **** *   configured Endpoint Buffer Management. This parameter is defined in the
2037:.\Generated_Source\PSoC5/USBUART_1.c **** *   Descriptor Root in Component Configure window.
2038:.\Generated_Source\PSoC5/USBUART_1.c **** *
2039:.\Generated_Source\PSoC5/USBUART_1.c **** *   *Manual (Static/Dynamic Allocation):*
2040:.\Generated_Source\PSoC5/USBUART_1.c **** *   This function moves the specified number of bytes from endpoint buffer to
2041:.\Generated_Source\PSoC5/USBUART_1.c **** *   system RAM. The number of bytes actually transferred from endpoint buffer to
2042:.\Generated_Source\PSoC5/USBUART_1.c **** *   system RAM is the lesser of the actual number of bytes sent by the host or
2043:.\Generated_Source\PSoC5/USBUART_1.c **** *   the number of bytes requested by the length parameter.
2044:.\Generated_Source\PSoC5/USBUART_1.c **** *
2045:.\Generated_Source\PSoC5/USBUART_1.c **** *   *DMA with Manual Buffer Management:*
2046:.\Generated_Source\PSoC5/USBUART_1.c **** *   Configure DMA to transfer data from endpoint buffer to system RAM. Generate
2047:.\Generated_Source\PSoC5/USBUART_1.c **** *   a DMA request. The firmware must wait until the DMA completes the data
2048:.\Generated_Source\PSoC5/USBUART_1.c **** *   transfer after calling the USBUART_1_ReadOutEP() API. For example,
2049:.\Generated_Source\PSoC5/USBUART_1.c **** *   by checking EPstate:
2050:.\Generated_Source\PSoC5/USBUART_1.c **** *
2051:.\Generated_Source\PSoC5/USBUART_1.c **** *   \snippet /USBFS_sut_02.cydsn/main.c checking EPstatey
2052:.\Generated_Source\PSoC5/USBUART_1.c **** *
2053:.\Generated_Source\PSoC5/USBUART_1.c **** *   The USBFS_EnableOutEP() has to be called to allow host to write data into
2054:.\Generated_Source\PSoC5/USBUART_1.c **** *   the endpoint buffer after DMA has completed transfer data from OUT endpoint
2055:.\Generated_Source\PSoC5/USBUART_1.c **** *   buffer to SRAM.
2056:.\Generated_Source\PSoC5/USBUART_1.c **** *
2057:.\Generated_Source\PSoC5/USBUART_1.c **** *   *DMA with Automatic Buffer Management:*
2058:.\Generated_Source\PSoC5/USBUART_1.c **** *   Configure DMA. This is required only once and automatically generates DMA
2059:.\Generated_Source\PSoC5/USBUART_1.c **** *   requests as data arrives
2060:.\Generated_Source\PSoC5/USBUART_1.c **** *
2061:.\Generated_Source\PSoC5/USBUART_1.c **** *  \param epNumber: Contains the data endpoint number.
2062:.\Generated_Source\PSoC5/USBUART_1.c **** *         Valid values are between 1 and 8.
2063:.\Generated_Source\PSoC5/USBUART_1.c **** *  \param pData: A pointer to a data array into which the data for the endpoint
2064:.\Generated_Source\PSoC5/USBUART_1.c **** *         space is copied. It shall be ensured that this pointer address is
2065:.\Generated_Source\PSoC5/USBUART_1.c **** *         even to ensure the 16-bit transfer is aligned to even address. Else,
2066:.\Generated_Source\PSoC5/USBUART_1.c **** *         a hard fault condition can occur.
2067:.\Generated_Source\PSoC5/USBUART_1.c **** *  \param length: The number of bytes to transfer from the USB Out endpoint and
ARM GAS  C:\Users\Thomas\AppData\Local\Temp\ccHSNeoG.s 			page 53


2068:.\Generated_Source\PSoC5/USBUART_1.c **** *         loads it into data array. Valid values are between 0 and 1023. The
2069:.\Generated_Source\PSoC5/USBUART_1.c **** *         function moves fewer than the requested number of bytes if the host
2070:.\Generated_Source\PSoC5/USBUART_1.c **** *         sends fewer bytes than requested.
2071:.\Generated_Source\PSoC5/USBUART_1.c **** *
2072:.\Generated_Source\PSoC5/USBUART_1.c **** * \return
2073:.\Generated_Source\PSoC5/USBUART_1.c **** *  Number of bytes received, 0 for an invalid endpoint.
2074:.\Generated_Source\PSoC5/USBUART_1.c **** *
2075:.\Generated_Source\PSoC5/USBUART_1.c **** * \reentrant
2076:.\Generated_Source\PSoC5/USBUART_1.c **** *  No.
2077:.\Generated_Source\PSoC5/USBUART_1.c **** *
2078:.\Generated_Source\PSoC5/USBUART_1.c **** *******************************************************************************/
2079:.\Generated_Source\PSoC5/USBUART_1.c **** uint16 USBUART_1_ReadOutEP16(uint8 epNumber, uint8 pData[], uint16 length)
2080:.\Generated_Source\PSoC5/USBUART_1.c **** {
2081:.\Generated_Source\PSoC5/USBUART_1.c ****     uint32 adjLength;
2082:.\Generated_Source\PSoC5/USBUART_1.c **** 
2083:.\Generated_Source\PSoC5/USBUART_1.c ****     /* Check array alignment on half-word boundary */
2084:.\Generated_Source\PSoC5/USBUART_1.c ****     CYASSERT(0u == (((uint32) pData) & 0x01u));
2085:.\Generated_Source\PSoC5/USBUART_1.c **** 
2086:.\Generated_Source\PSoC5/USBUART_1.c ****     if ((pData != NULL) && (epNumber > USBUART_1_EP0) && (epNumber < USBUART_1_MAX_EP))
2087:.\Generated_Source\PSoC5/USBUART_1.c ****     {
2088:.\Generated_Source\PSoC5/USBUART_1.c ****     #if (!USBUART_1_EP_MANAGEMENT_DMA_AUTO)
2089:.\Generated_Source\PSoC5/USBUART_1.c ****         /* Adjust requested length to available data. */
2090:.\Generated_Source\PSoC5/USBUART_1.c ****         length = (length > USBUART_1_GetEPCount(epNumber)) ? USBUART_1_GetEPCount(epNumber) : lengt
2091:.\Generated_Source\PSoC5/USBUART_1.c ****     #endif /* (!USBUART_1_EP_MANAGEMENT_DMA_AUTO) */
2092:.\Generated_Source\PSoC5/USBUART_1.c **** 
2093:.\Generated_Source\PSoC5/USBUART_1.c ****     /* Adjust requested length: 2 bytes are handled at one data register access. */
2094:.\Generated_Source\PSoC5/USBUART_1.c ****     adjLength =  length + ((uint32)length & 1u);
2095:.\Generated_Source\PSoC5/USBUART_1.c **** 
2096:.\Generated_Source\PSoC5/USBUART_1.c ****     #if (USBUART_1_EP_MANAGEMENT_MANUAL)
2097:.\Generated_Source\PSoC5/USBUART_1.c ****         {
2098:.\Generated_Source\PSoC5/USBUART_1.c ****             /* Convert uint8 array to uint16. */
2099:.\Generated_Source\PSoC5/USBUART_1.c ****             uint16 *dataBuf = (uint16 *) pData;
2100:.\Generated_Source\PSoC5/USBUART_1.c **** 
2101:.\Generated_Source\PSoC5/USBUART_1.c ****             /* Copy data using 16-bits arbiter data register. */
2102:.\Generated_Source\PSoC5/USBUART_1.c ****             uint16 i;
2103:.\Generated_Source\PSoC5/USBUART_1.c ****             for (i = 0u; i < (adjLength >> 1u); ++i)
2104:.\Generated_Source\PSoC5/USBUART_1.c ****             {
2105:.\Generated_Source\PSoC5/USBUART_1.c ****                 dataBuf[i] = (uint16) USBUART_1_ARB_EP16_BASE.arbEp[epNumber].rwDr16;
2106:.\Generated_Source\PSoC5/USBUART_1.c ****             }
2107:.\Generated_Source\PSoC5/USBUART_1.c ****         }
2108:.\Generated_Source\PSoC5/USBUART_1.c **** 
2109:.\Generated_Source\PSoC5/USBUART_1.c ****         /* Arm OUT endpoint after data has been read from endpoint buffer. */
2110:.\Generated_Source\PSoC5/USBUART_1.c ****         USBUART_1_EnableOutEP(epNumber);
2111:.\Generated_Source\PSoC5/USBUART_1.c ****     #else
2112:.\Generated_Source\PSoC5/USBUART_1.c **** 
2113:.\Generated_Source\PSoC5/USBUART_1.c ****         #if (USBUART_1_EP_MANAGEMENT_DMA_MANUAL)
2114:.\Generated_Source\PSoC5/USBUART_1.c ****         {
2115:.\Generated_Source\PSoC5/USBUART_1.c ****             uint32 channelNum = (uint32) USBUART_1_DmaChan[epNumber];
2116:.\Generated_Source\PSoC5/USBUART_1.c **** 
2117:.\Generated_Source\PSoC5/USBUART_1.c ****             /* Disable DMA channel: start configuration. */
2118:.\Generated_Source\PSoC5/USBUART_1.c ****             USBUART_1_CyDmaChDisable(channelNum);
2119:.\Generated_Source\PSoC5/USBUART_1.c **** 
2120:.\Generated_Source\PSoC5/USBUART_1.c ****             /* Configure source and destination. */
2121:.\Generated_Source\PSoC5/USBUART_1.c ****             USBUART_1_CyDmaSetSrcAddress(channelNum, USBUART_1_DMA_DESCR0, (void*) &USBUART_1_ARB_E
2122:.\Generated_Source\PSoC5/USBUART_1.c ****             USBUART_1_CyDmaSetDstAddress(channelNum, USBUART_1_DMA_DESCR0, (void*) pData);
2123:.\Generated_Source\PSoC5/USBUART_1.c **** 
2124:.\Generated_Source\PSoC5/USBUART_1.c ****             /* Configure DMA descriptor. */
ARM GAS  C:\Users\Thomas\AppData\Local\Temp\ccHSNeoG.s 			page 54


2125:.\Generated_Source\PSoC5/USBUART_1.c ****             USBUART_1_CyDmaSetConfiguration(channelNum, USBUART_1_DMA_DESCR0, USBUART_1_DMA_COMMON_
2126:.\Generated_Source\PSoC5/USBUART_1.c ****                                                     CYDMA_HALFWORD | CYDMA_WORD_ELEMENT | CYDMA_INC
2127:.\Generated_Source\PSoC5/USBUART_1.c **** 
2128:.\Generated_Source\PSoC5/USBUART_1.c ****             /* Validate descriptor to execute on following DMA request. */
2129:.\Generated_Source\PSoC5/USBUART_1.c ****             USBUART_1_CyDmaValidateDescriptor(channelNum, USBUART_1_DMA_DESCR0);
2130:.\Generated_Source\PSoC5/USBUART_1.c **** 
2131:.\Generated_Source\PSoC5/USBUART_1.c ****             /* Enable DMA channel: configuration complete. */
2132:.\Generated_Source\PSoC5/USBUART_1.c ****             USBUART_1_CyDmaChEnable(channelNum);
2133:.\Generated_Source\PSoC5/USBUART_1.c **** 
2134:.\Generated_Source\PSoC5/USBUART_1.c ****             /* Generate DMA request. */
2135:.\Generated_Source\PSoC5/USBUART_1.c ****             USBUART_1_ARB_EP_BASE.arbEp[epNumber].epCfg |=  (uint32)  USBUART_1_ARB_EPX_CFG_DMA_REQ
2136:.\Generated_Source\PSoC5/USBUART_1.c ****             USBUART_1_ARB_EP_BASE.arbEp[epNumber].epCfg &=  (uint32) ~USBUART_1_ARB_EPX_CFG_DMA_REQ
2137:.\Generated_Source\PSoC5/USBUART_1.c **** 
2138:.\Generated_Source\PSoC5/USBUART_1.c ****             /* OUT endpoint has to be armed again by user when DMA transfers have been completed.
2139:.\Generated_Source\PSoC5/USBUART_1.c ****             * NO_EVENT_PENDING: notifies that data has been copied from endpoint buffer.
2140:.\Generated_Source\PSoC5/USBUART_1.c ****             */
2141:.\Generated_Source\PSoC5/USBUART_1.c ****         }
2142:.\Generated_Source\PSoC5/USBUART_1.c ****         #endif /* (USBUART_1_EP_MANAGEMENT_DMA_MANUAL) */
2143:.\Generated_Source\PSoC5/USBUART_1.c **** 
2144:.\Generated_Source\PSoC5/USBUART_1.c ****         #if (USBUART_1_EP_MANAGEMENT_DMA_AUTO)
2145:.\Generated_Source\PSoC5/USBUART_1.c ****         {
2146:.\Generated_Source\PSoC5/USBUART_1.c ****             uint32 lengthDescr0, lengthDescr1;
2147:.\Generated_Source\PSoC5/USBUART_1.c ****             uint32 channelNum = (uint32) USBUART_1_DmaChan[epNumber];
2148:.\Generated_Source\PSoC5/USBUART_1.c **** 
2149:.\Generated_Source\PSoC5/USBUART_1.c ****             /* Get number of full bursts. */
2150:.\Generated_Source\PSoC5/USBUART_1.c ****             USBUART_1_DmaEpBurstCnt[epNumber] = (uint8) (adjLength / USBUART_1_DMA_BYTES_PER_BURST)
2151:.\Generated_Source\PSoC5/USBUART_1.c **** 
2152:.\Generated_Source\PSoC5/USBUART_1.c ****             /* Get number of elements in last burst. */
2153:.\Generated_Source\PSoC5/USBUART_1.c ****             USBUART_1_DmaEpLastBurstEl[epNumber] = (uint8) (adjLength % USBUART_1_DMA_BYTES_PER_BUR
2154:.\Generated_Source\PSoC5/USBUART_1.c **** 
2155:.\Generated_Source\PSoC5/USBUART_1.c ****             /* Get total number of bursts. */
2156:.\Generated_Source\PSoC5/USBUART_1.c ****             USBUART_1_DmaEpBurstCnt[epNumber] += (0u != USBUART_1_DmaEpLastBurstEl[epNumber]) ? 1u 
2157:.\Generated_Source\PSoC5/USBUART_1.c **** 
2158:.\Generated_Source\PSoC5/USBUART_1.c ****             /* Adjust number of data elements transferred in last burst. */
2159:.\Generated_Source\PSoC5/USBUART_1.c ****             USBUART_1_DmaEpLastBurstEl[epNumber] = (0u != USBUART_1_DmaEpLastBurstEl[epNumber]) ?
2160:.\Generated_Source\PSoC5/USBUART_1.c ****                                                                   ((USBUART_1_DmaEpLastBurstEl[epNu
2161:.\Generated_Source\PSoC5/USBUART_1.c ****                                                                    (USBUART_1_DMA_HALFWORDS_PER_BUR
2162:.\Generated_Source\PSoC5/USBUART_1.c **** 
2163:.\Generated_Source\PSoC5/USBUART_1.c ****             /* Get number of data elements to transfer for descriptor 0 and 1. */
2164:.\Generated_Source\PSoC5/USBUART_1.c ****             lengthDescr0 = (1u == USBUART_1_DmaEpBurstCnt[epNumber]) ? USBUART_1_DmaEpLastBurstEl[e
2165:.\Generated_Source\PSoC5/USBUART_1.c ****             lengthDescr1 = (2u == USBUART_1_DmaEpBurstCnt[epNumber]) ? USBUART_1_DmaEpLastBurstEl[e
2166:.\Generated_Source\PSoC5/USBUART_1.c **** 
2167:.\Generated_Source\PSoC5/USBUART_1.c ****             /* Mark last descriptor to be executed. */
2168:.\Generated_Source\PSoC5/USBUART_1.c ****             USBUART_1_DmaEpLastBurstEl[epNumber] |= (0u != (USBUART_1_DmaEpBurstCnt[epNumber] & 0x1
2169:.\Generated_Source\PSoC5/USBUART_1.c ****                                                                     USBUART_1_DMA_DESCR0_MASK : USB
2170:.\Generated_Source\PSoC5/USBUART_1.c **** 
2171:.\Generated_Source\PSoC5/USBUART_1.c ****             /* Mark if revert number of data elements in descriptor after transfer completion. */
2172:.\Generated_Source\PSoC5/USBUART_1.c ****             USBUART_1_DmaEpLastBurstEl[epNumber] |= (USBUART_1_DmaEpBurstCnt[epNumber] > 2u) ? USBU
2173:.\Generated_Source\PSoC5/USBUART_1.c **** 
2174:.\Generated_Source\PSoC5/USBUART_1.c ****             /* Mark that 16-bits access to data register is performed. */
2175:.\Generated_Source\PSoC5/USBUART_1.c ****             USBUART_1_DmaEpLastBurstEl[epNumber] |= USBUART_1_DMA_DESCR_16BITS;
2176:.\Generated_Source\PSoC5/USBUART_1.c **** 
2177:.\Generated_Source\PSoC5/USBUART_1.c ****             /* Adjust burst counter taking to account: 2 valid descriptors and interrupt trigger af
2178:.\Generated_Source\PSoC5/USBUART_1.c ****             USBUART_1_DmaEpBurstCnt[epNumber] = USBUART_1_DMA_GET_BURST_CNT(USBUART_1_DmaEpBurstCnt
2179:.\Generated_Source\PSoC5/USBUART_1.c **** 
2180:.\Generated_Source\PSoC5/USBUART_1.c ****             /* Store address of buffer and burst counter for endpoint. */
2181:.\Generated_Source\PSoC5/USBUART_1.c ****             USBUART_1_DmaEpBufferAddrBackup[epNumber] = (uint32) pData;
ARM GAS  C:\Users\Thomas\AppData\Local\Temp\ccHSNeoG.s 			page 55


2182:.\Generated_Source\PSoC5/USBUART_1.c ****             USBUART_1_DmaEpBurstCntBackup[epNumber]   = USBUART_1_DmaEpBurstCnt[epNumber];
2183:.\Generated_Source\PSoC5/USBUART_1.c **** 
2184:.\Generated_Source\PSoC5/USBUART_1.c ****             /* Disable DMA channel: start configuration. */
2185:.\Generated_Source\PSoC5/USBUART_1.c ****             USBUART_1_CyDmaChDisable(channelNum);
2186:.\Generated_Source\PSoC5/USBUART_1.c **** 
2187:.\Generated_Source\PSoC5/USBUART_1.c ****             /* Set destination address. */
2188:.\Generated_Source\PSoC5/USBUART_1.c ****             USBUART_1_CyDmaSetSrcAddress(channelNum, USBUART_1_DMA_DESCR0, (void*) &USBUART_1_ARB_E
2189:.\Generated_Source\PSoC5/USBUART_1.c ****             USBUART_1_CyDmaSetSrcAddress(channelNum, USBUART_1_DMA_DESCR1, (void*) &USBUART_1_ARB_E
2190:.\Generated_Source\PSoC5/USBUART_1.c **** 
2191:.\Generated_Source\PSoC5/USBUART_1.c ****             USBUART_1_CyDmaSetDstAddress(channelNum, USBUART_1_DMA_DESCR0, (void*) ((uint32) pData)
2192:.\Generated_Source\PSoC5/USBUART_1.c ****             USBUART_1_CyDmaSetDstAddress(channelNum, USBUART_1_DMA_DESCR1, (void*) ((uint32) pData 
2193:.\Generated_Source\PSoC5/USBUART_1.c **** 
2194:.\Generated_Source\PSoC5/USBUART_1.c ****             /* Configure DMA descriptor 0. */
2195:.\Generated_Source\PSoC5/USBUART_1.c ****             USBUART_1_CyDmaSetConfiguration(channelNum, USBUART_1_DMA_DESCR0, USBUART_1_DMA_COMMON_
2196:.\Generated_Source\PSoC5/USBUART_1.c ****                                                     CYDMA_HALFWORD | CYDMA_WORD_ELEMENT | CYDMA_INC
2197:.\Generated_Source\PSoC5/USBUART_1.c **** 
2198:.\Generated_Source\PSoC5/USBUART_1.c ****             /* Configure DMA descriptor 1. */
2199:.\Generated_Source\PSoC5/USBUART_1.c ****             USBUART_1_CyDmaSetConfiguration(channelNum, USBUART_1_DMA_DESCR1, USBUART_1_DMA_COMMON_
2200:.\Generated_Source\PSoC5/USBUART_1.c ****                                                     CYDMA_HALFWORD | CYDMA_WORD_ELEMENT | CYDMA_INC
2201:.\Generated_Source\PSoC5/USBUART_1.c **** 
2202:.\Generated_Source\PSoC5/USBUART_1.c ****             /* Enable interrupt from DMA channel. */
2203:.\Generated_Source\PSoC5/USBUART_1.c ****             USBUART_1_CyDmaSetInterruptMask(channelNum);
2204:.\Generated_Source\PSoC5/USBUART_1.c **** 
2205:.\Generated_Source\PSoC5/USBUART_1.c ****             /* Validate DMA descriptor 0 and 1. */
2206:.\Generated_Source\PSoC5/USBUART_1.c ****             USBUART_1_CyDmaValidateDescriptor(channelNum, USBUART_1_DMA_DESCR0);
2207:.\Generated_Source\PSoC5/USBUART_1.c ****             USBUART_1_CyDmaValidateDescriptor(channelNum, USBUART_1_DMA_DESCR1);
2208:.\Generated_Source\PSoC5/USBUART_1.c **** 
2209:.\Generated_Source\PSoC5/USBUART_1.c ****             /* Enable DMA channel: configuration complete. */
2210:.\Generated_Source\PSoC5/USBUART_1.c ****             USBUART_1_CyDmaChEnable(channelNum);
2211:.\Generated_Source\PSoC5/USBUART_1.c **** 
2212:.\Generated_Source\PSoC5/USBUART_1.c ****             /* OUT endpoint has to be armed again by user when DMA transfers have been completed.
2213:.\Generated_Source\PSoC5/USBUART_1.c ****             * NO_EVENT_PENDING: notifies that data has been copied from endpoint buffer.
2214:.\Generated_Source\PSoC5/USBUART_1.c ****             */
2215:.\Generated_Source\PSoC5/USBUART_1.c ****         }
2216:.\Generated_Source\PSoC5/USBUART_1.c ****         #endif /* (USBUART_1_EP_MANAGEMENT_DMA_AUTO) */
2217:.\Generated_Source\PSoC5/USBUART_1.c ****     #endif /* (USBUART_1_EP_MANAGEMENT_MANUAL) */
2218:.\Generated_Source\PSoC5/USBUART_1.c ****     }
2219:.\Generated_Source\PSoC5/USBUART_1.c ****     else
2220:.\Generated_Source\PSoC5/USBUART_1.c ****     {
2221:.\Generated_Source\PSoC5/USBUART_1.c ****         length = 0u;
2222:.\Generated_Source\PSoC5/USBUART_1.c ****     }
2223:.\Generated_Source\PSoC5/USBUART_1.c **** 
2224:.\Generated_Source\PSoC5/USBUART_1.c ****     return (length);
2225:.\Generated_Source\PSoC5/USBUART_1.c **** }
2226:.\Generated_Source\PSoC5/USBUART_1.c **** #endif /* (USBUART_1_16BITS_EP_ACCESS_ENABLE) */
2227:.\Generated_Source\PSoC5/USBUART_1.c **** 
2228:.\Generated_Source\PSoC5/USBUART_1.c **** 
2229:.\Generated_Source\PSoC5/USBUART_1.c **** /*******************************************************************************
2230:.\Generated_Source\PSoC5/USBUART_1.c **** * Function Name: USBUART_1_EnableOutEP
2231:.\Generated_Source\PSoC5/USBUART_1.c **** ****************************************************************************//**
2232:.\Generated_Source\PSoC5/USBUART_1.c **** *
2233:.\Generated_Source\PSoC5/USBUART_1.c **** *  This function enables the specified endpoint for OUT transfers. Do not call
2234:.\Generated_Source\PSoC5/USBUART_1.c **** *  this function for IN endpoints.
2235:.\Generated_Source\PSoC5/USBUART_1.c **** *
2236:.\Generated_Source\PSoC5/USBUART_1.c **** *  \param epNumber: Contains the data endpoint number. Valid values are between
2237:.\Generated_Source\PSoC5/USBUART_1.c **** *  1 and 8.
2238:.\Generated_Source\PSoC5/USBUART_1.c **** *
ARM GAS  C:\Users\Thomas\AppData\Local\Temp\ccHSNeoG.s 			page 56


2239:.\Generated_Source\PSoC5/USBUART_1.c **** * \globalvars
2240:.\Generated_Source\PSoC5/USBUART_1.c **** *
2241:.\Generated_Source\PSoC5/USBUART_1.c **** *  \ref USBUART_1_EP[epNumber].apiEpState - set to NO_EVENT_PENDING
2242:.\Generated_Source\PSoC5/USBUART_1.c **** *
2243:.\Generated_Source\PSoC5/USBUART_1.c **** * \reentrant
2244:.\Generated_Source\PSoC5/USBUART_1.c **** *  No.
2245:.\Generated_Source\PSoC5/USBUART_1.c **** *
2246:.\Generated_Source\PSoC5/USBUART_1.c **** *******************************************************************************/
2247:.\Generated_Source\PSoC5/USBUART_1.c **** void USBUART_1_EnableOutEP(uint8 epNumber) 
2248:.\Generated_Source\PSoC5/USBUART_1.c **** {
 888              		.loc 1 2248 0
 889              		.cfi_startproc
 890              		@ args = 0, pretend = 0, frame = 0
 891              		@ frame_needed = 0, uses_anonymous_args = 0
 892              		@ link register save eliminated.
 893              	.LVL59:
2249:.\Generated_Source\PSoC5/USBUART_1.c ****     if ((epNumber > USBUART_1_EP0) && (epNumber < USBUART_1_MAX_EP))
 894              		.loc 1 2249 0
 895 0000 431E     		subs	r3, r0, #1
 896 0002 DBB2     		uxtb	r3, r3
 897 0004 072B     		cmp	r3, #7
 898 0006 0BD8     		bhi	.L61
2250:.\Generated_Source\PSoC5/USBUART_1.c ****     {
2251:.\Generated_Source\PSoC5/USBUART_1.c ****         USBUART_1_EP[epNumber].apiEpState = USBUART_1_NO_EVENT_PENDING;
 899              		.loc 1 2251 0
 900 0008 4300     		lsls	r3, r0, #1
 901 000a 0344     		add	r3, r3, r0
 902 000c 9B00     		lsls	r3, r3, #2
 903 000e 054A     		ldr	r2, .L63
 904 0010 1344     		add	r3, r3, r2
 905 0012 0022     		movs	r2, #0
 906 0014 5A70     		strb	r2, [r3, #1]
2252:.\Generated_Source\PSoC5/USBUART_1.c **** 
2253:.\Generated_Source\PSoC5/USBUART_1.c ****         /* Enable OUT endpoint to be written by Host. */
2254:.\Generated_Source\PSoC5/USBUART_1.c ****         USBUART_1_SIE_EP_BASE.sieEp[epNumber].epCr0 = USBUART_1_EP[epNumber].epMode;
 907              		.loc 1 2254 0
 908 0016 5A79     		ldrb	r2, [r3, #5]	@ zero_extendqisi2
 909 0018 D2B2     		uxtb	r2, r2
 910 001a 0001     		lsls	r0, r0, #4
 911              	.LVL60:
 912 001c 024B     		ldr	r3, .L63+4
 913 001e 1A54     		strb	r2, [r3, r0]
 914              	.L61:
 915 0020 7047     		bx	lr
 916              	.L64:
 917 0022 00BF     		.align	2
 918              	.L63:
 919 0024 00000000 		.word	USBUART_1_EP
 920 0028 FE5F0040 		.word	1073766398
 921              		.cfi_endproc
 922              	.LFE13:
 923              		.size	USBUART_1_EnableOutEP, .-USBUART_1_EnableOutEP
 924              		.section	.text.USBUART_1_ReadOutEP,"ax",%progbits
 925              		.align	2
 926              		.global	USBUART_1_ReadOutEP
 927              		.thumb
 928              		.thumb_func
ARM GAS  C:\Users\Thomas\AppData\Local\Temp\ccHSNeoG.s 			page 57


 929              		.type	USBUART_1_ReadOutEP, %function
 930              	USBUART_1_ReadOutEP:
 931              	.LFB12:
1637:.\Generated_Source\PSoC5/USBUART_1.c ****     if ((pData != NULL) && (epNumber > USBUART_1_EP0) && (epNumber < USBUART_1_MAX_EP))
 932              		.loc 1 1637 0
 933              		.cfi_startproc
 934              		@ args = 0, pretend = 0, frame = 0
 935              		@ frame_needed = 0, uses_anonymous_args = 0
 936              	.LVL61:
 937 0000 70B5     		push	{r4, r5, r6, lr}
 938              		.cfi_def_cfa_offset 16
 939              		.cfi_offset 4, -16
 940              		.cfi_offset 5, -12
 941              		.cfi_offset 6, -8
 942              		.cfi_offset 14, -4
1638:.\Generated_Source\PSoC5/USBUART_1.c ****     {
 943              		.loc 1 1638 0
 944 0002 D9B1     		cbz	r1, .L70
 945 0004 0546     		mov	r5, r0
 946 0006 1446     		mov	r4, r2
 947 0008 0E46     		mov	r6, r1
1638:.\Generated_Source\PSoC5/USBUART_1.c ****     {
 948              		.loc 1 1638 0 is_stmt 0 discriminator 1
 949 000a C8B1     		cbz	r0, .L71
1638:.\Generated_Source\PSoC5/USBUART_1.c ****     {
 950              		.loc 1 1638 0 discriminator 2
 951 000c 0828     		cmp	r0, #8
 952 000e 19D8     		bhi	.L72
1642:.\Generated_Source\PSoC5/USBUART_1.c ****     #endif /* (!USBUART_1_EP_MANAGEMENT_DMA_AUTO) */
 953              		.loc 1 1642 0 is_stmt 1
 954 0010 FFF7FEFF 		bl	USBUART_1_GetEPCount
 955              	.LVL62:
 956 0014 A042     		cmp	r0, r4
 957 0016 03D2     		bcs	.L67
1642:.\Generated_Source\PSoC5/USBUART_1.c ****     #endif /* (!USBUART_1_EP_MANAGEMENT_DMA_AUTO) */
 958              		.loc 1 1642 0 is_stmt 0 discriminator 1
 959 0018 2846     		mov	r0, r5
 960 001a FFF7FEFF 		bl	USBUART_1_GetEPCount
 961              	.LVL63:
 962 001e 0446     		mov	r4, r0
 963              	.L67:
 964              	.LVL64:
 965              	.LBB4:
1649:.\Generated_Source\PSoC5/USBUART_1.c ****             {
 966              		.loc 1 1649 0 is_stmt 1 discriminator 4
 967 0020 0023     		movs	r3, #0
 968 0022 05E0     		b	.L68
 969              	.LVL65:
 970              	.L69:
1651:.\Generated_Source\PSoC5/USBUART_1.c ****             }
 971              		.loc 1 1651 0 discriminator 3
 972 0024 2901     		lsls	r1, r5, #4
 973 0026 094A     		ldr	r2, .L74
 974 0028 525C     		ldrb	r2, [r2, r1]	@ zero_extendqisi2
 975 002a F254     		strb	r2, [r6, r3]
1649:.\Generated_Source\PSoC5/USBUART_1.c ****             {
 976              		.loc 1 1649 0 discriminator 3
ARM GAS  C:\Users\Thomas\AppData\Local\Temp\ccHSNeoG.s 			page 58


 977 002c 0133     		adds	r3, r3, #1
 978              	.LVL66:
 979 002e 9BB2     		uxth	r3, r3
 980              	.LVL67:
 981              	.L68:
1649:.\Generated_Source\PSoC5/USBUART_1.c ****             {
 982              		.loc 1 1649 0 is_stmt 0 discriminator 1
 983 0030 A342     		cmp	r3, r4
 984 0032 F7D3     		bcc	.L69
 985              	.LBE4:
1656:.\Generated_Source\PSoC5/USBUART_1.c ****     #else
 986              		.loc 1 1656 0 is_stmt 1
 987 0034 2846     		mov	r0, r5
 988 0036 FFF7FEFF 		bl	USBUART_1_EnableOutEP
 989              	.LVL68:
 990 003a 04E0     		b	.L66
 991              	.LVL69:
 992              	.L70:
1798:.\Generated_Source\PSoC5/USBUART_1.c ****     }
 993              		.loc 1 1798 0
 994 003c 0024     		movs	r4, #0
 995 003e 02E0     		b	.L66
 996              	.L71:
 997 0040 0024     		movs	r4, #0
 998 0042 00E0     		b	.L66
 999              	.L72:
 1000 0044 0024     		movs	r4, #0
 1001              	.LVL70:
 1002              	.L66:
1802:.\Generated_Source\PSoC5/USBUART_1.c **** 
 1003              		.loc 1 1802 0
 1004 0046 2046     		mov	r0, r4
 1005 0048 70BD     		pop	{r4, r5, r6, pc}
 1006              	.LVL71:
 1007              	.L75:
 1008 004a 00BF     		.align	2
 1009              	.L74:
 1010 004c 78600040 		.word	1073766520
 1011              		.cfi_endproc
 1012              	.LFE12:
 1013              		.size	USBUART_1_ReadOutEP, .-USBUART_1_ReadOutEP
 1014              		.section	.text.USBUART_1_DisableOutEP,"ax",%progbits
 1015              		.align	2
 1016              		.global	USBUART_1_DisableOutEP
 1017              		.thumb
 1018              		.thumb_func
 1019              		.type	USBUART_1_DisableOutEP, %function
 1020              	USBUART_1_DisableOutEP:
 1021              	.LFB14:
2255:.\Generated_Source\PSoC5/USBUART_1.c ****         
2256:.\Generated_Source\PSoC5/USBUART_1.c ****     }
2257:.\Generated_Source\PSoC5/USBUART_1.c **** }
2258:.\Generated_Source\PSoC5/USBUART_1.c **** 
2259:.\Generated_Source\PSoC5/USBUART_1.c **** 
2260:.\Generated_Source\PSoC5/USBUART_1.c **** /*******************************************************************************
2261:.\Generated_Source\PSoC5/USBUART_1.c **** * Function Name: USBUART_1_DisableOutEP
2262:.\Generated_Source\PSoC5/USBUART_1.c **** ****************************************************************************//**
ARM GAS  C:\Users\Thomas\AppData\Local\Temp\ccHSNeoG.s 			page 59


2263:.\Generated_Source\PSoC5/USBUART_1.c **** *
2264:.\Generated_Source\PSoC5/USBUART_1.c **** *  This function disables the specified USBFS OUT endpoint. Do not call this
2265:.\Generated_Source\PSoC5/USBUART_1.c **** *  function for IN endpoints.
2266:.\Generated_Source\PSoC5/USBUART_1.c **** *
2267:.\Generated_Source\PSoC5/USBUART_1.c **** *  \param epNumber: Contains the data endpoint number.
2268:.\Generated_Source\PSoC5/USBUART_1.c **** *            Valid values are between 1 and 8.
2269:.\Generated_Source\PSoC5/USBUART_1.c **** *
2270:.\Generated_Source\PSoC5/USBUART_1.c **** *******************************************************************************/
2271:.\Generated_Source\PSoC5/USBUART_1.c **** void USBUART_1_DisableOutEP(uint8 epNumber) 
2272:.\Generated_Source\PSoC5/USBUART_1.c **** {
 1022              		.loc 1 2272 0
 1023              		.cfi_startproc
 1024              		@ args = 0, pretend = 0, frame = 0
 1025              		@ frame_needed = 0, uses_anonymous_args = 0
 1026              		@ link register save eliminated.
 1027              	.LVL72:
2273:.\Generated_Source\PSoC5/USBUART_1.c ****     if ((epNumber > USBUART_1_EP0) && (epNumber < USBUART_1_MAX_EP))
 1028              		.loc 1 2273 0
 1029 0000 431E     		subs	r3, r0, #1
 1030 0002 DBB2     		uxtb	r3, r3
 1031 0004 072B     		cmp	r3, #7
 1032 0006 03D8     		bhi	.L76
2274:.\Generated_Source\PSoC5/USBUART_1.c ****     {
2275:.\Generated_Source\PSoC5/USBUART_1.c ****         /* Set NAK response for OUT endpoint. */
2276:.\Generated_Source\PSoC5/USBUART_1.c ****         USBUART_1_SIE_EP_BASE.sieEp[epNumber].epCr0 = USBUART_1_MODE_NAK_OUT;
 1033              		.loc 1 2276 0
 1034 0008 0001     		lsls	r0, r0, #4
 1035              	.LVL73:
 1036 000a 024B     		ldr	r3, .L78
 1037 000c 0822     		movs	r2, #8
 1038 000e 1A54     		strb	r2, [r3, r0]
 1039              	.L76:
 1040 0010 7047     		bx	lr
 1041              	.L79:
 1042 0012 00BF     		.align	2
 1043              	.L78:
 1044 0014 FE5F0040 		.word	1073766398
 1045              		.cfi_endproc
 1046              	.LFE14:
 1047              		.size	USBUART_1_DisableOutEP, .-USBUART_1_DisableOutEP
 1048              		.section	.text.USBUART_1_Force,"ax",%progbits
 1049              		.align	2
 1050              		.global	USBUART_1_Force
 1051              		.thumb
 1052              		.thumb_func
 1053              		.type	USBUART_1_Force, %function
 1054              	USBUART_1_Force:
 1055              	.LFB15:
2277:.\Generated_Source\PSoC5/USBUART_1.c ****     }
2278:.\Generated_Source\PSoC5/USBUART_1.c **** }
2279:.\Generated_Source\PSoC5/USBUART_1.c **** 
2280:.\Generated_Source\PSoC5/USBUART_1.c **** 
2281:.\Generated_Source\PSoC5/USBUART_1.c **** /*******************************************************************************
2282:.\Generated_Source\PSoC5/USBUART_1.c **** * Function Name: USBUART_1_Force
