ARM GAS  C:\Users\Thomas\AppData\Local\Temp\ccRZX1Ar.s 			page 1


   1              		.syntax unified
   2              		.cpu cortex-m3
   3              		.fpu softvfp
   4              		.eabi_attribute 20, 1
   5              		.eabi_attribute 21, 1
   6              		.eabi_attribute 23, 3
   7              		.eabi_attribute 24, 1
   8              		.eabi_attribute 25, 1
   9              		.eabi_attribute 26, 1
  10              		.eabi_attribute 30, 1
  11              		.eabi_attribute 34, 1
  12              		.eabi_attribute 18, 4
  13              		.thumb
  14              		.file	"WinTimer_IRQ.c"
  15              		.text
  16              	.Ltext0:
  17              		.cfi_sections	.debug_frame
  18              		.section	.text.WinTimer_IRQ_Interrupt,"ax",%progbits
  19              		.align	2
  20              		.global	WinTimer_IRQ_Interrupt
  21              		.thumb
  22              		.thumb_func
  23              		.type	WinTimer_IRQ_Interrupt, %function
  24              	WinTimer_IRQ_Interrupt:
  25              	.LFB66:
  26              		.file 1 ".\\Generated_Source\\PSoC5\\WinTimer_IRQ.c"
   1:.\Generated_Source\PSoC5/WinTimer_IRQ.c **** /*******************************************************************************
   2:.\Generated_Source\PSoC5/WinTimer_IRQ.c **** * File Name: WinTimer_IRQ.c  
   3:.\Generated_Source\PSoC5/WinTimer_IRQ.c **** * Version 1.70
   4:.\Generated_Source\PSoC5/WinTimer_IRQ.c **** *
   5:.\Generated_Source\PSoC5/WinTimer_IRQ.c **** *  Description:
   6:.\Generated_Source\PSoC5/WinTimer_IRQ.c **** *   API for controlling the state of an interrupt.
   7:.\Generated_Source\PSoC5/WinTimer_IRQ.c **** *
   8:.\Generated_Source\PSoC5/WinTimer_IRQ.c **** *
   9:.\Generated_Source\PSoC5/WinTimer_IRQ.c **** *  Note:
  10:.\Generated_Source\PSoC5/WinTimer_IRQ.c **** *
  11:.\Generated_Source\PSoC5/WinTimer_IRQ.c **** ********************************************************************************
  12:.\Generated_Source\PSoC5/WinTimer_IRQ.c **** * Copyright 2008-2015, Cypress Semiconductor Corporation.  All rights reserved.
  13:.\Generated_Source\PSoC5/WinTimer_IRQ.c **** * You may use this file only in accordance with the license, terms, conditions, 
  14:.\Generated_Source\PSoC5/WinTimer_IRQ.c **** * disclaimers, and limitations in the end user license agreement accompanying 
  15:.\Generated_Source\PSoC5/WinTimer_IRQ.c **** * the software package with which this file was provided.
  16:.\Generated_Source\PSoC5/WinTimer_IRQ.c **** *******************************************************************************/
  17:.\Generated_Source\PSoC5/WinTimer_IRQ.c **** 
  18:.\Generated_Source\PSoC5/WinTimer_IRQ.c **** 
  19:.\Generated_Source\PSoC5/WinTimer_IRQ.c **** #include <cydevice_trm.h>
  20:.\Generated_Source\PSoC5/WinTimer_IRQ.c **** #include <CyLib.h>
  21:.\Generated_Source\PSoC5/WinTimer_IRQ.c **** #include <WinTimer_IRQ.h>
  22:.\Generated_Source\PSoC5/WinTimer_IRQ.c **** #include "cyapicallbacks.h"
  23:.\Generated_Source\PSoC5/WinTimer_IRQ.c **** 
  24:.\Generated_Source\PSoC5/WinTimer_IRQ.c **** #if !defined(WinTimer_IRQ__REMOVED) /* Check for removal by optimization */
  25:.\Generated_Source\PSoC5/WinTimer_IRQ.c **** 
  26:.\Generated_Source\PSoC5/WinTimer_IRQ.c **** /*******************************************************************************
  27:.\Generated_Source\PSoC5/WinTimer_IRQ.c **** *  Place your includes, defines and code here 
  28:.\Generated_Source\PSoC5/WinTimer_IRQ.c **** ********************************************************************************/
  29:.\Generated_Source\PSoC5/WinTimer_IRQ.c **** /* `#START WinTimer_IRQ_intc` */
  30:.\Generated_Source\PSoC5/WinTimer_IRQ.c **** #include <main.h>
  31:.\Generated_Source\PSoC5/WinTimer_IRQ.c **** /* `#END` */
ARM GAS  C:\Users\Thomas\AppData\Local\Temp\ccRZX1Ar.s 			page 2


  32:.\Generated_Source\PSoC5/WinTimer_IRQ.c **** 
  33:.\Generated_Source\PSoC5/WinTimer_IRQ.c **** #ifndef CYINT_IRQ_BASE
  34:.\Generated_Source\PSoC5/WinTimer_IRQ.c **** #define CYINT_IRQ_BASE      16
  35:.\Generated_Source\PSoC5/WinTimer_IRQ.c **** #endif /* CYINT_IRQ_BASE */
  36:.\Generated_Source\PSoC5/WinTimer_IRQ.c **** #ifndef CYINT_VECT_TABLE
  37:.\Generated_Source\PSoC5/WinTimer_IRQ.c **** #define CYINT_VECT_TABLE    ((cyisraddress **) CYREG_NVIC_VECT_OFFSET)
  38:.\Generated_Source\PSoC5/WinTimer_IRQ.c **** #endif /* CYINT_VECT_TABLE */
  39:.\Generated_Source\PSoC5/WinTimer_IRQ.c **** 
  40:.\Generated_Source\PSoC5/WinTimer_IRQ.c **** /* Declared in startup, used to set unused interrupts to. */
  41:.\Generated_Source\PSoC5/WinTimer_IRQ.c **** CY_ISR_PROTO(IntDefaultHandler);
  42:.\Generated_Source\PSoC5/WinTimer_IRQ.c **** 
  43:.\Generated_Source\PSoC5/WinTimer_IRQ.c **** 
  44:.\Generated_Source\PSoC5/WinTimer_IRQ.c **** /*******************************************************************************
  45:.\Generated_Source\PSoC5/WinTimer_IRQ.c **** * Function Name: WinTimer_IRQ_Start
  46:.\Generated_Source\PSoC5/WinTimer_IRQ.c **** ********************************************************************************
  47:.\Generated_Source\PSoC5/WinTimer_IRQ.c **** *
  48:.\Generated_Source\PSoC5/WinTimer_IRQ.c **** * Summary:
  49:.\Generated_Source\PSoC5/WinTimer_IRQ.c **** *  Set up the interrupt and enable it. This function disables the interrupt, 
  50:.\Generated_Source\PSoC5/WinTimer_IRQ.c **** *  sets the default interrupt vector, sets the priority from the value in the
  51:.\Generated_Source\PSoC5/WinTimer_IRQ.c **** *  Design Wide Resources Interrupt Editor, then enables the interrupt to the 
  52:.\Generated_Source\PSoC5/WinTimer_IRQ.c **** *  interrupt controller.
  53:.\Generated_Source\PSoC5/WinTimer_IRQ.c **** *
  54:.\Generated_Source\PSoC5/WinTimer_IRQ.c **** * Parameters:  
  55:.\Generated_Source\PSoC5/WinTimer_IRQ.c **** *   None
  56:.\Generated_Source\PSoC5/WinTimer_IRQ.c **** *
  57:.\Generated_Source\PSoC5/WinTimer_IRQ.c **** * Return:
  58:.\Generated_Source\PSoC5/WinTimer_IRQ.c **** *   None
  59:.\Generated_Source\PSoC5/WinTimer_IRQ.c **** *
  60:.\Generated_Source\PSoC5/WinTimer_IRQ.c **** *******************************************************************************/
  61:.\Generated_Source\PSoC5/WinTimer_IRQ.c **** void WinTimer_IRQ_Start(void)
  62:.\Generated_Source\PSoC5/WinTimer_IRQ.c **** {
  63:.\Generated_Source\PSoC5/WinTimer_IRQ.c ****     /* For all we know the interrupt is active. */
  64:.\Generated_Source\PSoC5/WinTimer_IRQ.c ****     WinTimer_IRQ_Disable();
  65:.\Generated_Source\PSoC5/WinTimer_IRQ.c **** 
  66:.\Generated_Source\PSoC5/WinTimer_IRQ.c ****     /* Set the ISR to point to the WinTimer_IRQ Interrupt. */
  67:.\Generated_Source\PSoC5/WinTimer_IRQ.c ****     WinTimer_IRQ_SetVector(&WinTimer_IRQ_Interrupt);
  68:.\Generated_Source\PSoC5/WinTimer_IRQ.c **** 
  69:.\Generated_Source\PSoC5/WinTimer_IRQ.c ****     /* Set the priority. */
  70:.\Generated_Source\PSoC5/WinTimer_IRQ.c ****     WinTimer_IRQ_SetPriority((uint8)WinTimer_IRQ_INTC_PRIOR_NUMBER);
  71:.\Generated_Source\PSoC5/WinTimer_IRQ.c **** 
  72:.\Generated_Source\PSoC5/WinTimer_IRQ.c ****     /* Enable it. */
  73:.\Generated_Source\PSoC5/WinTimer_IRQ.c ****     WinTimer_IRQ_Enable();
  74:.\Generated_Source\PSoC5/WinTimer_IRQ.c **** }
  75:.\Generated_Source\PSoC5/WinTimer_IRQ.c **** 
  76:.\Generated_Source\PSoC5/WinTimer_IRQ.c **** 
  77:.\Generated_Source\PSoC5/WinTimer_IRQ.c **** /*******************************************************************************
  78:.\Generated_Source\PSoC5/WinTimer_IRQ.c **** * Function Name: WinTimer_IRQ_StartEx
  79:.\Generated_Source\PSoC5/WinTimer_IRQ.c **** ********************************************************************************
  80:.\Generated_Source\PSoC5/WinTimer_IRQ.c **** *
  81:.\Generated_Source\PSoC5/WinTimer_IRQ.c **** * Summary:
  82:.\Generated_Source\PSoC5/WinTimer_IRQ.c **** *  Sets up the interrupt and enables it. This function disables the interrupt,
  83:.\Generated_Source\PSoC5/WinTimer_IRQ.c **** *  sets the interrupt vector based on the address passed in, sets the priority 
  84:.\Generated_Source\PSoC5/WinTimer_IRQ.c **** *  from the value in the Design Wide Resources Interrupt Editor, then enables 
  85:.\Generated_Source\PSoC5/WinTimer_IRQ.c **** *  the interrupt to the interrupt controller.
  86:.\Generated_Source\PSoC5/WinTimer_IRQ.c **** *  
  87:.\Generated_Source\PSoC5/WinTimer_IRQ.c **** *  When defining ISR functions, the CY_ISR and CY_ISR_PROTO macros should be 
  88:.\Generated_Source\PSoC5/WinTimer_IRQ.c **** *  used to provide consistent definition across compilers:
ARM GAS  C:\Users\Thomas\AppData\Local\Temp\ccRZX1Ar.s 			page 3


  89:.\Generated_Source\PSoC5/WinTimer_IRQ.c **** *  
  90:.\Generated_Source\PSoC5/WinTimer_IRQ.c **** *  Function definition example:
  91:.\Generated_Source\PSoC5/WinTimer_IRQ.c **** *   CY_ISR(MyISR)
  92:.\Generated_Source\PSoC5/WinTimer_IRQ.c **** *   {
  93:.\Generated_Source\PSoC5/WinTimer_IRQ.c **** *   }
  94:.\Generated_Source\PSoC5/WinTimer_IRQ.c **** *   Function prototype example:
  95:.\Generated_Source\PSoC5/WinTimer_IRQ.c **** *   CY_ISR_PROTO(MyISR);
  96:.\Generated_Source\PSoC5/WinTimer_IRQ.c **** *
  97:.\Generated_Source\PSoC5/WinTimer_IRQ.c **** * Parameters:  
  98:.\Generated_Source\PSoC5/WinTimer_IRQ.c **** *   address: Address of the ISR to set in the interrupt vector table.
  99:.\Generated_Source\PSoC5/WinTimer_IRQ.c **** *
 100:.\Generated_Source\PSoC5/WinTimer_IRQ.c **** * Return:
 101:.\Generated_Source\PSoC5/WinTimer_IRQ.c **** *   None
 102:.\Generated_Source\PSoC5/WinTimer_IRQ.c **** *
 103:.\Generated_Source\PSoC5/WinTimer_IRQ.c **** *******************************************************************************/
 104:.\Generated_Source\PSoC5/WinTimer_IRQ.c **** void WinTimer_IRQ_StartEx(cyisraddress address)
 105:.\Generated_Source\PSoC5/WinTimer_IRQ.c **** {
 106:.\Generated_Source\PSoC5/WinTimer_IRQ.c ****     /* For all we know the interrupt is active. */
 107:.\Generated_Source\PSoC5/WinTimer_IRQ.c ****     WinTimer_IRQ_Disable();
 108:.\Generated_Source\PSoC5/WinTimer_IRQ.c **** 
 109:.\Generated_Source\PSoC5/WinTimer_IRQ.c ****     /* Set the ISR to point to the WinTimer_IRQ Interrupt. */
 110:.\Generated_Source\PSoC5/WinTimer_IRQ.c ****     WinTimer_IRQ_SetVector(address);
 111:.\Generated_Source\PSoC5/WinTimer_IRQ.c **** 
 112:.\Generated_Source\PSoC5/WinTimer_IRQ.c ****     /* Set the priority. */
 113:.\Generated_Source\PSoC5/WinTimer_IRQ.c ****     WinTimer_IRQ_SetPriority((uint8)WinTimer_IRQ_INTC_PRIOR_NUMBER);
 114:.\Generated_Source\PSoC5/WinTimer_IRQ.c **** 
 115:.\Generated_Source\PSoC5/WinTimer_IRQ.c ****     /* Enable it. */
 116:.\Generated_Source\PSoC5/WinTimer_IRQ.c ****     WinTimer_IRQ_Enable();
 117:.\Generated_Source\PSoC5/WinTimer_IRQ.c **** }
 118:.\Generated_Source\PSoC5/WinTimer_IRQ.c **** 
 119:.\Generated_Source\PSoC5/WinTimer_IRQ.c **** 
 120:.\Generated_Source\PSoC5/WinTimer_IRQ.c **** /*******************************************************************************
 121:.\Generated_Source\PSoC5/WinTimer_IRQ.c **** * Function Name: WinTimer_IRQ_Stop
 122:.\Generated_Source\PSoC5/WinTimer_IRQ.c **** ********************************************************************************
 123:.\Generated_Source\PSoC5/WinTimer_IRQ.c **** *
 124:.\Generated_Source\PSoC5/WinTimer_IRQ.c **** * Summary:
 125:.\Generated_Source\PSoC5/WinTimer_IRQ.c **** *   Disables and removes the interrupt.
 126:.\Generated_Source\PSoC5/WinTimer_IRQ.c **** *
 127:.\Generated_Source\PSoC5/WinTimer_IRQ.c **** * Parameters:  
 128:.\Generated_Source\PSoC5/WinTimer_IRQ.c **** *   None
 129:.\Generated_Source\PSoC5/WinTimer_IRQ.c **** *
 130:.\Generated_Source\PSoC5/WinTimer_IRQ.c **** * Return:
 131:.\Generated_Source\PSoC5/WinTimer_IRQ.c **** *   None
 132:.\Generated_Source\PSoC5/WinTimer_IRQ.c **** *
 133:.\Generated_Source\PSoC5/WinTimer_IRQ.c **** *******************************************************************************/
 134:.\Generated_Source\PSoC5/WinTimer_IRQ.c **** void WinTimer_IRQ_Stop(void)
 135:.\Generated_Source\PSoC5/WinTimer_IRQ.c **** {
 136:.\Generated_Source\PSoC5/WinTimer_IRQ.c ****     /* Disable this interrupt. */
 137:.\Generated_Source\PSoC5/WinTimer_IRQ.c ****     WinTimer_IRQ_Disable();
 138:.\Generated_Source\PSoC5/WinTimer_IRQ.c **** 
 139:.\Generated_Source\PSoC5/WinTimer_IRQ.c ****     /* Set the ISR to point to the passive one. */
 140:.\Generated_Source\PSoC5/WinTimer_IRQ.c ****     WinTimer_IRQ_SetVector(&IntDefaultHandler);
 141:.\Generated_Source\PSoC5/WinTimer_IRQ.c **** }
 142:.\Generated_Source\PSoC5/WinTimer_IRQ.c **** 
 143:.\Generated_Source\PSoC5/WinTimer_IRQ.c **** 
 144:.\Generated_Source\PSoC5/WinTimer_IRQ.c **** /*******************************************************************************
 145:.\Generated_Source\PSoC5/WinTimer_IRQ.c **** * Function Name: WinTimer_IRQ_Interrupt
ARM GAS  C:\Users\Thomas\AppData\Local\Temp\ccRZX1Ar.s 			page 4


 146:.\Generated_Source\PSoC5/WinTimer_IRQ.c **** ********************************************************************************
 147:.\Generated_Source\PSoC5/WinTimer_IRQ.c **** *
 148:.\Generated_Source\PSoC5/WinTimer_IRQ.c **** * Summary:
 149:.\Generated_Source\PSoC5/WinTimer_IRQ.c **** *   The default Interrupt Service Routine for WinTimer_IRQ.
 150:.\Generated_Source\PSoC5/WinTimer_IRQ.c **** *
 151:.\Generated_Source\PSoC5/WinTimer_IRQ.c **** *   Add custom code between the coments to keep the next version of this file
 152:.\Generated_Source\PSoC5/WinTimer_IRQ.c **** *   from over writting your code.
 153:.\Generated_Source\PSoC5/WinTimer_IRQ.c **** *
 154:.\Generated_Source\PSoC5/WinTimer_IRQ.c **** * Parameters:  
 155:.\Generated_Source\PSoC5/WinTimer_IRQ.c **** *
 156:.\Generated_Source\PSoC5/WinTimer_IRQ.c **** * Return:
 157:.\Generated_Source\PSoC5/WinTimer_IRQ.c **** *   None
 158:.\Generated_Source\PSoC5/WinTimer_IRQ.c **** *
 159:.\Generated_Source\PSoC5/WinTimer_IRQ.c **** *******************************************************************************/
 160:.\Generated_Source\PSoC5/WinTimer_IRQ.c **** CY_ISR(WinTimer_IRQ_Interrupt)
 161:.\Generated_Source\PSoC5/WinTimer_IRQ.c **** {
  27              		.loc 1 161 0
  28              		.cfi_startproc
  29              		@ args = 0, pretend = 0, frame = 0
  30              		@ frame_needed = 0, uses_anonymous_args = 0
  31              		@ link register save eliminated.
 162:.\Generated_Source\PSoC5/WinTimer_IRQ.c ****     #ifdef WinTimer_IRQ_INTERRUPT_INTERRUPT_CALLBACK
 163:.\Generated_Source\PSoC5/WinTimer_IRQ.c ****         WinTimer_IRQ_Interrupt_InterruptCallback();
 164:.\Generated_Source\PSoC5/WinTimer_IRQ.c ****     #endif /* WinTimer_IRQ_INTERRUPT_INTERRUPT_CALLBACK */ 
 165:.\Generated_Source\PSoC5/WinTimer_IRQ.c **** 
 166:.\Generated_Source\PSoC5/WinTimer_IRQ.c ****     /*  Place your Interrupt code here. */
 167:.\Generated_Source\PSoC5/WinTimer_IRQ.c ****     /* `#START WinTimer_IRQ_Interrupt` */
 168:.\Generated_Source\PSoC5/WinTimer_IRQ.c ****     if(use_timer)
  32              		.loc 1 168 0
  33 0000 114B     		ldr	r3, .L4
  34 0002 1B68     		ldr	r3, [r3]
  35 0004 F3B1     		cbz	r3, .L1
 169:.\Generated_Source\PSoC5/WinTimer_IRQ.c ****     {
 170:.\Generated_Source\PSoC5/WinTimer_IRQ.c ****         input_ptr = (input_ptr+1)%INPUT_BUF_SIZE;
  36              		.loc 1 170 0
  37 0006 114B     		ldr	r3, .L4+4
  38 0008 1A68     		ldr	r2, [r3]
  39 000a 0132     		adds	r2, r2, #1
  40 000c 104B     		ldr	r3, .L4+8
  41 000e 1340     		ands	r3, r3, r2
  42 0010 002B     		cmp	r3, #0
  43 0012 05DA     		bge	.L3
  44 0014 013B     		subs	r3, r3, #1
  45 0016 6FEAC343 		mvn	r3, r3, lsl #19
  46 001a 6FEAD343 		mvn	r3, r3, lsr #19
  47 001e 0133     		adds	r3, r3, #1
  48              	.L3:
  49 0020 0A4A     		ldr	r2, .L4+4
  50 0022 1360     		str	r3, [r2]
 171:.\Generated_Source\PSoC5/WinTimer_IRQ.c ****         data = input[0][input_ptr];
  51              		.loc 1 171 0
  52 0024 1268     		ldr	r2, [r2]
  53 0026 0B4B     		ldr	r3, .L4+12
  54 0028 33F81230 		ldrh	r3, [r3, r2, lsl #1]
  55 002c 9BB2     		uxth	r3, r3
  56 002e 0A4A     		ldr	r2, .L4+16
  57 0030 1380     		strh	r3, [r2]	@ movhi
ARM GAS  C:\Users\Thomas\AppData\Local\Temp\ccRZX1Ar.s 			page 5


 172:.\Generated_Source\PSoC5/WinTimer_IRQ.c ****         if(disable_timer == 1)
  58              		.loc 1 172 0
  59 0032 0A4B     		ldr	r3, .L4+20
  60 0034 1B68     		ldr	r3, [r3]
  61 0036 012B     		cmp	r3, #1
  62 0038 04D1     		bne	.L1
 173:.\Generated_Source\PSoC5/WinTimer_IRQ.c ****         {
 174:.\Generated_Source\PSoC5/WinTimer_IRQ.c ****             use_timer = 0;
  63              		.loc 1 174 0
  64 003a 0023     		movs	r3, #0
  65 003c 024A     		ldr	r2, .L4
  66 003e 1360     		str	r3, [r2]
 175:.\Generated_Source\PSoC5/WinTimer_IRQ.c ****             disable_timer = 0;
  67              		.loc 1 175 0
  68 0040 064A     		ldr	r2, .L4+20
  69 0042 1360     		str	r3, [r2]
  70              	.L1:
  71 0044 7047     		bx	lr
  72              	.L5:
  73 0046 00BF     		.align	2
  74              	.L4:
  75 0048 00000000 		.word	use_timer
  76 004c 00000000 		.word	input_ptr
  77 0050 FF1F0080 		.word	-2147475457
  78 0054 00000000 		.word	input
  79 0058 00000000 		.word	data
  80 005c 00000000 		.word	disable_timer
  81              		.cfi_endproc
  82              	.LFE66:
  83              		.size	WinTimer_IRQ_Interrupt, .-WinTimer_IRQ_Interrupt
  84              		.section	.text.WinTimer_IRQ_SetVector,"ax",%progbits
  85              		.align	2
  86              		.global	WinTimer_IRQ_SetVector
  87              		.thumb
  88              		.thumb_func
  89              		.type	WinTimer_IRQ_SetVector, %function
  90              	WinTimer_IRQ_SetVector:
  91              	.LFB67:
 176:.\Generated_Source\PSoC5/WinTimer_IRQ.c ****         }
 177:.\Generated_Source\PSoC5/WinTimer_IRQ.c ****     }
 178:.\Generated_Source\PSoC5/WinTimer_IRQ.c ****     /* `#END` */
 179:.\Generated_Source\PSoC5/WinTimer_IRQ.c **** }
 180:.\Generated_Source\PSoC5/WinTimer_IRQ.c **** 
 181:.\Generated_Source\PSoC5/WinTimer_IRQ.c **** 
 182:.\Generated_Source\PSoC5/WinTimer_IRQ.c **** /*******************************************************************************
 183:.\Generated_Source\PSoC5/WinTimer_IRQ.c **** * Function Name: WinTimer_IRQ_SetVector
 184:.\Generated_Source\PSoC5/WinTimer_IRQ.c **** ********************************************************************************
 185:.\Generated_Source\PSoC5/WinTimer_IRQ.c **** *
 186:.\Generated_Source\PSoC5/WinTimer_IRQ.c **** * Summary:
 187:.\Generated_Source\PSoC5/WinTimer_IRQ.c **** *   Change the ISR vector for the Interrupt. Note calling WinTimer_IRQ_Start
 188:.\Generated_Source\PSoC5/WinTimer_IRQ.c **** *   will override any effect this method would have had. To set the vector 
 189:.\Generated_Source\PSoC5/WinTimer_IRQ.c **** *   before the component has been started use WinTimer_IRQ_StartEx instead.
 190:.\Generated_Source\PSoC5/WinTimer_IRQ.c **** * 
 191:.\Generated_Source\PSoC5/WinTimer_IRQ.c **** *   When defining ISR functions, the CY_ISR and CY_ISR_PROTO macros should be 
 192:.\Generated_Source\PSoC5/WinTimer_IRQ.c **** *   used to provide consistent definition across compilers:
 193:.\Generated_Source\PSoC5/WinTimer_IRQ.c **** *
 194:.\Generated_Source\PSoC5/WinTimer_IRQ.c **** *   Function definition example:
ARM GAS  C:\Users\Thomas\AppData\Local\Temp\ccRZX1Ar.s 			page 6


 195:.\Generated_Source\PSoC5/WinTimer_IRQ.c **** *   CY_ISR(MyISR)
 196:.\Generated_Source\PSoC5/WinTimer_IRQ.c **** *   {
 197:.\Generated_Source\PSoC5/WinTimer_IRQ.c **** *   }
 198:.\Generated_Source\PSoC5/WinTimer_IRQ.c **** *
 199:.\Generated_Source\PSoC5/WinTimer_IRQ.c **** *   Function prototype example:
 200:.\Generated_Source\PSoC5/WinTimer_IRQ.c **** *     CY_ISR_PROTO(MyISR);
 201:.\Generated_Source\PSoC5/WinTimer_IRQ.c **** *
 202:.\Generated_Source\PSoC5/WinTimer_IRQ.c **** * Parameters:
 203:.\Generated_Source\PSoC5/WinTimer_IRQ.c **** *   address: Address of the ISR to set in the interrupt vector table.
 204:.\Generated_Source\PSoC5/WinTimer_IRQ.c **** *
 205:.\Generated_Source\PSoC5/WinTimer_IRQ.c **** * Return:
 206:.\Generated_Source\PSoC5/WinTimer_IRQ.c **** *   None
 207:.\Generated_Source\PSoC5/WinTimer_IRQ.c **** *
 208:.\Generated_Source\PSoC5/WinTimer_IRQ.c **** *******************************************************************************/
 209:.\Generated_Source\PSoC5/WinTimer_IRQ.c **** void WinTimer_IRQ_SetVector(cyisraddress address)
 210:.\Generated_Source\PSoC5/WinTimer_IRQ.c **** {
  92              		.loc 1 210 0
  93              		.cfi_startproc
  94              		@ args = 0, pretend = 0, frame = 0
  95              		@ frame_needed = 0, uses_anonymous_args = 0
  96              		@ link register save eliminated.
  97              	.LVL0:
 211:.\Generated_Source\PSoC5/WinTimer_IRQ.c ****     cyisraddress * ramVectorTable;
 212:.\Generated_Source\PSoC5/WinTimer_IRQ.c **** 
 213:.\Generated_Source\PSoC5/WinTimer_IRQ.c ****     ramVectorTable = (cyisraddress *) *CYINT_VECT_TABLE;
  98              		.loc 1 213 0
  99 0000 014B     		ldr	r3, .L7
 100 0002 1B68     		ldr	r3, [r3]
 101              	.LVL1:
 214:.\Generated_Source\PSoC5/WinTimer_IRQ.c **** 
 215:.\Generated_Source\PSoC5/WinTimer_IRQ.c ****     ramVectorTable[CYINT_IRQ_BASE + (uint32)WinTimer_IRQ__INTC_NUMBER] = address;
 102              		.loc 1 215 0
 103 0004 5864     		str	r0, [r3, #68]
 104 0006 7047     		bx	lr
 105              	.L8:
 106              		.align	2
 107              	.L7:
 108 0008 08ED00E0 		.word	-536810232
 109              		.cfi_endproc
 110              	.LFE67:
 111              		.size	WinTimer_IRQ_SetVector, .-WinTimer_IRQ_SetVector
 112              		.section	.text.WinTimer_IRQ_GetVector,"ax",%progbits
 113              		.align	2
 114              		.global	WinTimer_IRQ_GetVector
 115              		.thumb
 116              		.thumb_func
 117              		.type	WinTimer_IRQ_GetVector, %function
 118              	WinTimer_IRQ_GetVector:
 119              	.LFB68:
 216:.\Generated_Source\PSoC5/WinTimer_IRQ.c **** }
 217:.\Generated_Source\PSoC5/WinTimer_IRQ.c **** 
 218:.\Generated_Source\PSoC5/WinTimer_IRQ.c **** 
 219:.\Generated_Source\PSoC5/WinTimer_IRQ.c **** /*******************************************************************************
 220:.\Generated_Source\PSoC5/WinTimer_IRQ.c **** * Function Name: WinTimer_IRQ_GetVector
 221:.\Generated_Source\PSoC5/WinTimer_IRQ.c **** ********************************************************************************
 222:.\Generated_Source\PSoC5/WinTimer_IRQ.c **** *
 223:.\Generated_Source\PSoC5/WinTimer_IRQ.c **** * Summary:
ARM GAS  C:\Users\Thomas\AppData\Local\Temp\ccRZX1Ar.s 			page 7


 224:.\Generated_Source\PSoC5/WinTimer_IRQ.c **** *   Gets the "address" of the current ISR vector for the Interrupt.
 225:.\Generated_Source\PSoC5/WinTimer_IRQ.c **** *
 226:.\Generated_Source\PSoC5/WinTimer_IRQ.c **** * Parameters:
 227:.\Generated_Source\PSoC5/WinTimer_IRQ.c **** *   None
 228:.\Generated_Source\PSoC5/WinTimer_IRQ.c **** *
 229:.\Generated_Source\PSoC5/WinTimer_IRQ.c **** * Return:
 230:.\Generated_Source\PSoC5/WinTimer_IRQ.c **** *   Address of the ISR in the interrupt vector table.
 231:.\Generated_Source\PSoC5/WinTimer_IRQ.c **** *
 232:.\Generated_Source\PSoC5/WinTimer_IRQ.c **** *******************************************************************************/
 233:.\Generated_Source\PSoC5/WinTimer_IRQ.c **** cyisraddress WinTimer_IRQ_GetVector(void)
 234:.\Generated_Source\PSoC5/WinTimer_IRQ.c **** {
 120              		.loc 1 234 0
 121              		.cfi_startproc
 122              		@ args = 0, pretend = 0, frame = 0
 123              		@ frame_needed = 0, uses_anonymous_args = 0
 124              		@ link register save eliminated.
 235:.\Generated_Source\PSoC5/WinTimer_IRQ.c ****     cyisraddress * ramVectorTable;
 236:.\Generated_Source\PSoC5/WinTimer_IRQ.c **** 
 237:.\Generated_Source\PSoC5/WinTimer_IRQ.c ****     ramVectorTable = (cyisraddress *) *CYINT_VECT_TABLE;
 125              		.loc 1 237 0
 126 0000 014B     		ldr	r3, .L10
 127 0002 1B68     		ldr	r3, [r3]
 128              	.LVL2:
 238:.\Generated_Source\PSoC5/WinTimer_IRQ.c **** 
 239:.\Generated_Source\PSoC5/WinTimer_IRQ.c ****     return ramVectorTable[CYINT_IRQ_BASE + (uint32)WinTimer_IRQ__INTC_NUMBER];
 240:.\Generated_Source\PSoC5/WinTimer_IRQ.c **** }
 129              		.loc 1 240 0
 130 0004 586C     		ldr	r0, [r3, #68]
 131 0006 7047     		bx	lr
 132              	.L11:
 133              		.align	2
 134              	.L10:
 135 0008 08ED00E0 		.word	-536810232
 136              		.cfi_endproc
 137              	.LFE68:
 138              		.size	WinTimer_IRQ_GetVector, .-WinTimer_IRQ_GetVector
 139              		.section	.text.WinTimer_IRQ_SetPriority,"ax",%progbits
 140              		.align	2
 141              		.global	WinTimer_IRQ_SetPriority
 142              		.thumb
 143              		.thumb_func
 144              		.type	WinTimer_IRQ_SetPriority, %function
 145              	WinTimer_IRQ_SetPriority:
 146              	.LFB69:
 241:.\Generated_Source\PSoC5/WinTimer_IRQ.c **** 
 242:.\Generated_Source\PSoC5/WinTimer_IRQ.c **** 
 243:.\Generated_Source\PSoC5/WinTimer_IRQ.c **** /*******************************************************************************
 244:.\Generated_Source\PSoC5/WinTimer_IRQ.c **** * Function Name: WinTimer_IRQ_SetPriority
 245:.\Generated_Source\PSoC5/WinTimer_IRQ.c **** ********************************************************************************
 246:.\Generated_Source\PSoC5/WinTimer_IRQ.c **** *
 247:.\Generated_Source\PSoC5/WinTimer_IRQ.c **** * Summary:
 248:.\Generated_Source\PSoC5/WinTimer_IRQ.c **** *   Sets the Priority of the Interrupt. 
 249:.\Generated_Source\PSoC5/WinTimer_IRQ.c **** *
 250:.\Generated_Source\PSoC5/WinTimer_IRQ.c **** *   Note calling WinTimer_IRQ_Start or WinTimer_IRQ_StartEx will 
 251:.\Generated_Source\PSoC5/WinTimer_IRQ.c **** *   override any effect this API would have had. This API should only be called
 252:.\Generated_Source\PSoC5/WinTimer_IRQ.c **** *   after WinTimer_IRQ_Start or WinTimer_IRQ_StartEx has been called. 
 253:.\Generated_Source\PSoC5/WinTimer_IRQ.c **** *   To set the initial priority for the component, use the Design-Wide Resources
ARM GAS  C:\Users\Thomas\AppData\Local\Temp\ccRZX1Ar.s 			page 8


 254:.\Generated_Source\PSoC5/WinTimer_IRQ.c **** *   Interrupt Editor.
 255:.\Generated_Source\PSoC5/WinTimer_IRQ.c **** *
 256:.\Generated_Source\PSoC5/WinTimer_IRQ.c **** *   Note This API has no effect on Non-maskable interrupt NMI).
 257:.\Generated_Source\PSoC5/WinTimer_IRQ.c **** *
 258:.\Generated_Source\PSoC5/WinTimer_IRQ.c **** * Parameters:
 259:.\Generated_Source\PSoC5/WinTimer_IRQ.c **** *   priority: Priority of the interrupt, 0 being the highest priority
 260:.\Generated_Source\PSoC5/WinTimer_IRQ.c **** *             PSoC 3 and PSoC 5LP: Priority is from 0 to 7.
 261:.\Generated_Source\PSoC5/WinTimer_IRQ.c **** *             PSoC 4: Priority is from 0 to 3.
 262:.\Generated_Source\PSoC5/WinTimer_IRQ.c **** *
 263:.\Generated_Source\PSoC5/WinTimer_IRQ.c **** * Return:
 264:.\Generated_Source\PSoC5/WinTimer_IRQ.c **** *   None
 265:.\Generated_Source\PSoC5/WinTimer_IRQ.c **** *
 266:.\Generated_Source\PSoC5/WinTimer_IRQ.c **** *******************************************************************************/
 267:.\Generated_Source\PSoC5/WinTimer_IRQ.c **** void WinTimer_IRQ_SetPriority(uint8 priority)
 268:.\Generated_Source\PSoC5/WinTimer_IRQ.c **** {
 147              		.loc 1 268 0
 148              		.cfi_startproc
 149              		@ args = 0, pretend = 0, frame = 0
 150              		@ frame_needed = 0, uses_anonymous_args = 0
 151              		@ link register save eliminated.
 152              	.LVL3:
 269:.\Generated_Source\PSoC5/WinTimer_IRQ.c ****     *WinTimer_IRQ_INTC_PRIOR = priority << 5;
 153              		.loc 1 269 0
 154 0000 4001     		lsls	r0, r0, #5
 155              	.LVL4:
 156 0002 C0B2     		uxtb	r0, r0
 157 0004 014B     		ldr	r3, .L13
 158 0006 1870     		strb	r0, [r3]
 159 0008 7047     		bx	lr
 160              	.L14:
 161 000a 00BF     		.align	2
 162              	.L13:
 163 000c 01E400E0 		.word	-536812543
 164              		.cfi_endproc
 165              	.LFE69:
 166              		.size	WinTimer_IRQ_SetPriority, .-WinTimer_IRQ_SetPriority
 167              		.section	.text.WinTimer_IRQ_GetPriority,"ax",%progbits
 168              		.align	2
 169              		.global	WinTimer_IRQ_GetPriority
 170              		.thumb
 171              		.thumb_func
 172              		.type	WinTimer_IRQ_GetPriority, %function
 173              	WinTimer_IRQ_GetPriority:
 174              	.LFB70:
 270:.\Generated_Source\PSoC5/WinTimer_IRQ.c **** }
 271:.\Generated_Source\PSoC5/WinTimer_IRQ.c **** 
 272:.\Generated_Source\PSoC5/WinTimer_IRQ.c **** 
 273:.\Generated_Source\PSoC5/WinTimer_IRQ.c **** /*******************************************************************************
 274:.\Generated_Source\PSoC5/WinTimer_IRQ.c **** * Function Name: WinTimer_IRQ_GetPriority
 275:.\Generated_Source\PSoC5/WinTimer_IRQ.c **** ********************************************************************************
 276:.\Generated_Source\PSoC5/WinTimer_IRQ.c **** *
 277:.\Generated_Source\PSoC5/WinTimer_IRQ.c **** * Summary:
 278:.\Generated_Source\PSoC5/WinTimer_IRQ.c **** *   Gets the Priority of the Interrupt.
 279:.\Generated_Source\PSoC5/WinTimer_IRQ.c **** *
 280:.\Generated_Source\PSoC5/WinTimer_IRQ.c **** * Parameters:
 281:.\Generated_Source\PSoC5/WinTimer_IRQ.c **** *   None
 282:.\Generated_Source\PSoC5/WinTimer_IRQ.c **** *
ARM GAS  C:\Users\Thomas\AppData\Local\Temp\ccRZX1Ar.s 			page 9


 283:.\Generated_Source\PSoC5/WinTimer_IRQ.c **** * Return:
 284:.\Generated_Source\PSoC5/WinTimer_IRQ.c **** *   Priority of the interrupt, 0 being the highest priority
 285:.\Generated_Source\PSoC5/WinTimer_IRQ.c **** *    PSoC 3 and PSoC 5LP: Priority is from 0 to 7.
 286:.\Generated_Source\PSoC5/WinTimer_IRQ.c **** *    PSoC 4: Priority is from 0 to 3.
 287:.\Generated_Source\PSoC5/WinTimer_IRQ.c **** *
 288:.\Generated_Source\PSoC5/WinTimer_IRQ.c **** *******************************************************************************/
 289:.\Generated_Source\PSoC5/WinTimer_IRQ.c **** uint8 WinTimer_IRQ_GetPriority(void)
 290:.\Generated_Source\PSoC5/WinTimer_IRQ.c **** {
 175              		.loc 1 290 0
 176              		.cfi_startproc
 177              		@ args = 0, pretend = 0, frame = 0
 178              		@ frame_needed = 0, uses_anonymous_args = 0
 179              		@ link register save eliminated.
 291:.\Generated_Source\PSoC5/WinTimer_IRQ.c ****     uint8 priority;
 292:.\Generated_Source\PSoC5/WinTimer_IRQ.c **** 
 293:.\Generated_Source\PSoC5/WinTimer_IRQ.c **** 
 294:.\Generated_Source\PSoC5/WinTimer_IRQ.c ****     priority = *WinTimer_IRQ_INTC_PRIOR >> 5;
 180              		.loc 1 294 0
 181 0000 014B     		ldr	r3, .L16
 182 0002 1878     		ldrb	r0, [r3]	@ zero_extendqisi2
 183              	.LVL5:
 295:.\Generated_Source\PSoC5/WinTimer_IRQ.c **** 
 296:.\Generated_Source\PSoC5/WinTimer_IRQ.c ****     return priority;
 297:.\Generated_Source\PSoC5/WinTimer_IRQ.c **** }
 184              		.loc 1 297 0
 185 0004 4009     		lsrs	r0, r0, #5
 186              	.LVL6:
 187 0006 7047     		bx	lr
 188              	.L17:
 189              		.align	2
 190              	.L16:
 191 0008 01E400E0 		.word	-536812543
 192              		.cfi_endproc
 193              	.LFE70:
 194              		.size	WinTimer_IRQ_GetPriority, .-WinTimer_IRQ_GetPriority
 195              		.section	.text.WinTimer_IRQ_Enable,"ax",%progbits
 196              		.align	2
 197              		.global	WinTimer_IRQ_Enable
 198              		.thumb
 199              		.thumb_func
 200              		.type	WinTimer_IRQ_Enable, %function
 201              	WinTimer_IRQ_Enable:
 202              	.LFB71:
 298:.\Generated_Source\PSoC5/WinTimer_IRQ.c **** 
 299:.\Generated_Source\PSoC5/WinTimer_IRQ.c **** 
 300:.\Generated_Source\PSoC5/WinTimer_IRQ.c **** /*******************************************************************************
 301:.\Generated_Source\PSoC5/WinTimer_IRQ.c **** * Function Name: WinTimer_IRQ_Enable
 302:.\Generated_Source\PSoC5/WinTimer_IRQ.c **** ********************************************************************************
 303:.\Generated_Source\PSoC5/WinTimer_IRQ.c **** *
 304:.\Generated_Source\PSoC5/WinTimer_IRQ.c **** * Summary:
 305:.\Generated_Source\PSoC5/WinTimer_IRQ.c **** *   Enables the interrupt to the interrupt controller. Do not call this function
 306:.\Generated_Source\PSoC5/WinTimer_IRQ.c **** *   unless ISR_Start() has been called or the functionality of the ISR_Start() 
 307:.\Generated_Source\PSoC5/WinTimer_IRQ.c **** *   function, which sets the vector and the priority, has been called.
 308:.\Generated_Source\PSoC5/WinTimer_IRQ.c **** *
 309:.\Generated_Source\PSoC5/WinTimer_IRQ.c **** * Parameters:
 310:.\Generated_Source\PSoC5/WinTimer_IRQ.c **** *   None
 311:.\Generated_Source\PSoC5/WinTimer_IRQ.c **** *
ARM GAS  C:\Users\Thomas\AppData\Local\Temp\ccRZX1Ar.s 			page 10


 312:.\Generated_Source\PSoC5/WinTimer_IRQ.c **** * Return:
 313:.\Generated_Source\PSoC5/WinTimer_IRQ.c **** *   None
 314:.\Generated_Source\PSoC5/WinTimer_IRQ.c **** *
 315:.\Generated_Source\PSoC5/WinTimer_IRQ.c **** *******************************************************************************/
 316:.\Generated_Source\PSoC5/WinTimer_IRQ.c **** void WinTimer_IRQ_Enable(void)
 317:.\Generated_Source\PSoC5/WinTimer_IRQ.c **** {
 203              		.loc 1 317 0
 204              		.cfi_startproc
 205              		@ args = 0, pretend = 0, frame = 0
 206              		@ frame_needed = 0, uses_anonymous_args = 0
 207              		@ link register save eliminated.
 318:.\Generated_Source\PSoC5/WinTimer_IRQ.c ****     /* Enable the general interrupt. */
 319:.\Generated_Source\PSoC5/WinTimer_IRQ.c ****     *WinTimer_IRQ_INTC_SET_EN = WinTimer_IRQ__INTC_MASK;
 208              		.loc 1 319 0
 209 0000 0222     		movs	r2, #2
 210 0002 014B     		ldr	r3, .L19
 211 0004 1A60     		str	r2, [r3]
 212 0006 7047     		bx	lr
 213              	.L20:
 214              		.align	2
 215              	.L19:
 216 0008 00E100E0 		.word	-536813312
 217              		.cfi_endproc
 218              	.LFE71:
 219              		.size	WinTimer_IRQ_Enable, .-WinTimer_IRQ_Enable
 220              		.section	.text.WinTimer_IRQ_GetState,"ax",%progbits
 221              		.align	2
 222              		.global	WinTimer_IRQ_GetState
 223              		.thumb
 224              		.thumb_func
 225              		.type	WinTimer_IRQ_GetState, %function
 226              	WinTimer_IRQ_GetState:
 227              	.LFB72:
 320:.\Generated_Source\PSoC5/WinTimer_IRQ.c **** }
 321:.\Generated_Source\PSoC5/WinTimer_IRQ.c **** 
 322:.\Generated_Source\PSoC5/WinTimer_IRQ.c **** 
 323:.\Generated_Source\PSoC5/WinTimer_IRQ.c **** /*******************************************************************************
 324:.\Generated_Source\PSoC5/WinTimer_IRQ.c **** * Function Name: WinTimer_IRQ_GetState
 325:.\Generated_Source\PSoC5/WinTimer_IRQ.c **** ********************************************************************************
 326:.\Generated_Source\PSoC5/WinTimer_IRQ.c **** *
 327:.\Generated_Source\PSoC5/WinTimer_IRQ.c **** * Summary:
 328:.\Generated_Source\PSoC5/WinTimer_IRQ.c **** *   Gets the state (enabled, disabled) of the Interrupt.
 329:.\Generated_Source\PSoC5/WinTimer_IRQ.c **** *
 330:.\Generated_Source\PSoC5/WinTimer_IRQ.c **** * Parameters:
 331:.\Generated_Source\PSoC5/WinTimer_IRQ.c **** *   None
 332:.\Generated_Source\PSoC5/WinTimer_IRQ.c **** *
 333:.\Generated_Source\PSoC5/WinTimer_IRQ.c **** * Return:
 334:.\Generated_Source\PSoC5/WinTimer_IRQ.c **** *   1 if enabled, 0 if disabled.
 335:.\Generated_Source\PSoC5/WinTimer_IRQ.c **** *
 336:.\Generated_Source\PSoC5/WinTimer_IRQ.c **** *******************************************************************************/
 337:.\Generated_Source\PSoC5/WinTimer_IRQ.c **** uint8 WinTimer_IRQ_GetState(void)
 338:.\Generated_Source\PSoC5/WinTimer_IRQ.c **** {
 228              		.loc 1 338 0
 229              		.cfi_startproc
 230              		@ args = 0, pretend = 0, frame = 0
 231              		@ frame_needed = 0, uses_anonymous_args = 0
 232              		@ link register save eliminated.
ARM GAS  C:\Users\Thomas\AppData\Local\Temp\ccRZX1Ar.s 			page 11


 339:.\Generated_Source\PSoC5/WinTimer_IRQ.c ****     /* Get the state of the general interrupt. */
 340:.\Generated_Source\PSoC5/WinTimer_IRQ.c ****     return ((*WinTimer_IRQ_INTC_SET_EN & (uint32)WinTimer_IRQ__INTC_MASK) != 0u) ? 1u:0u;
 233              		.loc 1 340 0
 234 0000 044B     		ldr	r3, .L24
 235 0002 1B68     		ldr	r3, [r3]
 236 0004 13F0020F 		tst	r3, #2
 237 0008 01D0     		beq	.L23
 238 000a 0120     		movs	r0, #1
 239 000c 7047     		bx	lr
 240              	.L23:
 241 000e 0020     		movs	r0, #0
 341:.\Generated_Source\PSoC5/WinTimer_IRQ.c **** }
 242              		.loc 1 341 0
 243 0010 7047     		bx	lr
 244              	.L25:
 245 0012 00BF     		.align	2
 246              	.L24:
 247 0014 00E100E0 		.word	-536813312
 248              		.cfi_endproc
 249              	.LFE72:
 250              		.size	WinTimer_IRQ_GetState, .-WinTimer_IRQ_GetState
 251              		.section	.text.WinTimer_IRQ_Disable,"ax",%progbits
 252              		.align	2
 253              		.global	WinTimer_IRQ_Disable
 254              		.thumb
 255              		.thumb_func
 256              		.type	WinTimer_IRQ_Disable, %function
 257              	WinTimer_IRQ_Disable:
 258              	.LFB73:
 342:.\Generated_Source\PSoC5/WinTimer_IRQ.c **** 
 343:.\Generated_Source\PSoC5/WinTimer_IRQ.c **** 
 344:.\Generated_Source\PSoC5/WinTimer_IRQ.c **** /*******************************************************************************
 345:.\Generated_Source\PSoC5/WinTimer_IRQ.c **** * Function Name: WinTimer_IRQ_Disable
 346:.\Generated_Source\PSoC5/WinTimer_IRQ.c **** ********************************************************************************
 347:.\Generated_Source\PSoC5/WinTimer_IRQ.c **** *
 348:.\Generated_Source\PSoC5/WinTimer_IRQ.c **** * Summary:
 349:.\Generated_Source\PSoC5/WinTimer_IRQ.c **** *   Disables the Interrupt in the interrupt controller.
 350:.\Generated_Source\PSoC5/WinTimer_IRQ.c **** *
 351:.\Generated_Source\PSoC5/WinTimer_IRQ.c **** * Parameters:
 352:.\Generated_Source\PSoC5/WinTimer_IRQ.c **** *   None
 353:.\Generated_Source\PSoC5/WinTimer_IRQ.c **** *
 354:.\Generated_Source\PSoC5/WinTimer_IRQ.c **** * Return:
 355:.\Generated_Source\PSoC5/WinTimer_IRQ.c **** *   None
 356:.\Generated_Source\PSoC5/WinTimer_IRQ.c **** *
 357:.\Generated_Source\PSoC5/WinTimer_IRQ.c **** *******************************************************************************/
 358:.\Generated_Source\PSoC5/WinTimer_IRQ.c **** void WinTimer_IRQ_Disable(void)
 359:.\Generated_Source\PSoC5/WinTimer_IRQ.c **** {
 259              		.loc 1 359 0
 260              		.cfi_startproc
 261              		@ args = 0, pretend = 0, frame = 0
 262              		@ frame_needed = 0, uses_anonymous_args = 0
 263              		@ link register save eliminated.
 360:.\Generated_Source\PSoC5/WinTimer_IRQ.c ****     /* Disable the general interrupt. */
 361:.\Generated_Source\PSoC5/WinTimer_IRQ.c ****     *WinTimer_IRQ_INTC_CLR_EN = WinTimer_IRQ__INTC_MASK;
 264              		.loc 1 361 0
 265 0000 0222     		movs	r2, #2
 266 0002 014B     		ldr	r3, .L27
ARM GAS  C:\Users\Thomas\AppData\Local\Temp\ccRZX1Ar.s 			page 12


 267 0004 1A60     		str	r2, [r3]
 268 0006 7047     		bx	lr
 269              	.L28:
 270              		.align	2
 271              	.L27:
 272 0008 80E100E0 		.word	-536813184
 273              		.cfi_endproc
 274              	.LFE73:
 275              		.size	WinTimer_IRQ_Disable, .-WinTimer_IRQ_Disable
 276              		.section	.text.WinTimer_IRQ_Start,"ax",%progbits
 277              		.align	2
 278              		.global	WinTimer_IRQ_Start
 279              		.thumb
 280              		.thumb_func
 281              		.type	WinTimer_IRQ_Start, %function
 282              	WinTimer_IRQ_Start:
 283              	.LFB63:
  62:.\Generated_Source\PSoC5/WinTimer_IRQ.c ****     /* For all we know the interrupt is active. */
 284              		.loc 1 62 0
 285              		.cfi_startproc
 286              		@ args = 0, pretend = 0, frame = 0
 287              		@ frame_needed = 0, uses_anonymous_args = 0
 288 0000 08B5     		push	{r3, lr}
 289              		.cfi_def_cfa_offset 8
 290              		.cfi_offset 3, -8
 291              		.cfi_offset 14, -4
  64:.\Generated_Source\PSoC5/WinTimer_IRQ.c **** 
 292              		.loc 1 64 0
 293 0002 FFF7FEFF 		bl	WinTimer_IRQ_Disable
 294              	.LVL7:
  67:.\Generated_Source\PSoC5/WinTimer_IRQ.c **** 
 295              		.loc 1 67 0
 296 0006 0448     		ldr	r0, .L31
 297 0008 FFF7FEFF 		bl	WinTimer_IRQ_SetVector
 298              	.LVL8:
  70:.\Generated_Source\PSoC5/WinTimer_IRQ.c **** 
 299              		.loc 1 70 0
 300 000c 0120     		movs	r0, #1
 301 000e FFF7FEFF 		bl	WinTimer_IRQ_SetPriority
 302              	.LVL9:
  73:.\Generated_Source\PSoC5/WinTimer_IRQ.c **** }
 303              		.loc 1 73 0
 304 0012 FFF7FEFF 		bl	WinTimer_IRQ_Enable
 305              	.LVL10:
 306 0016 08BD     		pop	{r3, pc}
 307              	.L32:
 308              		.align	2
 309              	.L31:
 310 0018 00000000 		.word	WinTimer_IRQ_Interrupt
 311              		.cfi_endproc
 312              	.LFE63:
 313              		.size	WinTimer_IRQ_Start, .-WinTimer_IRQ_Start
 314              		.section	.text.WinTimer_IRQ_StartEx,"ax",%progbits
 315              		.align	2
 316              		.global	WinTimer_IRQ_StartEx
 317              		.thumb
 318              		.thumb_func
ARM GAS  C:\Users\Thomas\AppData\Local\Temp\ccRZX1Ar.s 			page 13


 319              		.type	WinTimer_IRQ_StartEx, %function
 320              	WinTimer_IRQ_StartEx:
 321              	.LFB64:
 105:.\Generated_Source\PSoC5/WinTimer_IRQ.c ****     /* For all we know the interrupt is active. */
 322              		.loc 1 105 0
 323              		.cfi_startproc
 324              		@ args = 0, pretend = 0, frame = 0
 325              		@ frame_needed = 0, uses_anonymous_args = 0
 326              	.LVL11:
 327 0000 10B5     		push	{r4, lr}
 328              		.cfi_def_cfa_offset 8
 329              		.cfi_offset 4, -8
 330              		.cfi_offset 14, -4
 331 0002 0446     		mov	r4, r0
 107:.\Generated_Source\PSoC5/WinTimer_IRQ.c **** 
 332              		.loc 1 107 0
 333 0004 FFF7FEFF 		bl	WinTimer_IRQ_Disable
 334              	.LVL12:
 110:.\Generated_Source\PSoC5/WinTimer_IRQ.c **** 
 335              		.loc 1 110 0
 336 0008 2046     		mov	r0, r4
 337 000a FFF7FEFF 		bl	WinTimer_IRQ_SetVector
 338              	.LVL13:
 113:.\Generated_Source\PSoC5/WinTimer_IRQ.c **** 
 339              		.loc 1 113 0
 340 000e 0120     		movs	r0, #1
 341 0010 FFF7FEFF 		bl	WinTimer_IRQ_SetPriority
 342              	.LVL14:
 116:.\Generated_Source\PSoC5/WinTimer_IRQ.c **** }
 343              		.loc 1 116 0
 344 0014 FFF7FEFF 		bl	WinTimer_IRQ_Enable
 345              	.LVL15:
 346 0018 10BD     		pop	{r4, pc}
 347              		.cfi_endproc
 348              	.LFE64:
 349              		.size	WinTimer_IRQ_StartEx, .-WinTimer_IRQ_StartEx
 350 001a 00BF     		.section	.text.WinTimer_IRQ_Stop,"ax",%progbits
 351              		.align	2
 352              		.global	WinTimer_IRQ_Stop
 353              		.thumb
 354              		.thumb_func
 355              		.type	WinTimer_IRQ_Stop, %function
 356              	WinTimer_IRQ_Stop:
 357              	.LFB65:
 135:.\Generated_Source\PSoC5/WinTimer_IRQ.c ****     /* Disable this interrupt. */
 358              		.loc 1 135 0
 359              		.cfi_startproc
 360              		@ args = 0, pretend = 0, frame = 0
 361              		@ frame_needed = 0, uses_anonymous_args = 0
 362 0000 08B5     		push	{r3, lr}
 363              		.cfi_def_cfa_offset 8
 364              		.cfi_offset 3, -8
 365              		.cfi_offset 14, -4
 137:.\Generated_Source\PSoC5/WinTimer_IRQ.c **** 
 366              		.loc 1 137 0
 367 0002 FFF7FEFF 		bl	WinTimer_IRQ_Disable
 368              	.LVL16:
ARM GAS  C:\Users\Thomas\AppData\Local\Temp\ccRZX1Ar.s 			page 14


 140:.\Generated_Source\PSoC5/WinTimer_IRQ.c **** }
 369              		.loc 1 140 0
 370 0006 0248     		ldr	r0, .L37
 371 0008 FFF7FEFF 		bl	WinTimer_IRQ_SetVector
 372              	.LVL17:
 373 000c 08BD     		pop	{r3, pc}
 374              	.L38:
 375 000e 00BF     		.align	2
 376              	.L37:
 377 0010 00000000 		.word	IntDefaultHandler
 378              		.cfi_endproc
 379              	.LFE65:
 380              		.size	WinTimer_IRQ_Stop, .-WinTimer_IRQ_Stop
 381              		.section	.text.WinTimer_IRQ_SetPending,"ax",%progbits
 382              		.align	2
 383              		.global	WinTimer_IRQ_SetPending
 384              		.thumb
 385              		.thumb_func
 386              		.type	WinTimer_IRQ_SetPending, %function
 387              	WinTimer_IRQ_SetPending:
 388              	.LFB74:
 362:.\Generated_Source\PSoC5/WinTimer_IRQ.c **** }
 363:.\Generated_Source\PSoC5/WinTimer_IRQ.c **** 
 364:.\Generated_Source\PSoC5/WinTimer_IRQ.c **** 
 365:.\Generated_Source\PSoC5/WinTimer_IRQ.c **** /*******************************************************************************
 366:.\Generated_Source\PSoC5/WinTimer_IRQ.c **** * Function Name: WinTimer_IRQ_SetPending
 367:.\Generated_Source\PSoC5/WinTimer_IRQ.c **** ********************************************************************************
 368:.\Generated_Source\PSoC5/WinTimer_IRQ.c **** *
 369:.\Generated_Source\PSoC5/WinTimer_IRQ.c **** * Summary:
 370:.\Generated_Source\PSoC5/WinTimer_IRQ.c **** *   Causes the Interrupt to enter the pending state, a software method of
 371:.\Generated_Source\PSoC5/WinTimer_IRQ.c **** *   generating the interrupt.
 372:.\Generated_Source\PSoC5/WinTimer_IRQ.c **** *
 373:.\Generated_Source\PSoC5/WinTimer_IRQ.c **** * Parameters:
 374:.\Generated_Source\PSoC5/WinTimer_IRQ.c **** *   None
 375:.\Generated_Source\PSoC5/WinTimer_IRQ.c **** *
 376:.\Generated_Source\PSoC5/WinTimer_IRQ.c **** * Return:
 377:.\Generated_Source\PSoC5/WinTimer_IRQ.c **** *   None
 378:.\Generated_Source\PSoC5/WinTimer_IRQ.c **** *
 379:.\Generated_Source\PSoC5/WinTimer_IRQ.c **** * Side Effects:
 380:.\Generated_Source\PSoC5/WinTimer_IRQ.c **** *   If interrupts are enabled and the interrupt is set up properly, the ISR is
 381:.\Generated_Source\PSoC5/WinTimer_IRQ.c **** *   entered (depending on the priority of this interrupt and other pending 
 382:.\Generated_Source\PSoC5/WinTimer_IRQ.c **** *   interrupts).
 383:.\Generated_Source\PSoC5/WinTimer_IRQ.c **** *
 384:.\Generated_Source\PSoC5/WinTimer_IRQ.c **** *******************************************************************************/
 385:.\Generated_Source\PSoC5/WinTimer_IRQ.c **** void WinTimer_IRQ_SetPending(void)
 386:.\Generated_Source\PSoC5/WinTimer_IRQ.c **** {
 389              		.loc 1 386 0
 390              		.cfi_startproc
 391              		@ args = 0, pretend = 0, frame = 0
 392              		@ frame_needed = 0, uses_anonymous_args = 0
 393              		@ link register save eliminated.
 387:.\Generated_Source\PSoC5/WinTimer_IRQ.c ****     *WinTimer_IRQ_INTC_SET_PD = WinTimer_IRQ__INTC_MASK;
 394              		.loc 1 387 0
 395 0000 0222     		movs	r2, #2
 396 0002 014B     		ldr	r3, .L40
 397 0004 1A60     		str	r2, [r3]
 398 0006 7047     		bx	lr
ARM GAS  C:\Users\Thomas\AppData\Local\Temp\ccRZX1Ar.s 			page 15


 399              	.L41:
 400              		.align	2
 401              	.L40:
 402 0008 00E200E0 		.word	-536813056
 403              		.cfi_endproc
 404              	.LFE74:
 405              		.size	WinTimer_IRQ_SetPending, .-WinTimer_IRQ_SetPending
 406              		.section	.text.WinTimer_IRQ_ClearPending,"ax",%progbits
 407              		.align	2
 408              		.global	WinTimer_IRQ_ClearPending
 409              		.thumb
 410              		.thumb_func
 411              		.type	WinTimer_IRQ_ClearPending, %function
 412              	WinTimer_IRQ_ClearPending:
 413              	.LFB75:
 388:.\Generated_Source\PSoC5/WinTimer_IRQ.c **** }
 389:.\Generated_Source\PSoC5/WinTimer_IRQ.c **** 
 390:.\Generated_Source\PSoC5/WinTimer_IRQ.c **** 
 391:.\Generated_Source\PSoC5/WinTimer_IRQ.c **** /*******************************************************************************
 392:.\Generated_Source\PSoC5/WinTimer_IRQ.c **** * Function Name: WinTimer_IRQ_ClearPending
 393:.\Generated_Source\PSoC5/WinTimer_IRQ.c **** ********************************************************************************
 394:.\Generated_Source\PSoC5/WinTimer_IRQ.c **** *
 395:.\Generated_Source\PSoC5/WinTimer_IRQ.c **** * Summary:
 396:.\Generated_Source\PSoC5/WinTimer_IRQ.c **** *   Clears a pending interrupt in the interrupt controller.
 397:.\Generated_Source\PSoC5/WinTimer_IRQ.c **** *
 398:.\Generated_Source\PSoC5/WinTimer_IRQ.c **** *   Note Some interrupt sources are clear-on-read and require the block 
 399:.\Generated_Source\PSoC5/WinTimer_IRQ.c **** *   interrupt/status register to be read/cleared with the appropriate block API 
 400:.\Generated_Source\PSoC5/WinTimer_IRQ.c **** *   (GPIO, UART, and so on). Otherwise the ISR will continue to remain in 
 401:.\Generated_Source\PSoC5/WinTimer_IRQ.c **** *   pending state even though the interrupt itself is cleared using this API.
 402:.\Generated_Source\PSoC5/WinTimer_IRQ.c **** *
 403:.\Generated_Source\PSoC5/WinTimer_IRQ.c **** * Parameters:
 404:.\Generated_Source\PSoC5/WinTimer_IRQ.c **** *   None
 405:.\Generated_Source\PSoC5/WinTimer_IRQ.c **** *
 406:.\Generated_Source\PSoC5/WinTimer_IRQ.c **** * Return:
 407:.\Generated_Source\PSoC5/WinTimer_IRQ.c **** *   None
 408:.\Generated_Source\PSoC5/WinTimer_IRQ.c **** *
 409:.\Generated_Source\PSoC5/WinTimer_IRQ.c **** *******************************************************************************/
 410:.\Generated_Source\PSoC5/WinTimer_IRQ.c **** void WinTimer_IRQ_ClearPending(void)
 411:.\Generated_Source\PSoC5/WinTimer_IRQ.c **** {
 414              		.loc 1 411 0
 415              		.cfi_startproc
 416              		@ args = 0, pretend = 0, frame = 0
 417              		@ frame_needed = 0, uses_anonymous_args = 0
 418              		@ link register save eliminated.
 412:.\Generated_Source\PSoC5/WinTimer_IRQ.c ****     *WinTimer_IRQ_INTC_CLR_PD = WinTimer_IRQ__INTC_MASK;
 419              		.loc 1 412 0
 420 0000 0222     		movs	r2, #2
 421 0002 014B     		ldr	r3, .L43
 422 0004 1A60     		str	r2, [r3]
 423 0006 7047     		bx	lr
 424              	.L44:
 425              		.align	2
 426              	.L43:
 427 0008 80E200E0 		.word	-536812928
 428              		.cfi_endproc
 429              	.LFE75:
 430              		.size	WinTimer_IRQ_ClearPending, .-WinTimer_IRQ_ClearPending
ARM GAS  C:\Users\Thomas\AppData\Local\Temp\ccRZX1Ar.s 			page 16


 431              		.comm	disable_timer,4,4
 432              		.comm	use_timer,4,4
 433              		.comm	timer_ready,4,4
 434              		.comm	ready,4,4
 435              		.comm	input,32768,4
 436              		.comm	data,2,2
 437              		.comm	buf_ptr,4,4
 438              		.comm	input_ptr,4,4
 439              		.comm	playing,4,4
 440              		.comm	sent,4,4
 441              		.text
 442              	.Letext0:
 443              		.file 2 "c:\\program files (x86)\\cypress\\psoc creator\\3.3\\psoc creator\\import\\gnu\\arm\\4.9.
 444              		.file 3 "c:\\program files (x86)\\cypress\\psoc creator\\3.3\\psoc creator\\import\\gnu\\arm\\4.9.
 445              		.file 4 "Generated_Source\\PSoC5/cytypes.h"
 446              		.file 5 "Generated_Source\\PSoC5/core_cm3.h"
 447              		.file 6 "./main.h"